
test.gba:     file format binary


Disassembly of section .data:

00000000 <.data>:
   0:	ea00002e 	b	0xc0
	...
  b0:	00963130 	addseq	r3, r6, r0, lsr r1
	...
  bc:	0000f000 	andeq	pc, r0, r0
  c0:	ea000006 	b	0xe0
	...
  e0:	e3a00301 	mov	r0, #67108864	; 0x4000000
  e4:	e5800208 	str	r0, [r0, #520]	; 0x208
  e8:	e3a00012 	mov	r0, #18
  ec:	e129f000 	msr	CPSR_fc, r0
  f0:	e59fd0b8 	ldr	sp, [pc, #184]	; 0x1b0
  f4:	e3a0001f 	mov	r0, #31
  f8:	e129f000 	msr	CPSR_fc, r0
  fc:	e59fd0b0 	ldr	sp, [pc, #176]	; 0x1b4
 100:	e28f0001 	add	r0, pc, #1
 104:	e12fff10 	bx	r0
 108:	0140482b 	cmpeq	r0, fp, lsr #16
 10c:	4678d20b 	ldrbtmi	sp, [r8], -fp, lsl #4
 110:	d30d0140 	tstle	sp, #64, 2
 114:	06122202 	ldreq	r2, [r2], -r2, lsl #4
 118:	1a9b4b28 	bne	0xfe6d2dc0
 11c:	00911c16 	addseq	r1, r1, r6, lsl ip
 120:	f83cf000 			; <UNDEFINED> instruction: 0xf83cf000
 124:	21404730 	cmpcs	r0, r0, lsr r7
 128:	01c80309 	biceq	r0, r8, r9, lsl #6
 12c:	f82bf000 			; <UNDEFINED> instruction: 0xf82bf000
 130:	49244823 	stmdbmi	r4!, {r0, r1, r5, fp, lr}
 134:	f0001a09 			; <UNDEFINED> instruction: 0xf0001a09
 138:	4823f826 	stmdami	r3!, {r1, r2, r5, fp, ip, sp, lr, pc}
 13c:	1a094923 	bne	0x2525d0
 140:	f821f000 			; <UNDEFINED> instruction: 0xf821f000
 144:	4a234922 	bmi	0x8d25d4
 148:	f0004c23 			; <UNDEFINED> instruction: 0xf0004c23
 14c:	4923f826 	stmdbmi	r3!, {r1, r2, r5, fp, ip, sp, lr, pc}
 150:	4c244a23 			; <UNDEFINED> instruction: 0x4c244a23
 154:	f821f000 			; <UNDEFINED> instruction: 0xf821f000
 158:	49244a23 	stmdbmi	r4!, {r0, r1, r5, r9, fp, lr}
 15c:	d0021a53 	andle	r1, r2, r3, asr sl
 160:	f0004a23 			; <UNDEFINED> instruction: 0xf0004a23
 164:	4923f81b 	stmdbmi	r3!, {r0, r1, r3, r4, fp, ip, sp, lr, pc}
 168:	4c244a23 			; <UNDEFINED> instruction: 0x4c244a23
 16c:	f815f000 			; <UNDEFINED> instruction: 0xf815f000
 170:	48244923 	stmdami	r4!, {r0, r1, r5, r8, fp, lr}
 174:	4b246008 	blmi	0x91819c
 178:	f80ef000 			; <UNDEFINED> instruction: 0xf80ef000
 17c:	21002000 	mrscs	r2, (UNDEF: 0)
 180:	f0004b22 			; <UNDEFINED> instruction: 0xf0004b22
 184:	2203f809 	andcs	pc, r3, #589824	; 0x90000
 188:	43911889 	orrsmi	r1, r1, #8978432	; 0x890000
 18c:	2200d003 	andcs	sp, r0, #3
 190:	3904c004 	stmdbcc	r4, {r2, lr, pc}
 194:	4770d1fc 			; <UNDEFINED> instruction: 0x4770d1fc
 198:	1aa34718 	bne	0xfe8d1e00
 19c:	181b2003 	ldmdane	fp, {r0, r1, sp}
 1a0:	d0034383 	andle	r4, r3, r3, lsl #7
 1a4:	c201c901 	andgt	ip, r1, #16384	; 0x4000
 1a8:	d1fb3b04 	mvnsle	r3, r4, lsl #22
 1ac:	46c04770 			; <UNDEFINED> instruction: 0x46c04770
 1b0:	03007fa0 	tsteq	r0, #160, 30	; 0x280
 1b4:	03007f00 	tsteq	r0, #0, 30
 1b8:	08000000 	stmdaeq	r0, {}	; <UNPREDICTABLE>
 1bc:	02000000 	andeq	r0, r0, #0
 1c0:	03000000 	tsteq	r0, #0
 1c4:	03000020 	tsteq	r0, #32
 1c8:	02000000 	andeq	r0, r0, #0
 1cc:	02000000 	andeq	r0, r0, #0
 1d0:	080007a8 	stmdaeq	r0, {r3, r5, r7, r8, r9, sl}
 1d4:	03000020 	tsteq	r0, #32
 1d8:	03000028 	tsteq	r0, #40	; 0x28
 1dc:	080007a8 	stmdaeq	r0, {r3, r5, r7, r8, r9, sl}
 1e0:	03000000 	tsteq	r0, #0
 1e4:	03000000 	tsteq	r0, #0
 1e8:	080007b0 	stmdaeq	r0, {r4, r5, r7, r8, r9, sl}
 1ec:	080007b0 	stmdaeq	r0, {r4, r5, r7, r8, r9, sl}
 1f0:	03000028 	tsteq	r0, #40	; 0x28
 1f4:	080007b0 	stmdaeq	r0, {r4, r5, r7, r8, r9, sl}
 1f8:	02000000 	andeq	r0, r0, #0
 1fc:	02000000 	andeq	r0, r0, #0
 200:	0300001c 	tsteq	r0, #28
 204:	02040000 	andeq	r0, r4, #0
 208:	08000704 	stmdaeq	r0, {r2, r8, r9, sl}
 20c:	080006d0 	stmdaeq	r0, {r4, r6, r7, r9, sl}
 210:	e1a0c00d 	mov	ip, sp
 214:	e92ddff8 	push	{r3, r4, r5, r6, r7, r8, r9, sl, fp, ip, lr, pc}
 218:	e24cb004 	sub	fp, ip, #4
 21c:	e24bd028 	sub	sp, fp, #40	; 0x28
 220:	e89d6ff0 	ldm	sp, {r4, r5, r6, r7, r8, r9, sl, fp, sp, lr}
 224:	e12fff1e 	bx	lr
 228:	e59f1020 	ldr	r1, [pc, #32]	; 0x250
 22c:	e5d13001 	ldrb	r3, [r1, #1]
 230:	e2032001 	and	r2, r3, #1
 234:	e15200a3 	cmp	r2, r3, lsr #1
 238:	1afffffb 	bne	0x22c
 23c:	e5c10000 	strb	r0, [r1]
 240:	e5d13001 	ldrb	r3, [r1, #1]
 244:	e2233001 	eor	r3, r3, #1
 248:	e5c13001 	strb	r3, [r1, #1]
 24c:	e12fff1e 	bx	lr
 250:	04000400 	streq	r0, [r0], #-1024	; 0xfffffc00
 254:	e3500009 	cmp	r0, #9
 258:	e20000ff 	and	r0, r0, #255	; 0xff
 25c:	ca00000b 	bgt	0x290
 260:	e2800030 	add	r0, r0, #48	; 0x30
 264:	e59f1044 	ldr	r1, [pc, #68]	; 0x2b0
 268:	e20000ff 	and	r0, r0, #255	; 0xff
 26c:	e5d13001 	ldrb	r3, [r1, #1]
 270:	e2032001 	and	r2, r3, #1
 274:	e15200a3 	cmp	r2, r3, lsr #1
 278:	1afffffb 	bne	0x26c
 27c:	e5c10000 	strb	r0, [r1]
 280:	e5d13001 	ldrb	r3, [r1, #1]
 284:	e2233001 	eor	r3, r3, #1
 288:	e5c13001 	strb	r3, [r1, #1]
 28c:	e12fff1e 	bx	lr
 290:	e2800057 	add	r0, r0, #87	; 0x57
 294:	e59f1014 	ldr	r1, [pc, #20]	; 0x2b0
 298:	e20000ff 	and	r0, r0, #255	; 0xff
 29c:	e5d13001 	ldrb	r3, [r1, #1]
 2a0:	e2032001 	and	r2, r3, #1
 2a4:	e15200a3 	cmp	r2, r3, lsr #1
 2a8:	1afffffb 	bne	0x29c
 2ac:	eafffff2 	b	0x27c
 2b0:	04000400 	streq	r0, [r0], #-1024	; 0xfffffc00
 2b4:	e5d0c000 	ldrb	ip, [r0]
 2b8:	e35c0000 	cmp	ip, #0
 2bc:	012fff1e 	bxeq	lr
 2c0:	e59f102c 	ldr	r1, [pc, #44]	; 0x2f4
 2c4:	e5d13001 	ldrb	r3, [r1, #1]
 2c8:	e2032001 	and	r2, r3, #1
 2cc:	e15200a3 	cmp	r2, r3, lsr #1
 2d0:	1afffffb 	bne	0x2c4
 2d4:	e5c1c000 	strb	ip, [r1]
 2d8:	e5d13001 	ldrb	r3, [r1, #1]
 2dc:	e2233001 	eor	r3, r3, #1
 2e0:	e5c13001 	strb	r3, [r1, #1]
 2e4:	e5f0c001 	ldrb	ip, [r0, #1]!
 2e8:	e35c0000 	cmp	ip, #0
 2ec:	1afffff4 	bne	0x2c4
 2f0:	e12fff1e 	bx	lr
 2f4:	04000400 	streq	r0, [r0], #-1024	; 0xfffffc00
 2f8:	e52de004 	push	{lr}		; (str lr, [sp, #-4]!)
 2fc:	e59de004 	ldr	lr, [sp, #4]
 300:	e1a0c201 	lsl	ip, r1, #4
 304:	e082250e 	add	r2, r2, lr, lsl #10
 308:	e06c1401 	rsb	r1, ip, r1, lsl #8
 30c:	e0823283 	add	r3, r2, r3, lsl #5
 310:	e0811000 	add	r1, r1, r0
 314:	e1a03803 	lsl	r3, r3, #16
 318:	e1a01081 	lsl	r1, r1, #1
 31c:	e1a03823 	lsr	r3, r3, #16
 320:	e2811406 	add	r1, r1, #100663296	; 0x6000000
 324:	e1c130b0 	strh	r3, [r1]
 328:	e49de004 	pop	{lr}		; (ldr lr, [sp], #4)
 32c:	e12fff1e 	bx	lr
 330:	e3a02004 	mov	r2, #4
 334:	e3a03301 	mov	r3, #67108864	; 0x4000000
 338:	e3a01003 	mov	r1, #3
 33c:	e3500000 	cmp	r0, #0
 340:	e5c31000 	strb	r1, [r3]
 344:	e5c32001 	strb	r2, [r3, #1]
 348:	e3a03406 	mov	r3, #100663296	; 0x6000000
 34c:	13a0201f 	movne	r2, #31
 350:	03a02e3e 	moveq	r2, #992	; 0x3e0
 354:	e1c320b0 	strh	r2, [r3]
 358:	eafffffe 	b	0x358
 35c:	e3500000 	cmp	r0, #0
 360:	112fff1e 	bxne	lr
 364:	e92d4010 	push	{r4, lr}
 368:	e3a00001 	mov	r0, #1
 36c:	ebffffef 	bl	0x330
 370:	e3500001 	cmp	r0, #1
 374:	e92d4070 	push	{r4, r5, r6, lr}
 378:	d3a06000 	movle	r6, #0
 37c:	da00000e 	ble	0x3bc
 380:	e3500002 	cmp	r0, #2
 384:	0a000013 	beq	0x3d8
 388:	e2106001 	ands	r6, r0, #1
 38c:	0a00000a 	beq	0x3bc
 390:	e1a05000 	mov	r5, r0
 394:	e3a04002 	mov	r4, #2
 398:	ea000004 	b	0x3b0
 39c:	e1a01004 	mov	r1, r4
 3a0:	e1a00005 	mov	r0, r5
 3a4:	eb000089 	bl	0x5d0
 3a8:	e3510000 	cmp	r1, #0
 3ac:	0a000005 	beq	0x3c8
 3b0:	e2844001 	add	r4, r4, #1
 3b4:	e1550004 	cmp	r5, r4
 3b8:	1afffff7 	bne	0x39c
 3bc:	e1a00006 	mov	r0, r6
 3c0:	e8bd4070 	pop	{r4, r5, r6, lr}
 3c4:	e12fff1e 	bx	lr
 3c8:	e1a06001 	mov	r6, r1
 3cc:	e1a00006 	mov	r0, r6
 3d0:	e8bd4070 	pop	{r4, r5, r6, lr}
 3d4:	e12fff1e 	bx	lr
 3d8:	e3a06001 	mov	r6, #1
 3dc:	eafffff6 	b	0x3bc
 3e0:	e3500002 	cmp	r0, #2
 3e4:	e92d41f0 	push	{r4, r5, r6, r7, r8, lr}
 3e8:	c1a07000 	movgt	r7, r0
 3ec:	c3a04002 	movgt	r4, #2
 3f0:	da000024 	ble	0x488
 3f4:	e3540002 	cmp	r4, #2
 3f8:	0a00000b 	beq	0x42c
 3fc:	e3140001 	tst	r4, #1
 400:	0a00001d 	beq	0x47c
 404:	e3a05002 	mov	r5, #2
 408:	ea000004 	b	0x420
 40c:	e1a01005 	mov	r1, r5
 410:	e1a00004 	mov	r0, r4
 414:	eb00006d 	bl	0x5d0
 418:	e3510000 	cmp	r1, #0
 41c:	0a000016 	beq	0x47c
 420:	e2855001 	add	r5, r5, #1
 424:	e1550004 	cmp	r5, r4
 428:	1afffff7 	bne	0x40c
 42c:	e0476004 	sub	r6, r7, r4
 430:	e3560001 	cmp	r6, #1
 434:	da000010 	ble	0x47c
 438:	e3560002 	cmp	r6, #2
 43c:	0a000015 	beq	0x498
 440:	e2168001 	ands	r8, r6, #1
 444:	0a00000c 	beq	0x47c
 448:	e3a05002 	mov	r5, #2
 44c:	ea000004 	b	0x464
 450:	e1a01005 	mov	r1, r5
 454:	e1a00006 	mov	r0, r6
 458:	eb00005c 	bl	0x5d0
 45c:	e3510000 	cmp	r1, #0
 460:	0a000005 	beq	0x47c
 464:	e2855001 	add	r5, r5, #1
 468:	e1550006 	cmp	r5, r6
 46c:	1afffff7 	bne	0x450
 470:	e1a00008 	mov	r0, r8
 474:	e8bd41f0 	pop	{r4, r5, r6, r7, r8, lr}
 478:	e12fff1e 	bx	lr
 47c:	e2844001 	add	r4, r4, #1
 480:	e1570004 	cmp	r7, r4
 484:	1affffda 	bne	0x3f4
 488:	e3a08000 	mov	r8, #0
 48c:	e1a00008 	mov	r0, r8
 490:	e8bd41f0 	pop	{r4, r5, r6, r7, r8, lr}
 494:	e12fff1e 	bx	lr
 498:	e3a08001 	mov	r8, #1
 49c:	e1a00008 	mov	r0, r8
 4a0:	e8bd41f0 	pop	{r4, r5, r6, r7, r8, lr}
 4a4:	e12fff1e 	bx	lr
 4a8:	e3510000 	cmp	r1, #0
 4ac:	0a000043 	beq	0x5c0
 4b0:	e020c001 	eor	ip, r0, r1
 4b4:	42611000 	rsbmi	r1, r1, #0
 4b8:	e2512001 	subs	r2, r1, #1
 4bc:	0a000027 	beq	0x560
 4c0:	e1b03000 	movs	r3, r0
 4c4:	42603000 	rsbmi	r3, r0, #0
 4c8:	e1530001 	cmp	r3, r1
 4cc:	9a000026 	bls	0x56c
 4d0:	e1110002 	tst	r1, r2
 4d4:	0a000028 	beq	0x57c
 4d8:	e311020e 	tst	r1, #-536870912	; 0xe0000000
 4dc:	01a01181 	lsleq	r1, r1, #3
 4e0:	03a02008 	moveq	r2, #8
 4e4:	13a02001 	movne	r2, #1
 4e8:	e3510201 	cmp	r1, #268435456	; 0x10000000
 4ec:	31510003 	cmpcc	r1, r3
 4f0:	31a01201 	lslcc	r1, r1, #4
 4f4:	31a02202 	lslcc	r2, r2, #4
 4f8:	3afffffa 	bcc	0x4e8
 4fc:	e3510102 	cmp	r1, #-2147483648	; 0x80000000
 500:	31510003 	cmpcc	r1, r3
 504:	31a01081 	lslcc	r1, r1, #1
 508:	31a02082 	lslcc	r2, r2, #1
 50c:	3afffffa 	bcc	0x4fc
 510:	e3a00000 	mov	r0, #0
 514:	e1530001 	cmp	r3, r1
 518:	20433001 	subcs	r3, r3, r1
 51c:	21800002 	orrcs	r0, r0, r2
 520:	e15300a1 	cmp	r3, r1, lsr #1
 524:	204330a1 	subcs	r3, r3, r1, lsr #1
 528:	218000a2 	orrcs	r0, r0, r2, lsr #1
 52c:	e1530121 	cmp	r3, r1, lsr #2
 530:	20433121 	subcs	r3, r3, r1, lsr #2
 534:	21800122 	orrcs	r0, r0, r2, lsr #2
 538:	e15301a1 	cmp	r3, r1, lsr #3
 53c:	204331a1 	subcs	r3, r3, r1, lsr #3
 540:	218001a2 	orrcs	r0, r0, r2, lsr #3
 544:	e3530000 	cmp	r3, #0
 548:	11b02222 	lsrsne	r2, r2, #4
 54c:	11a01221 	lsrne	r1, r1, #4
 550:	1affffef 	bne	0x514
 554:	e35c0000 	cmp	ip, #0
 558:	42600000 	rsbmi	r0, r0, #0
 55c:	e12fff1e 	bx	lr
 560:	e13c0000 	teq	ip, r0
 564:	42600000 	rsbmi	r0, r0, #0
 568:	e12fff1e 	bx	lr
 56c:	33a00000 	movcc	r0, #0
 570:	01a00fcc 	asreq	r0, ip, #31
 574:	03800001 	orreq	r0, r0, #1
 578:	e12fff1e 	bx	lr
 57c:	e3510801 	cmp	r1, #65536	; 0x10000
 580:	21a01821 	lsrcs	r1, r1, #16
 584:	23a02010 	movcs	r2, #16
 588:	33a02000 	movcc	r2, #0
 58c:	e3510c01 	cmp	r1, #256	; 0x100
 590:	21a01421 	lsrcs	r1, r1, #8
 594:	22822008 	addcs	r2, r2, #8
 598:	e3510010 	cmp	r1, #16
 59c:	21a01221 	lsrcs	r1, r1, #4
 5a0:	22822004 	addcs	r2, r2, #4
 5a4:	e3510004 	cmp	r1, #4
 5a8:	82822003 	addhi	r2, r2, #3
 5ac:	908220a1 	addls	r2, r2, r1, lsr #1
 5b0:	e35c0000 	cmp	ip, #0
 5b4:	e1a00233 	lsr	r0, r3, r2
 5b8:	42600000 	rsbmi	r0, r0, #0
 5bc:	e12fff1e 	bx	lr
 5c0:	e3500000 	cmp	r0, #0
 5c4:	c3e00102 	mvngt	r0, #-2147483648	; 0x80000000
 5c8:	b3a00102 	movlt	r0, #-2147483648	; 0x80000000
 5cc:	ea000007 	b	0x5f0
 5d0:	e3510000 	cmp	r1, #0
 5d4:	0afffff9 	beq	0x5c0
 5d8:	e92d4003 	push	{r0, r1, lr}
 5dc:	ebffffb3 	bl	0x4b0
 5e0:	e8bd4006 	pop	{r1, r2, lr}
 5e4:	e0030092 	mul	r3, r2, r0
 5e8:	e0411003 	sub	r1, r1, r3
 5ec:	e12fff1e 	bx	lr
 5f0:	e12fff1e 	bx	lr
 5f4:	e59f0018 	ldr	r0, [pc, #24]	; 0x614
 5f8:	e59f3018 	ldr	r3, [pc, #24]	; 0x618
 5fc:	e1530000 	cmp	r3, r0
 600:	012fff1e 	bxeq	lr
 604:	e59f3010 	ldr	r3, [pc, #16]	; 0x61c
 608:	e3530000 	cmp	r3, #0
 60c:	012fff1e 	bxeq	lr
 610:	e12fff13 	bx	r3
 614:	03000000 	tsteq	r0, #0
 618:	03000000 	tsteq	r0, #0
 61c:	00000000 	andeq	r0, r0, r0
 620:	e59f0024 	ldr	r0, [pc, #36]	; 0x64c
 624:	e59f1024 	ldr	r1, [pc, #36]	; 0x650
 628:	e0411000 	sub	r1, r1, r0
 62c:	e1a01141 	asr	r1, r1, #2
 630:	e0811fa1 	add	r1, r1, r1, lsr #31
 634:	e1b010c1 	asrs	r1, r1, #1
 638:	012fff1e 	bxeq	lr
 63c:	e59f3010 	ldr	r3, [pc, #16]	; 0x654
 640:	e3530000 	cmp	r3, #0
 644:	012fff1e 	bxeq	lr
 648:	e12fff13 	bx	r3
 64c:	03000000 	tsteq	r0, #0
 650:	03000000 	tsteq	r0, #0
 654:	00000000 	andeq	r0, r0, r0
 658:	e92d4010 	push	{r4, lr}
 65c:	e59f402c 	ldr	r4, [pc, #44]	; 0x690
 660:	e5d43000 	ldrb	r3, [r4]
 664:	e3530000 	cmp	r3, #0
 668:	1a000006 	bne	0x688
 66c:	ebffffe0 	bl	0x5f4
 670:	e59f301c 	ldr	r3, [pc, #28]	; 0x694
 674:	e3530000 	cmp	r3, #0
 678:	159f0018 	ldrne	r0, [pc, #24]	; 0x698
 67c:	11a00000 	movne	r0, r0
 680:	e3a03001 	mov	r3, #1
 684:	e5c43000 	strb	r3, [r4]
 688:	e8bd4010 	pop	{r4, lr}
 68c:	e12fff1e 	bx	lr
 690:	03000000 	tsteq	r0, #0
 694:	00000000 	andeq	r0, r0, r0
 698:	080007a4 	stmdaeq	r0, {r2, r5, r7, r8, r9, sl}
 69c:	e59f3020 	ldr	r3, [pc, #32]	; 0x6c4
 6a0:	e3530000 	cmp	r3, #0
 6a4:	0a000005 	beq	0x6c0
 6a8:	e92d4010 	push	{r4, lr}
 6ac:	e59f1014 	ldr	r1, [pc, #20]	; 0x6c8
 6b0:	e59f0014 	ldr	r0, [pc, #20]	; 0x6cc
 6b4:	e1a00000 	nop			; (mov r0, r0)
 6b8:	e8bd4010 	pop	{r4, lr}
 6bc:	eaffffd7 	b	0x620
 6c0:	eaffffd6 	b	0x620
 6c4:	00000000 	andeq	r0, r0, r0
 6c8:	03000004 	tsteq	r0, #4
 6cc:	080007a4 	stmdaeq	r0, {r2, r5, r7, r8, r9, sl}
 6d0:	e92d4010 	push	{r4, lr}
 6d4:	e3a04004 	mov	r4, #4
 6d8:	e1a00004 	mov	r0, r4
 6dc:	ebffff3f 	bl	0x3e0
 6e0:	e2403001 	sub	r3, r0, #1
 6e4:	e2730000 	rsbs	r0, r3, #0
 6e8:	e0a00003 	adc	r0, r0, r3
 6ec:	e2844002 	add	r4, r4, #2
 6f0:	ebffff19 	bl	0x35c
 6f4:	e3540020 	cmp	r4, #32
 6f8:	1afffff6 	bne	0x6d8
 6fc:	e3a00000 	mov	r0, #0
 700:	ebffff0a 	bl	0x330
 704:	e92d4070 	push	{r4, r5, r6, lr}
 708:	e59f606c 	ldr	r6, [pc, #108]	; 0x77c
 70c:	e59f506c 	ldr	r5, [pc, #108]	; 0x780
 710:	e0466005 	sub	r6, r6, r5
 714:	e1b06146 	asrs	r6, r6, #2
 718:	0a000007 	beq	0x73c
 71c:	e3a04000 	mov	r4, #0
 720:	e2455004 	sub	r5, r5, #4
 724:	e2844001 	add	r4, r4, #1
 728:	e5b53004 	ldr	r3, [r5, #4]!
 72c:	e1a0e00f 	mov	lr, pc
 730:	e12fff13 	bx	r3
 734:	e1560004 	cmp	r6, r4
 738:	1afffff9 	bne	0x724
 73c:	e59f6040 	ldr	r6, [pc, #64]	; 0x784
 740:	e59f5040 	ldr	r5, [pc, #64]	; 0x788
 744:	e0466005 	sub	r6, r6, r5
 748:	ebfffeb0 	bl	0x210
 74c:	e1b06146 	asrs	r6, r6, #2
 750:	0a000007 	beq	0x774
 754:	e3a04000 	mov	r4, #0
 758:	e2455004 	sub	r5, r5, #4
 75c:	e2844001 	add	r4, r4, #1
 760:	e5b53004 	ldr	r3, [r5, #4]!
 764:	e1a0e00f 	mov	lr, pc
 768:	e12fff13 	bx	r3
 76c:	e1560004 	cmp	r6, r4
 770:	1afffff9 	bne	0x75c
 774:	e8bd4070 	pop	{r4, r5, r6, lr}
 778:	e12fff1e 	bx	lr
 77c:	03000020 	tsteq	r0, #32
 780:	03000020 	tsteq	r0, #32
 784:	03000024 	tsteq	r0, #36	; 0x24
 788:	03000020 	tsteq	r0, #32
 78c:	e1a0c00d 	mov	ip, sp
 790:	e92ddff8 	push	{r3, r4, r5, r6, r7, r8, r9, sl, fp, ip, lr, pc}
 794:	e24cb004 	sub	fp, ip, #4
 798:	e24bd028 	sub	sp, fp, #40	; 0x28
 79c:	e89d6ff0 	ldm	sp, {r4, r5, r6, r7, r8, r9, sl, fp, sp, lr}
 7a0:	e12fff1e 	bx	lr
 7a4:	00000000 	andeq	r0, r0, r0
 7a8:	0800069c 	stmdaeq	r0, {r2, r3, r4, r7, r9, sl}
 7ac:	08000658 	stmdaeq	r0, {r3, r4, r6, r9, sl}
 7b0:	52416b64 	subpl	r6, r1, #100, 22	; 0x19000
 7b4:	0000004d 	andeq	r0, r0, sp, asr #32
