
test.gba:     file format binary


Disassembly of section .data:

00000000 <.data>:
       0:	ea00002e 	b	0xc0
	...
      b0:	00963130 	addseq	r3, r6, r0, lsr r1
	...
      bc:	0000f000 	andeq	pc, r0, r0
      c0:	ea000006 	b	0xe0
	...
      e0:	e3a00301 	mov	r0, #67108864	; 0x4000000
      e4:	e5800208 	str	r0, [r0, #520]	; 0x208
      e8:	e3a00012 	mov	r0, #18
      ec:	e129f000 	msr	CPSR_fc, r0
      f0:	e59fd0b8 	ldr	sp, [pc, #184]	; 0x1b0
      f4:	e3a0001f 	mov	r0, #31
      f8:	e129f000 	msr	CPSR_fc, r0
      fc:	e59fd0b0 	ldr	sp, [pc, #176]	; 0x1b4
     100:	e28f0001 	add	r0, pc, #1
     104:	e12fff10 	bx	r0
     108:	0140482b 	cmpeq	r0, fp, lsr #16
     10c:	4678d20b 	ldrbtmi	sp, [r8], -fp, lsl #4
     110:	d30d0140 	tstle	sp, #64, 2
     114:	06122202 	ldreq	r2, [r2], -r2, lsl #4
     118:	1a9b4b28 	bne	0xfe6d2dc0
     11c:	00911c16 	addseq	r1, r1, r6, lsl ip
     120:	f83cf000 			; <UNDEFINED> instruction: 0xf83cf000
     124:	21404730 	cmpcs	r0, r0, lsr r7
     128:	01c80309 	biceq	r0, r8, r9, lsl #6
     12c:	f82bf000 			; <UNDEFINED> instruction: 0xf82bf000
     130:	49244823 	stmdbmi	r4!, {r0, r1, r5, fp, lr}
     134:	f0001a09 			; <UNDEFINED> instruction: 0xf0001a09
     138:	4823f826 	stmdami	r3!, {r1, r2, r5, fp, ip, sp, lr, pc}
     13c:	1a094923 	bne	0x2525d0
     140:	f821f000 			; <UNDEFINED> instruction: 0xf821f000
     144:	4a234922 	bmi	0x8d25d4
     148:	f0004c23 			; <UNDEFINED> instruction: 0xf0004c23
     14c:	4923f826 	stmdbmi	r3!, {r1, r2, r5, fp, ip, sp, lr, pc}
     150:	4c244a23 			; <UNDEFINED> instruction: 0x4c244a23
     154:	f821f000 			; <UNDEFINED> instruction: 0xf821f000
     158:	49244a23 	stmdbmi	r4!, {r0, r1, r5, r9, fp, lr}
     15c:	d0021a53 	andle	r1, r2, r3, asr sl
     160:	f0004a23 			; <UNDEFINED> instruction: 0xf0004a23
     164:	4923f81b 	stmdbmi	r3!, {r0, r1, r3, r4, fp, ip, sp, lr, pc}
     168:	4c244a23 			; <UNDEFINED> instruction: 0x4c244a23
     16c:	f815f000 			; <UNDEFINED> instruction: 0xf815f000
     170:	48244923 	stmdami	r4!, {r0, r1, r5, r8, fp, lr}
     174:	4b246008 	blmi	0x91819c
     178:	f80ef000 			; <UNDEFINED> instruction: 0xf80ef000
     17c:	21002000 	mrscs	r2, (UNDEF: 0)
     180:	f0004b22 			; <UNDEFINED> instruction: 0xf0004b22
     184:	2203f809 	andcs	pc, r3, #589824	; 0x90000
     188:	43911889 	orrsmi	r1, r1, #8978432	; 0x890000
     18c:	2200d003 	andcs	sp, r0, #3
     190:	3904c004 	stmdbcc	r4, {r2, lr, pc}
     194:	4770d1fc 			; <UNDEFINED> instruction: 0x4770d1fc
     198:	1aa34718 	bne	0xfe8d1e00
     19c:	181b2003 	ldmdane	fp, {r0, r1, sp}
     1a0:	d0034383 	andle	r4, r3, r3, lsl #7
     1a4:	c201c901 	andgt	ip, r1, #16384	; 0x4000
     1a8:	d1fb3b04 	mvnsle	r3, r4, lsl #22
     1ac:	46c04770 			; <UNDEFINED> instruction: 0x46c04770
     1b0:	03007fa0 	tsteq	r0, #160, 30	; 0x280
     1b4:	03007f00 	tsteq	r0, #0, 30
     1b8:	08000000 	stmdaeq	r0, {}	; <UNPREDICTABLE>
     1bc:	02000000 	andeq	r0, r0, #0
     1c0:	03000000 	tsteq	r0, #0
     1c4:	030001ec 	tsteq	r0, #236, 2	; 0x3b
     1c8:	02000000 	andeq	r0, r0, #0
     1cc:	02000000 	andeq	r0, r0, #0
     1d0:	0800a4c4 	stmdaeq	r0, {r2, r6, r7, sl, sp, pc}
     1d4:	030001ec 	tsteq	r0, #236, 2	; 0x3b
     1d8:	03000be0 	tsteq	r0, #224, 22	; 0x38000
     1dc:	0800a4c4 	stmdaeq	r0, {r2, r6, r7, sl, sp, pc}
     1e0:	03000000 	tsteq	r0, #0
     1e4:	03000000 	tsteq	r0, #0
     1e8:	0800aeb8 	stmdaeq	r0, {r3, r4, r5, r7, r9, sl, fp, sp, pc}
     1ec:	0800aeb8 	stmdaeq	r0, {r3, r4, r5, r7, r9, sl, fp, sp, pc}
     1f0:	03000be0 	tsteq	r0, #224, 22	; 0x38000
     1f4:	0800aeb8 	stmdaeq	r0, {r3, r4, r5, r7, r9, sl, fp, sp, pc}
     1f8:	02000000 	andeq	r0, r0, #0
     1fc:	02000000 	andeq	r0, r0, #0
     200:	0300011c 	tsteq	r0, #28, 2
     204:	02040000 	andeq	r0, r4, #0
     208:	08001ccc 	stmdaeq	r0, {r2, r3, r6, r7, sl, fp, ip}
     20c:	08001c0c 	stmdaeq	r0, {r2, r3, sl, fp, ip}
     210:	e1a0c00d 	mov	ip, sp
     214:	e92ddff8 	push	{r3, r4, r5, r6, r7, r8, r9, sl, fp, ip, lr, pc}
     218:	e24cb004 	sub	fp, ip, #4
     21c:	e24bd028 	sub	sp, fp, #40	; 0x28
     220:	e89d6ff0 	ldm	sp, {r4, r5, r6, r7, r8, r9, sl, fp, sp, lr}
     224:	e12fff1e 	bx	lr
     228:	e3510000 	cmp	r1, #0
     22c:	e92d40f0 	push	{r4, r5, r6, r7, lr}
     230:	1a000006 	bne	0x250
     234:	e3a03030 	mov	r3, #48	; 0x30
     238:	e3a06001 	mov	r6, #1
     23c:	e5c03000 	strb	r3, [r0]
     240:	e3a03000 	mov	r3, #0
     244:	e7c03006 	strb	r3, [r0, r6]
     248:	e8bd40f0 	pop	{r4, r5, r6, r7, lr}
     24c:	e12fff1e 	bx	lr
     250:	e240c001 	sub	ip, r0, #1
     254:	e1a0400c 	mov	r4, ip
     258:	e3a0e000 	mov	lr, #0
     25c:	e59f508c 	ldr	r5, [pc, #140]	; 0x2f0
     260:	ea000001 	b	0x26c
     264:	e1a0e006 	mov	lr, r6
     268:	e1a01002 	mov	r1, r2
     26c:	e0823195 	umull	r3, r2, r5, r1
     270:	e1a021a2 	lsr	r2, r2, #3
     274:	e0823102 	add	r3, r2, r2, lsl #2
     278:	e0413083 	sub	r3, r1, r3, lsl #1
     27c:	e2833030 	add	r3, r3, #48	; 0x30
     280:	e20330ff 	and	r3, r3, #255	; 0xff
     284:	e3510009 	cmp	r1, #9
     288:	e5e43001 	strb	r3, [r4, #1]!
     28c:	e28e6001 	add	r6, lr, #1
     290:	8afffff3 	bhi	0x264
     294:	e35e0000 	cmp	lr, #0
     298:	0a000012 	beq	0x2e8
     29c:	e080400e 	add	r4, r0, lr
     2a0:	ea000001 	b	0x2ac
     2a4:	e1a0c005 	mov	ip, r5
     2a8:	e5d43000 	ldrb	r3, [r4]
     2ac:	e28c5001 	add	r5, ip, #1
     2b0:	e1e02005 	mvn	r2, r5
     2b4:	e28c1002 	add	r1, ip, #2
     2b8:	e0822000 	add	r2, r2, r0
     2bc:	e5dc7001 	ldrb	r7, [ip, #1]
     2c0:	e082200e 	add	r2, r2, lr
     2c4:	e0411000 	sub	r1, r1, r0
     2c8:	e1510002 	cmp	r1, r2
     2cc:	e5cc3001 	strb	r3, [ip, #1]
     2d0:	e4447001 	strb	r7, [r4], #-1
     2d4:	3afffff2 	bcc	0x2a4
     2d8:	e3a03000 	mov	r3, #0
     2dc:	e7c03006 	strb	r3, [r0, r6]
     2e0:	e8bd40f0 	pop	{r4, r5, r6, r7, lr}
     2e4:	e12fff1e 	bx	lr
     2e8:	e3a06001 	mov	r6, #1
     2ec:	eaffffd3 	b	0x240
     2f0:	cccccccd 	stclgt	12, cr12, [ip], {205}	; 0xcd
     2f4:	e3510000 	cmp	r1, #0
     2f8:	e92d4070 	push	{r4, r5, r6, lr}
     2fc:	ba000007 	blt	0x320
     300:	1a00002f 	bne	0x3c4
     304:	e1a05000 	mov	r5, r0
     308:	e3a03030 	mov	r3, #48	; 0x30
     30c:	e4c53001 	strb	r3, [r5], #1
     310:	e3a03000 	mov	r3, #0
     314:	e5c53000 	strb	r3, [r5]
     318:	e8bd4070 	pop	{r4, r5, r6, lr}
     31c:	e12fff1e 	bx	lr
     320:	e3a0302d 	mov	r3, #45	; 0x2d
     324:	e5c03000 	strb	r3, [r0]
     328:	e3a03001 	mov	r3, #1
     32c:	e2611000 	rsb	r1, r1, #0
     330:	e080c003 	add	ip, r0, r3
     334:	e1a0e003 	mov	lr, r3
     338:	e59f608c 	ldr	r6, [pc, #140]	; 0x3cc
     33c:	ea000000 	b	0x344
     340:	e1a0e002 	mov	lr, r2
     344:	e0824196 	umull	r4, r2, r6, r1
     348:	e1a021a2 	lsr	r2, r2, #3
     34c:	e0824102 	add	r4, r2, r2, lsl #2
     350:	e0411084 	sub	r1, r1, r4, lsl #1
     354:	e2811030 	add	r1, r1, #48	; 0x30
     358:	e20140ff 	and	r4, r1, #255	; 0xff
     35c:	e4cc4001 	strb	r4, [ip], #1
     360:	e2521000 	subs	r1, r2, #0
     364:	e1a0500c 	mov	r5, ip
     368:	e28e2001 	add	r2, lr, #1
     36c:	1afffff3 	bne	0x340
     370:	e153000e 	cmp	r3, lr
     374:	2affffe5 	bcs	0x310
     378:	e2433001 	sub	r3, r3, #1
     37c:	e1e06000 	mvn	r6, r0
     380:	e0803003 	add	r3, r0, r3
     384:	e080c00e 	add	ip, r0, lr
     388:	ea000000 	b	0x390
     38c:	e57c4001 	ldrb	r4, [ip, #-1]!
     390:	e1a0200c 	mov	r2, ip
     394:	e5d3e001 	ldrb	lr, [r3, #1]
     398:	e2831002 	add	r1, r3, #2
     39c:	e5c34001 	strb	r4, [r3, #1]
     3a0:	e6c2e006 	strb	lr, [r2], r6
     3a4:	e0411000 	sub	r1, r1, r0
     3a8:	e1510002 	cmp	r1, r2
     3ac:	e2833001 	add	r3, r3, #1
     3b0:	3afffff5 	bcc	0x38c
     3b4:	e3a03000 	mov	r3, #0
     3b8:	e5c53000 	strb	r3, [r5]
     3bc:	e8bd4070 	pop	{r4, r5, r6, lr}
     3c0:	e12fff1e 	bx	lr
     3c4:	e3a03000 	mov	r3, #0
     3c8:	eaffffd8 	b	0x330
     3cc:	cccccccd 	stclgt	12, cr12, [ip], {205}	; 0xcd
     3d0:	e59f1020 	ldr	r1, [pc, #32]	; 0x3f8
     3d4:	e5d13001 	ldrb	r3, [r1, #1]
     3d8:	e2032001 	and	r2, r3, #1
     3dc:	e15200a3 	cmp	r2, r3, lsr #1
     3e0:	1afffffb 	bne	0x3d4
     3e4:	e5c10000 	strb	r0, [r1]
     3e8:	e5d13001 	ldrb	r3, [r1, #1]
     3ec:	e2233001 	eor	r3, r3, #1
     3f0:	e5c13001 	strb	r3, [r1, #1]
     3f4:	e12fff1e 	bx	lr
     3f8:	04000400 	streq	r0, [r0], #-1024	; 0xfffffc00
     3fc:	e3500009 	cmp	r0, #9
     400:	e20000ff 	and	r0, r0, #255	; 0xff
     404:	ca00000b 	bgt	0x438
     408:	e2800030 	add	r0, r0, #48	; 0x30
     40c:	e59f1044 	ldr	r1, [pc, #68]	; 0x458
     410:	e20000ff 	and	r0, r0, #255	; 0xff
     414:	e5d13001 	ldrb	r3, [r1, #1]
     418:	e2032001 	and	r2, r3, #1
     41c:	e15200a3 	cmp	r2, r3, lsr #1
     420:	1afffffb 	bne	0x414
     424:	e5c10000 	strb	r0, [r1]
     428:	e5d13001 	ldrb	r3, [r1, #1]
     42c:	e2233001 	eor	r3, r3, #1
     430:	e5c13001 	strb	r3, [r1, #1]
     434:	e12fff1e 	bx	lr
     438:	e2800057 	add	r0, r0, #87	; 0x57
     43c:	e59f1014 	ldr	r1, [pc, #20]	; 0x458
     440:	e20000ff 	and	r0, r0, #255	; 0xff
     444:	e5d13001 	ldrb	r3, [r1, #1]
     448:	e2032001 	and	r2, r3, #1
     44c:	e15200a3 	cmp	r2, r3, lsr #1
     450:	1afffffb 	bne	0x444
     454:	eafffff2 	b	0x424
     458:	04000400 	streq	r0, [r0], #-1024	; 0xfffffc00
     45c:	e5d0c000 	ldrb	ip, [r0]
     460:	e35c0000 	cmp	ip, #0
     464:	012fff1e 	bxeq	lr
     468:	e59f102c 	ldr	r1, [pc, #44]	; 0x49c
     46c:	e5d13001 	ldrb	r3, [r1, #1]
     470:	e2032001 	and	r2, r3, #1
     474:	e15200a3 	cmp	r2, r3, lsr #1
     478:	1afffffb 	bne	0x46c
     47c:	e5c1c000 	strb	ip, [r1]
     480:	e5d13001 	ldrb	r3, [r1, #1]
     484:	e2233001 	eor	r3, r3, #1
     488:	e5c13001 	strb	r3, [r1, #1]
     48c:	e5f0c001 	ldrb	ip, [r0, #1]!
     490:	e35c0000 	cmp	ip, #0
     494:	1afffff4 	bne	0x46c
     498:	e12fff1e 	bx	lr
     49c:	04000400 	streq	r0, [r0], #-1024	; 0xfffffc00
     4a0:	e52de004 	push	{lr}		; (str lr, [sp, #-4]!)
     4a4:	e59de004 	ldr	lr, [sp, #4]
     4a8:	e1a0c201 	lsl	ip, r1, #4
     4ac:	e082250e 	add	r2, r2, lr, lsl #10
     4b0:	e06c1401 	rsb	r1, ip, r1, lsl #8
     4b4:	e0823283 	add	r3, r2, r3, lsl #5
     4b8:	e0811000 	add	r1, r1, r0
     4bc:	e1a03803 	lsl	r3, r3, #16
     4c0:	e1a01081 	lsl	r1, r1, #1
     4c4:	e1a03823 	lsr	r3, r3, #16
     4c8:	e2811406 	add	r1, r1, #100663296	; 0x6000000
     4cc:	e1c130b0 	strh	r3, [r1]
     4d0:	e49de004 	pop	{lr}		; (ldr lr, [sp], #4)
     4d4:	e12fff1e 	bx	lr
     4d8:	e3a02004 	mov	r2, #4
     4dc:	e3a03301 	mov	r3, #67108864	; 0x4000000
     4e0:	e3a01003 	mov	r1, #3
     4e4:	e3500000 	cmp	r0, #0
     4e8:	e5c31000 	strb	r1, [r3]
     4ec:	e5c32001 	strb	r2, [r3, #1]
     4f0:	e3a03406 	mov	r3, #100663296	; 0x6000000
     4f4:	13a0201f 	movne	r2, #31
     4f8:	03a02e3e 	moveq	r2, #992	; 0x3e0
     4fc:	e1c320b0 	strh	r2, [r3]
     500:	eafffffe 	b	0x500
     504:	e92d000f 	push	{r0, r1, r2, r3}
     508:	e92d40f0 	push	{r4, r5, r6, r7, lr}
     50c:	e24dd00c 	sub	sp, sp, #12
     510:	e59d1020 	ldr	r1, [sp, #32]
     514:	e5d10000 	ldrb	r0, [r1]
     518:	e28d3024 	add	r3, sp, #36	; 0x24
     51c:	e3500000 	cmp	r0, #0
     520:	e58d3004 	str	r3, [sp, #4]
     524:	e59f41a0 	ldr	r4, [pc, #416]	; 0x6cc
     528:	e59f51a0 	ldr	r5, [pc, #416]	; 0x6d0
     52c:	e3a06025 	mov	r6, #37	; 0x25
     530:	0a00002d 	beq	0x5ec
     534:	e3500025 	cmp	r0, #37	; 0x25
     538:	1a00001e 	bne	0x5b8
     53c:	e5d13001 	ldrb	r3, [r1, #1]
     540:	e3530064 	cmp	r3, #100	; 0x64
     544:	e2817002 	add	r7, r1, #2
     548:	0a000036 	beq	0x628
     54c:	9a00002a 	bls	0x5fc
     550:	e3530073 	cmp	r3, #115	; 0x73
     554:	0a000049 	beq	0x680
     558:	e3530075 	cmp	r3, #117	; 0x75
     55c:	1a00001e 	bne	0x5dc
     560:	e59d3004 	ldr	r3, [sp, #4]
     564:	e59f0164 	ldr	r0, [pc, #356]	; 0x6d0
     568:	e2832004 	add	r2, r3, #4
     56c:	e5931000 	ldr	r1, [r3]
     570:	e58d2004 	str	r2, [sp, #4]
     574:	ebffff2b 	bl	0x228
     578:	e5d51000 	ldrb	r1, [r5]
     57c:	e3510000 	cmp	r1, #0
     580:	0a000015 	beq	0x5dc
     584:	e59f0148 	ldr	r0, [pc, #328]	; 0x6d4
     588:	e5d43001 	ldrb	r3, [r4, #1]
     58c:	e2032001 	and	r2, r3, #1
     590:	e15200a3 	cmp	r2, r3, lsr #1
     594:	1afffffb 	bne	0x588
     598:	e5c41000 	strb	r1, [r4]
     59c:	e5d43001 	ldrb	r3, [r4, #1]
     5a0:	e2233001 	eor	r3, r3, #1
     5a4:	e5c43001 	strb	r3, [r4, #1]
     5a8:	e4d01001 	ldrb	r1, [r0], #1
     5ac:	e3510000 	cmp	r1, #0
     5b0:	1afffff4 	bne	0x588
     5b4:	ea000008 	b	0x5dc
     5b8:	e5d43001 	ldrb	r3, [r4, #1]
     5bc:	e2032001 	and	r2, r3, #1
     5c0:	e15200a3 	cmp	r2, r3, lsr #1
     5c4:	1afffffb 	bne	0x5b8
     5c8:	e5c40000 	strb	r0, [r4]
     5cc:	e5d43001 	ldrb	r3, [r4, #1]
     5d0:	e2233001 	eor	r3, r3, #1
     5d4:	e5c43001 	strb	r3, [r4, #1]
     5d8:	e2817001 	add	r7, r1, #1
     5dc:	e1a01007 	mov	r1, r7
     5e0:	e5d10000 	ldrb	r0, [r1]
     5e4:	e3500000 	cmp	r0, #0
     5e8:	1affffd1 	bne	0x534
     5ec:	e28dd00c 	add	sp, sp, #12
     5f0:	e8bd40f0 	pop	{r4, r5, r6, r7, lr}
     5f4:	e28dd010 	add	sp, sp, #16
     5f8:	e12fff1e 	bx	lr
     5fc:	e3530025 	cmp	r3, #37	; 0x25
     600:	1afffff5 	bne	0x5dc
     604:	e5d43001 	ldrb	r3, [r4, #1]
     608:	e2032001 	and	r2, r3, #1
     60c:	e15200a3 	cmp	r2, r3, lsr #1
     610:	1afffffb 	bne	0x604
     614:	e5c46000 	strb	r6, [r4]
     618:	e5d43001 	ldrb	r3, [r4, #1]
     61c:	e2233001 	eor	r3, r3, #1
     620:	e5c43001 	strb	r3, [r4, #1]
     624:	eaffffec 	b	0x5dc
     628:	e59d3004 	ldr	r3, [sp, #4]
     62c:	e59f009c 	ldr	r0, [pc, #156]	; 0x6d0
     630:	e2832004 	add	r2, r3, #4
     634:	e5931000 	ldr	r1, [r3]
     638:	e58d2004 	str	r2, [sp, #4]
     63c:	ebffff2c 	bl	0x2f4
     640:	e5d51000 	ldrb	r1, [r5]
     644:	e3510000 	cmp	r1, #0
     648:	0affffe3 	beq	0x5dc
     64c:	e59f0080 	ldr	r0, [pc, #128]	; 0x6d4
     650:	e5d43001 	ldrb	r3, [r4, #1]
     654:	e2032001 	and	r2, r3, #1
     658:	e15200a3 	cmp	r2, r3, lsr #1
     65c:	1afffffb 	bne	0x650
     660:	e5c41000 	strb	r1, [r4]
     664:	e5d43001 	ldrb	r3, [r4, #1]
     668:	e2233001 	eor	r3, r3, #1
     66c:	e5c43001 	strb	r3, [r4, #1]
     670:	e4d01001 	ldrb	r1, [r0], #1
     674:	e3510000 	cmp	r1, #0
     678:	1afffff4 	bne	0x650
     67c:	eaffffd6 	b	0x5dc
     680:	e59d3004 	ldr	r3, [sp, #4]
     684:	e5930000 	ldr	r0, [r3]
     688:	e5d01000 	ldrb	r1, [r0]
     68c:	e2833004 	add	r3, r3, #4
     690:	e3510000 	cmp	r1, #0
     694:	e58d3004 	str	r3, [sp, #4]
     698:	0affffcf 	beq	0x5dc
     69c:	e5d43001 	ldrb	r3, [r4, #1]
     6a0:	e2032001 	and	r2, r3, #1
     6a4:	e15200a3 	cmp	r2, r3, lsr #1
     6a8:	1afffffb 	bne	0x69c
     6ac:	e5c41000 	strb	r1, [r4]
     6b0:	e5d43001 	ldrb	r3, [r4, #1]
     6b4:	e2233001 	eor	r3, r3, #1
     6b8:	e5c43001 	strb	r3, [r4, #1]
     6bc:	e5f01001 	ldrb	r1, [r0, #1]!
     6c0:	e3510000 	cmp	r1, #0
     6c4:	1afffff4 	bne	0x69c
     6c8:	eaffffc3 	b	0x5dc
     6cc:	04000400 	streq	r0, [r0], #-1024	; 0xfffffc00
     6d0:	0300001c 	tsteq	r0, #28
     6d4:	0300001d 	tsteq	r0, #29
     6d8:	e3a00000 	mov	r0, #0
     6dc:	e12fff1e 	bx	lr
     6e0:	e92d000e 	push	{r1, r2, r3}
     6e4:	e92d47f0 	push	{r4, r5, r6, r7, r8, r9, sl, lr}
     6e8:	e1a09000 	mov	r9, r0
     6ec:	e1a06000 	mov	r6, r0
     6f0:	e3a05000 	mov	r5, #0
     6f4:	e24dd00c 	sub	sp, sp, #12
     6f8:	e28d3030 	add	r3, sp, #48	; 0x30
     6fc:	e59fa168 	ldr	sl, [pc, #360]	; 0x86c
     700:	e58d3004 	str	r3, [sp, #4]
     704:	e59d302c 	ldr	r3, [sp, #44]	; 0x2c
     708:	e2607002 	rsb	r7, r0, #2
     70c:	e28a8064 	add	r8, sl, #100	; 0x64
     710:	e5d32000 	ldrb	r2, [r3]
     714:	e3520000 	cmp	r2, #0
     718:	0a000008 	beq	0x740
     71c:	e3520025 	cmp	r2, #37	; 0x25
     720:	0a00000c 	beq	0x758
     724:	e5c62000 	strb	r2, [r6]
     728:	e2833001 	add	r3, r3, #1
     72c:	e5d32000 	ldrb	r2, [r3]
     730:	e2855001 	add	r5, r5, #1
     734:	e3520000 	cmp	r2, #0
     738:	e0896005 	add	r6, r9, r5
     73c:	1afffff6 	bne	0x71c
     740:	e1a00005 	mov	r0, r5
     744:	e5c62000 	strb	r2, [r6]
     748:	e28dd00c 	add	sp, sp, #12
     74c:	e8bd47f0 	pop	{r4, r5, r6, r7, r8, r9, sl, lr}
     750:	e28dd00c 	add	sp, sp, #12
     754:	e12fff1e 	bx	lr
     758:	e5d32001 	ldrb	r2, [r3, #1]
     75c:	e3520064 	cmp	r2, #100	; 0x64
     760:	e2834002 	add	r4, r3, #2
     764:	0a000016 	beq	0x7c4
     768:	9a000020 	bls	0x7f0
     76c:	e3520073 	cmp	r2, #115	; 0x73
     770:	0a000025 	beq	0x80c
     774:	e3520075 	cmp	r2, #117	; 0x75
     778:	1a00001a 	bne	0x7e8
     77c:	e59d3004 	ldr	r3, [sp, #4]
     780:	e1a00008 	mov	r0, r8
     784:	e2832004 	add	r2, r3, #4
     788:	e5931000 	ldr	r1, [r3]
     78c:	e58d2004 	str	r2, [sp, #4]
     790:	ebfffea4 	bl	0x228
     794:	e5da2064 	ldrb	r2, [sl, #100]	; 0x64
     798:	e3520000 	cmp	r2, #0
     79c:	0a000011 	beq	0x7e8
     7a0:	e2455001 	sub	r5, r5, #1
     7a4:	e59f10c4 	ldr	r1, [pc, #196]	; 0x870
     7a8:	e0893005 	add	r3, r9, r5
     7ac:	e0875003 	add	r5, r7, r3
     7b0:	e5e32001 	strb	r2, [r3, #1]!
     7b4:	e4d12001 	ldrb	r2, [r1], #1
     7b8:	e3520000 	cmp	r2, #0
     7bc:	1afffffa 	bne	0x7ac
     7c0:	ea00000e 	b	0x800
     7c4:	e59d3004 	ldr	r3, [sp, #4]
     7c8:	e1a00008 	mov	r0, r8
     7cc:	e2832004 	add	r2, r3, #4
     7d0:	e5931000 	ldr	r1, [r3]
     7d4:	e58d2004 	str	r2, [sp, #4]
     7d8:	ebfffec5 	bl	0x2f4
     7dc:	e5da2064 	ldrb	r2, [sl, #100]	; 0x64
     7e0:	e3520000 	cmp	r2, #0
     7e4:	1a000017 	bne	0x848
     7e8:	e1a03004 	mov	r3, r4
     7ec:	eaffffc7 	b	0x710
     7f0:	e3520025 	cmp	r2, #37	; 0x25
     7f4:	02855001 	addeq	r5, r5, #1
     7f8:	05c62000 	strbeq	r2, [r6]
     7fc:	1afffff9 	bne	0x7e8
     800:	e1a03004 	mov	r3, r4
     804:	e0896005 	add	r6, r9, r5
     808:	eaffffc0 	b	0x710
     80c:	e59d3004 	ldr	r3, [sp, #4]
     810:	e5931000 	ldr	r1, [r3]
     814:	e5d12000 	ldrb	r2, [r1]
     818:	e2833004 	add	r3, r3, #4
     81c:	e3520000 	cmp	r2, #0
     820:	e58d3004 	str	r3, [sp, #4]
     824:	0affffef 	beq	0x7e8
     828:	e2455001 	sub	r5, r5, #1
     82c:	e0893005 	add	r3, r9, r5
     830:	e0875003 	add	r5, r7, r3
     834:	e5e32001 	strb	r2, [r3, #1]!
     838:	e5f12001 	ldrb	r2, [r1, #1]!
     83c:	e3520000 	cmp	r2, #0
     840:	1afffffa 	bne	0x830
     844:	eaffffed 	b	0x800
     848:	e2455001 	sub	r5, r5, #1
     84c:	e59f101c 	ldr	r1, [pc, #28]	; 0x870
     850:	e0893005 	add	r3, r9, r5
     854:	e0875003 	add	r5, r7, r3
     858:	e5e32001 	strb	r2, [r3, #1]!
     85c:	e4d12001 	ldrb	r2, [r1], #1
     860:	e3520000 	cmp	r2, #0
     864:	1afffffa 	bne	0x854
     868:	eaffffe4 	b	0x800
     86c:	0300001c 	tsteq	r0, #28
     870:	03000081 	tsteq	r0, #129	; 0x81
     874:	e92d000c 	push	{r2, r3}
     878:	e3a00000 	mov	r0, #0
     87c:	e28dd008 	add	sp, sp, #8
     880:	e12fff1e 	bx	lr
     884:	e5d03000 	ldrb	r3, [r0]
     888:	e3530000 	cmp	r3, #0
     88c:	0a000006 	beq	0x8ac
     890:	e1a03000 	mov	r3, r0
     894:	e2601001 	rsb	r1, r0, #1
     898:	e0810003 	add	r0, r1, r3
     89c:	e5f32001 	ldrb	r2, [r3, #1]!
     8a0:	e3520000 	cmp	r2, #0
     8a4:	1afffffb 	bne	0x898
     8a8:	e12fff1e 	bx	lr
     8ac:	e1a00003 	mov	r0, r3
     8b0:	e12fff1e 	bx	lr
     8b4:	e5d1c000 	ldrb	ip, [r1]
     8b8:	e35c0000 	cmp	ip, #0
     8bc:	0a00000b 	beq	0x8f0
     8c0:	e2403001 	sub	r3, r0, #1
     8c4:	e5c3c001 	strb	ip, [r3, #1]
     8c8:	e5f1c001 	ldrb	ip, [r1, #1]!
     8cc:	e2832002 	add	r2, r3, #2
     8d0:	e35c0000 	cmp	ip, #0
     8d4:	e0422000 	sub	r2, r2, r0
     8d8:	e2833001 	add	r3, r3, #1
     8dc:	1afffff8 	bne	0x8c4
     8e0:	e0802002 	add	r2, r0, r2
     8e4:	e3a03000 	mov	r3, #0
     8e8:	e5c23000 	strb	r3, [r2]
     8ec:	e12fff1e 	bx	lr
     8f0:	e1a02000 	mov	r2, r0
     8f4:	eafffffa 	b	0x8e4
     8f8:	e3520000 	cmp	r2, #0
     8fc:	012fff1e 	bxeq	lr
     900:	e92d4010 	push	{r4, lr}
     904:	e5d1e000 	ldrb	lr, [r1]
     908:	e35e0000 	cmp	lr, #0
     90c:	0a000013 	beq	0x960
     910:	e2403001 	sub	r3, r0, #1
     914:	e0832002 	add	r2, r3, r2
     918:	ea000003 	b	0x92c
     91c:	e5f1e001 	ldrb	lr, [r1, #1]!
     920:	e35e0000 	cmp	lr, #0
     924:	e1a03004 	mov	r3, r4
     928:	0a000007 	beq	0x94c
     92c:	e2834001 	add	r4, r3, #1
     930:	e283c002 	add	ip, r3, #2
     934:	e1540002 	cmp	r4, r2
     938:	e5c3e001 	strb	lr, [r3, #1]
     93c:	e04cc000 	sub	ip, ip, r0
     940:	1afffff5 	bne	0x91c
     944:	e8bd4010 	pop	{r4, lr}
     948:	e12fff1e 	bx	lr
     94c:	e080c00c 	add	ip, r0, ip
     950:	e3a03000 	mov	r3, #0
     954:	e5cc3000 	strb	r3, [ip]
     958:	e8bd4010 	pop	{r4, lr}
     95c:	e12fff1e 	bx	lr
     960:	e1a0c000 	mov	ip, r0
     964:	eafffff9 	b	0x950
     968:	e5d02000 	ldrb	r2, [r0]
     96c:	e3520000 	cmp	r2, #0
     970:	e92d4010 	push	{r4, lr}
     974:	0a000018 	beq	0x9dc
     978:	e3a02000 	mov	r2, #0
     97c:	e2803001 	add	r3, r0, #1
     980:	e5d3e000 	ldrb	lr, [r3]
     984:	e35e0000 	cmp	lr, #0
     988:	e1a0c003 	mov	ip, r3
     98c:	e2822001 	add	r2, r2, #1
     990:	e2833001 	add	r3, r3, #1
     994:	1afffff9 	bne	0x980
     998:	e5d13000 	ldrb	r3, [r1]
     99c:	e3530000 	cmp	r3, #0
     9a0:	0a000009 	beq	0x9cc
     9a4:	e242c001 	sub	ip, r2, #1
     9a8:	e2614001 	rsb	r4, r1, #1
     9ac:	e080c00c 	add	ip, r0, ip
     9b0:	e5ec3001 	strb	r3, [ip, #1]!
     9b4:	e084e001 	add	lr, r4, r1
     9b8:	e5f13001 	ldrb	r3, [r1, #1]!
     9bc:	e3530000 	cmp	r3, #0
     9c0:	1afffffa 	bne	0x9b0
     9c4:	e082200e 	add	r2, r2, lr
     9c8:	e080c002 	add	ip, r0, r2
     9cc:	e3a03000 	mov	r3, #0
     9d0:	e5cc3000 	strb	r3, [ip]
     9d4:	e8bd4010 	pop	{r4, lr}
     9d8:	e12fff1e 	bx	lr
     9dc:	e1a0c000 	mov	ip, r0
     9e0:	eaffffec 	b	0x998
     9e4:	e5d03000 	ldrb	r3, [r0]
     9e8:	e5d12000 	ldrb	r2, [r1]
     9ec:	e1520003 	cmp	r2, r3
     9f0:	1a000008 	bne	0xa18
     9f4:	e3520000 	cmp	r2, #0
     9f8:	1a000002 	bne	0xa08
     9fc:	ea00000b 	b	0xa30
     a00:	e3530000 	cmp	r3, #0
     a04:	0a000007 	beq	0xa28
     a08:	e5f03001 	ldrb	r3, [r0, #1]!
     a0c:	e5f12001 	ldrb	r2, [r1, #1]!
     a10:	e1530002 	cmp	r3, r2
     a14:	0afffff9 	beq	0xa00
     a18:	e1530002 	cmp	r3, r2
     a1c:	33e00000 	mvncc	r0, #0
     a20:	23a00001 	movcs	r0, #1
     a24:	e12fff1e 	bx	lr
     a28:	e1a00003 	mov	r0, r3
     a2c:	e12fff1e 	bx	lr
     a30:	e1a00002 	mov	r0, r2
     a34:	e12fff1e 	bx	lr
     a38:	e3520000 	cmp	r2, #0
     a3c:	0a000010 	beq	0xa84
     a40:	e5d03000 	ldrb	r3, [r0]
     a44:	e5d1c000 	ldrb	ip, [r1]
     a48:	e15c0003 	cmp	ip, r3
     a4c:	1a00000e 	bne	0xa8c
     a50:	e35c0000 	cmp	ip, #0
     a54:	0a00000a 	beq	0xa84
     a58:	e0802002 	add	r2, r0, r2
     a5c:	e2422001 	sub	r2, r2, #1
     a60:	ea000005 	b	0xa7c
     a64:	e5f03001 	ldrb	r3, [r0, #1]!
     a68:	e5f1c001 	ldrb	ip, [r1, #1]!
     a6c:	e153000c 	cmp	r3, ip
     a70:	1a000005 	bne	0xa8c
     a74:	e3530000 	cmp	r3, #0
     a78:	0a000001 	beq	0xa84
     a7c:	e1500002 	cmp	r0, r2
     a80:	1afffff7 	bne	0xa64
     a84:	e3a00000 	mov	r0, #0
     a88:	e12fff1e 	bx	lr
     a8c:	e153000c 	cmp	r3, ip
     a90:	33e00000 	mvncc	r0, #0
     a94:	23a00001 	movcs	r0, #1
     a98:	e12fff1e 	bx	lr
     a9c:	e3520000 	cmp	r2, #0
     aa0:	012fff1e 	bxeq	lr
     aa4:	e0802002 	add	r2, r0, r2
     aa8:	e2422001 	sub	r2, r2, #1
     aac:	e20110ff 	and	r1, r1, #255	; 0xff
     ab0:	e2403001 	sub	r3, r0, #1
     ab4:	e5e31001 	strb	r1, [r3, #1]!
     ab8:	e1530002 	cmp	r3, r2
     abc:	1afffffc 	bne	0xab4
     ac0:	e12fff1e 	bx	lr
     ac4:	e3520000 	cmp	r2, #0
     ac8:	012fff1e 	bxeq	lr
     acc:	e0812002 	add	r2, r1, r2
     ad0:	e242c001 	sub	ip, r2, #1
     ad4:	e2411001 	sub	r1, r1, #1
     ad8:	e2403001 	sub	r3, r0, #1
     adc:	e5f12001 	ldrb	r2, [r1, #1]!
     ae0:	e151000c 	cmp	r1, ip
     ae4:	e5e32001 	strb	r2, [r3, #1]!
     ae8:	1afffffb 	bne	0xadc
     aec:	e12fff1e 	bx	lr
     af0:	e3520000 	cmp	r2, #0
     af4:	0a000010 	beq	0xb3c
     af8:	e5d03000 	ldrb	r3, [r0]
     afc:	e5d1c000 	ldrb	ip, [r1]
     b00:	e15c0003 	cmp	ip, r3
     b04:	1a00000e 	bne	0xb44
     b08:	e35c0000 	cmp	ip, #0
     b0c:	0a00000a 	beq	0xb3c
     b10:	e0802002 	add	r2, r0, r2
     b14:	e2422001 	sub	r2, r2, #1
     b18:	ea000005 	b	0xb34
     b1c:	e5f03001 	ldrb	r3, [r0, #1]!
     b20:	e5f1c001 	ldrb	ip, [r1, #1]!
     b24:	e153000c 	cmp	r3, ip
     b28:	1a000005 	bne	0xb44
     b2c:	e3530000 	cmp	r3, #0
     b30:	0a000001 	beq	0xb3c
     b34:	e1500002 	cmp	r0, r2
     b38:	1afffff7 	bne	0xb1c
     b3c:	e3a00000 	mov	r0, #0
     b40:	e12fff1e 	bx	lr
     b44:	e153000c 	cmp	r3, ip
     b48:	33e00000 	mvncc	r0, #0
     b4c:	23a00001 	movcs	r0, #1
     b50:	e12fff1e 	bx	lr
     b54:	e3500000 	cmp	r0, #0
     b58:	112fff1e 	bxne	lr
     b5c:	e92d4010 	push	{r4, lr}
     b60:	e3a00001 	mov	r0, #1
     b64:	ebfffe5b 	bl	0x4d8
     b68:	e020c001 	eor	ip, r0, r1
     b6c:	e31c0003 	tst	ip, #3
     b70:	1a000021 	bne	0xbfc
     b74:	e210c003 	ands	ip, r0, #3
     b78:	e3c00003 	bic	r0, r0, #3
     b7c:	e3c11003 	bic	r1, r1, #3
     b80:	e4902004 	ldr	r2, [r0], #4
     b84:	04913004 	ldreq	r3, [r1], #4
     b88:	0a000006 	beq	0xba8
     b8c:	e22cc003 	eor	ip, ip, #3
     b90:	e3e034ff 	mvn	r3, #-16777216	; 0xff000000
     b94:	e1a0c18c 	lsl	ip, ip, #3
     b98:	e1a0cc33 	lsr	ip, r3, ip
     b9c:	e4913004 	ldr	r3, [r1], #4
     ba0:	e182200c 	orr	r2, r2, ip
     ba4:	e183300c 	orr	r3, r3, ip
     ba8:	e52d4004 	push	{r4}		; (str r4, [sp, #-4]!)
     bac:	e3a04001 	mov	r4, #1
     bb0:	e1844404 	orr	r4, r4, r4, lsl #8
     bb4:	e1844804 	orr	r4, r4, r4, lsl #16
     bb8:	e042c004 	sub	ip, r2, r4
     bbc:	e1520003 	cmp	r2, r3
     bc0:	01ccc002 	biceq	ip, ip, r2
     bc4:	011c0384 	tsteq	ip, r4, lsl #7
     bc8:	04902004 	ldreq	r2, [r0], #4
     bcc:	04913004 	ldreq	r3, [r1], #4
     bd0:	0afffff8 	beq	0xbb8
     bd4:	e1a00c02 	lsl	r0, r2, #24
     bd8:	e1a02422 	lsr	r2, r2, #8
     bdc:	e3500001 	cmp	r0, #1
     be0:	21500c03 	cmpcs	r0, r3, lsl #24
     be4:	01a03423 	lsreq	r3, r3, #8
     be8:	0afffff9 	beq	0xbd4
     bec:	e20330ff 	and	r3, r3, #255	; 0xff
     bf0:	e0630c20 	rsb	r0, r3, r0, lsr #24
     bf4:	e49d4004 	pop	{r4}		; (ldr r4, [sp], #4)
     bf8:	e12fff1e 	bx	lr
     bfc:	e3100003 	tst	r0, #3
     c00:	0a000006 	beq	0xc20
     c04:	e4d02001 	ldrb	r2, [r0], #1
     c08:	e4d13001 	ldrb	r3, [r1], #1
     c0c:	e3520001 	cmp	r2, #1
     c10:	21520003 	cmpcs	r2, r3
     c14:	0afffff8 	beq	0xbfc
     c18:	e0420003 	sub	r0, r2, r3
     c1c:	e12fff1e 	bx	lr
     c20:	e92d0030 	push	{r4, r5}
     c24:	e3a04001 	mov	r4, #1
     c28:	e1844404 	orr	r4, r4, r4, lsl #8
     c2c:	e1844804 	orr	r4, r4, r4, lsl #16
     c30:	e4902004 	ldr	r2, [r0], #4
     c34:	e2015003 	and	r5, r1, #3
     c38:	e3c11003 	bic	r1, r1, #3
     c3c:	e4913004 	ldr	r3, [r1], #4
     c40:	e3550002 	cmp	r5, #2
     c44:	0a000017 	beq	0xca8
     c48:	8a00002d 	bhi	0xd04
     c4c:	e3c254ff 	bic	r5, r2, #-16777216	; 0xff000000
     c50:	e1550423 	cmp	r5, r3, lsr #8
     c54:	e042c004 	sub	ip, r2, r4
     c58:	e1ccc002 	bic	ip, ip, r2
     c5c:	1a000007 	bne	0xc80
     c60:	e01cc384 	ands	ip, ip, r4, lsl #7
     c64:	04913004 	ldreq	r3, [r1], #4
     c68:	1a000006 	bne	0xc88
     c6c:	e0255002 	eor	r5, r5, r2
     c70:	e1550c03 	cmp	r5, r3, lsl #24
     c74:	1a000008 	bne	0xc9c
     c78:	e4902004 	ldr	r2, [r0], #4
     c7c:	eafffff2 	b	0xc4c
     c80:	e1a03423 	lsr	r3, r3, #8
     c84:	ea000036 	b	0xd64
     c88:	e3dcc4ff 	bics	ip, ip, #-16777216	; 0xff000000
     c8c:	1a000031 	bne	0xd58
     c90:	e5d13000 	ldrb	r3, [r1]
     c94:	e1a05c22 	lsr	r5, r2, #24
     c98:	ea000031 	b	0xd64
     c9c:	e1a05c22 	lsr	r5, r2, #24
     ca0:	e20330ff 	and	r3, r3, #255	; 0xff
     ca4:	ea00002e 	b	0xd64
     ca8:	e1a05802 	lsl	r5, r2, #16
     cac:	e042c004 	sub	ip, r2, r4
     cb0:	e1a05825 	lsr	r5, r5, #16
     cb4:	e1ccc002 	bic	ip, ip, r2
     cb8:	e1550823 	cmp	r5, r3, lsr #16
     cbc:	1a00000e 	bne	0xcfc
     cc0:	e01cc384 	ands	ip, ip, r4, lsl #7
     cc4:	04913004 	ldreq	r3, [r1], #4
     cc8:	1a000004 	bne	0xce0
     ccc:	e0255002 	eor	r5, r5, r2
     cd0:	e1550803 	cmp	r5, r3, lsl #16
     cd4:	1a000006 	bne	0xcf4
     cd8:	e4902004 	ldr	r2, [r0], #4
     cdc:	eafffff1 	b	0xca8
     ce0:	e1b0c80c 	lsls	ip, ip, #16
     ce4:	1a00001b 	bne	0xd58
     ce8:	e1d130b0 	ldrh	r3, [r1]
     cec:	e1a05822 	lsr	r5, r2, #16
     cf0:	ea00001b 	b	0xd64
     cf4:	e1a03803 	lsl	r3, r3, #16
     cf8:	e1a05822 	lsr	r5, r2, #16
     cfc:	e1a03823 	lsr	r3, r3, #16
     d00:	ea000017 	b	0xd64
     d04:	e20250ff 	and	r5, r2, #255	; 0xff
     d08:	e1550c23 	cmp	r5, r3, lsr #24
     d0c:	e042c004 	sub	ip, r2, r4
     d10:	e1ccc002 	bic	ip, ip, r2
     d14:	1a000007 	bne	0xd38
     d18:	e01cc384 	ands	ip, ip, r4, lsl #7
     d1c:	04913004 	ldreq	r3, [r1], #4
     d20:	1a000006 	bne	0xd40
     d24:	e0255002 	eor	r5, r5, r2
     d28:	e1550403 	cmp	r5, r3, lsl #8
     d2c:	1a000006 	bne	0xd4c
     d30:	e4902004 	ldr	r2, [r0], #4
     d34:	eafffff2 	b	0xd04
     d38:	e1a03c23 	lsr	r3, r3, #24
     d3c:	ea000008 	b	0xd64
     d40:	e31200ff 	tst	r2, #255	; 0xff
     d44:	0a000003 	beq	0xd58
     d48:	e4913004 	ldr	r3, [r1], #4
     d4c:	e1a05422 	lsr	r5, r2, #8
     d50:	e3c334ff 	bic	r3, r3, #-16777216	; 0xff000000
     d54:	ea000002 	b	0xd64
     d58:	e3a00000 	mov	r0, #0
     d5c:	e8bd0030 	pop	{r4, r5}
     d60:	e12fff1e 	bx	lr
     d64:	e20520ff 	and	r2, r5, #255	; 0xff
     d68:	e20300ff 	and	r0, r3, #255	; 0xff
     d6c:	e3500001 	cmp	r0, #1
     d70:	21500002 	cmpcs	r0, r2
     d74:	01a05425 	lsreq	r5, r5, #8
     d78:	01a03423 	lsreq	r3, r3, #8
     d7c:	0afffff8 	beq	0xd64
     d80:	e0420000 	sub	r0, r2, r0
     d84:	e8bd0030 	pop	{r4, r5}
     d88:	e12fff1e 	bx	lr
     d8c:	e2512001 	subs	r2, r1, #1
     d90:	012fff1e 	bxeq	lr
     d94:	3a000036 	bcc	0xe74
     d98:	e1500001 	cmp	r0, r1
     d9c:	9a000022 	bls	0xe2c
     da0:	e1110002 	tst	r1, r2
     da4:	0a000023 	beq	0xe38
     da8:	e311020e 	tst	r1, #-536870912	; 0xe0000000
     dac:	01a01181 	lsleq	r1, r1, #3
     db0:	03a03008 	moveq	r3, #8
     db4:	13a03001 	movne	r3, #1
     db8:	e3510201 	cmp	r1, #268435456	; 0x10000000
     dbc:	31510000 	cmpcc	r1, r0
     dc0:	31a01201 	lslcc	r1, r1, #4
     dc4:	31a03203 	lslcc	r3, r3, #4
     dc8:	3afffffa 	bcc	0xdb8
     dcc:	e3510102 	cmp	r1, #-2147483648	; 0x80000000
     dd0:	31510000 	cmpcc	r1, r0
     dd4:	31a01081 	lslcc	r1, r1, #1
     dd8:	31a03083 	lslcc	r3, r3, #1
     ddc:	3afffffa 	bcc	0xdcc
     de0:	e3a02000 	mov	r2, #0
     de4:	e1500001 	cmp	r0, r1
     de8:	20400001 	subcs	r0, r0, r1
     dec:	21822003 	orrcs	r2, r2, r3
     df0:	e15000a1 	cmp	r0, r1, lsr #1
     df4:	204000a1 	subcs	r0, r0, r1, lsr #1
     df8:	218220a3 	orrcs	r2, r2, r3, lsr #1
     dfc:	e1500121 	cmp	r0, r1, lsr #2
     e00:	20400121 	subcs	r0, r0, r1, lsr #2
     e04:	21822123 	orrcs	r2, r2, r3, lsr #2
     e08:	e15001a1 	cmp	r0, r1, lsr #3
     e0c:	204001a1 	subcs	r0, r0, r1, lsr #3
     e10:	218221a3 	orrcs	r2, r2, r3, lsr #3
     e14:	e3500000 	cmp	r0, #0
     e18:	11b03223 	lsrsne	r3, r3, #4
     e1c:	11a01221 	lsrne	r1, r1, #4
     e20:	1affffef 	bne	0xde4
     e24:	e1a00002 	mov	r0, r2
     e28:	e12fff1e 	bx	lr
     e2c:	03a00001 	moveq	r0, #1
     e30:	13a00000 	movne	r0, #0
     e34:	e12fff1e 	bx	lr
     e38:	e3510801 	cmp	r1, #65536	; 0x10000
     e3c:	21a01821 	lsrcs	r1, r1, #16
     e40:	23a02010 	movcs	r2, #16
     e44:	33a02000 	movcc	r2, #0
     e48:	e3510c01 	cmp	r1, #256	; 0x100
     e4c:	21a01421 	lsrcs	r1, r1, #8
     e50:	22822008 	addcs	r2, r2, #8
     e54:	e3510010 	cmp	r1, #16
     e58:	21a01221 	lsrcs	r1, r1, #4
     e5c:	22822004 	addcs	r2, r2, #4
     e60:	e3510004 	cmp	r1, #4
     e64:	82822003 	addhi	r2, r2, #3
     e68:	908220a1 	addls	r2, r2, r1, lsr #1
     e6c:	e1a00230 	lsr	r0, r0, r2
     e70:	e12fff1e 	bx	lr
     e74:	e3500000 	cmp	r0, #0
     e78:	13e00000 	mvnne	r0, #0
     e7c:	ea000059 	b	0xfe8
     e80:	e3510000 	cmp	r1, #0
     e84:	0afffffa 	beq	0xe74
     e88:	e92d4003 	push	{r0, r1, lr}
     e8c:	ebffffbe 	bl	0xd8c
     e90:	e8bd4006 	pop	{r1, r2, lr}
     e94:	e0030092 	mul	r3, r2, r0
     e98:	e0411003 	sub	r1, r1, r3
     e9c:	e12fff1e 	bx	lr
     ea0:	e3510000 	cmp	r1, #0
     ea4:	0a000043 	beq	0xfb8
     ea8:	e020c001 	eor	ip, r0, r1
     eac:	42611000 	rsbmi	r1, r1, #0
     eb0:	e2512001 	subs	r2, r1, #1
     eb4:	0a000027 	beq	0xf58
     eb8:	e1b03000 	movs	r3, r0
     ebc:	42603000 	rsbmi	r3, r0, #0
     ec0:	e1530001 	cmp	r3, r1
     ec4:	9a000026 	bls	0xf64
     ec8:	e1110002 	tst	r1, r2
     ecc:	0a000028 	beq	0xf74
     ed0:	e311020e 	tst	r1, #-536870912	; 0xe0000000
     ed4:	01a01181 	lsleq	r1, r1, #3
     ed8:	03a02008 	moveq	r2, #8
     edc:	13a02001 	movne	r2, #1
     ee0:	e3510201 	cmp	r1, #268435456	; 0x10000000
     ee4:	31510003 	cmpcc	r1, r3
     ee8:	31a01201 	lslcc	r1, r1, #4
     eec:	31a02202 	lslcc	r2, r2, #4
     ef0:	3afffffa 	bcc	0xee0
     ef4:	e3510102 	cmp	r1, #-2147483648	; 0x80000000
     ef8:	31510003 	cmpcc	r1, r3
     efc:	31a01081 	lslcc	r1, r1, #1
     f00:	31a02082 	lslcc	r2, r2, #1
     f04:	3afffffa 	bcc	0xef4
     f08:	e3a00000 	mov	r0, #0
     f0c:	e1530001 	cmp	r3, r1
     f10:	20433001 	subcs	r3, r3, r1
     f14:	21800002 	orrcs	r0, r0, r2
     f18:	e15300a1 	cmp	r3, r1, lsr #1
     f1c:	204330a1 	subcs	r3, r3, r1, lsr #1
     f20:	218000a2 	orrcs	r0, r0, r2, lsr #1
     f24:	e1530121 	cmp	r3, r1, lsr #2
     f28:	20433121 	subcs	r3, r3, r1, lsr #2
     f2c:	21800122 	orrcs	r0, r0, r2, lsr #2
     f30:	e15301a1 	cmp	r3, r1, lsr #3
     f34:	204331a1 	subcs	r3, r3, r1, lsr #3
     f38:	218001a2 	orrcs	r0, r0, r2, lsr #3
     f3c:	e3530000 	cmp	r3, #0
     f40:	11b02222 	lsrsne	r2, r2, #4
     f44:	11a01221 	lsrne	r1, r1, #4
     f48:	1affffef 	bne	0xf0c
     f4c:	e35c0000 	cmp	ip, #0
     f50:	42600000 	rsbmi	r0, r0, #0
     f54:	e12fff1e 	bx	lr
     f58:	e13c0000 	teq	ip, r0
     f5c:	42600000 	rsbmi	r0, r0, #0
     f60:	e12fff1e 	bx	lr
     f64:	33a00000 	movcc	r0, #0
     f68:	01a00fcc 	asreq	r0, ip, #31
     f6c:	03800001 	orreq	r0, r0, #1
     f70:	e12fff1e 	bx	lr
     f74:	e3510801 	cmp	r1, #65536	; 0x10000
     f78:	21a01821 	lsrcs	r1, r1, #16
     f7c:	23a02010 	movcs	r2, #16
     f80:	33a02000 	movcc	r2, #0
     f84:	e3510c01 	cmp	r1, #256	; 0x100
     f88:	21a01421 	lsrcs	r1, r1, #8
     f8c:	22822008 	addcs	r2, r2, #8
     f90:	e3510010 	cmp	r1, #16
     f94:	21a01221 	lsrcs	r1, r1, #4
     f98:	22822004 	addcs	r2, r2, #4
     f9c:	e3510004 	cmp	r1, #4
     fa0:	82822003 	addhi	r2, r2, #3
     fa4:	908220a1 	addls	r2, r2, r1, lsr #1
     fa8:	e35c0000 	cmp	ip, #0
     fac:	e1a00233 	lsr	r0, r3, r2
     fb0:	42600000 	rsbmi	r0, r0, #0
     fb4:	e12fff1e 	bx	lr
     fb8:	e3500000 	cmp	r0, #0
     fbc:	c3e00102 	mvngt	r0, #-2147483648	; 0x80000000
     fc0:	b3a00102 	movlt	r0, #-2147483648	; 0x80000000
     fc4:	ea000007 	b	0xfe8
     fc8:	e3510000 	cmp	r1, #0
     fcc:	0afffff9 	beq	0xfb8
     fd0:	e92d4003 	push	{r0, r1, lr}
     fd4:	ebffffb3 	bl	0xea8
     fd8:	e8bd4006 	pop	{r1, r2, lr}
     fdc:	e0030092 	mul	r3, r2, r0
     fe0:	e0411003 	sub	r1, r1, r3
     fe4:	e12fff1e 	bx	lr
     fe8:	e12fff1e 	bx	lr
     fec:	e2211102 	eor	r1, r1, #-2147483648	; 0x80000000
     ff0:	ea000000 	b	0xff8
     ff4:	e2233102 	eor	r3, r3, #-2147483648	; 0x80000000
     ff8:	e92d4030 	push	{r4, r5, lr}
     ffc:	e1a04081 	lsl	r4, r1, #1
    1000:	e1a05083 	lsl	r5, r3, #1
    1004:	e1340005 	teq	r4, r5
    1008:	01300002 	teqeq	r0, r2
    100c:	1194c000 	orrsne	ip, r4, r0
    1010:	1195c002 	orrsne	ip, r5, r2
    1014:	11f0cac4 	mvnsne	ip, r4, asr #21
    1018:	11f0cac5 	mvnsne	ip, r5, asr #21
    101c:	0a00008c 	beq	0x1254
    1020:	e1a04aa4 	lsr	r4, r4, #21
    1024:	e0745aa5 	rsbs	r5, r4, r5, lsr #21
    1028:	b2655000 	rsblt	r5, r5, #0
    102c:	da000006 	ble	0x104c
    1030:	e0844005 	add	r4, r4, r5
    1034:	e0202002 	eor	r2, r0, r2
    1038:	e0213003 	eor	r3, r1, r3
    103c:	e0220000 	eor	r0, r2, r0
    1040:	e0231001 	eor	r1, r3, r1
    1044:	e0202002 	eor	r2, r0, r2
    1048:	e0213003 	eor	r3, r1, r3
    104c:	e3550036 	cmp	r5, #54	; 0x36
    1050:	88bd4030 	pophi	{r4, r5, lr}
    1054:	812fff1e 	bxhi	lr
    1058:	e3110102 	tst	r1, #-2147483648	; 0x80000000
    105c:	e1a01601 	lsl	r1, r1, #12
    1060:	e3a0c601 	mov	ip, #1048576	; 0x100000
    1064:	e18c1621 	orr	r1, ip, r1, lsr #12
    1068:	0a000001 	beq	0x1074
    106c:	e2700000 	rsbs	r0, r0, #0
    1070:	e2e11000 	rsc	r1, r1, #0
    1074:	e3130102 	tst	r3, #-2147483648	; 0x80000000
    1078:	e1a03603 	lsl	r3, r3, #12
    107c:	e18c3623 	orr	r3, ip, r3, lsr #12
    1080:	0a000001 	beq	0x108c
    1084:	e2722000 	rsbs	r2, r2, #0
    1088:	e2e33000 	rsc	r3, r3, #0
    108c:	e1340005 	teq	r4, r5
    1090:	0a000069 	beq	0x123c
    1094:	e2444001 	sub	r4, r4, #1
    1098:	e275e020 	rsbs	lr, r5, #32
    109c:	ba000005 	blt	0x10b8
    10a0:	e1a0ce12 	lsl	ip, r2, lr
    10a4:	e0900532 	adds	r0, r0, r2, lsr r5
    10a8:	e2a11000 	adc	r1, r1, #0
    10ac:	e0900e13 	adds	r0, r0, r3, lsl lr
    10b0:	e0b11553 	adcs	r1, r1, r3, asr r5
    10b4:	ea000006 	b	0x10d4
    10b8:	e2455020 	sub	r5, r5, #32
    10bc:	e28ee020 	add	lr, lr, #32
    10c0:	e3520001 	cmp	r2, #1
    10c4:	e1a0ce13 	lsl	ip, r3, lr
    10c8:	238cc002 	orrcs	ip, ip, #2
    10cc:	e0900553 	adds	r0, r0, r3, asr r5
    10d0:	e0b11fc3 	adcs	r1, r1, r3, asr #31
    10d4:	e2015102 	and	r5, r1, #-2147483648	; 0x80000000
    10d8:	5a000002 	bpl	0x10e8
    10dc:	e27cc000 	rsbs	ip, ip, #0
    10e0:	e2f00000 	rscs	r0, r0, #0
    10e4:	e2e11000 	rsc	r1, r1, #0
    10e8:	e3510601 	cmp	r1, #1048576	; 0x100000
    10ec:	3a00000f 	bcc	0x1130
    10f0:	e3510602 	cmp	r1, #2097152	; 0x200000
    10f4:	3a000006 	bcc	0x1114
    10f8:	e1b010a1 	lsrs	r1, r1, #1
    10fc:	e1b00060 	rrxs	r0, r0
    1100:	e1a0c06c 	rrx	ip, ip
    1104:	e2844001 	add	r4, r4, #1
    1108:	e1a02a84 	lsl	r2, r4, #21
    110c:	e3720501 	cmn	r2, #4194304	; 0x400000
    1110:	2a00006b 	bcs	0x12c4
    1114:	e35c0102 	cmp	ip, #-2147483648	; 0x80000000
    1118:	01b0c0a0 	lsrseq	ip, r0, #1
    111c:	e2b00000 	adcs	r0, r0, #0
    1120:	e0a11a04 	adc	r1, r1, r4, lsl #20
    1124:	e1811005 	orr	r1, r1, r5
    1128:	e8bd4030 	pop	{r4, r5, lr}
    112c:	e12fff1e 	bx	lr
    1130:	e1b0c08c 	lsls	ip, ip, #1
    1134:	e0b00000 	adcs	r0, r0, r0
    1138:	e0a11001 	adc	r1, r1, r1
    113c:	e3110601 	tst	r1, #1048576	; 0x100000
    1140:	e2444001 	sub	r4, r4, #1
    1144:	1afffff2 	bne	0x1114
    1148:	e3310000 	teq	r1, #0
    114c:	13a03014 	movne	r3, #20
    1150:	03a03034 	moveq	r3, #52	; 0x34
    1154:	01a01000 	moveq	r1, r0
    1158:	03a00000 	moveq	r0, #0
    115c:	e1a02001 	mov	r2, r1
    1160:	e3520801 	cmp	r2, #65536	; 0x10000
    1164:	21a02822 	lsrcs	r2, r2, #16
    1168:	22433010 	subcs	r3, r3, #16
    116c:	e3520c01 	cmp	r2, #256	; 0x100
    1170:	21a02422 	lsrcs	r2, r2, #8
    1174:	22433008 	subcs	r3, r3, #8
    1178:	e3520010 	cmp	r2, #16
    117c:	21a02222 	lsrcs	r2, r2, #4
    1180:	22433004 	subcs	r3, r3, #4
    1184:	e3520004 	cmp	r2, #4
    1188:	22433002 	subcs	r3, r3, #2
    118c:	304330a2 	subcc	r3, r3, r2, lsr #1
    1190:	e04331a2 	sub	r3, r3, r2, lsr #3
    1194:	e2532020 	subs	r2, r3, #32
    1198:	aa000007 	bge	0x11bc
    119c:	e292200c 	adds	r2, r2, #12
    11a0:	da000004 	ble	0x11b8
    11a4:	e282c014 	add	ip, r2, #20
    11a8:	e262200c 	rsb	r2, r2, #12
    11ac:	e1a00c11 	lsl	r0, r1, ip
    11b0:	e1a01231 	lsr	r1, r1, r2
    11b4:	ea000004 	b	0x11cc
    11b8:	e2822014 	add	r2, r2, #20
    11bc:	d262c020 	rsble	ip, r2, #32
    11c0:	e1a01211 	lsl	r1, r1, r2
    11c4:	d1811c30 	orrle	r1, r1, r0, lsr ip
    11c8:	d1a00210 	lslle	r0, r0, r2
    11cc:	e0544003 	subs	r4, r4, r3
    11d0:	a0811a04 	addge	r1, r1, r4, lsl #20
    11d4:	a1811005 	orrge	r1, r1, r5
    11d8:	a8bd4030 	popge	{r4, r5, lr}
    11dc:	a12fff1e 	bxge	lr
    11e0:	e1e04004 	mvn	r4, r4
    11e4:	e254401f 	subs	r4, r4, #31
    11e8:	aa00000f 	bge	0x122c
    11ec:	e294400c 	adds	r4, r4, #12
    11f0:	ca000006 	bgt	0x1210
    11f4:	e2844014 	add	r4, r4, #20
    11f8:	e2642020 	rsb	r2, r4, #32
    11fc:	e1a00430 	lsr	r0, r0, r4
    1200:	e1800211 	orr	r0, r0, r1, lsl r2
    1204:	e1851431 	orr	r1, r5, r1, lsr r4
    1208:	e8bd4030 	pop	{r4, r5, lr}
    120c:	e12fff1e 	bx	lr
    1210:	e264400c 	rsb	r4, r4, #12
    1214:	e2642020 	rsb	r2, r4, #32
    1218:	e1a00230 	lsr	r0, r0, r2
    121c:	e1800411 	orr	r0, r0, r1, lsl r4
    1220:	e1a01005 	mov	r1, r5
    1224:	e8bd4030 	pop	{r4, r5, lr}
    1228:	e12fff1e 	bx	lr
    122c:	e1a00431 	lsr	r0, r1, r4
    1230:	e1a01005 	mov	r1, r5
    1234:	e8bd4030 	pop	{r4, r5, lr}
    1238:	e12fff1e 	bx	lr
    123c:	e3340000 	teq	r4, #0
    1240:	e2233601 	eor	r3, r3, #1048576	; 0x100000
    1244:	02211601 	eoreq	r1, r1, #1048576	; 0x100000
    1248:	02844001 	addeq	r4, r4, #1
    124c:	12455001 	subne	r5, r5, #1
    1250:	eaffff8f 	b	0x1094
    1254:	e1f0cac4 	mvns	ip, r4, asr #21
    1258:	11f0cac5 	mvnsne	ip, r5, asr #21
    125c:	0a00001d 	beq	0x12d8
    1260:	e1340005 	teq	r4, r5
    1264:	01300002 	teqeq	r0, r2
    1268:	0a000004 	beq	0x1280
    126c:	e194c000 	orrs	ip, r4, r0
    1270:	01a01003 	moveq	r1, r3
    1274:	01a00002 	moveq	r0, r2
    1278:	e8bd4030 	pop	{r4, r5, lr}
    127c:	e12fff1e 	bx	lr
    1280:	e1310003 	teq	r1, r3
    1284:	13a01000 	movne	r1, #0
    1288:	13a00000 	movne	r0, #0
    128c:	18bd4030 	popne	{r4, r5, lr}
    1290:	112fff1e 	bxne	lr
    1294:	e1b0caa4 	lsrs	ip, r4, #21
    1298:	1a000004 	bne	0x12b0
    129c:	e1b00080 	lsls	r0, r0, #1
    12a0:	e0b11001 	adcs	r1, r1, r1
    12a4:	23811102 	orrcs	r1, r1, #-2147483648	; 0x80000000
    12a8:	e8bd4030 	pop	{r4, r5, lr}
    12ac:	e12fff1e 	bx	lr
    12b0:	e2944501 	adds	r4, r4, #4194304	; 0x400000
    12b4:	32811601 	addcc	r1, r1, #1048576	; 0x100000
    12b8:	38bd4030 	popcc	{r4, r5, lr}
    12bc:	312fff1e 	bxcc	lr
    12c0:	e2015102 	and	r5, r1, #-2147483648	; 0x80000000
    12c4:	e385147f 	orr	r1, r5, #2130706432	; 0x7f000000
    12c8:	e381160f 	orr	r1, r1, #15728640	; 0xf00000
    12cc:	e3a00000 	mov	r0, #0
    12d0:	e8bd4030 	pop	{r4, r5, lr}
    12d4:	e12fff1e 	bx	lr
    12d8:	e1f0cac4 	mvns	ip, r4, asr #21
    12dc:	11a01003 	movne	r1, r3
    12e0:	11a00002 	movne	r0, r2
    12e4:	01f0cac5 	mvnseq	ip, r5, asr #21
    12e8:	11a03001 	movne	r3, r1
    12ec:	11a02000 	movne	r2, r0
    12f0:	e1904601 	orrs	r4, r0, r1, lsl #12
    12f4:	01925603 	orrseq	r5, r2, r3, lsl #12
    12f8:	01310003 	teqeq	r1, r3
    12fc:	13811702 	orrne	r1, r1, #524288	; 0x80000
    1300:	e8bd4030 	pop	{r4, r5, lr}
    1304:	e12fff1e 	bx	lr
    1308:	e3300000 	teq	r0, #0
    130c:	03a01000 	moveq	r1, #0
    1310:	012fff1e 	bxeq	lr
    1314:	e92d4030 	push	{r4, r5, lr}
    1318:	e3a04b01 	mov	r4, #1024	; 0x400
    131c:	e2844032 	add	r4, r4, #50	; 0x32
    1320:	e3a05000 	mov	r5, #0
    1324:	e3a01000 	mov	r1, #0
    1328:	eaffff86 	b	0x1148
    132c:	e3300000 	teq	r0, #0
    1330:	03a01000 	moveq	r1, #0
    1334:	012fff1e 	bxeq	lr
    1338:	e92d4030 	push	{r4, r5, lr}
    133c:	e3a04b01 	mov	r4, #1024	; 0x400
    1340:	e2844032 	add	r4, r4, #50	; 0x32
    1344:	e2105102 	ands	r5, r0, #-2147483648	; 0x80000000
    1348:	42600000 	rsbmi	r0, r0, #0
    134c:	e3a01000 	mov	r1, #0
    1350:	eaffff7c 	b	0x1148
    1354:	e1b02080 	lsls	r2, r0, #1
    1358:	e1a011c2 	asr	r1, r2, #3
    135c:	e1a01061 	rrx	r1, r1
    1360:	e1a00e02 	lsl	r0, r2, #28
    1364:	121234ff 	andsne	r3, r2, #-16777216	; 0xff000000
    1368:	133304ff 	teqne	r3, #-16777216	; 0xff000000
    136c:	1221130e 	eorne	r1, r1, #939524096	; 0x38000000
    1370:	112fff1e 	bxne	lr
    1374:	e3d224ff 	bics	r2, r2, #-16777216	; 0xff000000
    1378:	012fff1e 	bxeq	lr
    137c:	e33304ff 	teq	r3, #-16777216	; 0xff000000
    1380:	03811702 	orreq	r1, r1, #524288	; 0x80000
    1384:	012fff1e 	bxeq	lr
    1388:	e92d4030 	push	{r4, r5, lr}
    138c:	e3a04d0e 	mov	r4, #896	; 0x380
    1390:	e2015102 	and	r5, r1, #-2147483648	; 0x80000000
    1394:	e3c11102 	bic	r1, r1, #-2147483648	; 0x80000000
    1398:	eaffff6a 	b	0x1148
    139c:	e1902001 	orrs	r2, r0, r1
    13a0:	012fff1e 	bxeq	lr
    13a4:	e92d4030 	push	{r4, r5, lr}
    13a8:	e3a05000 	mov	r5, #0
    13ac:	ea000006 	b	0x13cc
    13b0:	e1902001 	orrs	r2, r0, r1
    13b4:	012fff1e 	bxeq	lr
    13b8:	e92d4030 	push	{r4, r5, lr}
    13bc:	e2115102 	ands	r5, r1, #-2147483648	; 0x80000000
    13c0:	5a000001 	bpl	0x13cc
    13c4:	e2700000 	rsbs	r0, r0, #0
    13c8:	e2e11000 	rsc	r1, r1, #0
    13cc:	e3a04b01 	mov	r4, #1024	; 0x400
    13d0:	e2844032 	add	r4, r4, #50	; 0x32
    13d4:	e1b0cb21 	lsrs	ip, r1, #22
    13d8:	0affff42 	beq	0x10e8
    13dc:	e3a02003 	mov	r2, #3
    13e0:	e1b0c1ac 	lsrs	ip, ip, #3
    13e4:	12822003 	addne	r2, r2, #3
    13e8:	e1b0c1ac 	lsrs	ip, ip, #3
    13ec:	12822003 	addne	r2, r2, #3
    13f0:	e08221ac 	add	r2, r2, ip, lsr #3
    13f4:	e2623020 	rsb	r3, r2, #32
    13f8:	e1a0c310 	lsl	ip, r0, r3
    13fc:	e1a00230 	lsr	r0, r0, r2
    1400:	e1800311 	orr	r0, r0, r1, lsl r3
    1404:	e1a01231 	lsr	r1, r1, r2
    1408:	e0844002 	add	r4, r4, r2
    140c:	eaffff35 	b	0x10e8
    1410:	e92d4070 	push	{r4, r5, r6, lr}
    1414:	e3a0c0ff 	mov	ip, #255	; 0xff
    1418:	e38ccc07 	orr	ip, ip, #1792	; 0x700
    141c:	e01c4a21 	ands	r4, ip, r1, lsr #20
    1420:	101c5a23 	andsne	r5, ip, r3, lsr #20
    1424:	1134000c 	teqne	r4, ip
    1428:	1135000c 	teqne	r5, ip
    142c:	0b000075 	bleq	0x1608
    1430:	e0844005 	add	r4, r4, r5
    1434:	e0216003 	eor	r6, r1, r3
    1438:	e1c11a8c 	bic	r1, r1, ip, lsl #21
    143c:	e1c33a8c 	bic	r3, r3, ip, lsl #21
    1440:	e1905601 	orrs	r5, r0, r1, lsl #12
    1444:	11925603 	orrsne	r5, r2, r3, lsl #12
    1448:	e3811601 	orr	r1, r1, #1048576	; 0x100000
    144c:	e3833601 	orr	r3, r3, #1048576	; 0x100000
    1450:	0a00001d 	beq	0x14cc
    1454:	e08ec290 	umull	ip, lr, r0, r2
    1458:	e3a05000 	mov	r5, #0
    145c:	e0a5e291 	umlal	lr, r5, r1, r2
    1460:	e2062102 	and	r2, r6, #-2147483648	; 0x80000000
    1464:	e0a5e390 	umlal	lr, r5, r0, r3
    1468:	e3a06000 	mov	r6, #0
    146c:	e0a65391 	umlal	r5, r6, r1, r3
    1470:	e33c0000 	teq	ip, #0
    1474:	138ee001 	orrne	lr, lr, #1
    1478:	e24440ff 	sub	r4, r4, #255	; 0xff
    147c:	e3560c02 	cmp	r6, #512	; 0x200
    1480:	e2c44c03 	sbc	r4, r4, #768	; 0x300
    1484:	2a000002 	bcs	0x1494
    1488:	e1b0e08e 	lsls	lr, lr, #1
    148c:	e0b55005 	adcs	r5, r5, r5
    1490:	e0a66006 	adc	r6, r6, r6
    1494:	e1821586 	orr	r1, r2, r6, lsl #11
    1498:	e1811aa5 	orr	r1, r1, r5, lsr #21
    149c:	e1a00585 	lsl	r0, r5, #11
    14a0:	e1800aae 	orr	r0, r0, lr, lsr #21
    14a4:	e1a0e58e 	lsl	lr, lr, #11
    14a8:	e254c0fd 	subs	ip, r4, #253	; 0xfd
    14ac:	835c0c07 	cmphi	ip, #1792	; 0x700
    14b0:	8a000011 	bhi	0x14fc
    14b4:	e35e0102 	cmp	lr, #-2147483648	; 0x80000000
    14b8:	01b0e0a0 	lsrseq	lr, r0, #1
    14bc:	e2b00000 	adcs	r0, r0, #0
    14c0:	e0a11a04 	adc	r1, r1, r4, lsl #20
    14c4:	e8bd4070 	pop	{r4, r5, r6, lr}
    14c8:	e12fff1e 	bx	lr
    14cc:	e2066102 	and	r6, r6, #-2147483648	; 0x80000000
    14d0:	e1861001 	orr	r1, r6, r1
    14d4:	e1800002 	orr	r0, r0, r2
    14d8:	e0211003 	eor	r1, r1, r3
    14dc:	e05440ac 	subs	r4, r4, ip, lsr #1
    14e0:	c074500c 	rsbsgt	r5, r4, ip
    14e4:	c1811a04 	orrgt	r1, r1, r4, lsl #20
    14e8:	c8bd4070 	popgt	{r4, r5, r6, lr}
    14ec:	c12fff1e 	bxgt	lr
    14f0:	e3811601 	orr	r1, r1, #1048576	; 0x100000
    14f4:	e3a0e000 	mov	lr, #0
    14f8:	e2544001 	subs	r4, r4, #1
    14fc:	ca00005d 	bgt	0x1678
    1500:	e3740036 	cmn	r4, #54	; 0x36
    1504:	d3a00000 	movle	r0, #0
    1508:	d2011102 	andle	r1, r1, #-2147483648	; 0x80000000
    150c:	d8bd4070 	pople	{r4, r5, r6, lr}
    1510:	d12fff1e 	bxle	lr
    1514:	e2644000 	rsb	r4, r4, #0
    1518:	e2544020 	subs	r4, r4, #32
    151c:	aa00001a 	bge	0x158c
    1520:	e294400c 	adds	r4, r4, #12
    1524:	ca00000c 	bgt	0x155c
    1528:	e2844014 	add	r4, r4, #20
    152c:	e2645020 	rsb	r5, r4, #32
    1530:	e1a03510 	lsl	r3, r0, r5
    1534:	e1a00430 	lsr	r0, r0, r4
    1538:	e1800511 	orr	r0, r0, r1, lsl r5
    153c:	e2012102 	and	r2, r1, #-2147483648	; 0x80000000
    1540:	e3c11102 	bic	r1, r1, #-2147483648	; 0x80000000
    1544:	e0900fa3 	adds	r0, r0, r3, lsr #31
    1548:	e0a21431 	adc	r1, r2, r1, lsr r4
    154c:	e19ee083 	orrs	lr, lr, r3, lsl #1
    1550:	01c00fa3 	biceq	r0, r0, r3, lsr #31
    1554:	e8bd4070 	pop	{r4, r5, r6, lr}
    1558:	e12fff1e 	bx	lr
    155c:	e264400c 	rsb	r4, r4, #12
    1560:	e2645020 	rsb	r5, r4, #32
    1564:	e1a03410 	lsl	r3, r0, r4
    1568:	e1a00530 	lsr	r0, r0, r5
    156c:	e1800411 	orr	r0, r0, r1, lsl r4
    1570:	e2011102 	and	r1, r1, #-2147483648	; 0x80000000
    1574:	e0900fa3 	adds	r0, r0, r3, lsr #31
    1578:	e2a11000 	adc	r1, r1, #0
    157c:	e19ee083 	orrs	lr, lr, r3, lsl #1
    1580:	01c00fa3 	biceq	r0, r0, r3, lsr #31
    1584:	e8bd4070 	pop	{r4, r5, r6, lr}
    1588:	e12fff1e 	bx	lr
    158c:	e2645020 	rsb	r5, r4, #32
    1590:	e18ee510 	orr	lr, lr, r0, lsl r5
    1594:	e1a03430 	lsr	r3, r0, r4
    1598:	e1833511 	orr	r3, r3, r1, lsl r5
    159c:	e1a00431 	lsr	r0, r1, r4
    15a0:	e2011102 	and	r1, r1, #-2147483648	; 0x80000000
    15a4:	e1c00431 	bic	r0, r0, r1, lsr r4
    15a8:	e0800fa3 	add	r0, r0, r3, lsr #31
    15ac:	e19ee083 	orrs	lr, lr, r3, lsl #1
    15b0:	01c00fa3 	biceq	r0, r0, r3, lsr #31
    15b4:	e8bd4070 	pop	{r4, r5, r6, lr}
    15b8:	e12fff1e 	bx	lr
    15bc:	e3340000 	teq	r4, #0
    15c0:	1a000008 	bne	0x15e8
    15c4:	e2016102 	and	r6, r1, #-2147483648	; 0x80000000
    15c8:	e1b00080 	lsls	r0, r0, #1
    15cc:	e0a11001 	adc	r1, r1, r1
    15d0:	e3110601 	tst	r1, #1048576	; 0x100000
    15d4:	02444001 	subeq	r4, r4, #1
    15d8:	0afffffa 	beq	0x15c8
    15dc:	e1811006 	orr	r1, r1, r6
    15e0:	e3350000 	teq	r5, #0
    15e4:	112fff1e 	bxne	lr
    15e8:	e2036102 	and	r6, r3, #-2147483648	; 0x80000000
    15ec:	e1b02082 	lsls	r2, r2, #1
    15f0:	e0a33003 	adc	r3, r3, r3
    15f4:	e3130601 	tst	r3, #1048576	; 0x100000
    15f8:	02455001 	subeq	r5, r5, #1
    15fc:	0afffffa 	beq	0x15ec
    1600:	e1833006 	orr	r3, r3, r6
    1604:	e12fff1e 	bx	lr
    1608:	e134000c 	teq	r4, ip
    160c:	e00c5a23 	and	r5, ip, r3, lsr #20
    1610:	1135000c 	teqne	r5, ip
    1614:	0a000007 	beq	0x1638
    1618:	e1906081 	orrs	r6, r0, r1, lsl #1
    161c:	11926083 	orrsne	r6, r2, r3, lsl #1
    1620:	1affffe5 	bne	0x15bc
    1624:	e0211003 	eor	r1, r1, r3
    1628:	e2011102 	and	r1, r1, #-2147483648	; 0x80000000
    162c:	e3a00000 	mov	r0, #0
    1630:	e8bd4070 	pop	{r4, r5, r6, lr}
    1634:	e12fff1e 	bx	lr
    1638:	e1906081 	orrs	r6, r0, r1, lsl #1
    163c:	01a00002 	moveq	r0, r2
    1640:	01a01003 	moveq	r1, r3
    1644:	11926083 	orrsne	r6, r2, r3, lsl #1
    1648:	0a000010 	beq	0x1690
    164c:	e134000c 	teq	r4, ip
    1650:	1a000001 	bne	0x165c
    1654:	e1906601 	orrs	r6, r0, r1, lsl #12
    1658:	1a00000c 	bne	0x1690
    165c:	e135000c 	teq	r5, ip
    1660:	1a000003 	bne	0x1674
    1664:	e1926603 	orrs	r6, r2, r3, lsl #12
    1668:	11a00002 	movne	r0, r2
    166c:	11a01003 	movne	r1, r3
    1670:	1a000006 	bne	0x1690
    1674:	e0211003 	eor	r1, r1, r3
    1678:	e2011102 	and	r1, r1, #-2147483648	; 0x80000000
    167c:	e381147f 	orr	r1, r1, #2130706432	; 0x7f000000
    1680:	e381160f 	orr	r1, r1, #15728640	; 0xf00000
    1684:	e3a00000 	mov	r0, #0
    1688:	e8bd4070 	pop	{r4, r5, r6, lr}
    168c:	e12fff1e 	bx	lr
    1690:	e381147f 	orr	r1, r1, #2130706432	; 0x7f000000
    1694:	e381173e 	orr	r1, r1, #16252928	; 0xf80000
    1698:	e8bd4070 	pop	{r4, r5, r6, lr}
    169c:	e12fff1e 	bx	lr
    16a0:	e92d4070 	push	{r4, r5, r6, lr}
    16a4:	e3a0c0ff 	mov	ip, #255	; 0xff
    16a8:	e38ccc07 	orr	ip, ip, #1792	; 0x700
    16ac:	e01c4a21 	ands	r4, ip, r1, lsr #20
    16b0:	101c5a23 	andsne	r5, ip, r3, lsr #20
    16b4:	1134000c 	teqne	r4, ip
    16b8:	1135000c 	teqne	r5, ip
    16bc:	0b00005e 	bleq	0x183c
    16c0:	e0444005 	sub	r4, r4, r5
    16c4:	e021e003 	eor	lr, r1, r3
    16c8:	e1925603 	orrs	r5, r2, r3, lsl #12
    16cc:	e1a01601 	lsl	r1, r1, #12
    16d0:	0a00004c 	beq	0x1808
    16d4:	e1a03603 	lsl	r3, r3, #12
    16d8:	e3a05201 	mov	r5, #268435456	; 0x10000000
    16dc:	e1853223 	orr	r3, r5, r3, lsr #4
    16e0:	e1833c22 	orr	r3, r3, r2, lsr #24
    16e4:	e1a02402 	lsl	r2, r2, #8
    16e8:	e1855221 	orr	r5, r5, r1, lsr #4
    16ec:	e1855c20 	orr	r5, r5, r0, lsr #24
    16f0:	e1a06400 	lsl	r6, r0, #8
    16f4:	e20e1102 	and	r1, lr, #-2147483648	; 0x80000000
    16f8:	e1550003 	cmp	r5, r3
    16fc:	01560002 	cmpeq	r6, r2
    1700:	e2a440fd 	adc	r4, r4, #253	; 0xfd
    1704:	e2844c03 	add	r4, r4, #768	; 0x300
    1708:	2a000001 	bcs	0x1714
    170c:	e1b030a3 	lsrs	r3, r3, #1
    1710:	e1a02062 	rrx	r2, r2
    1714:	e0566002 	subs	r6, r6, r2
    1718:	e0c55003 	sbc	r5, r5, r3
    171c:	e1b030a3 	lsrs	r3, r3, #1
    1720:	e1a02062 	rrx	r2, r2
    1724:	e3a00601 	mov	r0, #1048576	; 0x100000
    1728:	e3a0c702 	mov	ip, #524288	; 0x80000
    172c:	e056e002 	subs	lr, r6, r2
    1730:	e0d5e003 	sbcs	lr, r5, r3
    1734:	20466002 	subcs	r6, r6, r2
    1738:	21a0500e 	movcs	r5, lr
    173c:	2180000c 	orrcs	r0, r0, ip
    1740:	e1b030a3 	lsrs	r3, r3, #1
    1744:	e1a02062 	rrx	r2, r2
    1748:	e056e002 	subs	lr, r6, r2
    174c:	e0d5e003 	sbcs	lr, r5, r3
    1750:	20466002 	subcs	r6, r6, r2
    1754:	21a0500e 	movcs	r5, lr
    1758:	218000ac 	orrcs	r0, r0, ip, lsr #1
    175c:	e1b030a3 	lsrs	r3, r3, #1
    1760:	e1a02062 	rrx	r2, r2
    1764:	e056e002 	subs	lr, r6, r2
    1768:	e0d5e003 	sbcs	lr, r5, r3
    176c:	20466002 	subcs	r6, r6, r2
    1770:	21a0500e 	movcs	r5, lr
    1774:	2180012c 	orrcs	r0, r0, ip, lsr #2
    1778:	e1b030a3 	lsrs	r3, r3, #1
    177c:	e1a02062 	rrx	r2, r2
    1780:	e056e002 	subs	lr, r6, r2
    1784:	e0d5e003 	sbcs	lr, r5, r3
    1788:	20466002 	subcs	r6, r6, r2
    178c:	21a0500e 	movcs	r5, lr
    1790:	218001ac 	orrcs	r0, r0, ip, lsr #3
    1794:	e195e006 	orrs	lr, r5, r6
    1798:	0a00000d 	beq	0x17d4
    179c:	e1a05205 	lsl	r5, r5, #4
    17a0:	e1855e26 	orr	r5, r5, r6, lsr #28
    17a4:	e1a06206 	lsl	r6, r6, #4
    17a8:	e1a03183 	lsl	r3, r3, #3
    17ac:	e1833ea2 	orr	r3, r3, r2, lsr #29
    17b0:	e1a02182 	lsl	r2, r2, #3
    17b4:	e1b0c22c 	lsrs	ip, ip, #4
    17b8:	1affffdb 	bne	0x172c
    17bc:	e3110601 	tst	r1, #1048576	; 0x100000
    17c0:	1a000006 	bne	0x17e0
    17c4:	e1811000 	orr	r1, r1, r0
    17c8:	e3a00000 	mov	r0, #0
    17cc:	e3a0c102 	mov	ip, #-2147483648	; 0x80000000
    17d0:	eaffffd5 	b	0x172c
    17d4:	e3110601 	tst	r1, #1048576	; 0x100000
    17d8:	01811000 	orreq	r1, r1, r0
    17dc:	03a00000 	moveq	r0, #0
    17e0:	e254c0fd 	subs	ip, r4, #253	; 0xfd
    17e4:	835c0c07 	cmphi	ip, #1792	; 0x700
    17e8:	8affff43 	bhi	0x14fc
    17ec:	e055c003 	subs	ip, r5, r3
    17f0:	0056c002 	subseq	ip, r6, r2
    17f4:	01b0c0a0 	lsrseq	ip, r0, #1
    17f8:	e2b00000 	adcs	r0, r0, #0
    17fc:	e0a11a04 	adc	r1, r1, r4, lsl #20
    1800:	e8bd4070 	pop	{r4, r5, r6, lr}
    1804:	e12fff1e 	bx	lr
    1808:	e20ee102 	and	lr, lr, #-2147483648	; 0x80000000
    180c:	e18e1621 	orr	r1, lr, r1, lsr #12
    1810:	e09440ac 	adds	r4, r4, ip, lsr #1
    1814:	c074500c 	rsbsgt	r5, r4, ip
    1818:	c1811a04 	orrgt	r1, r1, r4, lsl #20
    181c:	c8bd4070 	popgt	{r4, r5, r6, lr}
    1820:	c12fff1e 	bxgt	lr
    1824:	e3811601 	orr	r1, r1, #1048576	; 0x100000
    1828:	e3a0e000 	mov	lr, #0
    182c:	e2544001 	subs	r4, r4, #1
    1830:	eaffff31 	b	0x14fc
    1834:	e185e006 	orr	lr, r5, r6
    1838:	eaffff2f 	b	0x14fc
    183c:	e00c5a23 	and	r5, ip, r3, lsr #20
    1840:	e134000c 	teq	r4, ip
    1844:	0135000c 	teqeq	r5, ip
    1848:	0affff90 	beq	0x1690
    184c:	e134000c 	teq	r4, ip
    1850:	1a000006 	bne	0x1870
    1854:	e1904601 	orrs	r4, r0, r1, lsl #12
    1858:	1affff8c 	bne	0x1690
    185c:	e135000c 	teq	r5, ip
    1860:	1affff83 	bne	0x1674
    1864:	e1a00002 	mov	r0, r2
    1868:	e1a01003 	mov	r1, r3
    186c:	eaffff87 	b	0x1690
    1870:	e135000c 	teq	r5, ip
    1874:	1a000004 	bne	0x188c
    1878:	e1925603 	orrs	r5, r2, r3, lsl #12
    187c:	0affff68 	beq	0x1624
    1880:	e1a00002 	mov	r0, r2
    1884:	e1a01003 	mov	r1, r3
    1888:	eaffff80 	b	0x1690
    188c:	e1906081 	orrs	r6, r0, r1, lsl #1
    1890:	11926083 	orrsne	r6, r2, r3, lsl #1
    1894:	1affff48 	bne	0x15bc
    1898:	e1904081 	orrs	r4, r0, r1, lsl #1
    189c:	1affff74 	bne	0x1674
    18a0:	e1925083 	orrs	r5, r2, r3, lsl #1
    18a4:	1affff5e 	bne	0x1624
    18a8:	eaffff78 	b	0x1690
    18ac:	e3e0c000 	mvn	ip, #0
    18b0:	ea000002 	b	0x18c0
    18b4:	e3a0c001 	mov	ip, #1
    18b8:	ea000000 	b	0x18c0
    18bc:	e3a0c001 	mov	ip, #1
    18c0:	e52dc004 	push	{ip}		; (str ip, [sp, #-4]!)
    18c4:	e1a0c081 	lsl	ip, r1, #1
    18c8:	e1f0cacc 	mvns	ip, ip, asr #21
    18cc:	e1a0c083 	lsl	ip, r3, #1
    18d0:	11f0cacc 	mvnsne	ip, ip, asr #21
    18d4:	0a00000e 	beq	0x1914
    18d8:	e28dd004 	add	sp, sp, #4
    18dc:	e190c081 	orrs	ip, r0, r1, lsl #1
    18e0:	0192c083 	orrseq	ip, r2, r3, lsl #1
    18e4:	11310003 	teqne	r1, r3
    18e8:	01300002 	teqeq	r0, r2
    18ec:	03a00000 	moveq	r0, #0
    18f0:	012fff1e 	bxeq	lr
    18f4:	e3700000 	cmn	r0, #0
    18f8:	e1310003 	teq	r1, r3
    18fc:	51510003 	cmppl	r1, r3
    1900:	01500002 	cmpeq	r0, r2
    1904:	21a00fc3 	asrcs	r0, r3, #31
    1908:	31e00fc3 	mvncc	r0, r3, asr #31
    190c:	e3800001 	orr	r0, r0, #1
    1910:	e12fff1e 	bx	lr
    1914:	e1a0c081 	lsl	ip, r1, #1
    1918:	e1f0cacc 	mvns	ip, ip, asr #21
    191c:	1a000001 	bne	0x1928
    1920:	e190c601 	orrs	ip, r0, r1, lsl #12
    1924:	1a000004 	bne	0x193c
    1928:	e1a0c083 	lsl	ip, r3, #1
    192c:	e1f0cacc 	mvns	ip, ip, asr #21
    1930:	1affffe8 	bne	0x18d8
    1934:	e192c603 	orrs	ip, r2, r3, lsl #12
    1938:	0affffe6 	beq	0x18d8
    193c:	e49d0004 	pop	{r0}		; (ldr r0, [sp], #4)
    1940:	e12fff1e 	bx	lr
    1944:	e1a0c000 	mov	ip, r0
    1948:	e1a00002 	mov	r0, r2
    194c:	e1a0200c 	mov	r2, ip
    1950:	e1a0c001 	mov	ip, r1
    1954:	e1a01003 	mov	r1, r3
    1958:	e1a0300c 	mov	r3, ip
    195c:	eaffffff 	b	0x1960
    1960:	e92d4001 	push	{r0, lr}
    1964:	ebffffd4 	bl	0x18bc
    1968:	e3500000 	cmp	r0, #0
    196c:	43700000 	cmnmi	r0, #0
    1970:	e8bd4001 	pop	{r0, lr}
    1974:	e12fff1e 	bx	lr
    1978:	e52de008 	str	lr, [sp, #-8]!
    197c:	ebfffff7 	bl	0x1960
    1980:	03a00001 	moveq	r0, #1
    1984:	13a00000 	movne	r0, #0
    1988:	e49de008 	ldr	lr, [sp], #8
    198c:	e12fff1e 	bx	lr
    1990:	e52de008 	str	lr, [sp, #-8]!
    1994:	ebfffff1 	bl	0x1960
    1998:	33a00001 	movcc	r0, #1
    199c:	23a00000 	movcs	r0, #0
    19a0:	e49de008 	ldr	lr, [sp], #8
    19a4:	e12fff1e 	bx	lr
    19a8:	e52de008 	str	lr, [sp, #-8]!
    19ac:	ebffffeb 	bl	0x1960
    19b0:	93a00001 	movls	r0, #1
    19b4:	83a00000 	movhi	r0, #0
    19b8:	e49de008 	ldr	lr, [sp], #8
    19bc:	e12fff1e 	bx	lr
    19c0:	e52de008 	str	lr, [sp, #-8]!
    19c4:	ebffffde 	bl	0x1944
    19c8:	93a00001 	movls	r0, #1
    19cc:	83a00000 	movhi	r0, #0
    19d0:	e49de008 	ldr	lr, [sp], #8
    19d4:	e12fff1e 	bx	lr
    19d8:	e52de008 	str	lr, [sp, #-8]!
    19dc:	ebffffd8 	bl	0x1944
    19e0:	33a00001 	movcc	r0, #1
    19e4:	23a00000 	movcs	r0, #0
    19e8:	e49de008 	ldr	lr, [sp], #8
    19ec:	e12fff1e 	bx	lr
    19f0:	e1a0c081 	lsl	ip, r1, #1
    19f4:	e1f0cacc 	mvns	ip, ip, asr #21
    19f8:	1a000001 	bne	0x1a04
    19fc:	e190c601 	orrs	ip, r0, r1, lsl #12
    1a00:	1a000006 	bne	0x1a20
    1a04:	e1a0c083 	lsl	ip, r3, #1
    1a08:	e1f0cacc 	mvns	ip, ip, asr #21
    1a0c:	1a000001 	bne	0x1a18
    1a10:	e192c603 	orrs	ip, r2, r3, lsl #12
    1a14:	1a000001 	bne	0x1a20
    1a18:	e3a00000 	mov	r0, #0
    1a1c:	e12fff1e 	bx	lr
    1a20:	e3a00001 	mov	r0, #1
    1a24:	e12fff1e 	bx	lr
    1a28:	e1a02081 	lsl	r2, r1, #1
    1a2c:	e2922602 	adds	r2, r2, #2097152	; 0x200000
    1a30:	2a00000c 	bcs	0x1a68
    1a34:	5a000009 	bpl	0x1a60
    1a38:	e3e03e3e 	mvn	r3, #992	; 0x3e0
    1a3c:	e0532ac2 	subs	r2, r3, r2, asr #21
    1a40:	9a00000a 	bls	0x1a70
    1a44:	e1a03581 	lsl	r3, r1, #11
    1a48:	e3833102 	orr	r3, r3, #-2147483648	; 0x80000000
    1a4c:	e1833aa0 	orr	r3, r3, r0, lsr #21
    1a50:	e3110102 	tst	r1, #-2147483648	; 0x80000000
    1a54:	e1a00233 	lsr	r0, r3, r2
    1a58:	12600000 	rsbne	r0, r0, #0
    1a5c:	e12fff1e 	bx	lr
    1a60:	e3a00000 	mov	r0, #0
    1a64:	e12fff1e 	bx	lr
    1a68:	e1900601 	orrs	r0, r0, r1, lsl #12
    1a6c:	1a000002 	bne	0x1a7c
    1a70:	e2110102 	ands	r0, r1, #-2147483648	; 0x80000000
    1a74:	03e00102 	mvneq	r0, #-2147483648	; 0x80000000
    1a78:	e12fff1e 	bx	lr
    1a7c:	e3a00000 	mov	r0, #0
    1a80:	e12fff1e 	bx	lr
    1a84:	e3530000 	cmp	r3, #0
    1a88:	03520000 	cmpeq	r2, #0
    1a8c:	1a000004 	bne	0x1aa4
    1a90:	e3510000 	cmp	r1, #0
    1a94:	03500000 	cmpeq	r0, #0
    1a98:	13e01000 	mvnne	r1, #0
    1a9c:	13e00000 	mvnne	r0, #0
    1aa0:	eafffd50 	b	0xfe8
    1aa4:	e24dd008 	sub	sp, sp, #8
    1aa8:	e92d6000 	push	{sp, lr}
    1aac:	eb0020ff 	bl	0x9eb0
    1ab0:	e59de004 	ldr	lr, [sp, #4]
    1ab4:	e28dd008 	add	sp, sp, #8
    1ab8:	e8bd000c 	pop	{r2, r3}
    1abc:	e12fff1e 	bx	lr
    1ac0:	e92d4010 	push	{r4, lr}
    1ac4:	e3510000 	cmp	r1, #0
    1ac8:	1a000002 	bne	0x1ad8
    1acc:	eb000005 	bl	0x1ae8
    1ad0:	e2800020 	add	r0, r0, #32
    1ad4:	ea000001 	b	0x1ae0
    1ad8:	e1a00001 	mov	r0, r1
    1adc:	eb000001 	bl	0x1ae8
    1ae0:	e8bd4010 	pop	{r4, lr}
    1ae4:	e12fff1e 	bx	lr
    1ae8:	e3a0101c 	mov	r1, #28
    1aec:	e3500801 	cmp	r0, #65536	; 0x10000
    1af0:	21a00820 	lsrcs	r0, r0, #16
    1af4:	22411010 	subcs	r1, r1, #16
    1af8:	e3500c01 	cmp	r0, #256	; 0x100
    1afc:	21a00420 	lsrcs	r0, r0, #8
    1b00:	22411008 	subcs	r1, r1, #8
    1b04:	e3500010 	cmp	r0, #16
    1b08:	21a00220 	lsrcs	r0, r0, #4
    1b0c:	22411004 	subcs	r1, r1, #4
    1b10:	e28f2008 	add	r2, pc, #8
    1b14:	e7d20000 	ldrb	r0, [r2, r0]
    1b18:	e0800001 	add	r0, r0, r1
    1b1c:	e12fff1e 	bx	lr
    1b20:	02020304 	andeq	r0, r2, #4, 6	; 0x10000000
    1b24:	01010101 	tsteq	r1, r1, lsl #2
	...
    1b30:	e59f0018 	ldr	r0, [pc, #24]	; 0x1b50
    1b34:	e59f3018 	ldr	r3, [pc, #24]	; 0x1b54
    1b38:	e1530000 	cmp	r3, r0
    1b3c:	012fff1e 	bxeq	lr
    1b40:	e59f3010 	ldr	r3, [pc, #16]	; 0x1b58
    1b44:	e3530000 	cmp	r3, #0
    1b48:	012fff1e 	bxeq	lr
    1b4c:	e12fff13 	bx	r3
    1b50:	03000bd8 	tsteq	r0, #216, 22	; 0x36000
    1b54:	03000bd8 	tsteq	r0, #216, 22	; 0x36000
    1b58:	00000000 	andeq	r0, r0, r0
    1b5c:	e59f0024 	ldr	r0, [pc, #36]	; 0x1b88
    1b60:	e59f1024 	ldr	r1, [pc, #36]	; 0x1b8c
    1b64:	e0411000 	sub	r1, r1, r0
    1b68:	e1a01141 	asr	r1, r1, #2
    1b6c:	e0811fa1 	add	r1, r1, r1, lsr #31
    1b70:	e1b010c1 	asrs	r1, r1, #1
    1b74:	012fff1e 	bxeq	lr
    1b78:	e59f3010 	ldr	r3, [pc, #16]	; 0x1b90
    1b7c:	e3530000 	cmp	r3, #0
    1b80:	012fff1e 	bxeq	lr
    1b84:	e12fff13 	bx	r3
    1b88:	03000bd8 	tsteq	r0, #216, 22	; 0x36000
    1b8c:	03000bd8 	tsteq	r0, #216, 22	; 0x36000
    1b90:	00000000 	andeq	r0, r0, r0
    1b94:	e92d4010 	push	{r4, lr}
    1b98:	e59f402c 	ldr	r4, [pc, #44]	; 0x1bcc
    1b9c:	e5d43000 	ldrb	r3, [r4]
    1ba0:	e3530000 	cmp	r3, #0
    1ba4:	1a000006 	bne	0x1bc4
    1ba8:	ebffffe0 	bl	0x1b30
    1bac:	e59f301c 	ldr	r3, [pc, #28]	; 0x1bd0
    1bb0:	e3530000 	cmp	r3, #0
    1bb4:	159f0018 	ldrne	r0, [pc, #24]	; 0x1bd4
    1bb8:	11a00000 	movne	r0, r0
    1bbc:	e3a03001 	mov	r3, #1
    1bc0:	e5c43000 	strb	r3, [r4]
    1bc4:	e8bd4010 	pop	{r4, lr}
    1bc8:	e12fff1e 	bx	lr
    1bcc:	03000000 	tsteq	r0, #0
    1bd0:	00000000 	andeq	r0, r0, r0
    1bd4:	0800a4c0 	stmdaeq	r0, {r6, r7, sl, sp, pc}
    1bd8:	e59f3020 	ldr	r3, [pc, #32]	; 0x1c00
    1bdc:	e3530000 	cmp	r3, #0
    1be0:	0a000005 	beq	0x1bfc
    1be4:	e92d4010 	push	{r4, lr}
    1be8:	e59f1014 	ldr	r1, [pc, #20]	; 0x1c04
    1bec:	e59f0014 	ldr	r0, [pc, #20]	; 0x1c08
    1bf0:	e1a00000 	nop			; (mov r0, r0)
    1bf4:	e8bd4010 	pop	{r4, lr}
    1bf8:	eaffffd7 	b	0x1b5c
    1bfc:	eaffffd6 	b	0x1b5c
    1c00:	00000000 	andeq	r0, r0, r0
    1c04:	03000004 	tsteq	r0, #4
    1c08:	0800a4c0 	stmdaeq	r0, {r6, r7, sl, sp, pc}
    1c0c:	e52de004 	push	{lr}		; (str lr, [sp, #-4]!)
    1c10:	e59f40a0 	ldr	r4, [pc, #160]	; 0x1cb8
    1c14:	e59f50a0 	ldr	r5, [pc, #160]	; 0x1cbc
    1c18:	e24dd00c 	sub	sp, sp, #12
    1c1c:	e3a0200e 	mov	r2, #14
    1c20:	e1a01005 	mov	r1, r5
    1c24:	e1a00004 	mov	r0, r4
    1c28:	eb000049 	bl	0x1d54
    1c2c:	e1a01005 	mov	r1, r5
    1c30:	e1a00004 	mov	r0, r4
    1c34:	ebfffbcb 	bl	0xb68
    1c38:	e2700001 	rsbs	r0, r0, #1
    1c3c:	33a00000 	movcc	r0, #0
    1c40:	ebfffbc3 	bl	0xb54
    1c44:	e3a06002 	mov	r6, #2
    1c48:	e3a03001 	mov	r3, #1
    1c4c:	e59f506c 	ldr	r5, [pc, #108]	; 0x1cc0
    1c50:	e1a02003 	mov	r2, r3
    1c54:	e1a01005 	mov	r1, r5
    1c58:	e1a00004 	mov	r0, r4
    1c5c:	e58d6000 	str	r6, [sp]
    1c60:	eb000082 	bl	0x1e70
    1c64:	e59f1058 	ldr	r1, [pc, #88]	; 0x1cc4
    1c68:	e1a00004 	mov	r0, r4
    1c6c:	ebfffbbd 	bl	0xb68
    1c70:	e2700001 	rsbs	r0, r0, #1
    1c74:	33a00000 	movcc	r0, #0
    1c78:	ebfffbb5 	bl	0xb54
    1c7c:	e3a0300c 	mov	r3, #12
    1c80:	e1a02006 	mov	r2, r6
    1c84:	e1a01005 	mov	r1, r5
    1c88:	e58d3000 	str	r3, [sp]
    1c8c:	e1a00004 	mov	r0, r4
    1c90:	e3a0300a 	mov	r3, #10
    1c94:	eb000075 	bl	0x1e70
    1c98:	e59f1028 	ldr	r1, [pc, #40]	; 0x1cc8
    1c9c:	e1a00004 	mov	r0, r4
    1ca0:	ebfffbb0 	bl	0xb68
    1ca4:	e2700001 	rsbs	r0, r0, #1
    1ca8:	33a00000 	movcc	r0, #0
    1cac:	ebfffba8 	bl	0xb54
    1cb0:	e3a00000 	mov	r0, #0
    1cb4:	ebfffa07 	bl	0x4d8
    1cb8:	0300016c 	tsteq	r0, #108, 2
    1cbc:	08009ff8 	stmdaeq	r0, {r3, r4, r5, r6, r7, r8, r9, sl, fp, ip, pc}
    1cc0:	0800a008 	stmdaeq	r0, {r3, sp, pc}
    1cc4:	0800a018 	stmdaeq	r0, {r3, r4, sp, pc}
    1cc8:	0800a024 	stmdaeq	r0, {r2, r5, sp, pc}
    1ccc:	e92d4070 	push	{r4, r5, r6, lr}
    1cd0:	e59f606c 	ldr	r6, [pc, #108]	; 0x1d44
    1cd4:	e59f506c 	ldr	r5, [pc, #108]	; 0x1d48
    1cd8:	e0466005 	sub	r6, r6, r5
    1cdc:	e1b06146 	asrs	r6, r6, #2
    1ce0:	0a000007 	beq	0x1d04
    1ce4:	e3a04000 	mov	r4, #0
    1ce8:	e2455004 	sub	r5, r5, #4
    1cec:	e2844001 	add	r4, r4, #1
    1cf0:	e5b53004 	ldr	r3, [r5, #4]!
    1cf4:	e1a0e00f 	mov	lr, pc
    1cf8:	e12fff13 	bx	r3
    1cfc:	e1560004 	cmp	r6, r4
    1d00:	1afffff9 	bne	0x1cec
    1d04:	e59f6040 	ldr	r6, [pc, #64]	; 0x1d4c
    1d08:	e59f5040 	ldr	r5, [pc, #64]	; 0x1d50
    1d0c:	e0466005 	sub	r6, r6, r5
    1d10:	ebfff93e 	bl	0x210
    1d14:	e1b06146 	asrs	r6, r6, #2
    1d18:	0a000007 	beq	0x1d3c
    1d1c:	e3a04000 	mov	r4, #0
    1d20:	e2455004 	sub	r5, r5, #4
    1d24:	e2844001 	add	r4, r4, #1
    1d28:	e5b53004 	ldr	r3, [r5, #4]!
    1d2c:	e1a0e00f 	mov	lr, pc
    1d30:	e12fff13 	bx	r3
    1d34:	e1560004 	cmp	r6, r4
    1d38:	1afffff9 	bne	0x1d24
    1d3c:	e8bd4070 	pop	{r4, r5, r6, lr}
    1d40:	e12fff1e 	bx	lr
    1d44:	03000bd8 	tsteq	r0, #216, 22	; 0x36000
    1d48:	03000bd8 	tsteq	r0, #216, 22	; 0x36000
    1d4c:	03000bdc 	tsteq	r0, #220, 22	; 0x37000
    1d50:	03000bd8 	tsteq	r0, #216, 22	; 0x36000
    1d54:	e352000f 	cmp	r2, #15
    1d58:	9a000035 	bls	0x1e34
    1d5c:	e1803001 	orr	r3, r0, r1
    1d60:	e3130003 	tst	r3, #3
    1d64:	1a00003e 	bne	0x1e64
    1d68:	e92d41f0 	push	{r4, r5, r6, r7, r8, lr}
    1d6c:	e2428010 	sub	r8, r2, #16
    1d70:	e1a08228 	lsr	r8, r8, #4
    1d74:	e2817020 	add	r7, r1, #32
    1d78:	e0877208 	add	r7, r7, r8, lsl #4
    1d7c:	e2813010 	add	r3, r1, #16
    1d80:	e280c010 	add	ip, r0, #16
    1d84:	e5136010 	ldr	r6, [r3, #-16]
    1d88:	e513500c 	ldr	r5, [r3, #-12]
    1d8c:	e9134010 	ldmdb	r3, {r4, lr}
    1d90:	e2833010 	add	r3, r3, #16
    1d94:	e1530007 	cmp	r3, r7
    1d98:	e50c6010 	str	r6, [ip, #-16]
    1d9c:	e50c500c 	str	r5, [ip, #-12]
    1da0:	e90c4010 	stmdb	ip, {r4, lr}
    1da4:	e28cc010 	add	ip, ip, #16
    1da8:	1afffff5 	bne	0x1d84
    1dac:	e288c001 	add	ip, r8, #1
    1db0:	e1a0c20c 	lsl	ip, ip, #4
    1db4:	e312000c 	tst	r2, #12
    1db8:	e202e00f 	and	lr, r2, #15
    1dbc:	e081100c 	add	r1, r1, ip
    1dc0:	01a0200e 	moveq	r2, lr
    1dc4:	e080c00c 	add	ip, r0, ip
    1dc8:	0a00000d 	beq	0x1e04
    1dcc:	e1a04001 	mov	r4, r1
    1dd0:	e24ee004 	sub	lr, lr, #4
    1dd4:	e1a0e12e 	lsr	lr, lr, #2
    1dd8:	e08c610e 	add	r6, ip, lr, lsl #2
    1ddc:	e24c3004 	sub	r3, ip, #4
    1de0:	e4945004 	ldr	r5, [r4], #4
    1de4:	e5a35004 	str	r5, [r3, #4]!
    1de8:	e1530006 	cmp	r3, r6
    1dec:	1afffffb 	bne	0x1de0
    1df0:	e28ee001 	add	lr, lr, #1
    1df4:	e1a0e10e 	lsl	lr, lr, #2
    1df8:	e08cc00e 	add	ip, ip, lr
    1dfc:	e081100e 	add	r1, r1, lr
    1e00:	e2022003 	and	r2, r2, #3
    1e04:	e3520000 	cmp	r2, #0
    1e08:	e2422001 	sub	r2, r2, #1
    1e0c:	12822001 	addne	r2, r2, #1
    1e10:	10813002 	addne	r3, r1, r2
    1e14:	124c2001 	subne	r2, ip, #1
    1e18:	0a000003 	beq	0x1e2c
    1e1c:	e4d1c001 	ldrb	ip, [r1], #1
    1e20:	e1510003 	cmp	r1, r3
    1e24:	e5e2c001 	strb	ip, [r2, #1]!
    1e28:	1afffffb 	bne	0x1e1c
    1e2c:	e8bd41f0 	pop	{r4, r5, r6, r7, r8, lr}
    1e30:	e12fff1e 	bx	lr
    1e34:	e3520000 	cmp	r2, #0
    1e38:	e1a0c000 	mov	ip, r0
    1e3c:	e2422001 	sub	r2, r2, #1
    1e40:	012fff1e 	bxeq	lr
    1e44:	e2822001 	add	r2, r2, #1
    1e48:	e0813002 	add	r3, r1, r2
    1e4c:	e24c2001 	sub	r2, ip, #1
    1e50:	e4d1c001 	ldrb	ip, [r1], #1
    1e54:	e1510003 	cmp	r1, r3
    1e58:	e5e2c001 	strb	ip, [r2, #1]!
    1e5c:	1afffffb 	bne	0x1e50
    1e60:	e12fff1e 	bx	lr
    1e64:	e2422001 	sub	r2, r2, #1
    1e68:	e1a0c000 	mov	ip, r0
    1e6c:	eafffff4 	b	0x1e44
    1e70:	e92d000e 	push	{r1, r2, r3}
    1e74:	e3e03102 	mvn	r3, #-2147483648	; 0x80000000
    1e78:	e52de004 	push	{lr}		; (str lr, [sp, #-4]!)
    1e7c:	e59f104c 	ldr	r1, [pc, #76]	; 0x1ed0
    1e80:	e24dd080 	sub	sp, sp, #128	; 0x80
    1e84:	e28d2088 	add	r2, sp, #136	; 0x88
    1e88:	e58d301c 	str	r3, [sp, #28]
    1e8c:	e58d3010 	str	r3, [sp, #16]
    1e90:	e58d1014 	str	r1, [sp, #20]
    1e94:	e58d2004 	str	r2, [sp, #4]
    1e98:	e58d0008 	str	r0, [sp, #8]
    1e9c:	e58d0018 	str	r0, [sp, #24]
    1ea0:	eb001ff9 	bl	0x9e8c
    1ea4:	e59d2084 	ldr	r2, [sp, #132]	; 0x84
    1ea8:	e59d3004 	ldr	r3, [sp, #4]
    1eac:	e28d1008 	add	r1, sp, #8
    1eb0:	eb000195 	bl	0x250c
    1eb4:	e3a02000 	mov	r2, #0
    1eb8:	e59d3008 	ldr	r3, [sp, #8]
    1ebc:	e5c32000 	strb	r2, [r3]
    1ec0:	e28dd080 	add	sp, sp, #128	; 0x80
    1ec4:	e49de004 	pop	{lr}		; (ldr lr, [sp], #4)
    1ec8:	e28dd00c 	add	sp, sp, #12
    1ecc:	e12fff1e 	bx	lr
    1ed0:	ffff0208 			; <UNDEFINED> instruction: 0xffff0208
    1ed4:	e92d4ff0 	push	{r4, r5, r6, r7, r8, r9, sl, fp, lr}
    1ed8:	e24dd02c 	sub	sp, sp, #44	; 0x2c
    1edc:	e1a04003 	mov	r4, r3
    1ee0:	e28d3050 	add	r3, sp, #80	; 0x50
    1ee4:	e8930208 	ldm	r3, {r3, r9}
    1ee8:	e593a000 	ldr	sl, [r3]
    1eec:	e59d305c 	ldr	r3, [sp, #92]	; 0x5c
    1ef0:	e5933000 	ldr	r3, [r3]
    1ef4:	e3530000 	cmp	r3, #0
    1ef8:	e58d0010 	str	r0, [sp, #16]
    1efc:	e58d100c 	str	r1, [sp, #12]
    1f00:	01a0b002 	moveq	fp, r2
    1f04:	e3a01000 	mov	r1, #0
    1f08:	e3a02008 	mov	r2, #8
    1f0c:	e28d0020 	add	r0, sp, #32
    1f10:	11a0b003 	movne	fp, r3
    1f14:	eb0019b2 	bl	0x85e4
    1f18:	e59d300c 	ldr	r3, [sp, #12]
    1f1c:	e58d3008 	str	r3, [sp, #8]
    1f20:	e59d300c 	ldr	r3, [sp, #12]
    1f24:	e5db2000 	ldrb	r2, [fp]
    1f28:	e15a0003 	cmp	sl, r3
    1f2c:	c3a03000 	movgt	r3, #0
    1f30:	d3a03001 	movle	r3, #1
    1f34:	e3520000 	cmp	r2, #0
    1f38:	03a03000 	moveq	r3, #0
    1f3c:	e3530000 	cmp	r3, #0
    1f40:	0a000137 	beq	0x2424
    1f44:	e28d5020 	add	r5, sp, #32
    1f48:	eb001fcf 	bl	0x9e8c
    1f4c:	e5903034 	ldr	r3, [r0, #52]	; 0x34
    1f50:	e59f25a4 	ldr	r2, [pc, #1444]	; 0x24fc
    1f54:	e3530000 	cmp	r3, #0
    1f58:	01a03002 	moveq	r3, r2
    1f5c:	e59360e4 	ldr	r6, [r3, #228]	; 0xe4
    1f60:	eb0016ad 	bl	0x7a1c
    1f64:	e58d5000 	str	r5, [sp]
    1f68:	e1a03000 	mov	r3, r0
    1f6c:	e1a0200b 	mov	r2, fp
    1f70:	e28d101c 	add	r1, sp, #28
    1f74:	e59d0010 	ldr	r0, [sp, #16]
    1f78:	e1a0e00f 	mov	lr, pc
    1f7c:	e12fff16 	bx	r6
    1f80:	e3500000 	cmp	r0, #0
    1f84:	da000126 	ble	0x2424
    1f88:	e59d301c 	ldr	r3, [sp, #28]
    1f8c:	e3530025 	cmp	r3, #37	; 0x25
    1f90:	e08bb000 	add	fp, fp, r0
    1f94:	1affffeb 	bne	0x1f48
    1f98:	e3a03000 	mov	r3, #0
    1f9c:	e1a0100b 	mov	r1, fp
    1fa0:	e3e05000 	mvn	r5, #0
    1fa4:	e1a06003 	mov	r6, r3
    1fa8:	e1a07003 	mov	r7, r3
    1fac:	e1a08003 	mov	r8, r3
    1fb0:	e59f0548 	ldr	r0, [pc, #1352]	; 0x2500
    1fb4:	e5d12000 	ldrb	r2, [r1]
    1fb8:	e59fe544 	ldr	lr, [pc, #1348]	; 0x2504
    1fbc:	e7d0c002 	ldrb	ip, [r0, r2]
    1fc0:	e0830183 	add	r0, r3, r3, lsl #3
    1fc4:	e59f353c 	ldr	r3, [pc, #1340]	; 0x2508
    1fc8:	e0833000 	add	r3, r3, r0
    1fcc:	e08e0000 	add	r0, lr, r0
    1fd0:	e7d0000c 	ldrb	r0, [r0, ip]
    1fd4:	e2400001 	sub	r0, r0, #1
    1fd8:	e28bb001 	add	fp, fp, #1
    1fdc:	e7d3300c 	ldrb	r3, [r3, ip]
    1fe0:	e3500007 	cmp	r0, #7
    1fe4:	979ff100 	ldrls	pc, [pc, r0, lsl #2]
    1fe8:	ea000109 	b	0x2414
    1fec:	080023c8 	stmdaeq	r0, {r3, r6, r7, r8, r9, sp}
    1ff0:	0800200c 	stmdaeq	r0, {r2, r3, sp}
    1ff4:	08002014 	stmdaeq	r0, {r2, r4, sp}
    1ff8:	08002070 	stmdaeq	r0, {r4, r5, r6, sp}
    1ffc:	080023ac 	stmdaeq	r0, {r2, r3, r5, r7, r8, r9, sp}
    2000:	080023a8 	stmdaeq	r0, {r3, r5, r7, r8, r9, sp}
    2004:	08002320 	stmdaeq	r0, {r5, r8, r9, sp}
    2008:	0800235c 	stmdaeq	r0, {r2, r3, r4, r6, r8, r9, sp}
    200c:	e1a0200b 	mov	r2, fp
    2010:	ea0000f9 	b	0x23fc
    2014:	e352006a 	cmp	r2, #106	; 0x6a
    2018:	0a00000c 	beq	0x2050
    201c:	8a000005 	bhi	0x2038
    2020:	e352004c 	cmp	r2, #76	; 0x4c
    2024:	03877008 	orreq	r7, r7, #8
    2028:	0a0000f9 	beq	0x2414
    202c:	e3520068 	cmp	r2, #104	; 0x68
    2030:	1a000008 	bne	0x2058
    2034:	ea0000f6 	b	0x2414
    2038:	e3520074 	cmp	r2, #116	; 0x74
    203c:	0a0000f4 	beq	0x2414
    2040:	e352007a 	cmp	r2, #122	; 0x7a
    2044:	0a0000f2 	beq	0x2414
    2048:	e3520071 	cmp	r2, #113	; 0x71
    204c:	1a000001 	bne	0x2058
    2050:	e3877020 	orr	r7, r7, #32
    2054:	ea0000ee 	b	0x2414
    2058:	e5d12001 	ldrb	r2, [r1, #1]
    205c:	e352006c 	cmp	r2, #108	; 0x6c
    2060:	03877020 	orreq	r7, r7, #32
    2064:	0281b002 	addeq	fp, r1, #2
    2068:	13877010 	orrne	r7, r7, #16
    206c:	ea0000e8 	b	0x2414
    2070:	e2422041 	sub	r2, r2, #65	; 0x41
    2074:	e20aa01f 	and	sl, sl, #31
    2078:	e3520037 	cmp	r2, #55	; 0x37
    207c:	979ff102 	ldrls	pc, [pc, r2, lsl #2]
    2080:	ea00003f 	b	0x2184
    2084:	080022c0 	stmdaeq	r0, {r6, r7, r9, sp}
    2088:	08002184 	stmdaeq	r0, {r2, r7, r8, sp}
    208c:	08002230 	stmdaeq	r0, {r4, r5, r9, sp}
    2090:	08002190 	stmdaeq	r0, {r4, r7, r8, sp}
    2094:	080022c0 	stmdaeq	r0, {r6, r7, r9, sp}
    2098:	080022c0 	stmdaeq	r0, {r6, r7, r9, sp}
    209c:	080022c0 	stmdaeq	r0, {r6, r7, r9, sp}
    20a0:	08002184 	stmdaeq	r0, {r2, r7, r8, sp}
    20a4:	08002184 	stmdaeq	r0, {r2, r7, r8, sp}
    20a8:	08002184 	stmdaeq	r0, {r2, r7, r8, sp}
    20ac:	08002184 	stmdaeq	r0, {r2, r7, r8, sp}
    20b0:	08002184 	stmdaeq	r0, {r2, r7, r8, sp}
    20b4:	08002184 	stmdaeq	r0, {r2, r7, r8, sp}
    20b8:	08002184 	stmdaeq	r0, {r2, r7, r8, sp}
    20bc:	08002190 	stmdaeq	r0, {r4, r7, r8, sp}
    20c0:	08002184 	stmdaeq	r0, {r2, r7, r8, sp}
    20c4:	08002184 	stmdaeq	r0, {r2, r7, r8, sp}
    20c8:	08002184 	stmdaeq	r0, {r2, r7, r8, sp}
    20cc:	08002290 	stmdaeq	r0, {r4, r7, r9, sp}
    20d0:	08002184 	stmdaeq	r0, {r2, r7, r8, sp}
    20d4:	08002190 	stmdaeq	r0, {r4, r7, r8, sp}
    20d8:	08002184 	stmdaeq	r0, {r2, r7, r8, sp}
    20dc:	08002184 	stmdaeq	r0, {r2, r7, r8, sp}
    20e0:	08002164 	stmdaeq	r0, {r2, r5, r6, r8, sp}
    20e4:	08002184 	stmdaeq	r0, {r2, r7, r8, sp}
    20e8:	08002184 	stmdaeq	r0, {r2, r7, r8, sp}
    20ec:	08002184 	stmdaeq	r0, {r2, r7, r8, sp}
    20f0:	08002184 	stmdaeq	r0, {r2, r7, r8, sp}
    20f4:	08002184 	stmdaeq	r0, {r2, r7, r8, sp}
    20f8:	08002184 	stmdaeq	r0, {r2, r7, r8, sp}
    20fc:	08002184 	stmdaeq	r0, {r2, r7, r8, sp}
    2100:	08002184 	stmdaeq	r0, {r2, r7, r8, sp}
    2104:	080022c0 	stmdaeq	r0, {r6, r7, r9, sp}
    2108:	08002184 	stmdaeq	r0, {r2, r7, r8, sp}
    210c:	08002178 	stmdaeq	r0, {r3, r4, r5, r6, r8, sp}
    2110:	08002164 	stmdaeq	r0, {r2, r5, r6, r8, sp}
    2114:	080022c0 	stmdaeq	r0, {r6, r7, r9, sp}
    2118:	080022c0 	stmdaeq	r0, {r6, r7, r9, sp}
    211c:	080022c0 	stmdaeq	r0, {r6, r7, r9, sp}
    2120:	08002184 	stmdaeq	r0, {r2, r7, r8, sp}
    2124:	08002164 	stmdaeq	r0, {r2, r5, r6, r8, sp}
    2128:	08002184 	stmdaeq	r0, {r2, r7, r8, sp}
    212c:	08002184 	stmdaeq	r0, {r2, r7, r8, sp}
    2130:	08002184 	stmdaeq	r0, {r2, r7, r8, sp}
    2134:	08002184 	stmdaeq	r0, {r2, r7, r8, sp}
    2138:	08002290 	stmdaeq	r0, {r4, r7, r9, sp}
    213c:	08002164 	stmdaeq	r0, {r2, r5, r6, r8, sp}
    2140:	08002290 	stmdaeq	r0, {r4, r7, r9, sp}
    2144:	08002184 	stmdaeq	r0, {r2, r7, r8, sp}
    2148:	08002184 	stmdaeq	r0, {r2, r7, r8, sp}
    214c:	08002290 	stmdaeq	r0, {r4, r7, r9, sp}
    2150:	08002184 	stmdaeq	r0, {r2, r7, r8, sp}
    2154:	08002164 	stmdaeq	r0, {r2, r5, r6, r8, sp}
    2158:	08002184 	stmdaeq	r0, {r2, r7, r8, sp}
    215c:	08002184 	stmdaeq	r0, {r2, r7, r8, sp}
    2160:	08002164 	stmdaeq	r0, {r2, r5, r6, r8, sp}
    2164:	e3170010 	tst	r7, #16
    2168:	1a000008 	bne	0x2190
    216c:	e3170020 	tst	r7, #32
    2170:	1a00001f 	bne	0x21f4
    2174:	ea000039 	b	0x2260
    2178:	e3170010 	tst	r7, #16
    217c:	1a00002b 	bne	0x2230
    2180:	ea000036 	b	0x2260
    2184:	e3750001 	cmn	r5, #1
    2188:	0a000006 	beq	0x21a8
    218c:	ea000002 	b	0x219c
    2190:	e3750001 	cmn	r5, #1
    2194:	13a06001 	movne	r6, #1
    2198:	0a00000c 	beq	0x21d0
    219c:	e59d2058 	ldr	r2, [sp, #88]	; 0x58
    21a0:	e7826105 	str	r6, [r2, r5, lsl #2]
    21a4:	ea00009a 	b	0x2414
    21a8:	e2462001 	sub	r2, r6, #1
    21ac:	e3520005 	cmp	r2, #5
    21b0:	979ff102 	ldrls	pc, [pc, r2, lsl #2]
    21b4:	ea00002c 	b	0x226c
    21b8:	080021d0 	stmdaeq	r0, {r4, r6, r7, r8, sp}
    21bc:	08002200 	stmdaeq	r0, {r9, sp}
    21c0:	0800229c 	stmdaeq	r0, {r2, r3, r4, r7, r9, sp}
    21c4:	080022cc 	stmdaeq	r0, {r2, r3, r6, r7, r9, sp}
    21c8:	080022fc 	stmdaeq	r0, {r2, r3, r4, r5, r6, r7, r9, sp}
    21cc:	0800223c 	stmdaeq	r0, {r2, r3, r4, r5, r9, sp}
    21d0:	e5942000 	ldr	r2, [r4]
    21d4:	e2821004 	add	r1, r2, #4
    21d8:	e5922000 	ldr	r2, [r2]
    21dc:	e5841000 	str	r1, [r4]
    21e0:	e3e05000 	mvn	r5, #0
    21e4:	e789218a 	str	r2, [r9, sl, lsl #3]
    21e8:	e3a06001 	mov	r6, #1
    21ec:	e28aa001 	add	sl, sl, #1
    21f0:	ea000087 	b	0x2414
    21f4:	e3750001 	cmn	r5, #1
    21f8:	13a06002 	movne	r6, #2
    21fc:	1affffe6 	bne	0x219c
    2200:	e5942000 	ldr	r2, [r4]
    2204:	e2822007 	add	r2, r2, #7
    2208:	e3c22007 	bic	r2, r2, #7
    220c:	e2821008 	add	r1, r2, #8
    2210:	e5841000 	str	r1, [r4]
    2214:	e8920003 	ldm	r2, {r0, r1}
    2218:	e089218a 	add	r2, r9, sl, lsl #3
    221c:	e8820003 	stm	r2, {r0, r1}
    2220:	e28aa001 	add	sl, sl, #1
    2224:	e3e05000 	mvn	r5, #0
    2228:	e3a06002 	mov	r6, #2
    222c:	ea000078 	b	0x2414
    2230:	e3750001 	cmn	r5, #1
    2234:	13a06006 	movne	r6, #6
    2238:	1affffd7 	bne	0x219c
    223c:	e5942000 	ldr	r2, [r4]
    2240:	e2821004 	add	r1, r2, #4
    2244:	e5922000 	ldr	r2, [r2]
    2248:	e5841000 	str	r1, [r4]
    224c:	e3e05000 	mvn	r5, #0
    2250:	e789218a 	str	r2, [r9, sl, lsl #3]
    2254:	e3a06006 	mov	r6, #6
    2258:	e28aa001 	add	sl, sl, #1
    225c:	ea00006c 	b	0x2414
    2260:	e3750001 	cmn	r5, #1
    2264:	13a06000 	movne	r6, #0
    2268:	1affffcb 	bne	0x219c
    226c:	e5942000 	ldr	r2, [r4]
    2270:	e2821004 	add	r1, r2, #4
    2274:	e5922000 	ldr	r2, [r2]
    2278:	e5841000 	str	r1, [r4]
    227c:	e3e05000 	mvn	r5, #0
    2280:	e789218a 	str	r2, [r9, sl, lsl #3]
    2284:	e3a06000 	mov	r6, #0
    2288:	e28aa001 	add	sl, sl, #1
    228c:	ea000060 	b	0x2414
    2290:	e3750001 	cmn	r5, #1
    2294:	13a06003 	movne	r6, #3
    2298:	1affffbf 	bne	0x219c
    229c:	e5942000 	ldr	r2, [r4]
    22a0:	e2821004 	add	r1, r2, #4
    22a4:	e5841000 	str	r1, [r4]
    22a8:	e5922000 	ldr	r2, [r2]
    22ac:	e3e05000 	mvn	r5, #0
    22b0:	e789218a 	str	r2, [r9, sl, lsl #3]
    22b4:	e3a06003 	mov	r6, #3
    22b8:	e28aa001 	add	sl, sl, #1
    22bc:	ea000054 	b	0x2414
    22c0:	e3750001 	cmn	r5, #1
    22c4:	13a06004 	movne	r6, #4
    22c8:	1affffb3 	bne	0x219c
    22cc:	e5942000 	ldr	r2, [r4]
    22d0:	e2822007 	add	r2, r2, #7
    22d4:	e3c22007 	bic	r2, r2, #7
    22d8:	e2821008 	add	r1, r2, #8
    22dc:	e5841000 	str	r1, [r4]
    22e0:	e8920003 	ldm	r2, {r0, r1}
    22e4:	e089218a 	add	r2, r9, sl, lsl #3
    22e8:	e8820003 	stm	r2, {r0, r1}
    22ec:	e28aa001 	add	sl, sl, #1
    22f0:	e3e05000 	mvn	r5, #0
    22f4:	e3a06004 	mov	r6, #4
    22f8:	ea000045 	b	0x2414
    22fc:	e5942000 	ldr	r2, [r4]
    2300:	e2822007 	add	r2, r2, #7
    2304:	e3c22007 	bic	r2, r2, #7
    2308:	e2821008 	add	r1, r2, #8
    230c:	e5841000 	str	r1, [r4]
    2310:	e8920003 	ldm	r2, {r0, r1}
    2314:	e089218a 	add	r2, r9, sl, lsl #3
    2318:	e8820003 	stm	r2, {r0, r1}
    231c:	ea000027 	b	0x23c0
    2320:	e59d2058 	ldr	r2, [sp, #88]	; 0x58
    2324:	e5922000 	ldr	r2, [r2]
    2328:	e3720001 	cmn	r2, #1
    232c:	1a000005 	bne	0x2348
    2330:	e3a02080 	mov	r2, #128	; 0x80
    2334:	e3a01000 	mov	r1, #0
    2338:	e59d0058 	ldr	r0, [sp, #88]	; 0x58
    233c:	e58d3014 	str	r3, [sp, #20]
    2340:	eb0018a7 	bl	0x85e4
    2344:	e59d3014 	ldr	r3, [sp, #20]
    2348:	e59d2008 	ldr	r2, [sp, #8]
    234c:	e2485001 	sub	r5, r8, #1
    2350:	e1520005 	cmp	r2, r5
    2354:	b1a02005 	movlt	r2, r5
    2358:	ea000010 	b	0x23a0
    235c:	e59d2058 	ldr	r2, [sp, #88]	; 0x58
    2360:	e5922000 	ldr	r2, [r2]
    2364:	e3720001 	cmn	r2, #1
    2368:	1a000005 	bne	0x2384
    236c:	e3a02080 	mov	r2, #128	; 0x80
    2370:	e3a01000 	mov	r1, #0
    2374:	e59d0058 	ldr	r0, [sp, #88]	; 0x58
    2378:	e58d3014 	str	r3, [sp, #20]
    237c:	eb001898 	bl	0x85e4
    2380:	e59d3014 	ldr	r3, [sp, #20]
    2384:	e3a01000 	mov	r1, #0
    2388:	e59d2058 	ldr	r2, [sp, #88]	; 0x58
    238c:	e2488001 	sub	r8, r8, #1
    2390:	e7821108 	str	r1, [r2, r8, lsl #2]
    2394:	e59d2008 	ldr	r2, [sp, #8]
    2398:	e1520008 	cmp	r2, r8
    239c:	b1a02008 	movlt	r2, r8
    23a0:	e58d2008 	str	r2, [sp, #8]
    23a4:	ea00001a 	b	0x2414
    23a8:	e1a0b001 	mov	fp, r1
    23ac:	e5942000 	ldr	r2, [r4]
    23b0:	e2821004 	add	r1, r2, #4
    23b4:	e5922000 	ldr	r2, [r2]
    23b8:	e5841000 	str	r1, [r4]
    23bc:	e789218a 	str	r2, [r9, sl, lsl #3]
    23c0:	e28aa001 	add	sl, sl, #1
    23c4:	ea000012 	b	0x2414
    23c8:	e1a0100b 	mov	r1, fp
    23cc:	e3a0000a 	mov	r0, #10
    23d0:	e2428030 	sub	r8, r2, #48	; 0x30
    23d4:	e1a0b001 	mov	fp, r1
    23d8:	e5db2000 	ldrb	r2, [fp]
    23dc:	e3520000 	cmp	r2, #0
    23e0:	e2811001 	add	r1, r1, #1
    23e4:	0a00000a 	beq	0x2414
    23e8:	e2422030 	sub	r2, r2, #48	; 0x30
    23ec:	e3520009 	cmp	r2, #9
    23f0:	8a000007 	bhi	0x2414
    23f4:	e0282890 	mla	r8, r0, r8, r2
    23f8:	eafffff5 	b	0x23d4
    23fc:	e1a0b002 	mov	fp, r2
    2400:	e5db1000 	ldrb	r1, [fp]
    2404:	e2411030 	sub	r1, r1, #48	; 0x30
    2408:	e3510009 	cmp	r1, #9
    240c:	e2822001 	add	r2, r2, #1
    2410:	9afffff9 	bls	0x23fc
    2414:	e353000b 	cmp	r3, #11
    2418:	0afffec0 	beq	0x1f20
    241c:	e1a0100b 	mov	r1, fp
    2420:	eafffee2 	b	0x1fb0
    2424:	e5db3000 	ldrb	r3, [fp]
    2428:	e59d100c 	ldr	r1, [sp, #12]
    242c:	e3530000 	cmp	r3, #0
    2430:	e59d2008 	ldr	r2, [sp, #8]
    2434:	11a02001 	movne	r2, r1
    2438:	e58d2008 	str	r2, [sp, #8]
    243c:	e1a0200a 	mov	r2, sl
    2440:	e59d0058 	ldr	r0, [sp, #88]	; 0x58
    2444:	e59d3008 	ldr	r3, [sp, #8]
    2448:	e1520003 	cmp	r2, r3
    244c:	ca000021 	bgt	0x24d8
    2450:	e7901102 	ldr	r1, [r0, r2, lsl #2]
    2454:	e2411001 	sub	r1, r1, #1
    2458:	e5943000 	ldr	r3, [r4]
    245c:	e3510005 	cmp	r1, #5
    2460:	979ff101 	ldrls	pc, [pc, r1, lsl #2]
    2464:	ea000015 	b	0x24c0
    2468:	080024c0 	stmdaeq	r0, {r6, r7, sl, sp}
    246c:	08002480 	stmdaeq	r0, {r7, sl, sp}
    2470:	080024c0 	stmdaeq	r0, {r6, r7, sl, sp}
    2474:	080024a0 	stmdaeq	r0, {r5, r7, sl, sp}
    2478:	080024a0 	stmdaeq	r0, {r5, r7, sl, sp}
    247c:	080024c0 	stmdaeq	r0, {r6, r7, sl, sp}
    2480:	e2833007 	add	r3, r3, #7
    2484:	e3c33007 	bic	r3, r3, #7
    2488:	e89300c0 	ldm	r3, {r6, r7}
    248c:	e2831008 	add	r1, r3, #8
    2490:	e0893182 	add	r3, r9, r2, lsl #3
    2494:	e5841000 	str	r1, [r4]
    2498:	e88300c0 	stm	r3, {r6, r7}
    249c:	ea00000b 	b	0x24d0
    24a0:	e2833007 	add	r3, r3, #7
    24a4:	e3c33007 	bic	r3, r3, #7
    24a8:	e2831008 	add	r1, r3, #8
    24ac:	e5841000 	str	r1, [r4]
    24b0:	e89300c0 	ldm	r3, {r6, r7}
    24b4:	e0893182 	add	r3, r9, r2, lsl #3
    24b8:	e88300c0 	stm	r3, {r6, r7}
    24bc:	ea000003 	b	0x24d0
    24c0:	e2831004 	add	r1, r3, #4
    24c4:	e5841000 	str	r1, [r4]
    24c8:	e5933000 	ldr	r3, [r3]
    24cc:	e7893182 	str	r3, [r9, r2, lsl #3]
    24d0:	e2822001 	add	r2, r2, #1
    24d4:	eaffffda 	b	0x2444
    24d8:	e59d3050 	ldr	r3, [sp, #80]	; 0x50
    24dc:	e5832000 	str	r2, [r3]
    24e0:	e59d305c 	ldr	r3, [sp, #92]	; 0x5c
    24e4:	e583b000 	str	fp, [r3]
    24e8:	e59d300c 	ldr	r3, [sp, #12]
    24ec:	e0890183 	add	r0, r9, r3, lsl #3
    24f0:	e28dd02c 	add	sp, sp, #44	; 0x2c
    24f4:	e8bd4ff0 	pop	{r4, r5, r6, r7, r8, r9, sl, fp, lr}
    24f8:	e12fff1e 	bx	lr
    24fc:	030001ec 	tsteq	r0, #236, 2	; 0x3b
    2500:	0800a250 	stmdaeq	r0, {r4, r6, r9, sp, pc}
    2504:	0800a1e4 	stmdaeq	r0, {r2, r5, r6, r7, r8, sp, pc}
    2508:	0800a350 	stmdaeq	r0, {r4, r6, r8, r9, sp, pc}
    250c:	e92d4ff0 	push	{r4, r5, r6, r7, r8, r9, sl, fp, lr}
    2510:	e24ddfbb 	sub	sp, sp, #748	; 0x2ec
    2514:	e58d1020 	str	r1, [sp, #32]
    2518:	e58d201c 	str	r2, [sp, #28]
    251c:	e58d307c 	str	r3, [sp, #124]	; 0x7c
    2520:	e1a0b000 	mov	fp, r0
    2524:	eb001532 	bl	0x79f4
    2528:	e5903000 	ldr	r3, [r0]
    252c:	e1a00003 	mov	r0, r3
    2530:	e58d3064 	str	r3, [sp, #100]	; 0x64
    2534:	eb001b08 	bl	0x915c
    2538:	e3a02008 	mov	r2, #8
    253c:	e58d0048 	str	r0, [sp, #72]	; 0x48
    2540:	e3a01000 	mov	r1, #0
    2544:	e28d00a8 	add	r0, sp, #168	; 0xa8
    2548:	eb001825 	bl	0x85e4
    254c:	e59d3020 	ldr	r3, [sp, #32]
    2550:	e1d330bc 	ldrh	r3, [r3, #12]
    2554:	e3130080 	tst	r3, #128	; 0x80
    2558:	0a000011 	beq	0x25a4
    255c:	e59d3020 	ldr	r3, [sp, #32]
    2560:	e5933010 	ldr	r3, [r3, #16]
    2564:	e3530000 	cmp	r3, #0
    2568:	1a00000d 	bne	0x25a4
    256c:	e3a01040 	mov	r1, #64	; 0x40
    2570:	e1a0000b 	mov	r0, fp
    2574:	eb001532 	bl	0x7a44
    2578:	e59d3020 	ldr	r3, [sp, #32]
    257c:	e3500000 	cmp	r0, #0
    2580:	e5830000 	str	r0, [r3]
    2584:	e5830010 	str	r0, [r3, #16]
    2588:	03a0300c 	moveq	r3, #12
    258c:	058b3000 	streq	r3, [fp]
    2590:	03e03000 	mvneq	r3, #0
    2594:	0a000dbc 	beq	0x5c8c
    2598:	e3a03040 	mov	r3, #64	; 0x40
    259c:	e59d2020 	ldr	r2, [sp, #32]
    25a0:	e5823014 	str	r3, [r2, #20]
    25a4:	e3a03000 	mov	r3, #0
    25a8:	e3e01000 	mvn	r1, #0
    25ac:	e28d20c4 	add	r2, sp, #196	; 0xc4
    25b0:	e1a09002 	mov	r9, r2
    25b4:	e1a08003 	mov	r8, r3
    25b8:	e58d20b8 	str	r2, [sp, #184]	; 0xb8
    25bc:	e58d30c0 	str	r3, [sp, #192]	; 0xc0
    25c0:	e58d30bc 	str	r3, [sp, #188]	; 0xbc
    25c4:	e58d3090 	str	r3, [sp, #144]	; 0x90
    25c8:	e58d1168 	str	r1, [sp, #360]	; 0x168
    25cc:	e58d308c 	str	r3, [sp, #140]	; 0x8c
    25d0:	e58d3028 	str	r3, [sp, #40]	; 0x28
    25d4:	e58d3040 	str	r3, [sp, #64]	; 0x40
    25d8:	e58d3038 	str	r3, [sp, #56]	; 0x38
    25dc:	e58d3070 	str	r3, [sp, #112]	; 0x70
    25e0:	e58d306c 	str	r3, [sp, #108]	; 0x6c
    25e4:	e58d3050 	str	r3, [sp, #80]	; 0x50
    25e8:	e58d3058 	str	r3, [sp, #88]	; 0x58
    25ec:	e58d3068 	str	r3, [sp, #104]	; 0x68
    25f0:	e58d304c 	str	r3, [sp, #76]	; 0x4c
    25f4:	e58d305c 	str	r3, [sp, #92]	; 0x5c
    25f8:	e58d3060 	str	r3, [sp, #96]	; 0x60
    25fc:	e59d601c 	ldr	r6, [sp, #28]
    2600:	e59f5e64 	ldr	r5, [pc, #3684]	; 0x346c
    2604:	e28d40a8 	add	r4, sp, #168	; 0xa8
    2608:	eb001e1f 	bl	0x9e8c
    260c:	e5903034 	ldr	r3, [r0, #52]	; 0x34
    2610:	e3530000 	cmp	r3, #0
    2614:	01a03005 	moveq	r3, r5
    2618:	e59370e4 	ldr	r7, [r3, #228]	; 0xe4
    261c:	eb0014fe 	bl	0x7a1c
    2620:	e58d4000 	str	r4, [sp]
    2624:	e1a03000 	mov	r3, r0
    2628:	e1a02006 	mov	r2, r6
    262c:	e28d1098 	add	r1, sp, #152	; 0x98
    2630:	e1a0000b 	mov	r0, fp
    2634:	e1a0e00f 	mov	lr, pc
    2638:	e12fff17 	bx	r7
    263c:	e3500000 	cmp	r0, #0
    2640:	0a00000b 	beq	0x2674
    2644:	aa000005 	bge	0x2660
    2648:	e3a02008 	mov	r2, #8
    264c:	e3a01000 	mov	r1, #0
    2650:	e1a00004 	mov	r0, r4
    2654:	eb0017e2 	bl	0x85e4
    2658:	e3a00001 	mov	r0, #1
    265c:	ea000002 	b	0x266c
    2660:	e59d3098 	ldr	r3, [sp, #152]	; 0x98
    2664:	e3530025 	cmp	r3, #37	; 0x25
    2668:	0a000001 	beq	0x2674
    266c:	e0866000 	add	r6, r6, r0
    2670:	eaffffe4 	b	0x2608
    2674:	e59d301c 	ldr	r3, [sp, #28]
    2678:	e0564003 	subs	r4, r6, r3
    267c:	e1a07000 	mov	r7, r0
    2680:	0a000013 	beq	0x26d4
    2684:	e8890018 	stm	r9, {r3, r4}
    2688:	e59d30c0 	ldr	r3, [sp, #192]	; 0xc0
    268c:	e0833004 	add	r3, r3, r4
    2690:	e58d30c0 	str	r3, [sp, #192]	; 0xc0
    2694:	e59d30bc 	ldr	r3, [sp, #188]	; 0xbc
    2698:	e2833001 	add	r3, r3, #1
    269c:	e3530007 	cmp	r3, #7
    26a0:	e58d30bc 	str	r3, [sp, #188]	; 0xbc
    26a4:	d2899008 	addle	r9, r9, #8
    26a8:	da000006 	ble	0x26c8
    26ac:	e28d20b8 	add	r2, sp, #184	; 0xb8
    26b0:	e59d1020 	ldr	r1, [sp, #32]
    26b4:	e1a0000b 	mov	r0, fp
    26b8:	eb001af9 	bl	0x92a4
    26bc:	e3500000 	cmp	r0, #0
    26c0:	1a000d6c 	bne	0x5c78
    26c4:	e28d90c4 	add	r9, sp, #196	; 0xc4
    26c8:	e59d304c 	ldr	r3, [sp, #76]	; 0x4c
    26cc:	e0833004 	add	r3, r3, r4
    26d0:	e58d304c 	str	r3, [sp, #76]	; 0x4c
    26d4:	e3570000 	cmp	r7, #0
    26d8:	0a000d57 	beq	0x5c3c
    26dc:	e3a03000 	mov	r3, #0
    26e0:	e3e01000 	mvn	r1, #0
    26e4:	e58d9030 	str	r9, [sp, #48]	; 0x30
    26e8:	e1a05008 	mov	r5, r8
    26ec:	e1a07003 	mov	r7, r3
    26f0:	e1a0a003 	mov	sl, r3
    26f4:	e1a09003 	mov	r9, r3
    26f8:	e5cd3087 	strb	r3, [sp, #135]	; 0x87
    26fc:	e58d1018 	str	r1, [sp, #24]
    2700:	e58d303c 	str	r3, [sp, #60]	; 0x3c
    2704:	e2862001 	add	r2, r6, #1
    2708:	e4d21001 	ldrb	r1, [r2], #1
    270c:	e59d0018 	ldr	r0, [sp, #24]
    2710:	e2413020 	sub	r3, r1, #32
    2714:	e353005a 	cmp	r3, #90	; 0x5a
    2718:	979ff103 	ldrls	pc, [pc, r3, lsl #2]
    271c:	ea0009a4 	b	0x4db4
    2720:	080028f4 	stmdaeq	r0, {r2, r4, r5, r6, r7, fp, sp}
    2724:	08004db4 	stmdaeq	r0, {r2, r4, r5, r7, r8, sl, fp, lr}
    2728:	08004db4 	stmdaeq	r0, {r2, r4, r5, r7, r8, sl, fp, lr}
    272c:	0800290c 	stmdaeq	r0, {r2, r3, r8, fp, sp}
    2730:	08004db4 	stmdaeq	r0, {r2, r4, r5, r7, r8, sl, fp, lr}
    2734:	08004db4 	stmdaeq	r0, {r2, r4, r5, r7, r8, sl, fp, lr}
    2738:	08004db4 	stmdaeq	r0, {r2, r4, r5, r7, r8, sl, fp, lr}
    273c:	08002894 	stmdaeq	r0, {r2, r4, r7, fp, sp}
    2740:	08004db4 	stmdaeq	r0, {r2, r4, r5, r7, r8, sl, fp, lr}
    2744:	08004db4 	stmdaeq	r0, {r2, r4, r5, r7, r8, sl, fp, lr}
    2748:	08002918 	stmdaeq	r0, {r3, r4, r8, fp, sp}
    274c:	08002a38 	stmdaeq	r0, {r3, r4, r5, r9, fp, sp}
    2750:	08004db4 	stmdaeq	r0, {r2, r4, r5, r7, r8, sl, fp, lr}
    2754:	08002a2c 	stmdaeq	r0, {r2, r3, r5, r9, fp, sp}
    2758:	08002a48 	stmdaeq	r0, {r3, r6, r9, fp, sp}
    275c:	08004db4 	stmdaeq	r0, {r2, r4, r5, r7, r8, sl, fp, lr}
    2760:	08002b98 	stmdaeq	r0, {r3, r4, r7, r8, r9, fp, sp}
    2764:	08002ba4 	stmdaeq	r0, {r2, r5, r7, r8, r9, fp, sp}
    2768:	08002ba4 	stmdaeq	r0, {r2, r5, r7, r8, r9, fp, sp}
    276c:	08002ba4 	stmdaeq	r0, {r2, r5, r7, r8, r9, fp, sp}
    2770:	08002ba4 	stmdaeq	r0, {r2, r5, r7, r8, r9, fp, sp}
    2774:	08002ba4 	stmdaeq	r0, {r2, r5, r7, r8, r9, fp, sp}
    2778:	08002ba4 	stmdaeq	r0, {r2, r5, r7, r8, r9, fp, sp}
    277c:	08002ba4 	stmdaeq	r0, {r2, r5, r7, r8, r9, fp, sp}
    2780:	08002ba4 	stmdaeq	r0, {r2, r5, r7, r8, r9, fp, sp}
    2784:	08002ba4 	stmdaeq	r0, {r2, r5, r7, r8, r9, fp, sp}
    2788:	08004db4 	stmdaeq	r0, {r2, r4, r5, r7, r8, sl, fp, lr}
    278c:	08004db4 	stmdaeq	r0, {r2, r4, r5, r7, r8, sl, fp, lr}
    2790:	08004db4 	stmdaeq	r0, {r2, r4, r5, r7, r8, sl, fp, lr}
    2794:	08004db4 	stmdaeq	r0, {r2, r4, r5, r7, r8, sl, fp, lr}
    2798:	08004db4 	stmdaeq	r0, {r2, r4, r5, r7, r8, sl, fp, lr}
    279c:	08004db4 	stmdaeq	r0, {r2, r4, r5, r7, r8, sl, fp, lr}
    27a0:	08004db4 	stmdaeq	r0, {r2, r4, r5, r7, r8, sl, fp, lr}
    27a4:	08003228 	stmdaeq	r0, {r3, r5, r9, ip, sp}
    27a8:	08004db4 	stmdaeq	r0, {r2, r4, r5, r7, r8, sl, fp, lr}
    27ac:	08002c40 	stmdaeq	r0, {r6, sl, fp, sp}
    27b0:	08002e08 	stmdaeq	r0, {r3, r9, sl, fp, sp}
    27b4:	08003228 	stmdaeq	r0, {r3, r5, r9, ip, sp}
    27b8:	08003228 	stmdaeq	r0, {r3, r5, r9, ip, sp}
    27bc:	08003228 	stmdaeq	r0, {r3, r5, r9, ip, sp}
    27c0:	08004db4 	stmdaeq	r0, {r2, r4, r5, r7, r8, sl, fp, lr}
    27c4:	08004db4 	stmdaeq	r0, {r2, r4, r5, r7, r8, sl, fp, lr}
    27c8:	08004db4 	stmdaeq	r0, {r2, r4, r5, r7, r8, sl, fp, lr}
    27cc:	08004db4 	stmdaeq	r0, {r2, r4, r5, r7, r8, sl, fp, lr}
    27d0:	08002bf0 	stmdaeq	r0, {r4, r5, r6, r7, r8, r9, fp, sp}
    27d4:	08004db4 	stmdaeq	r0, {r2, r4, r5, r7, r8, sl, fp, lr}
    27d8:	08004db4 	stmdaeq	r0, {r2, r4, r5, r7, r8, sl, fp, lr}
    27dc:	08003d34 	stmdaeq	r0, {r2, r4, r5, r8, sl, fp, ip, sp}
    27e0:	08004db4 	stmdaeq	r0, {r2, r4, r5, r7, r8, sl, fp, lr}
    27e4:	08004db4 	stmdaeq	r0, {r2, r4, r5, r7, r8, sl, fp, lr}
    27e8:	08004db4 	stmdaeq	r0, {r2, r4, r5, r7, r8, sl, fp, lr}
    27ec:	08004180 	stmdaeq	r0, {r7, r8, lr}
    27f0:	08004db4 	stmdaeq	r0, {r2, r4, r5, r7, r8, sl, fp, lr}
    27f4:	08004478 	stmdaeq	r0, {r3, r4, r5, r6, sl, lr}
    27f8:	08004db4 	stmdaeq	r0, {r2, r4, r5, r7, r8, sl, fp, lr}
    27fc:	08004db4 	stmdaeq	r0, {r2, r4, r5, r7, r8, sl, fp, lr}
    2800:	080047e0 	stmdaeq	r0, {r5, r6, r7, r8, r9, sl, lr}
    2804:	08004db4 	stmdaeq	r0, {r2, r4, r5, r7, r8, sl, fp, lr}
    2808:	08004db4 	stmdaeq	r0, {r2, r4, r5, r7, r8, sl, fp, lr}
    280c:	08004db4 	stmdaeq	r0, {r2, r4, r5, r7, r8, sl, fp, lr}
    2810:	08004db4 	stmdaeq	r0, {r2, r4, r5, r7, r8, sl, fp, lr}
    2814:	08004db4 	stmdaeq	r0, {r2, r4, r5, r7, r8, sl, fp, lr}
    2818:	08004db4 	stmdaeq	r0, {r2, r4, r5, r7, r8, sl, fp, lr}
    281c:	08004db4 	stmdaeq	r0, {r2, r4, r5, r7, r8, sl, fp, lr}
    2820:	08004db4 	stmdaeq	r0, {r2, r4, r5, r7, r8, sl, fp, lr}
    2824:	08003228 	stmdaeq	r0, {r3, r5, r9, ip, sp}
    2828:	08004db4 	stmdaeq	r0, {r2, r4, r5, r7, r8, sl, fp, lr}
    282c:	08002c40 	stmdaeq	r0, {r6, sl, fp, sp}
    2830:	08002e24 	stmdaeq	r0, {r2, r5, r9, sl, fp, sp}
    2834:	08003228 	stmdaeq	r0, {r3, r5, r9, ip, sp}
    2838:	08003228 	stmdaeq	r0, {r3, r5, r9, ip, sp}
    283c:	08003228 	stmdaeq	r0, {r3, r5, r9, ip, sp}
    2840:	08002bfc 	stmdaeq	r0, {r2, r3, r4, r5, r6, r7, r8, r9, fp, sp}
    2844:	08002e24 	stmdaeq	r0, {r2, r5, r9, sl, fp, sp}
    2848:	08002c34 	stmdaeq	r0, {r2, r4, r5, sl, fp, sp}
    284c:	08004db4 	stmdaeq	r0, {r2, r4, r5, r7, r8, sl, fp, lr}
    2850:	08002c18 	stmdaeq	r0, {r3, r4, sl, fp, sp}
    2854:	08004db4 	stmdaeq	r0, {r2, r4, r5, r7, r8, sl, fp, lr}
    2858:	08003a34 	stmdaeq	r0, {r2, r4, r5, r9, fp, ip, sp}
    285c:	08003d50 	stmdaeq	r0, {r4, r6, r8, sl, fp, ip, sp}
    2860:	080040a0 	stmdaeq	r0, {r5, r7, lr}
    2864:	08002c34 	stmdaeq	r0, {r2, r4, r5, sl, fp, sp}
    2868:	08004db4 	stmdaeq	r0, {r2, r4, r5, r7, r8, sl, fp, lr}
    286c:	08004180 	stmdaeq	r0, {r7, r8, lr}
    2870:	0800288c 	stmdaeq	r0, {r2, r3, r7, fp, sp}
    2874:	08004494 	stmdaeq	r0, {r2, r4, r7, sl, lr}
    2878:	08004db4 	stmdaeq	r0, {r2, r4, r5, r7, r8, sl, fp, lr}
    287c:	08004db4 	stmdaeq	r0, {r2, r4, r5, r7, r8, sl, fp, lr}
    2880:	080047fc 	stmdaeq	r0, {r2, r3, r4, r5, r6, r7, r8, r9, sl, lr}
    2884:	08004db4 	stmdaeq	r0, {r2, r4, r5, r7, r8, sl, fp, lr}
    2888:	0800288c 	stmdaeq	r0, {r2, r3, r7, fp, sp}
    288c:	e58d0018 	str	r0, [sp, #24]
    2890:	eaffff9c 	b	0x2708
    2894:	e58d0018 	str	r0, [sp, #24]
    2898:	e1a0000b 	mov	r0, fp
    289c:	e58d2024 	str	r2, [sp, #36]	; 0x24
    28a0:	eb001453 	bl	0x79f4
    28a4:	e5903004 	ldr	r3, [r0, #4]
    28a8:	e1a00003 	mov	r0, r3
    28ac:	e58d3068 	str	r3, [sp, #104]	; 0x68
    28b0:	eb001a29 	bl	0x915c
    28b4:	e58d0058 	str	r0, [sp, #88]	; 0x58
    28b8:	e1a0000b 	mov	r0, fp
    28bc:	eb00144c 	bl	0x79f4
    28c0:	e5903008 	ldr	r3, [r0, #8]
    28c4:	e58d3050 	str	r3, [sp, #80]	; 0x50
    28c8:	e59d2050 	ldr	r2, [sp, #80]	; 0x50
    28cc:	e59d3058 	ldr	r3, [sp, #88]	; 0x58
    28d0:	e3530000 	cmp	r3, #0
    28d4:	13520000 	cmpne	r2, #0
    28d8:	e59d2024 	ldr	r2, [sp, #36]	; 0x24
    28dc:	0affff89 	beq	0x2708
    28e0:	e59d3050 	ldr	r3, [sp, #80]	; 0x50
    28e4:	e5d33000 	ldrb	r3, [r3]
    28e8:	e3530000 	cmp	r3, #0
    28ec:	138aab01 	orrne	sl, sl, #1024	; 0x400
    28f0:	eaffff84 	b	0x2708
    28f4:	e5dd3087 	ldrb	r3, [sp, #135]	; 0x87
    28f8:	e3530000 	cmp	r3, #0
    28fc:	e58d0018 	str	r0, [sp, #24]
    2900:	03a03020 	moveq	r3, #32
    2904:	0a00004d 	beq	0x2a40
    2908:	eaffff7e 	b	0x2708
    290c:	e58d0018 	str	r0, [sp, #24]
    2910:	e38aa001 	orr	sl, sl, #1
    2914:	eaffff7b 	b	0x2708
    2918:	e5d23000 	ldrb	r3, [r2]
    291c:	e2431030 	sub	r1, r3, #48	; 0x30
    2920:	e3510009 	cmp	r1, #9
    2924:	e58d0018 	str	r0, [sp, #24]
    2928:	8a000026 	bhi	0x29c8
    292c:	e3a01000 	mov	r1, #0
    2930:	e2824001 	add	r4, r2, #1
    2934:	e3a0000a 	mov	r0, #10
    2938:	e2433030 	sub	r3, r3, #48	; 0x30
    293c:	e0203091 	mla	r0, r1, r0, r3
    2940:	e4d43001 	ldrb	r3, [r4], #1
    2944:	e1a01000 	mov	r1, r0
    2948:	e2430030 	sub	r0, r3, #48	; 0x30
    294c:	e3500009 	cmp	r0, #9
    2950:	9afffff7 	bls	0x2934
    2954:	e3530024 	cmp	r3, #36	; 0x24
    2958:	0a000001 	beq	0x2964
    295c:	e3a07000 	mov	r7, #0
    2960:	eaffff68 	b	0x2708
    2964:	e3510020 	cmp	r1, #32
    2968:	ca000cc2 	bgt	0x5c78
    296c:	e59d308c 	ldr	r3, [sp, #140]	; 0x8c
    2970:	e2411001 	sub	r1, r1, #1
    2974:	e1530001 	cmp	r3, r1
    2978:	c28d3fba 	addgt	r3, sp, #744	; 0x2e8
    297c:	c0831181 	addgt	r1, r3, r1, lsl #3
    2980:	c5119100 	ldrgt	r9, [r1, #-256]	; 0xffffff00
    2984:	ca00000c 	bgt	0x29bc
    2988:	e28d3090 	add	r3, sp, #144	; 0x90
    298c:	e58d300c 	str	r3, [sp, #12]
    2990:	e28d3f5a 	add	r3, sp, #360	; 0x168
    2994:	e58d3008 	str	r3, [sp, #8]
    2998:	e28d3f7a 	add	r3, sp, #488	; 0x1e8
    299c:	e58d3004 	str	r3, [sp, #4]
    29a0:	e28d308c 	add	r3, sp, #140	; 0x8c
    29a4:	e58d3000 	str	r3, [sp]
    29a8:	e1a02006 	mov	r2, r6
    29ac:	e28d307c 	add	r3, sp, #124	; 0x7c
    29b0:	e1a0000b 	mov	r0, fp
    29b4:	ebfffd46 	bl	0x1ed4
    29b8:	e5909000 	ldr	r9, [r0]
    29bc:	e1a02004 	mov	r2, r4
    29c0:	e1a01008 	mov	r1, r8
    29c4:	ea000012 	b	0x2a14
    29c8:	e59d308c 	ldr	r3, [sp, #140]	; 0x8c
    29cc:	e1530008 	cmp	r3, r8
    29d0:	c28d3fba 	addgt	r3, sp, #744	; 0x2e8
    29d4:	c0833185 	addgt	r3, r3, r5, lsl #3
    29d8:	e2881001 	add	r1, r8, #1
    29dc:	c5139100 	ldrgt	r9, [r3, #-256]	; 0xffffff00
    29e0:	ca00000b 	bgt	0x2a14
    29e4:	e353001f 	cmp	r3, #31
    29e8:	d283e001 	addle	lr, r3, #1
    29ec:	e59d007c 	ldr	r0, [sp, #124]	; 0x7c
    29f0:	d58de08c 	strle	lr, [sp, #140]	; 0x8c
    29f4:	e280c004 	add	ip, r0, #4
    29f8:	d5909000 	ldrle	r9, [r0]
    29fc:	d28d0fba 	addle	r0, sp, #744	; 0x2e8
    2a00:	d0803183 	addle	r3, r0, r3, lsl #3
    2a04:	d58dc07c 	strle	ip, [sp, #124]	; 0x7c
    2a08:	d5039100 	strle	r9, [r3, #-256]	; 0xffffff00
    2a0c:	c58dc07c 	strgt	ip, [sp, #124]	; 0x7c
    2a10:	c5909000 	ldrgt	r9, [r0]
    2a14:	e3590000 	cmp	r9, #0
    2a18:	b2699000 	rsblt	r9, r9, #0
    2a1c:	b1a08001 	movlt	r8, r1
    2a20:	ba000002 	blt	0x2a30
    2a24:	e1a08001 	mov	r8, r1
    2a28:	eaffff36 	b	0x2708
    2a2c:	e58d0018 	str	r0, [sp, #24]
    2a30:	e38aa004 	orr	sl, sl, #4
    2a34:	eaffff33 	b	0x2708
    2a38:	e3a0302b 	mov	r3, #43	; 0x2b
    2a3c:	e58d0018 	str	r0, [sp, #24]
    2a40:	e5cd3087 	strb	r3, [sp, #135]	; 0x87
    2a44:	eaffff2f 	b	0x2708
    2a48:	e1a03002 	mov	r3, r2
    2a4c:	e4d31001 	ldrb	r1, [r3], #1
    2a50:	e351002a 	cmp	r1, #42	; 0x2a
    2a54:	1a000042 	bne	0x2b64
    2a58:	e58d0018 	str	r0, [sp, #24]
    2a5c:	e5d20001 	ldrb	r0, [r2, #1]
    2a60:	e2401030 	sub	r1, r0, #48	; 0x30
    2a64:	e3510009 	cmp	r1, #9
    2a68:	8a000025 	bhi	0x2b04
    2a6c:	e3a01000 	mov	r1, #0
    2a70:	e2824002 	add	r4, r2, #2
    2a74:	e3a0200a 	mov	r2, #10
    2a78:	e2400030 	sub	r0, r0, #48	; 0x30
    2a7c:	e0220291 	mla	r2, r1, r2, r0
    2a80:	e4d40001 	ldrb	r0, [r4], #1
    2a84:	e1a01002 	mov	r1, r2
    2a88:	e2402030 	sub	r2, r0, #48	; 0x30
    2a8c:	e3520009 	cmp	r2, #9
    2a90:	9afffff7 	bls	0x2a74
    2a94:	e3500024 	cmp	r0, #36	; 0x24
    2a98:	11a02003 	movne	r2, r3
    2a9c:	1affffae 	bne	0x295c
    2aa0:	e3510020 	cmp	r1, #32
    2aa4:	ca000c73 	bgt	0x5c78
    2aa8:	e59d308c 	ldr	r3, [sp, #140]	; 0x8c
    2aac:	e2411001 	sub	r1, r1, #1
    2ab0:	e1530001 	cmp	r3, r1
    2ab4:	c28d3fba 	addgt	r3, sp, #744	; 0x2e8
    2ab8:	c0831181 	addgt	r1, r3, r1, lsl #3
    2abc:	c5112100 	ldrgt	r2, [r1, #-256]	; 0xffffff00
    2ac0:	ca00000c 	bgt	0x2af8
    2ac4:	e28d3090 	add	r3, sp, #144	; 0x90
    2ac8:	e58d300c 	str	r3, [sp, #12]
    2acc:	e28d3f5a 	add	r3, sp, #360	; 0x168
    2ad0:	e58d3008 	str	r3, [sp, #8]
    2ad4:	e28d3f7a 	add	r3, sp, #488	; 0x1e8
    2ad8:	e58d3004 	str	r3, [sp, #4]
    2adc:	e28d308c 	add	r3, sp, #140	; 0x8c
    2ae0:	e58d3000 	str	r3, [sp]
    2ae4:	e1a02006 	mov	r2, r6
    2ae8:	e28d307c 	add	r3, sp, #124	; 0x7c
    2aec:	e1a0000b 	mov	r0, fp
    2af0:	ebfffcf7 	bl	0x1ed4
    2af4:	e5902000 	ldr	r2, [r0]
    2af8:	e1a03004 	mov	r3, r4
    2afc:	e1a00008 	mov	r0, r8
    2b00:	ea000012 	b	0x2b50
    2b04:	e59d108c 	ldr	r1, [sp, #140]	; 0x8c
    2b08:	e1510008 	cmp	r1, r8
    2b0c:	c28d2fba 	addgt	r2, sp, #744	; 0x2e8
    2b10:	c0822185 	addgt	r2, r2, r5, lsl #3
    2b14:	e2880001 	add	r0, r8, #1
    2b18:	c5122100 	ldrgt	r2, [r2, #-256]	; 0xffffff00
    2b1c:	ca00000b 	bgt	0x2b50
    2b20:	e351001f 	cmp	r1, #31
    2b24:	e59d207c 	ldr	r2, [sp, #124]	; 0x7c
    2b28:	d281e001 	addle	lr, r1, #1
    2b2c:	d58de08c 	strle	lr, [sp, #140]	; 0x8c
    2b30:	e282c004 	add	ip, r2, #4
    2b34:	d58dc07c 	strle	ip, [sp, #124]	; 0x7c
    2b38:	d5922000 	ldrle	r2, [r2]
    2b3c:	d28dcfba 	addle	ip, sp, #744	; 0x2e8
    2b40:	d08c1181 	addle	r1, ip, r1, lsl #3
    2b44:	d5012100 	strle	r2, [r1, #-256]	; 0xffffff00
    2b48:	c58dc07c 	strgt	ip, [sp, #124]	; 0x7c
    2b4c:	c5922000 	ldrgt	r2, [r2]
    2b50:	e1822fc2 	orr	r2, r2, r2, asr #31
    2b54:	e58d2018 	str	r2, [sp, #24]
    2b58:	e1a08000 	mov	r8, r0
    2b5c:	e1a02003 	mov	r2, r3
    2b60:	eafffee8 	b	0x2708
    2b64:	e3a00000 	mov	r0, #0
    2b68:	e2412030 	sub	r2, r1, #48	; 0x30
    2b6c:	e3520009 	cmp	r2, #9
    2b70:	8a000004 	bhi	0x2b88
    2b74:	e3a0100a 	mov	r1, #10
    2b78:	e0212190 	mla	r1, r0, r1, r2
    2b7c:	e1a00001 	mov	r0, r1
    2b80:	e4d31001 	ldrb	r1, [r3], #1
    2b84:	eafffff7 	b	0x2b68
    2b88:	e1a02009 	mov	r2, r9
    2b8c:	e1a09002 	mov	r9, r2
    2b90:	e1a02003 	mov	r2, r3
    2b94:	eafffedd 	b	0x2710
    2b98:	e58d0018 	str	r0, [sp, #24]
    2b9c:	e38aa080 	orr	sl, sl, #128	; 0x80
    2ba0:	eafffed8 	b	0x2708
    2ba4:	e1a03002 	mov	r3, r2
    2ba8:	e3a02000 	mov	r2, #0
    2bac:	e3a0c00a 	mov	ip, #10
    2bb0:	e2411030 	sub	r1, r1, #48	; 0x30
    2bb4:	e02c1c92 	mla	ip, r2, ip, r1
    2bb8:	e4d31001 	ldrb	r1, [r3], #1
    2bbc:	e1a0200c 	mov	r2, ip
    2bc0:	e241c030 	sub	ip, r1, #48	; 0x30
    2bc4:	e35c0009 	cmp	ip, #9
    2bc8:	9afffff7 	bls	0x2bac
    2bcc:	e3510024 	cmp	r1, #36	; 0x24
    2bd0:	1affffed 	bne	0x2b8c
    2bd4:	e3520020 	cmp	r2, #32
    2bd8:	e58d0018 	str	r0, [sp, #24]
    2bdc:	ca000c25 	bgt	0x5c78
    2be0:	e2425001 	sub	r5, r2, #1
    2be4:	e3a07001 	mov	r7, #1
    2be8:	e1a02003 	mov	r2, r3
    2bec:	eafffec5 	b	0x2708
    2bf0:	e58d0018 	str	r0, [sp, #24]
    2bf4:	e38aa008 	orr	sl, sl, #8
    2bf8:	eafffec2 	b	0x2708
    2bfc:	e5d23000 	ldrb	r3, [r2]
    2c00:	e3530068 	cmp	r3, #104	; 0x68
    2c04:	e58d0018 	str	r0, [sp, #24]
    2c08:	02822001 	addeq	r2, r2, #1
    2c0c:	038aac02 	orreq	sl, sl, #512	; 0x200
    2c10:	138aa040 	orrne	sl, sl, #64	; 0x40
    2c14:	eafffebb 	b	0x2708
    2c18:	e5d23000 	ldrb	r3, [r2]
    2c1c:	e353006c 	cmp	r3, #108	; 0x6c
    2c20:	e58d0018 	str	r0, [sp, #24]
    2c24:	02822001 	addeq	r2, r2, #1
    2c28:	138aa010 	orrne	sl, sl, #16
    2c2c:	1afffeb5 	bne	0x2708
    2c30:	ea000000 	b	0x2c38
    2c34:	e58d0018 	str	r0, [sp, #24]
    2c38:	e38aa020 	orr	sl, sl, #32
    2c3c:	eafffeb1 	b	0x2708
    2c40:	e3510043 	cmp	r1, #67	; 0x43
    2c44:	e58d903c 	str	r9, [sp, #60]	; 0x3c
    2c48:	e58d2044 	str	r2, [sp, #68]	; 0x44
    2c4c:	e58d1024 	str	r1, [sp, #36]	; 0x24
    2c50:	e59d9030 	ldr	r9, [sp, #48]	; 0x30
    2c54:	e1a03001 	mov	r3, r1
    2c58:	0a000001 	beq	0x2c64
    2c5c:	e31a0010 	tst	sl, #16
    2c60:	0a000036 	beq	0x2d40
    2c64:	e3a02008 	mov	r2, #8
    2c68:	e3a01000 	mov	r1, #0
    2c6c:	e28d00b0 	add	r0, sp, #176	; 0xb0
    2c70:	eb00165b 	bl	0x85e4
    2c74:	e3570000 	cmp	r7, #0
    2c78:	e59d308c 	ldr	r3, [sp, #140]	; 0x8c
    2c7c:	0a000014 	beq	0x2cd4
    2c80:	e1530005 	cmp	r3, r5
    2c84:	c28d3fba 	addgt	r3, sp, #744	; 0x2e8
    2c88:	c0835185 	addgt	r5, r3, r5, lsl #3
    2c8c:	c5152100 	ldrgt	r2, [r5, #-256]	; 0xffffff00
    2c90:	ca00000d 	bgt	0x2ccc
    2c94:	e28d3090 	add	r3, sp, #144	; 0x90
    2c98:	e58d300c 	str	r3, [sp, #12]
    2c9c:	e28d3f5a 	add	r3, sp, #360	; 0x168
    2ca0:	e58d3008 	str	r3, [sp, #8]
    2ca4:	e28d3f7a 	add	r3, sp, #488	; 0x1e8
    2ca8:	e58d3004 	str	r3, [sp, #4]
    2cac:	e28d308c 	add	r3, sp, #140	; 0x8c
    2cb0:	e58d3000 	str	r3, [sp]
    2cb4:	e1a02006 	mov	r2, r6
    2cb8:	e28d307c 	add	r3, sp, #124	; 0x7c
    2cbc:	e1a01005 	mov	r1, r5
    2cc0:	e1a0000b 	mov	r0, fp
    2cc4:	ebfffc82 	bl	0x1ed4
    2cc8:	e5902000 	ldr	r2, [r0]
    2ccc:	e1a04008 	mov	r4, r8
    2cd0:	ea000011 	b	0x2d1c
    2cd4:	e1530008 	cmp	r3, r8
    2cd8:	c28d3fba 	addgt	r3, sp, #744	; 0x2e8
    2cdc:	c0835185 	addgt	r5, r3, r5, lsl #3
    2ce0:	e2884001 	add	r4, r8, #1
    2ce4:	c5152100 	ldrgt	r2, [r5, #-256]	; 0xffffff00
    2ce8:	ca00000b 	bgt	0x2d1c
    2cec:	e353001f 	cmp	r3, #31
    2cf0:	e59d207c 	ldr	r2, [sp, #124]	; 0x7c
    2cf4:	d2830001 	addle	r0, r3, #1
    2cf8:	d58d008c 	strle	r0, [sp, #140]	; 0x8c
    2cfc:	e2821004 	add	r1, r2, #4
    2d00:	d58d107c 	strle	r1, [sp, #124]	; 0x7c
    2d04:	d5922000 	ldrle	r2, [r2]
    2d08:	d28d1fba 	addle	r1, sp, #744	; 0x2e8
    2d0c:	d0813183 	addle	r3, r1, r3, lsl #3
    2d10:	d5032100 	strle	r2, [r3, #-256]	; 0xffffff00
    2d14:	c58d107c 	strgt	r1, [sp, #124]	; 0x7c
    2d18:	c5922000 	ldrgt	r2, [r2]
    2d1c:	e28d30b0 	add	r3, sp, #176	; 0xb0
    2d20:	e28d1f41 	add	r1, sp, #260	; 0x104
    2d24:	e1a0000b 	mov	r0, fp
    2d28:	eb000bdc 	bl	0x5ca0
    2d2c:	e3700001 	cmn	r0, #1
    2d30:	e1a05000 	mov	r5, r0
    2d34:	0a00058e 	beq	0x4374
    2d38:	e1a08004 	mov	r8, r4
    2d3c:	ea00002d 	b	0x2df8
    2d40:	e3570000 	cmp	r7, #0
    2d44:	e59d208c 	ldr	r2, [sp, #140]	; 0x8c
    2d48:	0a000014 	beq	0x2da0
    2d4c:	e1520005 	cmp	r2, r5
    2d50:	c28d3fba 	addgt	r3, sp, #744	; 0x2e8
    2d54:	c0835185 	addgt	r5, r3, r5, lsl #3
    2d58:	c5553100 	ldrbgt	r3, [r5, #-256]	; 0xffffff00
    2d5c:	ca00000d 	bgt	0x2d98
    2d60:	e28d3090 	add	r3, sp, #144	; 0x90
    2d64:	e58d300c 	str	r3, [sp, #12]
    2d68:	e28d3f5a 	add	r3, sp, #360	; 0x168
    2d6c:	e58d3008 	str	r3, [sp, #8]
    2d70:	e28d3f7a 	add	r3, sp, #488	; 0x1e8
    2d74:	e58d3004 	str	r3, [sp, #4]
    2d78:	e28d308c 	add	r3, sp, #140	; 0x8c
    2d7c:	e58d3000 	str	r3, [sp]
    2d80:	e1a02006 	mov	r2, r6
    2d84:	e28d307c 	add	r3, sp, #124	; 0x7c
    2d88:	e1a01005 	mov	r1, r5
    2d8c:	e1a0000b 	mov	r0, fp
    2d90:	ebfffc4f 	bl	0x1ed4
    2d94:	e5d03000 	ldrb	r3, [r0]
    2d98:	e1a01008 	mov	r1, r8
    2d9c:	ea000012 	b	0x2dec
    2da0:	e1520008 	cmp	r2, r8
    2da4:	c28d3fba 	addgt	r3, sp, #744	; 0x2e8
    2da8:	c0835185 	addgt	r5, r3, r5, lsl #3
    2dac:	e2881001 	add	r1, r8, #1
    2db0:	c5553100 	ldrbgt	r3, [r5, #-256]	; 0xffffff00
    2db4:	ca00000c 	bgt	0x2dec
    2db8:	e352001f 	cmp	r2, #31
    2dbc:	e59d307c 	ldr	r3, [sp, #124]	; 0x7c
    2dc0:	d282c001 	addle	ip, r2, #1
    2dc4:	d58dc08c 	strle	ip, [sp, #140]	; 0x8c
    2dc8:	e2830004 	add	r0, r3, #4
    2dcc:	d58d007c 	strle	r0, [sp, #124]	; 0x7c
    2dd0:	d5933000 	ldrle	r3, [r3]
    2dd4:	d28d0fba 	addle	r0, sp, #744	; 0x2e8
    2dd8:	d0802182 	addle	r2, r0, r2, lsl #3
    2ddc:	c58d007c 	strgt	r0, [sp, #124]	; 0x7c
    2de0:	c5d33000 	ldrbgt	r3, [r3]
    2de4:	d5023100 	strle	r3, [r2, #-256]	; 0xffffff00
    2de8:	d20330ff 	andle	r3, r3, #255	; 0xff
    2dec:	e1a08001 	mov	r8, r1
    2df0:	e3a05001 	mov	r5, #1
    2df4:	e5cd3104 	strb	r3, [sp, #260]	; 0x104
    2df8:	e3a00000 	mov	r0, #0
    2dfc:	e5cd0087 	strb	r0, [sp, #135]	; 0x87
    2e00:	e1a07000 	mov	r7, r0
    2e04:	ea0007f5 	b	0x4de0
    2e08:	e58d903c 	str	r9, [sp, #60]	; 0x3c
    2e0c:	e58d2044 	str	r2, [sp, #68]	; 0x44
    2e10:	e58d1024 	str	r1, [sp, #36]	; 0x24
    2e14:	e59d9030 	ldr	r9, [sp, #48]	; 0x30
    2e18:	e58d0018 	str	r0, [sp, #24]
    2e1c:	e38aa010 	orr	sl, sl, #16
    2e20:	ea000004 	b	0x2e38
    2e24:	e58d903c 	str	r9, [sp, #60]	; 0x3c
    2e28:	e58d2044 	str	r2, [sp, #68]	; 0x44
    2e2c:	e58d1024 	str	r1, [sp, #36]	; 0x24
    2e30:	e59d9030 	ldr	r9, [sp, #48]	; 0x30
    2e34:	e58d0018 	str	r0, [sp, #24]
    2e38:	e31a0020 	tst	sl, #32
    2e3c:	e59d308c 	ldr	r3, [sp, #140]	; 0x8c
    2e40:	0a000037 	beq	0x2f24
    2e44:	e3570000 	cmp	r7, #0
    2e48:	0a000017 	beq	0x2eac
    2e4c:	e1550003 	cmp	r5, r3
    2e50:	aa000004 	bge	0x2e68
    2e54:	e28d3fba 	add	r3, sp, #744	; 0x2e8
    2e58:	e0835185 	add	r5, r3, r5, lsl #3
    2e5c:	e515e100 	ldr	lr, [r5, #-256]	; 0xffffff00
    2e60:	e51520fc 	ldr	r2, [r5, #-252]	; 0xffffff04
    2e64:	ea00000e 	b	0x2ea4
    2e68:	e28d3090 	add	r3, sp, #144	; 0x90
    2e6c:	e58d300c 	str	r3, [sp, #12]
    2e70:	e28d3f5a 	add	r3, sp, #360	; 0x168
    2e74:	e58d3008 	str	r3, [sp, #8]
    2e78:	e28d3f7a 	add	r3, sp, #488	; 0x1e8
    2e7c:	e58d3004 	str	r3, [sp, #4]
    2e80:	e28d308c 	add	r3, sp, #140	; 0x8c
    2e84:	e58d3000 	str	r3, [sp]
    2e88:	e1a02006 	mov	r2, r6
    2e8c:	e28d307c 	add	r3, sp, #124	; 0x7c
    2e90:	e1a01005 	mov	r1, r5
    2e94:	e1a0000b 	mov	r0, fp
    2e98:	ebfffc0d 	bl	0x1ed4
    2e9c:	e590e000 	ldr	lr, [r0]
    2ea0:	e5902004 	ldr	r2, [r0, #4]
    2ea4:	e1a0c008 	mov	ip, r8
    2ea8:	ea000019 	b	0x2f14
    2eac:	e1580003 	cmp	r8, r3
    2eb0:	e288c001 	add	ip, r8, #1
    2eb4:	aa000004 	bge	0x2ecc
    2eb8:	e28d3fba 	add	r3, sp, #744	; 0x2e8
    2ebc:	e0835185 	add	r5, r3, r5, lsl #3
    2ec0:	e515e100 	ldr	lr, [r5, #-256]	; 0xffffff00
    2ec4:	e51520fc 	ldr	r2, [r5, #-252]	; 0xffffff04
    2ec8:	ea000011 	b	0x2f14
    2ecc:	e59d207c 	ldr	r2, [sp, #124]	; 0x7c
    2ed0:	e2822007 	add	r2, r2, #7
    2ed4:	e3c22007 	bic	r2, r2, #7
    2ed8:	e8b20003 	ldm	r2!, {r0, r1}
    2edc:	e353001f 	cmp	r3, #31
    2ee0:	c58d207c 	strgt	r2, [sp, #124]	; 0x7c
    2ee4:	c1a0e000 	movgt	lr, r0
    2ee8:	c1a02001 	movgt	r2, r1
    2eec:	ca000008 	bgt	0x2f14
    2ef0:	e283e001 	add	lr, r3, #1
    2ef4:	e58de08c 	str	lr, [sp, #140]	; 0x8c
    2ef8:	e58d207c 	str	r2, [sp, #124]	; 0x7c
    2efc:	e1a0e000 	mov	lr, r0
    2f00:	e1a02001 	mov	r2, r1
    2f04:	e28d1fba 	add	r1, sp, #744	; 0x2e8
    2f08:	e0813183 	add	r3, r1, r3, lsl #3
    2f0c:	e503e100 	str	lr, [r3, #-256]	; 0xffffff00
    2f10:	e50320fc 	str	r2, [r3, #-252]	; 0xffffff04
    2f14:	e1a0400e 	mov	r4, lr
    2f18:	e1a05002 	mov	r5, r2
    2f1c:	e1a0800c 	mov	r8, ip
    2f20:	ea0000b8 	b	0x3208
    2f24:	e31a0010 	tst	sl, #16
    2f28:	0a000029 	beq	0x2fd4
    2f2c:	e3570000 	cmp	r7, #0
    2f30:	0a000014 	beq	0x2f88
    2f34:	e1550003 	cmp	r5, r3
    2f38:	b28d3fba 	addlt	r3, sp, #744	; 0x2e8
    2f3c:	b0835185 	addlt	r5, r3, r5, lsl #3
    2f40:	b5154100 	ldrlt	r4, [r5, #-256]	; 0xffffff00
    2f44:	ba00000d 	blt	0x2f80
    2f48:	e28d3090 	add	r3, sp, #144	; 0x90
    2f4c:	e58d300c 	str	r3, [sp, #12]
    2f50:	e28d3f5a 	add	r3, sp, #360	; 0x168
    2f54:	e58d3008 	str	r3, [sp, #8]
    2f58:	e28d3f7a 	add	r3, sp, #488	; 0x1e8
    2f5c:	e58d3004 	str	r3, [sp, #4]
    2f60:	e28d308c 	add	r3, sp, #140	; 0x8c
    2f64:	e58d3000 	str	r3, [sp]
    2f68:	e1a02006 	mov	r2, r6
    2f6c:	e28d307c 	add	r3, sp, #124	; 0x7c
    2f70:	e1a01005 	mov	r1, r5
    2f74:	e1a0000b 	mov	r0, fp
    2f78:	ebfffbd5 	bl	0x1ed4
    2f7c:	e5904000 	ldr	r4, [r0]
    2f80:	e1a01008 	mov	r1, r8
    2f84:	ea00000f 	b	0x2fc8
    2f88:	e1580003 	cmp	r8, r3
    2f8c:	b28d3fba 	addlt	r3, sp, #744	; 0x2e8
    2f90:	b0835185 	addlt	r5, r3, r5, lsl #3
    2f94:	e2881001 	add	r1, r8, #1
    2f98:	b5154100 	ldrlt	r4, [r5, #-256]	; 0xffffff00
    2f9c:	ba000009 	blt	0x2fc8
    2fa0:	e59d207c 	ldr	r2, [sp, #124]	; 0x7c
    2fa4:	e4924004 	ldr	r4, [r2], #4
    2fa8:	e353001f 	cmp	r3, #31
    2fac:	d58d207c 	strle	r2, [sp, #124]	; 0x7c
    2fb0:	d28d2fba 	addle	r2, sp, #744	; 0x2e8
    2fb4:	d2830001 	addle	r0, r3, #1
    2fb8:	d0823183 	addle	r3, r2, r3, lsl #3
    2fbc:	d58d008c 	strle	r0, [sp, #140]	; 0x8c
    2fc0:	d5034100 	strle	r4, [r3, #-256]	; 0xffffff00
    2fc4:	c58d207c 	strgt	r2, [sp, #124]	; 0x7c
    2fc8:	e1a05fc4 	asr	r5, r4, #31
    2fcc:	e1a08001 	mov	r8, r1
    2fd0:	ea00008c 	b	0x3208
    2fd4:	e31a0040 	tst	sl, #64	; 0x40
    2fd8:	0a00002e 	beq	0x3098
    2fdc:	e3570000 	cmp	r7, #0
    2fe0:	0a000016 	beq	0x3040
    2fe4:	e1550003 	cmp	r5, r3
    2fe8:	aa000005 	bge	0x3004
    2fec:	e28d3fba 	add	r3, sp, #744	; 0x2e8
    2ff0:	e0835185 	add	r5, r3, r5, lsl #3
    2ff4:	e5154100 	ldr	r4, [r5, #-256]	; 0xffffff00
    2ff8:	e1a04804 	lsl	r4, r4, #16
    2ffc:	e1a04844 	asr	r4, r4, #16
    3000:	ea00006a 	b	0x31b0
    3004:	e28d3090 	add	r3, sp, #144	; 0x90
    3008:	e58d300c 	str	r3, [sp, #12]
    300c:	e28d3f5a 	add	r3, sp, #360	; 0x168
    3010:	e58d3008 	str	r3, [sp, #8]
    3014:	e28d3f7a 	add	r3, sp, #488	; 0x1e8
    3018:	e58d3004 	str	r3, [sp, #4]
    301c:	e28d308c 	add	r3, sp, #140	; 0x8c
    3020:	e58d3000 	str	r3, [sp]
    3024:	e1a02006 	mov	r2, r6
    3028:	e28d307c 	add	r3, sp, #124	; 0x7c
    302c:	e1a01005 	mov	r1, r5
    3030:	e1a0000b 	mov	r0, fp
    3034:	ebfffba6 	bl	0x1ed4
    3038:	e1d040f0 	ldrsh	r4, [r0]
    303c:	ea00005b 	b	0x31b0
    3040:	e1580003 	cmp	r8, r3
    3044:	b28d3fba 	addlt	r3, sp, #744	; 0x2e8
    3048:	b0835185 	addlt	r5, r3, r5, lsl #3
    304c:	e2882001 	add	r2, r8, #1
    3050:	b5154100 	ldrlt	r4, [r5, #-256]	; 0xffffff00
    3054:	ba00000c 	blt	0x308c
    3058:	e59d107c 	ldr	r1, [sp, #124]	; 0x7c
    305c:	e353001f 	cmp	r3, #31
    3060:	e2810004 	add	r0, r1, #4
    3064:	c58d007c 	strgt	r0, [sp, #124]	; 0x7c
    3068:	c1d140f0 	ldrshgt	r4, [r1]
    306c:	ca000063 	bgt	0x3200
    3070:	e283c001 	add	ip, r3, #1
    3074:	e58dc08c 	str	ip, [sp, #140]	; 0x8c
    3078:	e5914000 	ldr	r4, [r1]
    307c:	e28d1fba 	add	r1, sp, #744	; 0x2e8
    3080:	e0813183 	add	r3, r1, r3, lsl #3
    3084:	e58d007c 	str	r0, [sp, #124]	; 0x7c
    3088:	e5034100 	str	r4, [r3, #-256]	; 0xffffff00
    308c:	e1a04804 	lsl	r4, r4, #16
    3090:	e1a04844 	asr	r4, r4, #16
    3094:	ea000059 	b	0x3200
    3098:	e31a0c02 	tst	sl, #512	; 0x200
    309c:	0a00002e 	beq	0x315c
    30a0:	e3570000 	cmp	r7, #0
    30a4:	0a000016 	beq	0x3104
    30a8:	e1550003 	cmp	r5, r3
    30ac:	aa000005 	bge	0x30c8
    30b0:	e28d3fba 	add	r3, sp, #744	; 0x2e8
    30b4:	e0835185 	add	r5, r3, r5, lsl #3
    30b8:	e5154100 	ldr	r4, [r5, #-256]	; 0xffffff00
    30bc:	e1a04c04 	lsl	r4, r4, #24
    30c0:	e1a04c44 	asr	r4, r4, #24
    30c4:	ea000039 	b	0x31b0
    30c8:	e28d3090 	add	r3, sp, #144	; 0x90
    30cc:	e58d300c 	str	r3, [sp, #12]
    30d0:	e28d3f5a 	add	r3, sp, #360	; 0x168
    30d4:	e58d3008 	str	r3, [sp, #8]
    30d8:	e28d3f7a 	add	r3, sp, #488	; 0x1e8
    30dc:	e58d3004 	str	r3, [sp, #4]
    30e0:	e28d308c 	add	r3, sp, #140	; 0x8c
    30e4:	e58d3000 	str	r3, [sp]
    30e8:	e1a02006 	mov	r2, r6
    30ec:	e28d307c 	add	r3, sp, #124	; 0x7c
    30f0:	e1a01005 	mov	r1, r5
    30f4:	e1a0000b 	mov	r0, fp
    30f8:	ebfffb75 	bl	0x1ed4
    30fc:	e1d040d0 	ldrsb	r4, [r0]
    3100:	ea00002a 	b	0x31b0
    3104:	e1580003 	cmp	r8, r3
    3108:	b28d3fba 	addlt	r3, sp, #744	; 0x2e8
    310c:	b0835185 	addlt	r5, r3, r5, lsl #3
    3110:	e2882001 	add	r2, r8, #1
    3114:	b5154100 	ldrlt	r4, [r5, #-256]	; 0xffffff00
    3118:	ba00000c 	blt	0x3150
    311c:	e59d107c 	ldr	r1, [sp, #124]	; 0x7c
    3120:	e353001f 	cmp	r3, #31
    3124:	e2810004 	add	r0, r1, #4
    3128:	c58d007c 	strgt	r0, [sp, #124]	; 0x7c
    312c:	c1d140d0 	ldrsbgt	r4, [r1]
    3130:	ca000032 	bgt	0x3200
    3134:	e283c001 	add	ip, r3, #1
    3138:	e58dc08c 	str	ip, [sp, #140]	; 0x8c
    313c:	e5914000 	ldr	r4, [r1]
    3140:	e28d1fba 	add	r1, sp, #744	; 0x2e8
    3144:	e0813183 	add	r3, r1, r3, lsl #3
    3148:	e58d007c 	str	r0, [sp, #124]	; 0x7c
    314c:	e5034100 	str	r4, [r3, #-256]	; 0xffffff00
    3150:	e1a04c04 	lsl	r4, r4, #24
    3154:	e1a04c44 	asr	r4, r4, #24
    3158:	ea000028 	b	0x3200
    315c:	e3570000 	cmp	r7, #0
    3160:	0a000014 	beq	0x31b8
    3164:	e1550003 	cmp	r5, r3
    3168:	b28d3fba 	addlt	r3, sp, #744	; 0x2e8
    316c:	b0835185 	addlt	r5, r3, r5, lsl #3
    3170:	b5154100 	ldrlt	r4, [r5, #-256]	; 0xffffff00
    3174:	ba00000d 	blt	0x31b0
    3178:	e28d3090 	add	r3, sp, #144	; 0x90
    317c:	e58d300c 	str	r3, [sp, #12]
    3180:	e28d3f5a 	add	r3, sp, #360	; 0x168
    3184:	e58d3008 	str	r3, [sp, #8]
    3188:	e28d3f7a 	add	r3, sp, #488	; 0x1e8
    318c:	e58d3004 	str	r3, [sp, #4]
    3190:	e28d308c 	add	r3, sp, #140	; 0x8c
    3194:	e58d3000 	str	r3, [sp]
    3198:	e1a02006 	mov	r2, r6
    319c:	e28d307c 	add	r3, sp, #124	; 0x7c
    31a0:	e1a01005 	mov	r1, r5
    31a4:	e1a0000b 	mov	r0, fp
    31a8:	ebfffb49 	bl	0x1ed4
    31ac:	e5904000 	ldr	r4, [r0]
    31b0:	e1a02008 	mov	r2, r8
    31b4:	ea000011 	b	0x3200
    31b8:	e1580003 	cmp	r8, r3
    31bc:	b28d3fba 	addlt	r3, sp, #744	; 0x2e8
    31c0:	b0835185 	addlt	r5, r3, r5, lsl #3
    31c4:	e2882001 	add	r2, r8, #1
    31c8:	b5154100 	ldrlt	r4, [r5, #-256]	; 0xffffff00
    31cc:	ba00000b 	blt	0x3200
    31d0:	e353001f 	cmp	r3, #31
    31d4:	d283c001 	addle	ip, r3, #1
    31d8:	e59d107c 	ldr	r1, [sp, #124]	; 0x7c
    31dc:	d58dc08c 	strle	ip, [sp, #140]	; 0x8c
    31e0:	e2810004 	add	r0, r1, #4
    31e4:	d5914000 	ldrle	r4, [r1]
    31e8:	d28d1fba 	addle	r1, sp, #744	; 0x2e8
    31ec:	d0813183 	addle	r3, r1, r3, lsl #3
    31f0:	d58d007c 	strle	r0, [sp, #124]	; 0x7c
    31f4:	d5034100 	strle	r4, [r3, #-256]	; 0xffffff00
    31f8:	c58d007c 	strgt	r0, [sp, #124]	; 0x7c
    31fc:	c5914000 	ldrgt	r4, [r1]
    3200:	e1a08002 	mov	r8, r2
    3204:	e1a05fc4 	asr	r5, r4, #31
    3208:	e3540000 	cmp	r4, #0
    320c:	e2d53000 	sbcs	r3, r5, #0
    3210:	aa00065b 	bge	0x4b84
    3214:	e3a0302d 	mov	r3, #45	; 0x2d
    3218:	e2744000 	rsbs	r4, r4, #0
    321c:	e2e55000 	rsc	r5, r5, #0
    3220:	e5cd3087 	strb	r3, [sp, #135]	; 0x87
    3224:	ea000656 	b	0x4b84
    3228:	e3570000 	cmp	r7, #0
    322c:	e58d903c 	str	r9, [sp, #60]	; 0x3c
    3230:	e58d2044 	str	r2, [sp, #68]	; 0x44
    3234:	e58d1024 	str	r1, [sp, #36]	; 0x24
    3238:	e59d9030 	ldr	r9, [sp, #48]	; 0x30
    323c:	e58d0018 	str	r0, [sp, #24]
    3240:	e59d308c 	ldr	r3, [sp, #140]	; 0x8c
    3244:	0a000019 	beq	0x32b0
    3248:	e1550003 	cmp	r5, r3
    324c:	aa000006 	bge	0x326c
    3250:	e28d3fba 	add	r3, sp, #744	; 0x2e8
    3254:	e0835185 	add	r5, r3, r5, lsl #3
    3258:	e5153100 	ldr	r3, [r5, #-256]	; 0xffffff00
    325c:	e58d3040 	str	r3, [sp, #64]	; 0x40
    3260:	e51530fc 	ldr	r3, [r5, #-252]	; 0xffffff04
    3264:	e58d3038 	str	r3, [sp, #56]	; 0x38
    3268:	ea00002f 	b	0x332c
    326c:	e28d3090 	add	r3, sp, #144	; 0x90
    3270:	e58d300c 	str	r3, [sp, #12]
    3274:	e28d3f5a 	add	r3, sp, #360	; 0x168
    3278:	e58d3008 	str	r3, [sp, #8]
    327c:	e28d3f7a 	add	r3, sp, #488	; 0x1e8
    3280:	e58d3004 	str	r3, [sp, #4]
    3284:	e28d308c 	add	r3, sp, #140	; 0x8c
    3288:	e58d3000 	str	r3, [sp]
    328c:	e1a02006 	mov	r2, r6
    3290:	e28d307c 	add	r3, sp, #124	; 0x7c
    3294:	e1a01005 	mov	r1, r5
    3298:	e1a0000b 	mov	r0, fp
    329c:	ebfffb0c 	bl	0x1ed4
    32a0:	e5903000 	ldr	r3, [r0]
    32a4:	e58d3040 	str	r3, [sp, #64]	; 0x40
    32a8:	e5903004 	ldr	r3, [r0, #4]
    32ac:	eaffffec 	b	0x3264
    32b0:	e1580003 	cmp	r8, r3
    32b4:	e288c001 	add	ip, r8, #1
    32b8:	aa000006 	bge	0x32d8
    32bc:	e28d3fba 	add	r3, sp, #744	; 0x2e8
    32c0:	e0835185 	add	r5, r3, r5, lsl #3
    32c4:	e5153100 	ldr	r3, [r5, #-256]	; 0xffffff00
    32c8:	e58d3040 	str	r3, [sp, #64]	; 0x40
    32cc:	e51530fc 	ldr	r3, [r5, #-252]	; 0xffffff04
    32d0:	e58d3038 	str	r3, [sp, #56]	; 0x38
    32d4:	ea000013 	b	0x3328
    32d8:	e59d207c 	ldr	r2, [sp, #124]	; 0x7c
    32dc:	e2822007 	add	r2, r2, #7
    32e0:	e3c22007 	bic	r2, r2, #7
    32e4:	e8b20003 	ldm	r2!, {r0, r1}
    32e8:	e353001f 	cmp	r3, #31
    32ec:	c58d207c 	strgt	r2, [sp, #124]	; 0x7c
    32f0:	c58d0040 	strgt	r0, [sp, #64]	; 0x40
    32f4:	c58d1038 	strgt	r1, [sp, #56]	; 0x38
    32f8:	ca00000a 	bgt	0x3328
    32fc:	e58d207c 	str	r2, [sp, #124]	; 0x7c
    3300:	e28d2fba 	add	r2, sp, #744	; 0x2e8
    3304:	e58d1038 	str	r1, [sp, #56]	; 0x38
    3308:	e0821183 	add	r1, r2, r3, lsl #3
    330c:	e1a02000 	mov	r2, r0
    3310:	e283e001 	add	lr, r3, #1
    3314:	e59d3038 	ldr	r3, [sp, #56]	; 0x38
    3318:	e58de08c 	str	lr, [sp, #140]	; 0x8c
    331c:	e58d0040 	str	r0, [sp, #64]	; 0x40
    3320:	e5012100 	str	r2, [r1, #-256]	; 0xffffff00
    3324:	e50130fc 	str	r3, [r1, #-252]	; 0xffffff04
    3328:	e1a0800c 	mov	r8, ip
    332c:	e59d3038 	ldr	r3, [sp, #56]	; 0x38
    3330:	e59d5040 	ldr	r5, [sp, #64]	; 0x40
    3334:	e3c34102 	bic	r4, r3, #-2147483648	; 0x80000000
    3338:	e3e02000 	mvn	r2, #0
    333c:	e59f312c 	ldr	r3, [pc, #300]	; 0x3470
    3340:	e1a00005 	mov	r0, r5
    3344:	e1a01004 	mov	r1, r4
    3348:	ebfff9a8 	bl	0x19f0
    334c:	e3500000 	cmp	r0, #0
    3350:	1a00000f 	bne	0x3394
    3354:	e3e02000 	mvn	r2, #0
    3358:	e59f3110 	ldr	r3, [pc, #272]	; 0x3470
    335c:	e1a00005 	mov	r0, r5
    3360:	e1a01004 	mov	r1, r4
    3364:	ebfff98f 	bl	0x19a8
    3368:	e3500000 	cmp	r0, #0
    336c:	1a000008 	bne	0x3394
    3370:	e28d205c 	add	r2, sp, #92	; 0x5c
    3374:	e892000c 	ldm	r2, {r2, r3}
    3378:	e59d0040 	ldr	r0, [sp, #64]	; 0x40
    337c:	e59d1038 	ldr	r1, [sp, #56]	; 0x38
    3380:	ebfff982 	bl	0x1990
    3384:	e3500000 	cmp	r0, #0
    3388:	13a0302d 	movne	r3, #45	; 0x2d
    338c:	15cd3087 	strbne	r3, [sp, #135]	; 0x87
    3390:	ea00000d 	b	0x33cc
    3394:	e59d2040 	ldr	r2, [sp, #64]	; 0x40
    3398:	e59d3038 	ldr	r3, [sp, #56]	; 0x38
    339c:	e59d0040 	ldr	r0, [sp, #64]	; 0x40
    33a0:	e59d1038 	ldr	r1, [sp, #56]	; 0x38
    33a4:	ebfff991 	bl	0x19f0
    33a8:	e2507000 	subs	r7, r0, #0
    33ac:	0a000014 	beq	0x3404
    33b0:	e59d3038 	ldr	r3, [sp, #56]	; 0x38
    33b4:	e3530000 	cmp	r3, #0
    33b8:	b3a0302d 	movlt	r3, #45	; 0x2d
    33bc:	e59f20b0 	ldr	r2, [pc, #176]	; 0x3474
    33c0:	b5cd3087 	strblt	r3, [sp, #135]	; 0x87
    33c4:	e59f30ac 	ldr	r3, [pc, #172]	; 0x3478
    33c8:	ea000001 	b	0x33d4
    33cc:	e59f20a8 	ldr	r2, [pc, #168]	; 0x347c
    33d0:	e59f30a8 	ldr	r3, [pc, #168]	; 0x3480
    33d4:	e59d1024 	ldr	r1, [sp, #36]	; 0x24
    33d8:	e3510047 	cmp	r1, #71	; 0x47
    33dc:	c1a02003 	movgt	r2, r3
    33e0:	e3a07000 	mov	r7, #0
    33e4:	e3a05003 	mov	r5, #3
    33e8:	e58d201c 	str	r2, [sp, #28]
    33ec:	e58d7018 	str	r7, [sp, #24]
    33f0:	e3caa080 	bic	sl, sl, #128	; 0x80
    33f4:	e58d7030 	str	r7, [sp, #48]	; 0x30
    33f8:	e58d7034 	str	r7, [sp, #52]	; 0x34
    33fc:	e1a06007 	mov	r6, r7
    3400:	ea000683 	b	0x4e14
    3404:	e59d3024 	ldr	r3, [sp, #36]	; 0x24
    3408:	e3c33020 	bic	r3, r3, #32
    340c:	e3530041 	cmp	r3, #65	; 0x41
    3410:	e58d3030 	str	r3, [sp, #48]	; 0x30
    3414:	1a000021 	bne	0x34a0
    3418:	e3a03030 	mov	r3, #48	; 0x30
    341c:	e5cd3088 	strb	r3, [sp, #136]	; 0x88
    3420:	e59d3024 	ldr	r3, [sp, #36]	; 0x24
    3424:	e3530061 	cmp	r3, #97	; 0x61
    3428:	03a03078 	moveq	r3, #120	; 0x78
    342c:	13a03058 	movne	r3, #88	; 0x58
    3430:	e5cd3089 	strb	r3, [sp, #137]	; 0x89
    3434:	e59d3018 	ldr	r3, [sp, #24]
    3438:	e3530063 	cmp	r3, #99	; 0x63
    343c:	d28d3f41 	addle	r3, sp, #260	; 0x104
    3440:	e38aa002 	orr	sl, sl, #2
    3444:	d58d301c 	strle	r3, [sp, #28]
    3448:	da00001d 	ble	0x34c4
    344c:	e2831001 	add	r1, r3, #1
    3450:	e1a0000b 	mov	r0, fp
    3454:	eb00117a 	bl	0x7a44
    3458:	e2503000 	subs	r3, r0, #0
    345c:	e58d301c 	str	r3, [sp, #28]
    3460:	0a0003c3 	beq	0x4374
    3464:	e59d701c 	ldr	r7, [sp, #28]
    3468:	ea000015 	b	0x34c4
    346c:	030001ec 	tsteq	r0, #236, 2	; 0x3b
    3470:	7fefffff 	svcvc	0x00efffff
    3474:	0800a039 	stmdaeq	r0, {r0, r3, r4, r5, sp, pc}
    3478:	0800a03d 	stmdaeq	r0, {r0, r2, r3, r4, r5, sp, pc}
    347c:	0800a031 	stmdaeq	r0, {r0, r4, r5, sp, pc}
    3480:	0800a035 	stmdaeq	r0, {r0, r2, r4, r5, sp, pc}
    3484:	0800a052 	stmdaeq	r0, {r1, r4, r6, sp, pc}
    3488:	40300000 	eorsmi	r0, r0, r0
    348c:	3fe00000 	svccc	0x00e00000
    3490:	66666667 	strbtvs	r6, [r6], -r7, ror #12
    3494:	00007830 	andeq	r7, r0, r0, lsr r8
    3498:	0800a041 	stmdaeq	r0, {r0, r6, sp, pc}
    349c:	0800a063 	stmdaeq	r0, {r0, r1, r5, r6, sp, pc}
    34a0:	e59d3018 	ldr	r3, [sp, #24]
    34a4:	e3730001 	cmn	r3, #1
    34a8:	03a03006 	moveq	r3, #6
    34ac:	0a000003 	beq	0x34c0
    34b0:	e59d2030 	ldr	r2, [sp, #48]	; 0x30
    34b4:	e3530000 	cmp	r3, #0
    34b8:	03520047 	cmpeq	r2, #71	; 0x47
    34bc:	03a03001 	moveq	r3, #1
    34c0:	e58d3018 	str	r3, [sp, #24]
    34c4:	e38a3c01 	orr	r3, sl, #256	; 0x100
    34c8:	e58d3054 	str	r3, [sp, #84]	; 0x54
    34cc:	e59d3038 	ldr	r3, [sp, #56]	; 0x38
    34d0:	e2534000 	subs	r4, r3, #0
    34d4:	b2834102 	addlt	r4, r3, #-2147483648	; 0x80000000
    34d8:	a3a03000 	movge	r3, #0
    34dc:	b3a0302d 	movlt	r3, #45	; 0x2d
    34e0:	e58d3074 	str	r3, [sp, #116]	; 0x74
    34e4:	e59d3030 	ldr	r3, [sp, #48]	; 0x30
    34e8:	e3530041 	cmp	r3, #65	; 0x41
    34ec:	e59d6040 	ldr	r6, [sp, #64]	; 0x40
    34f0:	1a00005e 	bne	0x3670
    34f4:	e28d2094 	add	r2, sp, #148	; 0x94
    34f8:	e1a00006 	mov	r0, r6
    34fc:	e1a01004 	mov	r1, r4
    3500:	eb0016ec 	bl	0x90b8
    3504:	e3a02000 	mov	r2, #0
    3508:	e3a035ff 	mov	r3, #1069547520	; 0x3fc00000
    350c:	ebfff7bf 	bl	0x1410
    3510:	e28d205c 	add	r2, sp, #92	; 0x5c
    3514:	e892000c 	ldm	r2, {r2, r3}
    3518:	e58d0028 	str	r0, [sp, #40]	; 0x28
    351c:	e58d102c 	str	r1, [sp, #44]	; 0x2c
    3520:	ebfff914 	bl	0x1978
    3524:	e3500000 	cmp	r0, #0
    3528:	13a03001 	movne	r3, #1
    352c:	e59d2024 	ldr	r2, [sp, #36]	; 0x24
    3530:	158d3094 	strne	r3, [sp, #148]	; 0x94
    3534:	e51f30b8 	ldr	r3, [pc, #-184]	; 0x3484
    3538:	e3520061 	cmp	r2, #97	; 0x61
    353c:	e51f50ac 	ldr	r5, [pc, #-172]	; 0x3498
    3540:	11a05003 	movne	r5, r3
    3544:	e59d3018 	ldr	r3, [sp, #24]
    3548:	e59d401c 	ldr	r4, [sp, #28]
    354c:	e2436001 	sub	r6, r3, #1
    3550:	e3a02000 	mov	r2, #0
    3554:	e51f30d4 	ldr	r3, [pc, #-212]	; 0x3488
    3558:	e28d1028 	add	r1, sp, #40	; 0x28
    355c:	e8910003 	ldm	r1, {r0, r1}
    3560:	ebfff7aa 	bl	0x1410
    3564:	e58d0028 	str	r0, [sp, #40]	; 0x28
    3568:	e58d102c 	str	r1, [sp, #44]	; 0x2c
    356c:	ebfff92d 	bl	0x1a28
    3570:	e58d0034 	str	r0, [sp, #52]	; 0x34
    3574:	ebfff76c 	bl	0x132c
    3578:	e1a03001 	mov	r3, r1
    357c:	e1a02000 	mov	r2, r0
    3580:	e28d1028 	add	r1, sp, #40	; 0x28
    3584:	e8910003 	ldm	r1, {r0, r1}
    3588:	ebfff699 	bl	0xff4
    358c:	e59d3034 	ldr	r3, [sp, #52]	; 0x34
    3590:	e7d53003 	ldrb	r3, [r5, r3]
    3594:	e3760001 	cmn	r6, #1
    3598:	e58d0028 	str	r0, [sp, #40]	; 0x28
    359c:	e58d102c 	str	r1, [sp, #44]	; 0x2c
    35a0:	e4c43001 	strb	r3, [r4], #1
    35a4:	e58d6078 	str	r6, [sp, #120]	; 0x78
    35a8:	0a000005 	beq	0x35c4
    35ac:	e28d205c 	add	r2, sp, #92	; 0x5c
    35b0:	e892000c 	ldm	r2, {r2, r3}
    35b4:	ebfff8ef 	bl	0x1978
    35b8:	e3500000 	cmp	r0, #0
    35bc:	e2466001 	sub	r6, r6, #1
    35c0:	0affffe2 	beq	0x3550
    35c4:	e3a02000 	mov	r2, #0
    35c8:	e51f3144 	ldr	r3, [pc, #-324]	; 0x348c
    35cc:	e28d1028 	add	r1, sp, #40	; 0x28
    35d0:	e8910003 	ldm	r1, {r0, r1}
    35d4:	ebfff8ff 	bl	0x19d8
    35d8:	e3500000 	cmp	r0, #0
    35dc:	1a000009 	bne	0x3608
    35e0:	e3a02000 	mov	r2, #0
    35e4:	e51f3160 	ldr	r3, [pc, #-352]	; 0x348c
    35e8:	e28d1028 	add	r1, sp, #40	; 0x28
    35ec:	e8910003 	ldm	r1, {r0, r1}
    35f0:	ebfff8e0 	bl	0x1978
    35f4:	e3500000 	cmp	r0, #0
    35f8:	0a000013 	beq	0x364c
    35fc:	e59d3034 	ldr	r3, [sp, #52]	; 0x34
    3600:	e3130001 	tst	r3, #1
    3604:	0a000010 	beq	0x364c
    3608:	e3a01030 	mov	r1, #48	; 0x30
    360c:	e58d40b0 	str	r4, [sp, #176]	; 0xb0
    3610:	e5d5000f 	ldrb	r0, [r5, #15]
    3614:	e59d20b0 	ldr	r2, [sp, #176]	; 0xb0
    3618:	e2423001 	sub	r3, r2, #1
    361c:	e58d30b0 	str	r3, [sp, #176]	; 0xb0
    3620:	e5523001 	ldrb	r3, [r2, #-1]
    3624:	e1530000 	cmp	r3, r0
    3628:	05421001 	strbeq	r1, [r2, #-1]
    362c:	0afffff8 	beq	0x3614
    3630:	e3530039 	cmp	r3, #57	; 0x39
    3634:	12833001 	addne	r3, r3, #1
    3638:	05d5300a 	ldrbeq	r3, [r5, #10]
    363c:	120330ff 	andne	r3, r3, #255	; 0xff
    3640:	e5423001 	strb	r3, [r2, #-1]
    3644:	e1a03004 	mov	r3, r4
    3648:	ea000024 	b	0x36e0
    364c:	e59d2078 	ldr	r2, [sp, #120]	; 0x78
    3650:	e1a03004 	mov	r3, r4
    3654:	e0844002 	add	r4, r4, r2
    3658:	e3a02030 	mov	r2, #48	; 0x30
    365c:	e0441003 	sub	r1, r4, r3
    3660:	e3510000 	cmp	r1, #0
    3664:	ba00001d 	blt	0x36e0
    3668:	e4c32001 	strb	r2, [r3], #1
    366c:	eafffffa 	b	0x365c
    3670:	e59d3030 	ldr	r3, [sp, #48]	; 0x30
    3674:	e3530046 	cmp	r3, #70	; 0x46
    3678:	059d5018 	ldreq	r5, [sp, #24]
    367c:	03a03003 	moveq	r3, #3
    3680:	0a000004 	beq	0x3698
    3684:	e3530045 	cmp	r3, #69	; 0x45
    3688:	059d3018 	ldreq	r3, [sp, #24]
    368c:	02835001 	addeq	r5, r3, #1
    3690:	e3a03002 	mov	r3, #2
    3694:	159d5018 	ldrne	r5, [sp, #24]
    3698:	e28d20b0 	add	r2, sp, #176	; 0xb0
    369c:	e58d2010 	str	r2, [sp, #16]
    36a0:	e28d209c 	add	r2, sp, #156	; 0x9c
    36a4:	e58d200c 	str	r2, [sp, #12]
    36a8:	e28d2094 	add	r2, sp, #148	; 0x94
    36ac:	e58d2008 	str	r2, [sp, #8]
    36b0:	e88d0028 	stm	sp, {r3, r5}
    36b4:	e1a02006 	mov	r2, r6
    36b8:	e1a03004 	mov	r3, r4
    36bc:	e1a0000b 	mov	r0, fp
    36c0:	eb000a28 	bl	0x5f68
    36c4:	e59d3030 	ldr	r3, [sp, #48]	; 0x30
    36c8:	e3530047 	cmp	r3, #71	; 0x47
    36cc:	e58d001c 	str	r0, [sp, #28]
    36d0:	1a00000a 	bne	0x3700
    36d4:	e31a0001 	tst	sl, #1
    36d8:	1a000008 	bne	0x3700
    36dc:	e59d30b0 	ldr	r3, [sp, #176]	; 0xb0
    36e0:	e59d201c 	ldr	r2, [sp, #28]
    36e4:	e0433002 	sub	r3, r3, r2
    36e8:	e58d3028 	str	r3, [sp, #40]	; 0x28
    36ec:	e59d3030 	ldr	r3, [sp, #48]	; 0x30
    36f0:	e3530047 	cmp	r3, #71	; 0x47
    36f4:	e59d6094 	ldr	r6, [sp, #148]	; 0x94
    36f8:	1a000034 	bne	0x37d0
    36fc:	ea00002b 	b	0x37b0
    3700:	e59d301c 	ldr	r3, [sp, #28]
    3704:	e0833005 	add	r3, r3, r5
    3708:	e58d3028 	str	r3, [sp, #40]	; 0x28
    370c:	e59d3030 	ldr	r3, [sp, #48]	; 0x30
    3710:	e3530046 	cmp	r3, #70	; 0x46
    3714:	1a000014 	bne	0x376c
    3718:	e59d301c 	ldr	r3, [sp, #28]
    371c:	e5d33000 	ldrb	r3, [r3]
    3720:	e2432030 	sub	r2, r3, #48	; 0x30
    3724:	e2723000 	rsbs	r3, r2, #0
    3728:	e0a33002 	adc	r3, r3, r2
    372c:	e28d205c 	add	r2, sp, #92	; 0x5c
    3730:	e58d3034 	str	r3, [sp, #52]	; 0x34
    3734:	e1a00006 	mov	r0, r6
    3738:	e892000c 	ldm	r2, {r2, r3}
    373c:	e1a01004 	mov	r1, r4
    3740:	ebfff88c 	bl	0x1978
    3744:	e3500000 	cmp	r0, #0
    3748:	e59d3034 	ldr	r3, [sp, #52]	; 0x34
    374c:	13a03000 	movne	r3, #0
    3750:	e3530000 	cmp	r3, #0
    3754:	12655001 	rsbne	r5, r5, #1
    3758:	158d5094 	strne	r5, [sp, #148]	; 0x94
    375c:	e59d2028 	ldr	r2, [sp, #40]	; 0x28
    3760:	e59d3094 	ldr	r3, [sp, #148]	; 0x94
    3764:	e0823003 	add	r3, r2, r3
    3768:	e58d3028 	str	r3, [sp, #40]	; 0x28
    376c:	e28d205c 	add	r2, sp, #92	; 0x5c
    3770:	e892000c 	ldm	r2, {r2, r3}
    3774:	e1a00006 	mov	r0, r6
    3778:	e1a01004 	mov	r1, r4
    377c:	ebfff87d 	bl	0x1978
    3780:	e3a02030 	mov	r2, #48	; 0x30
    3784:	e3500000 	cmp	r0, #0
    3788:	159d3028 	ldrne	r3, [sp, #40]	; 0x28
    378c:	158d30b0 	strne	r3, [sp, #176]	; 0xb0
    3790:	e59d30b0 	ldr	r3, [sp, #176]	; 0xb0
    3794:	e59d1028 	ldr	r1, [sp, #40]	; 0x28
    3798:	e1510003 	cmp	r1, r3
    379c:	9affffce 	bls	0x36dc
    37a0:	e2831001 	add	r1, r3, #1
    37a4:	e58d10b0 	str	r1, [sp, #176]	; 0xb0
    37a8:	e5c32000 	strb	r2, [r3]
    37ac:	eafffff7 	b	0x3790
    37b0:	e59d3018 	ldr	r3, [sp, #24]
    37b4:	e3760003 	cmn	r6, #3
    37b8:	a1530006 	cmpge	r3, r6
    37bc:	b59d3024 	ldrlt	r3, [sp, #36]	; 0x24
    37c0:	b2433002 	sublt	r3, r3, #2
    37c4:	b58d3024 	strlt	r3, [sp, #36]	; 0x24
    37c8:	ba000003 	blt	0x37dc
    37cc:	ea00005b 	b	0x3940
    37d0:	e59d3030 	ldr	r3, [sp, #48]	; 0x30
    37d4:	e3530046 	cmp	r3, #70	; 0x46
    37d8:	0a000043 	beq	0x38ec
    37dc:	e59d3024 	ldr	r3, [sp, #36]	; 0x24
    37e0:	e3c32020 	bic	r2, r3, #32
    37e4:	e3520041 	cmp	r2, #65	; 0x41
    37e8:	e20330ff 	and	r3, r3, #255	; 0xff
    37ec:	0283300f 	addeq	r3, r3, #15
    37f0:	e2464001 	sub	r4, r6, #1
    37f4:	020330ff 	andeq	r3, r3, #255	; 0xff
    37f8:	e3540000 	cmp	r4, #0
    37fc:	e5cd30a0 	strb	r3, [sp, #160]	; 0xa0
    3800:	b3a0302d 	movlt	r3, #45	; 0x2d
    3804:	a3a0302b 	movge	r3, #43	; 0x2b
    3808:	e58d4094 	str	r4, [sp, #148]	; 0x94
    380c:	b2664001 	rsblt	r4, r6, #1
    3810:	e3540009 	cmp	r4, #9
    3814:	e5cd30a1 	strb	r3, [sp, #161]	; 0xa1
    3818:	c28d50b7 	addgt	r5, sp, #183	; 0xb7
    381c:	da000018 	ble	0x3884
    3820:	e3a0100a 	mov	r1, #10
    3824:	e1a00004 	mov	r0, r4
    3828:	ebfff5e6 	bl	0xfc8
    382c:	e51f33a4 	ldr	r3, [pc, #-932]	; 0x3490
    3830:	e2811030 	add	r1, r1, #48	; 0x30
    3834:	e5451001 	strb	r1, [r5, #-1]
    3838:	e0c10394 	smull	r0, r1, r4, r3
    383c:	e3540063 	cmp	r4, #99	; 0x63
    3840:	e1a03fc4 	asr	r3, r4, #31
    3844:	e2456001 	sub	r6, r5, #1
    3848:	e0633141 	rsb	r3, r3, r1, asr #2
    384c:	c1a05006 	movgt	r5, r6
    3850:	c1a04003 	movgt	r4, r3
    3854:	cafffff1 	bgt	0x3820
    3858:	e2833030 	add	r3, r3, #48	; 0x30
    385c:	e5463001 	strb	r3, [r6, #-1]
    3860:	e2455002 	sub	r5, r5, #2
    3864:	e28d20a2 	add	r2, sp, #162	; 0xa2
    3868:	e28d10b7 	add	r1, sp, #183	; 0xb7
    386c:	e1550001 	cmp	r5, r1
    3870:	e1a03002 	mov	r3, r2
    3874:	2a000009 	bcs	0x38a0
    3878:	e4d53001 	ldrb	r3, [r5], #1
    387c:	e4c23001 	strb	r3, [r2], #1
    3880:	eafffff9 	b	0x386c
    3884:	e3520041 	cmp	r2, #65	; 0x41
    3888:	13a03030 	movne	r3, #48	; 0x30
    388c:	028d30a2 	addeq	r3, sp, #162	; 0xa2
    3890:	15cd30a2 	strbne	r3, [sp, #162]	; 0xa2
    3894:	e2844030 	add	r4, r4, #48	; 0x30
    3898:	128d30a3 	addne	r3, sp, #163	; 0xa3
    389c:	e4c34001 	strb	r4, [r3], #1
    38a0:	e28d20a0 	add	r2, sp, #160	; 0xa0
    38a4:	e0433002 	sub	r3, r3, r2
    38a8:	e59d2028 	ldr	r2, [sp, #40]	; 0x28
    38ac:	e3520001 	cmp	r2, #1
    38b0:	e58d306c 	str	r3, [sp, #108]	; 0x6c
    38b4:	e0835002 	add	r5, r3, r2
    38b8:	ca000001 	bgt	0x38c4
    38bc:	e31a0001 	tst	sl, #1
    38c0:	0a000001 	beq	0x38cc
    38c4:	e59d3048 	ldr	r3, [sp, #72]	; 0x48
    38c8:	e0855003 	add	r5, r5, r3
    38cc:	e3ca3b01 	bic	r3, sl, #1024	; 0x400
    38d0:	e3833c01 	orr	r3, r3, #256	; 0x100
    38d4:	e58d3054 	str	r3, [sp, #84]	; 0x54
    38d8:	e3a03000 	mov	r3, #0
    38dc:	e58d3030 	str	r3, [sp, #48]	; 0x30
    38e0:	e58d3034 	str	r3, [sp, #52]	; 0x34
    38e4:	e1a06003 	mov	r6, r3
    38e8:	ea000048 	b	0x3a10
    38ec:	e59d2018 	ldr	r2, [sp, #24]
    38f0:	e20a3001 	and	r3, sl, #1
    38f4:	e3560000 	cmp	r6, #0
    38f8:	e1833002 	orr	r3, r3, r2
    38fc:	da000005 	ble	0x3918
    3900:	e3530000 	cmp	r3, #0
    3904:	159d3048 	ldrne	r3, [sp, #72]	; 0x48
    3908:	10865003 	addne	r5, r6, r3
    390c:	11a03002 	movne	r3, r2
    3910:	1a000008 	bne	0x3938
    3914:	ea000018 	b	0x397c
    3918:	e3530000 	cmp	r3, #0
    391c:	03a03066 	moveq	r3, #102	; 0x66
    3920:	03a05001 	moveq	r5, #1
    3924:	058d3024 	streq	r3, [sp, #36]	; 0x24
    3928:	0a000018 	beq	0x3990
    392c:	e59d3048 	ldr	r3, [sp, #72]	; 0x48
    3930:	e2835001 	add	r5, r3, #1
    3934:	e59d3018 	ldr	r3, [sp, #24]
    3938:	e0855003 	add	r5, r5, r3
    393c:	ea00000f 	b	0x3980
    3940:	e59d3028 	ldr	r3, [sp, #40]	; 0x28
    3944:	e1530006 	cmp	r3, r6
    3948:	ca000004 	bgt	0x3960
    394c:	e31a0001 	tst	sl, #1
    3950:	159d3048 	ldrne	r3, [sp, #72]	; 0x48
    3954:	10865003 	addne	r5, r6, r3
    3958:	01a05006 	moveq	r5, r6
    395c:	ea000009 	b	0x3988
    3960:	e59d3028 	ldr	r3, [sp, #40]	; 0x28
    3964:	e59d2048 	ldr	r2, [sp, #72]	; 0x48
    3968:	e3560000 	cmp	r6, #0
    396c:	e0835002 	add	r5, r3, r2
    3970:	d2663001 	rsble	r3, r6, #1
    3974:	d0855003 	addle	r5, r5, r3
    3978:	ea000002 	b	0x3988
    397c:	e1a05006 	mov	r5, r6
    3980:	e3a03066 	mov	r3, #102	; 0x66
    3984:	ea000000 	b	0x398c
    3988:	e3a03067 	mov	r3, #103	; 0x67
    398c:	e58d3024 	str	r3, [sp, #36]	; 0x24
    3990:	e21a3b01 	ands	r3, sl, #1024	; 0x400
    3994:	e58d3034 	str	r3, [sp, #52]	; 0x34
    3998:	059d3034 	ldreq	r3, [sp, #52]	; 0x34
    399c:	058d3030 	streq	r3, [sp, #48]	; 0x30
    39a0:	0a00001a 	beq	0x3a10
    39a4:	e3a03000 	mov	r3, #0
    39a8:	e3560000 	cmp	r6, #0
    39ac:	e58d3030 	str	r3, [sp, #48]	; 0x30
    39b0:	e58d3034 	str	r3, [sp, #52]	; 0x34
    39b4:	da000015 	ble	0x3a10
    39b8:	e3a01000 	mov	r1, #0
    39bc:	e1a00001 	mov	r0, r1
    39c0:	e59d3050 	ldr	r3, [sp, #80]	; 0x50
    39c4:	e5d32000 	ldrb	r2, [r3]
    39c8:	e35200ff 	cmp	r2, #255	; 0xff
    39cc:	0a000008 	beq	0x39f4
    39d0:	e1520006 	cmp	r2, r6
    39d4:	aa000006 	bge	0x39f4
    39d8:	e0466002 	sub	r6, r6, r2
    39dc:	e5d32001 	ldrb	r2, [r3, #1]
    39e0:	e3520000 	cmp	r2, #0
    39e4:	12811001 	addne	r1, r1, #1
    39e8:	12833001 	addne	r3, r3, #1
    39ec:	02800001 	addeq	r0, r0, #1
    39f0:	eafffff3 	b	0x39c4
    39f4:	e59d2058 	ldr	r2, [sp, #88]	; 0x58
    39f8:	e58d3050 	str	r3, [sp, #80]	; 0x50
    39fc:	e0813000 	add	r3, r1, r0
    3a00:	e0225293 	mla	r2, r3, r2, r5
    3a04:	e1a05002 	mov	r5, r2
    3a08:	e58d1034 	str	r1, [sp, #52]	; 0x34
    3a0c:	e58d0030 	str	r0, [sp, #48]	; 0x30
    3a10:	e59d3074 	ldr	r3, [sp, #116]	; 0x74
    3a14:	e3530000 	cmp	r3, #0
    3a18:	059da054 	ldreq	sl, [sp, #84]	; 0x54
    3a1c:	059d3074 	ldreq	r3, [sp, #116]	; 0x74
    3a20:	13a0302d 	movne	r3, #45	; 0x2d
    3a24:	159da054 	ldrne	sl, [sp, #84]	; 0x54
    3a28:	15cd3087 	strbne	r3, [sp, #135]	; 0x87
    3a2c:	13a03000 	movne	r3, #0
    3a30:	ea0004f1 	b	0x4dfc
    3a34:	e31a0020 	tst	sl, #32
    3a38:	e58d2044 	str	r2, [sp, #68]	; 0x44
    3a3c:	e59d9030 	ldr	r9, [sp, #48]	; 0x30
    3a40:	e59d308c 	ldr	r3, [sp, #140]	; 0x8c
    3a44:	0a00002f 	beq	0x3b08
    3a48:	e3570000 	cmp	r7, #0
    3a4c:	0a000014 	beq	0x3aa4
    3a50:	e1530005 	cmp	r3, r5
    3a54:	c28d3fba 	addgt	r3, sp, #744	; 0x2e8
    3a58:	c0835185 	addgt	r5, r3, r5, lsl #3
    3a5c:	c5152100 	ldrgt	r2, [r5, #-256]	; 0xffffff00
    3a60:	ca00000d 	bgt	0x3a9c
    3a64:	e28d3090 	add	r3, sp, #144	; 0x90
    3a68:	e58d300c 	str	r3, [sp, #12]
    3a6c:	e28d3f5a 	add	r3, sp, #360	; 0x168
    3a70:	e58d3008 	str	r3, [sp, #8]
    3a74:	e28d3f7a 	add	r3, sp, #488	; 0x1e8
    3a78:	e58d3004 	str	r3, [sp, #4]
    3a7c:	e28d308c 	add	r3, sp, #140	; 0x8c
    3a80:	e58d3000 	str	r3, [sp]
    3a84:	e1a02006 	mov	r2, r6
    3a88:	e28d307c 	add	r3, sp, #124	; 0x7c
    3a8c:	e1a01005 	mov	r1, r5
    3a90:	e1a0000b 	mov	r0, fp
    3a94:	ebfff90e 	bl	0x1ed4
    3a98:	e5902000 	ldr	r2, [r0]
    3a9c:	e1a0c008 	mov	ip, r8
    3aa0:	ea000011 	b	0x3aec
    3aa4:	e1530008 	cmp	r3, r8
    3aa8:	c28d3fba 	addgt	r3, sp, #744	; 0x2e8
    3aac:	c0835185 	addgt	r5, r3, r5, lsl #3
    3ab0:	e288c001 	add	ip, r8, #1
    3ab4:	c5152100 	ldrgt	r2, [r5, #-256]	; 0xffffff00
    3ab8:	ca00000b 	bgt	0x3aec
    3abc:	e59d207c 	ldr	r2, [sp, #124]	; 0x7c
    3ac0:	e353001f 	cmp	r3, #31
    3ac4:	e2821004 	add	r1, r2, #4
    3ac8:	d58d107c 	strle	r1, [sp, #124]	; 0x7c
    3acc:	c58d107c 	strgt	r1, [sp, #124]	; 0x7c
    3ad0:	d5922000 	ldrle	r2, [r2]
    3ad4:	d28d1fba 	addle	r1, sp, #744	; 0x2e8
    3ad8:	d2830001 	addle	r0, r3, #1
    3adc:	d0813183 	addle	r3, r1, r3, lsl #3
    3ae0:	d58d008c 	strle	r0, [sp, #140]	; 0x8c
    3ae4:	d5032100 	strle	r2, [r3, #-256]	; 0xffffff00
    3ae8:	c5922000 	ldrgt	r2, [r2]
    3aec:	e1a0800c 	mov	r8, ip
    3af0:	e59d004c 	ldr	r0, [sp, #76]	; 0x4c
    3af4:	e1a01fc0 	asr	r1, r0, #31
    3af8:	e8820003 	stm	r2, {r0, r1}
    3afc:	e59d3044 	ldr	r3, [sp, #68]	; 0x44
    3b00:	e58d301c 	str	r3, [sp, #28]
    3b04:	eafffabc 	b	0x25fc
    3b08:	e31a0010 	tst	sl, #16
    3b0c:	1a00005b 	bne	0x3c80
    3b10:	e31a0040 	tst	sl, #64	; 0x40
    3b14:	0a00002b 	beq	0x3bc8
    3b18:	e3570000 	cmp	r7, #0
    3b1c:	0a000014 	beq	0x3b74
    3b20:	e1530005 	cmp	r3, r5
    3b24:	c28d3fba 	addgt	r3, sp, #744	; 0x2e8
    3b28:	c0835185 	addgt	r5, r3, r5, lsl #3
    3b2c:	c5152100 	ldrgt	r2, [r5, #-256]	; 0xffffff00
    3b30:	ca00000d 	bgt	0x3b6c
    3b34:	e28d3090 	add	r3, sp, #144	; 0x90
    3b38:	e58d300c 	str	r3, [sp, #12]
    3b3c:	e28d3f5a 	add	r3, sp, #360	; 0x168
    3b40:	e58d3008 	str	r3, [sp, #8]
    3b44:	e28d3f7a 	add	r3, sp, #488	; 0x1e8
    3b48:	e58d3004 	str	r3, [sp, #4]
    3b4c:	e28d308c 	add	r3, sp, #140	; 0x8c
    3b50:	e58d3000 	str	r3, [sp]
    3b54:	e1a02006 	mov	r2, r6
    3b58:	e28d307c 	add	r3, sp, #124	; 0x7c
    3b5c:	e1a01005 	mov	r1, r5
    3b60:	e1a0000b 	mov	r0, fp
    3b64:	ebfff8da 	bl	0x1ed4
    3b68:	e5902000 	ldr	r2, [r0]
    3b6c:	e1a01008 	mov	r1, r8
    3b70:	ea000011 	b	0x3bbc
    3b74:	e1530008 	cmp	r3, r8
    3b78:	c28d3fba 	addgt	r3, sp, #744	; 0x2e8
    3b7c:	c0835185 	addgt	r5, r3, r5, lsl #3
    3b80:	e2881001 	add	r1, r8, #1
    3b84:	c5152100 	ldrgt	r2, [r5, #-256]	; 0xffffff00
    3b88:	ca00000b 	bgt	0x3bbc
    3b8c:	e59d207c 	ldr	r2, [sp, #124]	; 0x7c
    3b90:	e353001f 	cmp	r3, #31
    3b94:	e2820004 	add	r0, r2, #4
    3b98:	d58d007c 	strle	r0, [sp, #124]	; 0x7c
    3b9c:	c58d007c 	strgt	r0, [sp, #124]	; 0x7c
    3ba0:	d5922000 	ldrle	r2, [r2]
    3ba4:	d28d0fba 	addle	r0, sp, #744	; 0x2e8
    3ba8:	d283c001 	addle	ip, r3, #1
    3bac:	d0803183 	addle	r3, r0, r3, lsl #3
    3bb0:	d58dc08c 	strle	ip, [sp, #140]	; 0x8c
    3bb4:	d5032100 	strle	r2, [r3, #-256]	; 0xffffff00
    3bb8:	c5922000 	ldrgt	r2, [r2]
    3bbc:	e59d304c 	ldr	r3, [sp, #76]	; 0x4c
    3bc0:	e1c230b0 	strh	r3, [r2]
    3bc4:	ea000058 	b	0x3d2c
    3bc8:	e31a0c02 	tst	sl, #512	; 0x200
    3bcc:	0a00002b 	beq	0x3c80
    3bd0:	e3570000 	cmp	r7, #0
    3bd4:	0a000014 	beq	0x3c2c
    3bd8:	e1530005 	cmp	r3, r5
    3bdc:	c28d3fba 	addgt	r3, sp, #744	; 0x2e8
    3be0:	c0835185 	addgt	r5, r3, r5, lsl #3
    3be4:	c5152100 	ldrgt	r2, [r5, #-256]	; 0xffffff00
    3be8:	ca00000d 	bgt	0x3c24
    3bec:	e28d3090 	add	r3, sp, #144	; 0x90
    3bf0:	e58d300c 	str	r3, [sp, #12]
    3bf4:	e28d3f5a 	add	r3, sp, #360	; 0x168
    3bf8:	e58d3008 	str	r3, [sp, #8]
    3bfc:	e28d3f7a 	add	r3, sp, #488	; 0x1e8
    3c00:	e58d3004 	str	r3, [sp, #4]
    3c04:	e28d308c 	add	r3, sp, #140	; 0x8c
    3c08:	e58d3000 	str	r3, [sp]
    3c0c:	e1a02006 	mov	r2, r6
    3c10:	e28d307c 	add	r3, sp, #124	; 0x7c
    3c14:	e1a01005 	mov	r1, r5
    3c18:	e1a0000b 	mov	r0, fp
    3c1c:	ebfff8ac 	bl	0x1ed4
    3c20:	e5902000 	ldr	r2, [r0]
    3c24:	e1a01008 	mov	r1, r8
    3c28:	ea000011 	b	0x3c74
    3c2c:	e1530008 	cmp	r3, r8
    3c30:	c28d3fba 	addgt	r3, sp, #744	; 0x2e8
    3c34:	c0835185 	addgt	r5, r3, r5, lsl #3
    3c38:	e2881001 	add	r1, r8, #1
    3c3c:	c5152100 	ldrgt	r2, [r5, #-256]	; 0xffffff00
    3c40:	ca00000b 	bgt	0x3c74
    3c44:	e59d207c 	ldr	r2, [sp, #124]	; 0x7c
    3c48:	e353001f 	cmp	r3, #31
    3c4c:	e2820004 	add	r0, r2, #4
    3c50:	d58d007c 	strle	r0, [sp, #124]	; 0x7c
    3c54:	c58d007c 	strgt	r0, [sp, #124]	; 0x7c
    3c58:	d5922000 	ldrle	r2, [r2]
    3c5c:	d28d0fba 	addle	r0, sp, #744	; 0x2e8
    3c60:	d283c001 	addle	ip, r3, #1
    3c64:	d0803183 	addle	r3, r0, r3, lsl #3
    3c68:	d58dc08c 	strle	ip, [sp, #140]	; 0x8c
    3c6c:	d5032100 	strle	r2, [r3, #-256]	; 0xffffff00
    3c70:	c5922000 	ldrgt	r2, [r2]
    3c74:	e59d304c 	ldr	r3, [sp, #76]	; 0x4c
    3c78:	e5c23000 	strb	r3, [r2]
    3c7c:	ea00002a 	b	0x3d2c
    3c80:	e3570000 	cmp	r7, #0
    3c84:	0a000014 	beq	0x3cdc
    3c88:	e1530005 	cmp	r3, r5
    3c8c:	c28d3fba 	addgt	r3, sp, #744	; 0x2e8
    3c90:	c0835185 	addgt	r5, r3, r5, lsl #3
    3c94:	c5152100 	ldrgt	r2, [r5, #-256]	; 0xffffff00
    3c98:	ca00000d 	bgt	0x3cd4
    3c9c:	e28d3090 	add	r3, sp, #144	; 0x90
    3ca0:	e58d300c 	str	r3, [sp, #12]
    3ca4:	e28d3f5a 	add	r3, sp, #360	; 0x168
    3ca8:	e58d3008 	str	r3, [sp, #8]
    3cac:	e28d3f7a 	add	r3, sp, #488	; 0x1e8
    3cb0:	e58d3004 	str	r3, [sp, #4]
    3cb4:	e28d308c 	add	r3, sp, #140	; 0x8c
    3cb8:	e58d3000 	str	r3, [sp]
    3cbc:	e1a02006 	mov	r2, r6
    3cc0:	e28d307c 	add	r3, sp, #124	; 0x7c
    3cc4:	e1a01005 	mov	r1, r5
    3cc8:	e1a0000b 	mov	r0, fp
    3ccc:	ebfff880 	bl	0x1ed4
    3cd0:	e5902000 	ldr	r2, [r0]
    3cd4:	e1a01008 	mov	r1, r8
    3cd8:	ea000011 	b	0x3d24
    3cdc:	e1530008 	cmp	r3, r8
    3ce0:	c28d3fba 	addgt	r3, sp, #744	; 0x2e8
    3ce4:	c0835185 	addgt	r5, r3, r5, lsl #3
    3ce8:	e2881001 	add	r1, r8, #1
    3cec:	c5152100 	ldrgt	r2, [r5, #-256]	; 0xffffff00
    3cf0:	ca00000b 	bgt	0x3d24
    3cf4:	e59d207c 	ldr	r2, [sp, #124]	; 0x7c
    3cf8:	e353001f 	cmp	r3, #31
    3cfc:	e2820004 	add	r0, r2, #4
    3d00:	d283c001 	addle	ip, r3, #1
    3d04:	d58d007c 	strle	r0, [sp, #124]	; 0x7c
    3d08:	d58dc08c 	strle	ip, [sp, #140]	; 0x8c
    3d0c:	d28d0fba 	addle	r0, sp, #744	; 0x2e8
    3d10:	d5922000 	ldrle	r2, [r2]
    3d14:	c58d007c 	strgt	r0, [sp, #124]	; 0x7c
    3d18:	d0803183 	addle	r3, r0, r3, lsl #3
    3d1c:	d5032100 	strle	r2, [r3, #-256]	; 0xffffff00
    3d20:	c5922000 	ldrgt	r2, [r2]
    3d24:	e59d304c 	ldr	r3, [sp, #76]	; 0x4c
    3d28:	e5823000 	str	r3, [r2]
    3d2c:	e1a08001 	mov	r8, r1
    3d30:	eaffff71 	b	0x3afc
    3d34:	e58d903c 	str	r9, [sp, #60]	; 0x3c
    3d38:	e58d2044 	str	r2, [sp, #68]	; 0x44
    3d3c:	e58d1024 	str	r1, [sp, #36]	; 0x24
    3d40:	e59d9030 	ldr	r9, [sp, #48]	; 0x30
    3d44:	e58d0018 	str	r0, [sp, #24]
    3d48:	e38aa010 	orr	sl, sl, #16
    3d4c:	ea000004 	b	0x3d64
    3d50:	e58d903c 	str	r9, [sp, #60]	; 0x3c
    3d54:	e58d2044 	str	r2, [sp, #68]	; 0x44
    3d58:	e58d1024 	str	r1, [sp, #36]	; 0x24
    3d5c:	e59d9030 	ldr	r9, [sp, #48]	; 0x30
    3d60:	e58d0018 	str	r0, [sp, #24]
    3d64:	e31a0020 	tst	sl, #32
    3d68:	e59d208c 	ldr	r2, [sp, #140]	; 0x8c
    3d6c:	0a00002d 	beq	0x3e28
    3d70:	e3570000 	cmp	r7, #0
    3d74:	0a000015 	beq	0x3dd0
    3d78:	e1550002 	cmp	r5, r2
    3d7c:	b28d3fba 	addlt	r3, sp, #744	; 0x2e8
    3d80:	b0835185 	addlt	r5, r3, r5, lsl #3
    3d84:	b2455c01 	sublt	r5, r5, #256	; 0x100
    3d88:	b8950030 	ldmlt	r5, {r4, r5}
    3d8c:	ba00000d 	blt	0x3dc8
    3d90:	e28d3090 	add	r3, sp, #144	; 0x90
    3d94:	e58d300c 	str	r3, [sp, #12]
    3d98:	e28d3f5a 	add	r3, sp, #360	; 0x168
    3d9c:	e58d3008 	str	r3, [sp, #8]
    3da0:	e28d3f7a 	add	r3, sp, #488	; 0x1e8
    3da4:	e58d3004 	str	r3, [sp, #4]
    3da8:	e28d308c 	add	r3, sp, #140	; 0x8c
    3dac:	e58d3000 	str	r3, [sp]
    3db0:	e1a01005 	mov	r1, r5
    3db4:	e28d307c 	add	r3, sp, #124	; 0x7c
    3db8:	e1a02006 	mov	r2, r6
    3dbc:	e1a0000b 	mov	r0, fp
    3dc0:	ebfff843 	bl	0x1ed4
    3dc4:	e8900030 	ldm	r0, {r4, r5}
    3dc8:	e1a03008 	mov	r3, r8
    3dcc:	ea0000b0 	b	0x4094
    3dd0:	e1580002 	cmp	r8, r2
    3dd4:	e2883001 	add	r3, r8, #1
    3dd8:	b28d2fba 	addlt	r2, sp, #744	; 0x2e8
    3ddc:	b0825185 	addlt	r5, r2, r5, lsl #3
    3de0:	b2455c01 	sublt	r5, r5, #256	; 0x100
    3de4:	b8950030 	ldmlt	r5, {r4, r5}
    3de8:	ba0000a9 	blt	0x4094
    3dec:	e59d107c 	ldr	r1, [sp, #124]	; 0x7c
    3df0:	e2811007 	add	r1, r1, #7
    3df4:	e3c11007 	bic	r1, r1, #7
    3df8:	e8b10030 	ldm	r1!, {r4, r5}
    3dfc:	e352001f 	cmp	r2, #31
    3e00:	c58d107c 	strgt	r1, [sp, #124]	; 0x7c
    3e04:	ca0000a2 	bgt	0x4094
    3e08:	e58d107c 	str	r1, [sp, #124]	; 0x7c
    3e0c:	e28d1fba 	add	r1, sp, #744	; 0x2e8
    3e10:	e2820001 	add	r0, r2, #1
    3e14:	e0812182 	add	r2, r1, r2, lsl #3
    3e18:	e58d008c 	str	r0, [sp, #140]	; 0x8c
    3e1c:	e5024100 	str	r4, [r2, #-256]	; 0xffffff00
    3e20:	e50250fc 	str	r5, [r2, #-252]	; 0xffffff04
    3e24:	ea00009a 	b	0x4094
    3e28:	e31a0010 	tst	sl, #16
    3e2c:	0a00000d 	beq	0x3e68
    3e30:	e3570000 	cmp	r7, #0
    3e34:	1a00006c 	bne	0x3fec
    3e38:	e1580002 	cmp	r8, r2
    3e3c:	e2883001 	add	r3, r8, #1
    3e40:	ba000081 	blt	0x404c
    3e44:	e59d107c 	ldr	r1, [sp, #124]	; 0x7c
    3e48:	e352001f 	cmp	r2, #31
    3e4c:	e4914004 	ldr	r4, [r1], #4
    3e50:	d2820001 	addle	r0, r2, #1
    3e54:	d58d008c 	strle	r0, [sp, #140]	; 0x8c
    3e58:	d58d107c 	strle	r1, [sp, #124]	; 0x7c
    3e5c:	c58d107c 	strgt	r1, [sp, #124]	; 0x7c
    3e60:	ca00008a 	bgt	0x4090
    3e64:	ea000086 	b	0x4084
    3e68:	e31a0040 	tst	sl, #64	; 0x40
    3e6c:	0a00002e 	beq	0x3f2c
    3e70:	e3570000 	cmp	r7, #0
    3e74:	0a000016 	beq	0x3ed4
    3e78:	e1550002 	cmp	r5, r2
    3e7c:	aa000005 	bge	0x3e98
    3e80:	e28d3fba 	add	r3, sp, #744	; 0x2e8
    3e84:	e0835185 	add	r5, r3, r5, lsl #3
    3e88:	e5154100 	ldr	r4, [r5, #-256]	; 0xffffff00
    3e8c:	e1a04804 	lsl	r4, r4, #16
    3e90:	e1a04824 	lsr	r4, r4, #16
    3e94:	ea000067 	b	0x4038
    3e98:	e28d3090 	add	r3, sp, #144	; 0x90
    3e9c:	e58d300c 	str	r3, [sp, #12]
    3ea0:	e28d3f5a 	add	r3, sp, #360	; 0x168
    3ea4:	e58d3008 	str	r3, [sp, #8]
    3ea8:	e28d3f7a 	add	r3, sp, #488	; 0x1e8
    3eac:	e58d3004 	str	r3, [sp, #4]
    3eb0:	e28d308c 	add	r3, sp, #140	; 0x8c
    3eb4:	e58d3000 	str	r3, [sp]
    3eb8:	e1a02006 	mov	r2, r6
    3ebc:	e28d307c 	add	r3, sp, #124	; 0x7c
    3ec0:	e1a01005 	mov	r1, r5
    3ec4:	e1a0000b 	mov	r0, fp
    3ec8:	ebfff801 	bl	0x1ed4
    3ecc:	e1d040b0 	ldrh	r4, [r0]
    3ed0:	ea000058 	b	0x4038
    3ed4:	e1580002 	cmp	r8, r2
    3ed8:	b28d2fba 	addlt	r2, sp, #744	; 0x2e8
    3edc:	b0825185 	addlt	r5, r2, r5, lsl #3
    3ee0:	e2883001 	add	r3, r8, #1
    3ee4:	b5154100 	ldrlt	r4, [r5, #-256]	; 0xffffff00
    3ee8:	ba00000c 	blt	0x3f20
    3eec:	e59d107c 	ldr	r1, [sp, #124]	; 0x7c
    3ef0:	e352001f 	cmp	r2, #31
    3ef4:	e2810004 	add	r0, r1, #4
    3ef8:	c58d007c 	strgt	r0, [sp, #124]	; 0x7c
    3efc:	c1d140b0 	ldrhgt	r4, [r1]
    3f00:	ca000062 	bgt	0x4090
    3f04:	e282c001 	add	ip, r2, #1
    3f08:	e58dc08c 	str	ip, [sp, #140]	; 0x8c
    3f0c:	e5914000 	ldr	r4, [r1]
    3f10:	e28d1fba 	add	r1, sp, #744	; 0x2e8
    3f14:	e0812182 	add	r2, r1, r2, lsl #3
    3f18:	e58d007c 	str	r0, [sp, #124]	; 0x7c
    3f1c:	e5024100 	str	r4, [r2, #-256]	; 0xffffff00
    3f20:	e1a04804 	lsl	r4, r4, #16
    3f24:	e1a04824 	lsr	r4, r4, #16
    3f28:	ea000058 	b	0x4090
    3f2c:	e31a0c02 	tst	sl, #512	; 0x200
    3f30:	0a00002b 	beq	0x3fe4
    3f34:	e3570000 	cmp	r7, #0
    3f38:	0a000014 	beq	0x3f90
    3f3c:	e1550002 	cmp	r5, r2
    3f40:	b28d3fba 	addlt	r3, sp, #744	; 0x2e8
    3f44:	b0835185 	addlt	r5, r3, r5, lsl #3
    3f48:	b5554100 	ldrblt	r4, [r5, #-256]	; 0xffffff00
    3f4c:	ba00000d 	blt	0x3f88
    3f50:	e28d3090 	add	r3, sp, #144	; 0x90
    3f54:	e58d300c 	str	r3, [sp, #12]
    3f58:	e28d3f5a 	add	r3, sp, #360	; 0x168
    3f5c:	e58d3008 	str	r3, [sp, #8]
    3f60:	e28d3f7a 	add	r3, sp, #488	; 0x1e8
    3f64:	e58d3004 	str	r3, [sp, #4]
    3f68:	e28d308c 	add	r3, sp, #140	; 0x8c
    3f6c:	e58d3000 	str	r3, [sp]
    3f70:	e1a02006 	mov	r2, r6
    3f74:	e28d307c 	add	r3, sp, #124	; 0x7c
    3f78:	e1a01005 	mov	r1, r5
    3f7c:	e1a0000b 	mov	r0, fp
    3f80:	ebfff7d3 	bl	0x1ed4
    3f84:	e5d04000 	ldrb	r4, [r0]
    3f88:	e1a03008 	mov	r3, r8
    3f8c:	ea000012 	b	0x3fdc
    3f90:	e1580002 	cmp	r8, r2
    3f94:	b28d2fba 	addlt	r2, sp, #744	; 0x2e8
    3f98:	b0825185 	addlt	r5, r2, r5, lsl #3
    3f9c:	e2883001 	add	r3, r8, #1
    3fa0:	b5554100 	ldrblt	r4, [r5, #-256]	; 0xffffff00
    3fa4:	ba00000c 	blt	0x3fdc
    3fa8:	e352001f 	cmp	r2, #31
    3fac:	d282c001 	addle	ip, r2, #1
    3fb0:	e59d107c 	ldr	r1, [sp, #124]	; 0x7c
    3fb4:	d58dc08c 	strle	ip, [sp, #140]	; 0x8c
    3fb8:	e2810004 	add	r0, r1, #4
    3fbc:	d5914000 	ldrle	r4, [r1]
    3fc0:	d28d1fba 	addle	r1, sp, #744	; 0x2e8
    3fc4:	d0812182 	addle	r2, r1, r2, lsl #3
    3fc8:	d58d007c 	strle	r0, [sp, #124]	; 0x7c
    3fcc:	c58d007c 	strgt	r0, [sp, #124]	; 0x7c
    3fd0:	c5d14000 	ldrbgt	r4, [r1]
    3fd4:	d5024100 	strle	r4, [r2, #-256]	; 0xffffff00
    3fd8:	d20440ff 	andle	r4, r4, #255	; 0xff
    3fdc:	e20440ff 	and	r4, r4, #255	; 0xff
    3fe0:	ea00002a 	b	0x4090
    3fe4:	e3570000 	cmp	r7, #0
    3fe8:	0a000014 	beq	0x4040
    3fec:	e1550002 	cmp	r5, r2
    3ff0:	b28d3fba 	addlt	r3, sp, #744	; 0x2e8
    3ff4:	b0835185 	addlt	r5, r3, r5, lsl #3
    3ff8:	b5154100 	ldrlt	r4, [r5, #-256]	; 0xffffff00
    3ffc:	ba00000d 	blt	0x4038
    4000:	e28d3090 	add	r3, sp, #144	; 0x90
    4004:	e58d300c 	str	r3, [sp, #12]
    4008:	e28d3f5a 	add	r3, sp, #360	; 0x168
    400c:	e58d3008 	str	r3, [sp, #8]
    4010:	e28d3f7a 	add	r3, sp, #488	; 0x1e8
    4014:	e58d3004 	str	r3, [sp, #4]
    4018:	e28d308c 	add	r3, sp, #140	; 0x8c
    401c:	e58d3000 	str	r3, [sp]
    4020:	e1a02006 	mov	r2, r6
    4024:	e28d307c 	add	r3, sp, #124	; 0x7c
    4028:	e1a01005 	mov	r1, r5
    402c:	e1a0000b 	mov	r0, fp
    4030:	ebfff7a7 	bl	0x1ed4
    4034:	e5904000 	ldr	r4, [r0]
    4038:	e1a03008 	mov	r3, r8
    403c:	ea000013 	b	0x4090
    4040:	e1580002 	cmp	r8, r2
    4044:	e2883001 	add	r3, r8, #1
    4048:	aa000003 	bge	0x405c
    404c:	e28d2fba 	add	r2, sp, #744	; 0x2e8
    4050:	e0825185 	add	r5, r2, r5, lsl #3
    4054:	e5154100 	ldr	r4, [r5, #-256]	; 0xffffff00
    4058:	ea00000c 	b	0x4090
    405c:	e59d107c 	ldr	r1, [sp, #124]	; 0x7c
    4060:	e352001f 	cmp	r2, #31
    4064:	e2810004 	add	r0, r1, #4
    4068:	c58d007c 	strgt	r0, [sp, #124]	; 0x7c
    406c:	c5914000 	ldrgt	r4, [r1]
    4070:	ca000006 	bgt	0x4090
    4074:	e282c001 	add	ip, r2, #1
    4078:	e58dc08c 	str	ip, [sp, #140]	; 0x8c
    407c:	e58d007c 	str	r0, [sp, #124]	; 0x7c
    4080:	e5914000 	ldr	r4, [r1]
    4084:	e28d1fba 	add	r1, sp, #744	; 0x2e8
    4088:	e0812182 	add	r2, r1, r2, lsl #3
    408c:	e5024100 	str	r4, [r2, #-256]	; 0xffffff00
    4090:	e3a05000 	mov	r5, #0
    4094:	e3caab01 	bic	sl, sl, #1024	; 0x400
    4098:	e3a02000 	mov	r2, #0
    409c:	ea0002b4 	b	0x4b74
    40a0:	e3570000 	cmp	r7, #0
    40a4:	e58d2044 	str	r2, [sp, #68]	; 0x44
    40a8:	e58d903c 	str	r9, [sp, #60]	; 0x3c
    40ac:	e58d0018 	str	r0, [sp, #24]
    40b0:	e59d9030 	ldr	r9, [sp, #48]	; 0x30
    40b4:	e59d208c 	ldr	r2, [sp, #140]	; 0x8c
    40b8:	0a000014 	beq	0x4110
    40bc:	e1550002 	cmp	r5, r2
    40c0:	b28d3fba 	addlt	r3, sp, #744	; 0x2e8
    40c4:	b0835185 	addlt	r5, r3, r5, lsl #3
    40c8:	b5154100 	ldrlt	r4, [r5, #-256]	; 0xffffff00
    40cc:	ba00000d 	blt	0x4108
    40d0:	e28d3090 	add	r3, sp, #144	; 0x90
    40d4:	e58d300c 	str	r3, [sp, #12]
    40d8:	e28d3f5a 	add	r3, sp, #360	; 0x168
    40dc:	e58d3008 	str	r3, [sp, #8]
    40e0:	e28d3f7a 	add	r3, sp, #488	; 0x1e8
    40e4:	e58d3004 	str	r3, [sp, #4]
    40e8:	e28d308c 	add	r3, sp, #140	; 0x8c
    40ec:	e58d3000 	str	r3, [sp]
    40f0:	e1a02006 	mov	r2, r6
    40f4:	e28d307c 	add	r3, sp, #124	; 0x7c
    40f8:	e1a01005 	mov	r1, r5
    40fc:	e1a0000b 	mov	r0, fp
    4100:	ebfff773 	bl	0x1ed4
    4104:	e5904000 	ldr	r4, [r0]
    4108:	e1a03008 	mov	r3, r8
    410c:	ea000011 	b	0x4158
    4110:	e1580002 	cmp	r8, r2
    4114:	b28d2fba 	addlt	r2, sp, #744	; 0x2e8
    4118:	b0825185 	addlt	r5, r2, r5, lsl #3
    411c:	e2883001 	add	r3, r8, #1
    4120:	b5154100 	ldrlt	r4, [r5, #-256]	; 0xffffff00
    4124:	ba00000b 	blt	0x4158
    4128:	e59d107c 	ldr	r1, [sp, #124]	; 0x7c
    412c:	e352001f 	cmp	r2, #31
    4130:	e2810004 	add	r0, r1, #4
    4134:	d58d007c 	strle	r0, [sp, #124]	; 0x7c
    4138:	c58d007c 	strgt	r0, [sp, #124]	; 0x7c
    413c:	d5914000 	ldrle	r4, [r1]
    4140:	d28d1fba 	addle	r1, sp, #744	; 0x2e8
    4144:	d282c001 	addle	ip, r2, #1
    4148:	d0812182 	addle	r2, r1, r2, lsl #3
    414c:	d58dc08c 	strle	ip, [sp, #140]	; 0x8c
    4150:	d5024100 	strle	r4, [r2, #-256]	; 0xffffff00
    4154:	c5914000 	ldrgt	r4, [r1]
    4158:	e3a01078 	mov	r1, #120	; 0x78
    415c:	e51f2cd0 	ldr	r2, [pc, #-3280]	; 0x3494
    4160:	e1cd28b8 	strh	r2, [sp, #136]	; 0x88
    4164:	e51f2cd4 	ldr	r2, [pc, #-3284]	; 0x3498
    4168:	e3a05000 	mov	r5, #0
    416c:	e58d2070 	str	r2, [sp, #112]	; 0x70
    4170:	e38aa002 	orr	sl, sl, #2
    4174:	e3a02002 	mov	r2, #2
    4178:	e58d1024 	str	r1, [sp, #36]	; 0x24
    417c:	ea00027c 	b	0x4b74
    4180:	e3570000 	cmp	r7, #0
    4184:	e58d903c 	str	r9, [sp, #60]	; 0x3c
    4188:	e58d2044 	str	r2, [sp, #68]	; 0x44
    418c:	e58d1024 	str	r1, [sp, #36]	; 0x24
    4190:	e59d9030 	ldr	r9, [sp, #48]	; 0x30
    4194:	e58d0018 	str	r0, [sp, #24]
    4198:	e59d308c 	ldr	r3, [sp, #140]	; 0x8c
    419c:	0a000014 	beq	0x41f4
    41a0:	e1550003 	cmp	r5, r3
    41a4:	b28d3fba 	addlt	r3, sp, #744	; 0x2e8
    41a8:	b0835185 	addlt	r5, r3, r5, lsl #3
    41ac:	b5153100 	ldrlt	r3, [r5, #-256]	; 0xffffff00
    41b0:	ba00000d 	blt	0x41ec
    41b4:	e28d3090 	add	r3, sp, #144	; 0x90
    41b8:	e58d300c 	str	r3, [sp, #12]
    41bc:	e28d3f5a 	add	r3, sp, #360	; 0x168
    41c0:	e58d3008 	str	r3, [sp, #8]
    41c4:	e28d3f7a 	add	r3, sp, #488	; 0x1e8
    41c8:	e58d3004 	str	r3, [sp, #4]
    41cc:	e28d308c 	add	r3, sp, #140	; 0x8c
    41d0:	e58d3000 	str	r3, [sp]
    41d4:	e1a02006 	mov	r2, r6
    41d8:	e28d307c 	add	r3, sp, #124	; 0x7c
    41dc:	e1a01005 	mov	r1, r5
    41e0:	e1a0000b 	mov	r0, fp
    41e4:	ebfff73a 	bl	0x1ed4
    41e8:	e5903000 	ldr	r3, [r0]
    41ec:	e58d301c 	str	r3, [sp, #28]
    41f0:	ea000017 	b	0x4254
    41f4:	e1580003 	cmp	r8, r3
    41f8:	b28d3fba 	addlt	r3, sp, #744	; 0x2e8
    41fc:	b0835185 	addlt	r5, r3, r5, lsl #3
    4200:	e2882001 	add	r2, r8, #1
    4204:	b5153100 	ldrlt	r3, [r5, #-256]	; 0xffffff00
    4208:	ba00000f 	blt	0x424c
    420c:	e59d107c 	ldr	r1, [sp, #124]	; 0x7c
    4210:	e353001f 	cmp	r3, #31
    4214:	e2810004 	add	r0, r1, #4
    4218:	ca000009 	bgt	0x4244
    421c:	e58d007c 	str	r0, [sp, #124]	; 0x7c
    4220:	e5911000 	ldr	r1, [r1]
    4224:	e58d101c 	str	r1, [sp, #28]
    4228:	e28d1fba 	add	r1, sp, #744	; 0x2e8
    422c:	e283c001 	add	ip, r3, #1
    4230:	e0813183 	add	r3, r1, r3, lsl #3
    4234:	e59d101c 	ldr	r1, [sp, #28]
    4238:	e58dc08c 	str	ip, [sp, #140]	; 0x8c
    423c:	e5031100 	str	r1, [r3, #-256]	; 0xffffff00
    4240:	ea000002 	b	0x4250
    4244:	e58d007c 	str	r0, [sp, #124]	; 0x7c
    4248:	e5913000 	ldr	r3, [r1]
    424c:	e58d301c 	str	r3, [sp, #28]
    4250:	e1a08002 	mov	r8, r2
    4254:	e3a03000 	mov	r3, #0
    4258:	e5cd3087 	strb	r3, [sp, #135]	; 0x87
    425c:	e59d301c 	ldr	r3, [sp, #28]
    4260:	e3530000 	cmp	r3, #0
    4264:	1a00000a 	bne	0x4294
    4268:	e59d3018 	ldr	r3, [sp, #24]
    426c:	e59d701c 	ldr	r7, [sp, #28]
    4270:	e3530006 	cmp	r3, #6
    4274:	31a05003 	movcc	r5, r3
    4278:	23a05006 	movcs	r5, #6
    427c:	e58d7018 	str	r7, [sp, #24]
    4280:	e58d7030 	str	r7, [sp, #48]	; 0x30
    4284:	e58d7034 	str	r7, [sp, #52]	; 0x34
    4288:	e1a06007 	mov	r6, r7
    428c:	e51f3df8 	ldr	r3, [pc, #-3576]	; 0x349c
    4290:	ea0002d7 	b	0x4df4
    4294:	e59d3024 	ldr	r3, [sp, #36]	; 0x24
    4298:	e3530053 	cmp	r3, #83	; 0x53
    429c:	0a000001 	beq	0x42a8
    42a0:	e21a6010 	ands	r6, sl, #16
    42a4:	0a00005f 	beq	0x4428
    42a8:	e59d301c 	ldr	r3, [sp, #28]
    42ac:	e28d40b0 	add	r4, sp, #176	; 0xb0
    42b0:	e3a02008 	mov	r2, #8
    42b4:	e3a01000 	mov	r1, #0
    42b8:	e1a00004 	mov	r0, r4
    42bc:	e58d309c 	str	r3, [sp, #156]	; 0x9c
    42c0:	eb0010c7 	bl	0x85e4
    42c4:	e59d3018 	ldr	r3, [sp, #24]
    42c8:	e3730001 	cmn	r3, #1
    42cc:	0a000013 	beq	0x4320
    42d0:	e3a06000 	mov	r6, #0
    42d4:	e1a05006 	mov	r5, r6
    42d8:	e59d309c 	ldr	r3, [sp, #156]	; 0x9c
    42dc:	e7932006 	ldr	r2, [r3, r6]
    42e0:	e3520000 	cmp	r2, #0
    42e4:	0a000018 	beq	0x434c
    42e8:	e1a03004 	mov	r3, r4
    42ec:	e28d1f41 	add	r1, sp, #260	; 0x104
    42f0:	e1a0000b 	mov	r0, fp
    42f4:	eb000669 	bl	0x5ca0
    42f8:	e3700001 	cmn	r0, #1
    42fc:	0a00001c 	beq	0x4374
    4300:	e59d3018 	ldr	r3, [sp, #24]
    4304:	e0850000 	add	r0, r5, r0
    4308:	e1500003 	cmp	r0, r3
    430c:	ca00000e 	bgt	0x434c
    4310:	e2866004 	add	r6, r6, #4
    4314:	e1a05000 	mov	r5, r0
    4318:	1affffee 	bne	0x42d8
    431c:	ea00000a 	b	0x434c
    4320:	e3a03000 	mov	r3, #0
    4324:	e58d4000 	str	r4, [sp]
    4328:	e28d209c 	add	r2, sp, #156	; 0x9c
    432c:	e1a01003 	mov	r1, r3
    4330:	e1a0000b 	mov	r0, fp
    4334:	eb000684 	bl	0x5d4c
    4338:	e3700001 	cmn	r0, #1
    433c:	e1a05000 	mov	r5, r0
    4340:	0a00000b 	beq	0x4374
    4344:	e59d301c 	ldr	r3, [sp, #28]
    4348:	e58d309c 	str	r3, [sp, #156]	; 0x9c
    434c:	e3550000 	cmp	r5, #0
    4350:	0a00002e 	beq	0x4410
    4354:	e3550063 	cmp	r5, #99	; 0x63
    4358:	da00000b 	ble	0x438c
    435c:	e2851001 	add	r1, r5, #1
    4360:	e1a0000b 	mov	r0, fp
    4364:	eb000db6 	bl	0x7a44
    4368:	e2503000 	subs	r3, r0, #0
    436c:	e58d301c 	str	r3, [sp, #28]
    4370:	1a000009 	bne	0x439c
    4374:	e59d3020 	ldr	r3, [sp, #32]
    4378:	e1d330bc 	ldrh	r3, [r3, #12]
    437c:	e59d2020 	ldr	r2, [sp, #32]
    4380:	e3833040 	orr	r3, r3, #64	; 0x40
    4384:	e1c230bc 	strh	r3, [r2, #12]
    4388:	ea00063a 	b	0x5c78
    438c:	e28d3f41 	add	r3, sp, #260	; 0x104
    4390:	e3a07000 	mov	r7, #0
    4394:	e58d301c 	str	r3, [sp, #28]
    4398:	ea000000 	b	0x43a0
    439c:	e59d701c 	ldr	r7, [sp, #28]
    43a0:	e28d40b0 	add	r4, sp, #176	; 0xb0
    43a4:	e3a02008 	mov	r2, #8
    43a8:	e3a01000 	mov	r1, #0
    43ac:	e1a00004 	mov	r0, r4
    43b0:	eb00108b 	bl	0x85e4
    43b4:	e58d4000 	str	r4, [sp]
    43b8:	e1a03005 	mov	r3, r5
    43bc:	e28d209c 	add	r2, sp, #156	; 0x9c
    43c0:	e59d101c 	ldr	r1, [sp, #28]
    43c4:	e1a0000b 	mov	r0, fp
    43c8:	eb00065f 	bl	0x5d4c
    43cc:	e1550000 	cmp	r5, r0
    43d0:	0a000006 	beq	0x43f0
    43d4:	e59d3020 	ldr	r3, [sp, #32]
    43d8:	e1d330bc 	ldrh	r3, [r3, #12]
    43dc:	e59d2020 	ldr	r2, [sp, #32]
    43e0:	e3833040 	orr	r3, r3, #64	; 0x40
    43e4:	e1a0a007 	mov	sl, r7
    43e8:	e1c230bc 	strh	r3, [r2, #12]
    43ec:	ea00061d 	b	0x5c68
    43f0:	e3a04000 	mov	r4, #0
    43f4:	e59d301c 	ldr	r3, [sp, #28]
    43f8:	e58d4018 	str	r4, [sp, #24]
    43fc:	e7c34005 	strb	r4, [r3, r5]
    4400:	e58d4030 	str	r4, [sp, #48]	; 0x30
    4404:	e58d4034 	str	r4, [sp, #52]	; 0x34
    4408:	e1a06004 	mov	r6, r4
    440c:	ea000280 	b	0x4e14
    4410:	e58d5018 	str	r5, [sp, #24]
    4414:	e58d5030 	str	r5, [sp, #48]	; 0x30
    4418:	e58d5034 	str	r5, [sp, #52]	; 0x34
    441c:	e1a06005 	mov	r6, r5
    4420:	e1a07005 	mov	r7, r5
    4424:	ea00027a 	b	0x4e14
    4428:	e59d3018 	ldr	r3, [sp, #24]
    442c:	e3730001 	cmn	r3, #1
    4430:	0a000008 	beq	0x4458
    4434:	e1a02003 	mov	r2, r3
    4438:	e1a01006 	mov	r1, r6
    443c:	e59d001c 	ldr	r0, [sp, #28]
    4440:	eb001023 	bl	0x84d4
    4444:	e2507000 	subs	r7, r0, #0
    4448:	159d301c 	ldrne	r3, [sp, #28]
    444c:	10475003 	subne	r5, r7, r3
    4450:	1a000003 	bne	0x4464
    4454:	ea00026a 	b	0x4e04
    4458:	e59d001c 	ldr	r0, [sp, #28]
    445c:	eb00133e 	bl	0x915c
    4460:	e1a05000 	mov	r5, r0
    4464:	e58d6018 	str	r6, [sp, #24]
    4468:	e58d6030 	str	r6, [sp, #48]	; 0x30
    446c:	e58d6034 	str	r6, [sp, #52]	; 0x34
    4470:	e1a07006 	mov	r7, r6
    4474:	ea000266 	b	0x4e14
    4478:	e58d903c 	str	r9, [sp, #60]	; 0x3c
    447c:	e58d2044 	str	r2, [sp, #68]	; 0x44
    4480:	e58d1024 	str	r1, [sp, #36]	; 0x24
    4484:	e59d9030 	ldr	r9, [sp, #48]	; 0x30
    4488:	e58d0018 	str	r0, [sp, #24]
    448c:	e38aa010 	orr	sl, sl, #16
    4490:	ea000004 	b	0x44a8
    4494:	e58d903c 	str	r9, [sp, #60]	; 0x3c
    4498:	e58d2044 	str	r2, [sp, #68]	; 0x44
    449c:	e58d1024 	str	r1, [sp, #36]	; 0x24
    44a0:	e59d9030 	ldr	r9, [sp, #48]	; 0x30
    44a4:	e58d0018 	str	r0, [sp, #24]
    44a8:	e31a0020 	tst	sl, #32
    44ac:	e59d208c 	ldr	r2, [sp, #140]	; 0x8c
    44b0:	0a00002d 	beq	0x456c
    44b4:	e3570000 	cmp	r7, #0
    44b8:	0a000015 	beq	0x4514
    44bc:	e1550002 	cmp	r5, r2
    44c0:	b28d3fba 	addlt	r3, sp, #744	; 0x2e8
    44c4:	b0835185 	addlt	r5, r3, r5, lsl #3
    44c8:	b2455c01 	sublt	r5, r5, #256	; 0x100
    44cc:	b8950030 	ldmlt	r5, {r4, r5}
    44d0:	ba00000d 	blt	0x450c
    44d4:	e28d3090 	add	r3, sp, #144	; 0x90
    44d8:	e58d300c 	str	r3, [sp, #12]
    44dc:	e28d3f5a 	add	r3, sp, #360	; 0x168
    44e0:	e58d3008 	str	r3, [sp, #8]
    44e4:	e28d3f7a 	add	r3, sp, #488	; 0x1e8
    44e8:	e58d3004 	str	r3, [sp, #4]
    44ec:	e28d308c 	add	r3, sp, #140	; 0x8c
    44f0:	e58d3000 	str	r3, [sp]
    44f4:	e1a01005 	mov	r1, r5
    44f8:	e28d307c 	add	r3, sp, #124	; 0x7c
    44fc:	e1a02006 	mov	r2, r6
    4500:	e1a0000b 	mov	r0, fp
    4504:	ebfff672 	bl	0x1ed4
    4508:	e8900030 	ldm	r0, {r4, r5}
    450c:	e1a03008 	mov	r3, r8
    4510:	ea000084 	b	0x4728
    4514:	e1580002 	cmp	r8, r2
    4518:	e2883001 	add	r3, r8, #1
    451c:	b28d2fba 	addlt	r2, sp, #744	; 0x2e8
    4520:	b0825185 	addlt	r5, r2, r5, lsl #3
    4524:	b2455c01 	sublt	r5, r5, #256	; 0x100
    4528:	b8950030 	ldmlt	r5, {r4, r5}
    452c:	ba00007d 	blt	0x4728
    4530:	e59d107c 	ldr	r1, [sp, #124]	; 0x7c
    4534:	e2811007 	add	r1, r1, #7
    4538:	e3c11007 	bic	r1, r1, #7
    453c:	e8b10030 	ldm	r1!, {r4, r5}
    4540:	e352001f 	cmp	r2, #31
    4544:	c58d107c 	strgt	r1, [sp, #124]	; 0x7c
    4548:	ca000076 	bgt	0x4728
    454c:	e58d107c 	str	r1, [sp, #124]	; 0x7c
    4550:	e28d1fba 	add	r1, sp, #744	; 0x2e8
    4554:	e2820001 	add	r0, r2, #1
    4558:	e0812182 	add	r2, r1, r2, lsl #3
    455c:	e58d008c 	str	r0, [sp, #140]	; 0x8c
    4560:	e5024100 	str	r4, [r2, #-256]	; 0xffffff00
    4564:	e50250fc 	str	r5, [r2, #-252]	; 0xffffff04
    4568:	ea00006e 	b	0x4728
    456c:	e31a0010 	tst	sl, #16
    4570:	0a00000d 	beq	0x45ac
    4574:	e3570000 	cmp	r7, #0
    4578:	1a00006e 	bne	0x4738
    457c:	e1580002 	cmp	r8, r2
    4580:	e2883001 	add	r3, r8, #1
    4584:	ba000083 	blt	0x4798
    4588:	e59d107c 	ldr	r1, [sp, #124]	; 0x7c
    458c:	e352001f 	cmp	r2, #31
    4590:	e4914004 	ldr	r4, [r1], #4
    4594:	d2820001 	addle	r0, r2, #1
    4598:	d58d008c 	strle	r0, [sp, #140]	; 0x8c
    459c:	d58d107c 	strle	r1, [sp, #124]	; 0x7c
    45a0:	c58d107c 	strgt	r1, [sp, #124]	; 0x7c
    45a4:	ca00005e 	bgt	0x4724
    45a8:	ea000088 	b	0x47d0
    45ac:	e31a0040 	tst	sl, #64	; 0x40
    45b0:	0a00002e 	beq	0x4670
    45b4:	e3570000 	cmp	r7, #0
    45b8:	0a000016 	beq	0x4618
    45bc:	e1550002 	cmp	r5, r2
    45c0:	aa000005 	bge	0x45dc
    45c4:	e28d3fba 	add	r3, sp, #744	; 0x2e8
    45c8:	e0835185 	add	r5, r3, r5, lsl #3
    45cc:	e5154100 	ldr	r4, [r5, #-256]	; 0xffffff00
    45d0:	e1a04804 	lsl	r4, r4, #16
    45d4:	e1a04824 	lsr	r4, r4, #16
    45d8:	ea000069 	b	0x4784
    45dc:	e28d3090 	add	r3, sp, #144	; 0x90
    45e0:	e58d300c 	str	r3, [sp, #12]
    45e4:	e28d3f5a 	add	r3, sp, #360	; 0x168
    45e8:	e58d3008 	str	r3, [sp, #8]
    45ec:	e28d3f7a 	add	r3, sp, #488	; 0x1e8
    45f0:	e58d3004 	str	r3, [sp, #4]
    45f4:	e28d308c 	add	r3, sp, #140	; 0x8c
    45f8:	e58d3000 	str	r3, [sp]
    45fc:	e1a02006 	mov	r2, r6
    4600:	e28d307c 	add	r3, sp, #124	; 0x7c
    4604:	e1a01005 	mov	r1, r5
    4608:	e1a0000b 	mov	r0, fp
    460c:	ebfff630 	bl	0x1ed4
    4610:	e1d040b0 	ldrh	r4, [r0]
    4614:	ea00005a 	b	0x4784
    4618:	e1580002 	cmp	r8, r2
    461c:	b28d2fba 	addlt	r2, sp, #744	; 0x2e8
    4620:	b0825185 	addlt	r5, r2, r5, lsl #3
    4624:	e2883001 	add	r3, r8, #1
    4628:	b5154100 	ldrlt	r4, [r5, #-256]	; 0xffffff00
    462c:	ba00000c 	blt	0x4664
    4630:	e59d107c 	ldr	r1, [sp, #124]	; 0x7c
    4634:	e352001f 	cmp	r2, #31
    4638:	e2810004 	add	r0, r1, #4
    463c:	c58d007c 	strgt	r0, [sp, #124]	; 0x7c
    4640:	c1d140b0 	ldrhgt	r4, [r1]
    4644:	ca000036 	bgt	0x4724
    4648:	e282c001 	add	ip, r2, #1
    464c:	e58dc08c 	str	ip, [sp, #140]	; 0x8c
    4650:	e5914000 	ldr	r4, [r1]
    4654:	e28d1fba 	add	r1, sp, #744	; 0x2e8
    4658:	e0812182 	add	r2, r1, r2, lsl #3
    465c:	e58d007c 	str	r0, [sp, #124]	; 0x7c
    4660:	e5024100 	str	r4, [r2, #-256]	; 0xffffff00
    4664:	e1a04804 	lsl	r4, r4, #16
    4668:	e1a04824 	lsr	r4, r4, #16
    466c:	ea00002c 	b	0x4724
    4670:	e31a0c02 	tst	sl, #512	; 0x200
    4674:	0a00002d 	beq	0x4730
    4678:	e3570000 	cmp	r7, #0
    467c:	0a000014 	beq	0x46d4
    4680:	e1550002 	cmp	r5, r2
    4684:	b28d3fba 	addlt	r3, sp, #744	; 0x2e8
    4688:	b0835185 	addlt	r5, r3, r5, lsl #3
    468c:	b5554100 	ldrblt	r4, [r5, #-256]	; 0xffffff00
    4690:	ba00000d 	blt	0x46cc
    4694:	e28d3090 	add	r3, sp, #144	; 0x90
    4698:	e58d300c 	str	r3, [sp, #12]
    469c:	e28d3f5a 	add	r3, sp, #360	; 0x168
    46a0:	e58d3008 	str	r3, [sp, #8]
    46a4:	e28d3f7a 	add	r3, sp, #488	; 0x1e8
    46a8:	e58d3004 	str	r3, [sp, #4]
    46ac:	e28d308c 	add	r3, sp, #140	; 0x8c
    46b0:	e58d3000 	str	r3, [sp]
    46b4:	e1a02006 	mov	r2, r6
    46b8:	e28d307c 	add	r3, sp, #124	; 0x7c
    46bc:	e1a01005 	mov	r1, r5
    46c0:	e1a0000b 	mov	r0, fp
    46c4:	ebfff602 	bl	0x1ed4
    46c8:	e5d04000 	ldrb	r4, [r0]
    46cc:	e1a03008 	mov	r3, r8
    46d0:	ea000012 	b	0x4720
    46d4:	e1580002 	cmp	r8, r2
    46d8:	b28d2fba 	addlt	r2, sp, #744	; 0x2e8
    46dc:	b0825185 	addlt	r5, r2, r5, lsl #3
    46e0:	e2883001 	add	r3, r8, #1
    46e4:	b5554100 	ldrblt	r4, [r5, #-256]	; 0xffffff00
    46e8:	ba00000c 	blt	0x4720
    46ec:	e352001f 	cmp	r2, #31
    46f0:	d282c001 	addle	ip, r2, #1
    46f4:	e59d107c 	ldr	r1, [sp, #124]	; 0x7c
    46f8:	d58dc08c 	strle	ip, [sp, #140]	; 0x8c
    46fc:	e2810004 	add	r0, r1, #4
    4700:	d5914000 	ldrle	r4, [r1]
    4704:	d28d1fba 	addle	r1, sp, #744	; 0x2e8
    4708:	d0812182 	addle	r2, r1, r2, lsl #3
    470c:	d58d007c 	strle	r0, [sp, #124]	; 0x7c
    4710:	c58d007c 	strgt	r0, [sp, #124]	; 0x7c
    4714:	c5d14000 	ldrbgt	r4, [r1]
    4718:	d5024100 	strle	r4, [r2, #-256]	; 0xffffff00
    471c:	d20440ff 	andle	r4, r4, #255	; 0xff
    4720:	e20440ff 	and	r4, r4, #255	; 0xff
    4724:	e3a05000 	mov	r5, #0
    4728:	e3a02001 	mov	r2, #1
    472c:	ea000110 	b	0x4b74
    4730:	e3570000 	cmp	r7, #0
    4734:	0a000014 	beq	0x478c
    4738:	e1550002 	cmp	r5, r2
    473c:	b28d3fba 	addlt	r3, sp, #744	; 0x2e8
    4740:	b0835185 	addlt	r5, r3, r5, lsl #3
    4744:	b5154100 	ldrlt	r4, [r5, #-256]	; 0xffffff00
    4748:	ba00000d 	blt	0x4784
    474c:	e28d3090 	add	r3, sp, #144	; 0x90
    4750:	e58d300c 	str	r3, [sp, #12]
    4754:	e28d3f5a 	add	r3, sp, #360	; 0x168
    4758:	e58d3008 	str	r3, [sp, #8]
    475c:	e28d3f7a 	add	r3, sp, #488	; 0x1e8
    4760:	e58d3004 	str	r3, [sp, #4]
    4764:	e28d308c 	add	r3, sp, #140	; 0x8c
    4768:	e58d3000 	str	r3, [sp]
    476c:	e1a02006 	mov	r2, r6
    4770:	e28d307c 	add	r3, sp, #124	; 0x7c
    4774:	e1a01005 	mov	r1, r5
    4778:	e1a0000b 	mov	r0, fp
    477c:	ebfff5d4 	bl	0x1ed4
    4780:	e5904000 	ldr	r4, [r0]
    4784:	e1a03008 	mov	r3, r8
    4788:	eaffffe5 	b	0x4724
    478c:	e1580002 	cmp	r8, r2
    4790:	e2883001 	add	r3, r8, #1
    4794:	aa000003 	bge	0x47a8
    4798:	e28d2fba 	add	r2, sp, #744	; 0x2e8
    479c:	e0825185 	add	r5, r2, r5, lsl #3
    47a0:	e5154100 	ldr	r4, [r5, #-256]	; 0xffffff00
    47a4:	eaffffde 	b	0x4724
    47a8:	e59d107c 	ldr	r1, [sp, #124]	; 0x7c
    47ac:	e352001f 	cmp	r2, #31
    47b0:	e2810004 	add	r0, r1, #4
    47b4:	c58d007c 	strgt	r0, [sp, #124]	; 0x7c
    47b8:	c5914000 	ldrgt	r4, [r1]
    47bc:	caffffd8 	bgt	0x4724
    47c0:	e282c001 	add	ip, r2, #1
    47c4:	e58dc08c 	str	ip, [sp, #140]	; 0x8c
    47c8:	e58d007c 	str	r0, [sp, #124]	; 0x7c
    47cc:	e5914000 	ldr	r4, [r1]
    47d0:	e28d1fba 	add	r1, sp, #744	; 0x2e8
    47d4:	e0812182 	add	r2, r1, r2, lsl #3
    47d8:	e5024100 	str	r4, [r2, #-256]	; 0xffffff00
    47dc:	eaffffd0 	b	0x4724
    47e0:	e58d903c 	str	r9, [sp, #60]	; 0x3c
    47e4:	e58d2044 	str	r2, [sp, #68]	; 0x44
    47e8:	e58d1024 	str	r1, [sp, #36]	; 0x24
    47ec:	e59d9030 	ldr	r9, [sp, #48]	; 0x30
    47f0:	e58d0018 	str	r0, [sp, #24]
    47f4:	e59f3f60 	ldr	r3, [pc, #3936]	; 0x575c
    47f8:	ea000005 	b	0x4814
    47fc:	e58d903c 	str	r9, [sp, #60]	; 0x3c
    4800:	e58d2044 	str	r2, [sp, #68]	; 0x44
    4804:	e58d1024 	str	r1, [sp, #36]	; 0x24
    4808:	e59d9030 	ldr	r9, [sp, #48]	; 0x30
    480c:	e58d0018 	str	r0, [sp, #24]
    4810:	e59f3f48 	ldr	r3, [pc, #3912]	; 0x5760
    4814:	e31a0020 	tst	sl, #32
    4818:	e58d3070 	str	r3, [sp, #112]	; 0x70
    481c:	e59d208c 	ldr	r2, [sp, #140]	; 0x8c
    4820:	0a00002d 	beq	0x48dc
    4824:	e3570000 	cmp	r7, #0
    4828:	0a000015 	beq	0x4884
    482c:	e1550002 	cmp	r5, r2
    4830:	b28d3fba 	addlt	r3, sp, #744	; 0x2e8
    4834:	b0835185 	addlt	r5, r3, r5, lsl #3
    4838:	b2455c01 	sublt	r5, r5, #256	; 0x100
    483c:	b8950030 	ldmlt	r5, {r4, r5}
    4840:	ba00000d 	blt	0x487c
    4844:	e28d3090 	add	r3, sp, #144	; 0x90
    4848:	e58d300c 	str	r3, [sp, #12]
    484c:	e28d3f5a 	add	r3, sp, #360	; 0x168
    4850:	e58d3008 	str	r3, [sp, #8]
    4854:	e28d3f7a 	add	r3, sp, #488	; 0x1e8
    4858:	e58d3004 	str	r3, [sp, #4]
    485c:	e28d308c 	add	r3, sp, #140	; 0x8c
    4860:	e58d3000 	str	r3, [sp]
    4864:	e1a01005 	mov	r1, r5
    4868:	e28d307c 	add	r3, sp, #124	; 0x7c
    486c:	e1a02006 	mov	r2, r6
    4870:	e1a0000b 	mov	r0, fp
    4874:	ebfff596 	bl	0x1ed4
    4878:	e8900030 	ldm	r0, {r4, r5}
    487c:	e1a03008 	mov	r3, r8
    4880:	ea0000b0 	b	0x4b48
    4884:	e1580002 	cmp	r8, r2
    4888:	e2883001 	add	r3, r8, #1
    488c:	b28d2fba 	addlt	r2, sp, #744	; 0x2e8
    4890:	b0825185 	addlt	r5, r2, r5, lsl #3
    4894:	b2455c01 	sublt	r5, r5, #256	; 0x100
    4898:	b8950030 	ldmlt	r5, {r4, r5}
    489c:	ba0000a9 	blt	0x4b48
    48a0:	e59d107c 	ldr	r1, [sp, #124]	; 0x7c
    48a4:	e2811007 	add	r1, r1, #7
    48a8:	e3c11007 	bic	r1, r1, #7
    48ac:	e8b10030 	ldm	r1!, {r4, r5}
    48b0:	e352001f 	cmp	r2, #31
    48b4:	c58d107c 	strgt	r1, [sp, #124]	; 0x7c
    48b8:	ca0000a2 	bgt	0x4b48
    48bc:	e58d107c 	str	r1, [sp, #124]	; 0x7c
    48c0:	e28d1fba 	add	r1, sp, #744	; 0x2e8
    48c4:	e2820001 	add	r0, r2, #1
    48c8:	e0812182 	add	r2, r1, r2, lsl #3
    48cc:	e58d008c 	str	r0, [sp, #140]	; 0x8c
    48d0:	e5024100 	str	r4, [r2, #-256]	; 0xffffff00
    48d4:	e50250fc 	str	r5, [r2, #-252]	; 0xffffff04
    48d8:	ea00009a 	b	0x4b48
    48dc:	e31a0010 	tst	sl, #16
    48e0:	0a00000d 	beq	0x491c
    48e4:	e3570000 	cmp	r7, #0
    48e8:	1a00006c 	bne	0x4aa0
    48ec:	e1580002 	cmp	r8, r2
    48f0:	e2883001 	add	r3, r8, #1
    48f4:	ba000081 	blt	0x4b00
    48f8:	e59d107c 	ldr	r1, [sp, #124]	; 0x7c
    48fc:	e352001f 	cmp	r2, #31
    4900:	e4914004 	ldr	r4, [r1], #4
    4904:	d2820001 	addle	r0, r2, #1
    4908:	d58d008c 	strle	r0, [sp, #140]	; 0x8c
    490c:	d58d107c 	strle	r1, [sp, #124]	; 0x7c
    4910:	c58d107c 	strgt	r1, [sp, #124]	; 0x7c
    4914:	ca00008a 	bgt	0x4b44
    4918:	ea000086 	b	0x4b38
    491c:	e31a0040 	tst	sl, #64	; 0x40
    4920:	0a00002e 	beq	0x49e0
    4924:	e3570000 	cmp	r7, #0
    4928:	0a000016 	beq	0x4988
    492c:	e1550002 	cmp	r5, r2
    4930:	aa000005 	bge	0x494c
    4934:	e28d3fba 	add	r3, sp, #744	; 0x2e8
    4938:	e0835185 	add	r5, r3, r5, lsl #3
    493c:	e5154100 	ldr	r4, [r5, #-256]	; 0xffffff00
    4940:	e1a04804 	lsl	r4, r4, #16
    4944:	e1a04824 	lsr	r4, r4, #16
    4948:	ea000067 	b	0x4aec
    494c:	e28d3090 	add	r3, sp, #144	; 0x90
    4950:	e58d300c 	str	r3, [sp, #12]
    4954:	e28d3f5a 	add	r3, sp, #360	; 0x168
    4958:	e58d3008 	str	r3, [sp, #8]
    495c:	e28d3f7a 	add	r3, sp, #488	; 0x1e8
    4960:	e58d3004 	str	r3, [sp, #4]
    4964:	e28d308c 	add	r3, sp, #140	; 0x8c
    4968:	e58d3000 	str	r3, [sp]
    496c:	e1a02006 	mov	r2, r6
    4970:	e28d307c 	add	r3, sp, #124	; 0x7c
    4974:	e1a01005 	mov	r1, r5
    4978:	e1a0000b 	mov	r0, fp
    497c:	ebfff554 	bl	0x1ed4
    4980:	e1d040b0 	ldrh	r4, [r0]
    4984:	ea000058 	b	0x4aec
    4988:	e1580002 	cmp	r8, r2
    498c:	b28d2fba 	addlt	r2, sp, #744	; 0x2e8
    4990:	b0825185 	addlt	r5, r2, r5, lsl #3
    4994:	e2883001 	add	r3, r8, #1
    4998:	b5154100 	ldrlt	r4, [r5, #-256]	; 0xffffff00
    499c:	ba00000c 	blt	0x49d4
    49a0:	e59d107c 	ldr	r1, [sp, #124]	; 0x7c
    49a4:	e352001f 	cmp	r2, #31
    49a8:	e2810004 	add	r0, r1, #4
    49ac:	c58d007c 	strgt	r0, [sp, #124]	; 0x7c
    49b0:	c1d140b0 	ldrhgt	r4, [r1]
    49b4:	ca000062 	bgt	0x4b44
    49b8:	e282c001 	add	ip, r2, #1
    49bc:	e58dc08c 	str	ip, [sp, #140]	; 0x8c
    49c0:	e5914000 	ldr	r4, [r1]
    49c4:	e28d1fba 	add	r1, sp, #744	; 0x2e8
    49c8:	e0812182 	add	r2, r1, r2, lsl #3
    49cc:	e58d007c 	str	r0, [sp, #124]	; 0x7c
    49d0:	e5024100 	str	r4, [r2, #-256]	; 0xffffff00
    49d4:	e1a04804 	lsl	r4, r4, #16
    49d8:	e1a04824 	lsr	r4, r4, #16
    49dc:	ea000058 	b	0x4b44
    49e0:	e31a0c02 	tst	sl, #512	; 0x200
    49e4:	0a00002b 	beq	0x4a98
    49e8:	e3570000 	cmp	r7, #0
    49ec:	0a000014 	beq	0x4a44
    49f0:	e1550002 	cmp	r5, r2
    49f4:	b28d3fba 	addlt	r3, sp, #744	; 0x2e8
    49f8:	b0835185 	addlt	r5, r3, r5, lsl #3
    49fc:	b5554100 	ldrblt	r4, [r5, #-256]	; 0xffffff00
    4a00:	ba00000d 	blt	0x4a3c
    4a04:	e28d3090 	add	r3, sp, #144	; 0x90
    4a08:	e58d300c 	str	r3, [sp, #12]
    4a0c:	e28d3f5a 	add	r3, sp, #360	; 0x168
    4a10:	e58d3008 	str	r3, [sp, #8]
    4a14:	e28d3f7a 	add	r3, sp, #488	; 0x1e8
    4a18:	e58d3004 	str	r3, [sp, #4]
    4a1c:	e28d308c 	add	r3, sp, #140	; 0x8c
    4a20:	e58d3000 	str	r3, [sp]
    4a24:	e1a02006 	mov	r2, r6
    4a28:	e28d307c 	add	r3, sp, #124	; 0x7c
    4a2c:	e1a01005 	mov	r1, r5
    4a30:	e1a0000b 	mov	r0, fp
    4a34:	ebfff526 	bl	0x1ed4
    4a38:	e5d04000 	ldrb	r4, [r0]
    4a3c:	e1a03008 	mov	r3, r8
    4a40:	ea000012 	b	0x4a90
    4a44:	e1580002 	cmp	r8, r2
    4a48:	b28d2fba 	addlt	r2, sp, #744	; 0x2e8
    4a4c:	b0825185 	addlt	r5, r2, r5, lsl #3
    4a50:	e2883001 	add	r3, r8, #1
    4a54:	b5554100 	ldrblt	r4, [r5, #-256]	; 0xffffff00
    4a58:	ba00000c 	blt	0x4a90
    4a5c:	e352001f 	cmp	r2, #31
    4a60:	d282c001 	addle	ip, r2, #1
    4a64:	e59d107c 	ldr	r1, [sp, #124]	; 0x7c
    4a68:	d58dc08c 	strle	ip, [sp, #140]	; 0x8c
    4a6c:	e2810004 	add	r0, r1, #4
    4a70:	d5914000 	ldrle	r4, [r1]
    4a74:	d28d1fba 	addle	r1, sp, #744	; 0x2e8
    4a78:	d0812182 	addle	r2, r1, r2, lsl #3
    4a7c:	d58d007c 	strle	r0, [sp, #124]	; 0x7c
    4a80:	c58d007c 	strgt	r0, [sp, #124]	; 0x7c
    4a84:	c5d14000 	ldrbgt	r4, [r1]
    4a88:	d5024100 	strle	r4, [r2, #-256]	; 0xffffff00
    4a8c:	d20440ff 	andle	r4, r4, #255	; 0xff
    4a90:	e20440ff 	and	r4, r4, #255	; 0xff
    4a94:	ea00002a 	b	0x4b44
    4a98:	e3570000 	cmp	r7, #0
    4a9c:	0a000014 	beq	0x4af4
    4aa0:	e1550002 	cmp	r5, r2
    4aa4:	b28d3fba 	addlt	r3, sp, #744	; 0x2e8
    4aa8:	b0835185 	addlt	r5, r3, r5, lsl #3
    4aac:	b5154100 	ldrlt	r4, [r5, #-256]	; 0xffffff00
    4ab0:	ba00000d 	blt	0x4aec
    4ab4:	e28d3090 	add	r3, sp, #144	; 0x90
    4ab8:	e58d300c 	str	r3, [sp, #12]
    4abc:	e28d3f5a 	add	r3, sp, #360	; 0x168
    4ac0:	e58d3008 	str	r3, [sp, #8]
    4ac4:	e28d3f7a 	add	r3, sp, #488	; 0x1e8
    4ac8:	e58d3004 	str	r3, [sp, #4]
    4acc:	e28d308c 	add	r3, sp, #140	; 0x8c
    4ad0:	e58d3000 	str	r3, [sp]
    4ad4:	e1a02006 	mov	r2, r6
    4ad8:	e28d307c 	add	r3, sp, #124	; 0x7c
    4adc:	e1a01005 	mov	r1, r5
    4ae0:	e1a0000b 	mov	r0, fp
    4ae4:	ebfff4fa 	bl	0x1ed4
    4ae8:	e5904000 	ldr	r4, [r0]
    4aec:	e1a03008 	mov	r3, r8
    4af0:	ea000013 	b	0x4b44
    4af4:	e1580002 	cmp	r8, r2
    4af8:	e2883001 	add	r3, r8, #1
    4afc:	aa000003 	bge	0x4b10
    4b00:	e28d2fba 	add	r2, sp, #744	; 0x2e8
    4b04:	e0825185 	add	r5, r2, r5, lsl #3
    4b08:	e5154100 	ldr	r4, [r5, #-256]	; 0xffffff00
    4b0c:	ea00000c 	b	0x4b44
    4b10:	e59d107c 	ldr	r1, [sp, #124]	; 0x7c
    4b14:	e352001f 	cmp	r2, #31
    4b18:	e2810004 	add	r0, r1, #4
    4b1c:	c58d007c 	strgt	r0, [sp, #124]	; 0x7c
    4b20:	c5914000 	ldrgt	r4, [r1]
    4b24:	ca000006 	bgt	0x4b44
    4b28:	e282c001 	add	ip, r2, #1
    4b2c:	e58dc08c 	str	ip, [sp, #140]	; 0x8c
    4b30:	e58d007c 	str	r0, [sp, #124]	; 0x7c
    4b34:	e5914000 	ldr	r4, [r1]
    4b38:	e28d1fba 	add	r1, sp, #744	; 0x2e8
    4b3c:	e0812182 	add	r2, r1, r2, lsl #3
    4b40:	e5024100 	str	r4, [r2, #-256]	; 0xffffff00
    4b44:	e3a05000 	mov	r5, #0
    4b48:	e1942005 	orrs	r2, r4, r5
    4b4c:	120a2001 	andne	r2, sl, #1
    4b50:	03a02000 	moveq	r2, #0
    4b54:	e3520000 	cmp	r2, #0
    4b58:	13a02030 	movne	r2, #48	; 0x30
    4b5c:	15cd2088 	strbne	r2, [sp, #136]	; 0x88
    4b60:	159d2024 	ldrne	r2, [sp, #36]	; 0x24
    4b64:	15cd2089 	strbne	r2, [sp, #137]	; 0x89
    4b68:	e3a02002 	mov	r2, #2
    4b6c:	138aa002 	orrne	sl, sl, #2
    4b70:	e3caab01 	bic	sl, sl, #1024	; 0x400
    4b74:	e3a01000 	mov	r1, #0
    4b78:	e1a08003 	mov	r8, r3
    4b7c:	e5cd1087 	strb	r1, [sp, #135]	; 0x87
    4b80:	ea000000 	b	0x4b88
    4b84:	e3a02001 	mov	r2, #1
    4b88:	e59d3018 	ldr	r3, [sp, #24]
    4b8c:	e3730001 	cmn	r3, #1
    4b90:	0a000009 	beq	0x4bbc
    4b94:	e59d1018 	ldr	r1, [sp, #24]
    4b98:	e1943005 	orrs	r3, r4, r5
    4b9c:	13a03001 	movne	r3, #1
    4ba0:	03a03000 	moveq	r3, #0
    4ba4:	e3510000 	cmp	r1, #0
    4ba8:	13a03001 	movne	r3, #1
    4bac:	e3530000 	cmp	r3, #0
    4bb0:	e3ca6080 	bic	r6, sl, #128	; 0x80
    4bb4:	0a00006d 	beq	0x4d70
    4bb8:	ea000000 	b	0x4bc0
    4bbc:	e1a0600a 	mov	r6, sl
    4bc0:	e3520001 	cmp	r2, #1
    4bc4:	0a000018 	beq	0x4c2c
    4bc8:	e3520002 	cmp	r2, #2
    4bcc:	128d2f5a 	addne	r2, sp, #360	; 0x168
    4bd0:	0a000056 	beq	0x4d30
    4bd4:	e1a011a4 	lsr	r1, r4, #3
    4bd8:	e1811e85 	orr	r1, r1, r5, lsl #29
    4bdc:	e1a0c1a5 	lsr	ip, r5, #3
    4be0:	e2043007 	and	r3, r4, #7
    4be4:	e1a0500c 	mov	r5, ip
    4be8:	e1a04001 	mov	r4, r1
    4bec:	e2833030 	add	r3, r3, #48	; 0x30
    4bf0:	e1941005 	orrs	r1, r4, r5
    4bf4:	e2420001 	sub	r0, r2, #1
    4bf8:	e5423001 	strb	r3, [r2, #-1]
    4bfc:	11a02000 	movne	r2, r0
    4c00:	1afffff3 	bne	0x4bd4
    4c04:	e3530030 	cmp	r3, #48	; 0x30
    4c08:	03a03000 	moveq	r3, #0
    4c0c:	12063001 	andne	r3, r6, #1
    4c10:	e3530000 	cmp	r3, #0
    4c14:	e58d001c 	str	r0, [sp, #28]
    4c18:	0a00005f 	beq	0x4d9c
    4c1c:	e3a03030 	mov	r3, #48	; 0x30
    4c20:	e5403001 	strb	r3, [r0, #-1]
    4c24:	e2423002 	sub	r3, r2, #2
    4c28:	ea00005a 	b	0x4d98
    4c2c:	e3550000 	cmp	r5, #0
    4c30:	03540009 	cmpeq	r4, #9
    4c34:	92844030 	addls	r4, r4, #48	; 0x30
    4c38:	95cd4167 	strbls	r4, [sp, #359]	; 0x167
    4c3c:	9a000051 	bls	0x4d88
    4c40:	e206ab01 	and	sl, r6, #1024	; 0x400
    4c44:	e58db01c 	str	fp, [sp, #28]
    4c48:	e1a0b006 	mov	fp, r6
    4c4c:	e3a06000 	mov	r6, #0
    4c50:	e58d8030 	str	r8, [sp, #48]	; 0x30
    4c54:	e28d7f5a 	add	r7, sp, #360	; 0x168
    4c58:	e3a0200a 	mov	r2, #10
    4c5c:	e3a03000 	mov	r3, #0
    4c60:	e1a00004 	mov	r0, r4
    4c64:	e1a01005 	mov	r1, r5
    4c68:	ebfff385 	bl	0x1a84
    4c6c:	e35a0000 	cmp	sl, #0
    4c70:	e2822030 	add	r2, r2, #48	; 0x30
    4c74:	e2478001 	sub	r8, r7, #1
    4c78:	e5472001 	strb	r2, [r7, #-1]
    4c7c:	e2866001 	add	r6, r6, #1
    4c80:	0a000019 	beq	0x4cec
    4c84:	e3550000 	cmp	r5, #0
    4c88:	e59d3050 	ldr	r3, [sp, #80]	; 0x50
    4c8c:	03540009 	cmpeq	r4, #9
    4c90:	e5d32000 	ldrb	r2, [r3]
    4c94:	83a03001 	movhi	r3, #1
    4c98:	93a03000 	movls	r3, #0
    4c9c:	e35200ff 	cmp	r2, #255	; 0xff
    4ca0:	03a03000 	moveq	r3, #0
    4ca4:	12033001 	andne	r3, r3, #1
    4ca8:	e1520006 	cmp	r2, r6
    4cac:	13a03000 	movne	r3, #0
    4cb0:	02033001 	andeq	r3, r3, #1
    4cb4:	e3530000 	cmp	r3, #0
    4cb8:	0a00000b 	beq	0x4cec
    4cbc:	e59d3058 	ldr	r3, [sp, #88]	; 0x58
    4cc0:	e0488003 	sub	r8, r8, r3
    4cc4:	e1a02003 	mov	r2, r3
    4cc8:	e59d1068 	ldr	r1, [sp, #104]	; 0x68
    4ccc:	e1a00008 	mov	r0, r8
    4cd0:	eb001139 	bl	0x91bc
    4cd4:	e59d3050 	ldr	r3, [sp, #80]	; 0x50
    4cd8:	e5d36001 	ldrb	r6, [r3, #1]
    4cdc:	e3560000 	cmp	r6, #0
    4ce0:	13a06000 	movne	r6, #0
    4ce4:	12833001 	addne	r3, r3, #1
    4ce8:	158d3050 	strne	r3, [sp, #80]	; 0x50
    4cec:	e3a0200a 	mov	r2, #10
    4cf0:	e3a03000 	mov	r3, #0
    4cf4:	e1a00004 	mov	r0, r4
    4cf8:	e1a01005 	mov	r1, r5
    4cfc:	ebfff360 	bl	0x1a84
    4d00:	e3550000 	cmp	r5, #0
    4d04:	03540009 	cmpeq	r4, #9
    4d08:	81a04000 	movhi	r4, r0
    4d0c:	81a05001 	movhi	r5, r1
    4d10:	81a07008 	movhi	r7, r8
    4d14:	8affffcf 	bhi	0x4c58
    4d18:	e58d6028 	str	r6, [sp, #40]	; 0x28
    4d1c:	e1a0600b 	mov	r6, fp
    4d20:	e59db01c 	ldr	fp, [sp, #28]
    4d24:	e58d801c 	str	r8, [sp, #28]
    4d28:	e59d8030 	ldr	r8, [sp, #48]	; 0x30
    4d2c:	ea00001a 	b	0x4d9c
    4d30:	e28d3f5a 	add	r3, sp, #360	; 0x168
    4d34:	e1a02003 	mov	r2, r3
    4d38:	e58d301c 	str	r3, [sp, #28]
    4d3c:	e59d1070 	ldr	r1, [sp, #112]	; 0x70
    4d40:	e204300f 	and	r3, r4, #15
    4d44:	e7d13003 	ldrb	r3, [r1, r3]
    4d48:	e5623001 	strb	r3, [r2, #-1]!
    4d4c:	e1a03224 	lsr	r3, r4, #4
    4d50:	e1833e05 	orr	r3, r3, r5, lsl #28
    4d54:	e1a01225 	lsr	r1, r5, #4
    4d58:	e1a04003 	mov	r4, r3
    4d5c:	e1a05001 	mov	r5, r1
    4d60:	e1943005 	orrs	r3, r4, r5
    4d64:	1afffff4 	bne	0x4d3c
    4d68:	e58d201c 	str	r2, [sp, #28]
    4d6c:	ea00000a 	b	0x4d9c
    4d70:	e3520000 	cmp	r2, #0
    4d74:	1a000006 	bne	0x4d94
    4d78:	e31a0001 	tst	sl, #1
    4d7c:	0a000004 	beq	0x4d94
    4d80:	e3a03030 	mov	r3, #48	; 0x30
    4d84:	e5cd3167 	strb	r3, [sp, #359]	; 0x167
    4d88:	e28d3f59 	add	r3, sp, #356	; 0x164
    4d8c:	e2833003 	add	r3, r3, #3
    4d90:	ea000000 	b	0x4d98
    4d94:	e28d3f5a 	add	r3, sp, #360	; 0x168
    4d98:	e58d301c 	str	r3, [sp, #28]
    4d9c:	e59d301c 	ldr	r3, [sp, #28]
    4da0:	e28d5f5a 	add	r5, sp, #360	; 0x168
    4da4:	e0455003 	sub	r5, r5, r3
    4da8:	e1a0a006 	mov	sl, r6
    4dac:	e3a07000 	mov	r7, #0
    4db0:	eafff98f 	b	0x33f4
    4db4:	e3510000 	cmp	r1, #0
    4db8:	e58d903c 	str	r9, [sp, #60]	; 0x3c
    4dbc:	e58d2044 	str	r2, [sp, #68]	; 0x44
    4dc0:	e58d1024 	str	r1, [sp, #36]	; 0x24
    4dc4:	e59d9030 	ldr	r9, [sp, #48]	; 0x30
    4dc8:	0a00039b 	beq	0x5c3c
    4dcc:	e3a00000 	mov	r0, #0
    4dd0:	e3a05001 	mov	r5, #1
    4dd4:	e1a07000 	mov	r7, r0
    4dd8:	e5cd1104 	strb	r1, [sp, #260]	; 0x104
    4ddc:	e5cd0087 	strb	r0, [sp, #135]	; 0x87
    4de0:	e1a06007 	mov	r6, r7
    4de4:	e58d7018 	str	r7, [sp, #24]
    4de8:	e58d7030 	str	r7, [sp, #48]	; 0x30
    4dec:	e58d7034 	str	r7, [sp, #52]	; 0x34
    4df0:	e28d3f41 	add	r3, sp, #260	; 0x104
    4df4:	e58d301c 	str	r3, [sp, #28]
    4df8:	ea000005 	b	0x4e14
    4dfc:	e58d3018 	str	r3, [sp, #24]
    4e00:	ea000003 	b	0x4e14
    4e04:	e59d5018 	ldr	r5, [sp, #24]
    4e08:	e58d7030 	str	r7, [sp, #48]	; 0x30
    4e0c:	e58d7018 	str	r7, [sp, #24]
    4e10:	e58d7034 	str	r7, [sp, #52]	; 0x34
    4e14:	e59d3018 	ldr	r3, [sp, #24]
    4e18:	e1530005 	cmp	r3, r5
    4e1c:	b1a03005 	movlt	r3, r5
    4e20:	e58d3054 	str	r3, [sp, #84]	; 0x54
    4e24:	e5dd3087 	ldrb	r3, [sp, #135]	; 0x87
    4e28:	e3530000 	cmp	r3, #0
    4e2c:	159d3054 	ldrne	r3, [sp, #84]	; 0x54
    4e30:	12833001 	addne	r3, r3, #1
    4e34:	158d3054 	strne	r3, [sp, #84]	; 0x54
    4e38:	e21a3002 	ands	r3, sl, #2
    4e3c:	e58d3074 	str	r3, [sp, #116]	; 0x74
    4e40:	159d3054 	ldrne	r3, [sp, #84]	; 0x54
    4e44:	12833002 	addne	r3, r3, #2
    4e48:	158d3054 	strne	r3, [sp, #84]	; 0x54
    4e4c:	e21a3084 	ands	r3, sl, #132	; 0x84
    4e50:	e58d3078 	str	r3, [sp, #120]	; 0x78
    4e54:	1a00002c 	bne	0x4f0c
    4e58:	e59d303c 	ldr	r3, [sp, #60]	; 0x3c
    4e5c:	e59d2054 	ldr	r2, [sp, #84]	; 0x54
    4e60:	e0434002 	sub	r4, r3, r2
    4e64:	e3540000 	cmp	r4, #0
    4e68:	c59f38fc 	ldrgt	r3, [pc, #2300]	; 0x576c
    4e6c:	da000026 	ble	0x4f0c
    4e70:	e59d20bc 	ldr	r2, [sp, #188]	; 0xbc
    4e74:	e3540010 	cmp	r4, #16
    4e78:	e59d10c0 	ldr	r1, [sp, #192]	; 0xc0
    4e7c:	e2822001 	add	r2, r2, #1
    4e80:	e2890008 	add	r0, r9, #8
    4e84:	e5893000 	str	r3, [r9]
    4e88:	da000011 	ble	0x4ed4
    4e8c:	e3a0c010 	mov	ip, #16
    4e90:	e3520007 	cmp	r2, #7
    4e94:	e081100c 	add	r1, r1, ip
    4e98:	e589c004 	str	ip, [r9, #4]
    4e9c:	e58d10c0 	str	r1, [sp, #192]	; 0xc0
    4ea0:	e58d20bc 	str	r2, [sp, #188]	; 0xbc
    4ea4:	da000007 	ble	0x4ec8
    4ea8:	e28d20b8 	add	r2, sp, #184	; 0xb8
    4eac:	e59d1020 	ldr	r1, [sp, #32]
    4eb0:	e1a0000b 	mov	r0, fp
    4eb4:	eb0010fa 	bl	0x92a4
    4eb8:	e3500000 	cmp	r0, #0
    4ebc:	1a000368 	bne	0x5c64
    4ec0:	e59f38a4 	ldr	r3, [pc, #2212]	; 0x576c
    4ec4:	e28d00c4 	add	r0, sp, #196	; 0xc4
    4ec8:	e2444010 	sub	r4, r4, #16
    4ecc:	e1a09000 	mov	r9, r0
    4ed0:	eaffffe6 	b	0x4e70
    4ed4:	e5894004 	str	r4, [r9, #4]
    4ed8:	e3520007 	cmp	r2, #7
    4edc:	e0844001 	add	r4, r4, r1
    4ee0:	e58d40c0 	str	r4, [sp, #192]	; 0xc0
    4ee4:	e58d20bc 	str	r2, [sp, #188]	; 0xbc
    4ee8:	d1a09000 	movle	r9, r0
    4eec:	da000006 	ble	0x4f0c
    4ef0:	e28d20b8 	add	r2, sp, #184	; 0xb8
    4ef4:	e59d1020 	ldr	r1, [sp, #32]
    4ef8:	e1a0000b 	mov	r0, fp
    4efc:	eb0010e8 	bl	0x92a4
    4f00:	e3500000 	cmp	r0, #0
    4f04:	1a000356 	bne	0x5c64
    4f08:	e28d90c4 	add	r9, sp, #196	; 0xc4
    4f0c:	e5dd3087 	ldrb	r3, [sp, #135]	; 0x87
    4f10:	e3530000 	cmp	r3, #0
    4f14:	0a000013 	beq	0x4f68
    4f18:	e28d3087 	add	r3, sp, #135	; 0x87
    4f1c:	e5893000 	str	r3, [r9]
    4f20:	e3a03001 	mov	r3, #1
    4f24:	e5893004 	str	r3, [r9, #4]
    4f28:	e59d30c0 	ldr	r3, [sp, #192]	; 0xc0
    4f2c:	e2833001 	add	r3, r3, #1
    4f30:	e58d30c0 	str	r3, [sp, #192]	; 0xc0
    4f34:	e59d30bc 	ldr	r3, [sp, #188]	; 0xbc
    4f38:	e2833001 	add	r3, r3, #1
    4f3c:	e3530007 	cmp	r3, #7
    4f40:	e58d30bc 	str	r3, [sp, #188]	; 0xbc
    4f44:	d2899008 	addle	r9, r9, #8
    4f48:	da000006 	ble	0x4f68
    4f4c:	e28d20b8 	add	r2, sp, #184	; 0xb8
    4f50:	e59d1020 	ldr	r1, [sp, #32]
    4f54:	e1a0000b 	mov	r0, fp
    4f58:	eb0010d1 	bl	0x92a4
    4f5c:	e3500000 	cmp	r0, #0
    4f60:	1a00033f 	bne	0x5c64
    4f64:	e28d90c4 	add	r9, sp, #196	; 0xc4
    4f68:	e59d3074 	ldr	r3, [sp, #116]	; 0x74
    4f6c:	e3530000 	cmp	r3, #0
    4f70:	0a000013 	beq	0x4fc4
    4f74:	e28d3088 	add	r3, sp, #136	; 0x88
    4f78:	e5893000 	str	r3, [r9]
    4f7c:	e3a03002 	mov	r3, #2
    4f80:	e5893004 	str	r3, [r9, #4]
    4f84:	e59d30c0 	ldr	r3, [sp, #192]	; 0xc0
    4f88:	e2833002 	add	r3, r3, #2
    4f8c:	e58d30c0 	str	r3, [sp, #192]	; 0xc0
    4f90:	e59d30bc 	ldr	r3, [sp, #188]	; 0xbc
    4f94:	e2833001 	add	r3, r3, #1
    4f98:	e3530007 	cmp	r3, #7
    4f9c:	e58d30bc 	str	r3, [sp, #188]	; 0xbc
    4fa0:	d2899008 	addle	r9, r9, #8
    4fa4:	da000006 	ble	0x4fc4
    4fa8:	e28d20b8 	add	r2, sp, #184	; 0xb8
    4fac:	e59d1020 	ldr	r1, [sp, #32]
    4fb0:	e1a0000b 	mov	r0, fp
    4fb4:	eb0010ba 	bl	0x92a4
    4fb8:	e3500000 	cmp	r0, #0
    4fbc:	1a000328 	bne	0x5c64
    4fc0:	e28d90c4 	add	r9, sp, #196	; 0xc4
    4fc4:	e59d3078 	ldr	r3, [sp, #120]	; 0x78
    4fc8:	e3530080 	cmp	r3, #128	; 0x80
    4fcc:	1a00002c 	bne	0x5084
    4fd0:	e59d303c 	ldr	r3, [sp, #60]	; 0x3c
    4fd4:	e59d2054 	ldr	r2, [sp, #84]	; 0x54
    4fd8:	e0434002 	sub	r4, r3, r2
    4fdc:	e3540000 	cmp	r4, #0
    4fe0:	c59f3780 	ldrgt	r3, [pc, #1920]	; 0x5768
    4fe4:	da000026 	ble	0x5084
    4fe8:	e59d20bc 	ldr	r2, [sp, #188]	; 0xbc
    4fec:	e3540010 	cmp	r4, #16
    4ff0:	e59d10c0 	ldr	r1, [sp, #192]	; 0xc0
    4ff4:	e2822001 	add	r2, r2, #1
    4ff8:	e2890008 	add	r0, r9, #8
    4ffc:	e5893000 	str	r3, [r9]
    5000:	da000011 	ble	0x504c
    5004:	e3a0c010 	mov	ip, #16
    5008:	e3520007 	cmp	r2, #7
    500c:	e081100c 	add	r1, r1, ip
    5010:	e589c004 	str	ip, [r9, #4]
    5014:	e58d10c0 	str	r1, [sp, #192]	; 0xc0
    5018:	e58d20bc 	str	r2, [sp, #188]	; 0xbc
    501c:	da000007 	ble	0x5040
    5020:	e28d20b8 	add	r2, sp, #184	; 0xb8
    5024:	e59d1020 	ldr	r1, [sp, #32]
    5028:	e1a0000b 	mov	r0, fp
    502c:	eb00109c 	bl	0x92a4
    5030:	e3500000 	cmp	r0, #0
    5034:	1a00030a 	bne	0x5c64
    5038:	e59f3728 	ldr	r3, [pc, #1832]	; 0x5768
    503c:	e28d00c4 	add	r0, sp, #196	; 0xc4
    5040:	e2444010 	sub	r4, r4, #16
    5044:	e1a09000 	mov	r9, r0
    5048:	eaffffe6 	b	0x4fe8
    504c:	e5894004 	str	r4, [r9, #4]
    5050:	e3520007 	cmp	r2, #7
    5054:	e0844001 	add	r4, r4, r1
    5058:	e58d40c0 	str	r4, [sp, #192]	; 0xc0
    505c:	e58d20bc 	str	r2, [sp, #188]	; 0xbc
    5060:	d1a09000 	movle	r9, r0
    5064:	da000006 	ble	0x5084
    5068:	e28d20b8 	add	r2, sp, #184	; 0xb8
    506c:	e59d1020 	ldr	r1, [sp, #32]
    5070:	e1a0000b 	mov	r0, fp
    5074:	eb00108a 	bl	0x92a4
    5078:	e3500000 	cmp	r0, #0
    507c:	1a0002f8 	bne	0x5c64
    5080:	e28d90c4 	add	r9, sp, #196	; 0xc4
    5084:	e59d3018 	ldr	r3, [sp, #24]
    5088:	e0434005 	sub	r4, r3, r5
    508c:	e3540000 	cmp	r4, #0
    5090:	c59f36d0 	ldrgt	r3, [pc, #1744]	; 0x5768
    5094:	da000026 	ble	0x5134
    5098:	e59d20bc 	ldr	r2, [sp, #188]	; 0xbc
    509c:	e3540010 	cmp	r4, #16
    50a0:	e59d10c0 	ldr	r1, [sp, #192]	; 0xc0
    50a4:	e2822001 	add	r2, r2, #1
    50a8:	e2890008 	add	r0, r9, #8
    50ac:	e5893000 	str	r3, [r9]
    50b0:	da000011 	ble	0x50fc
    50b4:	e3a0c010 	mov	ip, #16
    50b8:	e3520007 	cmp	r2, #7
    50bc:	e081100c 	add	r1, r1, ip
    50c0:	e589c004 	str	ip, [r9, #4]
    50c4:	e58d10c0 	str	r1, [sp, #192]	; 0xc0
    50c8:	e58d20bc 	str	r2, [sp, #188]	; 0xbc
    50cc:	da000007 	ble	0x50f0
    50d0:	e28d20b8 	add	r2, sp, #184	; 0xb8
    50d4:	e59d1020 	ldr	r1, [sp, #32]
    50d8:	e1a0000b 	mov	r0, fp
    50dc:	eb001070 	bl	0x92a4
    50e0:	e3500000 	cmp	r0, #0
    50e4:	1a0002de 	bne	0x5c64
    50e8:	e59f3678 	ldr	r3, [pc, #1656]	; 0x5768
    50ec:	e28d00c4 	add	r0, sp, #196	; 0xc4
    50f0:	e2444010 	sub	r4, r4, #16
    50f4:	e1a09000 	mov	r9, r0
    50f8:	eaffffe6 	b	0x5098
    50fc:	e5894004 	str	r4, [r9, #4]
    5100:	e3520007 	cmp	r2, #7
    5104:	e0844001 	add	r4, r4, r1
    5108:	e58d40c0 	str	r4, [sp, #192]	; 0xc0
    510c:	e58d20bc 	str	r2, [sp, #188]	; 0xbc
    5110:	d1a09000 	movle	r9, r0
    5114:	da000006 	ble	0x5134
    5118:	e28d20b8 	add	r2, sp, #184	; 0xb8
    511c:	e59d1020 	ldr	r1, [sp, #32]
    5120:	e1a0000b 	mov	r0, fp
    5124:	eb00105e 	bl	0x92a4
    5128:	e3500000 	cmp	r0, #0
    512c:	1a0002cc 	bne	0x5c64
    5130:	e28d90c4 	add	r9, sp, #196	; 0xc4
    5134:	e31a0c01 	tst	sl, #256	; 0x100
    5138:	e59d40c0 	ldr	r4, [sp, #192]	; 0xc0
    513c:	1a000004 	bne	0x5154
    5140:	e59d301c 	ldr	r3, [sp, #28]
    5144:	e8890028 	stm	r9, {r3, r5}
    5148:	e0855004 	add	r5, r5, r4
    514c:	e58d50c0 	str	r5, [sp, #192]	; 0xc0
    5150:	ea0000b7 	b	0x5434
    5154:	e59d3024 	ldr	r3, [sp, #36]	; 0x24
    5158:	e3530065 	cmp	r3, #101	; 0x65
    515c:	da0001eb 	ble	0x5910
    5160:	e28d205c 	add	r2, sp, #92	; 0x5c
    5164:	e892000c 	ldm	r2, {r2, r3}
    5168:	e59d0040 	ldr	r0, [sp, #64]	; 0x40
    516c:	e59d1038 	ldr	r1, [sp, #56]	; 0x38
    5170:	ebfff200 	bl	0x1978
    5174:	e3500000 	cmp	r0, #0
    5178:	0a00004a 	beq	0x52a8
    517c:	e59f35e0 	ldr	r3, [pc, #1504]	; 0x5764
    5180:	e5893000 	str	r3, [r9]
    5184:	e3a03001 	mov	r3, #1
    5188:	e5893004 	str	r3, [r9, #4]
    518c:	e0844003 	add	r4, r4, r3
    5190:	e59d30bc 	ldr	r3, [sp, #188]	; 0xbc
    5194:	e2833001 	add	r3, r3, #1
    5198:	e3530007 	cmp	r3, #7
    519c:	e58d40c0 	str	r4, [sp, #192]	; 0xc0
    51a0:	e58d30bc 	str	r3, [sp, #188]	; 0xbc
    51a4:	d2899008 	addle	r9, r9, #8
    51a8:	da000006 	ble	0x51c8
    51ac:	e28d20b8 	add	r2, sp, #184	; 0xb8
    51b0:	e59d1020 	ldr	r1, [sp, #32]
    51b4:	e1a0000b 	mov	r0, fp
    51b8:	eb001039 	bl	0x92a4
    51bc:	e3500000 	cmp	r0, #0
    51c0:	1a0002a7 	bne	0x5c64
    51c4:	e28d90c4 	add	r9, sp, #196	; 0xc4
    51c8:	e59d3094 	ldr	r3, [sp, #148]	; 0x94
    51cc:	e59d2028 	ldr	r2, [sp, #40]	; 0x28
    51d0:	e1530002 	cmp	r3, r2
    51d4:	ba000001 	blt	0x51e0
    51d8:	e31a0001 	tst	sl, #1
    51dc:	0a000251 	beq	0x5b28
    51e0:	e59d3064 	ldr	r3, [sp, #100]	; 0x64
    51e4:	e5893000 	str	r3, [r9]
    51e8:	e59d3048 	ldr	r3, [sp, #72]	; 0x48
    51ec:	e59d2048 	ldr	r2, [sp, #72]	; 0x48
    51f0:	e5893004 	str	r3, [r9, #4]
    51f4:	e59d30c0 	ldr	r3, [sp, #192]	; 0xc0
    51f8:	e0833002 	add	r3, r3, r2
    51fc:	e58d30c0 	str	r3, [sp, #192]	; 0xc0
    5200:	e59d30bc 	ldr	r3, [sp, #188]	; 0xbc
    5204:	e2833001 	add	r3, r3, #1
    5208:	e3530007 	cmp	r3, #7
    520c:	e58d30bc 	str	r3, [sp, #188]	; 0xbc
    5210:	d2899008 	addle	r9, r9, #8
    5214:	da000006 	ble	0x5234
    5218:	e28d20b8 	add	r2, sp, #184	; 0xb8
    521c:	e59d1020 	ldr	r1, [sp, #32]
    5220:	e1a0000b 	mov	r0, fp
    5224:	eb00101e 	bl	0x92a4
    5228:	e3500000 	cmp	r0, #0
    522c:	1a00028c 	bne	0x5c64
    5230:	e28d90c4 	add	r9, sp, #196	; 0xc4
    5234:	e59d3028 	ldr	r3, [sp, #40]	; 0x28
    5238:	e2434001 	sub	r4, r3, #1
    523c:	e3540000 	cmp	r4, #0
    5240:	c59f5520 	ldrgt	r5, [pc, #1312]	; 0x5768
    5244:	c3a06010 	movgt	r6, #16
    5248:	da000236 	ble	0x5b28
    524c:	e59d30bc 	ldr	r3, [sp, #188]	; 0xbc
    5250:	e3540010 	cmp	r4, #16
    5254:	e59d20c0 	ldr	r2, [sp, #192]	; 0xc0
    5258:	e2833001 	add	r3, r3, #1
    525c:	e2891008 	add	r1, r9, #8
    5260:	e5895000 	str	r5, [r9]
    5264:	da0001a1 	ble	0x58f0
    5268:	e2822010 	add	r2, r2, #16
    526c:	e3530007 	cmp	r3, #7
    5270:	e5896004 	str	r6, [r9, #4]
    5274:	e58d20c0 	str	r2, [sp, #192]	; 0xc0
    5278:	e58d30bc 	str	r3, [sp, #188]	; 0xbc
    527c:	da000006 	ble	0x529c
    5280:	e28d20b8 	add	r2, sp, #184	; 0xb8
    5284:	e59d1020 	ldr	r1, [sp, #32]
    5288:	e1a0000b 	mov	r0, fp
    528c:	eb001004 	bl	0x92a4
    5290:	e3500000 	cmp	r0, #0
    5294:	1a000272 	bne	0x5c64
    5298:	e28d10c4 	add	r1, sp, #196	; 0xc4
    529c:	e2444010 	sub	r4, r4, #16
    52a0:	e1a09001 	mov	r9, r1
    52a4:	eaffffe8 	b	0x524c
    52a8:	e59d3094 	ldr	r3, [sp, #148]	; 0x94
    52ac:	e3530000 	cmp	r3, #0
    52b0:	ca000066 	bgt	0x5450
    52b4:	e59f34a8 	ldr	r3, [pc, #1192]	; 0x5764
    52b8:	e5893000 	str	r3, [r9]
    52bc:	e3a03001 	mov	r3, #1
    52c0:	e5893004 	str	r3, [r9, #4]
    52c4:	e0844003 	add	r4, r4, r3
    52c8:	e59d30bc 	ldr	r3, [sp, #188]	; 0xbc
    52cc:	e2833001 	add	r3, r3, #1
    52d0:	e3530007 	cmp	r3, #7
    52d4:	e58d40c0 	str	r4, [sp, #192]	; 0xc0
    52d8:	e58d30bc 	str	r3, [sp, #188]	; 0xbc
    52dc:	d2899008 	addle	r9, r9, #8
    52e0:	da000006 	ble	0x5300
    52e4:	e28d20b8 	add	r2, sp, #184	; 0xb8
    52e8:	e59d1020 	ldr	r1, [sp, #32]
    52ec:	e1a0000b 	mov	r0, fp
    52f0:	eb000feb 	bl	0x92a4
    52f4:	e3500000 	cmp	r0, #0
    52f8:	1a000259 	bne	0x5c64
    52fc:	e28d90c4 	add	r9, sp, #196	; 0xc4
    5300:	e59d1028 	ldr	r1, [sp, #40]	; 0x28
    5304:	e59d2094 	ldr	r2, [sp, #148]	; 0x94
    5308:	e1812002 	orr	r2, r1, r2
    530c:	e20a1001 	and	r1, sl, #1
    5310:	e1922001 	orrs	r2, r2, r1
    5314:	e59d30c0 	ldr	r3, [sp, #192]	; 0xc0
    5318:	0a000202 	beq	0x5b28
    531c:	e59d2064 	ldr	r2, [sp, #100]	; 0x64
    5320:	e5892000 	str	r2, [r9]
    5324:	e59d2048 	ldr	r2, [sp, #72]	; 0x48
    5328:	e0823003 	add	r3, r2, r3
    532c:	e58d30c0 	str	r3, [sp, #192]	; 0xc0
    5330:	e59d30bc 	ldr	r3, [sp, #188]	; 0xbc
    5334:	e2833001 	add	r3, r3, #1
    5338:	e3530007 	cmp	r3, #7
    533c:	e5892004 	str	r2, [r9, #4]
    5340:	e58d30bc 	str	r3, [sp, #188]	; 0xbc
    5344:	d2899008 	addle	r9, r9, #8
    5348:	da000006 	ble	0x5368
    534c:	e28d20b8 	add	r2, sp, #184	; 0xb8
    5350:	e59d1020 	ldr	r1, [sp, #32]
    5354:	e1a0000b 	mov	r0, fp
    5358:	eb000fd1 	bl	0x92a4
    535c:	e3500000 	cmp	r0, #0
    5360:	1a00023f 	bne	0x5c64
    5364:	e28d90c4 	add	r9, sp, #196	; 0xc4
    5368:	e59d4094 	ldr	r4, [sp, #148]	; 0x94
    536c:	e3540000 	cmp	r4, #0
    5370:	aa000027 	bge	0x5414
    5374:	e1a03009 	mov	r3, r9
    5378:	e3a06010 	mov	r6, #16
    537c:	e59f53e4 	ldr	r5, [pc, #996]	; 0x5768
    5380:	e2644000 	rsb	r4, r4, #0
    5384:	e59d20bc 	ldr	r2, [sp, #188]	; 0xbc
    5388:	e3540010 	cmp	r4, #16
    538c:	e59d10c0 	ldr	r1, [sp, #192]	; 0xc0
    5390:	e2822001 	add	r2, r2, #1
    5394:	e2899008 	add	r9, r9, #8
    5398:	e5835000 	str	r5, [r3]
    539c:	da00000f 	ble	0x53e0
    53a0:	e2811010 	add	r1, r1, #16
    53a4:	e3520007 	cmp	r2, #7
    53a8:	e5836004 	str	r6, [r3, #4]
    53ac:	e58d10c0 	str	r1, [sp, #192]	; 0xc0
    53b0:	e58d20bc 	str	r2, [sp, #188]	; 0xbc
    53b4:	da000006 	ble	0x53d4
    53b8:	e28d20b8 	add	r2, sp, #184	; 0xb8
    53bc:	e59d1020 	ldr	r1, [sp, #32]
    53c0:	e1a0000b 	mov	r0, fp
    53c4:	eb000fb6 	bl	0x92a4
    53c8:	e3500000 	cmp	r0, #0
    53cc:	1a000224 	bne	0x5c64
    53d0:	e28d90c4 	add	r9, sp, #196	; 0xc4
    53d4:	e2444010 	sub	r4, r4, #16
    53d8:	e1a03009 	mov	r3, r9
    53dc:	eaffffe8 	b	0x5384
    53e0:	e5834004 	str	r4, [r3, #4]
    53e4:	e3520007 	cmp	r2, #7
    53e8:	e0844001 	add	r4, r4, r1
    53ec:	e58d40c0 	str	r4, [sp, #192]	; 0xc0
    53f0:	e58d20bc 	str	r2, [sp, #188]	; 0xbc
    53f4:	da000006 	ble	0x5414
    53f8:	e28d20b8 	add	r2, sp, #184	; 0xb8
    53fc:	e59d1020 	ldr	r1, [sp, #32]
    5400:	e1a0000b 	mov	r0, fp
    5404:	eb000fa6 	bl	0x92a4
    5408:	e3500000 	cmp	r0, #0
    540c:	1a000214 	bne	0x5c64
    5410:	e28d90c4 	add	r9, sp, #196	; 0xc4
    5414:	e59d301c 	ldr	r3, [sp, #28]
    5418:	e5893000 	str	r3, [r9]
    541c:	e59d3028 	ldr	r3, [sp, #40]	; 0x28
    5420:	e59d2028 	ldr	r2, [sp, #40]	; 0x28
    5424:	e5893004 	str	r3, [r9, #4]
    5428:	e59d30c0 	ldr	r3, [sp, #192]	; 0xc0
    542c:	e0833002 	add	r3, r3, r2
    5430:	e58d30c0 	str	r3, [sp, #192]	; 0xc0
    5434:	e59d30bc 	ldr	r3, [sp, #188]	; 0xbc
    5438:	e2833001 	add	r3, r3, #1
    543c:	e3530007 	cmp	r3, #7
    5440:	e58d30bc 	str	r3, [sp, #188]	; 0xbc
    5444:	d2899008 	addle	r9, r9, #8
    5448:	da0001b6 	ble	0x5b28
    544c:	ea0001ae 	b	0x5b0c
    5450:	e59d3028 	ldr	r3, [sp, #40]	; 0x28
    5454:	e1560003 	cmp	r6, r3
    5458:	b1a05006 	movlt	r5, r6
    545c:	a1a05003 	movge	r5, r3
    5460:	e3550000 	cmp	r5, #0
    5464:	da000010 	ble	0x54ac
    5468:	e59d301c 	ldr	r3, [sp, #28]
    546c:	e8890028 	stm	r9, {r3, r5}
    5470:	e59d30bc 	ldr	r3, [sp, #188]	; 0xbc
    5474:	e2833001 	add	r3, r3, #1
    5478:	e0854004 	add	r4, r5, r4
    547c:	e3530007 	cmp	r3, #7
    5480:	e58d40c0 	str	r4, [sp, #192]	; 0xc0
    5484:	e58d30bc 	str	r3, [sp, #188]	; 0xbc
    5488:	d2899008 	addle	r9, r9, #8
    548c:	da000006 	ble	0x54ac
    5490:	e28d20b8 	add	r2, sp, #184	; 0xb8
    5494:	e59d1020 	ldr	r1, [sp, #32]
    5498:	e1a0000b 	mov	r0, fp
    549c:	eb000f80 	bl	0x92a4
    54a0:	e3500000 	cmp	r0, #0
    54a4:	1a0001ee 	bne	0x5c64
    54a8:	e28d90c4 	add	r9, sp, #196	; 0xc4
    54ac:	e3550000 	cmp	r5, #0
    54b0:	b1a04006 	movlt	r4, r6
    54b4:	a0464005 	subge	r4, r6, r5
    54b8:	e3540000 	cmp	r4, #0
    54bc:	c59f52a4 	ldrgt	r5, [pc, #676]	; 0x5768
    54c0:	da000025 	ble	0x555c
    54c4:	e59d30bc 	ldr	r3, [sp, #188]	; 0xbc
    54c8:	e3540010 	cmp	r4, #16
    54cc:	e59d20c0 	ldr	r2, [sp, #192]	; 0xc0
    54d0:	e2833001 	add	r3, r3, #1
    54d4:	e2891008 	add	r1, r9, #8
    54d8:	e5895000 	str	r5, [r9]
    54dc:	da000010 	ble	0x5524
    54e0:	e3a00010 	mov	r0, #16
    54e4:	e3530007 	cmp	r3, #7
    54e8:	e0822000 	add	r2, r2, r0
    54ec:	e5890004 	str	r0, [r9, #4]
    54f0:	e58d20c0 	str	r2, [sp, #192]	; 0xc0
    54f4:	e58d30bc 	str	r3, [sp, #188]	; 0xbc
    54f8:	da000006 	ble	0x5518
    54fc:	e28d20b8 	add	r2, sp, #184	; 0xb8
    5500:	e59d1020 	ldr	r1, [sp, #32]
    5504:	e1a0000b 	mov	r0, fp
    5508:	eb000f65 	bl	0x92a4
    550c:	e3500000 	cmp	r0, #0
    5510:	1a0001d3 	bne	0x5c64
    5514:	e28d10c4 	add	r1, sp, #196	; 0xc4
    5518:	e2444010 	sub	r4, r4, #16
    551c:	e1a09001 	mov	r9, r1
    5520:	eaffffe7 	b	0x54c4
    5524:	e5894004 	str	r4, [r9, #4]
    5528:	e3530007 	cmp	r3, #7
    552c:	e0824004 	add	r4, r2, r4
    5530:	e58d40c0 	str	r4, [sp, #192]	; 0xc0
    5534:	e58d30bc 	str	r3, [sp, #188]	; 0xbc
    5538:	d1a09001 	movle	r9, r1
    553c:	da000006 	ble	0x555c
    5540:	e28d20b8 	add	r2, sp, #184	; 0xb8
    5544:	e59d1020 	ldr	r1, [sp, #32]
    5548:	e1a0000b 	mov	r0, fp
    554c:	eb000f54 	bl	0x92a4
    5550:	e3500000 	cmp	r0, #0
    5554:	1a0001c2 	bne	0x5c64
    5558:	e28d90c4 	add	r9, sp, #196	; 0xc4
    555c:	e59d301c 	ldr	r3, [sp, #28]
    5560:	e31a0b01 	tst	sl, #1024	; 0x400
    5564:	e0836006 	add	r6, r3, r6
    5568:	0a000088 	beq	0x5790
    556c:	e1a02009 	mov	r2, r9
    5570:	e58d7018 	str	r7, [sp, #24]
    5574:	e59f51ec 	ldr	r5, [pc, #492]	; 0x5768
    5578:	e59d4050 	ldr	r4, [sp, #80]	; 0x50
    557c:	e59d7020 	ldr	r7, [sp, #32]
    5580:	e28d1030 	add	r1, sp, #48	; 0x30
    5584:	e891000a 	ldm	r1, {r1, r3}
    5588:	e3510000 	cmp	r1, #0
    558c:	d3530000 	cmple	r3, #0
    5590:	da000076 	ble	0x5770
    5594:	e59d3030 	ldr	r3, [sp, #48]	; 0x30
    5598:	e3530000 	cmp	r3, #0
    559c:	059d3034 	ldreq	r3, [sp, #52]	; 0x34
    55a0:	12433001 	subne	r3, r3, #1
    55a4:	02433001 	subeq	r3, r3, #1
    55a8:	158d3030 	strne	r3, [sp, #48]	; 0x30
    55ac:	058d3034 	streq	r3, [sp, #52]	; 0x34
    55b0:	e59d3068 	ldr	r3, [sp, #104]	; 0x68
    55b4:	e5823000 	str	r3, [r2]
    55b8:	e59d3058 	ldr	r3, [sp, #88]	; 0x58
    55bc:	e59d1058 	ldr	r1, [sp, #88]	; 0x58
    55c0:	e5823004 	str	r3, [r2, #4]
    55c4:	e59d30c0 	ldr	r3, [sp, #192]	; 0xc0
    55c8:	e0833001 	add	r3, r3, r1
    55cc:	e58d30c0 	str	r3, [sp, #192]	; 0xc0
    55d0:	e59d30bc 	ldr	r3, [sp, #188]	; 0xbc
    55d4:	e2833001 	add	r3, r3, #1
    55d8:	02444001 	subeq	r4, r4, #1
    55dc:	e3530007 	cmp	r3, #7
    55e0:	e58d30bc 	str	r3, [sp, #188]	; 0xbc
    55e4:	d2822008 	addle	r2, r2, #8
    55e8:	da000006 	ble	0x5608
    55ec:	e28d20b8 	add	r2, sp, #184	; 0xb8
    55f0:	e1a01007 	mov	r1, r7
    55f4:	e1a0000b 	mov	r0, fp
    55f8:	eb000f29 	bl	0x92a4
    55fc:	e3500000 	cmp	r0, #0
    5600:	1a000195 	bne	0x5c5c
    5604:	e28d20c4 	add	r2, sp, #196	; 0xc4
    5608:	e59d1028 	ldr	r1, [sp, #40]	; 0x28
    560c:	e59d301c 	ldr	r3, [sp, #28]
    5610:	e0833001 	add	r3, r3, r1
    5614:	e5d41000 	ldrb	r1, [r4]
    5618:	e0433006 	sub	r3, r3, r6
    561c:	e1510003 	cmp	r1, r3
    5620:	b1a03001 	movlt	r3, r1
    5624:	e3530000 	cmp	r3, #0
    5628:	da000013 	ble	0x567c
    562c:	e59d10c0 	ldr	r1, [sp, #192]	; 0xc0
    5630:	e0831001 	add	r1, r3, r1
    5634:	e58d10c0 	str	r1, [sp, #192]	; 0xc0
    5638:	e59d10bc 	ldr	r1, [sp, #188]	; 0xbc
    563c:	e2811001 	add	r1, r1, #1
    5640:	e3510007 	cmp	r1, #7
    5644:	e5826000 	str	r6, [r2]
    5648:	e5823004 	str	r3, [r2, #4]
    564c:	e58d10bc 	str	r1, [sp, #188]	; 0xbc
    5650:	d2822008 	addle	r2, r2, #8
    5654:	da000008 	ble	0x567c
    5658:	e28d20b8 	add	r2, sp, #184	; 0xb8
    565c:	e1a01007 	mov	r1, r7
    5660:	e1a0000b 	mov	r0, fp
    5664:	e58d3024 	str	r3, [sp, #36]	; 0x24
    5668:	eb000f0d 	bl	0x92a4
    566c:	e3500000 	cmp	r0, #0
    5670:	1a000179 	bne	0x5c5c
    5674:	e59d3024 	ldr	r3, [sp, #36]	; 0x24
    5678:	e28d20c4 	add	r2, sp, #196	; 0xc4
    567c:	e5d41000 	ldrb	r1, [r4]
    5680:	e3530000 	cmp	r3, #0
    5684:	b1a03001 	movlt	r3, r1
    5688:	a0413003 	subge	r3, r1, r3
    568c:	e3530000 	cmp	r3, #0
    5690:	da00002e 	ble	0x5750
    5694:	e1a09008 	mov	r9, r8
    5698:	e1a08006 	mov	r8, r6
    569c:	e1a06004 	mov	r6, r4
    56a0:	e1a04003 	mov	r4, r3
    56a4:	e59d10bc 	ldr	r1, [sp, #188]	; 0xbc
    56a8:	e3540010 	cmp	r4, #16
    56ac:	e59d00c0 	ldr	r0, [sp, #192]	; 0xc0
    56b0:	e2811001 	add	r1, r1, #1
    56b4:	e282c008 	add	ip, r2, #8
    56b8:	da000011 	ble	0x5704
    56bc:	e3a03010 	mov	r3, #16
    56c0:	e3510007 	cmp	r1, #7
    56c4:	e0800003 	add	r0, r0, r3
    56c8:	e5825000 	str	r5, [r2]
    56cc:	e5823004 	str	r3, [r2, #4]
    56d0:	e58d00c0 	str	r0, [sp, #192]	; 0xc0
    56d4:	e58d10bc 	str	r1, [sp, #188]	; 0xbc
    56d8:	da000006 	ble	0x56f8
    56dc:	e28d20b8 	add	r2, sp, #184	; 0xb8
    56e0:	e1a01007 	mov	r1, r7
    56e4:	e1a0000b 	mov	r0, fp
    56e8:	eb000eed 	bl	0x92a4
    56ec:	e3500000 	cmp	r0, #0
    56f0:	1a000159 	bne	0x5c5c
    56f4:	e28dc0c4 	add	ip, sp, #196	; 0xc4
    56f8:	e2444010 	sub	r4, r4, #16
    56fc:	e1a0200c 	mov	r2, ip
    5700:	eaffffe7 	b	0x56a4
    5704:	e1a03004 	mov	r3, r4
    5708:	e3510007 	cmp	r1, #7
    570c:	e5823004 	str	r3, [r2, #4]
    5710:	e0833000 	add	r3, r3, r0
    5714:	e1a04006 	mov	r4, r6
    5718:	e5825000 	str	r5, [r2]
    571c:	e1a06008 	mov	r6, r8
    5720:	e58d30c0 	str	r3, [sp, #192]	; 0xc0
    5724:	e1a08009 	mov	r8, r9
    5728:	e58d10bc 	str	r1, [sp, #188]	; 0xbc
    572c:	d1a0200c 	movle	r2, ip
    5730:	da000006 	ble	0x5750
    5734:	e28d20b8 	add	r2, sp, #184	; 0xb8
    5738:	e1a01007 	mov	r1, r7
    573c:	e1a0000b 	mov	r0, fp
    5740:	eb000ed7 	bl	0x92a4
    5744:	e3500000 	cmp	r0, #0
    5748:	1a000143 	bne	0x5c5c
    574c:	e28d20c4 	add	r2, sp, #196	; 0xc4
    5750:	e5d43000 	ldrb	r3, [r4]
    5754:	e0866003 	add	r6, r6, r3
    5758:	eaffff88 	b	0x5580
    575c:	0800a052 	stmdaeq	r0, {r1, r4, r6, sp, pc}
    5760:	0800a041 	stmdaeq	r0, {r0, r6, sp, pc}
    5764:	0800a06a 	stmdaeq	r0, {r1, r3, r5, r6, sp, pc}
    5768:	0800a07c 	stmdaeq	r0, {r2, r3, r4, r5, r6, sp, pc}
    576c:	0800a06c 	stmdaeq	r0, {r2, r3, r5, r6, sp, pc}
    5770:	e1a09002 	mov	r9, r2
    5774:	e59d301c 	ldr	r3, [sp, #28]
    5778:	e59d2028 	ldr	r2, [sp, #40]	; 0x28
    577c:	e0833002 	add	r3, r3, r2
    5780:	e1560003 	cmp	r6, r3
    5784:	21a06003 	movcs	r6, r3
    5788:	e58d4050 	str	r4, [sp, #80]	; 0x50
    578c:	e59d7018 	ldr	r7, [sp, #24]
    5790:	e59d3094 	ldr	r3, [sp, #148]	; 0x94
    5794:	e59d2028 	ldr	r2, [sp, #40]	; 0x28
    5798:	e1530002 	cmp	r3, r2
    579c:	ba000001 	blt	0x57a8
    57a0:	e31a0001 	tst	sl, #1
    57a4:	0a000014 	beq	0x57fc
    57a8:	e59d3064 	ldr	r3, [sp, #100]	; 0x64
    57ac:	e5893000 	str	r3, [r9]
    57b0:	e59d3048 	ldr	r3, [sp, #72]	; 0x48
    57b4:	e59d2048 	ldr	r2, [sp, #72]	; 0x48
    57b8:	e5893004 	str	r3, [r9, #4]
    57bc:	e59d30c0 	ldr	r3, [sp, #192]	; 0xc0
    57c0:	e0833002 	add	r3, r3, r2
    57c4:	e58d30c0 	str	r3, [sp, #192]	; 0xc0
    57c8:	e59d30bc 	ldr	r3, [sp, #188]	; 0xbc
    57cc:	e2833001 	add	r3, r3, #1
    57d0:	e3530007 	cmp	r3, #7
    57d4:	e58d30bc 	str	r3, [sp, #188]	; 0xbc
    57d8:	d2899008 	addle	r9, r9, #8
    57dc:	da000006 	ble	0x57fc
    57e0:	e28d20b8 	add	r2, sp, #184	; 0xb8
    57e4:	e59d1020 	ldr	r1, [sp, #32]
    57e8:	e1a0000b 	mov	r0, fp
    57ec:	eb000eac 	bl	0x92a4
    57f0:	e3500000 	cmp	r0, #0
    57f4:	1a00011a 	bne	0x5c64
    57f8:	e28d90c4 	add	r9, sp, #196	; 0xc4
    57fc:	e59d301c 	ldr	r3, [sp, #28]
    5800:	e59d2028 	ldr	r2, [sp, #40]	; 0x28
    5804:	e59d4094 	ldr	r4, [sp, #148]	; 0x94
    5808:	e0835002 	add	r5, r3, r2
    580c:	e0453006 	sub	r3, r5, r6
    5810:	e0424004 	sub	r4, r2, r4
    5814:	e1540003 	cmp	r4, r3
    5818:	b1a05004 	movlt	r5, r4
    581c:	a1a05003 	movge	r5, r3
    5820:	e3550000 	cmp	r5, #0
    5824:	da000011 	ble	0x5870
    5828:	e59d30c0 	ldr	r3, [sp, #192]	; 0xc0
    582c:	e0853003 	add	r3, r5, r3
    5830:	e58d30c0 	str	r3, [sp, #192]	; 0xc0
    5834:	e59d30bc 	ldr	r3, [sp, #188]	; 0xbc
    5838:	e2833001 	add	r3, r3, #1
    583c:	e3530007 	cmp	r3, #7
    5840:	e5896000 	str	r6, [r9]
    5844:	e5895004 	str	r5, [r9, #4]
    5848:	e58d30bc 	str	r3, [sp, #188]	; 0xbc
    584c:	d2899008 	addle	r9, r9, #8
    5850:	da000006 	ble	0x5870
    5854:	e28d20b8 	add	r2, sp, #184	; 0xb8
    5858:	e59d1020 	ldr	r1, [sp, #32]
    585c:	e1a0000b 	mov	r0, fp
    5860:	eb000e8f 	bl	0x92a4
    5864:	e3500000 	cmp	r0, #0
    5868:	1a0000fd 	bne	0x5c64
    586c:	e28d90c4 	add	r9, sp, #196	; 0xc4
    5870:	e59d4094 	ldr	r4, [sp, #148]	; 0x94
    5874:	e59d3028 	ldr	r3, [sp, #40]	; 0x28
    5878:	e3550000 	cmp	r5, #0
    587c:	e0434004 	sub	r4, r3, r4
    5880:	a0444005 	subge	r4, r4, r5
    5884:	e3540000 	cmp	r4, #0
    5888:	c51f5128 	ldrgt	r5, [pc, #-296]	; 0x5768
    588c:	c3a06010 	movgt	r6, #16
    5890:	da0000a4 	ble	0x5b28
    5894:	e59d30bc 	ldr	r3, [sp, #188]	; 0xbc
    5898:	e3540010 	cmp	r4, #16
    589c:	e59d20c0 	ldr	r2, [sp, #192]	; 0xc0
    58a0:	e2833001 	add	r3, r3, #1
    58a4:	e2891008 	add	r1, r9, #8
    58a8:	e5895000 	str	r5, [r9]
    58ac:	da00000f 	ble	0x58f0
    58b0:	e2822010 	add	r2, r2, #16
    58b4:	e3530007 	cmp	r3, #7
    58b8:	e5896004 	str	r6, [r9, #4]
    58bc:	e58d20c0 	str	r2, [sp, #192]	; 0xc0
    58c0:	e58d30bc 	str	r3, [sp, #188]	; 0xbc
    58c4:	da000006 	ble	0x58e4
    58c8:	e28d20b8 	add	r2, sp, #184	; 0xb8
    58cc:	e59d1020 	ldr	r1, [sp, #32]
    58d0:	e1a0000b 	mov	r0, fp
    58d4:	eb000e72 	bl	0x92a4
    58d8:	e3500000 	cmp	r0, #0
    58dc:	1a0000e0 	bne	0x5c64
    58e0:	e28d10c4 	add	r1, sp, #196	; 0xc4
    58e4:	e2444010 	sub	r4, r4, #16
    58e8:	e1a09001 	mov	r9, r1
    58ec:	eaffffe8 	b	0x5894
    58f0:	e5894004 	str	r4, [r9, #4]
    58f4:	e3530007 	cmp	r3, #7
    58f8:	e0844002 	add	r4, r4, r2
    58fc:	e58d40c0 	str	r4, [sp, #192]	; 0xc0
    5900:	e58d30bc 	str	r3, [sp, #188]	; 0xbc
    5904:	d1a09001 	movle	r9, r1
    5908:	da000086 	ble	0x5b28
    590c:	ea00007e 	b	0x5b0c
    5910:	e59d2028 	ldr	r2, [sp, #40]	; 0x28
    5914:	e3520001 	cmp	r2, #1
    5918:	e59d201c 	ldr	r2, [sp, #28]
    591c:	e5892000 	str	r2, [r9]
    5920:	e3a02001 	mov	r2, #1
    5924:	e59d30bc 	ldr	r3, [sp, #188]	; 0xbc
    5928:	e2844001 	add	r4, r4, #1
    592c:	e2833001 	add	r3, r3, #1
    5930:	e2896008 	add	r6, r9, #8
    5934:	e5892004 	str	r2, [r9, #4]
    5938:	e58d40c0 	str	r4, [sp, #192]	; 0xc0
    593c:	e58d30bc 	str	r3, [sp, #188]	; 0xbc
    5940:	ca000001 	bgt	0x594c
    5944:	e31a0001 	tst	sl, #1
    5948:	0a00005f 	beq	0x5acc
    594c:	e3530007 	cmp	r3, #7
    5950:	da000006 	ble	0x5970
    5954:	e28d20b8 	add	r2, sp, #184	; 0xb8
    5958:	e59d1020 	ldr	r1, [sp, #32]
    595c:	e1a0000b 	mov	r0, fp
    5960:	eb000e4f 	bl	0x92a4
    5964:	e3500000 	cmp	r0, #0
    5968:	1a0000bd 	bne	0x5c64
    596c:	e28d60c4 	add	r6, sp, #196	; 0xc4
    5970:	e59d3064 	ldr	r3, [sp, #100]	; 0x64
    5974:	e5863000 	str	r3, [r6]
    5978:	e59d3048 	ldr	r3, [sp, #72]	; 0x48
    597c:	e59d2048 	ldr	r2, [sp, #72]	; 0x48
    5980:	e5863004 	str	r3, [r6, #4]
    5984:	e59d30c0 	ldr	r3, [sp, #192]	; 0xc0
    5988:	e0833002 	add	r3, r3, r2
    598c:	e58d30c0 	str	r3, [sp, #192]	; 0xc0
    5990:	e59d30bc 	ldr	r3, [sp, #188]	; 0xbc
    5994:	e2833001 	add	r3, r3, #1
    5998:	e3530007 	cmp	r3, #7
    599c:	e58d30bc 	str	r3, [sp, #188]	; 0xbc
    59a0:	d2866008 	addle	r6, r6, #8
    59a4:	da000006 	ble	0x59c4
    59a8:	e28d20b8 	add	r2, sp, #184	; 0xb8
    59ac:	e59d1020 	ldr	r1, [sp, #32]
    59b0:	e1a0000b 	mov	r0, fp
    59b4:	eb000e3a 	bl	0x92a4
    59b8:	e3500000 	cmp	r0, #0
    59bc:	1a0000a8 	bne	0x5c64
    59c0:	e28d60c4 	add	r6, sp, #196	; 0xc4
    59c4:	e59d3028 	ldr	r3, [sp, #40]	; 0x28
    59c8:	e28d205c 	add	r2, sp, #92	; 0x5c
    59cc:	e2434001 	sub	r4, r3, #1
    59d0:	e59d0040 	ldr	r0, [sp, #64]	; 0x40
    59d4:	e892000c 	ldm	r2, {r2, r3}
    59d8:	e59d1038 	ldr	r1, [sp, #56]	; 0x38
    59dc:	ebffefe5 	bl	0x1978
    59e0:	e3500000 	cmp	r0, #0
    59e4:	1a000015 	bne	0x5a40
    59e8:	e59d301c 	ldr	r3, [sp, #28]
    59ec:	e2833001 	add	r3, r3, #1
    59f0:	e59d20bc 	ldr	r2, [sp, #188]	; 0xbc
    59f4:	e8860018 	stm	r6, {r3, r4}
    59f8:	e59d30c0 	ldr	r3, [sp, #192]	; 0xc0
    59fc:	e59d1028 	ldr	r1, [sp, #40]	; 0x28
    5a00:	e2822001 	add	r2, r2, #1
    5a04:	e2433001 	sub	r3, r3, #1
    5a08:	e0833001 	add	r3, r3, r1
    5a0c:	e3520007 	cmp	r2, #7
    5a10:	e58d30c0 	str	r3, [sp, #192]	; 0xc0
    5a14:	e58d20bc 	str	r2, [sp, #188]	; 0xbc
    5a18:	d2866008 	addle	r6, r6, #8
    5a1c:	da00002c 	ble	0x5ad4
    5a20:	e28d20b8 	add	r2, sp, #184	; 0xb8
    5a24:	e59d1020 	ldr	r1, [sp, #32]
    5a28:	e1a0000b 	mov	r0, fp
    5a2c:	eb000e1c 	bl	0x92a4
    5a30:	e3500000 	cmp	r0, #0
    5a34:	1a00008a 	bne	0x5c64
    5a38:	e28d60c4 	add	r6, sp, #196	; 0xc4
    5a3c:	ea000024 	b	0x5ad4
    5a40:	e3540000 	cmp	r4, #0
    5a44:	c51f52e4 	ldrgt	r5, [pc, #-740]	; 0x5768
    5a48:	c3a09010 	movgt	r9, #16
    5a4c:	da000020 	ble	0x5ad4
    5a50:	e59d30bc 	ldr	r3, [sp, #188]	; 0xbc
    5a54:	e3540010 	cmp	r4, #16
    5a58:	e59d20c0 	ldr	r2, [sp, #192]	; 0xc0
    5a5c:	e2833001 	add	r3, r3, #1
    5a60:	e2861008 	add	r1, r6, #8
    5a64:	e5865000 	str	r5, [r6]
    5a68:	da00000f 	ble	0x5aac
    5a6c:	e2822010 	add	r2, r2, #16
    5a70:	e3530007 	cmp	r3, #7
    5a74:	e5869004 	str	r9, [r6, #4]
    5a78:	e58d20c0 	str	r2, [sp, #192]	; 0xc0
    5a7c:	e58d30bc 	str	r3, [sp, #188]	; 0xbc
    5a80:	da000006 	ble	0x5aa0
    5a84:	e28d20b8 	add	r2, sp, #184	; 0xb8
    5a88:	e59d1020 	ldr	r1, [sp, #32]
    5a8c:	e1a0000b 	mov	r0, fp
    5a90:	eb000e03 	bl	0x92a4
    5a94:	e3500000 	cmp	r0, #0
    5a98:	1a000071 	bne	0x5c64
    5a9c:	e28d10c4 	add	r1, sp, #196	; 0xc4
    5aa0:	e2444010 	sub	r4, r4, #16
    5aa4:	e1a06001 	mov	r6, r1
    5aa8:	eaffffe8 	b	0x5a50
    5aac:	e5864004 	str	r4, [r6, #4]
    5ab0:	e3530007 	cmp	r3, #7
    5ab4:	e0844002 	add	r4, r4, r2
    5ab8:	e58d40c0 	str	r4, [sp, #192]	; 0xc0
    5abc:	e58d30bc 	str	r3, [sp, #188]	; 0xbc
    5ac0:	d1a06001 	movle	r6, r1
    5ac4:	da000002 	ble	0x5ad4
    5ac8:	eaffffd4 	b	0x5a20
    5acc:	e3530007 	cmp	r3, #7
    5ad0:	caffffd2 	bgt	0x5a20
    5ad4:	e28d30a0 	add	r3, sp, #160	; 0xa0
    5ad8:	e5863000 	str	r3, [r6]
    5adc:	e59d306c 	ldr	r3, [sp, #108]	; 0x6c
    5ae0:	e59d206c 	ldr	r2, [sp, #108]	; 0x6c
    5ae4:	e5863004 	str	r3, [r6, #4]
    5ae8:	e59d30c0 	ldr	r3, [sp, #192]	; 0xc0
    5aec:	e0833002 	add	r3, r3, r2
    5af0:	e58d30c0 	str	r3, [sp, #192]	; 0xc0
    5af4:	e59d30bc 	ldr	r3, [sp, #188]	; 0xbc
    5af8:	e2833001 	add	r3, r3, #1
    5afc:	e3530007 	cmp	r3, #7
    5b00:	e58d30bc 	str	r3, [sp, #188]	; 0xbc
    5b04:	d2869008 	addle	r9, r6, #8
    5b08:	da000006 	ble	0x5b28
    5b0c:	e28d20b8 	add	r2, sp, #184	; 0xb8
    5b10:	e59d1020 	ldr	r1, [sp, #32]
    5b14:	e1a0000b 	mov	r0, fp
    5b18:	eb000de1 	bl	0x92a4
    5b1c:	e3500000 	cmp	r0, #0
    5b20:	1a00004f 	bne	0x5c64
    5b24:	e28d90c4 	add	r9, sp, #196	; 0xc4
    5b28:	e31a0004 	tst	sl, #4
    5b2c:	1a00000a 	bne	0x5b5c
    5b30:	e59d304c 	ldr	r3, [sp, #76]	; 0x4c
    5b34:	e59d203c 	ldr	r2, [sp, #60]	; 0x3c
    5b38:	e59d1054 	ldr	r1, [sp, #84]	; 0x54
    5b3c:	e1520001 	cmp	r2, r1
    5b40:	a0833002 	addge	r3, r3, r2
    5b44:	b0833001 	addlt	r3, r3, r1
    5b48:	e58d304c 	str	r3, [sp, #76]	; 0x4c
    5b4c:	e59d30c0 	ldr	r3, [sp, #192]	; 0xc0
    5b50:	e3530000 	cmp	r3, #0
    5b54:	0a000030 	beq	0x5c1c
    5b58:	ea000029 	b	0x5c04
    5b5c:	e59d303c 	ldr	r3, [sp, #60]	; 0x3c
    5b60:	e59d2054 	ldr	r2, [sp, #84]	; 0x54
    5b64:	e0434002 	sub	r4, r3, r2
    5b68:	e3540000 	cmp	r4, #0
    5b6c:	c51f5408 	ldrgt	r5, [pc, #-1032]	; 0x576c
    5b70:	c3a06010 	movgt	r6, #16
    5b74:	daffffed 	ble	0x5b30
    5b78:	e59d30bc 	ldr	r3, [sp, #188]	; 0xbc
    5b7c:	e3540010 	cmp	r4, #16
    5b80:	e59d20c0 	ldr	r2, [sp, #192]	; 0xc0
    5b84:	e2833001 	add	r3, r3, #1
    5b88:	e5895000 	str	r5, [r9]
    5b8c:	da00000f 	ble	0x5bd0
    5b90:	e2822010 	add	r2, r2, #16
    5b94:	e3530007 	cmp	r3, #7
    5b98:	e5896004 	str	r6, [r9, #4]
    5b9c:	e58d20c0 	str	r2, [sp, #192]	; 0xc0
    5ba0:	e58d30bc 	str	r3, [sp, #188]	; 0xbc
    5ba4:	d2899008 	addle	r9, r9, #8
    5ba8:	da000006 	ble	0x5bc8
    5bac:	e28d20b8 	add	r2, sp, #184	; 0xb8
    5bb0:	e59d1020 	ldr	r1, [sp, #32]
    5bb4:	e1a0000b 	mov	r0, fp
    5bb8:	eb000db9 	bl	0x92a4
    5bbc:	e3500000 	cmp	r0, #0
    5bc0:	1a000027 	bne	0x5c64
    5bc4:	e28d90c4 	add	r9, sp, #196	; 0xc4
    5bc8:	e2444010 	sub	r4, r4, #16
    5bcc:	eaffffe9 	b	0x5b78
    5bd0:	e5894004 	str	r4, [r9, #4]
    5bd4:	e3530007 	cmp	r3, #7
    5bd8:	e0844002 	add	r4, r4, r2
    5bdc:	e58d40c0 	str	r4, [sp, #192]	; 0xc0
    5be0:	e58d30bc 	str	r3, [sp, #188]	; 0xbc
    5be4:	daffffd1 	ble	0x5b30
    5be8:	e28d20b8 	add	r2, sp, #184	; 0xb8
    5bec:	e59d1020 	ldr	r1, [sp, #32]
    5bf0:	e1a0000b 	mov	r0, fp
    5bf4:	eb000daa 	bl	0x92a4
    5bf8:	e3500000 	cmp	r0, #0
    5bfc:	0affffcb 	beq	0x5b30
    5c00:	ea000017 	b	0x5c64
    5c04:	e28d20b8 	add	r2, sp, #184	; 0xb8
    5c08:	e59d1020 	ldr	r1, [sp, #32]
    5c0c:	e1a0000b 	mov	r0, fp
    5c10:	eb000da3 	bl	0x92a4
    5c14:	e3500000 	cmp	r0, #0
    5c18:	1a000011 	bne	0x5c64
    5c1c:	e3a03000 	mov	r3, #0
    5c20:	e1570003 	cmp	r7, r3
    5c24:	e58d30bc 	str	r3, [sp, #188]	; 0xbc
    5c28:	11a01007 	movne	r1, r7
    5c2c:	11a0000b 	movne	r0, fp
    5c30:	1b0006b7 	blne	0x7714
    5c34:	e28d90c4 	add	r9, sp, #196	; 0xc4
    5c38:	eafff7af 	b	0x3afc
    5c3c:	e59d30c0 	ldr	r3, [sp, #192]	; 0xc0
    5c40:	e3530000 	cmp	r3, #0
    5c44:	0a00000b 	beq	0x5c78
    5c48:	e28d20b8 	add	r2, sp, #184	; 0xb8
    5c4c:	e59d1020 	ldr	r1, [sp, #32]
    5c50:	e1a0000b 	mov	r0, fp
    5c54:	eb000d92 	bl	0x92a4
    5c58:	ea000006 	b	0x5c78
    5c5c:	e59da018 	ldr	sl, [sp, #24]
    5c60:	ea000000 	b	0x5c68
    5c64:	e1a0a007 	mov	sl, r7
    5c68:	e35a0000 	cmp	sl, #0
    5c6c:	11a0100a 	movne	r1, sl
    5c70:	11a0000b 	movne	r0, fp
    5c74:	1b0006a6 	blne	0x7714
    5c78:	e59d3020 	ldr	r3, [sp, #32]
    5c7c:	e1d330bc 	ldrh	r3, [r3, #12]
    5c80:	e3130040 	tst	r3, #64	; 0x40
    5c84:	e59d304c 	ldr	r3, [sp, #76]	; 0x4c
    5c88:	13e03000 	mvnne	r3, #0
    5c8c:	e58d304c 	str	r3, [sp, #76]	; 0x4c
    5c90:	e59d004c 	ldr	r0, [sp, #76]	; 0x4c
    5c94:	e28ddfbb 	add	sp, sp, #748	; 0x2ec
    5c98:	e8bd4ff0 	pop	{r4, r5, r6, r7, r8, r9, sl, fp, lr}
    5c9c:	e12fff1e 	bx	lr
    5ca0:	e92d40f0 	push	{r4, r5, r6, r7, lr}
    5ca4:	e2536000 	subs	r6, r3, #0
    5ca8:	02806f45 	addeq	r6, r0, #276	; 0x114
    5cac:	e3510000 	cmp	r1, #0
    5cb0:	e24dd014 	sub	sp, sp, #20
    5cb4:	e1a05000 	mov	r5, r0
    5cb8:	e1a04001 	mov	r4, r1
    5cbc:	e1a07002 	mov	r7, r2
    5cc0:	0a000013 	beq	0x5d14
    5cc4:	eb001070 	bl	0x9e8c
    5cc8:	e5903034 	ldr	r3, [r0, #52]	; 0x34
    5ccc:	e59f2074 	ldr	r2, [pc, #116]	; 0x5d48
    5cd0:	e3530000 	cmp	r3, #0
    5cd4:	01a03002 	moveq	r3, r2
    5cd8:	e1a01004 	mov	r1, r4
    5cdc:	e1a02007 	mov	r2, r7
    5ce0:	e59340e0 	ldr	r4, [r3, #224]	; 0xe0
    5ce4:	e1a00005 	mov	r0, r5
    5ce8:	e1a03006 	mov	r3, r6
    5cec:	e1a0e00f 	mov	lr, pc
    5cf0:	e12fff14 	bx	r4
    5cf4:	e3700001 	cmn	r0, #1
    5cf8:	03a02000 	moveq	r2, #0
    5cfc:	03a0308a 	moveq	r3, #138	; 0x8a
    5d00:	05862000 	streq	r2, [r6]
    5d04:	05853000 	streq	r3, [r5]
    5d08:	e28dd014 	add	sp, sp, #20
    5d0c:	e8bd40f0 	pop	{r4, r5, r6, r7, lr}
    5d10:	e12fff1e 	bx	lr
    5d14:	eb00105c 	bl	0x9e8c
    5d18:	e5903034 	ldr	r3, [r0, #52]	; 0x34
    5d1c:	e59f2024 	ldr	r2, [pc, #36]	; 0x5d48
    5d20:	e3530000 	cmp	r3, #0
    5d24:	01a03002 	moveq	r3, r2
    5d28:	e28d1004 	add	r1, sp, #4
    5d2c:	e1a02004 	mov	r2, r4
    5d30:	e1a00005 	mov	r0, r5
    5d34:	e59340e0 	ldr	r4, [r3, #224]	; 0xe0
    5d38:	e1a03006 	mov	r3, r6
    5d3c:	e1a0e00f 	mov	lr, pc
    5d40:	e12fff14 	bx	r4
    5d44:	eaffffea 	b	0x5cf4
    5d48:	030001ec 	tsteq	r0, #236, 2	; 0x3b
    5d4c:	e52de004 	push	{lr}		; (str lr, [sp, #-4]!)
    5d50:	e24dd00c 	sub	sp, sp, #12
    5d54:	e59dc010 	ldr	ip, [sp, #16]
    5d58:	e88d1008 	stm	sp, {r3, ip}
    5d5c:	e3e03000 	mvn	r3, #0
    5d60:	eb000e17 	bl	0x95c4
    5d64:	e28dd00c 	add	sp, sp, #12
    5d68:	e49de004 	pop	{lr}		; (ldr lr, [sp], #4)
    5d6c:	e12fff1e 	bx	lr
    5d70:	e92d4ff0 	push	{r4, r5, r6, r7, r8, r9, sl, fp, lr}
    5d74:	e5903010 	ldr	r3, [r0, #16]
    5d78:	e5915010 	ldr	r5, [r1, #16]
    5d7c:	e1530005 	cmp	r3, r5
    5d80:	e24dd014 	sub	sp, sp, #20
    5d84:	b3a00000 	movlt	r0, #0
    5d88:	ba000071 	blt	0x5f54
    5d8c:	e2455001 	sub	r5, r5, #1
    5d90:	e2814014 	add	r4, r1, #20
    5d94:	e2809014 	add	r9, r0, #20
    5d98:	e7948105 	ldr	r8, [r4, r5, lsl #2]
    5d9c:	e799a105 	ldr	sl, [r9, r5, lsl #2]
    5da0:	e2888001 	add	r8, r8, #1
    5da4:	e58d1004 	str	r1, [sp, #4]
    5da8:	e1a07000 	mov	r7, r0
    5dac:	e1a01008 	mov	r1, r8
    5db0:	e1a0000a 	mov	r0, sl
    5db4:	ebffebf4 	bl	0xd8c
    5db8:	e1a03105 	lsl	r3, r5, #2
    5dbc:	e15a0008 	cmp	sl, r8
    5dc0:	e58d3008 	str	r3, [sp, #8]
    5dc4:	e0848003 	add	r8, r4, r3
    5dc8:	e0893003 	add	r3, r9, r3
    5dcc:	e1a06000 	mov	r6, r0
    5dd0:	e58d300c 	str	r3, [sp, #12]
    5dd4:	3a000031 	bcc	0x5ea0
    5dd8:	e3a01000 	mov	r1, #0
    5ddc:	e1a0e004 	mov	lr, r4
    5de0:	e1a02001 	mov	r2, r1
    5de4:	e1a00009 	mov	r0, r9
    5de8:	e59fc170 	ldr	ip, [pc, #368]	; 0x5f60
    5dec:	e49ea004 	ldr	sl, [lr], #4
    5df0:	e00a300c 	and	r3, sl, ip
    5df4:	e02b1396 	mla	fp, r6, r3, r1
    5df8:	e1a0100b 	mov	r1, fp
    5dfc:	e1a0a82a 	lsr	sl, sl, #16
    5e00:	e1a0382b 	lsr	r3, fp, #16
    5e04:	e02b3a96 	mla	fp, r6, sl, r3
    5e08:	e1a03001 	mov	r3, r1
    5e0c:	e1a0a00b 	mov	sl, fp
    5e10:	e590b000 	ldr	fp, [r0]
    5e14:	e003300c 	and	r3, r3, ip
    5e18:	e0423003 	sub	r3, r2, r3
    5e1c:	e00b100c 	and	r1, fp, ip
    5e20:	e00a200c 	and	r2, sl, ip
    5e24:	e0833001 	add	r3, r3, r1
    5e28:	e062282b 	rsb	r2, r2, fp, lsr #16
    5e2c:	e0822843 	add	r2, r2, r3, asr #16
    5e30:	e003300c 	and	r3, r3, ip
    5e34:	e1833802 	orr	r3, r3, r2, lsl #16
    5e38:	e158000e 	cmp	r8, lr
    5e3c:	e4803004 	str	r3, [r0], #4
    5e40:	e1a02842 	asr	r2, r2, #16
    5e44:	e1a0182a 	lsr	r1, sl, #16
    5e48:	2affffe7 	bcs	0x5dec
    5e4c:	e59d3008 	ldr	r3, [sp, #8]
    5e50:	e7993003 	ldr	r3, [r9, r3]
    5e54:	e3530000 	cmp	r3, #0
    5e58:	1a000010 	bne	0x5ea0
    5e5c:	e59d200c 	ldr	r2, [sp, #12]
    5e60:	e2423004 	sub	r3, r2, #4
    5e64:	e1590003 	cmp	r9, r3
    5e68:	2a00000b 	bcs	0x5e9c
    5e6c:	e5123004 	ldr	r3, [r2, #-4]
    5e70:	e3530000 	cmp	r3, #0
    5e74:	1a000008 	bne	0x5e9c
    5e78:	e2423008 	sub	r3, r2, #8
    5e7c:	ea000003 	b	0x5e90
    5e80:	e5932000 	ldr	r2, [r3]
    5e84:	e3520000 	cmp	r2, #0
    5e88:	e2433004 	sub	r3, r3, #4
    5e8c:	1a000002 	bne	0x5e9c
    5e90:	e1590003 	cmp	r9, r3
    5e94:	e2455001 	sub	r5, r5, #1
    5e98:	3afffff8 	bcc	0x5e80
    5e9c:	e5875010 	str	r5, [r7, #16]
    5ea0:	e59d1004 	ldr	r1, [sp, #4]
    5ea4:	e1a00007 	mov	r0, r7
    5ea8:	eb000bc2 	bl	0x8db8
    5eac:	e3500000 	cmp	r0, #0
    5eb0:	ba000026 	blt	0x5f50
    5eb4:	e1a00009 	mov	r0, r9
    5eb8:	e3a03000 	mov	r3, #0
    5ebc:	e59f109c 	ldr	r1, [pc, #156]	; 0x5f60
    5ec0:	e2866001 	add	r6, r6, #1
    5ec4:	e494c004 	ldr	ip, [r4], #4
    5ec8:	e590e000 	ldr	lr, [r0]
    5ecc:	e00c2001 	and	r2, ip, r1
    5ed0:	e0432002 	sub	r2, r3, r2
    5ed4:	e1a0382c 	lsr	r3, ip, #16
    5ed8:	e00ec001 	and	ip, lr, r1
    5edc:	e082200c 	add	r2, r2, ip
    5ee0:	e063382e 	rsb	r3, r3, lr, lsr #16
    5ee4:	e0833842 	add	r3, r3, r2, asr #16
    5ee8:	e0022001 	and	r2, r2, r1
    5eec:	e1822803 	orr	r2, r2, r3, lsl #16
    5ef0:	e1580004 	cmp	r8, r4
    5ef4:	e4802004 	str	r2, [r0], #4
    5ef8:	e1a03843 	asr	r3, r3, #16
    5efc:	2afffff0 	bcs	0x5ec4
    5f00:	e7993105 	ldr	r3, [r9, r5, lsl #2]
    5f04:	e3530000 	cmp	r3, #0
    5f08:	e0893105 	add	r3, r9, r5, lsl #2
    5f0c:	1a00000f 	bne	0x5f50
    5f10:	e2432004 	sub	r2, r3, #4
    5f14:	e1590002 	cmp	r9, r2
    5f18:	2a00000b 	bcs	0x5f4c
    5f1c:	e5132004 	ldr	r2, [r3, #-4]
    5f20:	e3520000 	cmp	r2, #0
    5f24:	1a000008 	bne	0x5f4c
    5f28:	e2433008 	sub	r3, r3, #8
    5f2c:	ea000003 	b	0x5f40
    5f30:	e5932000 	ldr	r2, [r3]
    5f34:	e3520000 	cmp	r2, #0
    5f38:	e2433004 	sub	r3, r3, #4
    5f3c:	1a000002 	bne	0x5f4c
    5f40:	e1590003 	cmp	r9, r3
    5f44:	e2455001 	sub	r5, r5, #1
    5f48:	3afffff8 	bcc	0x5f30
    5f4c:	e5875010 	str	r5, [r7, #16]
    5f50:	e1a00006 	mov	r0, r6
    5f54:	e28dd014 	add	sp, sp, #20
    5f58:	e8bd4ff0 	pop	{r4, r5, r6, r7, r8, r9, sl, fp, lr}
    5f5c:	e12fff1e 	bx	lr
    5f60:	0000ffff 			; <UNDEFINED> instruction: 0x0000ffff
    5f64:	ffffffff 			; <UNDEFINED> instruction: 0xffffffff
    5f68:	e92d4ff0 	push	{r4, r5, r6, r7, r8, r9, sl, fp, lr}
    5f6c:	e1a06002 	mov	r6, r2
    5f70:	e1a07003 	mov	r7, r3
    5f74:	e5901040 	ldr	r1, [r0, #64]	; 0x40
    5f78:	e24dd06c 	sub	sp, sp, #108	; 0x6c
    5f7c:	e3510000 	cmp	r1, #0
    5f80:	e1a0b000 	mov	fp, r0
    5f84:	e58d6008 	str	r6, [sp, #8]
    5f88:	e58d700c 	str	r7, [sp, #12]
    5f8c:	e59d409c 	ldr	r4, [sp, #156]	; 0x9c
    5f90:	0a000006 	beq	0x5fb0
    5f94:	e3a03001 	mov	r3, #1
    5f98:	e5902044 	ldr	r2, [r0, #68]	; 0x44
    5f9c:	e1a03213 	lsl	r3, r3, r2
    5fa0:	e981000c 	stmib	r1, {r2, r3}
    5fa4:	eb000a03 	bl	0x87b8
    5fa8:	e3a03000 	mov	r3, #0
    5fac:	e58b3040 	str	r3, [fp, #64]	; 0x40
    5fb0:	e2576000 	subs	r6, r7, #0
    5fb4:	b3a03001 	movlt	r3, #1
    5fb8:	a3a03000 	movge	r3, #0
    5fbc:	e5843000 	str	r3, [r4]
    5fc0:	e59f3348 	ldr	r3, [pc, #840]	; 0x6310
    5fc4:	b3c66102 	biclt	r6, r6, #-2147483648	; 0x80000000
    5fc8:	b58d600c 	strlt	r6, [sp, #12]
    5fcc:	e1d33006 	bics	r3, r3, r6
    5fd0:	0a00009a 	beq	0x6240
    5fd4:	e28d4008 	add	r4, sp, #8
    5fd8:	e8940018 	ldm	r4, {r3, r4}
    5fdc:	e1a00003 	mov	r0, r3
    5fe0:	e1a01004 	mov	r1, r4
    5fe4:	e3a02000 	mov	r2, #0
    5fe8:	e3a03000 	mov	r3, #0
    5fec:	e58d0028 	str	r0, [sp, #40]	; 0x28
    5ff0:	e58d102c 	str	r1, [sp, #44]	; 0x2c
    5ff4:	ebffee5f 	bl	0x1978
    5ff8:	e2505000 	subs	r5, r0, #0
    5ffc:	0a00000d 	beq	0x6038
    6000:	e3a03001 	mov	r3, #1
    6004:	e59d20a0 	ldr	r2, [sp, #160]	; 0xa0
    6008:	e3520000 	cmp	r2, #0
    600c:	e59d2098 	ldr	r2, [sp, #152]	; 0x98
    6010:	e5823000 	str	r3, [r2]
    6014:	0a00027d 	beq	0x6a10
    6018:	e59f72c8 	ldr	r7, [pc, #712]	; 0x62e8
    601c:	e59d30a0 	ldr	r3, [sp, #160]	; 0xa0
    6020:	e5837000 	str	r7, [r3]
    6024:	e2477001 	sub	r7, r7, #1
    6028:	e1a00007 	mov	r0, r7
    602c:	e28dd06c 	add	sp, sp, #108	; 0x6c
    6030:	e8bd4ff0 	pop	{r4, r5, r6, r7, r8, r9, sl, fp, lr}
    6034:	e12fff1e 	bx	lr
    6038:	e28d8028 	add	r8, sp, #40	; 0x28
    603c:	e8980180 	ldm	r8, {r7, r8}
    6040:	e28d2060 	add	r2, sp, #96	; 0x60
    6044:	e28d3064 	add	r3, sp, #100	; 0x64
    6048:	e58d2004 	str	r2, [sp, #4]
    604c:	e58d3000 	str	r3, [sp]
    6050:	e1a02007 	mov	r2, r7
    6054:	e1a03008 	mov	r3, r8
    6058:	e1a0000b 	mov	r0, fp
    605c:	eb000bd0 	bl	0x8fa4
    6060:	e1b04a26 	lsrs	r4, r6, #20
    6064:	e1a0a000 	mov	sl, r0
    6068:	1a000087 	bne	0x628c
    606c:	e59d5060 	ldr	r5, [sp, #96]	; 0x60
    6070:	e59d4064 	ldr	r4, [sp, #100]	; 0x64
    6074:	e0854004 	add	r4, r5, r4
    6078:	e2843e43 	add	r3, r4, #1072	; 0x430
    607c:	e2833002 	add	r3, r3, #2
    6080:	e3530020 	cmp	r3, #32
    6084:	c2840e41 	addgt	r0, r4, #1040	; 0x410
    6088:	c59d2008 	ldrgt	r2, [sp, #8]
    608c:	c2800002 	addgt	r0, r0, #2
    6090:	d59d2008 	ldrle	r2, [sp, #8]
    6094:	c2633040 	rsbgt	r3, r3, #64	; 0x40
    6098:	c1a00032 	lsrgt	r0, r2, r0
    609c:	d2633020 	rsble	r3, r3, #32
    60a0:	d1a00312 	lslle	r0, r2, r3
    60a4:	c1800316 	orrgt	r0, r0, r6, lsl r3
    60a8:	ebffec96 	bl	0x1308
    60ac:	e1a02000 	mov	r2, r0
    60b0:	e3a00001 	mov	r0, #1
    60b4:	e58d0048 	str	r0, [sp, #72]	; 0x48
    60b8:	e2444001 	sub	r4, r4, #1
    60bc:	e241361f 	sub	r3, r1, #32505856	; 0x1f00000
    60c0:	e1a00002 	mov	r0, r2
    60c4:	e1a01003 	mov	r1, r3
    60c8:	e3a02000 	mov	r2, #0
    60cc:	e59f3218 	ldr	r3, [pc, #536]	; 0x62ec
    60d0:	ebffebc7 	bl	0xff4
    60d4:	e28f3f7d 	add	r3, pc, #500	; 0x1f4
    60d8:	e893000c 	ldm	r3, {r2, r3}
    60dc:	ebffeccb 	bl	0x1410
    60e0:	e28f3e1f 	add	r3, pc, #496	; 0x1f0
    60e4:	e893000c 	ldm	r3, {r2, r3}
    60e8:	ebffebc2 	bl	0xff8
    60ec:	e1a06000 	mov	r6, r0
    60f0:	e1a00004 	mov	r0, r4
    60f4:	e1a07001 	mov	r7, r1
    60f8:	ebffec8b 	bl	0x132c
    60fc:	e28f3f77 	add	r3, pc, #476	; 0x1dc
    6100:	e893000c 	ldm	r3, {r2, r3}
    6104:	ebffecc1 	bl	0x1410
    6108:	e1a02000 	mov	r2, r0
    610c:	e1a03001 	mov	r3, r1
    6110:	e1a00006 	mov	r0, r6
    6114:	e1a01007 	mov	r1, r7
    6118:	ebffebb6 	bl	0xff8
    611c:	e1a06000 	mov	r6, r0
    6120:	e1a07001 	mov	r7, r1
    6124:	ebffee3f 	bl	0x1a28
    6128:	e3a02000 	mov	r2, #0
    612c:	e58d0010 	str	r0, [sp, #16]
    6130:	e1a08000 	mov	r8, r0
    6134:	e3a03000 	mov	r3, #0
    6138:	e1a00006 	mov	r0, r6
    613c:	e1a01007 	mov	r1, r7
    6140:	ebffee12 	bl	0x1990
    6144:	e3500000 	cmp	r0, #0
    6148:	0a000008 	beq	0x6170
    614c:	e1a00008 	mov	r0, r8
    6150:	ebffec75 	bl	0x132c
    6154:	e1a03007 	mov	r3, r7
    6158:	e1a02006 	mov	r2, r6
    615c:	ebffee05 	bl	0x1978
    6160:	e3500000 	cmp	r0, #0
    6164:	01a03008 	moveq	r3, r8
    6168:	02433001 	subeq	r3, r3, #1
    616c:	058d3010 	streq	r3, [sp, #16]
    6170:	e0454004 	sub	r4, r5, r4
    6174:	e59d5010 	ldr	r5, [sp, #16]
    6178:	e2443001 	sub	r3, r4, #1
    617c:	e3550016 	cmp	r5, #22
    6180:	e58d301c 	str	r3, [sp, #28]
    6184:	8a000219 	bhi	0x69f0
    6188:	e59f3188 	ldr	r3, [pc, #392]	; 0x6318
    618c:	e0833185 	add	r3, r3, r5, lsl #3
    6190:	e893000c 	ldm	r3, {r2, r3}
    6194:	e28d1028 	add	r1, sp, #40	; 0x28
    6198:	e8910003 	ldm	r1, {r0, r1}
    619c:	ebffedfb 	bl	0x1990
    61a0:	e3500000 	cmp	r0, #0
    61a4:	0a00005d 	beq	0x6320
    61a8:	e2453001 	sub	r3, r5, #1
    61ac:	e58d3010 	str	r3, [sp, #16]
    61b0:	e3a03000 	mov	r3, #0
    61b4:	e58d303c 	str	r3, [sp, #60]	; 0x3c
    61b8:	e2443001 	sub	r3, r4, #1
    61bc:	e3530000 	cmp	r3, #0
    61c0:	a3a03000 	movge	r3, #0
    61c4:	a58d3030 	strge	r3, [sp, #48]	; 0x30
    61c8:	ba00020b 	blt	0x69fc
    61cc:	e59d3010 	ldr	r3, [sp, #16]
    61d0:	e3530000 	cmp	r3, #0
    61d4:	aa000057 	bge	0x6338
    61d8:	e59d3010 	ldr	r3, [sp, #16]
    61dc:	e59d2030 	ldr	r2, [sp, #48]	; 0x30
    61e0:	e0422003 	sub	r2, r2, r3
    61e4:	e58d2030 	str	r2, [sp, #48]	; 0x30
    61e8:	e58d3018 	str	r3, [sp, #24]
    61ec:	e2632000 	rsb	r2, r3, #0
    61f0:	e3a03000 	mov	r3, #0
    61f4:	e58d3010 	str	r3, [sp, #16]
    61f8:	e59d3090 	ldr	r3, [sp, #144]	; 0x90
    61fc:	e3530009 	cmp	r3, #9
    6200:	e58d2038 	str	r2, [sp, #56]	; 0x38
    6204:	8a000055 	bhi	0x6360
    6208:	e3530005 	cmp	r3, #5
    620c:	d3a04001 	movle	r4, #1
    6210:	c3a04000 	movgt	r4, #0
    6214:	c2433004 	subgt	r3, r3, #4
    6218:	c58d3090 	strgt	r3, [sp, #144]	; 0x90
    621c:	e59d3090 	ldr	r3, [sp, #144]	; 0x90
    6220:	e2433002 	sub	r3, r3, #2
    6224:	e3530003 	cmp	r3, #3
    6228:	979ff103 	ldrls	pc, [pc, r3, lsl #2]
    622c:	ea0003e0 	b	0x71b4
    6230:	08006f08 	stmdaeq	r0, {r3, r8, r9, sl, fp, sp, lr}
    6234:	08006efc 	stmdaeq	r0, {r2, r3, r4, r5, r6, r7, r9, sl, fp, sp, lr}
    6238:	08006e6c 	stmdaeq	r0, {r2, r3, r5, r6, r9, sl, fp, sp, lr}
    623c:	08006ecc 	stmdaeq	r0, {r2, r3, r6, r7, r9, sl, fp, sp, lr}
    6240:	e59d2008 	ldr	r2, [sp, #8]
    6244:	e3c664ff 	bic	r6, r6, #-16777216	; 0xff000000
    6248:	e3c6660f 	bic	r6, r6, #15728640	; 0xf00000
    624c:	e59f309c 	ldr	r3, [pc, #156]	; 0x62f0
    6250:	e1962002 	orrs	r2, r6, r2
    6254:	e59d2098 	ldr	r2, [sp, #152]	; 0x98
    6258:	e5823000 	str	r3, [r2]
    625c:	0a000014 	beq	0x62b4
    6260:	e59d30a0 	ldr	r3, [sp, #160]	; 0xa0
    6264:	e3530000 	cmp	r3, #0
    6268:	e59f7084 	ldr	r7, [pc, #132]	; 0x62f4
    626c:	0affff6d 	beq	0x6028
    6270:	e2873003 	add	r3, r7, #3
    6274:	e1a00007 	mov	r0, r7
    6278:	e59d20a0 	ldr	r2, [sp, #160]	; 0xa0
    627c:	e5823000 	str	r3, [r2]
    6280:	e28dd06c 	add	sp, sp, #108	; 0x6c
    6284:	e8bd4ff0 	pop	{r4, r5, r6, r7, r8, r9, sl, fp, lr}
    6288:	e12fff1e 	bx	lr
    628c:	e3c814ff 	bic	r1, r8, #-16777216	; 0xff000000
    6290:	e3c1160f 	bic	r1, r1, #15728640	; 0xf00000
    6294:	e2444fff 	sub	r4, r4, #1020	; 0x3fc
    6298:	e38135ff 	orr	r3, r1, #1069547520	; 0x3fc00000
    629c:	e58d5048 	str	r5, [sp, #72]	; 0x48
    62a0:	e1a02007 	mov	r2, r7
    62a4:	e2444003 	sub	r4, r4, #3
    62a8:	e3833603 	orr	r3, r3, #3145728	; 0x300000
    62ac:	e59d5060 	ldr	r5, [sp, #96]	; 0x60
    62b0:	eaffff82 	b	0x60c0
    62b4:	e59d30a0 	ldr	r3, [sp, #160]	; 0xa0
    62b8:	e59f7038 	ldr	r7, [pc, #56]	; 0x62f8
    62bc:	e3530000 	cmp	r3, #0
    62c0:	12873008 	addne	r3, r7, #8
    62c4:	1affffea 	bne	0x6274
    62c8:	eaffff56 	b	0x6028
    62cc:	e1a00000 	nop			; (mov r0, r0)
    62d0:	636f4361 	cmnvs	pc, #-2080374783	; 0x84000001
    62d4:	3fd287a7 	svccc	0x00d287a7
    62d8:	8b60c8b3 	blhi	0x18385ac
    62dc:	3fc68a28 	svccc	0x00c68a28
    62e0:	509f79fb 			; <UNDEFINED> instruction: 0x509f79fb
    62e4:	3fd34413 	svccc	0x00d34413
    62e8:	0800a09d 	stmdaeq	r0, {r0, r2, r3, r4, r7, sp, pc}
    62ec:	3ff80000 	svccc	0x00f80000
    62f0:	0000270f 	andeq	r2, r0, pc, lsl #14
    62f4:	0800a08c 	stmdaeq	r0, {r2, r3, r7, sp, pc}
    62f8:	0800a090 	stmdaeq	r0, {r4, r7, sp, pc}
    62fc:	3ff00000 	svccc	0x00f00000	; IMB
    6300:	0800a09c 	stmdaeq	r0, {r2, r3, r4, r7, sp, pc}
    6304:	40140000 	andsmi	r0, r4, r0
    6308:	0800a0e8 	stmdaeq	r0, {r3, r5, r6, r7, sp, pc}
    630c:	3fe00000 	svccc	0x00e00000
    6310:	7ff00000 	svcvc	0x00f00000	; IMB
    6314:	401c0000 	andsmi	r0, ip, r0
    6318:	0800a110 	stmdaeq	r0, {r4, r8, sp, pc}
    631c:	40240000 	eormi	r0, r4, r0
    6320:	e2443001 	sub	r3, r4, #1
    6324:	e3530000 	cmp	r3, #0
    6328:	b58d003c 	strlt	r0, [sp, #60]	; 0x3c
    632c:	ba0001b2 	blt	0x69fc
    6330:	e58d003c 	str	r0, [sp, #60]	; 0x3c
    6334:	e58d0030 	str	r0, [sp, #48]	; 0x30
    6338:	e59d3010 	ldr	r3, [sp, #16]
    633c:	e59d201c 	ldr	r2, [sp, #28]
    6340:	e58d3018 	str	r3, [sp, #24]
    6344:	e0822003 	add	r2, r2, r3
    6348:	e3a03000 	mov	r3, #0
    634c:	e58d3038 	str	r3, [sp, #56]	; 0x38
    6350:	e59d3090 	ldr	r3, [sp, #144]	; 0x90
    6354:	e3530009 	cmp	r3, #9
    6358:	e58d201c 	str	r2, [sp, #28]
    635c:	9affffa9 	bls	0x6208
    6360:	e3a03000 	mov	r3, #0
    6364:	e58d3090 	str	r3, [sp, #144]	; 0x90
    6368:	e3a03001 	mov	r3, #1
    636c:	e58d3034 	str	r3, [sp, #52]	; 0x34
    6370:	e3a03000 	mov	r3, #0
    6374:	e58d3094 	str	r3, [sp, #148]	; 0x94
    6378:	e1a04003 	mov	r4, r3
    637c:	e3e03000 	mvn	r3, #0
    6380:	e58d3024 	str	r3, [sp, #36]	; 0x24
    6384:	e3a01000 	mov	r1, #0
    6388:	e59d3024 	ldr	r3, [sp, #36]	; 0x24
    638c:	e58b1044 	str	r1, [fp, #68]	; 0x44
    6390:	e58d304c 	str	r3, [sp, #76]	; 0x4c
    6394:	e1a0000b 	mov	r0, fp
    6398:	eb0008e3 	bl	0x872c
    639c:	e3540000 	cmp	r4, #0
    63a0:	e58d0020 	str	r0, [sp, #32]
    63a4:	e58b0040 	str	r0, [fp, #64]	; 0x40
    63a8:	0a0000c0 	beq	0x66b0
    63ac:	e59d1018 	ldr	r1, [sp, #24]
    63b0:	e3510000 	cmp	r1, #0
    63b4:	da00022c 	ble	0x6c6c
    63b8:	e51f20a8 	ldr	r2, [pc, #-168]	; 0x6318
    63bc:	e201300f 	and	r3, r1, #15
    63c0:	e1a06241 	asr	r6, r1, #4
    63c4:	e0823183 	add	r3, r2, r3, lsl #3
    63c8:	e3160010 	tst	r6, #16
    63cc:	e8930030 	ldm	r3, {r4, r5}
    63d0:	03a08002 	moveq	r8, #2
    63d4:	0a000009 	beq	0x6400
    63d8:	e51f30d8 	ldr	r3, [pc, #-216]	; 0x6308
    63dc:	e28d1028 	add	r1, sp, #40	; 0x28
    63e0:	e8910003 	ldm	r1, {r0, r1}
    63e4:	e2833020 	add	r3, r3, #32
    63e8:	e893000c 	ldm	r3, {r2, r3}
    63ec:	ebffecab 	bl	0x16a0
    63f0:	e3a08003 	mov	r8, #3
    63f4:	e58d0008 	str	r0, [sp, #8]
    63f8:	e58d100c 	str	r1, [sp, #12]
    63fc:	e206600f 	and	r6, r6, #15
    6400:	e3560000 	cmp	r6, #0
    6404:	151f7104 	ldrne	r7, [pc, #-260]	; 0x6308
    6408:	0a00000b 	beq	0x643c
    640c:	e3160001 	tst	r6, #1
    6410:	0a000006 	beq	0x6430
    6414:	e1a00004 	mov	r0, r4
    6418:	e1a01005 	mov	r1, r5
    641c:	e897000c 	ldm	r7, {r2, r3}
    6420:	ebffebfa 	bl	0x1410
    6424:	e1a04000 	mov	r4, r0
    6428:	e1a05001 	mov	r5, r1
    642c:	e2888001 	add	r8, r8, #1
    6430:	e1b060c6 	asrs	r6, r6, #1
    6434:	e2877008 	add	r7, r7, #8
    6438:	1afffff3 	bne	0x640c
    643c:	e28d1008 	add	r1, sp, #8
    6440:	e8910003 	ldm	r1, {r0, r1}
    6444:	e1a02004 	mov	r2, r4
    6448:	e1a03005 	mov	r3, r5
    644c:	ebffec93 	bl	0x16a0
    6450:	e58d0008 	str	r0, [sp, #8]
    6454:	e58d100c 	str	r1, [sp, #12]
    6458:	e59d303c 	ldr	r3, [sp, #60]	; 0x3c
    645c:	e3530000 	cmp	r3, #0
    6460:	0a000008 	beq	0x6488
    6464:	e28d5008 	add	r5, sp, #8
    6468:	e8950030 	ldm	r5, {r4, r5}
    646c:	e3a02000 	mov	r2, #0
    6470:	e51f317c 	ldr	r3, [pc, #-380]	; 0x62fc
    6474:	e1a00004 	mov	r0, r4
    6478:	e1a01005 	mov	r1, r5
    647c:	ebffed43 	bl	0x1990
    6480:	e3500000 	cmp	r0, #0
    6484:	1a00031e 	bne	0x7104
    6488:	e1a00008 	mov	r0, r8
    648c:	ebffeba6 	bl	0x132c
    6490:	e28d3008 	add	r3, sp, #8
    6494:	e893000c 	ldm	r3, {r2, r3}
    6498:	ebffebdc 	bl	0x1410
    649c:	e3a02000 	mov	r2, #0
    64a0:	e51f3194 	ldr	r3, [pc, #-404]	; 0x6314
    64a4:	ebffead3 	bl	0xff8
    64a8:	e59d2024 	ldr	r2, [sp, #36]	; 0x24
    64ac:	e3520000 	cmp	r2, #0
    64b0:	e1a04000 	mov	r4, r0
    64b4:	e241550d 	sub	r5, r1, #54525952	; 0x3400000
    64b8:	0a000170 	beq	0x6a80
    64bc:	e59d3018 	ldr	r3, [sp, #24]
    64c0:	e59d7024 	ldr	r7, [sp, #36]	; 0x24
    64c4:	e58d3058 	str	r3, [sp, #88]	; 0x58
    64c8:	e28d1008 	add	r1, sp, #8
    64cc:	e8910003 	ldm	r1, {r0, r1}
    64d0:	ebffed54 	bl	0x1a28
    64d4:	e51f31c4 	ldr	r3, [pc, #-452]	; 0x6318
    64d8:	e0833187 	add	r3, r3, r7, lsl #3
    64dc:	e913000c 	ldmdb	r3, {r2, r3}
    64e0:	e2809030 	add	r9, r0, #48	; 0x30
    64e4:	e58d2050 	str	r2, [sp, #80]	; 0x50
    64e8:	e58d3054 	str	r3, [sp, #84]	; 0x54
    64ec:	ebffeb8e 	bl	0x132c
    64f0:	e1a02000 	mov	r2, r0
    64f4:	e1a03001 	mov	r3, r1
    64f8:	e28d1008 	add	r1, sp, #8
    64fc:	e8910003 	ldm	r1, {r0, r1}
    6500:	ebffeabb 	bl	0xff4
    6504:	e59d3034 	ldr	r3, [sp, #52]	; 0x34
    6508:	e59d6020 	ldr	r6, [sp, #32]
    650c:	e3530000 	cmp	r3, #0
    6510:	e20990ff 	and	r9, r9, #255	; 0xff
    6514:	e58d0040 	str	r0, [sp, #64]	; 0x40
    6518:	e58d1044 	str	r1, [sp, #68]	; 0x44
    651c:	e2868001 	add	r8, r6, #1
    6520:	e28d3050 	add	r3, sp, #80	; 0x50
    6524:	e893000c 	ldm	r3, {r2, r3}
    6528:	0a000279 	beq	0x6f14
    652c:	e3a00000 	mov	r0, #0
    6530:	e51f122c 	ldr	r1, [pc, #-556]	; 0x630c
    6534:	ebffec59 	bl	0x16a0
    6538:	e1a02004 	mov	r2, r4
    653c:	e1a03005 	mov	r3, r5
    6540:	ebffeaab 	bl	0xff4
    6544:	e5c69000 	strb	r9, [r6]
    6548:	e28d3040 	add	r3, sp, #64	; 0x40
    654c:	e893000c 	ldm	r3, {r2, r3}
    6550:	e1a04000 	mov	r4, r0
    6554:	e1a05001 	mov	r5, r1
    6558:	ebffed1e 	bl	0x19d8
    655c:	e3500000 	cmp	r0, #0
    6560:	1a000046 	bne	0x6680
    6564:	e28d3040 	add	r3, sp, #64	; 0x40
    6568:	e893000c 	ldm	r3, {r2, r3}
    656c:	e3a00000 	mov	r0, #0
    6570:	e51f127c 	ldr	r1, [pc, #-636]	; 0x62fc
    6574:	ebffea9e 	bl	0xff4
    6578:	e1a02000 	mov	r2, r0
    657c:	e1a03001 	mov	r3, r1
    6580:	e1a00004 	mov	r0, r4
    6584:	e1a01005 	mov	r1, r5
    6588:	ebffed12 	bl	0x19d8
    658c:	e3500000 	cmp	r0, #0
    6590:	1a00040d 	bne	0x75cc
    6594:	e3570001 	cmp	r7, #1
    6598:	0a000040 	beq	0x66a0
    659c:	e59d3020 	ldr	r3, [sp, #32]
    65a0:	e0833007 	add	r3, r3, r7
    65a4:	e58da050 	str	sl, [sp, #80]	; 0x50
    65a8:	e58db05c 	str	fp, [sp, #92]	; 0x5c
    65ac:	e58d3008 	str	r3, [sp, #8]
    65b0:	e3a06000 	mov	r6, #0
    65b4:	e51f72a0 	ldr	r7, [pc, #-672]	; 0x631c
    65b8:	e28db040 	add	fp, sp, #64	; 0x40
    65bc:	e89b0c00 	ldm	fp, {sl, fp}
    65c0:	ea00000c 	b	0x65f8
    65c4:	e1a0200a 	mov	r2, sl
    65c8:	e1a0300b 	mov	r3, fp
    65cc:	e3a00000 	mov	r0, #0
    65d0:	e51f12dc 	ldr	r1, [pc, #-732]	; 0x62fc
    65d4:	ebffea86 	bl	0xff4
    65d8:	e1a02004 	mov	r2, r4
    65dc:	e1a03005 	mov	r3, r5
    65e0:	ebffecea 	bl	0x1990
    65e4:	e3500000 	cmp	r0, #0
    65e8:	1a0003bc 	bne	0x74e0
    65ec:	e59d3008 	ldr	r3, [sp, #8]
    65f0:	e1580003 	cmp	r8, r3
    65f4:	0a000027 	beq	0x6698
    65f8:	e1a00004 	mov	r0, r4
    65fc:	e1a01005 	mov	r1, r5
    6600:	e1a02006 	mov	r2, r6
    6604:	e1a03007 	mov	r3, r7
    6608:	ebffeb80 	bl	0x1410
    660c:	e1a02006 	mov	r2, r6
    6610:	e1a03007 	mov	r3, r7
    6614:	e1a04000 	mov	r4, r0
    6618:	e1a05001 	mov	r5, r1
    661c:	e1a0000a 	mov	r0, sl
    6620:	e1a0100b 	mov	r1, fp
    6624:	ebffeb79 	bl	0x1410
    6628:	e1a0b001 	mov	fp, r1
    662c:	e1a0a000 	mov	sl, r0
    6630:	ebffecfc 	bl	0x1a28
    6634:	e1a09000 	mov	r9, r0
    6638:	ebffeb3b 	bl	0x132c
    663c:	e1a02000 	mov	r2, r0
    6640:	e1a03001 	mov	r3, r1
    6644:	e1a0000a 	mov	r0, sl
    6648:	e1a0100b 	mov	r1, fp
    664c:	ebffea68 	bl	0xff4
    6650:	e2899030 	add	r9, r9, #48	; 0x30
    6654:	e20990ff 	and	r9, r9, #255	; 0xff
    6658:	e4c89001 	strb	r9, [r8], #1
    665c:	e1a02004 	mov	r2, r4
    6660:	e1a03005 	mov	r3, r5
    6664:	e1a0a000 	mov	sl, r0
    6668:	e1a0b001 	mov	fp, r1
    666c:	ebffecc7 	bl	0x1990
    6670:	e3500000 	cmp	r0, #0
    6674:	0affffd2 	beq	0x65c4
    6678:	e59da050 	ldr	sl, [sp, #80]	; 0x50
    667c:	e59db05c 	ldr	fp, [sp, #92]	; 0x5c
    6680:	e59d3058 	ldr	r3, [sp, #88]	; 0x58
    6684:	e2833001 	add	r3, r3, #1
    6688:	e59d7020 	ldr	r7, [sp, #32]
    668c:	e58d3018 	str	r3, [sp, #24]
    6690:	e58d8020 	str	r8, [sp, #32]
    6694:	ea0000a0 	b	0x691c
    6698:	e59da050 	ldr	sl, [sp, #80]	; 0x50
    669c:	e59db05c 	ldr	fp, [sp, #92]	; 0x5c
    66a0:	e28d4028 	add	r4, sp, #40	; 0x28
    66a4:	e8940018 	ldm	r4, {r3, r4}
    66a8:	e58d3008 	str	r3, [sp, #8]
    66ac:	e58d400c 	str	r4, [sp, #12]
    66b0:	e59d2018 	ldr	r2, [sp, #24]
    66b4:	e59d3064 	ldr	r3, [sp, #100]	; 0x64
    66b8:	e352000e 	cmp	r2, #14
    66bc:	c3a02000 	movgt	r2, #0
    66c0:	d3a02001 	movle	r2, #1
    66c4:	e3530000 	cmp	r3, #0
    66c8:	b3a02000 	movlt	r2, #0
    66cc:	e3520000 	cmp	r2, #0
    66d0:	1a0000a9 	bne	0x697c
    66d4:	e59d2034 	ldr	r2, [sp, #52]	; 0x34
    66d8:	e3520000 	cmp	r2, #0
    66dc:	0a0000d9 	beq	0x6a48
    66e0:	e59d2090 	ldr	r2, [sp, #144]	; 0x90
    66e4:	e3520001 	cmp	r2, #1
    66e8:	da0002a2 	ble	0x7178
    66ec:	e59d3024 	ldr	r3, [sp, #36]	; 0x24
    66f0:	e2435001 	sub	r5, r3, #1
    66f4:	e59d3038 	ldr	r3, [sp, #56]	; 0x38
    66f8:	e1530005 	cmp	r3, r5
    66fc:	b59d3038 	ldrlt	r3, [sp, #56]	; 0x38
    6700:	b59d2010 	ldrlt	r2, [sp, #16]
    6704:	b0453003 	sublt	r3, r5, r3
    6708:	b0823003 	addlt	r3, r2, r3
    670c:	a0435005 	subge	r5, r3, r5
    6710:	b58d3010 	strlt	r3, [sp, #16]
    6714:	e59d3024 	ldr	r3, [sp, #36]	; 0x24
    6718:	b58d5038 	strlt	r5, [sp, #56]	; 0x38
    671c:	b3a05000 	movlt	r5, #0
    6720:	e3530000 	cmp	r3, #0
    6724:	a59d201c 	ldrge	r2, [sp, #28]
    6728:	a0822003 	addge	r2, r2, r3
    672c:	a58d201c 	strge	r2, [sp, #28]
    6730:	a59d2030 	ldrge	r2, [sp, #48]	; 0x30
    6734:	a1a06002 	movge	r6, r2
    6738:	a0823003 	addge	r3, r2, r3
    673c:	b59d3030 	ldrlt	r3, [sp, #48]	; 0x30
    6740:	b59d2024 	ldrlt	r2, [sp, #36]	; 0x24
    6744:	a58d3030 	strge	r3, [sp, #48]	; 0x30
    6748:	b0436002 	sublt	r6, r3, r2
    674c:	e3a01001 	mov	r1, #1
    6750:	e1a0000b 	mov	r0, fp
    6754:	eb000897 	bl	0x89b8
    6758:	e1a04000 	mov	r4, r0
    675c:	e59d201c 	ldr	r2, [sp, #28]
    6760:	e3560000 	cmp	r6, #0
    6764:	c3520000 	cmpgt	r2, #0
    6768:	da000008 	ble	0x6790
    676c:	e1560002 	cmp	r6, r2
    6770:	b1a03006 	movlt	r3, r6
    6774:	a1a03002 	movge	r3, r2
    6778:	e59d1030 	ldr	r1, [sp, #48]	; 0x30
    677c:	e0466003 	sub	r6, r6, r3
    6780:	e0411003 	sub	r1, r1, r3
    6784:	e0423003 	sub	r3, r2, r3
    6788:	e58d1030 	str	r1, [sp, #48]	; 0x30
    678c:	e58d301c 	str	r3, [sp, #28]
    6790:	e59d3038 	ldr	r3, [sp, #56]	; 0x38
    6794:	e3530000 	cmp	r3, #0
    6798:	0a000007 	beq	0x67bc
    679c:	e59d3034 	ldr	r3, [sp, #52]	; 0x34
    67a0:	e3530000 	cmp	r3, #0
    67a4:	0a00006e 	beq	0x6964
    67a8:	e3550000 	cmp	r5, #0
    67ac:	ca00022f 	bgt	0x7070
    67b0:	e59d3038 	ldr	r3, [sp, #56]	; 0x38
    67b4:	e0532005 	subs	r2, r3, r5
    67b8:	1a00006a 	bne	0x6968
    67bc:	e3a01001 	mov	r1, #1
    67c0:	e1a0000b 	mov	r0, fp
    67c4:	eb00087b 	bl	0x89b8
    67c8:	e59d2010 	ldr	r2, [sp, #16]
    67cc:	e3520000 	cmp	r2, #0
    67d0:	e1a05000 	mov	r5, r0
    67d4:	ca000146 	bgt	0x6cf4
    67d8:	e59d3090 	ldr	r3, [sp, #144]	; 0x90
    67dc:	e3530001 	cmp	r3, #1
    67e0:	da00023c 	ble	0x70d8
    67e4:	e3a08000 	mov	r8, #0
    67e8:	e59d3010 	ldr	r3, [sp, #16]
    67ec:	e3530000 	cmp	r3, #0
    67f0:	03a00001 	moveq	r0, #1
    67f4:	1a000146 	bne	0x6d14
    67f8:	e59d201c 	ldr	r2, [sp, #28]
    67fc:	e0800002 	add	r0, r0, r2
    6800:	e210001f 	ands	r0, r0, #31
    6804:	0a000086 	beq	0x6a24
    6808:	e2603020 	rsb	r3, r0, #32
    680c:	e3530004 	cmp	r3, #4
    6810:	da000372 	ble	0x75e0
    6814:	e59d3030 	ldr	r3, [sp, #48]	; 0x30
    6818:	e260001c 	rsb	r0, r0, #28
    681c:	e0833000 	add	r3, r3, r0
    6820:	e58d3030 	str	r3, [sp, #48]	; 0x30
    6824:	e0823000 	add	r3, r2, r0
    6828:	e58d301c 	str	r3, [sp, #28]
    682c:	e0866000 	add	r6, r6, r0
    6830:	e59d3030 	ldr	r3, [sp, #48]	; 0x30
    6834:	e3530000 	cmp	r3, #0
    6838:	da000004 	ble	0x6850
    683c:	e1a0100a 	mov	r1, sl
    6840:	e1a02003 	mov	r2, r3
    6844:	e1a0000b 	mov	r0, fp
    6848:	eb00091c 	bl	0x8cc0
    684c:	e1a0a000 	mov	sl, r0
    6850:	e59d301c 	ldr	r3, [sp, #28]
    6854:	e3530000 	cmp	r3, #0
    6858:	da000004 	ble	0x6870
    685c:	e1a01005 	mov	r1, r5
    6860:	e1a02003 	mov	r2, r3
    6864:	e1a0000b 	mov	r0, fp
    6868:	eb000914 	bl	0x8cc0
    686c:	e1a05000 	mov	r5, r0
    6870:	e59d3090 	ldr	r3, [sp, #144]	; 0x90
    6874:	e3530002 	cmp	r3, #2
    6878:	e59d303c 	ldr	r3, [sp, #60]	; 0x3c
    687c:	d3a07000 	movle	r7, #0
    6880:	c3a07001 	movgt	r7, #1
    6884:	e3530000 	cmp	r3, #0
    6888:	1a000127 	bne	0x6d2c
    688c:	e59d3024 	ldr	r3, [sp, #36]	; 0x24
    6890:	e3530000 	cmp	r3, #0
    6894:	c3a07000 	movgt	r7, #0
    6898:	d2077001 	andle	r7, r7, #1
    689c:	e3570000 	cmp	r7, #0
    68a0:	0a00008c 	beq	0x6ad8
    68a4:	e59d3024 	ldr	r3, [sp, #36]	; 0x24
    68a8:	e3530000 	cmp	r3, #0
    68ac:	1a00004b 	bne	0x69e0
    68b0:	e1a01005 	mov	r1, r5
    68b4:	e3a02005 	mov	r2, #5
    68b8:	e1a0000b 	mov	r0, fp
    68bc:	eb0007c4 	bl	0x87d4
    68c0:	e1a01000 	mov	r1, r0
    68c4:	e1a05000 	mov	r5, r0
    68c8:	e1a0000a 	mov	r0, sl
    68cc:	eb000939 	bl	0x8db8
    68d0:	e3500000 	cmp	r0, #0
    68d4:	da000041 	ble	0x69e0
    68d8:	e59d7020 	ldr	r7, [sp, #32]
    68dc:	e3a02031 	mov	r2, #49	; 0x31
    68e0:	e1a03007 	mov	r3, r7
    68e4:	e4c32001 	strb	r2, [r3], #1
    68e8:	e59d2018 	ldr	r2, [sp, #24]
    68ec:	e58d3020 	str	r3, [sp, #32]
    68f0:	e2826001 	add	r6, r2, #1
    68f4:	e1a01005 	mov	r1, r5
    68f8:	e1a0000b 	mov	r0, fp
    68fc:	eb0007ad 	bl	0x87b8
    6900:	e2863001 	add	r3, r6, #1
    6904:	e3540000 	cmp	r4, #0
    6908:	e58d3018 	str	r3, [sp, #24]
    690c:	0a000002 	beq	0x691c
    6910:	e1a01004 	mov	r1, r4
    6914:	e1a0000b 	mov	r0, fp
    6918:	eb0007a6 	bl	0x87b8
    691c:	e1a0100a 	mov	r1, sl
    6920:	e1a0000b 	mov	r0, fp
    6924:	eb0007a3 	bl	0x87b8
    6928:	e3a03000 	mov	r3, #0
    692c:	e59d20a0 	ldr	r2, [sp, #160]	; 0xa0
    6930:	e1520003 	cmp	r2, r3
    6934:	e59d2020 	ldr	r2, [sp, #32]
    6938:	e59d1018 	ldr	r1, [sp, #24]
    693c:	e5c23000 	strb	r3, [r2]
    6940:	e59d3098 	ldr	r3, [sp, #152]	; 0x98
    6944:	e5831000 	str	r1, [r3]
    6948:	0afffdb6 	beq	0x6028
    694c:	e1a00007 	mov	r0, r7
    6950:	e59d30a0 	ldr	r3, [sp, #160]	; 0xa0
    6954:	e5832000 	str	r2, [r3]
    6958:	e28dd06c 	add	sp, sp, #108	; 0x6c
    695c:	e8bd4ff0 	pop	{r4, r5, r6, r7, r8, r9, sl, fp, lr}
    6960:	e12fff1e 	bx	lr
    6964:	e59d2038 	ldr	r2, [sp, #56]	; 0x38
    6968:	e1a0100a 	mov	r1, sl
    696c:	e1a0000b 	mov	r0, fp
    6970:	eb000891 	bl	0x8bbc
    6974:	e1a0a000 	mov	sl, r0
    6978:	eaffff8f 	b	0x67bc
    697c:	e59d5024 	ldr	r5, [sp, #36]	; 0x24
    6980:	e3550000 	cmp	r5, #0
    6984:	c3a02000 	movgt	r2, #0
    6988:	d3a02001 	movle	r2, #1
    698c:	e59d1094 	ldr	r1, [sp, #148]	; 0x94
    6990:	e51f3680 	ldr	r3, [pc, #-1664]	; 0x6318
    6994:	e0122fa1 	ands	r2, r2, r1, lsr #31
    6998:	e59d2018 	ldr	r2, [sp, #24]
    699c:	e0833182 	add	r3, r3, r2, lsl #3
    69a0:	e8930003 	ldm	r3, {r0, r1}
    69a4:	e58d0010 	str	r0, [sp, #16]
    69a8:	e58d1014 	str	r1, [sp, #20]
    69ac:	0a000217 	beq	0x7210
    69b0:	e3550000 	cmp	r5, #0
    69b4:	1a000044 	bne	0x6acc
    69b8:	e3a02000 	mov	r2, #0
    69bc:	e51f36c0 	ldr	r3, [pc, #-1728]	; 0x6304
    69c0:	ebffea92 	bl	0x1410
    69c4:	e28d3008 	add	r3, sp, #8
    69c8:	e893000c 	ldm	r3, {r2, r3}
    69cc:	ebffebfb 	bl	0x19c0
    69d0:	e3500000 	cmp	r0, #0
    69d4:	0a0001bd 	beq	0x70d0
    69d8:	e59d5024 	ldr	r5, [sp, #36]	; 0x24
    69dc:	e1a04005 	mov	r4, r5
    69e0:	e59d3094 	ldr	r3, [sp, #148]	; 0x94
    69e4:	e59d7020 	ldr	r7, [sp, #32]
    69e8:	e1e06003 	mvn	r6, r3
    69ec:	eaffffc0 	b	0x68f4
    69f0:	e3a03001 	mov	r3, #1
    69f4:	e58d303c 	str	r3, [sp, #60]	; 0x3c
    69f8:	eafffdee 	b	0x61b8
    69fc:	e2643001 	rsb	r3, r4, #1
    6a00:	e58d3030 	str	r3, [sp, #48]	; 0x30
    6a04:	e3a03000 	mov	r3, #0
    6a08:	e58d301c 	str	r3, [sp, #28]
    6a0c:	eafffdee 	b	0x61cc
    6a10:	e51f7718 	ldr	r7, [pc, #-1816]	; 0x6300
    6a14:	e1a00007 	mov	r0, r7
    6a18:	e28dd06c 	add	sp, sp, #108	; 0x6c
    6a1c:	e8bd4ff0 	pop	{r4, r5, r6, r7, r8, r9, sl, fp, lr}
    6a20:	e12fff1e 	bx	lr
    6a24:	e3a0001c 	mov	r0, #28
    6a28:	e59d3030 	ldr	r3, [sp, #48]	; 0x30
    6a2c:	e0833000 	add	r3, r3, r0
    6a30:	e58d3030 	str	r3, [sp, #48]	; 0x30
    6a34:	e59d301c 	ldr	r3, [sp, #28]
    6a38:	e0833000 	add	r3, r3, r0
    6a3c:	e0866000 	add	r6, r6, r0
    6a40:	e58d301c 	str	r3, [sp, #28]
    6a44:	eaffff79 	b	0x6830
    6a48:	e59d5038 	ldr	r5, [sp, #56]	; 0x38
    6a4c:	e59d6030 	ldr	r6, [sp, #48]	; 0x30
    6a50:	e59d4034 	ldr	r4, [sp, #52]	; 0x34
    6a54:	eaffff40 	b	0x675c
    6a58:	e1a00008 	mov	r0, r8
    6a5c:	ebffea32 	bl	0x132c
    6a60:	e28d3008 	add	r3, sp, #8
    6a64:	e893000c 	ldm	r3, {r2, r3}
    6a68:	ebffea68 	bl	0x1410
    6a6c:	e3a02000 	mov	r2, #0
    6a70:	e51f3764 	ldr	r3, [pc, #-1892]	; 0x6314
    6a74:	ebffe95f 	bl	0xff8
    6a78:	e1a04000 	mov	r4, r0
    6a7c:	e241550d 	sub	r5, r1, #54525952	; 0x3400000
    6a80:	e3a02000 	mov	r2, #0
    6a84:	e51f3788 	ldr	r3, [pc, #-1928]	; 0x6304
    6a88:	e28d1008 	add	r1, sp, #8
    6a8c:	e8910003 	ldm	r1, {r0, r1}
    6a90:	ebffe957 	bl	0xff4
    6a94:	e1a02004 	mov	r2, r4
    6a98:	e1a03005 	mov	r3, r5
    6a9c:	e1a06000 	mov	r6, r0
    6aa0:	e1a07001 	mov	r7, r1
    6aa4:	ebffebcb 	bl	0x19d8
    6aa8:	e2508000 	subs	r8, r0, #0
    6aac:	1a000186 	bne	0x70cc
    6ab0:	e1a02004 	mov	r2, r4
    6ab4:	e2853102 	add	r3, r5, #-2147483648	; 0x80000000
    6ab8:	e1a00006 	mov	r0, r6
    6abc:	e1a01007 	mov	r1, r7
    6ac0:	ebffebb2 	bl	0x1990
    6ac4:	e3500000 	cmp	r0, #0
    6ac8:	0afffef4 	beq	0x66a0
    6acc:	e3a05000 	mov	r5, #0
    6ad0:	e1a04005 	mov	r4, r5
    6ad4:	eaffffc1 	b	0x69e0
    6ad8:	e59d3034 	ldr	r3, [sp, #52]	; 0x34
    6adc:	e3530000 	cmp	r3, #0
    6ae0:	e59d3018 	ldr	r3, [sp, #24]
    6ae4:	e2833001 	add	r3, r3, #1
    6ae8:	e58d3018 	str	r3, [sp, #24]
    6aec:	0a0000a6 	beq	0x6d8c
    6af0:	e3560000 	cmp	r6, #0
    6af4:	da000004 	ble	0x6b0c
    6af8:	e1a01004 	mov	r1, r4
    6afc:	e1a02006 	mov	r2, r6
    6b00:	e1a0000b 	mov	r0, fp
    6b04:	eb00086d 	bl	0x8cc0
    6b08:	e1a04000 	mov	r4, r0
    6b0c:	e3580000 	cmp	r8, #0
    6b10:	01a09004 	moveq	r9, r4
    6b14:	1a000261 	bne	0x74a0
    6b18:	e59d2008 	ldr	r2, [sp, #8]
    6b1c:	e59d3020 	ldr	r3, [sp, #32]
    6b20:	e2022001 	and	r2, r2, #1
    6b24:	e58d2010 	str	r2, [sp, #16]
    6b28:	e59d2024 	ldr	r2, [sp, #36]	; 0x24
    6b2c:	e1a08003 	mov	r8, r3
    6b30:	e2433001 	sub	r3, r3, #1
    6b34:	e0833002 	add	r3, r3, r2
    6b38:	e58d3030 	str	r3, [sp, #48]	; 0x30
    6b3c:	ea000031 	b	0x6c08
    6b40:	e1a01000 	mov	r1, r0
    6b44:	e1a0000a 	mov	r0, sl
    6b48:	e58d3024 	str	r3, [sp, #36]	; 0x24
    6b4c:	eb000899 	bl	0x8db8
    6b50:	e1a01006 	mov	r1, r6
    6b54:	e58d001c 	str	r0, [sp, #28]
    6b58:	e1a0000b 	mov	r0, fp
    6b5c:	eb000715 	bl	0x87b8
    6b60:	e59d3090 	ldr	r3, [sp, #144]	; 0x90
    6b64:	e59d201c 	ldr	r2, [sp, #28]
    6b68:	e1821003 	orr	r1, r2, r3
    6b6c:	e59d3010 	ldr	r3, [sp, #16]
    6b70:	e1933001 	orrs	r3, r3, r1
    6b74:	e59d3024 	ldr	r3, [sp, #36]	; 0x24
    6b78:	0a00027e 	beq	0x7578
    6b7c:	e3570000 	cmp	r7, #0
    6b80:	e2886001 	add	r6, r8, #1
    6b84:	ba000225 	blt	0x7420
    6b88:	e59d1090 	ldr	r1, [sp, #144]	; 0x90
    6b8c:	e1877001 	orr	r7, r7, r1
    6b90:	e59d1010 	ldr	r1, [sp, #16]
    6b94:	e1911007 	orrs	r1, r1, r7
    6b98:	0a000220 	beq	0x7420
    6b9c:	e3520000 	cmp	r2, #0
    6ba0:	ca000255 	bgt	0x74fc
    6ba4:	e59d2030 	ldr	r2, [sp, #48]	; 0x30
    6ba8:	e1520008 	cmp	r2, r8
    6bac:	e5c83000 	strb	r3, [r8]
    6bb0:	0a000258 	beq	0x7518
    6bb4:	e1a0100a 	mov	r1, sl
    6bb8:	e3a03000 	mov	r3, #0
    6bbc:	e3a0200a 	mov	r2, #10
    6bc0:	e1a0000b 	mov	r0, fp
    6bc4:	eb000702 	bl	0x87d4
    6bc8:	e1540009 	cmp	r4, r9
    6bcc:	e1a0a000 	mov	sl, r0
    6bd0:	e1a01004 	mov	r1, r4
    6bd4:	e3a03000 	mov	r3, #0
    6bd8:	e3a0200a 	mov	r2, #10
    6bdc:	e1a0000b 	mov	r0, fp
    6be0:	0a000131 	beq	0x70ac
    6be4:	eb0006fa 	bl	0x87d4
    6be8:	e1a01009 	mov	r1, r9
    6bec:	e1a04000 	mov	r4, r0
    6bf0:	e3a03000 	mov	r3, #0
    6bf4:	e3a0200a 	mov	r2, #10
    6bf8:	e1a0000b 	mov	r0, fp
    6bfc:	eb0006f4 	bl	0x87d4
    6c00:	e1a09000 	mov	r9, r0
    6c04:	e1a08006 	mov	r8, r6
    6c08:	e1a01005 	mov	r1, r5
    6c0c:	e1a0000a 	mov	r0, sl
    6c10:	ebfffc56 	bl	0x5d70
    6c14:	e1a01004 	mov	r1, r4
    6c18:	e58d0008 	str	r0, [sp, #8]
    6c1c:	e1a0000a 	mov	r0, sl
    6c20:	eb000864 	bl	0x8db8
    6c24:	e1a02009 	mov	r2, r9
    6c28:	e1a07000 	mov	r7, r0
    6c2c:	e1a01005 	mov	r1, r5
    6c30:	e1a0000b 	mov	r0, fp
    6c34:	eb000878 	bl	0x8e1c
    6c38:	e590300c 	ldr	r3, [r0, #12]
    6c3c:	e3530000 	cmp	r3, #0
    6c40:	e59d3008 	ldr	r3, [sp, #8]
    6c44:	e1a06000 	mov	r6, r0
    6c48:	e2833030 	add	r3, r3, #48	; 0x30
    6c4c:	0affffbb 	beq	0x6b40
    6c50:	e1a01000 	mov	r1, r0
    6c54:	e1a0000b 	mov	r0, fp
    6c58:	e58d301c 	str	r3, [sp, #28]
    6c5c:	eb0006d5 	bl	0x87b8
    6c60:	e3a02001 	mov	r2, #1
    6c64:	e59d301c 	ldr	r3, [sp, #28]
    6c68:	eaffffc3 	b	0x6b7c
    6c6c:	0a0000e8 	beq	0x7014
    6c70:	e59d3018 	ldr	r3, [sp, #24]
    6c74:	e2635000 	rsb	r5, r3, #0
    6c78:	e51f3968 	ldr	r3, [pc, #-2408]	; 0x6318
    6c7c:	e205200f 	and	r2, r5, #15
    6c80:	e0833182 	add	r3, r3, r2, lsl #3
    6c84:	e893000c 	ldm	r3, {r2, r3}
    6c88:	e28d1028 	add	r1, sp, #40	; 0x28
    6c8c:	e8910003 	ldm	r1, {r0, r1}
    6c90:	ebffe9de 	bl	0x1410
    6c94:	e1b05245 	asrs	r5, r5, #4
    6c98:	e58d0040 	str	r0, [sp, #64]	; 0x40
    6c9c:	e58d1044 	str	r1, [sp, #68]	; 0x44
    6ca0:	0a0000d7 	beq	0x7004
    6ca4:	e3a03000 	mov	r3, #0
    6ca8:	e3a08002 	mov	r8, #2
    6cac:	e51f69ac 	ldr	r6, [pc, #-2476]	; 0x6308
    6cb0:	e3150001 	tst	r5, #1
    6cb4:	0a000003 	beq	0x6cc8
    6cb8:	e896000c 	ldm	r6, {r2, r3}
    6cbc:	ebffe9d3 	bl	0x1410
    6cc0:	e1a03004 	mov	r3, r4
    6cc4:	e2888001 	add	r8, r8, #1
    6cc8:	e1b050c5 	asrs	r5, r5, #1
    6ccc:	e2866008 	add	r6, r6, #8
    6cd0:	1afffff6 	bne	0x6cb0
    6cd4:	e3530000 	cmp	r3, #0
    6cd8:	e58d0008 	str	r0, [sp, #8]
    6cdc:	e58d100c 	str	r1, [sp, #12]
    6ce0:	028d4040 	addeq	r4, sp, #64	; 0x40
    6ce4:	08940018 	ldmeq	r4, {r3, r4}
    6ce8:	058d3008 	streq	r3, [sp, #8]
    6cec:	058d400c 	streq	r4, [sp, #12]
    6cf0:	eafffdd8 	b	0x6458
    6cf4:	e1a01000 	mov	r1, r0
    6cf8:	e1a0000b 	mov	r0, fp
    6cfc:	eb0007ae 	bl	0x8bbc
    6d00:	e59d3090 	ldr	r3, [sp, #144]	; 0x90
    6d04:	e3530001 	cmp	r3, #1
    6d08:	e1a05000 	mov	r5, r0
    6d0c:	da0000c2 	ble	0x701c
    6d10:	e3a08000 	mov	r8, #0
    6d14:	e5953010 	ldr	r3, [r5, #16]
    6d18:	e0853103 	add	r3, r5, r3, lsl #2
    6d1c:	e5930010 	ldr	r0, [r3, #16]
    6d20:	eb0006e6 	bl	0x88c0
    6d24:	e2600020 	rsb	r0, r0, #32
    6d28:	eafffeb2 	b	0x67f8
    6d2c:	e1a01005 	mov	r1, r5
    6d30:	e1a0000a 	mov	r0, sl
    6d34:	eb00081f 	bl	0x8db8
    6d38:	e3500000 	cmp	r0, #0
    6d3c:	aafffed2 	bge	0x688c
    6d40:	e3a03000 	mov	r3, #0
    6d44:	e59dc04c 	ldr	ip, [sp, #76]	; 0x4c
    6d48:	e1a0100a 	mov	r1, sl
    6d4c:	e3a0200a 	mov	r2, #10
    6d50:	e1a0000b 	mov	r0, fp
    6d54:	e15c0003 	cmp	ip, r3
    6d58:	c3a09000 	movgt	r9, #0
    6d5c:	d2079001 	andle	r9, r7, #1
    6d60:	eb00069b 	bl	0x87d4
    6d64:	e59d3034 	ldr	r3, [sp, #52]	; 0x34
    6d68:	e3530000 	cmp	r3, #0
    6d6c:	e59d3018 	ldr	r3, [sp, #24]
    6d70:	e1a0a000 	mov	sl, r0
    6d74:	e2437001 	sub	r7, r3, #1
    6d78:	1a000204 	bne	0x7590
    6d7c:	e3590000 	cmp	r9, #0
    6d80:	1a0001ec 	bne	0x7538
    6d84:	e59d304c 	ldr	r3, [sp, #76]	; 0x4c
    6d88:	e58d3024 	str	r3, [sp, #36]	; 0x24
    6d8c:	e59d6020 	ldr	r6, [sp, #32]
    6d90:	e3a07001 	mov	r7, #1
    6d94:	e59d8024 	ldr	r8, [sp, #36]	; 0x24
    6d98:	ea000006 	b	0x6db8
    6d9c:	e1a0100a 	mov	r1, sl
    6da0:	e3a03000 	mov	r3, #0
    6da4:	e3a0200a 	mov	r2, #10
    6da8:	e1a0000b 	mov	r0, fp
    6dac:	eb000688 	bl	0x87d4
    6db0:	e1a0a000 	mov	sl, r0
    6db4:	e2877001 	add	r7, r7, #1
    6db8:	e1a01005 	mov	r1, r5
    6dbc:	e1a0000a 	mov	r0, sl
    6dc0:	ebfffbea 	bl	0x5d70
    6dc4:	e1570008 	cmp	r7, r8
    6dc8:	e2800030 	add	r0, r0, #48	; 0x30
    6dcc:	e4c60001 	strb	r0, [r6], #1
    6dd0:	bafffff1 	blt	0x6d9c
    6dd4:	e1a03000 	mov	r3, r0
    6dd8:	e3a07000 	mov	r7, #0
    6ddc:	e1a0100a 	mov	r1, sl
    6de0:	e3a02001 	mov	r2, #1
    6de4:	e1a0000b 	mov	r0, fp
    6de8:	e58d3008 	str	r3, [sp, #8]
    6dec:	eb0007b3 	bl	0x8cc0
    6df0:	e1a01005 	mov	r1, r5
    6df4:	e1a0a000 	mov	sl, r0
    6df8:	eb0007ee 	bl	0x8db8
    6dfc:	e3500000 	cmp	r0, #0
    6e00:	e5562001 	ldrb	r2, [r6, #-1]
    6e04:	da00016a 	ble	0x73b4
    6e08:	e2463001 	sub	r3, r6, #1
    6e0c:	e59d1020 	ldr	r1, [sp, #32]
    6e10:	ea000002 	b	0x6e20
    6e14:	e1510003 	cmp	r1, r3
    6e18:	0a000173 	beq	0x73ec
    6e1c:	e5732001 	ldrb	r2, [r3, #-1]!
    6e20:	e3520039 	cmp	r2, #57	; 0x39
    6e24:	e2836001 	add	r6, r3, #1
    6e28:	0afffff9 	beq	0x6e14
    6e2c:	e2822001 	add	r2, r2, #1
    6e30:	e5c32000 	strb	r2, [r3]
    6e34:	e1a01005 	mov	r1, r5
    6e38:	e1a0000b 	mov	r0, fp
    6e3c:	eb00065d 	bl	0x87b8
    6e40:	e3540000 	cmp	r4, #0
    6e44:	0a000165 	beq	0x73e0
    6e48:	e3570000 	cmp	r7, #0
    6e4c:	11570004 	cmpne	r7, r4
    6e50:	0a0001e5 	beq	0x75ec
    6e54:	e1a01007 	mov	r1, r7
    6e58:	e1a0000b 	mov	r0, fp
    6e5c:	e59d7020 	ldr	r7, [sp, #32]
    6e60:	eb000654 	bl	0x87b8
    6e64:	e58d6020 	str	r6, [sp, #32]
    6e68:	eafffea8 	b	0x6910
    6e6c:	e3a03001 	mov	r3, #1
    6e70:	e58d3034 	str	r3, [sp, #52]	; 0x34
    6e74:	e59d3094 	ldr	r3, [sp, #148]	; 0x94
    6e78:	e3530000 	cmp	r3, #0
    6e7c:	da00008e 	ble	0x70bc
    6e80:	e1a00003 	mov	r0, r3
    6e84:	e58d304c 	str	r3, [sp, #76]	; 0x4c
    6e88:	e58d3024 	str	r3, [sp, #36]	; 0x24
    6e8c:	e3a01000 	mov	r1, #0
    6e90:	e59d3024 	ldr	r3, [sp, #36]	; 0x24
    6e94:	e353000e 	cmp	r3, #14
    6e98:	83a04000 	movhi	r4, #0
    6e9c:	92044001 	andls	r4, r4, #1
    6ea0:	e3500017 	cmp	r0, #23
    6ea4:	e58b1044 	str	r1, [fp, #68]	; 0x44
    6ea8:	dafffd39 	ble	0x6394
    6eac:	e3a03004 	mov	r3, #4
    6eb0:	e1a03083 	lsl	r3, r3, #1
    6eb4:	e2832014 	add	r2, r3, #20
    6eb8:	e1520000 	cmp	r2, r0
    6ebc:	e2811001 	add	r1, r1, #1
    6ec0:	9afffffa 	bls	0x6eb0
    6ec4:	e58b1044 	str	r1, [fp, #68]	; 0x44
    6ec8:	eafffd31 	b	0x6394
    6ecc:	e3a03001 	mov	r3, #1
    6ed0:	e58d3034 	str	r3, [sp, #52]	; 0x34
    6ed4:	e59d3094 	ldr	r3, [sp, #148]	; 0x94
    6ed8:	e59d2018 	ldr	r2, [sp, #24]
    6edc:	e0833002 	add	r3, r3, r2
    6ee0:	e58d304c 	str	r3, [sp, #76]	; 0x4c
    6ee4:	e2833001 	add	r3, r3, #1
    6ee8:	e3530001 	cmp	r3, #1
    6eec:	e58d3024 	str	r3, [sp, #36]	; 0x24
    6ef0:	a1a00003 	movge	r0, r3
    6ef4:	b3a00001 	movlt	r0, #1
    6ef8:	eaffffe3 	b	0x6e8c
    6efc:	e3a03000 	mov	r3, #0
    6f00:	e58d3034 	str	r3, [sp, #52]	; 0x34
    6f04:	eafffff2 	b	0x6ed4
    6f08:	e3a03000 	mov	r3, #0
    6f0c:	e58d3034 	str	r3, [sp, #52]	; 0x34
    6f10:	eaffffd7 	b	0x6e74
    6f14:	e1a00004 	mov	r0, r4
    6f18:	e1a01005 	mov	r1, r5
    6f1c:	ebffe93b 	bl	0x1410
    6f20:	e59d3020 	ldr	r3, [sp, #32]
    6f24:	e3570001 	cmp	r7, #1
    6f28:	e58d0008 	str	r0, [sp, #8]
    6f2c:	e58d100c 	str	r1, [sp, #12]
    6f30:	e5c39000 	strb	r9, [r3]
    6f34:	0a000017 	beq	0x6f98
    6f38:	e59d3020 	ldr	r3, [sp, #32]
    6f3c:	e0837007 	add	r7, r3, r7
    6f40:	e1a05007 	mov	r5, r7
    6f44:	e28d1040 	add	r1, sp, #64	; 0x40
    6f48:	e8910003 	ldm	r1, {r0, r1}
    6f4c:	e3a02000 	mov	r2, #0
    6f50:	e51f3c3c 	ldr	r3, [pc, #-3132]	; 0x631c
    6f54:	ebffe92d 	bl	0x1410
    6f58:	e1a07001 	mov	r7, r1
    6f5c:	e1a06000 	mov	r6, r0
    6f60:	ebffeab0 	bl	0x1a28
    6f64:	e1a04000 	mov	r4, r0
    6f68:	ebffe8ef 	bl	0x132c
    6f6c:	e2844030 	add	r4, r4, #48	; 0x30
    6f70:	e1a02000 	mov	r2, r0
    6f74:	e1a03001 	mov	r3, r1
    6f78:	e1a00006 	mov	r0, r6
    6f7c:	e1a01007 	mov	r1, r7
    6f80:	ebffe81b 	bl	0xff4
    6f84:	e4c84001 	strb	r4, [r8], #1
    6f88:	e1580005 	cmp	r8, r5
    6f8c:	1affffee 	bne	0x6f4c
    6f90:	e58d0040 	str	r0, [sp, #64]	; 0x40
    6f94:	e58d1044 	str	r1, [sp, #68]	; 0x44
    6f98:	e3a02000 	mov	r2, #0
    6f9c:	e51f3c98 	ldr	r3, [pc, #-3224]	; 0x630c
    6fa0:	e28d1008 	add	r1, sp, #8
    6fa4:	e8910003 	ldm	r1, {r0, r1}
    6fa8:	ebffe812 	bl	0xff8
    6fac:	e28d3040 	add	r3, sp, #64	; 0x40
    6fb0:	e893000c 	ldm	r3, {r2, r3}
    6fb4:	ebffea75 	bl	0x1990
    6fb8:	e3500000 	cmp	r0, #0
    6fbc:	1a000131 	bne	0x7488
    6fc0:	e28d3008 	add	r3, sp, #8
    6fc4:	e893000c 	ldm	r3, {r2, r3}
    6fc8:	e3a00000 	mov	r0, #0
    6fcc:	e51f1cc8 	ldr	r1, [pc, #-3272]	; 0x630c
    6fd0:	ebffe807 	bl	0xff4
    6fd4:	e28d3040 	add	r3, sp, #64	; 0x40
    6fd8:	e893000c 	ldm	r3, {r2, r3}
    6fdc:	ebffea7d 	bl	0x19d8
    6fe0:	e3500000 	cmp	r0, #0
    6fe4:	0afffdad 	beq	0x66a0
    6fe8:	ea000000 	b	0x6ff0
    6fec:	e1a08003 	mov	r8, r3
    6ff0:	e5583001 	ldrb	r3, [r8, #-1]
    6ff4:	e3530030 	cmp	r3, #48	; 0x30
    6ff8:	e2483001 	sub	r3, r8, #1
    6ffc:	0afffffa 	beq	0x6fec
    7000:	eafffd9e 	b	0x6680
    7004:	e28d4040 	add	r4, sp, #64	; 0x40
    7008:	e8940018 	ldm	r4, {r3, r4}
    700c:	e58d3008 	str	r3, [sp, #8]
    7010:	e58d400c 	str	r4, [sp, #12]
    7014:	e3a08002 	mov	r8, #2
    7018:	eafffd0e 	b	0x6458
    701c:	e28d2008 	add	r2, sp, #8
    7020:	e8920006 	ldm	r2, {r1, r2}
    7024:	e3510000 	cmp	r1, #0
    7028:	1affff38 	bne	0x6d10
    702c:	e3c234ff 	bic	r3, r2, #-16777216	; 0xff000000
    7030:	e3c3360f 	bic	r3, r3, #15728640	; 0xf00000
    7034:	e3530000 	cmp	r3, #0
    7038:	e1a03002 	mov	r3, r2
    703c:	1affff33 	bne	0x6d10
    7040:	e51f8d38 	ldr	r8, [pc, #-3384]	; 0x6310
    7044:	e0088003 	and	r8, r8, r3
    7048:	e3580000 	cmp	r8, #0
    704c:	0afffde5 	beq	0x67e8
    7050:	e59d3030 	ldr	r3, [sp, #48]	; 0x30
    7054:	e2833001 	add	r3, r3, #1
    7058:	e58d3030 	str	r3, [sp, #48]	; 0x30
    705c:	e59d301c 	ldr	r3, [sp, #28]
    7060:	e2833001 	add	r3, r3, #1
    7064:	e58d301c 	str	r3, [sp, #28]
    7068:	e3a08001 	mov	r8, #1
    706c:	eafffddd 	b	0x67e8
    7070:	e1a01004 	mov	r1, r4
    7074:	e1a02005 	mov	r2, r5
    7078:	e1a0000b 	mov	r0, fp
    707c:	eb0006ce 	bl	0x8bbc
    7080:	e1a0200a 	mov	r2, sl
    7084:	e1a01000 	mov	r1, r0
    7088:	e1a04000 	mov	r4, r0
    708c:	e1a0000b 	mov	r0, fp
    7090:	eb000651 	bl	0x89dc
    7094:	e1a03000 	mov	r3, r0
    7098:	e1a0100a 	mov	r1, sl
    709c:	e1a0000b 	mov	r0, fp
    70a0:	e1a0a003 	mov	sl, r3
    70a4:	eb0005c3 	bl	0x87b8
    70a8:	eafffdc0 	b	0x67b0
    70ac:	eb0005c8 	bl	0x87d4
    70b0:	e1a04000 	mov	r4, r0
    70b4:	e1a09000 	mov	r9, r0
    70b8:	eafffed1 	b	0x6c04
    70bc:	e3a03001 	mov	r3, #1
    70c0:	e58d3094 	str	r3, [sp, #148]	; 0x94
    70c4:	e58d3024 	str	r3, [sp, #36]	; 0x24
    70c8:	eafffcad 	b	0x6384
    70cc:	e3a05000 	mov	r5, #0
    70d0:	e1a04005 	mov	r4, r5
    70d4:	eafffdff 	b	0x68d8
    70d8:	e28d2008 	add	r2, sp, #8
    70dc:	e8920006 	ldm	r2, {r1, r2}
    70e0:	e3510000 	cmp	r1, #0
    70e4:	1afffdbe 	bne	0x67e4
    70e8:	e3c234ff 	bic	r3, r2, #-16777216	; 0xff000000
    70ec:	e3c3360f 	bic	r3, r3, #15728640	; 0xf00000
    70f0:	e3530000 	cmp	r3, #0
    70f4:	159d8008 	ldrne	r8, [sp, #8]
    70f8:	e1a03002 	mov	r3, r2
    70fc:	1afffdb9 	bne	0x67e8
    7100:	eaffffce 	b	0x7040
    7104:	e59d3024 	ldr	r3, [sp, #36]	; 0x24
    7108:	e3530000 	cmp	r3, #0
    710c:	0afffe51 	beq	0x6a58
    7110:	e59d704c 	ldr	r7, [sp, #76]	; 0x4c
    7114:	e3570000 	cmp	r7, #0
    7118:	dafffd60 	ble	0x66a0
    711c:	e3a02000 	mov	r2, #0
    7120:	e51f3e0c 	ldr	r3, [pc, #-3596]	; 0x631c
    7124:	e1a00004 	mov	r0, r4
    7128:	e1a01005 	mov	r1, r5
    712c:	ebffe8b7 	bl	0x1410
    7130:	e1a04000 	mov	r4, r0
    7134:	e1a05001 	mov	r5, r1
    7138:	e2880001 	add	r0, r8, #1
    713c:	e58d4008 	str	r4, [sp, #8]
    7140:	e58d500c 	str	r5, [sp, #12]
    7144:	ebffe878 	bl	0x132c
    7148:	e1a02004 	mov	r2, r4
    714c:	e1a03005 	mov	r3, r5
    7150:	ebffe8ae 	bl	0x1410
    7154:	e3a02000 	mov	r2, #0
    7158:	e51f3e4c 	ldr	r3, [pc, #-3660]	; 0x6314
    715c:	ebffe7a5 	bl	0xff8
    7160:	e59d2018 	ldr	r2, [sp, #24]
    7164:	e2422001 	sub	r2, r2, #1
    7168:	e1a04000 	mov	r4, r0
    716c:	e58d2058 	str	r2, [sp, #88]	; 0x58
    7170:	e241550d 	sub	r5, r1, #54525952	; 0x3400000
    7174:	eafffcd3 	b	0x64c8
    7178:	e59d2048 	ldr	r2, [sp, #72]	; 0x48
    717c:	e3520000 	cmp	r2, #0
    7180:	059d3060 	ldreq	r3, [sp, #96]	; 0x60
    7184:	12833e43 	addne	r3, r3, #1072	; 0x430
    7188:	e59d201c 	ldr	r2, [sp, #28]
    718c:	12833003 	addne	r3, r3, #3
    7190:	02633036 	rsbeq	r3, r3, #54	; 0x36
    7194:	e0822003 	add	r2, r2, r3
    7198:	e58d201c 	str	r2, [sp, #28]
    719c:	e59d2030 	ldr	r2, [sp, #48]	; 0x30
    71a0:	e0823003 	add	r3, r2, r3
    71a4:	e1a06002 	mov	r6, r2
    71a8:	e58d3030 	str	r3, [sp, #48]	; 0x30
    71ac:	e59d5038 	ldr	r5, [sp, #56]	; 0x38
    71b0:	eafffd65 	b	0x674c
    71b4:	e3a01000 	mov	r1, #0
    71b8:	e1a0000b 	mov	r0, fp
    71bc:	e58b1044 	str	r1, [fp, #68]	; 0x44
    71c0:	eb000559 	bl	0x872c
    71c4:	e59d2018 	ldr	r2, [sp, #24]
    71c8:	e59d3064 	ldr	r3, [sp, #100]	; 0x64
    71cc:	e352000e 	cmp	r2, #14
    71d0:	c3a02000 	movgt	r2, #0
    71d4:	d3a02001 	movle	r2, #1
    71d8:	e3530000 	cmp	r3, #0
    71dc:	b3a02000 	movlt	r2, #0
    71e0:	e3520000 	cmp	r2, #0
    71e4:	e58d0020 	str	r0, [sp, #32]
    71e8:	e58b0040 	str	r0, [fp, #64]	; 0x40
    71ec:	0a000101 	beq	0x75f8
    71f0:	e51f3ee0 	ldr	r3, [pc, #-3808]	; 0x6318
    71f4:	e59d2018 	ldr	r2, [sp, #24]
    71f8:	e0833182 	add	r3, r3, r2, lsl #3
    71fc:	e8930018 	ldm	r3, {r3, r4}
    7200:	e58d3010 	str	r3, [sp, #16]
    7204:	e58d4014 	str	r4, [sp, #20]
    7208:	e3e03000 	mvn	r3, #0
    720c:	e58d3024 	str	r3, [sp, #36]	; 0x24
    7210:	e28d5008 	add	r5, sp, #8
    7214:	e8950030 	ldm	r5, {r4, r5}
    7218:	e28d3010 	add	r3, sp, #16
    721c:	e893000c 	ldm	r3, {r2, r3}
    7220:	e1a00004 	mov	r0, r4
    7224:	e1a01005 	mov	r1, r5
    7228:	ebffe91c 	bl	0x16a0
    722c:	ebffe9fd 	bl	0x1a28
    7230:	e1a07000 	mov	r7, r0
    7234:	ebffe83c 	bl	0x132c
    7238:	e28d3010 	add	r3, sp, #16
    723c:	e893000c 	ldm	r3, {r2, r3}
    7240:	ebffe872 	bl	0x1410
    7244:	e1a02000 	mov	r2, r0
    7248:	e1a03001 	mov	r3, r1
    724c:	e1a00004 	mov	r0, r4
    7250:	e1a01005 	mov	r1, r5
    7254:	ebffe766 	bl	0xff4
    7258:	e59de018 	ldr	lr, [sp, #24]
    725c:	e59d9024 	ldr	r9, [sp, #36]	; 0x24
    7260:	e59d8020 	ldr	r8, [sp, #32]
    7264:	e287c030 	add	ip, r7, #48	; 0x30
    7268:	e28ee001 	add	lr, lr, #1
    726c:	e3590001 	cmp	r9, #1
    7270:	e1a02000 	mov	r2, r0
    7274:	e1a03001 	mov	r3, r1
    7278:	e58de018 	str	lr, [sp, #24]
    727c:	e4c8c001 	strb	ip, [r8], #1
    7280:	0a000032 	beq	0x7350
    7284:	e3a02000 	mov	r2, #0
    7288:	e51f3f74 	ldr	r3, [pc, #-3956]	; 0x631c
    728c:	ebffe85f 	bl	0x1410
    7290:	e3a02000 	mov	r2, #0
    7294:	e3a03000 	mov	r3, #0
    7298:	e1a04000 	mov	r4, r0
    729c:	e1a05001 	mov	r5, r1
    72a0:	ebffe9b4 	bl	0x1978
    72a4:	e3500000 	cmp	r0, #0
    72a8:	1a000073 	bne	0x747c
    72ac:	e58da008 	str	sl, [sp, #8]
    72b0:	e58db01c 	str	fp, [sp, #28]
    72b4:	e3a06001 	mov	r6, #1
    72b8:	e28db010 	add	fp, sp, #16
    72bc:	e89b0c00 	ldm	fp, {sl, fp}
    72c0:	ea000009 	b	0x72ec
    72c4:	e3a02000 	mov	r2, #0
    72c8:	e51f3fb4 	ldr	r3, [pc, #-4020]	; 0x631c
    72cc:	ebffe84f 	bl	0x1410
    72d0:	e3a02000 	mov	r2, #0
    72d4:	e3a03000 	mov	r3, #0
    72d8:	e1a04000 	mov	r4, r0
    72dc:	e1a05001 	mov	r5, r1
    72e0:	ebffe9a4 	bl	0x1978
    72e4:	e3500000 	cmp	r0, #0
    72e8:	1a000061 	bne	0x7474
    72ec:	e1a0200a 	mov	r2, sl
    72f0:	e1a0300b 	mov	r3, fp
    72f4:	e1a00004 	mov	r0, r4
    72f8:	e1a01005 	mov	r1, r5
    72fc:	ebffe8e7 	bl	0x16a0
    7300:	ebffe9c8 	bl	0x1a28
    7304:	e1a07000 	mov	r7, r0
    7308:	ebffe807 	bl	0x132c
    730c:	e1a0200a 	mov	r2, sl
    7310:	e1a0300b 	mov	r3, fp
    7314:	ebffe83d 	bl	0x1410
    7318:	e1a02000 	mov	r2, r0
    731c:	e1a03001 	mov	r3, r1
    7320:	e1a00004 	mov	r0, r4
    7324:	e1a01005 	mov	r1, r5
    7328:	ebffe731 	bl	0xff4
    732c:	e2866001 	add	r6, r6, #1
    7330:	e287c030 	add	ip, r7, #48	; 0x30
    7334:	e1560009 	cmp	r6, r9
    7338:	e1a02000 	mov	r2, r0
    733c:	e1a03001 	mov	r3, r1
    7340:	e4c8c001 	strb	ip, [r8], #1
    7344:	1affffde 	bne	0x72c4
    7348:	e59da008 	ldr	sl, [sp, #8]
    734c:	e59db01c 	ldr	fp, [sp, #28]
    7350:	e1a00002 	mov	r0, r2
    7354:	e1a01003 	mov	r1, r3
    7358:	ebffe726 	bl	0xff8
    735c:	e28d3010 	add	r3, sp, #16
    7360:	e893000c 	ldm	r3, {r2, r3}
    7364:	e1a04000 	mov	r4, r0
    7368:	e1a05001 	mov	r5, r1
    736c:	ebffe999 	bl	0x19d8
    7370:	e3500000 	cmp	r0, #0
    7374:	0a000073 	beq	0x7548
    7378:	e59d7020 	ldr	r7, [sp, #32]
    737c:	e5589001 	ldrb	r9, [r8, #-1]
    7380:	e2488001 	sub	r8, r8, #1
    7384:	ea000002 	b	0x7394
    7388:	e1570008 	cmp	r7, r8
    738c:	0a00001d 	beq	0x7408
    7390:	e5789001 	ldrb	r9, [r8, #-1]!
    7394:	e3590039 	cmp	r9, #57	; 0x39
    7398:	e2883001 	add	r3, r8, #1
    739c:	0afffff9 	beq	0x7388
    73a0:	e58d3020 	str	r3, [sp, #32]
    73a4:	e2893001 	add	r3, r9, #1
    73a8:	e20330ff 	and	r3, r3, #255	; 0xff
    73ac:	e5c83000 	strb	r3, [r8]
    73b0:	eafffd59 	b	0x691c
    73b4:	1a000002 	bne	0x73c4
    73b8:	e59d3008 	ldr	r3, [sp, #8]
    73bc:	e3130001 	tst	r3, #1
    73c0:	1afffe90 	bne	0x6e08
    73c4:	e2463001 	sub	r3, r6, #1
    73c8:	ea000000 	b	0x73d0
    73cc:	e5732001 	ldrb	r2, [r3, #-1]!
    73d0:	e3520030 	cmp	r2, #48	; 0x30
    73d4:	e2836001 	add	r6, r3, #1
    73d8:	0afffffb 	beq	0x73cc
    73dc:	eafffe94 	b	0x6e34
    73e0:	e59d7020 	ldr	r7, [sp, #32]
    73e4:	e58d6020 	str	r6, [sp, #32]
    73e8:	eafffd4b 	b	0x691c
    73ec:	e3a03031 	mov	r3, #49	; 0x31
    73f0:	e59d2018 	ldr	r2, [sp, #24]
    73f4:	e2822001 	add	r2, r2, #1
    73f8:	e58d2018 	str	r2, [sp, #24]
    73fc:	e59d2020 	ldr	r2, [sp, #32]
    7400:	e5c23000 	strb	r3, [r2]
    7404:	eafffe8a 	b	0x6e34
    7408:	e58d3020 	str	r3, [sp, #32]
    740c:	e59d3018 	ldr	r3, [sp, #24]
    7410:	e2833001 	add	r3, r3, #1
    7414:	e58d3018 	str	r3, [sp, #24]
    7418:	e3a03031 	mov	r3, #49	; 0x31
    741c:	eaffffe2 	b	0x73ac
    7420:	e3520000 	cmp	r2, #0
    7424:	da00000e 	ble	0x7464
    7428:	e1a0100a 	mov	r1, sl
    742c:	e3a02001 	mov	r2, #1
    7430:	e1a0000b 	mov	r0, fp
    7434:	e58d3010 	str	r3, [sp, #16]
    7438:	eb000620 	bl	0x8cc0
    743c:	e1a01005 	mov	r1, r5
    7440:	e1a0a000 	mov	sl, r0
    7444:	eb00065b 	bl	0x8db8
    7448:	e3500000 	cmp	r0, #0
    744c:	e59d3010 	ldr	r3, [sp, #16]
    7450:	da000059 	ble	0x75bc
    7454:	e3530039 	cmp	r3, #57	; 0x39
    7458:	0a000031 	beq	0x7524
    745c:	e59d3008 	ldr	r3, [sp, #8]
    7460:	e2833031 	add	r3, r3, #49	; 0x31
    7464:	e1a07004 	mov	r7, r4
    7468:	e5c83000 	strb	r3, [r8]
    746c:	e1a04009 	mov	r4, r9
    7470:	eafffe6f 	b	0x6e34
    7474:	e59da008 	ldr	sl, [sp, #8]
    7478:	e59db01c 	ldr	fp, [sp, #28]
    747c:	e59d7020 	ldr	r7, [sp, #32]
    7480:	e58d8020 	str	r8, [sp, #32]
    7484:	eafffd24 	b	0x691c
    7488:	e59d3058 	ldr	r3, [sp, #88]	; 0x58
    748c:	e2833001 	add	r3, r3, #1
    7490:	e58d3018 	str	r3, [sp, #24]
    7494:	e59d7020 	ldr	r7, [sp, #32]
    7498:	e5589001 	ldrb	r9, [r8, #-1]
    749c:	eaffffb7 	b	0x7380
    74a0:	e5941004 	ldr	r1, [r4, #4]
    74a4:	e1a0000b 	mov	r0, fp
    74a8:	eb00049f 	bl	0x872c
    74ac:	e1a06000 	mov	r6, r0
    74b0:	e5942010 	ldr	r2, [r4, #16]
    74b4:	e2822002 	add	r2, r2, #2
    74b8:	e1a02102 	lsl	r2, r2, #2
    74bc:	e284100c 	add	r1, r4, #12
    74c0:	e280000c 	add	r0, r0, #12
    74c4:	ebffea22 	bl	0x1d54
    74c8:	e1a01006 	mov	r1, r6
    74cc:	e3a02001 	mov	r2, #1
    74d0:	e1a0000b 	mov	r0, fp
    74d4:	eb0005f9 	bl	0x8cc0
    74d8:	e1a09000 	mov	r9, r0
    74dc:	eafffd8d 	b	0x6b18
    74e0:	e28d3058 	add	r3, sp, #88	; 0x58
    74e4:	e8930808 	ldm	r3, {r3, fp}
    74e8:	e2833001 	add	r3, r3, #1
    74ec:	e59da050 	ldr	sl, [sp, #80]	; 0x50
    74f0:	e58d3018 	str	r3, [sp, #24]
    74f4:	e59d7020 	ldr	r7, [sp, #32]
    74f8:	eaffffa0 	b	0x7380
    74fc:	e3530039 	cmp	r3, #57	; 0x39
    7500:	0a000007 	beq	0x7524
    7504:	e2833001 	add	r3, r3, #1
    7508:	e1a07004 	mov	r7, r4
    750c:	e5c83000 	strb	r3, [r8]
    7510:	e1a04009 	mov	r4, r9
    7514:	eafffe46 	b	0x6e34
    7518:	e1a07004 	mov	r7, r4
    751c:	e1a04009 	mov	r4, r9
    7520:	eafffe2d 	b	0x6ddc
    7524:	e3a02039 	mov	r2, #57	; 0x39
    7528:	e1a07004 	mov	r7, r4
    752c:	e5c82000 	strb	r2, [r8]
    7530:	e1a04009 	mov	r4, r9
    7534:	eafffe33 	b	0x6e08
    7538:	e59d304c 	ldr	r3, [sp, #76]	; 0x4c
    753c:	e58d7018 	str	r7, [sp, #24]
    7540:	e58d3024 	str	r3, [sp, #36]	; 0x24
    7544:	eafffcd6 	b	0x68a4
    7548:	e28d3010 	add	r3, sp, #16
    754c:	e893000c 	ldm	r3, {r2, r3}
    7550:	e1a00004 	mov	r0, r4
    7554:	e1a01005 	mov	r1, r5
    7558:	ebffe906 	bl	0x1978
    755c:	e3500000 	cmp	r0, #0
    7560:	0affffc5 	beq	0x747c
    7564:	e3170001 	tst	r7, #1
    7568:	e59d7020 	ldr	r7, [sp, #32]
    756c:	0affffc3 	beq	0x7480
    7570:	e5589001 	ldrb	r9, [r8, #-1]
    7574:	eaffff81 	b	0x7380
    7578:	e3530039 	cmp	r3, #57	; 0x39
    757c:	e2886001 	add	r6, r8, #1
    7580:	0affffe7 	beq	0x7524
    7584:	e3570000 	cmp	r7, #0
    7588:	caffffb3 	bgt	0x745c
    758c:	eaffffb4 	b	0x7464
    7590:	e1a01004 	mov	r1, r4
    7594:	e3a03000 	mov	r3, #0
    7598:	e3a0200a 	mov	r2, #10
    759c:	e1a0000b 	mov	r0, fp
    75a0:	eb00048b 	bl	0x87d4
    75a4:	e3590000 	cmp	r9, #0
    75a8:	e1a04000 	mov	r4, r0
    75ac:	1affffe1 	bne	0x7538
    75b0:	e59d304c 	ldr	r3, [sp, #76]	; 0x4c
    75b4:	e58d3024 	str	r3, [sp, #36]	; 0x24
    75b8:	eafffd4c 	b	0x6af0
    75bc:	1affffa8 	bne	0x7464
    75c0:	e3130001 	tst	r3, #1
    75c4:	1affffa2 	bne	0x7454
    75c8:	eaffffa5 	b	0x7464
    75cc:	e59d3058 	ldr	r3, [sp, #88]	; 0x58
    75d0:	e2833001 	add	r3, r3, #1
    75d4:	e59d7020 	ldr	r7, [sp, #32]
    75d8:	e58d3018 	str	r3, [sp, #24]
    75dc:	eaffff67 	b	0x7380
    75e0:	1260003c 	rsbne	r0, r0, #60	; 0x3c
    75e4:	1afffd0f 	bne	0x6a28
    75e8:	eafffc90 	b	0x6830
    75ec:	e59d7020 	ldr	r7, [sp, #32]
    75f0:	e58d6020 	str	r6, [sp, #32]
    75f4:	eafffcc5 	b	0x6910
    75f8:	e3e01000 	mvn	r1, #0
    75fc:	e58d2094 	str	r2, [sp, #148]	; 0x94
    7600:	e3a02001 	mov	r2, #1
    7604:	e58d1024 	str	r1, [sp, #36]	; 0x24
    7608:	e58d104c 	str	r1, [sp, #76]	; 0x4c
    760c:	e58d2034 	str	r2, [sp, #52]	; 0x34
    7610:	eafffc32 	b	0x66e0
    7614:	e92d41f0 	push	{r4, r5, r6, r7, r8, lr}
    7618:	e1a04001 	mov	r4, r1
    761c:	e59f70e4 	ldr	r7, [pc, #228]	; 0x7708
    7620:	e1a06000 	mov	r6, r0
    7624:	eb000434 	bl	0x86fc
    7628:	e5973008 	ldr	r3, [r7, #8]
    762c:	e5935004 	ldr	r5, [r3, #4]
    7630:	e2641efe 	rsb	r1, r4, #4064	; 0xfe0
    7634:	e281100f 	add	r1, r1, #15
    7638:	e3c55003 	bic	r5, r5, #3
    763c:	e0811005 	add	r1, r1, r5
    7640:	e3c11eff 	bic	r1, r1, #4080	; 0xff0
    7644:	e3c1100f 	bic	r1, r1, #15
    7648:	e2414a01 	sub	r4, r1, #4096	; 0x1000
    764c:	e3540a01 	cmp	r4, #4096	; 0x1000
    7650:	ba000006 	blt	0x7670
    7654:	e3a01000 	mov	r1, #0
    7658:	e1a00006 	mov	r0, r6
    765c:	eb0009e1 	bl	0x9de8
    7660:	e5973008 	ldr	r3, [r7, #8]
    7664:	e0833005 	add	r3, r3, r5
    7668:	e1500003 	cmp	r0, r3
    766c:	0a000004 	beq	0x7684
    7670:	e1a00006 	mov	r0, r6
    7674:	eb000426 	bl	0x8714
    7678:	e3a00000 	mov	r0, #0
    767c:	e8bd41f0 	pop	{r4, r5, r6, r7, r8, lr}
    7680:	e12fff1e 	bx	lr
    7684:	e2641000 	rsb	r1, r4, #0
    7688:	e1a00006 	mov	r0, r6
    768c:	eb0009d5 	bl	0x9de8
    7690:	e3700001 	cmn	r0, #1
    7694:	0a00000c 	beq	0x76cc
    7698:	e59f306c 	ldr	r3, [pc, #108]	; 0x770c
    769c:	e5972008 	ldr	r2, [r7, #8]
    76a0:	e5931000 	ldr	r1, [r3]
    76a4:	e0455004 	sub	r5, r5, r4
    76a8:	e3855001 	orr	r5, r5, #1
    76ac:	e1a00006 	mov	r0, r6
    76b0:	e0411004 	sub	r1, r1, r4
    76b4:	e5825004 	str	r5, [r2, #4]
    76b8:	e5831000 	str	r1, [r3]
    76bc:	eb000414 	bl	0x8714
    76c0:	e3a00001 	mov	r0, #1
    76c4:	e8bd41f0 	pop	{r4, r5, r6, r7, r8, lr}
    76c8:	e12fff1e 	bx	lr
    76cc:	e3a01000 	mov	r1, #0
    76d0:	e1a00006 	mov	r0, r6
    76d4:	eb0009c3 	bl	0x9de8
    76d8:	e5972008 	ldr	r2, [r7, #8]
    76dc:	e0403002 	sub	r3, r0, r2
    76e0:	e353000f 	cmp	r3, #15
    76e4:	daffffe1 	ble	0x7670
    76e8:	e59f1020 	ldr	r1, [pc, #32]	; 0x7710
    76ec:	e591c000 	ldr	ip, [r1]
    76f0:	e59f1014 	ldr	r1, [pc, #20]	; 0x770c
    76f4:	e3833001 	orr	r3, r3, #1
    76f8:	e040000c 	sub	r0, r0, ip
    76fc:	e5823004 	str	r3, [r2, #4]
    7700:	e5810000 	str	r0, [r1]
    7704:	eaffffd9 	b	0x7670
    7708:	03000358 	tsteq	r0, #88, 6	; 0x60000001
    770c:	030000e4 	tsteq	r0, #228	; 0xe4
    7710:	03000760 	tsteq	r0, #96, 14	; 0x1800000
    7714:	e92d41f0 	push	{r4, r5, r6, r7, r8, lr}
    7718:	e2515000 	subs	r5, r1, #0
    771c:	0a000032 	beq	0x77ec
    7720:	e1a04000 	mov	r4, r0
    7724:	eb0003f4 	bl	0x86fc
    7728:	e5150004 	ldr	r0, [r5, #-4]
    772c:	e59fe2b0 	ldr	lr, [pc, #688]	; 0x79e4
    7730:	e3c03001 	bic	r3, r0, #1
    7734:	e245c008 	sub	ip, r5, #8
    7738:	e08c1003 	add	r1, ip, r3
    773c:	e59e6008 	ldr	r6, [lr, #8]
    7740:	e5912004 	ldr	r2, [r1, #4]
    7744:	e1560001 	cmp	r6, r1
    7748:	e3c22003 	bic	r2, r2, #3
    774c:	0a000063 	beq	0x78e0
    7750:	e3100001 	tst	r0, #1
    7754:	e5812004 	str	r2, [r1, #4]
    7758:	e0810002 	add	r0, r1, r2
    775c:	1a000024 	bne	0x77f4
    7760:	e5157008 	ldr	r7, [r5, #-8]
    7764:	e04cc007 	sub	ip, ip, r7
    7768:	e59c5008 	ldr	r5, [ip, #8]
    776c:	e5900004 	ldr	r0, [r0, #4]
    7770:	e28e6008 	add	r6, lr, #8
    7774:	e1550006 	cmp	r5, r6
    7778:	e0833007 	add	r3, r3, r7
    777c:	e2000001 	and	r0, r0, #1
    7780:	0a000048 	beq	0x78a8
    7784:	e59c700c 	ldr	r7, [ip, #12]
    7788:	e3500000 	cmp	r0, #0
    778c:	e585700c 	str	r7, [r5, #12]
    7790:	e5875008 	str	r5, [r7, #8]
    7794:	0a000070 	beq	0x795c
    7798:	e3832001 	orr	r2, r3, #1
    779c:	e58c2004 	str	r2, [ip, #4]
    77a0:	e5813000 	str	r3, [r1]
    77a4:	e3530c02 	cmp	r3, #512	; 0x200
    77a8:	2a000025 	bcs	0x7844
    77ac:	e3a05001 	mov	r5, #1
    77b0:	e59e0004 	ldr	r0, [lr, #4]
    77b4:	e1a031a3 	lsr	r3, r3, #3
    77b8:	e0832005 	add	r2, r3, r5
    77bc:	e1a03143 	asr	r3, r3, #2
    77c0:	e1803315 	orr	r3, r0, r5, lsl r3
    77c4:	e08e1182 	add	r1, lr, r2, lsl #3
    77c8:	e79e0182 	ldr	r0, [lr, r2, lsl #3]
    77cc:	e2411008 	sub	r1, r1, #8
    77d0:	e58c100c 	str	r1, [ip, #12]
    77d4:	e58c0008 	str	r0, [ip, #8]
    77d8:	e58e3004 	str	r3, [lr, #4]
    77dc:	e78ec182 	str	ip, [lr, r2, lsl #3]
    77e0:	e580c00c 	str	ip, [r0, #12]
    77e4:	e1a00004 	mov	r0, r4
    77e8:	eb0003c9 	bl	0x8714
    77ec:	e8bd41f0 	pop	{r4, r5, r6, r7, r8, lr}
    77f0:	e12fff1e 	bx	lr
    77f4:	e5900004 	ldr	r0, [r0, #4]
    77f8:	e3100001 	tst	r0, #1
    77fc:	1a00000b 	bne	0x7830
    7800:	e0833002 	add	r3, r3, r2
    7804:	e28e6008 	add	r6, lr, #8
    7808:	e5912008 	ldr	r2, [r1, #8]
    780c:	e1520006 	cmp	r2, r6
    7810:	e3830001 	orr	r0, r3, #1
    7814:	0a00005c 	beq	0x798c
    7818:	e591100c 	ldr	r1, [r1, #12]
    781c:	e582100c 	str	r1, [r2, #12]
    7820:	e5812008 	str	r2, [r1, #8]
    7824:	e58c0004 	str	r0, [ip, #4]
    7828:	e78c3003 	str	r3, [ip, r3]
    782c:	eaffffdc 	b	0x77a4
    7830:	e3832001 	orr	r2, r3, #1
    7834:	e3530c02 	cmp	r3, #512	; 0x200
    7838:	e5052004 	str	r2, [r5, #-4]
    783c:	e5813000 	str	r3, [r1]
    7840:	3affffd9 	bcc	0x77ac
    7844:	e1a024a3 	lsr	r2, r3, #9
    7848:	e3520004 	cmp	r2, #4
    784c:	8a000039 	bhi	0x7938
    7850:	e1a02323 	lsr	r2, r3, #6
    7854:	e2825039 	add	r5, r2, #57	; 0x39
    7858:	e1a05185 	lsl	r5, r5, #3
    785c:	e2821038 	add	r1, r2, #56	; 0x38
    7860:	e08e0005 	add	r0, lr, r5
    7864:	e79e2005 	ldr	r2, [lr, r5]
    7868:	e2400008 	sub	r0, r0, #8
    786c:	e1500002 	cmp	r0, r2
    7870:	0a00003f 	beq	0x7974
    7874:	e5921004 	ldr	r1, [r2, #4]
    7878:	e3c11003 	bic	r1, r1, #3
    787c:	e1510003 	cmp	r1, r3
    7880:	9a000002 	bls	0x7890
    7884:	e5922008 	ldr	r2, [r2, #8]
    7888:	e1500002 	cmp	r0, r2
    788c:	1afffff8 	bne	0x7874
    7890:	e592000c 	ldr	r0, [r2, #12]
    7894:	e58c000c 	str	r0, [ip, #12]
    7898:	e58c2008 	str	r2, [ip, #8]
    789c:	e580c008 	str	ip, [r0, #8]
    78a0:	e582c00c 	str	ip, [r2, #12]
    78a4:	eaffffce 	b	0x77e4
    78a8:	e3500000 	cmp	r0, #0
    78ac:	13832001 	orrne	r2, r3, #1
    78b0:	158c2004 	strne	r2, [ip, #4]
    78b4:	15813000 	strne	r3, [r1]
    78b8:	1affffc9 	bne	0x77e4
    78bc:	e2810008 	add	r0, r1, #8
    78c0:	e0823003 	add	r3, r2, r3
    78c4:	e8900005 	ldm	r0, {r0, r2}
    78c8:	e3831001 	orr	r1, r3, #1
    78cc:	e580200c 	str	r2, [r0, #12]
    78d0:	e5820008 	str	r0, [r2, #8]
    78d4:	e58c1004 	str	r1, [ip, #4]
    78d8:	e78c3003 	str	r3, [ip, r3]
    78dc:	eaffffc0 	b	0x77e4
    78e0:	e3100001 	tst	r0, #1
    78e4:	e0833002 	add	r3, r3, r2
    78e8:	1a000006 	bne	0x7908
    78ec:	e5152008 	ldr	r2, [r5, #-8]
    78f0:	e04cc002 	sub	ip, ip, r2
    78f4:	e28c0008 	add	r0, ip, #8
    78f8:	e8900003 	ldm	r0, {r0, r1}
    78fc:	e580100c 	str	r1, [r0, #12]
    7900:	e5810008 	str	r0, [r1, #8]
    7904:	e0833002 	add	r3, r3, r2
    7908:	e59f20d8 	ldr	r2, [pc, #216]	; 0x79e8
    790c:	e5922000 	ldr	r2, [r2]
    7910:	e1520003 	cmp	r2, r3
    7914:	e3833001 	orr	r3, r3, #1
    7918:	e58c3004 	str	r3, [ip, #4]
    791c:	e58ec008 	str	ip, [lr, #8]
    7920:	8affffaf 	bhi	0x77e4
    7924:	e59f30c0 	ldr	r3, [pc, #192]	; 0x79ec
    7928:	e1a00004 	mov	r0, r4
    792c:	e5931000 	ldr	r1, [r3]
    7930:	ebffff37 	bl	0x7614
    7934:	eaffffaa 	b	0x77e4
    7938:	e3520014 	cmp	r2, #20
    793c:	9a000008 	bls	0x7964
    7940:	e3520054 	cmp	r2, #84	; 0x54
    7944:	8a000016 	bhi	0x79a4
    7948:	e1a02623 	lsr	r2, r3, #12
    794c:	e282506f 	add	r5, r2, #111	; 0x6f
    7950:	e1a05185 	lsl	r5, r5, #3
    7954:	e282106e 	add	r1, r2, #110	; 0x6e
    7958:	eaffffc0 	b	0x7860
    795c:	e0833002 	add	r3, r3, r2
    7960:	eaffffa8 	b	0x7808
    7964:	e282505c 	add	r5, r2, #92	; 0x5c
    7968:	e1a05185 	lsl	r5, r5, #3
    796c:	e282105b 	add	r1, r2, #91	; 0x5b
    7970:	eaffffba 	b	0x7860
    7974:	e3a05001 	mov	r5, #1
    7978:	e59e3004 	ldr	r3, [lr, #4]
    797c:	e1a01141 	asr	r1, r1, #2
    7980:	e1831115 	orr	r1, r3, r5, lsl r1
    7984:	e58e1004 	str	r1, [lr, #4]
    7988:	eaffffc1 	b	0x7894
    798c:	e58ec014 	str	ip, [lr, #20]
    7990:	e58ec010 	str	ip, [lr, #16]
    7994:	e58c600c 	str	r6, [ip, #12]
    7998:	e98c0041 	stmib	ip, {r0, r6}
    799c:	e78c3003 	str	r3, [ip, r3]
    79a0:	eaffff8f 	b	0x77e4
    79a4:	e3520f55 	cmp	r2, #340	; 0x154
    79a8:	8a000004 	bhi	0x79c0
    79ac:	e1a027a3 	lsr	r2, r3, #15
    79b0:	e2825078 	add	r5, r2, #120	; 0x78
    79b4:	e1a05185 	lsl	r5, r5, #3
    79b8:	e2821077 	add	r1, r2, #119	; 0x77
    79bc:	eaffffa7 	b	0x7860
    79c0:	e59f1028 	ldr	r1, [pc, #40]	; 0x79f0
    79c4:	e1520001 	cmp	r2, r1
    79c8:	91a02923 	lsrls	r2, r3, #18
    79cc:	9282507d 	addls	r5, r2, #125	; 0x7d
    79d0:	91a05185 	lslls	r5, r5, #3
    79d4:	9282107c 	addls	r1, r2, #124	; 0x7c
    79d8:	83a05ffe 	movhi	r5, #1016	; 0x3f8
    79dc:	83a0107e 	movhi	r1, #126	; 0x7e
    79e0:	eaffff9e 	b	0x7860
    79e4:	03000358 	tsteq	r0, #88, 6	; 0x60000001
    79e8:	03000764 	tsteq	r0, #100, 14	; 0x1900000
    79ec:	03000114 	tsteq	r0, #20, 2
    79f0:	00000554 	andeq	r0, r0, r4, asr r5
    79f4:	e92d4010 	push	{r4, lr}
    79f8:	eb000923 	bl	0x9e8c
    79fc:	e5900034 	ldr	r0, [r0, #52]	; 0x34
    7a00:	e59f3010 	ldr	r3, [pc, #16]	; 0x7a18
    7a04:	e3500000 	cmp	r0, #0
    7a08:	01a00003 	moveq	r0, r3
    7a0c:	e8bd4010 	pop	{r4, lr}
    7a10:	e28000f0 	add	r0, r0, #240	; 0xf0
    7a14:	e12fff1e 	bx	lr
    7a18:	030001ec 	tsteq	r0, #236, 2	; 0x3b
    7a1c:	e92d4010 	push	{r4, lr}
    7a20:	eb000919 	bl	0x9e8c
    7a24:	e5903034 	ldr	r3, [r0, #52]	; 0x34
    7a28:	e59f2010 	ldr	r2, [pc, #16]	; 0x7a40
    7a2c:	e3530000 	cmp	r3, #0
    7a30:	01a03002 	moveq	r3, r2
    7a34:	e8bd4010 	pop	{r4, lr}
    7a38:	e5d30128 	ldrb	r0, [r3, #296]	; 0x128
    7a3c:	e12fff1e 	bx	lr
    7a40:	030001ec 	tsteq	r0, #236, 2	; 0x3b
    7a44:	e92d4ff0 	push	{r4, r5, r6, r7, r8, r9, sl, fp, lr}
    7a48:	e281500b 	add	r5, r1, #11
    7a4c:	e3550016 	cmp	r5, #22
    7a50:	e24dd00c 	sub	sp, sp, #12
    7a54:	e1a06000 	mov	r6, r0
    7a58:	8a000023 	bhi	0x7aec
    7a5c:	e3510010 	cmp	r1, #16
    7a60:	8a00001a 	bhi	0x7ad0
    7a64:	eb000324 	bl	0x86fc
    7a68:	e3a05010 	mov	r5, #16
    7a6c:	e3a00002 	mov	r0, #2
    7a70:	e3a03018 	mov	r3, #24
    7a74:	e59f7730 	ldr	r7, [pc, #1840]	; 0x81ac
    7a78:	e0873003 	add	r3, r7, r3
    7a7c:	e5934004 	ldr	r4, [r3, #4]
    7a80:	e2432008 	sub	r2, r3, #8
    7a84:	e1540002 	cmp	r4, r2
    7a88:	0a00003b 	beq	0x7b7c
    7a8c:	e5943004 	ldr	r3, [r4, #4]
    7a90:	e3c33003 	bic	r3, r3, #3
    7a94:	e0843003 	add	r3, r4, r3
    7a98:	e5932004 	ldr	r2, [r3, #4]
    7a9c:	e594100c 	ldr	r1, [r4, #12]
    7aa0:	e594c008 	ldr	ip, [r4, #8]
    7aa4:	e3822001 	orr	r2, r2, #1
    7aa8:	e58c100c 	str	r1, [ip, #12]
    7aac:	e1a00006 	mov	r0, r6
    7ab0:	e581c008 	str	ip, [r1, #8]
    7ab4:	e2844008 	add	r4, r4, #8
    7ab8:	e5832004 	str	r2, [r3, #4]
    7abc:	eb000314 	bl	0x8714
    7ac0:	e1a00004 	mov	r0, r4
    7ac4:	e28dd00c 	add	sp, sp, #12
    7ac8:	e8bd4ff0 	pop	{r4, r5, r6, r7, r8, r9, sl, fp, lr}
    7acc:	e12fff1e 	bx	lr
    7ad0:	e3a0300c 	mov	r3, #12
    7ad4:	e3a04000 	mov	r4, #0
    7ad8:	e5863000 	str	r3, [r6]
    7adc:	e1a00004 	mov	r0, r4
    7ae0:	e28dd00c 	add	sp, sp, #12
    7ae4:	e8bd4ff0 	pop	{r4, r5, r6, r7, r8, r9, sl, fp, lr}
    7ae8:	e12fff1e 	bx	lr
    7aec:	e3c55007 	bic	r5, r5, #7
    7af0:	e1510005 	cmp	r1, r5
    7af4:	93a01000 	movls	r1, #0
    7af8:	83a01001 	movhi	r1, #1
    7afc:	e1913fa5 	orrs	r3, r1, r5, lsr #31
    7b00:	1afffff2 	bne	0x7ad0
    7b04:	eb0002fc 	bl	0x86fc
    7b08:	e3550f7e 	cmp	r5, #504	; 0x1f8
    7b0c:	3a00012d 	bcc	0x7fc8
    7b10:	e1b034a5 	lsrs	r3, r5, #9
    7b14:	0a0000b0 	beq	0x7ddc
    7b18:	e3530004 	cmp	r3, #4
    7b1c:	8a00010f 	bhi	0x7f60
    7b20:	e1a03325 	lsr	r3, r5, #6
    7b24:	e2830039 	add	r0, r3, #57	; 0x39
    7b28:	e283c038 	add	ip, r3, #56	; 0x38
    7b2c:	e1a01180 	lsl	r1, r0, #3
    7b30:	e59f7674 	ldr	r7, [pc, #1652]	; 0x81ac
    7b34:	e0871001 	add	r1, r7, r1
    7b38:	e5914004 	ldr	r4, [r1, #4]
    7b3c:	e2411008 	sub	r1, r1, #8
    7b40:	e1510004 	cmp	r1, r4
    7b44:	1a000005 	bne	0x7b60
    7b48:	ea00000f 	b	0x7b8c
    7b4c:	e3520000 	cmp	r2, #0
    7b50:	aaffffcf 	bge	0x7a94
    7b54:	e594400c 	ldr	r4, [r4, #12]
    7b58:	e1510004 	cmp	r1, r4
    7b5c:	0a00000a 	beq	0x7b8c
    7b60:	e5943004 	ldr	r3, [r4, #4]
    7b64:	e3c33003 	bic	r3, r3, #3
    7b68:	e0432005 	sub	r2, r3, r5
    7b6c:	e352000f 	cmp	r2, #15
    7b70:	dafffff5 	ble	0x7b4c
    7b74:	e1a0000c 	mov	r0, ip
    7b78:	ea000003 	b	0x7b8c
    7b7c:	e593400c 	ldr	r4, [r3, #12]
    7b80:	e1530004 	cmp	r3, r4
    7b84:	02800002 	addeq	r0, r0, #2
    7b88:	1affffbf 	bne	0x7a8c
    7b8c:	e5974010 	ldr	r4, [r7, #16]
    7b90:	e59fc618 	ldr	ip, [pc, #1560]	; 0x81b0
    7b94:	e154000c 	cmp	r4, ip
    7b98:	05973004 	ldreq	r3, [r7, #4]
    7b9c:	0a000018 	beq	0x7c04
    7ba0:	e5943004 	ldr	r3, [r4, #4]
    7ba4:	e3c33003 	bic	r3, r3, #3
    7ba8:	e0432005 	sub	r2, r3, r5
    7bac:	e352000f 	cmp	r2, #15
    7bb0:	ca000107 	bgt	0x7fd4
    7bb4:	e3520000 	cmp	r2, #0
    7bb8:	e587c014 	str	ip, [r7, #20]
    7bbc:	e587c010 	str	ip, [r7, #16]
    7bc0:	aa0000b6 	bge	0x7ea0
    7bc4:	e3530c02 	cmp	r3, #512	; 0x200
    7bc8:	2a0000c9 	bcs	0x7ef4
    7bcc:	e3a08001 	mov	r8, #1
    7bd0:	e5971004 	ldr	r1, [r7, #4]
    7bd4:	e1a031a3 	lsr	r3, r3, #3
    7bd8:	e083e008 	add	lr, r3, r8
    7bdc:	e1a03143 	asr	r3, r3, #2
    7be0:	e1813318 	orr	r3, r1, r8, lsl r3
    7be4:	e087218e 	add	r2, r7, lr, lsl #3
    7be8:	e797118e 	ldr	r1, [r7, lr, lsl #3]
    7bec:	e2422008 	sub	r2, r2, #8
    7bf0:	e584200c 	str	r2, [r4, #12]
    7bf4:	e5841008 	str	r1, [r4, #8]
    7bf8:	e5873004 	str	r3, [r7, #4]
    7bfc:	e787418e 	str	r4, [r7, lr, lsl #3]
    7c00:	e581400c 	str	r4, [r1, #12]
    7c04:	e3a01001 	mov	r1, #1
    7c08:	e1a02140 	asr	r2, r0, #2
    7c0c:	e1a0e211 	lsl	lr, r1, r2
    7c10:	e15e0003 	cmp	lr, r3
    7c14:	9a000074 	bls	0x7dec
    7c18:	e5974008 	ldr	r4, [r7, #8]
    7c1c:	e5943004 	ldr	r3, [r4, #4]
    7c20:	e3c3a003 	bic	sl, r3, #3
    7c24:	e15a0005 	cmp	sl, r5
    7c28:	23a02000 	movcs	r2, #0
    7c2c:	33a02001 	movcc	r2, #1
    7c30:	e04a3005 	sub	r3, sl, r5
    7c34:	e353000f 	cmp	r3, #15
    7c38:	d3822001 	orrle	r2, r2, #1
    7c3c:	e3520000 	cmp	r2, #0
    7c40:	0a00009e 	beq	0x7ec0
    7c44:	e59fb568 	ldr	fp, [pc, #1384]	; 0x81b4
    7c48:	e59f2568 	ldr	r2, [pc, #1384]	; 0x81b8
    7c4c:	e59b3000 	ldr	r3, [fp]
    7c50:	e5922000 	ldr	r2, [r2]
    7c54:	e3730001 	cmn	r3, #1
    7c58:	e0852002 	add	r2, r5, r2
    7c5c:	12822a01 	addne	r2, r2, #4096	; 0x1000
    7c60:	1282200f 	addne	r2, r2, #15
    7c64:	13c22eff 	bicne	r2, r2, #4080	; 0xff0
    7c68:	02822010 	addeq	r2, r2, #16
    7c6c:	13c2200f 	bicne	r2, r2, #15
    7c70:	e084300a 	add	r3, r4, sl
    7c74:	e1a01002 	mov	r1, r2
    7c78:	e1a00006 	mov	r0, r6
    7c7c:	e58d3004 	str	r3, [sp, #4]
    7c80:	e58d2000 	str	r2, [sp]
    7c84:	eb000857 	bl	0x9de8
    7c88:	e3700001 	cmn	r0, #1
    7c8c:	e1a08000 	mov	r8, r0
    7c90:	e89d000c 	ldm	sp, {r2, r3}
    7c94:	0a000108 	beq	0x80bc
    7c98:	e1540007 	cmp	r4, r7
    7c9c:	11530000 	cmpne	r3, r0
    7ca0:	8a000105 	bhi	0x80bc
    7ca4:	e59f9510 	ldr	r9, [pc, #1296]	; 0x81bc
    7ca8:	e5991000 	ldr	r1, [r9]
    7cac:	e1530000 	cmp	r3, r0
    7cb0:	e0821001 	add	r1, r2, r1
    7cb4:	e5891000 	str	r1, [r9]
    7cb8:	0a0000f4 	beq	0x8090
    7cbc:	e59b0000 	ldr	r0, [fp]
    7cc0:	e3700001 	cmn	r0, #1
    7cc4:	10483003 	subne	r3, r8, r3
    7cc8:	10831001 	addne	r1, r3, r1
    7ccc:	058b8000 	streq	r8, [fp]
    7cd0:	15891000 	strne	r1, [r9]
    7cd4:	e2181007 	ands	r1, r8, #7
    7cd8:	03a01a01 	moveq	r1, #4096	; 0x1000
    7cdc:	12613008 	rsbne	r3, r1, #8
    7ce0:	10888003 	addne	r8, r8, r3
    7ce4:	e0882002 	add	r2, r8, r2
    7ce8:	12611a01 	rsbne	r1, r1, #4096	; 0x1000
    7cec:	e1a02a02 	lsl	r2, r2, #20
    7cf0:	e1a02a22 	lsr	r2, r2, #20
    7cf4:	12811008 	addne	r1, r1, #8
    7cf8:	e041b002 	sub	fp, r1, r2
    7cfc:	e1a0100b 	mov	r1, fp
    7d00:	e1a00006 	mov	r0, r6
    7d04:	eb000837 	bl	0x9de8
    7d08:	e3700001 	cmn	r0, #1
    7d0c:	03a0b000 	moveq	fp, #0
    7d10:	03a02001 	moveq	r2, #1
    7d14:	10403008 	subne	r3, r0, r8
    7d18:	e5991000 	ldr	r1, [r9]
    7d1c:	1083300b 	addne	r3, r3, fp
    7d20:	13832001 	orrne	r2, r3, #1
    7d24:	e08b1001 	add	r1, fp, r1
    7d28:	e1540007 	cmp	r4, r7
    7d2c:	e5878008 	str	r8, [r7, #8]
    7d30:	e5891000 	str	r1, [r9]
    7d34:	e5882004 	str	r2, [r8, #4]
    7d38:	0a0000dd 	beq	0x80b4
    7d3c:	e35a000f 	cmp	sl, #15
    7d40:	93a03001 	movls	r3, #1
    7d44:	95883004 	strls	r3, [r8, #4]
    7d48:	9a00001f 	bls	0x7dcc
    7d4c:	e3a00005 	mov	r0, #5
    7d50:	e5942004 	ldr	r2, [r4, #4]
    7d54:	e24a300c 	sub	r3, sl, #12
    7d58:	e3c33007 	bic	r3, r3, #7
    7d5c:	e2022001 	and	r2, r2, #1
    7d60:	e1822003 	orr	r2, r2, r3
    7d64:	e353000f 	cmp	r3, #15
    7d68:	e0843003 	add	r3, r4, r3
    7d6c:	e5842004 	str	r2, [r4, #4]
    7d70:	e5830004 	str	r0, [r3, #4]
    7d74:	e5830008 	str	r0, [r3, #8]
    7d78:	8a0000f5 	bhi	0x8154
    7d7c:	e1a04008 	mov	r4, r8
    7d80:	e5982004 	ldr	r2, [r8, #4]
    7d84:	e59f3434 	ldr	r3, [pc, #1076]	; 0x81c0
    7d88:	e5930000 	ldr	r0, [r3]
    7d8c:	e1500001 	cmp	r0, r1
    7d90:	35831000 	strcc	r1, [r3]
    7d94:	e59f3428 	ldr	r3, [pc, #1064]	; 0x81c4
    7d98:	e5930000 	ldr	r0, [r3]
    7d9c:	e1500001 	cmp	r0, r1
    7da0:	35831000 	strcc	r1, [r3]
    7da4:	e3c22003 	bic	r2, r2, #3
    7da8:	e0423005 	sub	r3, r2, r5
    7dac:	e353000f 	cmp	r3, #15
    7db0:	c3a01000 	movgt	r1, #0
    7db4:	d3a01001 	movle	r1, #1
    7db8:	e1520005 	cmp	r2, r5
    7dbc:	21a02001 	movcs	r2, r1
    7dc0:	33812001 	orrcc	r2, r1, #1
    7dc4:	e3520000 	cmp	r2, #0
    7dc8:	0a00003c 	beq	0x7ec0
    7dcc:	e1a00006 	mov	r0, r6
    7dd0:	eb00024f 	bl	0x8714
    7dd4:	e3a04000 	mov	r4, #0
    7dd8:	eaffff3f 	b	0x7adc
    7ddc:	e3a01c02 	mov	r1, #512	; 0x200
    7de0:	e3a00040 	mov	r0, #64	; 0x40
    7de4:	e3a0c03f 	mov	ip, #63	; 0x3f
    7de8:	eaffff50 	b	0x7b30
    7dec:	e11e0003 	tst	lr, r3
    7df0:	1a000008 	bne	0x7e18
    7df4:	e1a0e11e 	lsl	lr, lr, r1
    7df8:	e3c00003 	bic	r0, r0, #3
    7dfc:	e11e0003 	tst	lr, r3
    7e00:	e2800004 	add	r0, r0, #4
    7e04:	1a000003 	bne	0x7e18
    7e08:	e1a0e08e 	lsl	lr, lr, #1
    7e0c:	e11e0003 	tst	lr, r3
    7e10:	e2800004 	add	r0, r0, #4
    7e14:	0afffffb 	beq	0x7e08
    7e18:	e0879180 	add	r9, r7, r0, lsl #3
    7e1c:	e1a01009 	mov	r1, r9
    7e20:	e1a04000 	mov	r4, r0
    7e24:	e591800c 	ldr	r8, [r1, #12]
    7e28:	e1510008 	cmp	r1, r8
    7e2c:	1a000005 	bne	0x7e48
    7e30:	ea000053 	b	0x7f84
    7e34:	e3520000 	cmp	r2, #0
    7e38:	aa000056 	bge	0x7f98
    7e3c:	e598800c 	ldr	r8, [r8, #12]
    7e40:	e1510008 	cmp	r1, r8
    7e44:	0a00004e 	beq	0x7f84
    7e48:	e5983004 	ldr	r3, [r8, #4]
    7e4c:	e3c33003 	bic	r3, r3, #3
    7e50:	e0432005 	sub	r2, r3, r5
    7e54:	e352000f 	cmp	r2, #15
    7e58:	dafffff5 	ble	0x7e34
    7e5c:	e598100c 	ldr	r1, [r8, #12]
    7e60:	e598e008 	ldr	lr, [r8, #8]
    7e64:	e3854001 	orr	r4, r5, #1
    7e68:	e5884004 	str	r4, [r8, #4]
    7e6c:	e0885005 	add	r5, r8, r5
    7e70:	e3824001 	orr	r4, r2, #1
    7e74:	e58e100c 	str	r1, [lr, #12]
    7e78:	e1a00006 	mov	r0, r6
    7e7c:	e581e008 	str	lr, [r1, #8]
    7e80:	e5875014 	str	r5, [r7, #20]
    7e84:	e5875010 	str	r5, [r7, #16]
    7e88:	e9851010 	stmib	r5, {r4, ip}
    7e8c:	e585c00c 	str	ip, [r5, #12]
    7e90:	e7882003 	str	r2, [r8, r3]
    7e94:	eb00021e 	bl	0x8714
    7e98:	e2884008 	add	r4, r8, #8
    7e9c:	eaffff0e 	b	0x7adc
    7ea0:	e0843003 	add	r3, r4, r3
    7ea4:	e5932004 	ldr	r2, [r3, #4]
    7ea8:	e3822001 	orr	r2, r2, #1
    7eac:	e1a00006 	mov	r0, r6
    7eb0:	e5832004 	str	r2, [r3, #4]
    7eb4:	e2844008 	add	r4, r4, #8
    7eb8:	eb000215 	bl	0x8714
    7ebc:	eaffff06 	b	0x7adc
    7ec0:	e3852001 	orr	r2, r5, #1
    7ec4:	e3833001 	orr	r3, r3, #1
    7ec8:	e0845005 	add	r5, r4, r5
    7ecc:	e5842004 	str	r2, [r4, #4]
    7ed0:	e1a00006 	mov	r0, r6
    7ed4:	e5875008 	str	r5, [r7, #8]
    7ed8:	e2844008 	add	r4, r4, #8
    7edc:	e5853004 	str	r3, [r5, #4]
    7ee0:	eb00020b 	bl	0x8714
    7ee4:	e1a00004 	mov	r0, r4
    7ee8:	e28dd00c 	add	sp, sp, #12
    7eec:	e8bd4ff0 	pop	{r4, r5, r6, r7, r8, r9, sl, fp, lr}
    7ef0:	e12fff1e 	bx	lr
    7ef4:	e1a024a3 	lsr	r2, r3, #9
    7ef8:	e3520004 	cmp	r2, #4
    7efc:	9a000041 	bls	0x8008
    7f00:	e3520014 	cmp	r2, #20
    7f04:	8a000075 	bhi	0x80e0
    7f08:	e282805c 	add	r8, r2, #92	; 0x5c
    7f0c:	e1a08188 	lsl	r8, r8, #3
    7f10:	e282105b 	add	r1, r2, #91	; 0x5b
    7f14:	e087e008 	add	lr, r7, r8
    7f18:	e7972008 	ldr	r2, [r7, r8]
    7f1c:	e24ee008 	sub	lr, lr, #8
    7f20:	e15e0002 	cmp	lr, r2
    7f24:	0a000067 	beq	0x80c8
    7f28:	e5921004 	ldr	r1, [r2, #4]
    7f2c:	e3c11003 	bic	r1, r1, #3
    7f30:	e1510003 	cmp	r1, r3
    7f34:	9a000002 	bls	0x7f44
    7f38:	e5922008 	ldr	r2, [r2, #8]
    7f3c:	e15e0002 	cmp	lr, r2
    7f40:	1afffff8 	bne	0x7f28
    7f44:	e592e00c 	ldr	lr, [r2, #12]
    7f48:	e5973004 	ldr	r3, [r7, #4]
    7f4c:	e584e00c 	str	lr, [r4, #12]
    7f50:	e5842008 	str	r2, [r4, #8]
    7f54:	e58e4008 	str	r4, [lr, #8]
    7f58:	e582400c 	str	r4, [r2, #12]
    7f5c:	eaffff28 	b	0x7c04
    7f60:	e3530014 	cmp	r3, #20
    7f64:	9a00002c 	bls	0x801c
    7f68:	e3530054 	cmp	r3, #84	; 0x54
    7f6c:	8a000062 	bhi	0x80fc
    7f70:	e1a03625 	lsr	r3, r5, #12
    7f74:	e283006f 	add	r0, r3, #111	; 0x6f
    7f78:	e283c06e 	add	ip, r3, #110	; 0x6e
    7f7c:	e1a01180 	lsl	r1, r0, #3
    7f80:	eafffeea 	b	0x7b30
    7f84:	e2844001 	add	r4, r4, #1
    7f88:	e3140003 	tst	r4, #3
    7f8c:	e2811008 	add	r1, r1, #8
    7f90:	1affffa3 	bne	0x7e24
    7f94:	ea000028 	b	0x803c
    7f98:	e1a04008 	mov	r4, r8
    7f9c:	e0883003 	add	r3, r8, r3
    7fa0:	e5932004 	ldr	r2, [r3, #4]
    7fa4:	e598100c 	ldr	r1, [r8, #12]
    7fa8:	e5b4c008 	ldr	ip, [r4, #8]!
    7fac:	e3822001 	orr	r2, r2, #1
    7fb0:	e5832004 	str	r2, [r3, #4]
    7fb4:	e1a00006 	mov	r0, r6
    7fb8:	e58c100c 	str	r1, [ip, #12]
    7fbc:	e581c008 	str	ip, [r1, #8]
    7fc0:	eb0001d3 	bl	0x8714
    7fc4:	eafffec4 	b	0x7adc
    7fc8:	e1a001a5 	lsr	r0, r5, #3
    7fcc:	e2853008 	add	r3, r5, #8
    7fd0:	eafffea7 	b	0x7a74
    7fd4:	e385e001 	orr	lr, r5, #1
    7fd8:	e3821001 	orr	r1, r2, #1
    7fdc:	e0845005 	add	r5, r4, r5
    7fe0:	e584e004 	str	lr, [r4, #4]
    7fe4:	e1a00006 	mov	r0, r6
    7fe8:	e5875014 	str	r5, [r7, #20]
    7fec:	e5875010 	str	r5, [r7, #16]
    7ff0:	e585c00c 	str	ip, [r5, #12]
    7ff4:	e9851002 	stmib	r5, {r1, ip}
    7ff8:	e7842003 	str	r2, [r4, r3]
    7ffc:	eb0001c4 	bl	0x8714
    8000:	e2844008 	add	r4, r4, #8
    8004:	eafffeb4 	b	0x7adc
    8008:	e1a02323 	lsr	r2, r3, #6
    800c:	e2828039 	add	r8, r2, #57	; 0x39
    8010:	e1a08188 	lsl	r8, r8, #3
    8014:	e2821038 	add	r1, r2, #56	; 0x38
    8018:	eaffffbd 	b	0x7f14
    801c:	e283005c 	add	r0, r3, #92	; 0x5c
    8020:	e283c05b 	add	ip, r3, #91	; 0x5b
    8024:	e1a01180 	lsl	r1, r0, #3
    8028:	eafffec0 	b	0x7b30
    802c:	e4193008 	ldr	r3, [r9], #-8
    8030:	e1530009 	cmp	r3, r9
    8034:	e2400001 	sub	r0, r0, #1
    8038:	1a000059 	bne	0x81a4
    803c:	e3100003 	tst	r0, #3
    8040:	1afffff9 	bne	0x802c
    8044:	e5973004 	ldr	r3, [r7, #4]
    8048:	e1c3300e 	bic	r3, r3, lr
    804c:	e5873004 	str	r3, [r7, #4]
    8050:	e1a0e08e 	lsl	lr, lr, #1
    8054:	e15e0003 	cmp	lr, r3
    8058:	83a02000 	movhi	r2, #0
    805c:	93a02001 	movls	r2, #1
    8060:	e35e0000 	cmp	lr, #0
    8064:	03a02000 	moveq	r2, #0
    8068:	e3520000 	cmp	r2, #0
    806c:	0afffee9 	beq	0x7c18
    8070:	e11e0003 	tst	lr, r3
    8074:	1a000003 	bne	0x8088
    8078:	e1a0e08e 	lsl	lr, lr, #1
    807c:	e11e0003 	tst	lr, r3
    8080:	e2844004 	add	r4, r4, #4
    8084:	0afffffb 	beq	0x8078
    8088:	e1a00004 	mov	r0, r4
    808c:	eaffff61 	b	0x7e18
    8090:	e1a00a03 	lsl	r0, r3, #20
    8094:	e1a00a20 	lsr	r0, r0, #20
    8098:	e3500000 	cmp	r0, #0
    809c:	1affff06 	bne	0x7cbc
    80a0:	e08a2002 	add	r2, sl, r2
    80a4:	e5974008 	ldr	r4, [r7, #8]
    80a8:	e3822001 	orr	r2, r2, #1
    80ac:	e5842004 	str	r2, [r4, #4]
    80b0:	eaffff33 	b	0x7d84
    80b4:	e1a04008 	mov	r4, r8
    80b8:	eaffff31 	b	0x7d84
    80bc:	e5974008 	ldr	r4, [r7, #8]
    80c0:	e5942004 	ldr	r2, [r4, #4]
    80c4:	eaffff36 	b	0x7da4
    80c8:	e3a08001 	mov	r8, #1
    80cc:	e5973004 	ldr	r3, [r7, #4]
    80d0:	e1a01141 	asr	r1, r1, #2
    80d4:	e1833118 	orr	r3, r3, r8, lsl r1
    80d8:	e5873004 	str	r3, [r7, #4]
    80dc:	eaffff9a 	b	0x7f4c
    80e0:	e3520054 	cmp	r2, #84	; 0x54
    80e4:	8a00000b 	bhi	0x8118
    80e8:	e1a02623 	lsr	r2, r3, #12
    80ec:	e282806f 	add	r8, r2, #111	; 0x6f
    80f0:	e1a08188 	lsl	r8, r8, #3
    80f4:	e282106e 	add	r1, r2, #110	; 0x6e
    80f8:	eaffff85 	b	0x7f14
    80fc:	e3530f55 	cmp	r3, #340	; 0x154
    8100:	8a00000b 	bhi	0x8134
    8104:	e1a037a5 	lsr	r3, r5, #15
    8108:	e2830078 	add	r0, r3, #120	; 0x78
    810c:	e283c077 	add	ip, r3, #119	; 0x77
    8110:	e1a01180 	lsl	r1, r0, #3
    8114:	eafffe85 	b	0x7b30
    8118:	e3520f55 	cmp	r2, #340	; 0x154
    811c:	8a000013 	bhi	0x8170
    8120:	e1a027a3 	lsr	r2, r3, #15
    8124:	e2828078 	add	r8, r2, #120	; 0x78
    8128:	e1a08188 	lsl	r8, r8, #3
    812c:	e2821077 	add	r1, r2, #119	; 0x77
    8130:	eaffff77 	b	0x7f14
    8134:	e59f208c 	ldr	r2, [pc, #140]	; 0x81c8
    8138:	e1530002 	cmp	r3, r2
    813c:	8a000014 	bhi	0x8194
    8140:	e1a03925 	lsr	r3, r5, #18
    8144:	e283007d 	add	r0, r3, #125	; 0x7d
    8148:	e283c07c 	add	ip, r3, #124	; 0x7c
    814c:	e1a01180 	lsl	r1, r0, #3
    8150:	eafffe76 	b	0x7b30
    8154:	e2841008 	add	r1, r4, #8
    8158:	e1a00006 	mov	r0, r6
    815c:	ebfffd6c 	bl	0x7714
    8160:	e5974008 	ldr	r4, [r7, #8]
    8164:	e5991000 	ldr	r1, [r9]
    8168:	e5942004 	ldr	r2, [r4, #4]
    816c:	eaffff04 	b	0x7d84
    8170:	e59f1050 	ldr	r1, [pc, #80]	; 0x81c8
    8174:	e1520001 	cmp	r2, r1
    8178:	91a02923 	lsrls	r2, r3, #18
    817c:	9282807d 	addls	r8, r2, #125	; 0x7d
    8180:	91a08188 	lslls	r8, r8, #3
    8184:	9282107c 	addls	r1, r2, #124	; 0x7c
    8188:	83a08ffe 	movhi	r8, #1016	; 0x3f8
    818c:	83a0107e 	movhi	r1, #126	; 0x7e
    8190:	eaffff5f 	b	0x7f14
    8194:	e3a01ffe 	mov	r1, #1016	; 0x3f8
    8198:	e3a0007f 	mov	r0, #127	; 0x7f
    819c:	e3a0c07e 	mov	ip, #126	; 0x7e
    81a0:	eafffe62 	b	0x7b30
    81a4:	e5973004 	ldr	r3, [r7, #4]
    81a8:	eaffffa8 	b	0x8050
    81ac:	03000358 	tsteq	r0, #88, 6	; 0x60000001
    81b0:	03000360 	tsteq	r0, #96, 6	; 0x80000001
    81b4:	03000760 	tsteq	r0, #96, 14	; 0x1800000
    81b8:	03000114 	tsteq	r0, #20, 2
    81bc:	030000e4 	tsteq	r0, #228	; 0xe4
    81c0:	0300010c 	tsteq	r0, #12, 2
    81c4:	03000110 	tsteq	r0, #16, 2
    81c8:	00000554 	andeq	r0, r0, r4, asr r5
    81cc:	e92d40f0 	push	{r4, r5, r6, r7, lr}
    81d0:	e3510000 	cmp	r1, #0
    81d4:	e24dd00c 	sub	sp, sp, #12
    81d8:	028d1004 	addeq	r1, sp, #4
    81dc:	e3520000 	cmp	r2, #0
    81e0:	e1a04000 	mov	r4, r0
    81e4:	e59d5020 	ldr	r5, [sp, #32]
    81e8:	01a00002 	moveq	r0, r2
    81ec:	0a000026 	beq	0x828c
    81f0:	e3530000 	cmp	r3, #0
    81f4:	0a00009e 	beq	0x8474
    81f8:	e595e000 	ldr	lr, [r5]
    81fc:	e35e0000 	cmp	lr, #0
    8200:	05d20000 	ldrbeq	r0, [r2]
    8204:	15d50004 	ldrbne	r0, [r5, #4]
    8208:	03a0c001 	moveq	ip, #1
    820c:	13a0c000 	movne	ip, #0
    8210:	e3500000 	cmp	r0, #0
    8214:	05810000 	streq	r0, [r1]
    8218:	05850000 	streq	r0, [r5]
    821c:	0a00001a 	beq	0x828c
    8220:	e350007f 	cmp	r0, #127	; 0x7f
    8224:	da00001b 	ble	0x8298
    8228:	e24060c0 	sub	r6, r0, #192	; 0xc0
    822c:	e356001f 	cmp	r6, #31
    8230:	8a00001f 	bhi	0x82b4
    8234:	e35e0000 	cmp	lr, #0
    8238:	e5c50004 	strb	r0, [r5, #4]
    823c:	1a000003 	bne	0x8250
    8240:	e3a0e001 	mov	lr, #1
    8244:	e153000e 	cmp	r3, lr
    8248:	e585e000 	str	lr, [r5]
    824c:	9a000088 	bls	0x8474
    8250:	e7d2200c 	ldrb	r2, [r2, ip]
    8254:	e2423080 	sub	r3, r2, #128	; 0x80
    8258:	e353003f 	cmp	r3, #63	; 0x3f
    825c:	e28cc001 	add	ip, ip, #1
    8260:	8a000087 	bhi	0x8484
    8264:	e35000c1 	cmp	r0, #193	; 0xc1
    8268:	da000085 	ble	0x8484
    826c:	e3a0e000 	mov	lr, #0
    8270:	e1a03300 	lsl	r3, r0, #6
    8274:	e1a0000c 	mov	r0, ip
    8278:	e2033d1f 	and	r3, r3, #1984	; 0x7c0
    827c:	e202203f 	and	r2, r2, #63	; 0x3f
    8280:	e1833002 	orr	r3, r3, r2
    8284:	e585e000 	str	lr, [r5]
    8288:	e5813000 	str	r3, [r1]
    828c:	e28dd00c 	add	sp, sp, #12
    8290:	e8bd40f0 	pop	{r4, r5, r6, r7, lr}
    8294:	e12fff1e 	bx	lr
    8298:	e3a03000 	mov	r3, #0
    829c:	e5853000 	str	r3, [r5]
    82a0:	e5810000 	str	r0, [r1]
    82a4:	e3a00001 	mov	r0, #1
    82a8:	e28dd00c 	add	sp, sp, #12
    82ac:	e8bd40f0 	pop	{r4, r5, r6, r7, lr}
    82b0:	e12fff1e 	bx	lr
    82b4:	e24060e0 	sub	r6, r0, #224	; 0xe0
    82b8:	e356000f 	cmp	r6, #15
    82bc:	8a000021 	bhi	0x8348
    82c0:	e35e0000 	cmp	lr, #0
    82c4:	e5c50004 	strb	r0, [r5, #4]
    82c8:	0a000055 	beq	0x8424
    82cc:	e3730001 	cmn	r3, #1
    82d0:	12833001 	addne	r3, r3, #1
    82d4:	e35e0001 	cmp	lr, #1
    82d8:	15d56005 	ldrbne	r6, [r5, #5]
    82dc:	0a000054 	beq	0x8434
    82e0:	e356009f 	cmp	r6, #159	; 0x9f
    82e4:	d35000e0 	cmple	r0, #224	; 0xe0
    82e8:	0a000065 	beq	0x8484
    82ec:	e2467080 	sub	r7, r6, #128	; 0x80
    82f0:	e357003f 	cmp	r7, #63	; 0x3f
    82f4:	8a000062 	bhi	0x8484
    82f8:	e35e0001 	cmp	lr, #1
    82fc:	e5c56005 	strb	r6, [r5, #5]
    8300:	0a000057 	beq	0x8464
    8304:	e7d2200c 	ldrb	r2, [r2, ip]
    8308:	e2423080 	sub	r3, r2, #128	; 0x80
    830c:	e353003f 	cmp	r3, #63	; 0x3f
    8310:	e28cc001 	add	ip, ip, #1
    8314:	8a00005a 	bhi	0x8484
    8318:	e3a0e000 	mov	lr, #0
    831c:	e59f31ac 	ldr	r3, [pc, #428]	; 0x84d0
    8320:	e1a06306 	lsl	r6, r6, #6
    8324:	e0030600 	and	r0, r3, r0, lsl #12
    8328:	e2066d3f 	and	r6, r6, #4032	; 0xfc0
    832c:	e1806006 	orr	r6, r0, r6
    8330:	e202203f 	and	r2, r2, #63	; 0x3f
    8334:	e1866002 	orr	r6, r6, r2
    8338:	e585e000 	str	lr, [r5]
    833c:	e1a0000c 	mov	r0, ip
    8340:	e5816000 	str	r6, [r1]
    8344:	eaffffd0 	b	0x828c
    8348:	e24060f0 	sub	r6, r0, #240	; 0xf0
    834c:	e3560004 	cmp	r6, #4
    8350:	8a00004b 	bhi	0x8484
    8354:	e35e0000 	cmp	lr, #0
    8358:	e5c50004 	strb	r0, [r5, #4]
    835c:	0a000038 	beq	0x8444
    8360:	e3730001 	cmn	r3, #1
    8364:	12833001 	addne	r3, r3, #1
    8368:	e35e0001 	cmp	lr, #1
    836c:	15d56005 	ldrbne	r6, [r5, #5]
    8370:	0a000037 	beq	0x8454
    8374:	e35000f0 	cmp	r0, #240	; 0xf0
    8378:	0a00003f 	beq	0x847c
    837c:	e35000f4 	cmp	r0, #244	; 0xf4
    8380:	13a07000 	movne	r7, #0
    8384:	03a07001 	moveq	r7, #1
    8388:	e356008f 	cmp	r6, #143	; 0x8f
    838c:	d3a07000 	movle	r7, #0
    8390:	e3570000 	cmp	r7, #0
    8394:	1a00003a 	bne	0x8484
    8398:	e2467080 	sub	r7, r6, #128	; 0x80
    839c:	e357003f 	cmp	r7, #63	; 0x3f
    83a0:	8a000037 	bhi	0x8484
    83a4:	e35e0001 	cmp	lr, #1
    83a8:	e5c56005 	strb	r6, [r5, #5]
    83ac:	0a000038 	beq	0x8494
    83b0:	e595e000 	ldr	lr, [r5]
    83b4:	e3730001 	cmn	r3, #1
    83b8:	12833001 	addne	r3, r3, #1
    83bc:	e35e0002 	cmp	lr, #2
    83c0:	0a000037 	beq	0x84a4
    83c4:	e5d5e006 	ldrb	lr, [r5, #6]
    83c8:	e24e3080 	sub	r3, lr, #128	; 0x80
    83cc:	e353003f 	cmp	r3, #63	; 0x3f
    83d0:	8a00002b 	bhi	0x8484
    83d4:	e7d2200c 	ldrb	r2, [r2, ip]
    83d8:	e2423080 	sub	r3, r2, #128	; 0x80
    83dc:	e353003f 	cmp	r3, #63	; 0x3f
    83e0:	e28cc001 	add	ip, ip, #1
    83e4:	8a000026 	bhi	0x8484
    83e8:	e3a04000 	mov	r4, #0
    83ec:	e1a03900 	lsl	r3, r0, #18
    83f0:	e1a06606 	lsl	r6, r6, #12
    83f4:	e2033707 	and	r3, r3, #1835008	; 0x1c0000
    83f8:	e2066a3f 	and	r6, r6, #258048	; 0x3f000
    83fc:	e1a0e30e 	lsl	lr, lr, #6
    8400:	e1833006 	orr	r3, r3, r6
    8404:	e20eed3f 	and	lr, lr, #4032	; 0xfc0
    8408:	e183300e 	orr	r3, r3, lr
    840c:	e202203f 	and	r2, r2, #63	; 0x3f
    8410:	e1833002 	orr	r3, r3, r2
    8414:	e5813000 	str	r3, [r1]
    8418:	e1a0000c 	mov	r0, ip
    841c:	e5854000 	str	r4, [r5]
    8420:	eaffff99 	b	0x828c
    8424:	e3a0e001 	mov	lr, #1
    8428:	e153000e 	cmp	r3, lr
    842c:	e585e000 	str	lr, [r5]
    8430:	9a00000f 	bls	0x8474
    8434:	e3a0e001 	mov	lr, #1
    8438:	e7d2600c 	ldrb	r6, [r2, ip]
    843c:	e08cc00e 	add	ip, ip, lr
    8440:	eaffffa6 	b	0x82e0
    8444:	e3a0e001 	mov	lr, #1
    8448:	e153000e 	cmp	r3, lr
    844c:	e585e000 	str	lr, [r5]
    8450:	9a000007 	bls	0x8474
    8454:	e3a0e001 	mov	lr, #1
    8458:	e7d2600c 	ldrb	r6, [r2, ip]
    845c:	e08cc00e 	add	ip, ip, lr
    8460:	eaffffc3 	b	0x8374
    8464:	e3a0e002 	mov	lr, #2
    8468:	e153000e 	cmp	r3, lr
    846c:	e585e000 	str	lr, [r5]
    8470:	1affffa3 	bne	0x8304
    8474:	e3e00001 	mvn	r0, #1
    8478:	eaffff83 	b	0x828c
    847c:	e356008f 	cmp	r6, #143	; 0x8f
    8480:	caffffc4 	bgt	0x8398
    8484:	e3a0308a 	mov	r3, #138	; 0x8a
    8488:	e3e00000 	mvn	r0, #0
    848c:	e5843000 	str	r3, [r4]
    8490:	eaffff7d 	b	0x828c
    8494:	e3a0e002 	mov	lr, #2
    8498:	e153000e 	cmp	r3, lr
    849c:	e585e000 	str	lr, [r5]
    84a0:	0afffff3 	beq	0x8474
    84a4:	e7d2e00c 	ldrb	lr, [r2, ip]
    84a8:	e24e7080 	sub	r7, lr, #128	; 0x80
    84ac:	e357003f 	cmp	r7, #63	; 0x3f
    84b0:	e28cc001 	add	ip, ip, #1
    84b4:	8afffff2 	bhi	0x8484
    84b8:	e3a07003 	mov	r7, #3
    84bc:	e1530007 	cmp	r3, r7
    84c0:	e5c5e006 	strb	lr, [r5, #6]
    84c4:	e5857000 	str	r7, [r5]
    84c8:	1affffc1 	bne	0x83d4
    84cc:	eaffffe8 	b	0x8474
    84d0:	0000ffff 			; <UNDEFINED> instruction: 0x0000ffff
    84d4:	e3100003 	tst	r0, #3
    84d8:	e92d4070 	push	{r4, r5, r6, lr}
    84dc:	e20140ff 	and	r4, r1, #255	; 0xff
    84e0:	0a000038 	beq	0x85c8
    84e4:	e3520000 	cmp	r2, #0
    84e8:	e242c001 	sub	ip, r2, #1
    84ec:	0a00001e 	beq	0x856c
    84f0:	e5d03000 	ldrb	r3, [r0]
    84f4:	e1530004 	cmp	r3, r4
    84f8:	0a00001c 	beq	0x8570
    84fc:	e2803001 	add	r3, r0, #1
    8500:	ea000005 	b	0x851c
    8504:	e25cc001 	subs	ip, ip, #1
    8508:	3a000017 	bcc	0x856c
    850c:	e5d02000 	ldrb	r2, [r0]
    8510:	e1520004 	cmp	r2, r4
    8514:	e2833001 	add	r3, r3, #1
    8518:	0a000014 	beq	0x8570
    851c:	e3130003 	tst	r3, #3
    8520:	e1a00003 	mov	r0, r3
    8524:	1afffff6 	bne	0x8504
    8528:	e35c0003 	cmp	ip, #3
    852c:	8a000011 	bhi	0x8578
    8530:	e35c0000 	cmp	ip, #0
    8534:	0a000025 	beq	0x85d0
    8538:	e5d03000 	ldrb	r3, [r0]
    853c:	e1530004 	cmp	r3, r4
    8540:	0a00000a 	beq	0x8570
    8544:	e080c00c 	add	ip, r0, ip
    8548:	e2802001 	add	r2, r0, #1
    854c:	ea000003 	b	0x8560
    8550:	e5d01000 	ldrb	r1, [r0]
    8554:	e1510004 	cmp	r1, r4
    8558:	e2822001 	add	r2, r2, #1
    855c:	0a000003 	beq	0x8570
    8560:	e15c0002 	cmp	ip, r2
    8564:	e1a00002 	mov	r0, r2
    8568:	1afffff8 	bne	0x8550
    856c:	e3a00000 	mov	r0, #0
    8570:	e8bd4070 	pop	{r4, r5, r6, lr}
    8574:	e12fff1e 	bx	lr
    8578:	e1a0e000 	mov	lr, r0
    857c:	e59f3054 	ldr	r3, [pc, #84]	; 0x85d8
    8580:	e0033401 	and	r3, r3, r1, lsl #8
    8584:	e1833004 	orr	r3, r3, r4
    8588:	e59f604c 	ldr	r6, [pc, #76]	; 0x85dc
    858c:	e59f504c 	ldr	r5, [pc, #76]	; 0x85e0
    8590:	e1833803 	orr	r3, r3, r3, lsl #16
    8594:	e59e2000 	ldr	r2, [lr]
    8598:	e0222003 	eor	r2, r2, r3
    859c:	e0821006 	add	r1, r2, r6
    85a0:	e1c12002 	bic	r2, r1, r2
    85a4:	e1120005 	tst	r2, r5
    85a8:	e1a0000e 	mov	r0, lr
    85ac:	e28ee004 	add	lr, lr, #4
    85b0:	1affffe0 	bne	0x8538
    85b4:	e24cc004 	sub	ip, ip, #4
    85b8:	e35c0003 	cmp	ip, #3
    85bc:	e1a0000e 	mov	r0, lr
    85c0:	8afffff3 	bhi	0x8594
    85c4:	eaffffd9 	b	0x8530
    85c8:	e1a0c002 	mov	ip, r2
    85cc:	eaffffd5 	b	0x8528
    85d0:	e1a0000c 	mov	r0, ip
    85d4:	eaffffe5 	b	0x8570
    85d8:	0000ffff 			; <UNDEFINED> instruction: 0x0000ffff
    85dc:	fefefeff 			; <UNDEFINED> instruction: 0xfefefeff
    85e0:	80808080 	addhi	r8, r0, r0, lsl #1
    85e4:	e3100003 	tst	r0, #3
    85e8:	0a00003f 	beq	0x86ec
    85ec:	e3520000 	cmp	r2, #0
    85f0:	e2422001 	sub	r2, r2, #1
    85f4:	012fff1e 	bxeq	lr
    85f8:	e201c0ff 	and	ip, r1, #255	; 0xff
    85fc:	e1a03000 	mov	r3, r0
    8600:	ea000002 	b	0x8610
    8604:	e2422001 	sub	r2, r2, #1
    8608:	e3720001 	cmn	r2, #1
    860c:	012fff1e 	bxeq	lr
    8610:	e4c3c001 	strb	ip, [r3], #1
    8614:	e3130003 	tst	r3, #3
    8618:	1afffff9 	bne	0x8604
    861c:	e3520003 	cmp	r2, #3
    8620:	9a000027 	bls	0x86c4
    8624:	e92d4030 	push	{r4, r5, lr}
    8628:	e201e0ff 	and	lr, r1, #255	; 0xff
    862c:	e18ee40e 	orr	lr, lr, lr, lsl #8
    8630:	e352000f 	cmp	r2, #15
    8634:	e18ee80e 	orr	lr, lr, lr, lsl #16
    8638:	9a00002d 	bls	0x86f4
    863c:	e2424010 	sub	r4, r2, #16
    8640:	e1a04224 	lsr	r4, r4, #4
    8644:	e2835020 	add	r5, r3, #32
    8648:	e0855204 	add	r5, r5, r4, lsl #4
    864c:	e283c010 	add	ip, r3, #16
    8650:	e50ce010 	str	lr, [ip, #-16]
    8654:	e50ce00c 	str	lr, [ip, #-12]
    8658:	e50ce008 	str	lr, [ip, #-8]
    865c:	e50ce004 	str	lr, [ip, #-4]
    8660:	e28cc010 	add	ip, ip, #16
    8664:	e15c0005 	cmp	ip, r5
    8668:	1afffff8 	bne	0x8650
    866c:	e284c001 	add	ip, r4, #1
    8670:	e312000c 	tst	r2, #12
    8674:	e083c20c 	add	ip, r3, ip, lsl #4
    8678:	e202200f 	and	r2, r2, #15
    867c:	0a000018 	beq	0x86e4
    8680:	e2423004 	sub	r3, r2, #4
    8684:	e3c33003 	bic	r3, r3, #3
    8688:	e2833004 	add	r3, r3, #4
    868c:	e08c3003 	add	r3, ip, r3
    8690:	e48ce004 	str	lr, [ip], #4
    8694:	e153000c 	cmp	r3, ip
    8698:	1afffffc 	bne	0x8690
    869c:	e2022003 	and	r2, r2, #3
    86a0:	e3520000 	cmp	r2, #0
    86a4:	0a000004 	beq	0x86bc
    86a8:	e20110ff 	and	r1, r1, #255	; 0xff
    86ac:	e0832002 	add	r2, r3, r2
    86b0:	e4c31001 	strb	r1, [r3], #1
    86b4:	e1520003 	cmp	r2, r3
    86b8:	1afffffc 	bne	0x86b0
    86bc:	e8bd4030 	pop	{r4, r5, lr}
    86c0:	e12fff1e 	bx	lr
    86c4:	e3520000 	cmp	r2, #0
    86c8:	012fff1e 	bxeq	lr
    86cc:	e20110ff 	and	r1, r1, #255	; 0xff
    86d0:	e0832002 	add	r2, r3, r2
    86d4:	e4c31001 	strb	r1, [r3], #1
    86d8:	e1520003 	cmp	r2, r3
    86dc:	1afffffc 	bne	0x86d4
    86e0:	e12fff1e 	bx	lr
    86e4:	e1a0300c 	mov	r3, ip
    86e8:	eaffffec 	b	0x86a0
    86ec:	e1a03000 	mov	r3, r0
    86f0:	eaffffc9 	b	0x861c
    86f4:	e1a0c003 	mov	ip, r3
    86f8:	eaffffe0 	b	0x8680
    86fc:	e92d4010 	push	{r4, lr}
    8700:	e59f0008 	ldr	r0, [pc, #8]	; 0x8710
    8704:	eb0005d4 	bl	0x9e5c
    8708:	e8bd4010 	pop	{r4, lr}
    870c:	e12fff1e 	bx	lr
    8710:	03000768 	tsteq	r0, #104, 14	; 0x1a00000
    8714:	e92d4010 	push	{r4, lr}
    8718:	e59f0008 	ldr	r0, [pc, #8]	; 0x8728
    871c:	eb0005d4 	bl	0x9e74
    8720:	e8bd4010 	pop	{r4, lr}
    8724:	e12fff1e 	bx	lr
    8728:	03000768 	tsteq	r0, #104, 14	; 0x1a00000
    872c:	e590304c 	ldr	r3, [r0, #76]	; 0x4c
    8730:	e3530000 	cmp	r3, #0
    8734:	e92d4070 	push	{r4, r5, r6, lr}
    8738:	e1a05000 	mov	r5, r0
    873c:	e1a04001 	mov	r4, r1
    8740:	0a000009 	beq	0x876c
    8744:	e7930104 	ldr	r0, [r3, r4, lsl #2]
    8748:	e3500000 	cmp	r0, #0
    874c:	0a00000f 	beq	0x8790
    8750:	e5902000 	ldr	r2, [r0]
    8754:	e7832104 	str	r2, [r3, r4, lsl #2]
    8758:	e3a03000 	mov	r3, #0
    875c:	e5803010 	str	r3, [r0, #16]
    8760:	e580300c 	str	r3, [r0, #12]
    8764:	e8bd4070 	pop	{r4, r5, r6, lr}
    8768:	e12fff1e 	bx	lr
    876c:	e3a02021 	mov	r2, #33	; 0x21
    8770:	e3a01004 	mov	r1, #4
    8774:	eb0003e7 	bl	0x9718
    8778:	e3500000 	cmp	r0, #0
    877c:	e1a03000 	mov	r3, r0
    8780:	e585004c 	str	r0, [r5, #76]	; 0x4c
    8784:	1affffee 	bne	0x8744
    8788:	e3a00000 	mov	r0, #0
    878c:	eafffff4 	b	0x8764
    8790:	e3a01001 	mov	r1, #1
    8794:	e1a06411 	lsl	r6, r1, r4
    8798:	e2862005 	add	r2, r6, #5
    879c:	e1a00005 	mov	r0, r5
    87a0:	e1a02102 	lsl	r2, r2, #2
    87a4:	eb0003db 	bl	0x9718
    87a8:	e3500000 	cmp	r0, #0
    87ac:	0afffff5 	beq	0x8788
    87b0:	e9800050 	stmib	r0, {r4, r6}
    87b4:	eaffffe7 	b	0x8758
    87b8:	e3510000 	cmp	r1, #0
    87bc:	1590304c 	ldrne	r3, [r0, #76]	; 0x4c
    87c0:	15912004 	ldrne	r2, [r1, #4]
    87c4:	17930102 	ldrne	r0, [r3, r2, lsl #2]
    87c8:	15810000 	strne	r0, [r1]
    87cc:	17831102 	strne	r1, [r3, r2, lsl #2]
    87d0:	e12fff1e 	bx	lr
    87d4:	e92d43f0 	push	{r4, r5, r6, r7, r8, r9, lr}
    87d8:	e1a04001 	mov	r4, r1
    87dc:	e1a05000 	mov	r5, r0
    87e0:	e3a0e000 	mov	lr, #0
    87e4:	e5916010 	ldr	r6, [r1, #16]
    87e8:	e59f70cc 	ldr	r7, [pc, #204]	; 0x88bc
    87ec:	e24dd00c 	sub	sp, sp, #12
    87f0:	e281c014 	add	ip, r1, #20
    87f4:	e59c0000 	ldr	r0, [ip]
    87f8:	e0001007 	and	r1, r0, r7
    87fc:	e0283192 	mla	r8, r2, r1, r3
    8800:	e1a00820 	lsr	r0, r0, #16
    8804:	e1a01828 	lsr	r1, r8, #16
    8808:	e0291092 	mla	r9, r2, r0, r1
    880c:	e28ee001 	add	lr, lr, #1
    8810:	e0083007 	and	r3, r8, r7
    8814:	e0833809 	add	r3, r3, r9, lsl #16
    8818:	e156000e 	cmp	r6, lr
    881c:	e48c3004 	str	r3, [ip], #4
    8820:	e1a03829 	lsr	r3, r9, #16
    8824:	cafffff2 	bgt	0x87f4
    8828:	e3530000 	cmp	r3, #0
    882c:	0a000006 	beq	0x884c
    8830:	e5942008 	ldr	r2, [r4, #8]
    8834:	e1520006 	cmp	r2, r6
    8838:	da000007 	ble	0x885c
    883c:	e0842106 	add	r2, r4, r6, lsl #2
    8840:	e2866001 	add	r6, r6, #1
    8844:	e5823014 	str	r3, [r2, #20]
    8848:	e5846010 	str	r6, [r4, #16]
    884c:	e1a00004 	mov	r0, r4
    8850:	e28dd00c 	add	sp, sp, #12
    8854:	e8bd43f0 	pop	{r4, r5, r6, r7, r8, r9, lr}
    8858:	e12fff1e 	bx	lr
    885c:	e5941004 	ldr	r1, [r4, #4]
    8860:	e1a00005 	mov	r0, r5
    8864:	e2811001 	add	r1, r1, #1
    8868:	e58d3004 	str	r3, [sp, #4]
    886c:	ebffffae 	bl	0x872c
    8870:	e1a07000 	mov	r7, r0
    8874:	e5942010 	ldr	r2, [r4, #16]
    8878:	e2822002 	add	r2, r2, #2
    887c:	e284100c 	add	r1, r4, #12
    8880:	e1a02102 	lsl	r2, r2, #2
    8884:	e280000c 	add	r0, r0, #12
    8888:	ebffe531 	bl	0x1d54
    888c:	e595204c 	ldr	r2, [r5, #76]	; 0x4c
    8890:	e5941004 	ldr	r1, [r4, #4]
    8894:	e7920101 	ldr	r0, [r2, r1, lsl #2]
    8898:	e5840000 	str	r0, [r4]
    889c:	e7824101 	str	r4, [r2, r1, lsl #2]
    88a0:	e1a04007 	mov	r4, r7
    88a4:	e59d3004 	ldr	r3, [sp, #4]
    88a8:	e0842106 	add	r2, r4, r6, lsl #2
    88ac:	e2866001 	add	r6, r6, #1
    88b0:	e5823014 	str	r3, [r2, #20]
    88b4:	e5846010 	str	r6, [r4, #16]
    88b8:	eaffffe3 	b	0x884c
    88bc:	0000ffff 			; <UNDEFINED> instruction: 0x0000ffff
    88c0:	e1a02820 	lsr	r2, r0, #16
    88c4:	e1a03000 	mov	r3, r0
    88c8:	e1a02802 	lsl	r2, r2, #16
    88cc:	e3520000 	cmp	r2, #0
    88d0:	01a03800 	lsleq	r3, r0, #16
    88d4:	13a00000 	movne	r0, #0
    88d8:	03a00010 	moveq	r0, #16
    88dc:	e31304ff 	tst	r3, #-16777216	; 0xff000000
    88e0:	01a03403 	lsleq	r3, r3, #8
    88e4:	02800008 	addeq	r0, r0, #8
    88e8:	e313020f 	tst	r3, #-268435456	; 0xf0000000
    88ec:	01a03203 	lsleq	r3, r3, #4
    88f0:	02800004 	addeq	r0, r0, #4
    88f4:	e3130103 	tst	r3, #-1073741824	; 0xc0000000
    88f8:	01a03103 	lsleq	r3, r3, #2
    88fc:	02800002 	addeq	r0, r0, #2
    8900:	e3530000 	cmp	r3, #0
    8904:	b12fff1e 	bxlt	lr
    8908:	e3130101 	tst	r3, #1073741824	; 0x40000000
    890c:	12800001 	addne	r0, r0, #1
    8910:	03a00020 	moveq	r0, #32
    8914:	e12fff1e 	bx	lr
    8918:	e5903000 	ldr	r3, [r0]
    891c:	e2132007 	ands	r2, r3, #7
    8920:	e1a01000 	mov	r1, r0
    8924:	0a000009 	beq	0x8950
    8928:	e3130001 	tst	r3, #1
    892c:	1a00001d 	bne	0x89a8
    8930:	e3130002 	tst	r3, #2
    8934:	11a030a3 	lsrne	r3, r3, #1
    8938:	01a03123 	lsreq	r3, r3, #2
    893c:	15803000 	strne	r3, [r0]
    8940:	05813000 	streq	r3, [r1]
    8944:	13a00001 	movne	r0, #1
    8948:	03a00002 	moveq	r0, #2
    894c:	e12fff1e 	bx	lr
    8950:	e1a00803 	lsl	r0, r3, #16
    8954:	e1a00820 	lsr	r0, r0, #16
    8958:	e3500000 	cmp	r0, #0
    895c:	03a00010 	moveq	r0, #16
    8960:	11a00002 	movne	r0, r2
    8964:	01a03823 	lsreq	r3, r3, #16
    8968:	e31300ff 	tst	r3, #255	; 0xff
    896c:	01a03423 	lsreq	r3, r3, #8
    8970:	02800008 	addeq	r0, r0, #8
    8974:	e313000f 	tst	r3, #15
    8978:	01a03223 	lsreq	r3, r3, #4
    897c:	02800004 	addeq	r0, r0, #4
    8980:	e3130003 	tst	r3, #3
    8984:	01a03123 	lsreq	r3, r3, #2
    8988:	02800002 	addeq	r0, r0, #2
    898c:	e3130001 	tst	r3, #1
    8990:	1a000002 	bne	0x89a0
    8994:	e1b030a3 	lsrs	r3, r3, #1
    8998:	e2800001 	add	r0, r0, #1
    899c:	0a000003 	beq	0x89b0
    89a0:	e5813000 	str	r3, [r1]
    89a4:	e12fff1e 	bx	lr
    89a8:	e3a00000 	mov	r0, #0
    89ac:	e12fff1e 	bx	lr
    89b0:	e3a00020 	mov	r0, #32
    89b4:	e12fff1e 	bx	lr
    89b8:	e92d4010 	push	{r4, lr}
    89bc:	e1a04001 	mov	r4, r1
    89c0:	e3a01001 	mov	r1, #1
    89c4:	ebffff58 	bl	0x872c
    89c8:	e3a02001 	mov	r2, #1
    89cc:	e5804014 	str	r4, [r0, #20]
    89d0:	e5802010 	str	r2, [r0, #16]
    89d4:	e8bd4010 	pop	{r4, lr}
    89d8:	e12fff1e 	bx	lr
    89dc:	e92d4ff0 	push	{r4, r5, r6, r7, r8, r9, sl, fp, lr}
    89e0:	e5923010 	ldr	r3, [r2, #16]
    89e4:	e5915010 	ldr	r5, [r1, #16]
    89e8:	e1550003 	cmp	r5, r3
    89ec:	b1a04002 	movlt	r4, r2
    89f0:	a1a04001 	movge	r4, r1
    89f4:	b1a06003 	movlt	r6, r3
    89f8:	a1a06005 	movge	r6, r5
    89fc:	a1a05003 	movge	r5, r3
    8a00:	e5943008 	ldr	r3, [r4, #8]
    8a04:	e0867005 	add	r7, r6, r5
    8a08:	b1a09001 	movlt	r9, r1
    8a0c:	e5941004 	ldr	r1, [r4, #4]
    8a10:	a1a09002 	movge	r9, r2
    8a14:	e1530007 	cmp	r3, r7
    8a18:	e24dd014 	sub	sp, sp, #20
    8a1c:	b2811001 	addlt	r1, r1, #1
    8a20:	ebffff41 	bl	0x872c
    8a24:	e280b014 	add	fp, r0, #20
    8a28:	e08ba107 	add	sl, fp, r7, lsl #2
    8a2c:	e15b000a 	cmp	fp, sl
    8a30:	e1a03000 	mov	r3, r0
    8a34:	e58d0004 	str	r0, [sp, #4]
    8a38:	31a0300b 	movcc	r3, fp
    8a3c:	33a00000 	movcc	r0, #0
    8a40:	2a000002 	bcs	0x8a50
    8a44:	e4830004 	str	r0, [r3], #4
    8a48:	e15a0003 	cmp	sl, r3
    8a4c:	8afffffc 	bhi	0x8a44
    8a50:	e2899014 	add	r9, r9, #20
    8a54:	e0893105 	add	r3, r9, r5, lsl #2
    8a58:	e1a02003 	mov	r2, r3
    8a5c:	e1590003 	cmp	r9, r3
    8a60:	e2843014 	add	r3, r4, #20
    8a64:	e0836106 	add	r6, r3, r6, lsl #2
    8a68:	2a000040 	bcs	0x8b70
    8a6c:	e58da008 	str	sl, [sp, #8]
    8a70:	e58d700c 	str	r7, [sp, #12]
    8a74:	e59f013c 	ldr	r0, [pc, #316]	; 0x8bb8
    8a78:	e1a0a002 	mov	sl, r2
    8a7c:	e1a07003 	mov	r7, r3
    8a80:	ea000004 	b	0x8a98
    8a84:	e1b0e82e 	lsrs	lr, lr, #16
    8a88:	1a00001c 	bne	0x8b00
    8a8c:	e15a0009 	cmp	sl, r9
    8a90:	e28bb004 	add	fp, fp, #4
    8a94:	9a000033 	bls	0x8b68
    8a98:	e499e004 	ldr	lr, [r9], #4
    8a9c:	e01e5000 	ands	r5, lr, r0
    8aa0:	0afffff7 	beq	0x8a84
    8aa4:	e1a04007 	mov	r4, r7
    8aa8:	e1a0e00b 	mov	lr, fp
    8aac:	e3a03000 	mov	r3, #0
    8ab0:	e4941004 	ldr	r1, [r4], #4
    8ab4:	e59ec000 	ldr	ip, [lr]
    8ab8:	e0012000 	and	r2, r1, r0
    8abc:	e00c8000 	and	r8, ip, r0
    8ac0:	e0228295 	mla	r2, r5, r2, r8
    8ac4:	e1a01821 	lsr	r1, r1, #16
    8ac8:	e1a0c82c 	lsr	ip, ip, #16
    8acc:	e021c195 	mla	r1, r5, r1, ip
    8ad0:	e0823003 	add	r3, r2, r3
    8ad4:	e0812823 	add	r2, r1, r3, lsr #16
    8ad8:	e0033000 	and	r3, r3, r0
    8adc:	e1833802 	orr	r3, r3, r2, lsl #16
    8ae0:	e1560004 	cmp	r6, r4
    8ae4:	e48e3004 	str	r3, [lr], #4
    8ae8:	e1a03822 	lsr	r3, r2, #16
    8aec:	8affffef 	bhi	0x8ab0
    8af0:	e58e3000 	str	r3, [lr]
    8af4:	e519e004 	ldr	lr, [r9, #-4]
    8af8:	e1b0e82e 	lsrs	lr, lr, #16
    8afc:	0affffe2 	beq	0x8a8c
    8b00:	e59b3000 	ldr	r3, [fp]
    8b04:	e1a04007 	mov	r4, r7
    8b08:	e1a0c003 	mov	ip, r3
    8b0c:	e1a0500b 	mov	r5, fp
    8b10:	e3a02000 	mov	r2, #0
    8b14:	e5941000 	ldr	r1, [r4]
    8b18:	e1a0882c 	lsr	r8, ip, #16
    8b1c:	e0011000 	and	r1, r1, r0
    8b20:	e02c819e 	mla	ip, lr, r1, r8
    8b24:	e0033000 	and	r3, r3, r0
    8b28:	e08c2002 	add	r2, ip, r2
    8b2c:	e1833802 	orr	r3, r3, r2, lsl #16
    8b30:	e4853004 	str	r3, [r5], #4
    8b34:	e4943004 	ldr	r3, [r4], #4
    8b38:	e595c000 	ldr	ip, [r5]
    8b3c:	e1a08823 	lsr	r8, r3, #16
    8b40:	e00c1000 	and	r1, ip, r0
    8b44:	e023189e 	mla	r3, lr, r8, r1
    8b48:	e1560004 	cmp	r6, r4
    8b4c:	e0833822 	add	r3, r3, r2, lsr #16
    8b50:	e1a02823 	lsr	r2, r3, #16
    8b54:	8affffee 	bhi	0x8b14
    8b58:	e15a0009 	cmp	sl, r9
    8b5c:	e5853000 	str	r3, [r5]
    8b60:	e28bb004 	add	fp, fp, #4
    8b64:	8affffcb 	bhi	0x8a98
    8b68:	e59da008 	ldr	sl, [sp, #8]
    8b6c:	e59d700c 	ldr	r7, [sp, #12]
    8b70:	e3570000 	cmp	r7, #0
    8b74:	da000009 	ble	0x8ba0
    8b78:	e51a3004 	ldr	r3, [sl, #-4]
    8b7c:	e3530000 	cmp	r3, #0
    8b80:	e24aa004 	sub	sl, sl, #4
    8b84:	0a000003 	beq	0x8b98
    8b88:	ea000004 	b	0x8ba0
    8b8c:	e53a3004 	ldr	r3, [sl, #-4]!
    8b90:	e3530000 	cmp	r3, #0
    8b94:	1a000001 	bne	0x8ba0
    8b98:	e2577001 	subs	r7, r7, #1
    8b9c:	1afffffa 	bne	0x8b8c
    8ba0:	e59d3004 	ldr	r3, [sp, #4]
    8ba4:	e1a00003 	mov	r0, r3
    8ba8:	e5837010 	str	r7, [r3, #16]
    8bac:	e28dd014 	add	sp, sp, #20
    8bb0:	e8bd4ff0 	pop	{r4, r5, r6, r7, r8, r9, sl, fp, lr}
    8bb4:	e12fff1e 	bx	lr
    8bb8:	0000ffff 			; <UNDEFINED> instruction: 0x0000ffff
    8bbc:	e2123003 	ands	r3, r2, #3
    8bc0:	e92d41f0 	push	{r4, r5, r6, r7, r8, lr}
    8bc4:	e1a04002 	mov	r4, r2
    8bc8:	e1a07000 	mov	r7, r0
    8bcc:	01a05001 	moveq	r5, r1
    8bd0:	1a000025 	bne	0x8c6c
    8bd4:	e1b04144 	asrs	r4, r4, #2
    8bd8:	0a000019 	beq	0x8c44
    8bdc:	e5976048 	ldr	r6, [r7, #72]	; 0x48
    8be0:	e3560000 	cmp	r6, #0
    8be4:	0a000027 	beq	0x8c88
    8be8:	e3a08000 	mov	r8, #0
    8bec:	ea000005 	b	0x8c08
    8bf0:	e1b040c4 	asrs	r4, r4, #1
    8bf4:	0a000012 	beq	0x8c44
    8bf8:	e5960000 	ldr	r0, [r6]
    8bfc:	e3500000 	cmp	r0, #0
    8c00:	0a000012 	beq	0x8c50
    8c04:	e1a06000 	mov	r6, r0
    8c08:	e3140001 	tst	r4, #1
    8c0c:	0afffff7 	beq	0x8bf0
    8c10:	e1a02006 	mov	r2, r6
    8c14:	e1a01005 	mov	r1, r5
    8c18:	e1a00007 	mov	r0, r7
    8c1c:	ebffff6e 	bl	0x89dc
    8c20:	e3550000 	cmp	r5, #0
    8c24:	15952004 	ldrne	r2, [r5, #4]
    8c28:	1597304c 	ldrne	r3, [r7, #76]	; 0x4c
    8c2c:	17931102 	ldrne	r1, [r3, r2, lsl #2]
    8c30:	15851000 	strne	r1, [r5]
    8c34:	17835102 	strne	r5, [r3, r2, lsl #2]
    8c38:	e1b040c4 	asrs	r4, r4, #1
    8c3c:	e1a05000 	mov	r5, r0
    8c40:	1affffec 	bne	0x8bf8
    8c44:	e1a00005 	mov	r0, r5
    8c48:	e8bd41f0 	pop	{r4, r5, r6, r7, r8, lr}
    8c4c:	e12fff1e 	bx	lr
    8c50:	e1a02006 	mov	r2, r6
    8c54:	e1a01006 	mov	r1, r6
    8c58:	e1a00007 	mov	r0, r7
    8c5c:	ebffff5e 	bl	0x89dc
    8c60:	e5860000 	str	r0, [r6]
    8c64:	e5808000 	str	r8, [r0]
    8c68:	eaffffe5 	b	0x8c04
    8c6c:	e59f2044 	ldr	r2, [pc, #68]	; 0x8cb8
    8c70:	e2433001 	sub	r3, r3, #1
    8c74:	e7922103 	ldr	r2, [r2, r3, lsl #2]
    8c78:	e3a03000 	mov	r3, #0
    8c7c:	ebfffed4 	bl	0x87d4
    8c80:	e1a05000 	mov	r5, r0
    8c84:	eaffffd2 	b	0x8bd4
    8c88:	e3a01001 	mov	r1, #1
    8c8c:	e1a00007 	mov	r0, r7
    8c90:	ebfffea5 	bl	0x872c
    8c94:	e3a01001 	mov	r1, #1
    8c98:	e3a03000 	mov	r3, #0
    8c9c:	e59f2018 	ldr	r2, [pc, #24]	; 0x8cbc
    8ca0:	e5801010 	str	r1, [r0, #16]
    8ca4:	e5802014 	str	r2, [r0, #20]
    8ca8:	e1a06000 	mov	r6, r0
    8cac:	e5870048 	str	r0, [r7, #72]	; 0x48
    8cb0:	e5803000 	str	r3, [r0]
    8cb4:	eaffffcb 	b	0x8be8
    8cb8:	0800a1d8 	stmdaeq	r0, {r3, r4, r6, r7, r8, sp, pc}
    8cbc:	00000271 	andeq	r0, r0, r1, ror r2
    8cc0:	e92d47f0 	push	{r4, r5, r6, r7, r8, r9, sl, lr}
    8cc4:	e5916010 	ldr	r6, [r1, #16]
    8cc8:	e1a082c2 	asr	r8, r2, #5
    8ccc:	e5913008 	ldr	r3, [r1, #8]
    8cd0:	e0886006 	add	r6, r8, r6
    8cd4:	e2864001 	add	r4, r6, #1
    8cd8:	e1540003 	cmp	r4, r3
    8cdc:	e1a05001 	mov	r5, r1
    8ce0:	e1a09002 	mov	r9, r2
    8ce4:	e1a07000 	mov	r7, r0
    8ce8:	e5911004 	ldr	r1, [r1, #4]
    8cec:	da000003 	ble	0x8d00
    8cf0:	e1a03083 	lsl	r3, r3, #1
    8cf4:	e1540003 	cmp	r4, r3
    8cf8:	e2811001 	add	r1, r1, #1
    8cfc:	cafffffb 	bgt	0x8cf0
    8d00:	e1a00007 	mov	r0, r7
    8d04:	ebfffe88 	bl	0x872c
    8d08:	e3580000 	cmp	r8, #0
    8d0c:	e280c014 	add	ip, r0, #20
    8d10:	da000009 	ble	0x8d3c
    8d14:	e1a0300c 	mov	r3, ip
    8d18:	e3a01000 	mov	r1, #0
    8d1c:	e2888005 	add	r8, r8, #5
    8d20:	e1a08108 	lsl	r8, r8, #2
    8d24:	e0802008 	add	r2, r0, r8
    8d28:	e4831004 	str	r1, [r3], #4
    8d2c:	e1530002 	cmp	r3, r2
    8d30:	1afffffc 	bne	0x8d28
    8d34:	e2488014 	sub	r8, r8, #20
    8d38:	e08cc008 	add	ip, ip, r8
    8d3c:	e595e010 	ldr	lr, [r5, #16]
    8d40:	e2853014 	add	r3, r5, #20
    8d44:	e219901f 	ands	r9, r9, #31
    8d48:	e083e10e 	add	lr, r3, lr, lsl #2
    8d4c:	0a000013 	beq	0x8da0
    8d50:	e3a01000 	mov	r1, #0
    8d54:	e2692020 	rsb	r2, r9, #32
    8d58:	e5938000 	ldr	r8, [r3]
    8d5c:	e1811918 	orr	r1, r1, r8, lsl r9
    8d60:	e48c1004 	str	r1, [ip], #4
    8d64:	e4931004 	ldr	r1, [r3], #4
    8d68:	e153000e 	cmp	r3, lr
    8d6c:	e1a01231 	lsr	r1, r1, r2
    8d70:	3afffff8 	bcc	0x8d58
    8d74:	e3510000 	cmp	r1, #0
    8d78:	11a06004 	movne	r6, r4
    8d7c:	e58c1000 	str	r1, [ip]
    8d80:	e597304c 	ldr	r3, [r7, #76]	; 0x4c
    8d84:	e5952004 	ldr	r2, [r5, #4]
    8d88:	e7931102 	ldr	r1, [r3, r2, lsl #2]
    8d8c:	e5806010 	str	r6, [r0, #16]
    8d90:	e5851000 	str	r1, [r5]
    8d94:	e7835102 	str	r5, [r3, r2, lsl #2]
    8d98:	e8bd47f0 	pop	{r4, r5, r6, r7, r8, r9, sl, lr}
    8d9c:	e12fff1e 	bx	lr
    8da0:	e24cc004 	sub	ip, ip, #4
    8da4:	e4932004 	ldr	r2, [r3], #4
    8da8:	e15e0003 	cmp	lr, r3
    8dac:	e5ac2004 	str	r2, [ip, #4]!
    8db0:	8afffffb 	bhi	0x8da4
    8db4:	eafffff1 	b	0x8d80
    8db8:	e52de004 	push	{lr}		; (str lr, [sp, #-4]!)
    8dbc:	e5913010 	ldr	r3, [r1, #16]
    8dc0:	e1a0e000 	mov	lr, r0
    8dc4:	e5900010 	ldr	r0, [r0, #16]
    8dc8:	e0500003 	subs	r0, r0, r3
    8dcc:	1a00000d 	bne	0x8e08
    8dd0:	e1a03103 	lsl	r3, r3, #2
    8dd4:	e28ee014 	add	lr, lr, #20
    8dd8:	e2811014 	add	r1, r1, #20
    8ddc:	e0811003 	add	r1, r1, r3
    8de0:	e08e3003 	add	r3, lr, r3
    8de4:	ea000001 	b	0x8df0
    8de8:	e15e0003 	cmp	lr, r3
    8dec:	2a000005 	bcs	0x8e08
    8df0:	e533c004 	ldr	ip, [r3, #-4]!
    8df4:	e5312004 	ldr	r2, [r1, #-4]!
    8df8:	e15c0002 	cmp	ip, r2
    8dfc:	0afffff9 	beq	0x8de8
    8e00:	23a00001 	movcs	r0, #1
    8e04:	3a000001 	bcc	0x8e10
    8e08:	e49de004 	pop	{lr}		; (ldr lr, [sp], #4)
    8e0c:	e12fff1e 	bx	lr
    8e10:	e3e00000 	mvn	r0, #0
    8e14:	e49de004 	pop	{lr}		; (ldr lr, [sp], #4)
    8e18:	e12fff1e 	bx	lr
    8e1c:	e92d4ff8 	push	{r3, r4, r5, r6, r7, r8, r9, sl, fp, lr}
    8e20:	e1a07001 	mov	r7, r1
    8e24:	e5916010 	ldr	r6, [r1, #16]
    8e28:	e5921010 	ldr	r1, [r2, #16]
    8e2c:	e0466001 	sub	r6, r6, r1
    8e30:	e3560000 	cmp	r6, #0
    8e34:	e1a08002 	mov	r8, r2
    8e38:	e2874014 	add	r4, r7, #20
    8e3c:	e2825014 	add	r5, r2, #20
    8e40:	1a000044 	bne	0x8f58
    8e44:	e1a01101 	lsl	r1, r1, #2
    8e48:	e0843001 	add	r3, r4, r1
    8e4c:	e0851001 	add	r1, r5, r1
    8e50:	ea000001 	b	0x8e5c
    8e54:	e1530004 	cmp	r3, r4
    8e58:	9a000048 	bls	0x8f80
    8e5c:	e533c004 	ldr	ip, [r3, #-4]!
    8e60:	e5312004 	ldr	r2, [r1, #-4]!
    8e64:	e15c0002 	cmp	ip, r2
    8e68:	0afffff9 	beq	0x8e54
    8e6c:	3a00003b 	bcc	0x8f60
    8e70:	e5971004 	ldr	r1, [r7, #4]
    8e74:	ebfffe2c 	bl	0x872c
    8e78:	e5989010 	ldr	r9, [r8, #16]
    8e7c:	e5977010 	ldr	r7, [r7, #16]
    8e80:	e1a0c004 	mov	ip, r4
    8e84:	e580600c 	str	r6, [r0, #12]
    8e88:	e0848107 	add	r8, r4, r7, lsl #2
    8e8c:	e0859109 	add	r9, r5, r9, lsl #2
    8e90:	e2804014 	add	r4, r0, #20
    8e94:	e3a02000 	mov	r2, #0
    8e98:	e59f6100 	ldr	r6, [pc, #256]	; 0x8fa0
    8e9c:	ea000000 	b	0x8ea4
    8ea0:	e1a0400e 	mov	r4, lr
    8ea4:	e1a0e004 	mov	lr, r4
    8ea8:	e49ca004 	ldr	sl, [ip], #4
    8eac:	e4951004 	ldr	r1, [r5], #4
    8eb0:	e00a3006 	and	r3, sl, r6
    8eb4:	e0833002 	add	r3, r3, r2
    8eb8:	e001b006 	and	fp, r1, r6
    8ebc:	e1a02821 	lsr	r2, r1, #16
    8ec0:	e043300b 	sub	r3, r3, fp
    8ec4:	e062282a 	rsb	r2, r2, sl, lsr #16
    8ec8:	e0822843 	add	r2, r2, r3, asr #16
    8ecc:	e0033006 	and	r3, r3, r6
    8ed0:	e1833802 	orr	r3, r3, r2, lsl #16
    8ed4:	e1590005 	cmp	r9, r5
    8ed8:	e1a02842 	asr	r2, r2, #16
    8edc:	e48e3004 	str	r3, [lr], #4
    8ee0:	e1a0100c 	mov	r1, ip
    8ee4:	8affffed 	bhi	0x8ea0
    8ee8:	e158000c 	cmp	r8, ip
    8eec:	9a000010 	bls	0x8f34
    8ef0:	e1a0500e 	mov	r5, lr
    8ef4:	e59f40a4 	ldr	r4, [pc, #164]	; 0x8fa0
    8ef8:	e4916004 	ldr	r6, [r1], #4
    8efc:	e0063004 	and	r3, r6, r4
    8f00:	e0833002 	add	r3, r3, r2
    8f04:	e1a02843 	asr	r2, r3, #16
    8f08:	e0822826 	add	r2, r2, r6, lsr #16
    8f0c:	e0033004 	and	r3, r3, r4
    8f10:	e1833802 	orr	r3, r3, r2, lsl #16
    8f14:	e1580001 	cmp	r8, r1
    8f18:	e4853004 	str	r3, [r5], #4
    8f1c:	e1a02842 	asr	r2, r2, #16
    8f20:	8afffff4 	bhi	0x8ef8
    8f24:	e2484001 	sub	r4, r8, #1
    8f28:	e044400c 	sub	r4, r4, ip
    8f2c:	e3c44003 	bic	r4, r4, #3
    8f30:	e08e4004 	add	r4, lr, r4
    8f34:	e3530000 	cmp	r3, #0
    8f38:	1a000003 	bne	0x8f4c
    8f3c:	e5343004 	ldr	r3, [r4, #-4]!
    8f40:	e3530000 	cmp	r3, #0
    8f44:	e2477001 	sub	r7, r7, #1
    8f48:	0afffffb 	beq	0x8f3c
    8f4c:	e5807010 	str	r7, [r0, #16]
    8f50:	e8bd4ff8 	pop	{r3, r4, r5, r6, r7, r8, r9, sl, fp, lr}
    8f54:	e12fff1e 	bx	lr
    8f58:	a3a06000 	movge	r6, #0
    8f5c:	aaffffc3 	bge	0x8e70
    8f60:	e1a02004 	mov	r2, r4
    8f64:	e1a03007 	mov	r3, r7
    8f68:	e1a04005 	mov	r4, r5
    8f6c:	e1a07008 	mov	r7, r8
    8f70:	e1a05002 	mov	r5, r2
    8f74:	e1a08003 	mov	r8, r3
    8f78:	e3a06001 	mov	r6, #1
    8f7c:	eaffffbb 	b	0x8e70
    8f80:	e3a01000 	mov	r1, #0
    8f84:	ebfffde8 	bl	0x872c
    8f88:	e3a03000 	mov	r3, #0
    8f8c:	e3a02001 	mov	r2, #1
    8f90:	e5803014 	str	r3, [r0, #20]
    8f94:	e5802010 	str	r2, [r0, #16]
    8f98:	e8bd4ff8 	pop	{r3, r4, r5, r6, r7, r8, r9, sl, fp, lr}
    8f9c:	e12fff1e 	bx	lr
    8fa0:	0000ffff 			; <UNDEFINED> instruction: 0x0000ffff
    8fa4:	e92d41f0 	push	{r4, r5, r6, r7, r8, lr}
    8fa8:	e1a04003 	mov	r4, r3
    8fac:	e24dd008 	sub	sp, sp, #8
    8fb0:	e1a08002 	mov	r8, r2
    8fb4:	e3a01001 	mov	r1, #1
    8fb8:	e59d6020 	ldr	r6, [sp, #32]
    8fbc:	e59d5024 	ldr	r5, [sp, #36]	; 0x24
    8fc0:	ebfffdd9 	bl	0x872c
    8fc4:	e59f20e8 	ldr	r2, [pc, #232]	; 0x90b4
    8fc8:	e3c414ff 	bic	r1, r4, #-16777216	; 0xff000000
    8fcc:	e3c1160f 	bic	r1, r1, #15728640	; 0xf00000
    8fd0:	e0124a24 	ands	r4, r2, r4, lsr #20
    8fd4:	13811601 	orrne	r1, r1, #1048576	; 0x100000
    8fd8:	e3580000 	cmp	r8, #0
    8fdc:	e1a07000 	mov	r7, r0
    8fe0:	e58d1004 	str	r1, [sp, #4]
    8fe4:	0a000029 	beq	0x9090
    8fe8:	e1a0000d 	mov	r0, sp
    8fec:	e58d8000 	str	r8, [sp]
    8ff0:	ebfffe48 	bl	0x8918
    8ff4:	e3500000 	cmp	r0, #0
    8ff8:	059d3000 	ldreq	r3, [sp]
    8ffc:	189d000c 	ldmne	sp, {r2, r3}
    9000:	12601020 	rsbne	r1, r0, #32
    9004:	05873014 	streq	r3, [r7, #20]
    9008:	059d3004 	ldreq	r3, [sp, #4]
    900c:	11822113 	orrne	r2, r2, r3, lsl r1
    9010:	11a03033 	lsrne	r3, r3, r0
    9014:	15872014 	strne	r2, [r7, #20]
    9018:	158d3004 	strne	r3, [sp, #4]
    901c:	e3530000 	cmp	r3, #0
    9020:	13a01002 	movne	r1, #2
    9024:	03a01001 	moveq	r1, #1
    9028:	e5873018 	str	r3, [r7, #24]
    902c:	e5871010 	str	r1, [r7, #16]
    9030:	e3540000 	cmp	r4, #0
    9034:	0a000009 	beq	0x9060
    9038:	e2443e43 	sub	r3, r4, #1072	; 0x430
    903c:	e2433003 	sub	r3, r3, #3
    9040:	e0833000 	add	r3, r3, r0
    9044:	e2600035 	rsb	r0, r0, #53	; 0x35
    9048:	e5863000 	str	r3, [r6]
    904c:	e5850000 	str	r0, [r5]
    9050:	e1a00007 	mov	r0, r7
    9054:	e28dd008 	add	sp, sp, #8
    9058:	e8bd41f0 	pop	{r4, r5, r6, r7, r8, lr}
    905c:	e12fff1e 	bx	lr
    9060:	e2400e43 	sub	r0, r0, #1072	; 0x430
    9064:	e0873101 	add	r3, r7, r1, lsl #2
    9068:	e2400002 	sub	r0, r0, #2
    906c:	e5860000 	str	r0, [r6]
    9070:	e5930010 	ldr	r0, [r3, #16]
    9074:	ebfffe11 	bl	0x88c0
    9078:	e0600281 	rsb	r0, r0, r1, lsl #5
    907c:	e5850000 	str	r0, [r5]
    9080:	e1a00007 	mov	r0, r7
    9084:	e28dd008 	add	sp, sp, #8
    9088:	e8bd41f0 	pop	{r4, r5, r6, r7, r8, lr}
    908c:	e12fff1e 	bx	lr
    9090:	e28d0004 	add	r0, sp, #4
    9094:	ebfffe1f 	bl	0x8918
    9098:	e3a03001 	mov	r3, #1
    909c:	e59d2004 	ldr	r2, [sp, #4]
    90a0:	e1a01003 	mov	r1, r3
    90a4:	e5873010 	str	r3, [r7, #16]
    90a8:	e5872014 	str	r2, [r7, #20]
    90ac:	e2800020 	add	r0, r0, #32
    90b0:	eaffffde 	b	0x9030
    90b4:	000007ff 			; <UNDEFINED> instruction: 0x000007ff
    90b8:	e92d4070 	push	{r4, r5, r6, lr}
    90bc:	e1a06002 	mov	r6, r2
    90c0:	e3a02000 	mov	r2, #0
    90c4:	e59fe084 	ldr	lr, [pc, #132]	; 0x9150
    90c8:	e3c13102 	bic	r3, r1, #-2147483648	; 0x80000000
    90cc:	e153000e 	cmp	r3, lr
    90d0:	e1a04000 	mov	r4, r0
    90d4:	e1a05001 	mov	r5, r1
    90d8:	e5862000 	str	r2, [r6]
    90dc:	ca000017 	bgt	0x9140
    90e0:	e1a0e000 	mov	lr, r0
    90e4:	e193e00e 	orrs	lr, r3, lr
    90e8:	0a000014 	beq	0x9140
    90ec:	e59fe060 	ldr	lr, [pc, #96]	; 0x9154
    90f0:	e00ee001 	and	lr, lr, r1
    90f4:	e15e0002 	cmp	lr, r2
    90f8:	e1a0c001 	mov	ip, r1
    90fc:	1a000006 	bne	0x911c
    9100:	e3a02000 	mov	r2, #0
    9104:	e59f304c 	ldr	r3, [pc, #76]	; 0x9158
    9108:	ebffe0c0 	bl	0x1410
    910c:	e3e02035 	mvn	r2, #53	; 0x35
    9110:	e1a04000 	mov	r4, r0
    9114:	e1a0c001 	mov	ip, r1
    9118:	e3c13102 	bic	r3, r1, #-2147483648	; 0x80000000
    911c:	e1a03a43 	asr	r3, r3, #20
    9120:	e2433fff 	sub	r3, r3, #1020	; 0x3fc
    9124:	e3ccc47f 	bic	ip, ip, #2130706432	; 0x7f000000
    9128:	e2433002 	sub	r3, r3, #2
    912c:	e3ccc60f 	bic	ip, ip, #15728640	; 0xf00000
    9130:	e0833002 	add	r3, r3, r2
    9134:	e38c55ff 	orr	r5, ip, #1069547520	; 0x3fc00000
    9138:	e5863000 	str	r3, [r6]
    913c:	e3855602 	orr	r5, r5, #2097152	; 0x200000
    9140:	e1a00004 	mov	r0, r4
    9144:	e1a01005 	mov	r1, r5
    9148:	e8bd4070 	pop	{r4, r5, r6, lr}
    914c:	e12fff1e 	bx	lr
    9150:	7fefffff 	svcvc	0x00efffff
    9154:	7ff00000 	svcvc	0x00f00000	; IMB
    9158:	43500000 	cmpmi	r0, #0
    915c:	e3c01003 	bic	r1, r0, #3
    9160:	e2100003 	ands	r0, r0, #3
    9164:	e2600000 	rsb	r0, r0, #0
    9168:	e4913004 	ldr	r3, [r1], #4
    916c:	e280c004 	add	ip, r0, #4
    9170:	e1a0c18c 	lsl	ip, ip, #3
    9174:	e3e02000 	mvn	r2, #0
    9178:	11833c32 	orrne	r3, r3, r2, lsr ip
    917c:	e3a0c001 	mov	ip, #1
    9180:	e18cc40c 	orr	ip, ip, ip, lsl #8
    9184:	e18cc80c 	orr	ip, ip, ip, lsl #16
    9188:	e043200c 	sub	r2, r3, ip
    918c:	e1c22003 	bic	r2, r2, r3
    9190:	e012238c 	ands	r2, r2, ip, lsl #7
    9194:	04913004 	ldreq	r3, [r1], #4
    9198:	02800004 	addeq	r0, r0, #4
    919c:	0afffff9 	beq	0x9188
    91a0:	e31300ff 	tst	r3, #255	; 0xff
    91a4:	12800001 	addne	r0, r0, #1
    91a8:	13130cff 	tstne	r3, #65280	; 0xff00
    91ac:	12800001 	addne	r0, r0, #1
    91b0:	131308ff 	tstne	r3, #16711680	; 0xff0000
    91b4:	12800001 	addne	r0, r0, #1
    91b8:	e12fff1e 	bx	lr
    91bc:	e1803001 	orr	r3, r0, r1
    91c0:	e3520003 	cmp	r2, #3
    91c4:	e2033003 	and	r3, r3, #3
    91c8:	93a0c000 	movls	ip, #0
    91cc:	83a0c001 	movhi	ip, #1
    91d0:	e3530000 	cmp	r3, #0
    91d4:	13a0c000 	movne	ip, #0
    91d8:	e35c0000 	cmp	ip, #0
    91dc:	e92d4070 	push	{r4, r5, r6, lr}
    91e0:	01a04000 	moveq	r4, r0
    91e4:	1a00001c 	bne	0x925c
    91e8:	e3520000 	cmp	r2, #0
    91ec:	0a00000f 	beq	0x9230
    91f0:	e1a03004 	mov	r3, r4
    91f4:	e5d1c000 	ldrb	ip, [r1]
    91f8:	e35c0000 	cmp	ip, #0
    91fc:	e4c3c001 	strb	ip, [r3], #1
    9200:	e242e001 	sub	lr, r2, #1
    9204:	0a00000b 	beq	0x9238
    9208:	e0842002 	add	r2, r4, r2
    920c:	e084400e 	add	r4, r4, lr
    9210:	ea000004 	b	0x9228
    9214:	e5f1c001 	ldrb	ip, [r1, #1]!
    9218:	e35c0000 	cmp	ip, #0
    921c:	e044e003 	sub	lr, r4, r3
    9220:	e4c3c001 	strb	ip, [r3], #1
    9224:	0a000003 	beq	0x9238
    9228:	e1520003 	cmp	r2, r3
    922c:	1afffff8 	bne	0x9214
    9230:	e8bd4070 	pop	{r4, r5, r6, lr}
    9234:	e12fff1e 	bx	lr
    9238:	e35e0000 	cmp	lr, #0
    923c:	13a02000 	movne	r2, #0
    9240:	1083e00e 	addne	lr, r3, lr
    9244:	0afffff9 	beq	0x9230
    9248:	e4c32001 	strb	r2, [r3], #1
    924c:	e153000e 	cmp	r3, lr
    9250:	1afffffc 	bne	0x9248
    9254:	e8bd4070 	pop	{r4, r5, r6, lr}
    9258:	e12fff1e 	bx	lr
    925c:	e1a03001 	mov	r3, r1
    9260:	e1a04000 	mov	r4, r0
    9264:	e59f6030 	ldr	r6, [pc, #48]	; 0x929c
    9268:	e59f5030 	ldr	r5, [pc, #48]	; 0x92a0
    926c:	e1a01003 	mov	r1, r3
    9270:	e493e004 	ldr	lr, [r3], #4
    9274:	e08ec006 	add	ip, lr, r6
    9278:	e1ccc00e 	bic	ip, ip, lr
    927c:	e11c0005 	tst	ip, r5
    9280:	1affffda 	bne	0x91f0
    9284:	e2422004 	sub	r2, r2, #4
    9288:	e3520003 	cmp	r2, #3
    928c:	e484e004 	str	lr, [r4], #4
    9290:	e1a01003 	mov	r1, r3
    9294:	8afffff4 	bhi	0x926c
    9298:	eaffffd2 	b	0x91e8
    929c:	fefefeff 			; <UNDEFINED> instruction: 0xfefefeff
    92a0:	80808080 	addhi	r8, r0, r0, lsl #1
    92a4:	e92d4ff7 	push	{r0, r1, r2, r4, r5, r6, r7, r8, r9, sl, fp, lr}
    92a8:	e1a0b002 	mov	fp, r2
    92ac:	e5922008 	ldr	r2, [r2, #8]
    92b0:	e3520000 	cmp	r2, #0
    92b4:	0a000020 	beq	0x933c
    92b8:	e3a03000 	mov	r3, #0
    92bc:	e1a09000 	mov	r9, r0
    92c0:	e1a04001 	mov	r4, r1
    92c4:	e59ba000 	ldr	sl, [fp]
    92c8:	e58d3004 	str	r3, [sp, #4]
    92cc:	e1a06003 	mov	r6, r3
    92d0:	ea000003 	b	0x92e4
    92d4:	e59a3000 	ldr	r3, [sl]
    92d8:	e58d3004 	str	r3, [sp, #4]
    92dc:	e59a6004 	ldr	r6, [sl, #4]
    92e0:	e28aa008 	add	sl, sl, #8
    92e4:	e3560000 	cmp	r6, #0
    92e8:	0afffff9 	beq	0x92d4
    92ec:	e5947008 	ldr	r7, [r4, #8]
    92f0:	e1560007 	cmp	r6, r7
    92f4:	2a000013 	bcs	0x9348
    92f8:	e1570006 	cmp	r7, r6
    92fc:	21a07006 	movcs	r7, r6
    9300:	e59d1004 	ldr	r1, [sp, #4]
    9304:	e1a02007 	mov	r2, r7
    9308:	e5940000 	ldr	r0, [r4]
    930c:	eb000128 	bl	0x97b4
    9310:	e5942008 	ldr	r2, [r4, #8]
    9314:	e0422007 	sub	r2, r2, r7
    9318:	e5842008 	str	r2, [r4, #8]
    931c:	e5942000 	ldr	r2, [r4]
    9320:	e0827007 	add	r7, r2, r7
    9324:	e59b2008 	ldr	r2, [fp, #8]
    9328:	e0426006 	sub	r6, r2, r6
    932c:	e3560000 	cmp	r6, #0
    9330:	e5847000 	str	r7, [r4]
    9334:	e58b6008 	str	r6, [fp, #8]
    9338:	1affffe5 	bne	0x92d4
    933c:	e3a00000 	mov	r0, #0
    9340:	e58b0004 	str	r0, [fp, #4]
    9344:	ea000036 	b	0x9424
    9348:	e1d420bc 	ldrh	r2, [r4, #12]
    934c:	e3120d12 	tst	r2, #1152	; 0x480
    9350:	0affffe8 	beq	0x92f8
    9354:	e5941010 	ldr	r1, [r4, #16]
    9358:	e5948000 	ldr	r8, [r4]
    935c:	e5945014 	ldr	r5, [r4, #20]
    9360:	e0488001 	sub	r8, r8, r1
    9364:	e0855085 	add	r5, r5, r5, lsl #1
    9368:	e0855fa5 	add	r5, r5, r5, lsr #31
    936c:	e2880001 	add	r0, r8, #1
    9370:	e1a050c5 	asr	r5, r5, #1
    9374:	e0800006 	add	r0, r0, r6
    9378:	e1550000 	cmp	r5, r0
    937c:	31a05000 	movcc	r5, r0
    9380:	e3120b01 	tst	r2, #1024	; 0x400
    9384:	0a00000c 	beq	0x93bc
    9388:	e1a01005 	mov	r1, r5
    938c:	e1a00009 	mov	r0, r9
    9390:	ebfff9ab 	bl	0x7a44
    9394:	e2507000 	subs	r7, r0, #0
    9398:	0a00000f 	beq	0x93dc
    939c:	e1a02008 	mov	r2, r8
    93a0:	e5941010 	ldr	r1, [r4, #16]
    93a4:	ebffe26a 	bl	0x1d54
    93a8:	e1d420bc 	ldrh	r2, [r4, #12]
    93ac:	e3c22d12 	bic	r2, r2, #1152	; 0x480
    93b0:	e3822080 	orr	r2, r2, #128	; 0x80
    93b4:	e1c420bc 	strh	r2, [r4, #12]
    93b8:	ea000011 	b	0x9404
    93bc:	e1a02005 	mov	r2, r5
    93c0:	e1a00009 	mov	r0, r9
    93c4:	eb000150 	bl	0x990c
    93c8:	e2507000 	subs	r7, r0, #0
    93cc:	1a00000c 	bne	0x9404
    93d0:	e5941010 	ldr	r1, [r4, #16]
    93d4:	e1a00009 	mov	r0, r9
    93d8:	ebfff8cd 	bl	0x7714
    93dc:	e3a0200c 	mov	r2, #12
    93e0:	e5892000 	str	r2, [r9]
    93e4:	e1d420bc 	ldrh	r2, [r4, #12]
    93e8:	e3822040 	orr	r2, r2, #64	; 0x40
    93ec:	e1c420bc 	strh	r2, [r4, #12]
    93f0:	e3a02000 	mov	r2, #0
    93f4:	e3e00000 	mvn	r0, #0
    93f8:	e58b2008 	str	r2, [fp, #8]
    93fc:	e58b2004 	str	r2, [fp, #4]
    9400:	ea000007 	b	0x9424
    9404:	e5847010 	str	r7, [r4, #16]
    9408:	e5845014 	str	r5, [r4, #20]
    940c:	e0877008 	add	r7, r7, r8
    9410:	e0455008 	sub	r5, r5, r8
    9414:	e5847000 	str	r7, [r4]
    9418:	e5845008 	str	r5, [r4, #8]
    941c:	e1a07006 	mov	r7, r6
    9420:	eaffffb4 	b	0x92f8
    9424:	e28dd00c 	add	sp, sp, #12
    9428:	e8bd4ff0 	pop	{r4, r5, r6, r7, r8, r9, sl, fp, lr}
    942c:	e12fff1e 	bx	lr
    9430:	e92d4ff0 	push	{r4, r5, r6, r7, r8, r9, sl, fp, lr}
    9434:	e24dd024 	sub	sp, sp, #36	; 0x24
    9438:	e59d404c 	ldr	r4, [sp, #76]	; 0x4c
    943c:	e3540000 	cmp	r4, #0
    9440:	02804f47 	addeq	r4, r0, #284	; 0x11c
    9444:	e3510000 	cmp	r1, #0
    9448:	e59d8048 	ldr	r8, [sp, #72]	; 0x48
    944c:	e59d9050 	ldr	r9, [sp, #80]	; 0x50
    9450:	e5926000 	ldr	r6, [r2]
    9454:	0a000048 	beq	0x957c
    9458:	e3580000 	cmp	r8, #0
    945c:	0a000052 	beq	0x95ac
    9460:	e3530000 	cmp	r3, #0
    9464:	e2435001 	sub	r5, r3, #1
    9468:	0a000051 	beq	0x95b4
    946c:	e58d200c 	str	r2, [sp, #12]
    9470:	e88d0003 	stm	sp, {r0, r1}
    9474:	e58d1008 	str	r1, [sp, #8]
    9478:	e3a07000 	mov	r7, #0
    947c:	e2466004 	sub	r6, r6, #4
    9480:	ea00000b 	b	0x94b4
    9484:	e59d3004 	ldr	r3, [sp, #4]
    9488:	e3530000 	cmp	r3, #0
    948c:	1a00001c 	bne	0x9504
    9490:	e5963000 	ldr	r3, [r6]
    9494:	e3530000 	cmp	r3, #0
    9498:	0a00002c 	beq	0x9550
    949c:	e1510008 	cmp	r1, r8
    94a0:	2a000045 	bcs	0x95bc
    94a4:	e2455001 	sub	r5, r5, #1
    94a8:	e3750001 	cmn	r5, #1
    94ac:	e1a07001 	mov	r7, r1
    94b0:	0a00000f 	beq	0x94f4
    94b4:	e1a03004 	mov	r3, r4
    94b8:	e5b62004 	ldr	r2, [r6, #4]!
    94bc:	e28d1014 	add	r1, sp, #20
    94c0:	e59d0000 	ldr	r0, [sp]
    94c4:	e599c0e0 	ldr	ip, [r9, #224]	; 0xe0
    94c8:	e594b000 	ldr	fp, [r4]
    94cc:	e594a004 	ldr	sl, [r4, #4]
    94d0:	e1a0e00f 	mov	lr, pc
    94d4:	e12fff1c 	bx	ip
    94d8:	e3700001 	cmn	r0, #1
    94dc:	0a000028 	beq	0x9584
    94e0:	e0801007 	add	r1, r0, r7
    94e4:	e1510008 	cmp	r1, r8
    94e8:	9affffe5 	bls	0x9484
    94ec:	e584b000 	str	fp, [r4]
    94f0:	e584a004 	str	sl, [r4, #4]
    94f4:	e1a00007 	mov	r0, r7
    94f8:	e28dd024 	add	sp, sp, #36	; 0x24
    94fc:	e8bd4ff0 	pop	{r4, r5, r6, r7, r8, r9, sl, fp, lr}
    9500:	e12fff1e 	bx	lr
    9504:	e3500000 	cmp	r0, #0
    9508:	da000009 	ble	0x9534
    950c:	e59d3008 	ldr	r3, [sp, #8]
    9510:	e0830000 	add	r0, r3, r0
    9514:	e240e001 	sub	lr, r0, #1
    9518:	e2433001 	sub	r3, r3, #1
    951c:	e28d2013 	add	r2, sp, #19
    9520:	e5f2c001 	ldrb	ip, [r2, #1]!
    9524:	e5e3c001 	strb	ip, [r3, #1]!
    9528:	e153000e 	cmp	r3, lr
    952c:	1afffffb 	bne	0x9520
    9530:	e58d0008 	str	r0, [sp, #8]
    9534:	e59d200c 	ldr	r2, [sp, #12]
    9538:	e5923000 	ldr	r3, [r2]
    953c:	e2833004 	add	r3, r3, #4
    9540:	e5823000 	str	r3, [r2]
    9544:	e5963000 	ldr	r3, [r6]
    9548:	e3530000 	cmp	r3, #0
    954c:	1affffd2 	bne	0x949c
    9550:	e59d2004 	ldr	r2, [sp, #4]
    9554:	e3520000 	cmp	r2, #0
    9558:	159d200c 	ldrne	r2, [sp, #12]
    955c:	e2417001 	sub	r7, r1, #1
    9560:	15823000 	strne	r3, [r2]
    9564:	e1a00007 	mov	r0, r7
    9568:	e3a03000 	mov	r3, #0
    956c:	e5843000 	str	r3, [r4]
    9570:	e28dd024 	add	sp, sp, #36	; 0x24
    9574:	e8bd4ff0 	pop	{r4, r5, r6, r7, r8, r9, sl, fp, lr}
    9578:	e12fff1e 	bx	lr
    957c:	e3e08000 	mvn	r8, #0
    9580:	eaffffb6 	b	0x9460
    9584:	e1a07000 	mov	r7, r0
    9588:	e3a0208a 	mov	r2, #138	; 0x8a
    958c:	e3a03000 	mov	r3, #0
    9590:	e1a00007 	mov	r0, r7
    9594:	e59d1000 	ldr	r1, [sp]
    9598:	e5812000 	str	r2, [r1]
    959c:	e5843000 	str	r3, [r4]
    95a0:	e28dd024 	add	sp, sp, #36	; 0x24
    95a4:	e8bd4ff0 	pop	{r4, r5, r6, r7, r8, r9, sl, fp, lr}
    95a8:	e12fff1e 	bx	lr
    95ac:	e1a07008 	mov	r7, r8
    95b0:	eaffffcf 	b	0x94f4
    95b4:	e1a07003 	mov	r7, r3
    95b8:	eaffffcd 	b	0x94f4
    95bc:	e1a07001 	mov	r7, r1
    95c0:	eaffffcb 	b	0x94f4
    95c4:	e92d43f0 	push	{r4, r5, r6, r7, r8, r9, lr}
    95c8:	e24dd014 	sub	sp, sp, #20
    95cc:	e1a07003 	mov	r7, r3
    95d0:	e1a05001 	mov	r5, r1
    95d4:	e1a06002 	mov	r6, r2
    95d8:	e59d9030 	ldr	r9, [sp, #48]	; 0x30
    95dc:	e59d8034 	ldr	r8, [sp, #52]	; 0x34
    95e0:	eb000229 	bl	0x9e8c
    95e4:	e1a04000 	mov	r4, r0
    95e8:	eb000227 	bl	0x9e8c
    95ec:	e590c034 	ldr	ip, [r0, #52]	; 0x34
    95f0:	e59f3030 	ldr	r3, [pc, #48]	; 0x9628
    95f4:	e35c0000 	cmp	ip, #0
    95f8:	01a0c003 	moveq	ip, r3
    95fc:	e58d9000 	str	r9, [sp]
    9600:	e58d8004 	str	r8, [sp, #4]
    9604:	e1a03007 	mov	r3, r7
    9608:	e1a02006 	mov	r2, r6
    960c:	e1a01005 	mov	r1, r5
    9610:	e1a00004 	mov	r0, r4
    9614:	e58dc008 	str	ip, [sp, #8]
    9618:	ebffff84 	bl	0x9430
    961c:	e28dd014 	add	sp, sp, #20
    9620:	e8bd43f0 	pop	{r4, r5, r6, r7, r8, r9, lr}
    9624:	e12fff1e 	bx	lr
    9628:	030001ec 	tsteq	r0, #236, 2	; 0x3b
    962c:	e3510000 	cmp	r1, #0
    9630:	0a000026 	beq	0x96d0
    9634:	e352007f 	cmp	r2, #127	; 0x7f
    9638:	95c12000 	strbls	r2, [r1]
    963c:	93a01001 	movls	r1, #1
    9640:	9a000022 	bls	0x96d0
    9644:	e2423080 	sub	r3, r2, #128	; 0x80
    9648:	e3530d1e 	cmp	r3, #1920	; 0x780
    964c:	3a000017 	bcc	0x96b0
    9650:	e2423b02 	sub	r3, r2, #2048	; 0x800
    9654:	e3530b3e 	cmp	r3, #63488	; 0xf800
    9658:	e52de004 	push	{lr}		; (str lr, [sp, #-4]!)
    965c:	3a00001d 	bcc	0x96d8
    9660:	e2423801 	sub	r3, r2, #65536	; 0x10000
    9664:	e3530601 	cmp	r3, #1048576	; 0x100000
    9668:	2a000026 	bcs	0x9708
    966c:	e3e0e00f 	mvn	lr, #15
    9670:	e3e0307f 	mvn	r3, #127	; 0x7f
    9674:	e1a0c702 	lsl	ip, r2, #14
    9678:	e1a00a02 	lsl	r0, r2, #20
    967c:	e18ee922 	orr	lr, lr, r2, lsr #18
    9680:	e202203f 	and	r2, r2, #63	; 0x3f
    9684:	e183cd2c 	orr	ip, r3, ip, lsr #26
    9688:	e1830d20 	orr	r0, r3, r0, lsr #26
    968c:	e1832002 	orr	r2, r3, r2
    9690:	e5c1e000 	strb	lr, [r1]
    9694:	e5c1c001 	strb	ip, [r1, #1]
    9698:	e5c10002 	strb	r0, [r1, #2]
    969c:	e5c12003 	strb	r2, [r1, #3]
    96a0:	e3a01004 	mov	r1, #4
    96a4:	e1a00001 	mov	r0, r1
    96a8:	e49de004 	pop	{lr}		; (ldr lr, [sp], #4)
    96ac:	e12fff1e 	bx	lr
    96b0:	e202303f 	and	r3, r2, #63	; 0x3f
    96b4:	e1e03c83 	mvn	r3, r3, lsl #25
    96b8:	e3e0003f 	mvn	r0, #63	; 0x3f
    96bc:	e1e03ca3 	mvn	r3, r3, lsr #25
    96c0:	e1802322 	orr	r2, r0, r2, lsr #6
    96c4:	e5c13001 	strb	r3, [r1, #1]
    96c8:	e5c12000 	strb	r2, [r1]
    96cc:	e3a01002 	mov	r1, #2
    96d0:	e1a00001 	mov	r0, r1
    96d4:	e12fff1e 	bx	lr
    96d8:	e3e0307f 	mvn	r3, #127	; 0x7f
    96dc:	e3e0c01f 	mvn	ip, #31
    96e0:	e1a00a02 	lsl	r0, r2, #20
    96e4:	e202e03f 	and	lr, r2, #63	; 0x3f
    96e8:	e1830d20 	orr	r0, r3, r0, lsr #26
    96ec:	e18c2622 	orr	r2, ip, r2, lsr #12
    96f0:	e183300e 	orr	r3, r3, lr
    96f4:	e5c12000 	strb	r2, [r1]
    96f8:	e5c10001 	strb	r0, [r1, #1]
    96fc:	e5c13002 	strb	r3, [r1, #2]
    9700:	e3a01003 	mov	r1, #3
    9704:	eaffffe6 	b	0x96a4
    9708:	e3a0308a 	mov	r3, #138	; 0x8a
    970c:	e3e01000 	mvn	r1, #0
    9710:	e5803000 	str	r3, [r0]
    9714:	eaffffe2 	b	0x96a4
    9718:	e92d4010 	push	{r4, lr}
    971c:	e0010192 	mul	r1, r2, r1
    9720:	ebfff8c7 	bl	0x7a44
    9724:	e2504000 	subs	r4, r0, #0
    9728:	0a00000b 	beq	0x975c
    972c:	e5142004 	ldr	r2, [r4, #-4]
    9730:	e3c22003 	bic	r2, r2, #3
    9734:	e2422004 	sub	r2, r2, #4
    9738:	e3520024 	cmp	r2, #36	; 0x24
    973c:	8a000017 	bhi	0x97a0
    9740:	e3520013 	cmp	r2, #19
    9744:	91a02004 	movls	r2, r4
    9748:	8a000006 	bhi	0x9768
    974c:	e3a03000 	mov	r3, #0
    9750:	e5823000 	str	r3, [r2]
    9754:	e5823004 	str	r3, [r2, #4]
    9758:	e5823008 	str	r3, [r2, #8]
    975c:	e1a00004 	mov	r0, r4
    9760:	e8bd4010 	pop	{r4, lr}
    9764:	e12fff1e 	bx	lr
    9768:	e3a03000 	mov	r3, #0
    976c:	e352001b 	cmp	r2, #27
    9770:	e5843000 	str	r3, [r4]
    9774:	e5843004 	str	r3, [r4, #4]
    9778:	92842008 	addls	r2, r4, #8
    977c:	9afffff2 	bls	0x974c
    9780:	e3520024 	cmp	r2, #36	; 0x24
    9784:	e5843008 	str	r3, [r4, #8]
    9788:	e584300c 	str	r3, [r4, #12]
    978c:	12842010 	addne	r2, r4, #16
    9790:	05843010 	streq	r3, [r4, #16]
    9794:	05843014 	streq	r3, [r4, #20]
    9798:	02842018 	addeq	r2, r4, #24
    979c:	eaffffea 	b	0x974c
    97a0:	e3a01000 	mov	r1, #0
    97a4:	ebfffb8e 	bl	0x85e4
    97a8:	e1a00004 	mov	r0, r4
    97ac:	e8bd4010 	pop	{r4, lr}
    97b0:	e12fff1e 	bx	lr
    97b4:	e1500001 	cmp	r0, r1
    97b8:	9a00000a 	bls	0x97e8
    97bc:	e0813002 	add	r3, r1, r2
    97c0:	e1530000 	cmp	r3, r0
    97c4:	9a000007 	bls	0x97e8
    97c8:	e3520000 	cmp	r2, #0
    97cc:	e0802002 	add	r2, r0, r2
    97d0:	012fff1e 	bxeq	lr
    97d4:	e573c001 	ldrb	ip, [r3, #-1]!
    97d8:	e1510003 	cmp	r1, r3
    97dc:	e562c001 	strb	ip, [r2, #-1]!
    97e0:	1afffffb 	bne	0x97d4
    97e4:	e12fff1e 	bx	lr
    97e8:	e352000f 	cmp	r2, #15
    97ec:	8a00000b 	bhi	0x9820
    97f0:	e3520000 	cmp	r2, #0
    97f4:	e1a0c000 	mov	ip, r0
    97f8:	e2422001 	sub	r2, r2, #1
    97fc:	012fff1e 	bxeq	lr
    9800:	e2822001 	add	r2, r2, #1
    9804:	e0813002 	add	r3, r1, r2
    9808:	e24c2001 	sub	r2, ip, #1
    980c:	e4d1c001 	ldrb	ip, [r1], #1
    9810:	e1510003 	cmp	r1, r3
    9814:	e5e2c001 	strb	ip, [r2, #1]!
    9818:	1afffffb 	bne	0x980c
    981c:	e12fff1e 	bx	lr
    9820:	e1803001 	orr	r3, r0, r1
    9824:	e3130003 	tst	r3, #3
    9828:	1a000034 	bne	0x9900
    982c:	e92d4070 	push	{r4, r5, r6, lr}
    9830:	e2425010 	sub	r5, r2, #16
    9834:	e1a05225 	lsr	r5, r5, #4
    9838:	e2814020 	add	r4, r1, #32
    983c:	e0844205 	add	r4, r4, r5, lsl #4
    9840:	e2813010 	add	r3, r1, #16
    9844:	e280c010 	add	ip, r0, #16
    9848:	e513e010 	ldr	lr, [r3, #-16]
    984c:	e50ce010 	str	lr, [ip, #-16]
    9850:	e513e00c 	ldr	lr, [r3, #-12]
    9854:	e50ce00c 	str	lr, [ip, #-12]
    9858:	e513e008 	ldr	lr, [r3, #-8]
    985c:	e50ce008 	str	lr, [ip, #-8]
    9860:	e2833010 	add	r3, r3, #16
    9864:	e513e014 	ldr	lr, [r3, #-20]	; 0xffffffec
    9868:	e1530004 	cmp	r3, r4
    986c:	e50ce004 	str	lr, [ip, #-4]
    9870:	e28cc010 	add	ip, ip, #16
    9874:	1afffff3 	bne	0x9848
    9878:	e285c001 	add	ip, r5, #1
    987c:	e1a0c20c 	lsl	ip, ip, #4
    9880:	e312000c 	tst	r2, #12
    9884:	e202e00f 	and	lr, r2, #15
    9888:	e081100c 	add	r1, r1, ip
    988c:	01a0200e 	moveq	r2, lr
    9890:	e080c00c 	add	ip, r0, ip
    9894:	0a00000d 	beq	0x98d0
    9898:	e1a04001 	mov	r4, r1
    989c:	e24ee004 	sub	lr, lr, #4
    98a0:	e1a0e12e 	lsr	lr, lr, #2
    98a4:	e08c610e 	add	r6, ip, lr, lsl #2
    98a8:	e24c3004 	sub	r3, ip, #4
    98ac:	e4945004 	ldr	r5, [r4], #4
    98b0:	e5a35004 	str	r5, [r3, #4]!
    98b4:	e1530006 	cmp	r3, r6
    98b8:	1afffffb 	bne	0x98ac
    98bc:	e28ee001 	add	lr, lr, #1
    98c0:	e1a0e10e 	lsl	lr, lr, #2
    98c4:	e08cc00e 	add	ip, ip, lr
    98c8:	e081100e 	add	r1, r1, lr
    98cc:	e2022003 	and	r2, r2, #3
    98d0:	e3520000 	cmp	r2, #0
    98d4:	e2422001 	sub	r2, r2, #1
    98d8:	12822001 	addne	r2, r2, #1
    98dc:	10813002 	addne	r3, r1, r2
    98e0:	124c2001 	subne	r2, ip, #1
    98e4:	0a000003 	beq	0x98f8
    98e8:	e4d1c001 	ldrb	ip, [r1], #1
    98ec:	e1510003 	cmp	r1, r3
    98f0:	e5e2c001 	strb	ip, [r2, #1]!
    98f4:	1afffffb 	bne	0x98e8
    98f8:	e8bd4070 	pop	{r4, r5, r6, lr}
    98fc:	e12fff1e 	bx	lr
    9900:	e2422001 	sub	r2, r2, #1
    9904:	e1a0c000 	mov	ip, r0
    9908:	eaffffbc 	b	0x9800
    990c:	e92d4ff8 	push	{r3, r4, r5, r6, r7, r8, r9, sl, fp, lr}
    9910:	e2516000 	subs	r6, r1, #0
    9914:	e1a0a002 	mov	sl, r2
    9918:	0a00009f 	beq	0x9b9c
    991c:	e28a400b 	add	r4, sl, #11
    9920:	e1a08000 	mov	r8, r0
    9924:	ebfffb74 	bl	0x86fc
    9928:	e3540016 	cmp	r4, #22
    992c:	93a02010 	movls	r2, #16
    9930:	93a03000 	movls	r3, #0
    9934:	91a04002 	movls	r4, r2
    9938:	83c44007 	bichi	r4, r4, #7
    993c:	81a03fa4 	lsrhi	r3, r4, #31
    9940:	81a02004 	movhi	r2, r4
    9944:	e154000a 	cmp	r4, sl
    9948:	33833001 	orrcc	r3, r3, #1
    994c:	e3530000 	cmp	r3, #0
    9950:	13a0300c 	movne	r3, #12
    9954:	e5161004 	ldr	r1, [r6, #-4]
    9958:	e2467008 	sub	r7, r6, #8
    995c:	e3c15003 	bic	r5, r1, #3
    9960:	13a0a000 	movne	sl, #0
    9964:	15883000 	strne	r3, [r8]
    9968:	1a00003a 	bne	0x9a58
    996c:	e1550002 	cmp	r5, r2
    9970:	e0879005 	add	r9, r7, r5
    9974:	aa000065 	bge	0x9b10
    9978:	e59f3464 	ldr	r3, [pc, #1124]	; 0x9de4
    997c:	e5930008 	ldr	r0, [r3, #8]
    9980:	e1500009 	cmp	r0, r9
    9984:	e5990004 	ldr	r0, [r9, #4]
    9988:	0a000089 	beq	0x9bb4
    998c:	e3c03001 	bic	r3, r0, #1
    9990:	e0893003 	add	r3, r9, r3
    9994:	e5933004 	ldr	r3, [r3, #4]
    9998:	e3130001 	tst	r3, #1
    999c:	1a000077 	bne	0x9b80
    99a0:	e3c00003 	bic	r0, r0, #3
    99a4:	e0853000 	add	r3, r5, r0
    99a8:	e1530002 	cmp	r3, r2
    99ac:	aa0000c2 	bge	0x9cbc
    99b0:	e3110001 	tst	r1, #1
    99b4:	1a00000a 	bne	0x99e4
    99b8:	e516b008 	ldr	fp, [r6, #-8]
    99bc:	e047b00b 	sub	fp, r7, fp
    99c0:	e59b1004 	ldr	r1, [fp, #4]
    99c4:	e3c11003 	bic	r1, r1, #3
    99c8:	e0810000 	add	r0, r1, r0
    99cc:	e0803005 	add	r3, r0, r5
    99d0:	e1530002 	cmp	r3, r2
    99d4:	aa0000d0 	bge	0x9d1c
    99d8:	e0853001 	add	r3, r5, r1
    99dc:	e1530002 	cmp	r3, r2
    99e0:	aa00001f 	bge	0x9a64
    99e4:	e1a0100a 	mov	r1, sl
    99e8:	e1a00008 	mov	r0, r8
    99ec:	ebfff814 	bl	0x7a44
    99f0:	e250a000 	subs	sl, r0, #0
    99f4:	0a000015 	beq	0x9a50
    99f8:	e5163004 	ldr	r3, [r6, #-4]
    99fc:	e3c33001 	bic	r3, r3, #1
    9a00:	e0873003 	add	r3, r7, r3
    9a04:	e24a2008 	sub	r2, sl, #8
    9a08:	e1530002 	cmp	r3, r2
    9a0c:	0a0000b1 	beq	0x9cd8
    9a10:	e2452004 	sub	r2, r5, #4
    9a14:	e3520024 	cmp	r2, #36	; 0x24
    9a18:	8a0000bc 	bhi	0x9d10
    9a1c:	e3520013 	cmp	r2, #19
    9a20:	e5961000 	ldr	r1, [r6]
    9a24:	91a0300a 	movls	r3, sl
    9a28:	91a02006 	movls	r2, r6
    9a2c:	8a0000ae 	bhi	0x9cec
    9a30:	e5831000 	str	r1, [r3]
    9a34:	e5921004 	ldr	r1, [r2, #4]
    9a38:	e5831004 	str	r1, [r3, #4]
    9a3c:	e5922008 	ldr	r2, [r2, #8]
    9a40:	e5832008 	str	r2, [r3, #8]
    9a44:	e1a01006 	mov	r1, r6
    9a48:	e1a00008 	mov	r0, r8
    9a4c:	ebfff730 	bl	0x7714
    9a50:	e1a00008 	mov	r0, r8
    9a54:	ebfffb2e 	bl	0x8714
    9a58:	e1a0000a 	mov	r0, sl
    9a5c:	e8bd4ff8 	pop	{r3, r4, r5, r6, r7, r8, r9, sl, fp, lr}
    9a60:	e12fff1e 	bx	lr
    9a64:	e1a0a00b 	mov	sl, fp
    9a68:	e59b100c 	ldr	r1, [fp, #12]
    9a6c:	e5ba0008 	ldr	r0, [sl, #8]!
    9a70:	e2452004 	sub	r2, r5, #4
    9a74:	e3520024 	cmp	r2, #36	; 0x24
    9a78:	e580100c 	str	r1, [r0, #12]
    9a7c:	e08b9003 	add	r9, fp, r3
    9a80:	e5810008 	str	r0, [r1, #8]
    9a84:	8a0000ad 	bhi	0x9d40
    9a88:	e3520013 	cmp	r2, #19
    9a8c:	e5961000 	ldr	r1, [r6]
    9a90:	91a0200a 	movls	r2, sl
    9a94:	9a000015 	bls	0x9af0
    9a98:	e58b1008 	str	r1, [fp, #8]
    9a9c:	e5961004 	ldr	r1, [r6, #4]
    9aa0:	e58b100c 	str	r1, [fp, #12]
    9aa4:	e352001b 	cmp	r2, #27
    9aa8:	e5961008 	ldr	r1, [r6, #8]
    9aac:	928b2010 	addls	r2, fp, #16
    9ab0:	92866008 	addls	r6, r6, #8
    9ab4:	9a00000d 	bls	0x9af0
    9ab8:	e58b1010 	str	r1, [fp, #16]
    9abc:	e596100c 	ldr	r1, [r6, #12]
    9ac0:	e58b1014 	str	r1, [fp, #20]
    9ac4:	e3520024 	cmp	r2, #36	; 0x24
    9ac8:	05962010 	ldreq	r2, [r6, #16]
    9acc:	058b2018 	streq	r2, [fp, #24]
    9ad0:	05962014 	ldreq	r2, [r6, #20]
    9ad4:	058b201c 	streq	r2, [fp, #28]
    9ad8:	15961010 	ldrne	r1, [r6, #16]
    9adc:	05961018 	ldreq	r1, [r6, #24]
    9ae0:	128b2018 	addne	r2, fp, #24
    9ae4:	12866010 	addne	r6, r6, #16
    9ae8:	028b2020 	addeq	r2, fp, #32
    9aec:	02866018 	addeq	r6, r6, #24
    9af0:	e5821000 	str	r1, [r2]
    9af4:	e5961004 	ldr	r1, [r6, #4]
    9af8:	e5821004 	str	r1, [r2, #4]
    9afc:	e1a05003 	mov	r5, r3
    9b00:	e5961008 	ldr	r1, [r6, #8]
    9b04:	e1a0700b 	mov	r7, fp
    9b08:	e1a0600a 	mov	r6, sl
    9b0c:	e5821008 	str	r1, [r2, #8]
    9b10:	e0453004 	sub	r3, r5, r4
    9b14:	e5972004 	ldr	r2, [r7, #4]
    9b18:	e353000f 	cmp	r3, #15
    9b1c:	e2022001 	and	r2, r2, #1
    9b20:	8a00000a 	bhi	0x9b50
    9b24:	e1852002 	orr	r2, r5, r2
    9b28:	e5872004 	str	r2, [r7, #4]
    9b2c:	e5993004 	ldr	r3, [r9, #4]
    9b30:	e3833001 	orr	r3, r3, #1
    9b34:	e5893004 	str	r3, [r9, #4]
    9b38:	e1a0a006 	mov	sl, r6
    9b3c:	e1a00008 	mov	r0, r8
    9b40:	ebfffaf3 	bl	0x8714
    9b44:	e1a0000a 	mov	r0, sl
    9b48:	e8bd4ff8 	pop	{r3, r4, r5, r6, r7, r8, r9, sl, fp, lr}
    9b4c:	e12fff1e 	bx	lr
    9b50:	e0871004 	add	r1, r7, r4
    9b54:	e1842002 	orr	r2, r4, r2
    9b58:	e3833001 	orr	r3, r3, #1
    9b5c:	e5872004 	str	r2, [r7, #4]
    9b60:	e5813004 	str	r3, [r1, #4]
    9b64:	e5993004 	ldr	r3, [r9, #4]
    9b68:	e3833001 	orr	r3, r3, #1
    9b6c:	e2811008 	add	r1, r1, #8
    9b70:	e5893004 	str	r3, [r9, #4]
    9b74:	e1a00008 	mov	r0, r8
    9b78:	ebfff6e5 	bl	0x7714
    9b7c:	eaffffed 	b	0x9b38
    9b80:	e3110001 	tst	r1, #1
    9b84:	1affff96 	bne	0x99e4
    9b88:	e516b008 	ldr	fp, [r6, #-8]
    9b8c:	e047b00b 	sub	fp, r7, fp
    9b90:	e59b1004 	ldr	r1, [fp, #4]
    9b94:	e3c11003 	bic	r1, r1, #3
    9b98:	eaffff8e 	b	0x99d8
    9b9c:	e1a01002 	mov	r1, r2
    9ba0:	ebfff7a7 	bl	0x7a44
    9ba4:	e1a0a000 	mov	sl, r0
    9ba8:	e1a0000a 	mov	r0, sl
    9bac:	e8bd4ff8 	pop	{r3, r4, r5, r6, r7, r8, r9, sl, fp, lr}
    9bb0:	e12fff1e 	bx	lr
    9bb4:	e3c00003 	bic	r0, r0, #3
    9bb8:	e085e000 	add	lr, r5, r0
    9bbc:	e284c010 	add	ip, r4, #16
    9bc0:	e15e000c 	cmp	lr, ip
    9bc4:	aa000074 	bge	0x9d9c
    9bc8:	e3110001 	tst	r1, #1
    9bcc:	1affff84 	bne	0x99e4
    9bd0:	e516b008 	ldr	fp, [r6, #-8]
    9bd4:	e047b00b 	sub	fp, r7, fp
    9bd8:	e59b1004 	ldr	r1, [fp, #4]
    9bdc:	e3c11003 	bic	r1, r1, #3
    9be0:	e0810000 	add	r0, r1, r0
    9be4:	e0809005 	add	r9, r0, r5
    9be8:	e15c0009 	cmp	ip, r9
    9bec:	caffff79 	bgt	0x99d8
    9bf0:	e1a0a00b 	mov	sl, fp
    9bf4:	e59b100c 	ldr	r1, [fp, #12]
    9bf8:	e5ba0008 	ldr	r0, [sl, #8]!
    9bfc:	e2452004 	sub	r2, r5, #4
    9c00:	e3520024 	cmp	r2, #36	; 0x24
    9c04:	e580100c 	str	r1, [r0, #12]
    9c08:	e5810008 	str	r0, [r1, #8]
    9c0c:	8a00006f 	bhi	0x9dd0
    9c10:	e3520013 	cmp	r2, #19
    9c14:	e5961000 	ldr	r1, [r6]
    9c18:	91a0200a 	movls	r2, sl
    9c1c:	9a000015 	bls	0x9c78
    9c20:	e58b1008 	str	r1, [fp, #8]
    9c24:	e5961004 	ldr	r1, [r6, #4]
    9c28:	e58b100c 	str	r1, [fp, #12]
    9c2c:	e352001b 	cmp	r2, #27
    9c30:	e5961008 	ldr	r1, [r6, #8]
    9c34:	928b2010 	addls	r2, fp, #16
    9c38:	92866008 	addls	r6, r6, #8
    9c3c:	9a00000d 	bls	0x9c78
    9c40:	e58b1010 	str	r1, [fp, #16]
    9c44:	e596100c 	ldr	r1, [r6, #12]
    9c48:	e58b1014 	str	r1, [fp, #20]
    9c4c:	e3520024 	cmp	r2, #36	; 0x24
    9c50:	05962010 	ldreq	r2, [r6, #16]
    9c54:	058b2018 	streq	r2, [fp, #24]
    9c58:	05962014 	ldreq	r2, [r6, #20]
    9c5c:	058b201c 	streq	r2, [fp, #28]
    9c60:	15961010 	ldrne	r1, [r6, #16]
    9c64:	05961018 	ldreq	r1, [r6, #24]
    9c68:	128b2018 	addne	r2, fp, #24
    9c6c:	12866010 	addne	r6, r6, #16
    9c70:	028b2020 	addeq	r2, fp, #32
    9c74:	02866018 	addeq	r6, r6, #24
    9c78:	e5821000 	str	r1, [r2]
    9c7c:	e5961004 	ldr	r1, [r6, #4]
    9c80:	e5821004 	str	r1, [r2, #4]
    9c84:	e5961008 	ldr	r1, [r6, #8]
    9c88:	e5821008 	str	r1, [r2, #8]
    9c8c:	e0492004 	sub	r2, r9, r4
    9c90:	e08b1004 	add	r1, fp, r4
    9c94:	e3822001 	orr	r2, r2, #1
    9c98:	e5831008 	str	r1, [r3, #8]
    9c9c:	e5812004 	str	r2, [r1, #4]
    9ca0:	e59b3004 	ldr	r3, [fp, #4]
    9ca4:	e2033001 	and	r3, r3, #1
    9ca8:	e1834004 	orr	r4, r3, r4
    9cac:	e1a00008 	mov	r0, r8
    9cb0:	e58b4004 	str	r4, [fp, #4]
    9cb4:	ebfffa96 	bl	0x8714
    9cb8:	eaffff66 	b	0x9a58
    9cbc:	e2891008 	add	r1, r9, #8
    9cc0:	e8910006 	ldm	r1, {r1, r2}
    9cc4:	e0879003 	add	r9, r7, r3
    9cc8:	e581200c 	str	r2, [r1, #12]
    9ccc:	e1a05003 	mov	r5, r3
    9cd0:	e5821008 	str	r1, [r2, #8]
    9cd4:	eaffff8d 	b	0x9b10
    9cd8:	e51a3004 	ldr	r3, [sl, #-4]
    9cdc:	e3c33003 	bic	r3, r3, #3
    9ce0:	e0855003 	add	r5, r5, r3
    9ce4:	e0879005 	add	r9, r7, r5
    9ce8:	eaffff88 	b	0x9b10
    9cec:	e58a1000 	str	r1, [sl]
    9cf0:	e5963004 	ldr	r3, [r6, #4]
    9cf4:	e352001b 	cmp	r2, #27
    9cf8:	e58a3004 	str	r3, [sl, #4]
    9cfc:	8a000016 	bhi	0x9d5c
    9d00:	e2862008 	add	r2, r6, #8
    9d04:	e28a3008 	add	r3, sl, #8
    9d08:	e5961008 	ldr	r1, [r6, #8]
    9d0c:	eaffff47 	b	0x9a30
    9d10:	e1a01006 	mov	r1, r6
    9d14:	ebfffea6 	bl	0x97b4
    9d18:	eaffff49 	b	0x9a44
    9d1c:	e1a0a00b 	mov	sl, fp
    9d20:	e2891008 	add	r1, r9, #8
    9d24:	e8910006 	ldm	r1, {r1, r2}
    9d28:	e581200c 	str	r2, [r1, #12]
    9d2c:	e5821008 	str	r1, [r2, #8]
    9d30:	e2452004 	sub	r2, r5, #4
    9d34:	e59b100c 	ldr	r1, [fp, #12]
    9d38:	e5ba0008 	ldr	r0, [sl, #8]!
    9d3c:	eaffff4c 	b	0x9a74
    9d40:	e1a01006 	mov	r1, r6
    9d44:	e1a0000a 	mov	r0, sl
    9d48:	e1a05003 	mov	r5, r3
    9d4c:	e1a0700b 	mov	r7, fp
    9d50:	ebfffe97 	bl	0x97b4
    9d54:	e1a0600a 	mov	r6, sl
    9d58:	eaffff6c 	b	0x9b10
    9d5c:	e5963008 	ldr	r3, [r6, #8]
    9d60:	e58a3008 	str	r3, [sl, #8]
    9d64:	e596300c 	ldr	r3, [r6, #12]
    9d68:	e58a300c 	str	r3, [sl, #12]
    9d6c:	e3520024 	cmp	r2, #36	; 0x24
    9d70:	05963010 	ldreq	r3, [r6, #16]
    9d74:	058a3010 	streq	r3, [sl, #16]
    9d78:	05963014 	ldreq	r3, [r6, #20]
    9d7c:	058a3014 	streq	r3, [sl, #20]
    9d80:	12862010 	addne	r2, r6, #16
    9d84:	128a3010 	addne	r3, sl, #16
    9d88:	15961010 	ldrne	r1, [r6, #16]
    9d8c:	02862018 	addeq	r2, r6, #24
    9d90:	05961018 	ldreq	r1, [r6, #24]
    9d94:	028a3018 	addeq	r3, sl, #24
    9d98:	eaffff24 	b	0x9a30
    9d9c:	e04e2004 	sub	r2, lr, r4
    9da0:	e0877004 	add	r7, r7, r4
    9da4:	e3822001 	orr	r2, r2, #1
    9da8:	e5837008 	str	r7, [r3, #8]
    9dac:	e5872004 	str	r2, [r7, #4]
    9db0:	e5163004 	ldr	r3, [r6, #-4]
    9db4:	e2033001 	and	r3, r3, #1
    9db8:	e1834004 	orr	r4, r3, r4
    9dbc:	e1a00008 	mov	r0, r8
    9dc0:	e5064004 	str	r4, [r6, #-4]
    9dc4:	ebfffa52 	bl	0x8714
    9dc8:	e1a0a006 	mov	sl, r6
    9dcc:	eaffff21 	b	0x9a58
    9dd0:	e1a01006 	mov	r1, r6
    9dd4:	e1a0000a 	mov	r0, sl
    9dd8:	ebfffe75 	bl	0x97b4
    9ddc:	e59f3000 	ldr	r3, [pc]	; 0x9de4
    9de0:	eaffffa9 	b	0x9c8c
    9de4:	03000358 	tsteq	r0, #88, 6	; 0x60000001
    9de8:	e59fc05c 	ldr	ip, [pc, #92]	; 0x9e4c
    9dec:	e59c3000 	ldr	r3, [ip]
    9df0:	e3530000 	cmp	r3, #0
    9df4:	e52de004 	push	{lr}		; (str lr, [sp, #-4]!)
    9df8:	0a00000d 	beq	0x9e34
    9dfc:	e1a0e00d 	mov	lr, sp
    9e00:	e59f2048 	ldr	r2, [pc, #72]	; 0x9e50
    9e04:	e5922000 	ldr	r2, [r2]
    9e08:	e3520000 	cmp	r2, #0
    9e0c:	01a0200e 	moveq	r2, lr
    9e10:	e0831001 	add	r1, r3, r1
    9e14:	e1510002 	cmp	r1, r2
    9e18:	83a0200c 	movhi	r2, #12
    9e1c:	83e03000 	mvnhi	r3, #0
    9e20:	85802000 	strhi	r2, [r0]
    9e24:	958c1000 	strls	r1, [ip]
    9e28:	e1a00003 	mov	r0, r3
    9e2c:	e49de004 	pop	{lr}		; (ldr lr, [sp], #4)
    9e30:	e12fff1e 	bx	lr
    9e34:	e59f3018 	ldr	r3, [pc, #24]	; 0x9e54
    9e38:	e5933000 	ldr	r3, [r3]
    9e3c:	e3530000 	cmp	r3, #0
    9e40:	059f3010 	ldreq	r3, [pc, #16]	; 0x9e58
    9e44:	e58c3000 	str	r3, [ip]
    9e48:	eaffffeb 	b	0x9dfc
    9e4c:	03000118 	tsteq	r0, #24, 2
    9e50:	0300011c 	tsteq	r0, #28, 2
    9e54:	03000120 	tsteq	r0, #32, 2
    9e58:	02000000 	andeq	r0, r0, #0
    9e5c:	e59f300c 	ldr	r3, [pc, #12]	; 0x9e70
    9e60:	e5933024 	ldr	r3, [r3, #36]	; 0x24
    9e64:	e3530000 	cmp	r3, #0
    9e68:	012fff1e 	bxeq	lr
    9e6c:	e12fff13 	bx	r3
    9e70:	03000124 	tsteq	r0, #36, 2
    9e74:	e59f300c 	ldr	r3, [pc, #12]	; 0x9e88
    9e78:	e593302c 	ldr	r3, [r3, #44]	; 0x2c
    9e7c:	e3530000 	cmp	r3, #0
    9e80:	012fff1e 	bxeq	lr
    9e84:	e12fff13 	bx	r3
    9e88:	03000124 	tsteq	r0, #36, 2
    9e8c:	e59f3014 	ldr	r3, [pc, #20]	; 0x9ea8
    9e90:	e5933034 	ldr	r3, [r3, #52]	; 0x34
    9e94:	e3530000 	cmp	r3, #0
    9e98:	112fff13 	bxne	r3
    9e9c:	e59f3008 	ldr	r3, [pc, #8]	; 0x9eac
    9ea0:	e5930000 	ldr	r0, [r3]
    9ea4:	e12fff1e 	bx	lr
    9ea8:	03000124 	tsteq	r0, #36, 2
    9eac:	03000774 	tsteq	r0, #116, 14	; 0x1d00000
    9eb0:	e1510003 	cmp	r1, r3
    9eb4:	01500002 	cmpeq	r0, r2
    9eb8:	e92d4ff8 	push	{r3, r4, r5, r6, r7, r8, r9, sl, fp, lr}
    9ebc:	e1a04000 	mov	r4, r0
    9ec0:	33a00000 	movcc	r0, #0
    9ec4:	e1a05001 	mov	r5, r1
    9ec8:	e59d8028 	ldr	r8, [sp, #40]	; 0x28
    9ecc:	31a01000 	movcc	r1, r0
    9ed0:	3a00003e 	bcc	0x9fd0
    9ed4:	e1a01003 	mov	r1, r3
    9ed8:	e1a00002 	mov	r0, r2
    9edc:	e1a06002 	mov	r6, r2
    9ee0:	e1a07003 	mov	r7, r3
    9ee4:	ebffdef5 	bl	0x1ac0
    9ee8:	e1a01005 	mov	r1, r5
    9eec:	e1a09000 	mov	r9, r0
    9ef0:	e1a00004 	mov	r0, r4
    9ef4:	ebffdef1 	bl	0x1ac0
    9ef8:	e049c000 	sub	ip, r9, r0
    9efc:	e24ce020 	sub	lr, ip, #32
    9f00:	e1a0bc17 	lsl	fp, r7, ip
    9f04:	e18bbe16 	orr	fp, fp, r6, lsl lr
    9f08:	e26c9020 	rsb	r9, ip, #32
    9f0c:	e18bb936 	orr	fp, fp, r6, lsr r9
    9f10:	e155000b 	cmp	r5, fp
    9f14:	e1a0ac16 	lsl	sl, r6, ip
    9f18:	0154000a 	cmpeq	r4, sl
    9f1c:	33a00000 	movcc	r0, #0
    9f20:	31a01000 	movcc	r1, r0
    9f24:	3a000005 	bcc	0x9f40
    9f28:	e3a00001 	mov	r0, #1
    9f2c:	e054400a 	subs	r4, r4, sl
    9f30:	e1a01e10 	lsl	r1, r0, lr
    9f34:	e1811930 	orr	r1, r1, r0, lsr r9
    9f38:	e0c5500b 	sbc	r5, r5, fp
    9f3c:	e1a00c10 	lsl	r0, r0, ip
    9f40:	e35c0000 	cmp	ip, #0
    9f44:	0a000021 	beq	0x9fd0
    9f48:	e1a060aa 	lsr	r6, sl, #1
    9f4c:	e1a0200c 	mov	r2, ip
    9f50:	e1866f8b 	orr	r6, r6, fp, lsl #31
    9f54:	e1a070ab 	lsr	r7, fp, #1
    9f58:	ea000007 	b	0x9f7c
    9f5c:	e0543006 	subs	r3, r4, r6
    9f60:	e0c5a007 	sbc	sl, r5, r7
    9f64:	e0933003 	adds	r3, r3, r3
    9f68:	e0aaa00a 	adc	sl, sl, sl
    9f6c:	e2934001 	adds	r4, r3, #1
    9f70:	e2aa5000 	adc	r5, sl, #0
    9f74:	e2522001 	subs	r2, r2, #1
    9f78:	0a000006 	beq	0x9f98
    9f7c:	e1550007 	cmp	r5, r7
    9f80:	01540006 	cmpeq	r4, r6
    9f84:	2afffff4 	bcs	0x9f5c
    9f88:	e0944004 	adds	r4, r4, r4
    9f8c:	e0a55005 	adc	r5, r5, r5
    9f90:	e2522001 	subs	r2, r2, #1
    9f94:	1afffff8 	bne	0x9f7c
    9f98:	e1a03c34 	lsr	r3, r4, ip
    9f9c:	e1833915 	orr	r3, r3, r5, lsl r9
    9fa0:	e1833e35 	orr	r3, r3, r5, lsr lr
    9fa4:	e0900004 	adds	r0, r0, r4
    9fa8:	e1a04003 	mov	r4, r3
    9fac:	e1a02c35 	lsr	r2, r5, ip
    9fb0:	e0a11005 	adc	r1, r1, r5
    9fb4:	e1a05002 	mov	r5, r2
    9fb8:	e1a03c12 	lsl	r3, r2, ip
    9fbc:	e1833e14 	orr	r3, r3, r4, lsl lr
    9fc0:	e1a0cc14 	lsl	ip, r4, ip
    9fc4:	e050000c 	subs	r0, r0, ip
    9fc8:	e1833934 	orr	r3, r3, r4, lsr r9
    9fcc:	e0c11003 	sbc	r1, r1, r3
    9fd0:	e3580000 	cmp	r8, #0
    9fd4:	18880030 	stmne	r8, {r4, r5}
    9fd8:	e8bd4ff8 	pop	{r3, r4, r5, r6, r7, r8, r9, sl, fp, lr}
    9fdc:	e12fff1e 	bx	lr
    9fe0:	e1a0c00d 	mov	ip, sp
    9fe4:	e92ddff8 	push	{r3, r4, r5, r6, r7, r8, r9, sl, fp, ip, lr, pc}
    9fe8:	e24cb004 	sub	fp, ip, #4
    9fec:	e24bd028 	sub	sp, fp, #40	; 0x28
    9ff0:	e89d6ff0 	ldm	sp, {r4, r5, r6, r7, r8, r9, sl, fp, sp, lr}
    9ff4:	e12fff1e 	bx	lr
    9ff8:	6c6c6548 	stclvs	5, cr6, [ip], #-288	; 0xfffffee0
    9ffc:	6f77206f 	svcvs	0x0077206f
    a000:	21646c72 	cmncs	r4, r2, ror ip
    a004:	0000000a 	andeq	r0, r0, sl
    a008:	2b206425 	blcs	0x8230a4
    a00c:	20642520 	rsbcs	r2, r4, r0, lsr #10
    a010:	6425203d 	strtvs	r2, [r5], #-61	; 0xffffffc3
    a014:	0000000a 	andeq	r0, r0, sl
    a018:	202b2031 	eorcs	r2, fp, r1, lsr r0
    a01c:	203d2031 	eorscs	r2, sp, r1, lsr r0
    a020:	00000a32 	andeq	r0, r0, r2, lsr sl
    a024:	202b2032 	eorcs	r2, fp, r2, lsr r0
    a028:	3d203031 	stccc	0, cr3, [r0, #-196]!	; 0xffffff3c
    a02c:	0a323120 	beq	0xc964b4
    a030:	464e4900 	strbmi	r4, [lr], -r0, lsl #18
    a034:	666e6900 	strbtvs	r6, [lr], -r0, lsl #18
    a038:	4e414e00 	cdpmi	14, 4, cr4, cr1, cr0, {0}
    a03c:	6e616e00 	cdpvs	14, 6, cr6, cr1, cr0, {0}
    a040:	32313000 	eorscc	r3, r1, #0
    a044:	36353433 			; <UNDEFINED> instruction: 0x36353433
    a048:	61393837 	teqvs	r9, r7, lsr r8
    a04c:	65646362 	strbvs	r6, [r4, #-866]!	; 0xfffffc9e
    a050:	31300066 	teqcc	r0, r6, rrx
    a054:	35343332 	ldrcc	r3, [r4, #-818]!	; 0xfffffcce
    a058:	39383736 	ldmdbcc	r8!, {r1, r2, r4, r5, r8, r9, sl, ip, sp}
    a05c:	44434241 	strbmi	r4, [r3], #-577	; 0xfffffdbf
    a060:	28004645 	stmdacs	r0, {r0, r2, r6, r9, sl, lr}
    a064:	6c6c756e 	stclvs	5, cr7, [ip], #-440	; 0xfffffe48
    a068:	00300029 	eorseq	r0, r0, r9, lsr #32
    a06c:	20202020 	eorcs	r2, r0, r0, lsr #32
    a070:	20202020 	eorcs	r2, r0, r0, lsr #32
    a074:	20202020 	eorcs	r2, r0, r0, lsr #32
    a078:	20202020 	eorcs	r2, r0, r0, lsr #32
    a07c:	30303030 	eorscc	r3, r0, r0, lsr r0
    a080:	30303030 	eorscc	r3, r0, r0, lsr r0
    a084:	30303030 	eorscc	r3, r0, r0, lsr r0
    a088:	30303030 	eorscc	r3, r0, r0, lsr r0
    a08c:	004e614e 	subeq	r6, lr, lr, asr #2
    a090:	69666e49 	stmdbvs	r6!, {r0, r3, r6, r9, sl, fp, sp, lr}^
    a094:	7974696e 	ldmdbvc	r4!, {r1, r2, r3, r5, r6, r8, fp, sp, lr}^
    a098:	00000000 	andeq	r0, r0, r0
    a09c:	ffff0030 			; <UNDEFINED> instruction: 0xffff0030
    a0a0:	0000002e 	andeq	r0, r0, lr, lsr #32
    a0a4:	435f434c 	cmpmi	pc, #76, 6	; 0x30000001
    a0a8:	414c4c4f 	cmpmi	ip, pc, asr #24
    a0ac:	00004554 	andeq	r4, r0, r4, asr r5
    a0b0:	435f434c 	cmpmi	pc, #76, 6	; 0x30000001
    a0b4:	45505954 	ldrbmi	r5, [r0, #-2388]	; 0xfffff6ac
    a0b8:	00000000 	andeq	r0, r0, r0
    a0bc:	4d5f434c 	ldclmi	3, cr4, [pc, #-304]	; 0x9f94
    a0c0:	54454e4f 	strbpl	r4, [r5], #-3663	; 0xfffff1b1
    a0c4:	00595241 	subseq	r5, r9, r1, asr #4
    a0c8:	4e5f434c 	cdpmi	3, 5, cr4, cr15, cr12, {2}
    a0cc:	52454d55 	subpl	r4, r5, #5440	; 0x1540
    a0d0:	00004349 	andeq	r4, r0, r9, asr #6
    a0d4:	545f434c 	ldrbpl	r4, [pc], #-844	; 0xa0dc
    a0d8:	00454d49 	subeq	r4, r5, r9, asr #26
    a0dc:	4d5f434c 	ldclmi	3, cr4, [pc, #-304]	; 0x9fb4
    a0e0:	41535345 	cmpmi	r3, r5, asr #6
    a0e4:	00534547 	subseq	r4, r3, r7, asr #10
    a0e8:	37e08000 	strbcc	r8, [r0, r0]!
    a0ec:	4341c379 	cmpmi	r1, #-469762047	; 0xe4000001
    a0f0:	b5056e17 	strlt	r6, [r5, #-3607]	; 0xfffff1e9
    a0f4:	4693b8b5 			; <UNDEFINED> instruction: 0x4693b8b5
    a0f8:	e93ff9f5 	ldmdb	pc!, {r0, r2, r4, r5, r6, r7, r8, fp, ip, sp, lr, pc}	; <UNPREDICTABLE>
    a0fc:	4d384f03 	ldcmi	15, cr4, [r8, #-12]!
    a100:	f9301d32 			; <UNDEFINED> instruction: 0xf9301d32
    a104:	5a827748 	bpl	0xfe0a7e2c
    a108:	7f73bf3c 	svcvc	0x0073bf3c
    a10c:	75154fdd 	ldrvc	r4, [r5, #-4061]	; 0xfffff023
    a110:	00000000 	andeq	r0, r0, r0
    a114:	3ff00000 	svccc	0x00f00000	; IMB
    a118:	00000000 	andeq	r0, r0, r0
    a11c:	40240000 	eormi	r0, r4, r0
    a120:	00000000 	andeq	r0, r0, r0
    a124:	40590000 	subsmi	r0, r9, r0
    a128:	00000000 	andeq	r0, r0, r0
    a12c:	408f4000 	addmi	r4, pc, r0
    a130:	00000000 	andeq	r0, r0, r0
    a134:	40c38800 	sbcmi	r8, r3, r0, lsl #16
    a138:	00000000 	andeq	r0, r0, r0
    a13c:	40f86a00 	rscsmi	r6, r8, r0, lsl #20
    a140:	00000000 	andeq	r0, r0, r0
    a144:	412e8480 			; <UNDEFINED> instruction: 0x412e8480
    a148:	00000000 	andeq	r0, r0, r0
    a14c:	416312d0 			; <UNDEFINED> instruction: 0x416312d0
    a150:	00000000 	andeq	r0, r0, r0
    a154:	4197d784 	orrsmi	sp, r7, r4, lsl #15
    a158:	00000000 	andeq	r0, r0, r0
    a15c:	41cdcd65 	bicmi	ip, sp, r5, ror #26
    a160:	20000000 	andcs	r0, r0, r0
    a164:	4202a05f 	andmi	sl, r2, #95	; 0x5f
    a168:	e8000000 	stmda	r0, {}	; <UNPREDICTABLE>
    a16c:	42374876 	eorsmi	r4, r7, #7733248	; 0x760000
    a170:	a2000000 	andge	r0, r0, #0
    a174:	426d1a94 	rsbmi	r1, sp, #148, 20	; 0x94000
    a178:	e5400000 	strb	r0, [r0, #-0]
    a17c:	42a2309c 	adcmi	r3, r2, #156	; 0x9c
    a180:	1e900000 	cdpne	0, 9, cr0, cr0, cr0, {0}
    a184:	42d6bcc4 	sbcsmi	fp, r6, #196, 24	; 0xc400
    a188:	26340000 	ldrtcs	r0, [r4], -r0
    a18c:	430c6bf5 	tstmi	ip, #250880	; 0x3d400
    a190:	37e08000 	strbcc	r8, [r0, r0]!
    a194:	4341c379 	cmpmi	r1, #-469762047	; 0xe4000001
    a198:	85d8a000 	ldrbhi	sl, [r8]
    a19c:	43763457 	cmnmi	r6, #1459617792	; 0x57000000
    a1a0:	674ec800 	strbvs	ip, [lr, -r0, lsl #16]
    a1a4:	43abc16d 			; <UNDEFINED> instruction: 0x43abc16d
    a1a8:	60913d00 	addsvs	r3, r1, r0, lsl #26
    a1ac:	43e158e4 	mvnmi	r5, #228, 16	; 0xe40000
    a1b0:	78b58c40 	ldmvc	r5!, {r6, sl, fp, pc}
    a1b4:	4415af1d 	ldrmi	sl, [r5], #-3869	; 0xfffff0e3
    a1b8:	d6e2ef50 			; <UNDEFINED> instruction: 0xd6e2ef50
    a1bc:	444b1ae4 	strbmi	r1, [fp], #-2788	; 0xfffff51c
    a1c0:	064dd592 			; <UNDEFINED> instruction: 0x064dd592
    a1c4:	4480f0cf 	strmi	pc, [r0], #207	; 0xcf
    a1c8:	c7e14af6 			; <UNDEFINED> instruction: 0xc7e14af6
    a1cc:	44b52d02 	ldrtmi	r2, [r5], #3330	; 0xd02
    a1d0:	79d99db4 	ldmibvc	r9, {r2, r4, r5, r7, r8, sl, fp, ip, pc}^
    a1d4:	44ea7843 	strbtmi	r7, [sl], #2115	; 0x843
    a1d8:	00000005 	andeq	r0, r0, r5
    a1dc:	00000019 	andeq	r0, r0, r9, lsl r0
    a1e0:	0000007d 	andeq	r0, r0, sp, ror r0
    a1e4:	03000100 	tsteq	r0, #0, 2
    a1e8:	00000004 	andeq	r0, r0, r4
    a1ec:	00010000 	andeq	r0, r1, r0
    a1f0:	00000403 	andeq	r0, r0, r3, lsl #8
    a1f4:	00000000 	andeq	r0, r0, r0
    a1f8:	00040307 	andeq	r0, r4, r7, lsl #6
    a1fc:	00000000 	andeq	r0, r0, r0
    a200:	04030000 	streq	r0, [r3], #-0
	...
    a20c:	00000004 	andeq	r0, r0, r4
    a210:	00020000 	andeq	r0, r2, r0
    a214:	00000403 	andeq	r0, r0, r3, lsl #8
    a218:	01000000 	mrseq	r0, (UNDEF: 0)
    a21c:	05060500 	streq	r0, [r6, #-1280]	; 0xfffffb00
    a220:	00000000 	andeq	r0, r0, r0
    a224:	06050001 	streq	r0, [r5], -r1
    a228:	00000000 	andeq	r0, r0, r0
    a22c:	03000000 	tsteq	r0, #0
    a230:	00000004 	andeq	r0, r0, r4
    a234:	08000000 	stmdaeq	r0, {}	; <UNPREDICTABLE>
	...
    a240:	00000008 	andeq	r0, r0, r8
	...
    a250:	08080808 	stmdaeq	r8, {r3, fp}
    a254:	08080808 	stmdaeq	r8, {r3, fp}
    a258:	08080808 	stmdaeq	r8, {r3, fp}
    a25c:	08080808 	stmdaeq	r8, {r3, fp}
    a260:	08080808 	stmdaeq	r8, {r3, fp}
    a264:	08080808 	stmdaeq	r8, {r3, fp}
    a268:	08080808 	stmdaeq	r8, {r3, fp}
    a26c:	08080808 	stmdaeq	r8, {r3, fp}
    a270:	07080807 	streq	r0, [r8, -r7, lsl #16]
    a274:	07080802 	streq	r0, [r8, -r2, lsl #16]
    a278:	07060808 	streq	r0, [r6, -r8, lsl #16]
    a27c:	08050708 	stmdaeq	r5, {r3, r8, r9, sl}
    a280:	01010100 	mrseq	r0, (UNDEF: 17)
    a284:	01010101 	tsteq	r1, r1, lsl #2
    a288:	08080101 	stmdaeq	r8, {r0, r8}
    a28c:	08080808 	stmdaeq	r8, {r3, fp}
    a290:	04080408 	streq	r0, [r8], #-1032	; 0xfffffbf8
    a294:	04040404 	streq	r0, [r4], #-1028	; 0xfffffbfc
    a298:	08080808 	stmdaeq	r8, {r3, fp}
    a29c:	04080803 	streq	r0, [r8], #-2051	; 0xfffff7fd
    a2a0:	04080808 	streq	r0, [r8], #-2056	; 0xfffff7f8
    a2a4:	08080408 	stmdaeq	r8, {r3, sl}
    a2a8:	08080804 	stmdaeq	r8, {r2, fp}
    a2ac:	08080808 	stmdaeq	r8, {r3, fp}
    a2b0:	04080408 	streq	r0, [r8], #-1032	; 0xfffffbf8
    a2b4:	04040404 	streq	r0, [r4], #-1028	; 0xfffffbfc
    a2b8:	08030403 	stmdaeq	r3, {r0, r1, sl}
    a2bc:	04040803 	streq	r0, [r4], #-2051	; 0xfffff7fd
    a2c0:	04080304 	streq	r0, [r8], #-772	; 0xfffffcfc
    a2c4:	08080403 	stmdaeq	r8, {r0, r1, sl}
    a2c8:	08030804 	stmdaeq	r3, {r2, fp}
    a2cc:	08080808 	stmdaeq	r8, {r3, fp}
    a2d0:	08080808 	stmdaeq	r8, {r3, fp}
    a2d4:	08080808 	stmdaeq	r8, {r3, fp}
    a2d8:	08080808 	stmdaeq	r8, {r3, fp}
    a2dc:	08080808 	stmdaeq	r8, {r3, fp}
    a2e0:	08080808 	stmdaeq	r8, {r3, fp}
    a2e4:	08080808 	stmdaeq	r8, {r3, fp}
    a2e8:	08080808 	stmdaeq	r8, {r3, fp}
    a2ec:	08080808 	stmdaeq	r8, {r3, fp}
    a2f0:	08080808 	stmdaeq	r8, {r3, fp}
    a2f4:	08080808 	stmdaeq	r8, {r3, fp}
    a2f8:	08080808 	stmdaeq	r8, {r3, fp}
    a2fc:	08080808 	stmdaeq	r8, {r3, fp}
    a300:	08080808 	stmdaeq	r8, {r3, fp}
    a304:	08080808 	stmdaeq	r8, {r3, fp}
    a308:	08080808 	stmdaeq	r8, {r3, fp}
    a30c:	08080808 	stmdaeq	r8, {r3, fp}
    a310:	08080808 	stmdaeq	r8, {r3, fp}
    a314:	08080808 	stmdaeq	r8, {r3, fp}
    a318:	08080808 	stmdaeq	r8, {r3, fp}
    a31c:	08080808 	stmdaeq	r8, {r3, fp}
    a320:	08080808 	stmdaeq	r8, {r3, fp}
    a324:	08080808 	stmdaeq	r8, {r3, fp}
    a328:	08080808 	stmdaeq	r8, {r3, fp}
    a32c:	08080808 	stmdaeq	r8, {r3, fp}
    a330:	08080808 	stmdaeq	r8, {r3, fp}
    a334:	08080808 	stmdaeq	r8, {r3, fp}
    a338:	08080808 	stmdaeq	r8, {r3, fp}
    a33c:	08080808 	stmdaeq	r8, {r3, fp}
    a340:	08080808 	stmdaeq	r8, {r3, fp}
    a344:	08080808 	stmdaeq	r8, {r3, fp}
    a348:	08080808 	stmdaeq	r8, {r3, fp}
    a34c:	08080808 	stmdaeq	r8, {r3, fp}
    a350:	040b0201 	streq	r0, [fp], #-513	; 0xfffffdff
    a354:	0106050b 	tsteq	r6, fp, lsl #10
    a358:	0b02010b 	bleq	0x8a78c
    a35c:	06050b04 	streq	r0, [r5], -r4, lsl #22
    a360:	0b0b0b01 	bleq	0x2ccf6c
    a364:	050b0403 	streq	r0, [fp, #-1027]	; 0xfffffbfd
    a368:	0b0b0b0b 	bleq	0x2ccf9c
    a36c:	0b040b0b 	bleq	0x10cfa0
    a370:	0b0b0b05 	bleq	0x2ccf8c
    a374:	0b0b0b0b 	bleq	0x2ccfa8
    a378:	0b0b0b0b 	bleq	0x2ccfac
    a37c:	0b08050b 	bleq	0x20b7b0
    a380:	070b0b04 	streq	r0, [fp, -r4, lsl #22]
    a384:	090b0b0b 	stmdbeq	fp, {r0, r1, r3, r8, r9, fp}
    a388:	050b040b 	streq	r0, [fp, #-1035]	; 0xfffffbf5
    a38c:	0b0b0b0b 	bleq	0x2ccfc0
    a390:	0b040b0a 	bleq	0x10cfc0
    a394:	0b0b0b0b 	bleq	0x2ccfc8
    a398:	040b0b0b 	streq	r0, [fp], #-2827	; 0xfffff4f5
    a39c:	0b0b0b0b 	bleq	0x2ccfd0
    a3a0:	030b0b0b 	tsteq	fp, #11264	; 0x2c00
    a3a4:	0b0b0b0b 	bleq	0x2ccfd8
    a3a8:	0b0b0b0b 	bleq	0x2ccfdc
    a3ac:	0b0b0b08 	bleq	0x2ccfd4
    a3b0:	000b0b0b 	andeq	r0, fp, fp, lsl #22
	...
    a3bc:	20202000 	eorcs	r2, r0, r0
    a3c0:	20202020 	eorcs	r2, r0, r0, lsr #32
    a3c4:	28282020 	stmdacs	r8!, {r5, sp}
    a3c8:	20282828 	eorcs	r2, r8, r8, lsr #16
    a3cc:	20202020 	eorcs	r2, r0, r0, lsr #32
    a3d0:	20202020 	eorcs	r2, r0, r0, lsr #32
    a3d4:	20202020 	eorcs	r2, r0, r0, lsr #32
    a3d8:	20202020 	eorcs	r2, r0, r0, lsr #32
    a3dc:	10108820 	andsne	r8, r0, r0, lsr #16
    a3e0:	10101010 	andsne	r1, r0, r0, lsl r0
    a3e4:	10101010 	andsne	r1, r0, r0, lsl r0
    a3e8:	10101010 	andsne	r1, r0, r0, lsl r0
    a3ec:	04040410 	streq	r0, [r4], #-1040	; 0xfffffbf0
    a3f0:	04040404 	streq	r0, [r4], #-1028	; 0xfffffbfc
    a3f4:	10040404 	andne	r0, r4, r4, lsl #8
    a3f8:	10101010 	andsne	r1, r0, r0, lsl r0
    a3fc:	41411010 	cmpmi	r1, r0, lsl r0
    a400:	41414141 	cmpmi	r1, r1, asr #2
    a404:	01010101 	tsteq	r1, r1, lsl #2
    a408:	01010101 	tsteq	r1, r1, lsl #2
    a40c:	01010101 	tsteq	r1, r1, lsl #2
    a410:	01010101 	tsteq	r1, r1, lsl #2
    a414:	01010101 	tsteq	r1, r1, lsl #2
    a418:	10101010 	andsne	r1, r0, r0, lsl r0
    a41c:	42421010 	submi	r1, r2, #16
    a420:	42424242 	submi	r4, r2, #536870916	; 0x20000004
    a424:	02020202 	andeq	r0, r2, #536870912	; 0x20000000
    a428:	02020202 	andeq	r0, r2, #536870912	; 0x20000000
    a42c:	02020202 	andeq	r0, r2, #536870912	; 0x20000000
    a430:	02020202 	andeq	r0, r2, #536870912	; 0x20000000
    a434:	02020202 	andeq	r0, r2, #536870912	; 0x20000000
    a438:	10101010 	andsne	r1, r0, r0, lsl r0
    a43c:	00000020 	andeq	r0, r0, r0, lsr #32
	...
    a4bc:	ffffff00 			; <UNDEFINED> instruction: 0xffffff00
    a4c0:	00000000 	andeq	r0, r0, r0
    a4c4:	00000043 	andeq	r0, r0, r3, asr #32
	...
    a4e4:	00000043 	andeq	r0, r0, r3, asr #32
	...
    a504:	54552e43 	ldrbpl	r2, [r5], #-3651	; 0xfffff1bd
    a508:	00382d46 	eorseq	r2, r8, r6, asr #26
	...
    a524:	00000043 	andeq	r0, r0, r3, asr #32
	...
    a544:	00000043 	andeq	r0, r0, r3, asr #32
	...
    a564:	00000043 	andeq	r0, r0, r3, asr #32
	...
    a584:	00000043 	andeq	r0, r0, r3, asr #32
	...
    a5a4:	0800962c 	stmdaeq	r0, {r2, r3, r5, r9, sl, ip, pc}
    a5a8:	080081cc 	stmdaeq	r0, {r2, r3, r6, r7, r8, pc}
    a5ac:	00000000 	andeq	r0, r0, r0
    a5b0:	0800a3bc 	stmdaeq	r0, {r2, r3, r4, r5, r7, r8, r9, sp, pc}
    a5b4:	0800a0a0 	stmdaeq	r0, {r5, r7, sp, pc}
    a5b8:	0800a030 	stmdaeq	r0, {r4, r5, sp, pc}
    a5bc:	0800a030 	stmdaeq	r0, {r4, r5, sp, pc}
    a5c0:	0800a030 	stmdaeq	r0, {r4, r5, sp, pc}
    a5c4:	0800a030 	stmdaeq	r0, {r4, r5, sp, pc}
    a5c8:	0800a030 	stmdaeq	r0, {r4, r5, sp, pc}
    a5cc:	0800a030 	stmdaeq	r0, {r4, r5, sp, pc}
    a5d0:	0800a030 	stmdaeq	r0, {r4, r5, sp, pc}
    a5d4:	0800a030 	stmdaeq	r0, {r4, r5, sp, pc}
    a5d8:	0800a030 	stmdaeq	r0, {r4, r5, sp, pc}
    a5dc:	ffffffff 			; <UNDEFINED> instruction: 0xffffffff
    a5e0:	ffffffff 			; <UNDEFINED> instruction: 0xffffffff
    a5e4:	ffffffff 			; <UNDEFINED> instruction: 0xffffffff
    a5e8:	0000ffff 			; <UNDEFINED> instruction: 0x0000ffff
    a5ec:	54550006 	ldrbpl	r0, [r5], #-6
    a5f0:	00382d46 	eorseq	r2, r8, r6, asr #26
	...
    a60c:	54550000 	ldrbpl	r0, [r5], #-0
    a610:	00382d46 	eorseq	r2, r8, r6, asr #26
	...
    a638:	03000358 	tsteq	r0, #88, 6	; 0x60000001
    a63c:	03000358 	tsteq	r0, #88, 6	; 0x60000001
    a640:	03000360 	tsteq	r0, #96, 6	; 0x80000001
    a644:	03000360 	tsteq	r0, #96, 6	; 0x80000001
    a648:	03000368 	tsteq	r0, #104, 6	; 0xa0000001
    a64c:	03000368 	tsteq	r0, #104, 6	; 0xa0000001
    a650:	03000370 	tsteq	r0, #112, 6	; 0xc0000001
    a654:	03000370 	tsteq	r0, #112, 6	; 0xc0000001
    a658:	03000378 	tsteq	r0, #120, 6	; 0xe0000001
    a65c:	03000378 	tsteq	r0, #120, 6	; 0xe0000001
    a660:	03000380 	tsteq	r0, #128, 6
    a664:	03000380 	tsteq	r0, #128, 6
    a668:	03000388 	tsteq	r0, #136, 6	; 0x20000002
    a66c:	03000388 	tsteq	r0, #136, 6	; 0x20000002
    a670:	03000390 	tsteq	r0, #144, 6	; 0x40000002
    a674:	03000390 	tsteq	r0, #144, 6	; 0x40000002
    a678:	03000398 	tsteq	r0, #152, 6	; 0x60000002
    a67c:	03000398 	tsteq	r0, #152, 6	; 0x60000002
    a680:	030003a0 	tsteq	r0, #160, 6	; 0x80000002
    a684:	030003a0 	tsteq	r0, #160, 6	; 0x80000002
    a688:	030003a8 	tsteq	r0, #168, 6	; 0xa0000002
    a68c:	030003a8 	tsteq	r0, #168, 6	; 0xa0000002
    a690:	030003b0 	tsteq	r0, #176, 6	; 0xc0000002
    a694:	030003b0 	tsteq	r0, #176, 6	; 0xc0000002
    a698:	030003b8 	tsteq	r0, #184, 6	; 0xe0000002
    a69c:	030003b8 	tsteq	r0, #184, 6	; 0xe0000002
    a6a0:	030003c0 	tsteq	r0, #192, 6
    a6a4:	030003c0 	tsteq	r0, #192, 6
    a6a8:	030003c8 	tsteq	r0, #200, 6	; 0x20000003
    a6ac:	030003c8 	tsteq	r0, #200, 6	; 0x20000003
    a6b0:	030003d0 	tsteq	r0, #208, 6	; 0x40000003
    a6b4:	030003d0 	tsteq	r0, #208, 6	; 0x40000003
    a6b8:	030003d8 	tsteq	r0, #216, 6	; 0x60000003
    a6bc:	030003d8 	tsteq	r0, #216, 6	; 0x60000003
    a6c0:	030003e0 	tsteq	r0, #224, 6	; 0x80000003
    a6c4:	030003e0 	tsteq	r0, #224, 6	; 0x80000003
    a6c8:	030003e8 	tsteq	r0, #232, 6	; 0xa0000003
    a6cc:	030003e8 	tsteq	r0, #232, 6	; 0xa0000003
    a6d0:	030003f0 	tsteq	r0, #240, 6	; 0xc0000003
    a6d4:	030003f0 	tsteq	r0, #240, 6	; 0xc0000003
    a6d8:	030003f8 	tsteq	r0, #248, 6	; 0xe0000003
    a6dc:	030003f8 	tsteq	r0, #248, 6	; 0xe0000003
    a6e0:	03000400 	tsteq	r0, #0, 8
    a6e4:	03000400 	tsteq	r0, #0, 8
    a6e8:	03000408 	tsteq	r0, #8, 8	; 0x8000000
    a6ec:	03000408 	tsteq	r0, #8, 8	; 0x8000000
    a6f0:	03000410 	tsteq	r0, #16, 8	; 0x10000000
    a6f4:	03000410 	tsteq	r0, #16, 8	; 0x10000000
    a6f8:	03000418 	tsteq	r0, #24, 8	; 0x18000000
    a6fc:	03000418 	tsteq	r0, #24, 8	; 0x18000000
    a700:	03000420 	tsteq	r0, #32, 8	; 0x20000000
    a704:	03000420 	tsteq	r0, #32, 8	; 0x20000000
    a708:	03000428 	tsteq	r0, #40, 8	; 0x28000000
    a70c:	03000428 	tsteq	r0, #40, 8	; 0x28000000
    a710:	03000430 	tsteq	r0, #48, 8	; 0x30000000
    a714:	03000430 	tsteq	r0, #48, 8	; 0x30000000
    a718:	03000438 	tsteq	r0, #56, 8	; 0x38000000
    a71c:	03000438 	tsteq	r0, #56, 8	; 0x38000000
    a720:	03000440 	tsteq	r0, #64, 8	; 0x40000000
    a724:	03000440 	tsteq	r0, #64, 8	; 0x40000000
    a728:	03000448 	tsteq	r0, #72, 8	; 0x48000000
    a72c:	03000448 	tsteq	r0, #72, 8	; 0x48000000
    a730:	03000450 	tsteq	r0, #80, 8	; 0x50000000
    a734:	03000450 	tsteq	r0, #80, 8	; 0x50000000
    a738:	03000458 	tsteq	r0, #88, 8	; 0x58000000
    a73c:	03000458 	tsteq	r0, #88, 8	; 0x58000000
    a740:	03000460 	tsteq	r0, #96, 8	; 0x60000000
    a744:	03000460 	tsteq	r0, #96, 8	; 0x60000000
    a748:	03000468 	tsteq	r0, #104, 8	; 0x68000000
    a74c:	03000468 	tsteq	r0, #104, 8	; 0x68000000
    a750:	03000470 	tsteq	r0, #112, 8	; 0x70000000
    a754:	03000470 	tsteq	r0, #112, 8	; 0x70000000
    a758:	03000478 	tsteq	r0, #120, 8	; 0x78000000
    a75c:	03000478 	tsteq	r0, #120, 8	; 0x78000000
    a760:	03000480 	tsteq	r0, #128, 8	; 0x80000000
    a764:	03000480 	tsteq	r0, #128, 8	; 0x80000000
    a768:	03000488 	tsteq	r0, #136, 8	; 0x88000000
    a76c:	03000488 	tsteq	r0, #136, 8	; 0x88000000
    a770:	03000490 	tsteq	r0, #144, 8	; 0x90000000
    a774:	03000490 	tsteq	r0, #144, 8	; 0x90000000
    a778:	03000498 	tsteq	r0, #152, 8	; 0x98000000
    a77c:	03000498 	tsteq	r0, #152, 8	; 0x98000000
    a780:	030004a0 	tsteq	r0, #160, 8	; 0xa0000000
    a784:	030004a0 	tsteq	r0, #160, 8	; 0xa0000000
    a788:	030004a8 	tsteq	r0, #168, 8	; 0xa8000000
    a78c:	030004a8 	tsteq	r0, #168, 8	; 0xa8000000
    a790:	030004b0 	tsteq	r0, #176, 8	; 0xb0000000
    a794:	030004b0 	tsteq	r0, #176, 8	; 0xb0000000
    a798:	030004b8 	tsteq	r0, #184, 8	; 0xb8000000
    a79c:	030004b8 	tsteq	r0, #184, 8	; 0xb8000000
    a7a0:	030004c0 	tsteq	r0, #192, 8	; 0xc0000000
    a7a4:	030004c0 	tsteq	r0, #192, 8	; 0xc0000000
    a7a8:	030004c8 	tsteq	r0, #200, 8	; 0xc8000000
    a7ac:	030004c8 	tsteq	r0, #200, 8	; 0xc8000000
    a7b0:	030004d0 	tsteq	r0, #208, 8	; 0xd0000000
    a7b4:	030004d0 	tsteq	r0, #208, 8	; 0xd0000000
    a7b8:	030004d8 	tsteq	r0, #216, 8	; 0xd8000000
    a7bc:	030004d8 	tsteq	r0, #216, 8	; 0xd8000000
    a7c0:	030004e0 	tsteq	r0, #224, 8	; 0xe0000000
    a7c4:	030004e0 	tsteq	r0, #224, 8	; 0xe0000000
    a7c8:	030004e8 	tsteq	r0, #232, 8	; 0xe8000000
    a7cc:	030004e8 	tsteq	r0, #232, 8	; 0xe8000000
    a7d0:	030004f0 	tsteq	r0, #240, 8	; 0xf0000000
    a7d4:	030004f0 	tsteq	r0, #240, 8	; 0xf0000000
    a7d8:	030004f8 	tsteq	r0, #248, 8	; 0xf8000000
    a7dc:	030004f8 	tsteq	r0, #248, 8	; 0xf8000000
    a7e0:	03000500 	tsteq	r0, #0, 10
    a7e4:	03000500 	tsteq	r0, #0, 10
    a7e8:	03000508 	tsteq	r0, #8, 10	; 0x2000000
    a7ec:	03000508 	tsteq	r0, #8, 10	; 0x2000000
    a7f0:	03000510 	tsteq	r0, #16, 10	; 0x4000000
    a7f4:	03000510 	tsteq	r0, #16, 10	; 0x4000000
    a7f8:	03000518 	tsteq	r0, #24, 10	; 0x6000000
    a7fc:	03000518 	tsteq	r0, #24, 10	; 0x6000000
    a800:	03000520 	tsteq	r0, #32, 10	; 0x8000000
    a804:	03000520 	tsteq	r0, #32, 10	; 0x8000000
    a808:	03000528 	tsteq	r0, #40, 10	; 0xa000000
    a80c:	03000528 	tsteq	r0, #40, 10	; 0xa000000
    a810:	03000530 	tsteq	r0, #48, 10	; 0xc000000
    a814:	03000530 	tsteq	r0, #48, 10	; 0xc000000
    a818:	03000538 	tsteq	r0, #56, 10	; 0xe000000
    a81c:	03000538 	tsteq	r0, #56, 10	; 0xe000000
    a820:	03000540 	tsteq	r0, #64, 10	; 0x10000000
    a824:	03000540 	tsteq	r0, #64, 10	; 0x10000000
    a828:	03000548 	tsteq	r0, #72, 10	; 0x12000000
    a82c:	03000548 	tsteq	r0, #72, 10	; 0x12000000
    a830:	03000550 	tsteq	r0, #80, 10	; 0x14000000
    a834:	03000550 	tsteq	r0, #80, 10	; 0x14000000
    a838:	03000558 	tsteq	r0, #88, 10	; 0x16000000
    a83c:	03000558 	tsteq	r0, #88, 10	; 0x16000000
    a840:	03000560 	tsteq	r0, #96, 10	; 0x18000000
    a844:	03000560 	tsteq	r0, #96, 10	; 0x18000000
    a848:	03000568 	tsteq	r0, #104, 10	; 0x1a000000
    a84c:	03000568 	tsteq	r0, #104, 10	; 0x1a000000
    a850:	03000570 	tsteq	r0, #112, 10	; 0x1c000000
    a854:	03000570 	tsteq	r0, #112, 10	; 0x1c000000
    a858:	03000578 	tsteq	r0, #120, 10	; 0x1e000000
    a85c:	03000578 	tsteq	r0, #120, 10	; 0x1e000000
    a860:	03000580 	tsteq	r0, #128, 10	; 0x20000000
    a864:	03000580 	tsteq	r0, #128, 10	; 0x20000000
    a868:	03000588 	tsteq	r0, #136, 10	; 0x22000000
    a86c:	03000588 	tsteq	r0, #136, 10	; 0x22000000
    a870:	03000590 	tsteq	r0, #144, 10	; 0x24000000
    a874:	03000590 	tsteq	r0, #144, 10	; 0x24000000
    a878:	03000598 	tsteq	r0, #152, 10	; 0x26000000
    a87c:	03000598 	tsteq	r0, #152, 10	; 0x26000000
    a880:	030005a0 	tsteq	r0, #160, 10	; 0x28000000
    a884:	030005a0 	tsteq	r0, #160, 10	; 0x28000000
    a888:	030005a8 	tsteq	r0, #168, 10	; 0x2a000000
    a88c:	030005a8 	tsteq	r0, #168, 10	; 0x2a000000
    a890:	030005b0 	tsteq	r0, #176, 10	; 0x2c000000
    a894:	030005b0 	tsteq	r0, #176, 10	; 0x2c000000
    a898:	030005b8 	tsteq	r0, #184, 10	; 0x2e000000
    a89c:	030005b8 	tsteq	r0, #184, 10	; 0x2e000000
    a8a0:	030005c0 	tsteq	r0, #192, 10	; 0x30000000
    a8a4:	030005c0 	tsteq	r0, #192, 10	; 0x30000000
    a8a8:	030005c8 	tsteq	r0, #200, 10	; 0x32000000
    a8ac:	030005c8 	tsteq	r0, #200, 10	; 0x32000000
    a8b0:	030005d0 	tsteq	r0, #208, 10	; 0x34000000
    a8b4:	030005d0 	tsteq	r0, #208, 10	; 0x34000000
    a8b8:	030005d8 	tsteq	r0, #216, 10	; 0x36000000
    a8bc:	030005d8 	tsteq	r0, #216, 10	; 0x36000000
    a8c0:	030005e0 	tsteq	r0, #224, 10	; 0x38000000
    a8c4:	030005e0 	tsteq	r0, #224, 10	; 0x38000000
    a8c8:	030005e8 	tsteq	r0, #232, 10	; 0x3a000000
    a8cc:	030005e8 	tsteq	r0, #232, 10	; 0x3a000000
    a8d0:	030005f0 	tsteq	r0, #240, 10	; 0x3c000000
    a8d4:	030005f0 	tsteq	r0, #240, 10	; 0x3c000000
    a8d8:	030005f8 	tsteq	r0, #248, 10	; 0x3e000000
    a8dc:	030005f8 	tsteq	r0, #248, 10	; 0x3e000000
    a8e0:	03000600 	tsteq	r0, #0, 12
    a8e4:	03000600 	tsteq	r0, #0, 12
    a8e8:	03000608 	tsteq	r0, #8, 12	; 0x800000
    a8ec:	03000608 	tsteq	r0, #8, 12	; 0x800000
    a8f0:	03000610 	tsteq	r0, #16, 12	; 0x1000000
    a8f4:	03000610 	tsteq	r0, #16, 12	; 0x1000000
    a8f8:	03000618 	tsteq	r0, #24, 12	; 0x1800000
    a8fc:	03000618 	tsteq	r0, #24, 12	; 0x1800000
    a900:	03000620 	tsteq	r0, #32, 12	; 0x2000000
    a904:	03000620 	tsteq	r0, #32, 12	; 0x2000000
    a908:	03000628 	tsteq	r0, #40, 12	; 0x2800000
    a90c:	03000628 	tsteq	r0, #40, 12	; 0x2800000
    a910:	03000630 	tsteq	r0, #48, 12	; 0x3000000
    a914:	03000630 	tsteq	r0, #48, 12	; 0x3000000
    a918:	03000638 	tsteq	r0, #56, 12	; 0x3800000
    a91c:	03000638 	tsteq	r0, #56, 12	; 0x3800000
    a920:	03000640 	tsteq	r0, #64, 12	; 0x4000000
    a924:	03000640 	tsteq	r0, #64, 12	; 0x4000000
    a928:	03000648 	tsteq	r0, #72, 12	; 0x4800000
    a92c:	03000648 	tsteq	r0, #72, 12	; 0x4800000
    a930:	03000650 	tsteq	r0, #80, 12	; 0x5000000
    a934:	03000650 	tsteq	r0, #80, 12	; 0x5000000
    a938:	03000658 	tsteq	r0, #88, 12	; 0x5800000
    a93c:	03000658 	tsteq	r0, #88, 12	; 0x5800000
    a940:	03000660 	tsteq	r0, #96, 12	; 0x6000000
    a944:	03000660 	tsteq	r0, #96, 12	; 0x6000000
    a948:	03000668 	tsteq	r0, #104, 12	; 0x6800000
    a94c:	03000668 	tsteq	r0, #104, 12	; 0x6800000
    a950:	03000670 	tsteq	r0, #112, 12	; 0x7000000
    a954:	03000670 	tsteq	r0, #112, 12	; 0x7000000
    a958:	03000678 	tsteq	r0, #120, 12	; 0x7800000
    a95c:	03000678 	tsteq	r0, #120, 12	; 0x7800000
    a960:	03000680 	tsteq	r0, #128, 12	; 0x8000000
    a964:	03000680 	tsteq	r0, #128, 12	; 0x8000000
    a968:	03000688 	tsteq	r0, #136, 12	; 0x8800000
    a96c:	03000688 	tsteq	r0, #136, 12	; 0x8800000
    a970:	03000690 	tsteq	r0, #144, 12	; 0x9000000
    a974:	03000690 	tsteq	r0, #144, 12	; 0x9000000
    a978:	03000698 	tsteq	r0, #152, 12	; 0x9800000
    a97c:	03000698 	tsteq	r0, #152, 12	; 0x9800000
    a980:	030006a0 	tsteq	r0, #160, 12	; 0xa000000
    a984:	030006a0 	tsteq	r0, #160, 12	; 0xa000000
    a988:	030006a8 	tsteq	r0, #168, 12	; 0xa800000
    a98c:	030006a8 	tsteq	r0, #168, 12	; 0xa800000
    a990:	030006b0 	tsteq	r0, #176, 12	; 0xb000000
    a994:	030006b0 	tsteq	r0, #176, 12	; 0xb000000
    a998:	030006b8 	tsteq	r0, #184, 12	; 0xb800000
    a99c:	030006b8 	tsteq	r0, #184, 12	; 0xb800000
    a9a0:	030006c0 	tsteq	r0, #192, 12	; 0xc000000
    a9a4:	030006c0 	tsteq	r0, #192, 12	; 0xc000000
    a9a8:	030006c8 	tsteq	r0, #200, 12	; 0xc800000
    a9ac:	030006c8 	tsteq	r0, #200, 12	; 0xc800000
    a9b0:	030006d0 	tsteq	r0, #208, 12	; 0xd000000
    a9b4:	030006d0 	tsteq	r0, #208, 12	; 0xd000000
    a9b8:	030006d8 	tsteq	r0, #216, 12	; 0xd800000
    a9bc:	030006d8 	tsteq	r0, #216, 12	; 0xd800000
    a9c0:	030006e0 	tsteq	r0, #224, 12	; 0xe000000
    a9c4:	030006e0 	tsteq	r0, #224, 12	; 0xe000000
    a9c8:	030006e8 	tsteq	r0, #232, 12	; 0xe800000
    a9cc:	030006e8 	tsteq	r0, #232, 12	; 0xe800000
    a9d0:	030006f0 	tsteq	r0, #240, 12	; 0xf000000
    a9d4:	030006f0 	tsteq	r0, #240, 12	; 0xf000000
    a9d8:	030006f8 	tsteq	r0, #248, 12	; 0xf800000
    a9dc:	030006f8 	tsteq	r0, #248, 12	; 0xf800000
    a9e0:	03000700 	tsteq	r0, #0, 14
    a9e4:	03000700 	tsteq	r0, #0, 14
    a9e8:	03000708 	tsteq	r0, #8, 14	; 0x200000
    a9ec:	03000708 	tsteq	r0, #8, 14	; 0x200000
    a9f0:	03000710 	tsteq	r0, #16, 14	; 0x400000
    a9f4:	03000710 	tsteq	r0, #16, 14	; 0x400000
    a9f8:	03000718 	tsteq	r0, #24, 14	; 0x600000
    a9fc:	03000718 	tsteq	r0, #24, 14	; 0x600000
    aa00:	03000720 	tsteq	r0, #32, 14	; 0x800000
    aa04:	03000720 	tsteq	r0, #32, 14	; 0x800000
    aa08:	03000728 	tsteq	r0, #40, 14	; 0xa00000
    aa0c:	03000728 	tsteq	r0, #40, 14	; 0xa00000
    aa10:	03000730 	tsteq	r0, #48, 14	; 0xc00000
    aa14:	03000730 	tsteq	r0, #48, 14	; 0xc00000
    aa18:	03000738 	tsteq	r0, #56, 14	; 0xe00000
    aa1c:	03000738 	tsteq	r0, #56, 14	; 0xe00000
    aa20:	03000740 	tsteq	r0, #64, 14	; 0x1000000
    aa24:	03000740 	tsteq	r0, #64, 14	; 0x1000000
    aa28:	03000748 	tsteq	r0, #72, 14	; 0x1200000
    aa2c:	03000748 	tsteq	r0, #72, 14	; 0x1200000
    aa30:	03000750 	tsteq	r0, #80, 14	; 0x1400000
    aa34:	03000750 	tsteq	r0, #80, 14	; 0x1400000
    aa38:	ffffffff 			; <UNDEFINED> instruction: 0xffffffff
    aa3c:	00020000 	andeq	r0, r2, r0
    aa40:	00000001 	andeq	r0, r0, r1
	...
    aa4c:	03000778 	tsteq	r0, #120, 14	; 0x1e00000
    aa50:	00000000 	andeq	r0, r0, r0
    aa54:	03000a68 	tsteq	r0, #104, 20	; 0x68000
    aa58:	03000ae0 	tsteq	r0, #224, 20	; 0xe0000
    aa5c:	03000b58 	tsteq	r0, #88, 22	; 0x16000
	...
    aaf8:	00000001 	andeq	r0, r0, r1
    aafc:	00000000 	andeq	r0, r0, r0
    ab00:	abcd330e 	blge	0xff357740
    ab04:	e66d1234 			; <UNDEFINED> instruction: 0xe66d1234
    ab08:	0005deec 	andeq	sp, r5, ip, ror #29
    ab0c:	0000000b 	andeq	r0, r0, fp
	...
    aeb0:	08001bd8 	stmdaeq	r0, {r3, r4, r6, r7, r8, r9, fp, ip}
    aeb4:	08001b94 	stmdaeq	r0, {r2, r4, r7, r8, r9, fp, ip}
    aeb8:	52416b64 	subpl	r6, r1, #100, 22	; 0x19000
    aebc:	0000004d 	andeq	r0, r0, sp, asr #32
