
test.gba:     file format binary


Disassembly of section .data:

00000000 <.data>:
       0:	002e      	movs	r6, r5
       2:	ea00 0000 	and.w	r0, r0, r0
	...
      ae:	0000      	movs	r0, r0
      b0:	3130      	adds	r1, #48	; 0x30
      b2:	0096      	lsls	r6, r2, #2
	...
      bc:	f000 0000 	and.w	r0, r0, #0
      c0:	0006      	movs	r6, r0
      c2:	ea00 0000 	and.w	r0, r0, r0
	...
      de:	0000      	movs	r0, r0
      e0:	0301      	lsls	r1, r0, #12
      e2:	e3a0      	b.n	0x826
      e4:	0208      	lsls	r0, r1, #8
      e6:	e580      	b.n	0xfffffbea
      e8:	0012      	movs	r2, r2
      ea:	e3a0      	b.n	0x82e
      ec:	f000 e129 			; <UNDEFINED> instruction: 0xf000e129
      f0:	d0b8      	beq.n	0x64
      f2:	e59f      	b.n	0xfffffc34
      f4:	001f      	movs	r7, r3
      f6:	e3a0      	b.n	0x83a
      f8:	f000 e129 			; <UNDEFINED> instruction: 0xf000e129
      fc:	d0b0      	beq.n	0x60
      fe:	e59f      	b.n	0xfffffc40
     100:	0001      	movs	r1, r0
     102:	e28f      	b.n	0x624
     104:	ff10 e12f 	vrhadd.u16	d14, d0, d31
     108:	482b      	ldr	r0, [pc, #172]	; (0x1b8)
     10a:	0140      	lsls	r0, r0, #5
     10c:	d20b      	bcs.n	0x126
     10e:	4678      	mov	r0, pc
     110:	0140      	lsls	r0, r0, #5
     112:	d30d      	bcc.n	0x130
     114:	2202      	movs	r2, #2
     116:	0612      	lsls	r2, r2, #24
     118:	4b28      	ldr	r3, [pc, #160]	; (0x1bc)
     11a:	1a9b      	subs	r3, r3, r2
     11c:	1c16      	adds	r6, r2, #0
     11e:	0091      	lsls	r1, r2, #2
     120:	f000 f83c 	bl	0x19c
     124:	4730      	bx	r6
     126:	2140      	movs	r1, #64	; 0x40
     128:	0309      	lsls	r1, r1, #12
     12a:	01c8      	lsls	r0, r1, #7
     12c:	f000 f82b 	bl	0x186
     130:	4823      	ldr	r0, [pc, #140]	; (0x1c0)
     132:	4924      	ldr	r1, [pc, #144]	; (0x1c4)
     134:	1a09      	subs	r1, r1, r0
     136:	f000 f826 	bl	0x186
     13a:	4823      	ldr	r0, [pc, #140]	; (0x1c8)
     13c:	4923      	ldr	r1, [pc, #140]	; (0x1cc)
     13e:	1a09      	subs	r1, r1, r0
     140:	f000 f821 	bl	0x186
     144:	4922      	ldr	r1, [pc, #136]	; (0x1d0)
     146:	4a23      	ldr	r2, [pc, #140]	; (0x1d4)
     148:	4c23      	ldr	r4, [pc, #140]	; (0x1d8)
     14a:	f000 f826 	bl	0x19a
     14e:	4923      	ldr	r1, [pc, #140]	; (0x1dc)
     150:	4a23      	ldr	r2, [pc, #140]	; (0x1e0)
     152:	4c24      	ldr	r4, [pc, #144]	; (0x1e4)
     154:	f000 f821 	bl	0x19a
     158:	4a23      	ldr	r2, [pc, #140]	; (0x1e8)
     15a:	4924      	ldr	r1, [pc, #144]	; (0x1ec)
     15c:	1a53      	subs	r3, r2, r1
     15e:	d002      	beq.n	0x166
     160:	4a23      	ldr	r2, [pc, #140]	; (0x1f0)
     162:	f000 f81b 	bl	0x19c
     166:	4923      	ldr	r1, [pc, #140]	; (0x1f4)
     168:	4a23      	ldr	r2, [pc, #140]	; (0x1f8)
     16a:	4c24      	ldr	r4, [pc, #144]	; (0x1fc)
     16c:	f000 f815 	bl	0x19a
     170:	4923      	ldr	r1, [pc, #140]	; (0x200)
     172:	4824      	ldr	r0, [pc, #144]	; (0x204)
     174:	6008      	str	r0, [r1, #0]
     176:	4b24      	ldr	r3, [pc, #144]	; (0x208)
     178:	f000 f80e 	bl	0x198
     17c:	2000      	movs	r0, #0
     17e:	2100      	movs	r1, #0
     180:	4b22      	ldr	r3, [pc, #136]	; (0x20c)
     182:	f000 f809 	bl	0x198
     186:	2203      	movs	r2, #3
     188:	1889      	adds	r1, r1, r2
     18a:	4391      	bics	r1, r2
     18c:	d003      	beq.n	0x196
     18e:	2200      	movs	r2, #0
     190:	c004      	stmia	r0!, {r2}
     192:	3904      	subs	r1, #4
     194:	d1fc      	bne.n	0x190
     196:	4770      	bx	lr
     198:	4718      	bx	r3
     19a:	1aa3      	subs	r3, r4, r2
     19c:	2003      	movs	r0, #3
     19e:	181b      	adds	r3, r3, r0
     1a0:	4383      	bics	r3, r0
     1a2:	d003      	beq.n	0x1ac
     1a4:	c901      	ldmia	r1!, {r0}
     1a6:	c201      	stmia	r2!, {r0}
     1a8:	3b04      	subs	r3, #4
     1aa:	d1fb      	bne.n	0x1a4
     1ac:	4770      	bx	lr
     1ae:	46c0      	nop			; (mov r8, r8)
     1b0:	7fa0      	ldrb	r0, [r4, #30]
     1b2:	0300      	lsls	r0, r0, #12
     1b4:	7f00      	ldrb	r0, [r0, #28]
     1b6:	0300      	lsls	r0, r0, #12
     1b8:	0000      	movs	r0, r0
     1ba:	0800      	lsrs	r0, r0, #32
     1bc:	0000      	movs	r0, r0
     1be:	0200      	lsls	r0, r0, #8
     1c0:	0000      	movs	r0, r0
     1c2:	0300      	lsls	r0, r0, #12
     1c4:	01ec      	lsls	r4, r5, #7
     1c6:	0300      	lsls	r0, r0, #12
     1c8:	0000      	movs	r0, r0
     1ca:	0200      	lsls	r0, r0, #8
     1cc:	0000      	movs	r0, r0
     1ce:	0200      	lsls	r0, r0, #8
     1d0:	78bc      	ldrb	r4, [r7, #2]
     1d2:	0800      	lsrs	r0, r0, #32
     1d4:	01ec      	lsls	r4, r5, #7
     1d6:	0300      	lsls	r0, r0, #12
     1d8:	0be0      	lsrs	r0, r4, #15
     1da:	0300      	lsls	r0, r0, #12
     1dc:	78bc      	ldrb	r4, [r7, #2]
     1de:	0800      	lsrs	r0, r0, #32
     1e0:	0000      	movs	r0, r0
     1e2:	0300      	lsls	r0, r0, #12
     1e4:	0000      	movs	r0, r0
     1e6:	0300      	lsls	r0, r0, #12
     1e8:	82b0      	strh	r0, [r6, #20]
     1ea:	0800      	lsrs	r0, r0, #32
     1ec:	82b0      	strh	r0, [r6, #20]
     1ee:	0800      	lsrs	r0, r0, #32
     1f0:	0be0      	lsrs	r0, r4, #15
     1f2:	0300      	lsls	r0, r0, #12
     1f4:	82b0      	strh	r0, [r6, #20]
     1f6:	0800      	lsrs	r0, r0, #32
     1f8:	0000      	movs	r0, r0
     1fa:	0200      	lsls	r0, r0, #8
     1fc:	0000      	movs	r0, r0
     1fe:	0200      	lsls	r0, r0, #8
     200:	011c      	lsls	r4, r3, #4
     202:	0300      	lsls	r0, r0, #12
     204:	0000      	movs	r0, r0
     206:	0204      	lsls	r4, r0, #8
     208:	1985      	adds	r5, r0, r6
     20a:	0800      	lsrs	r0, r0, #32
     20c:	1905      	adds	r5, r0, r4
     20e:	0800      	lsrs	r0, r0, #32
     210:	b5f8      	push	{r3, r4, r5, r6, r7, lr}
     212:	46c0      	nop			; (mov r8, r8)
     214:	bcf8      	pop	{r3, r4, r5, r6, r7}
     216:	bc08      	pop	{r3}
     218:	469e      	mov	lr, r3
     21a:	4770      	bx	lr
     21c:	0000      	movs	r0, r0
     21e:	0000      	movs	r0, r0
     220:	b5f8      	push	{r3, r4, r5, r6, r7, lr}
     222:	4647      	mov	r7, r8
     224:	46ce      	mov	lr, r9
     226:	0006      	movs	r6, r0
     228:	b580      	push	{r7, lr}
     22a:	1e0f      	subs	r7, r1, #0
     22c:	d10c      	bne.n	0x248
     22e:	2330      	movs	r3, #48	; 0x30
     230:	7003      	strb	r3, [r0, #0]
     232:	3b2f      	subs	r3, #47	; 0x2f
     234:	4698      	mov	r8, r3
     236:	4642      	mov	r2, r8
     238:	2300      	movs	r3, #0
     23a:	54b3      	strb	r3, [r6, r2]
     23c:	bc0c      	pop	{r2, r3}
     23e:	4690      	mov	r8, r2
     240:	4699      	mov	r9, r3
     242:	bcf8      	pop	{r3, r4, r5, r6, r7}
     244:	bc01      	pop	{r0}
     246:	4700      	bx	r0
     248:	1e43      	subs	r3, r0, #1
     24a:	2500      	movs	r5, #0
     24c:	4699      	mov	r9, r3
     24e:	e001      	b.n	0x254
     250:	4645      	mov	r5, r8
     252:	0007      	movs	r7, r0
     254:	1c6b      	adds	r3, r5, #1
     256:	4698      	mov	r8, r3
     258:	210a      	movs	r1, #10
     25a:	0038      	movs	r0, r7
     25c:	f007 f896 	bl	0x738c
     260:	464b      	mov	r3, r9
     262:	4642      	mov	r2, r8
     264:	3130      	adds	r1, #48	; 0x30
     266:	060c      	lsls	r4, r1, #24
     268:	0e24      	lsrs	r4, r4, #24
     26a:	549c      	strb	r4, [r3, r2]
     26c:	210a      	movs	r1, #10
     26e:	0038      	movs	r0, r7
     270:	f007 f898 	bl	0x73a4
     274:	2f09      	cmp	r7, #9
     276:	d8eb      	bhi.n	0x250
     278:	2d00      	cmp	r5, #0
     27a:	d00a      	beq.n	0x292
     27c:	2300      	movs	r3, #0
     27e:	e000      	b.n	0x282
     280:	5d74      	ldrb	r4, [r6, r5]
     282:	5cf2      	ldrb	r2, [r6, r3]
     284:	54f4      	strb	r4, [r6, r3]
     286:	5572      	strb	r2, [r6, r5]
     288:	3301      	adds	r3, #1
     28a:	3d01      	subs	r5, #1
     28c:	42ab      	cmp	r3, r5
     28e:	d3f7      	bcc.n	0x280
     290:	e7d1      	b.n	0x236
     292:	2301      	movs	r3, #1
     294:	4698      	mov	r8, r3
     296:	e7ce      	b.n	0x236
     298:	b5f0      	push	{r4, r5, r6, r7, lr}
     29a:	4646      	mov	r6, r8
     29c:	46d6      	mov	lr, sl
     29e:	464f      	mov	r7, r9
     2a0:	4688      	mov	r8, r1
     2a2:	b5c0      	push	{r6, r7, lr}
     2a4:	000b      	movs	r3, r1
     2a6:	0006      	movs	r6, r0
     2a8:	2900      	cmp	r1, #0
     2aa:	db0c      	blt.n	0x2c6
     2ac:	d136      	bne.n	0x31c
     2ae:	3330      	adds	r3, #48	; 0x30
     2b0:	7003      	strb	r3, [r0, #0]
     2b2:	1c42      	adds	r2, r0, #1
     2b4:	2300      	movs	r3, #0
     2b6:	7013      	strb	r3, [r2, #0]
     2b8:	bc1c      	pop	{r2, r3, r4}
     2ba:	4690      	mov	r8, r2
     2bc:	4699      	mov	r9, r3
     2be:	46a2      	mov	sl, r4
     2c0:	bcf0      	pop	{r4, r5, r6, r7}
     2c2:	bc01      	pop	{r0}
     2c4:	4700      	bx	r0
     2c6:	232d      	movs	r3, #45	; 0x2d
     2c8:	7003      	strb	r3, [r0, #0]
     2ca:	424b      	negs	r3, r1
     2cc:	4698      	mov	r8, r3
     2ce:	2701      	movs	r7, #1
     2d0:	1e73      	subs	r3, r6, #1
     2d2:	003d      	movs	r5, r7
     2d4:	469a      	mov	sl, r3
     2d6:	e000      	b.n	0x2da
     2d8:	464d      	mov	r5, r9
     2da:	1c6b      	adds	r3, r5, #1
     2dc:	4699      	mov	r9, r3
     2de:	4640      	mov	r0, r8
     2e0:	210a      	movs	r1, #10
     2e2:	f007 f829 	bl	0x7338
     2e6:	4653      	mov	r3, sl
     2e8:	464a      	mov	r2, r9
     2ea:	3130      	adds	r1, #48	; 0x30
     2ec:	060c      	lsls	r4, r1, #24
     2ee:	0e24      	lsrs	r4, r4, #24
     2f0:	549c      	strb	r4, [r3, r2]
     2f2:	4640      	mov	r0, r8
     2f4:	210a      	movs	r1, #10
     2f6:	f007 f83f 	bl	0x7378
     2fa:	464b      	mov	r3, r9
     2fc:	4680      	mov	r8, r0
     2fe:	18f2      	adds	r2, r6, r3
     300:	2800      	cmp	r0, #0
     302:	d1e9      	bne.n	0x2d8
     304:	42af      	cmp	r7, r5
     306:	d301      	bcc.n	0x30c
     308:	e7d4      	b.n	0x2b4
     30a:	5d74      	ldrb	r4, [r6, r5]
     30c:	5df3      	ldrb	r3, [r6, r7]
     30e:	55f4      	strb	r4, [r6, r7]
     310:	5573      	strb	r3, [r6, r5]
     312:	3701      	adds	r7, #1
     314:	3d01      	subs	r5, #1
     316:	42af      	cmp	r7, r5
     318:	d3f7      	bcc.n	0x30a
     31a:	e7cb      	b.n	0x2b4
     31c:	2700      	movs	r7, #0
     31e:	e7d7      	b.n	0x2d0
     320:	b510      	push	{r4, lr}
     322:	2401      	movs	r4, #1
     324:	4907      	ldr	r1, [pc, #28]	; (0x344)
     326:	780b      	ldrb	r3, [r1, #0]
     328:	001a      	movs	r2, r3
     32a:	085b      	lsrs	r3, r3, #1
     32c:	4022      	ands	r2, r4
     32e:	429a      	cmp	r2, r3
     330:	d1f9      	bne.n	0x326
     332:	2201      	movs	r2, #1
     334:	4b04      	ldr	r3, [pc, #16]	; (0x348)
     336:	7018      	strb	r0, [r3, #0]
     338:	780b      	ldrb	r3, [r1, #0]
     33a:	4053      	eors	r3, r2
     33c:	700b      	strb	r3, [r1, #0]
     33e:	bc10      	pop	{r4}
     340:	bc01      	pop	{r0}
     342:	4700      	bx	r0
     344:	0401      	lsls	r1, r0, #16
     346:	0400      	lsls	r0, r0, #16
     348:	0400      	lsls	r0, r0, #16
     34a:	0400      	lsls	r0, r0, #16
     34c:	0603      	lsls	r3, r0, #24
     34e:	b510      	push	{r4, lr}
     350:	0e1b      	lsrs	r3, r3, #24
     352:	2809      	cmp	r0, #9
     354:	dc13      	bgt.n	0x37e
     356:	2401      	movs	r4, #1
     358:	3330      	adds	r3, #48	; 0x30
     35a:	061a      	lsls	r2, r3, #24
     35c:	480e      	ldr	r0, [pc, #56]	; (0x398)
     35e:	0e12      	lsrs	r2, r2, #24
     360:	7803      	ldrb	r3, [r0, #0]
     362:	0019      	movs	r1, r3
     364:	085b      	lsrs	r3, r3, #1
     366:	4021      	ands	r1, r4
     368:	4299      	cmp	r1, r3
     36a:	d1f9      	bne.n	0x360
     36c:	4b0b      	ldr	r3, [pc, #44]	; (0x39c)
     36e:	701a      	strb	r2, [r3, #0]
     370:	2201      	movs	r2, #1
     372:	7803      	ldrb	r3, [r0, #0]
     374:	4053      	eors	r3, r2
     376:	7003      	strb	r3, [r0, #0]
     378:	bc10      	pop	{r4}
     37a:	bc01      	pop	{r0}
     37c:	4700      	bx	r0
     37e:	2401      	movs	r4, #1
     380:	3357      	adds	r3, #87	; 0x57
     382:	061a      	lsls	r2, r3, #24
     384:	4804      	ldr	r0, [pc, #16]	; (0x398)
     386:	0e12      	lsrs	r2, r2, #24
     388:	7803      	ldrb	r3, [r0, #0]
     38a:	0019      	movs	r1, r3
     38c:	085b      	lsrs	r3, r3, #1
     38e:	4021      	ands	r1, r4
     390:	4299      	cmp	r1, r3
     392:	d1f9      	bne.n	0x388
     394:	e7ea      	b.n	0x36c
     396:	46c0      	nop			; (mov r8, r8)
     398:	0401      	lsls	r1, r0, #16
     39a:	0400      	lsls	r0, r0, #16
     39c:	0400      	lsls	r0, r0, #16
     39e:	0400      	lsls	r0, r0, #16
     3a0:	b5f0      	push	{r4, r5, r6, r7, lr}
     3a2:	7805      	ldrb	r5, [r0, #0]
     3a4:	2d00      	cmp	r5, #0
     3a6:	d013      	beq.n	0x3d0
     3a8:	2701      	movs	r7, #1
     3aa:	2401      	movs	r4, #1
     3ac:	490a      	ldr	r1, [pc, #40]	; (0x3d8)
     3ae:	4e0b      	ldr	r6, [pc, #44]	; (0x3dc)
     3b0:	3001      	adds	r0, #1
     3b2:	780b      	ldrb	r3, [r1, #0]
     3b4:	001a      	movs	r2, r3
     3b6:	085b      	lsrs	r3, r3, #1
     3b8:	4022      	ands	r2, r4
     3ba:	429a      	cmp	r2, r3
     3bc:	d1f9      	bne.n	0x3b2
     3be:	7035      	strb	r5, [r6, #0]
     3c0:	780b      	ldrb	r3, [r1, #0]
     3c2:	407b      	eors	r3, r7
     3c4:	700b      	strb	r3, [r1, #0]
     3c6:	3001      	adds	r0, #1
     3c8:	1e43      	subs	r3, r0, #1
     3ca:	781d      	ldrb	r5, [r3, #0]
     3cc:	2d00      	cmp	r5, #0
     3ce:	d1f0      	bne.n	0x3b2
     3d0:	bcf0      	pop	{r4, r5, r6, r7}
     3d2:	bc01      	pop	{r0}
     3d4:	4700      	bx	r0
     3d6:	46c0      	nop			; (mov r8, r8)
     3d8:	0401      	lsls	r1, r0, #16
     3da:	0400      	lsls	r0, r0, #16
     3dc:	0400      	lsls	r0, r0, #16
     3de:	0400      	lsls	r0, r0, #16
     3e0:	b510      	push	{r4, lr}
     3e2:	9c02      	ldr	r4, [sp, #8]
     3e4:	02a4      	lsls	r4, r4, #10
     3e6:	18a4      	adds	r4, r4, r2
     3e8:	22c0      	movs	r2, #192	; 0xc0
     3ea:	04d2      	lsls	r2, r2, #19
     3ec:	4694      	mov	ip, r2
     3ee:	015b      	lsls	r3, r3, #5
     3f0:	18e4      	adds	r4, r4, r3
     3f2:	020b      	lsls	r3, r1, #8
     3f4:	0109      	lsls	r1, r1, #4
     3f6:	1a5b      	subs	r3, r3, r1
     3f8:	181b      	adds	r3, r3, r0
     3fa:	0424      	lsls	r4, r4, #16
     3fc:	005b      	lsls	r3, r3, #1
     3fe:	0c24      	lsrs	r4, r4, #16
     400:	4463      	add	r3, ip
     402:	801c      	strh	r4, [r3, #0]
     404:	bc10      	pop	{r4}
     406:	bc01      	pop	{r0}
     408:	4700      	bx	r0
     40a:	46c0      	nop			; (mov r8, r8)
     40c:	b40f      	push	{r0, r1, r2, r3}
     40e:	b5f0      	push	{r4, r5, r6, r7, lr}
     410:	46d6      	mov	lr, sl
     412:	464f      	mov	r7, r9
     414:	4646      	mov	r6, r8
     416:	b5c0      	push	{r6, r7, lr}
     418:	b082      	sub	sp, #8
     41a:	ab0a      	add	r3, sp, #40	; 0x28
     41c:	cb01      	ldmia	r3!, {r0}
     41e:	9301      	str	r3, [sp, #4]
     420:	7805      	ldrb	r5, [r0, #0]
     422:	4b51      	ldr	r3, [pc, #324]	; (0x568)
     424:	4c51      	ldr	r4, [pc, #324]	; (0x56c)
     426:	469a      	mov	sl, r3
     428:	4699      	mov	r9, r3
     42a:	2d00      	cmp	r5, #0
     42c:	d030      	beq.n	0x490
     42e:	2101      	movs	r1, #1
     430:	2d25      	cmp	r5, #37	; 0x25
     432:	d137      	bne.n	0x4a4
     434:	7843      	ldrb	r3, [r0, #1]
     436:	1c85      	adds	r5, r0, #2
     438:	2b64      	cmp	r3, #100	; 0x64
     43a:	d054      	beq.n	0x4e6
     43c:	d941      	bls.n	0x4c2
     43e:	2b73      	cmp	r3, #115	; 0x73
     440:	d100      	bne.n	0x444
     442:	e072      	b.n	0x52a
     444:	2b75      	cmp	r3, #117	; 0x75
     446:	d11f      	bne.n	0x488
     448:	9b01      	ldr	r3, [sp, #4]
     44a:	4648      	mov	r0, r9
     44c:	1d1a      	adds	r2, r3, #4
     44e:	6819      	ldr	r1, [r3, #0]
     450:	9201      	str	r2, [sp, #4]
     452:	f7ff fee5 	bl	0x220
     456:	464b      	mov	r3, r9
     458:	781e      	ldrb	r6, [r3, #0]
     45a:	2e00      	cmp	r6, #0
     45c:	d014      	beq.n	0x488
     45e:	1c58      	adds	r0, r3, #1
     460:	2301      	movs	r3, #1
     462:	2101      	movs	r1, #1
     464:	4698      	mov	r8, r3
     466:	4f42      	ldr	r7, [pc, #264]	; (0x570)
     468:	7823      	ldrb	r3, [r4, #0]
     46a:	001a      	movs	r2, r3
     46c:	085b      	lsrs	r3, r3, #1
     46e:	400a      	ands	r2, r1
     470:	429a      	cmp	r2, r3
     472:	d1f9      	bne.n	0x468
     474:	4642      	mov	r2, r8
     476:	703e      	strb	r6, [r7, #0]
     478:	7823      	ldrb	r3, [r4, #0]
     47a:	4053      	eors	r3, r2
     47c:	7023      	strb	r3, [r4, #0]
     47e:	3001      	adds	r0, #1
     480:	1e43      	subs	r3, r0, #1
     482:	781e      	ldrb	r6, [r3, #0]
     484:	2e00      	cmp	r6, #0
     486:	d1ef      	bne.n	0x468
     488:	0028      	movs	r0, r5
     48a:	7805      	ldrb	r5, [r0, #0]
     48c:	2d00      	cmp	r5, #0
     48e:	d1ce      	bne.n	0x42e
     490:	2000      	movs	r0, #0
     492:	b002      	add	sp, #8
     494:	bc1c      	pop	{r2, r3, r4}
     496:	4690      	mov	r8, r2
     498:	4699      	mov	r9, r3
     49a:	46a2      	mov	sl, r4
     49c:	bcf0      	pop	{r4, r5, r6, r7}
     49e:	bc08      	pop	{r3}
     4a0:	b004      	add	sp, #16
     4a2:	4718      	bx	r3
     4a4:	7823      	ldrb	r3, [r4, #0]
     4a6:	001a      	movs	r2, r3
     4a8:	085b      	lsrs	r3, r3, #1
     4aa:	400a      	ands	r2, r1
     4ac:	429a      	cmp	r2, r3
     4ae:	d1f9      	bne.n	0x4a4
     4b0:	2201      	movs	r2, #1
     4b2:	4b2f      	ldr	r3, [pc, #188]	; (0x570)
     4b4:	701d      	strb	r5, [r3, #0]
     4b6:	7823      	ldrb	r3, [r4, #0]
     4b8:	1c45      	adds	r5, r0, #1
     4ba:	4053      	eors	r3, r2
     4bc:	7023      	strb	r3, [r4, #0]
     4be:	0028      	movs	r0, r5
     4c0:	e7e3      	b.n	0x48a
     4c2:	2b25      	cmp	r3, #37	; 0x25
     4c4:	d1e0      	bne.n	0x488
     4c6:	2101      	movs	r1, #1
     4c8:	7823      	ldrb	r3, [r4, #0]
     4ca:	001a      	movs	r2, r3
     4cc:	085b      	lsrs	r3, r3, #1
     4ce:	400a      	ands	r2, r1
     4d0:	429a      	cmp	r2, r3
     4d2:	d1f9      	bne.n	0x4c8
     4d4:	2225      	movs	r2, #37	; 0x25
     4d6:	4b26      	ldr	r3, [pc, #152]	; (0x570)
     4d8:	701a      	strb	r2, [r3, #0]
     4da:	2201      	movs	r2, #1
     4dc:	7823      	ldrb	r3, [r4, #0]
     4de:	4053      	eors	r3, r2
     4e0:	7023      	strb	r3, [r4, #0]
     4e2:	0028      	movs	r0, r5
     4e4:	e7d1      	b.n	0x48a
     4e6:	9b01      	ldr	r3, [sp, #4]
     4e8:	4650      	mov	r0, sl
     4ea:	1d1a      	adds	r2, r3, #4
     4ec:	6819      	ldr	r1, [r3, #0]
     4ee:	9201      	str	r2, [sp, #4]
     4f0:	f7ff fed2 	bl	0x298
     4f4:	4653      	mov	r3, sl
     4f6:	781e      	ldrb	r6, [r3, #0]
     4f8:	2e00      	cmp	r6, #0
     4fa:	d0c5      	beq.n	0x488
     4fc:	1c58      	adds	r0, r3, #1
     4fe:	4b1c      	ldr	r3, [pc, #112]	; (0x570)
     500:	2701      	movs	r7, #1
     502:	2101      	movs	r1, #1
     504:	469c      	mov	ip, r3
     506:	7823      	ldrb	r3, [r4, #0]
     508:	001a      	movs	r2, r3
     50a:	085b      	lsrs	r3, r3, #1
     50c:	400a      	ands	r2, r1
     50e:	429a      	cmp	r2, r3
     510:	d1f9      	bne.n	0x506
     512:	4663      	mov	r3, ip
     514:	701e      	strb	r6, [r3, #0]
     516:	7823      	ldrb	r3, [r4, #0]
     518:	407b      	eors	r3, r7
     51a:	7023      	strb	r3, [r4, #0]
     51c:	3001      	adds	r0, #1
     51e:	1e43      	subs	r3, r0, #1
     520:	781e      	ldrb	r6, [r3, #0]
     522:	2e00      	cmp	r6, #0
     524:	d1ef      	bne.n	0x506
     526:	0028      	movs	r0, r5
     528:	e7af      	b.n	0x48a
     52a:	9b01      	ldr	r3, [sp, #4]
     52c:	6818      	ldr	r0, [r3, #0]
     52e:	7806      	ldrb	r6, [r0, #0]
     530:	1d1a      	adds	r2, r3, #4
     532:	9201      	str	r2, [sp, #4]
     534:	2e00      	cmp	r6, #0
     536:	d0a7      	beq.n	0x488
     538:	4b0d      	ldr	r3, [pc, #52]	; (0x570)
     53a:	2701      	movs	r7, #1
     53c:	2101      	movs	r1, #1
     53e:	469c      	mov	ip, r3
     540:	3001      	adds	r0, #1
     542:	7823      	ldrb	r3, [r4, #0]
     544:	001a      	movs	r2, r3
     546:	085b      	lsrs	r3, r3, #1
     548:	400a      	ands	r2, r1
     54a:	429a      	cmp	r2, r3
     54c:	d1f9      	bne.n	0x542
     54e:	4663      	mov	r3, ip
     550:	701e      	strb	r6, [r3, #0]
     552:	7823      	ldrb	r3, [r4, #0]
     554:	407b      	eors	r3, r7
     556:	7023      	strb	r3, [r4, #0]
     558:	3001      	adds	r0, #1
     55a:	1e43      	subs	r3, r0, #1
     55c:	781e      	ldrb	r6, [r3, #0]
     55e:	2e00      	cmp	r6, #0
     560:	d1ef      	bne.n	0x542
     562:	0028      	movs	r0, r5
     564:	e791      	b.n	0x48a
     566:	46c0      	nop			; (mov r8, r8)
     568:	001c      	movs	r4, r3
     56a:	0300      	lsls	r0, r0, #12
     56c:	0401      	lsls	r1, r0, #16
     56e:	0400      	lsls	r0, r0, #16
     570:	0400      	lsls	r0, r0, #16
     572:	0400      	lsls	r0, r0, #16
     574:	2000      	movs	r0, #0
     576:	4770      	bx	lr
     578:	b40e      	push	{r1, r2, r3}
     57a:	b5f0      	push	{r4, r5, r6, r7, lr}
     57c:	464e      	mov	r6, r9
     57e:	4645      	mov	r5, r8
     580:	46de      	mov	lr, fp
     582:	4657      	mov	r7, sl
     584:	b5e0      	push	{r5, r6, r7, lr}
     586:	b082      	sub	sp, #8
     588:	ab0b      	add	r3, sp, #44	; 0x2c
     58a:	cb04      	ldmia	r3!, {r2}
     58c:	9301      	str	r3, [sp, #4]
     58e:	4b36      	ldr	r3, [pc, #216]	; (0x668)
     590:	469b      	mov	fp, r3
     592:	2364      	movs	r3, #100	; 0x64
     594:	445b      	add	r3, fp
     596:	0006      	movs	r6, r0
     598:	2400      	movs	r4, #0
     59a:	0005      	movs	r5, r0
     59c:	4699      	mov	r9, r3
     59e:	46d8      	mov	r8, fp
     5a0:	7813      	ldrb	r3, [r2, #0]
     5a2:	2b00      	cmp	r3, #0
     5a4:	d008      	beq.n	0x5b8
     5a6:	2b25      	cmp	r3, #37	; 0x25
     5a8:	d012      	beq.n	0x5d0
     5aa:	702b      	strb	r3, [r5, #0]
     5ac:	3201      	adds	r2, #1
     5ae:	7813      	ldrb	r3, [r2, #0]
     5b0:	3401      	adds	r4, #1
     5b2:	1935      	adds	r5, r6, r4
     5b4:	2b00      	cmp	r3, #0
     5b6:	d1f6      	bne.n	0x5a6
     5b8:	0020      	movs	r0, r4
     5ba:	702b      	strb	r3, [r5, #0]
     5bc:	b002      	add	sp, #8
     5be:	bc3c      	pop	{r2, r3, r4, r5}
     5c0:	4690      	mov	r8, r2
     5c2:	4699      	mov	r9, r3
     5c4:	46a2      	mov	sl, r4
     5c6:	46ab      	mov	fp, r5
     5c8:	bcf0      	pop	{r4, r5, r6, r7}
     5ca:	bc08      	pop	{r3}
     5cc:	b003      	add	sp, #12
     5ce:	4718      	bx	r3
     5d0:	7857      	ldrb	r7, [r2, #1]
     5d2:	1c93      	adds	r3, r2, #2
     5d4:	469a      	mov	sl, r3
     5d6:	2f64      	cmp	r7, #100	; 0x64
     5d8:	d01a      	beq.n	0x610
     5da:	d926      	bls.n	0x62a
     5dc:	2f73      	cmp	r7, #115	; 0x73
     5de:	d02b      	beq.n	0x638
     5e0:	2f75      	cmp	r7, #117	; 0x75
     5e2:	d120      	bne.n	0x626
     5e4:	4647      	mov	r7, r8
     5e6:	9b01      	ldr	r3, [sp, #4]
     5e8:	3764      	adds	r7, #100	; 0x64
     5ea:	1d1a      	adds	r2, r3, #4
     5ec:	6819      	ldr	r1, [r3, #0]
     5ee:	0038      	movs	r0, r7
     5f0:	9201      	str	r2, [sp, #4]
     5f2:	f7ff fe15 	bl	0x220
     5f6:	2364      	movs	r3, #100	; 0x64
     5f8:	4642      	mov	r2, r8
     5fa:	5cd2      	ldrb	r2, [r2, r3]
     5fc:	2a00      	cmp	r2, #0
     5fe:	d012      	beq.n	0x626
     600:	1e73      	subs	r3, r6, #1
     602:	1b39      	subs	r1, r7, r4
     604:	3401      	adds	r4, #1
     606:	551a      	strb	r2, [r3, r4]
     608:	5d0a      	ldrb	r2, [r1, r4]
     60a:	2a00      	cmp	r2, #0
     60c:	d1fa      	bne.n	0x604
     60e:	e010      	b.n	0x632
     610:	9b01      	ldr	r3, [sp, #4]
     612:	4648      	mov	r0, r9
     614:	1d1a      	adds	r2, r3, #4
     616:	6819      	ldr	r1, [r3, #0]
     618:	9201      	str	r2, [sp, #4]
     61a:	f7ff fe3d 	bl	0x298
     61e:	465b      	mov	r3, fp
     620:	5dda      	ldrb	r2, [r3, r7]
     622:	2a00      	cmp	r2, #0
     624:	d117      	bne.n	0x656
     626:	4652      	mov	r2, sl
     628:	e7ba      	b.n	0x5a0
     62a:	2f25      	cmp	r7, #37	; 0x25
     62c:	d1fb      	bne.n	0x626
     62e:	702f      	strb	r7, [r5, #0]
     630:	3401      	adds	r4, #1
     632:	4652      	mov	r2, sl
     634:	1935      	adds	r5, r6, r4
     636:	e7b3      	b.n	0x5a0
     638:	9b01      	ldr	r3, [sp, #4]
     63a:	6819      	ldr	r1, [r3, #0]
     63c:	1d1a      	adds	r2, r3, #4
     63e:	9201      	str	r2, [sp, #4]
     640:	780a      	ldrb	r2, [r1, #0]
     642:	2a00      	cmp	r2, #0
     644:	d0ef      	beq.n	0x626
     646:	1e73      	subs	r3, r6, #1
     648:	1b09      	subs	r1, r1, r4
     64a:	3401      	adds	r4, #1
     64c:	551a      	strb	r2, [r3, r4]
     64e:	5d0a      	ldrb	r2, [r1, r4]
     650:	2a00      	cmp	r2, #0
     652:	d1fa      	bne.n	0x64a
     654:	e7ed      	b.n	0x632
     656:	4649      	mov	r1, r9
     658:	1e73      	subs	r3, r6, #1
     65a:	1b09      	subs	r1, r1, r4
     65c:	3401      	adds	r4, #1
     65e:	551a      	strb	r2, [r3, r4]
     660:	5d0a      	ldrb	r2, [r1, r4]
     662:	2a00      	cmp	r2, #0
     664:	d1fa      	bne.n	0x65c
     666:	e7e4      	b.n	0x632
     668:	001c      	movs	r4, r3
     66a:	0300      	lsls	r0, r0, #12
     66c:	b40c      	push	{r2, r3}
     66e:	2000      	movs	r0, #0
     670:	b002      	add	sp, #8
     672:	4770      	bx	lr
     674:	7803      	ldrb	r3, [r0, #0]
     676:	2b00      	cmp	r3, #0
     678:	d006      	beq.n	0x688
     67a:	2300      	movs	r3, #0
     67c:	3301      	adds	r3, #1
     67e:	5cc2      	ldrb	r2, [r0, r3]
     680:	2a00      	cmp	r2, #0
     682:	d1fb      	bne.n	0x67c
     684:	0018      	movs	r0, r3
     686:	4770      	bx	lr
     688:	2300      	movs	r3, #0
     68a:	e7fb      	b.n	0x684
     68c:	780a      	ldrb	r2, [r1, #0]
     68e:	2a00      	cmp	r2, #0
     690:	d009      	beq.n	0x6a6
     692:	2300      	movs	r3, #0
     694:	54c2      	strb	r2, [r0, r3]
     696:	3301      	adds	r3, #1
     698:	5cca      	ldrb	r2, [r1, r3]
     69a:	2a00      	cmp	r2, #0
     69c:	d1fa      	bne.n	0x694
     69e:	18c3      	adds	r3, r0, r3
     6a0:	2200      	movs	r2, #0
     6a2:	701a      	strb	r2, [r3, #0]
     6a4:	4770      	bx	lr
     6a6:	0003      	movs	r3, r0
     6a8:	e7fa      	b.n	0x6a0
     6aa:	46c0      	nop			; (mov r8, r8)
     6ac:	b510      	push	{r4, lr}
     6ae:	2a00      	cmp	r2, #0
     6b0:	d00b      	beq.n	0x6ca
     6b2:	780c      	ldrb	r4, [r1, #0]
     6b4:	2c00      	cmp	r4, #0
     6b6:	d00f      	beq.n	0x6d8
     6b8:	2300      	movs	r3, #0
     6ba:	e002      	b.n	0x6c2
     6bc:	5ccc      	ldrb	r4, [r1, r3]
     6be:	2c00      	cmp	r4, #0
     6c0:	d006      	beq.n	0x6d0
     6c2:	54c4      	strb	r4, [r0, r3]
     6c4:	3301      	adds	r3, #1
     6c6:	429a      	cmp	r2, r3
     6c8:	d1f8      	bne.n	0x6bc
     6ca:	bc10      	pop	{r4}
     6cc:	bc02      	pop	{r1}
     6ce:	4708      	bx	r1
     6d0:	18c3      	adds	r3, r0, r3
     6d2:	2200      	movs	r2, #0
     6d4:	701a      	strb	r2, [r3, #0]
     6d6:	e7f8      	b.n	0x6ca
     6d8:	0003      	movs	r3, r0
     6da:	e7fa      	b.n	0x6d2
     6dc:	7803      	ldrb	r3, [r0, #0]
     6de:	b530      	push	{r4, r5, lr}
     6e0:	2b00      	cmp	r3, #0
     6e2:	d016      	beq.n	0x712
     6e4:	2200      	movs	r2, #0
     6e6:	3201      	adds	r2, #1
     6e8:	5c84      	ldrb	r4, [r0, r2]
     6ea:	1883      	adds	r3, r0, r2
     6ec:	2c00      	cmp	r4, #0
     6ee:	d1fa      	bne.n	0x6e6
     6f0:	780c      	ldrb	r4, [r1, #0]
     6f2:	2c00      	cmp	r4, #0
     6f4:	d008      	beq.n	0x708
     6f6:	2300      	movs	r3, #0
     6f8:	1885      	adds	r5, r0, r2
     6fa:	54ec      	strb	r4, [r5, r3]
     6fc:	3301      	adds	r3, #1
     6fe:	5ccc      	ldrb	r4, [r1, r3]
     700:	2c00      	cmp	r4, #0
     702:	d1fa      	bne.n	0x6fa
     704:	189b      	adds	r3, r3, r2
     706:	18c3      	adds	r3, r0, r3
     708:	2200      	movs	r2, #0
     70a:	701a      	strb	r2, [r3, #0]
     70c:	bc30      	pop	{r4, r5}
     70e:	bc02      	pop	{r1}
     710:	4708      	bx	r1
     712:	0003      	movs	r3, r0
     714:	2200      	movs	r2, #0
     716:	e7eb      	b.n	0x6f0
     718:	b510      	push	{r4, lr}
     71a:	780c      	ldrb	r4, [r1, #0]
     71c:	7802      	ldrb	r2, [r0, #0]
     71e:	4294      	cmp	r4, r2
     720:	d10a      	bne.n	0x738
     722:	2c00      	cmp	r4, #0
     724:	d010      	beq.n	0x748
     726:	2300      	movs	r3, #0
     728:	e001      	b.n	0x72e
     72a:	2a00      	cmp	r2, #0
     72c:	d00c      	beq.n	0x748
     72e:	3301      	adds	r3, #1
     730:	5cc2      	ldrb	r2, [r0, r3]
     732:	5ccc      	ldrb	r4, [r1, r3]
     734:	42a2      	cmp	r2, r4
     736:	d0f8      	beq.n	0x72a
     738:	42a2      	cmp	r2, r4
     73a:	4180      	sbcs	r0, r0
     73c:	2301      	movs	r3, #1
     73e:	4398      	bics	r0, r3
     740:	3001      	adds	r0, #1
     742:	bc10      	pop	{r4}
     744:	bc02      	pop	{r1}
     746:	4708      	bx	r1
     748:	2000      	movs	r0, #0
     74a:	e7fa      	b.n	0x742
     74c:	b530      	push	{r4, r5, lr}
     74e:	2a00      	cmp	r2, #0
     750:	d010      	beq.n	0x774
     752:	7804      	ldrb	r4, [r0, #0]
     754:	780d      	ldrb	r5, [r1, #0]
     756:	42a5      	cmp	r5, r4
     758:	d110      	bne.n	0x77c
     75a:	2d00      	cmp	r5, #0
     75c:	d00a      	beq.n	0x774
     75e:	2300      	movs	r3, #0
     760:	e005      	b.n	0x76e
     762:	5cc4      	ldrb	r4, [r0, r3]
     764:	5ccd      	ldrb	r5, [r1, r3]
     766:	42ac      	cmp	r4, r5
     768:	d108      	bne.n	0x77c
     76a:	2c00      	cmp	r4, #0
     76c:	d002      	beq.n	0x774
     76e:	3301      	adds	r3, #1
     770:	429a      	cmp	r2, r3
     772:	d1f6      	bne.n	0x762
     774:	2000      	movs	r0, #0
     776:	bc30      	pop	{r4, r5}
     778:	bc02      	pop	{r1}
     77a:	4708      	bx	r1
     77c:	42ac      	cmp	r4, r5
     77e:	4180      	sbcs	r0, r0
     780:	2301      	movs	r3, #1
     782:	4398      	bics	r0, r3
     784:	3001      	adds	r0, #1
     786:	e7f6      	b.n	0x776
     788:	2a00      	cmp	r2, #0
     78a:	d007      	beq.n	0x79c
     78c:	0003      	movs	r3, r0
     78e:	0609      	lsls	r1, r1, #24
     790:	0e09      	lsrs	r1, r1, #24
     792:	1882      	adds	r2, r0, r2
     794:	7019      	strb	r1, [r3, #0]
     796:	3301      	adds	r3, #1
     798:	4293      	cmp	r3, r2
     79a:	d1fb      	bne.n	0x794
     79c:	4770      	bx	lr
     79e:	46c0      	nop			; (mov r8, r8)
     7a0:	b510      	push	{r4, lr}
     7a2:	2a00      	cmp	r2, #0
     7a4:	d005      	beq.n	0x7b2
     7a6:	2300      	movs	r3, #0
     7a8:	5ccc      	ldrb	r4, [r1, r3]
     7aa:	54c4      	strb	r4, [r0, r3]
     7ac:	3301      	adds	r3, #1
     7ae:	429a      	cmp	r2, r3
     7b0:	d1fa      	bne.n	0x7a8
     7b2:	bc10      	pop	{r4}
     7b4:	bc02      	pop	{r1}
     7b6:	4708      	bx	r1
     7b8:	b530      	push	{r4, r5, lr}
     7ba:	2a00      	cmp	r2, #0
     7bc:	d010      	beq.n	0x7e0
     7be:	7804      	ldrb	r4, [r0, #0]
     7c0:	780d      	ldrb	r5, [r1, #0]
     7c2:	42a5      	cmp	r5, r4
     7c4:	d110      	bne.n	0x7e8
     7c6:	2d00      	cmp	r5, #0
     7c8:	d00a      	beq.n	0x7e0
     7ca:	2300      	movs	r3, #0
     7cc:	e005      	b.n	0x7da
     7ce:	5cc4      	ldrb	r4, [r0, r3]
     7d0:	5ccd      	ldrb	r5, [r1, r3]
     7d2:	42ac      	cmp	r4, r5
     7d4:	d108      	bne.n	0x7e8
     7d6:	2c00      	cmp	r4, #0
     7d8:	d002      	beq.n	0x7e0
     7da:	3301      	adds	r3, #1
     7dc:	429a      	cmp	r2, r3
     7de:	d1f6      	bne.n	0x7ce
     7e0:	2000      	movs	r0, #0
     7e2:	bc30      	pop	{r4, r5}
     7e4:	bc02      	pop	{r1}
     7e6:	4708      	bx	r1
     7e8:	42ac      	cmp	r4, r5
     7ea:	4180      	sbcs	r0, r0
     7ec:	2301      	movs	r3, #1
     7ee:	4398      	bics	r0, r3
     7f0:	3001      	adds	r0, #1
     7f2:	e7f6      	b.n	0x7e2
     7f4:	2380      	movs	r3, #128	; 0x80
     7f6:	2203      	movs	r2, #3
     7f8:	04db      	lsls	r3, r3, #19
     7fa:	b510      	push	{r4, lr}
     7fc:	701a      	strb	r2, [r3, #0]
     7fe:	4b0b      	ldr	r3, [pc, #44]	; (0x82c)
     800:	3201      	adds	r2, #1
     802:	701a      	strb	r2, [r3, #0]
     804:	2800      	cmp	r0, #0
     806:	d007      	beq.n	0x818
     808:	4809      	ldr	r0, [pc, #36]	; (0x830)
     80a:	f7ff fdff 	bl	0x40c
     80e:	23c0      	movs	r3, #192	; 0xc0
     810:	221f      	movs	r2, #31
     812:	04db      	lsls	r3, r3, #19
     814:	801a      	strh	r2, [r3, #0]
     816:	e7fe      	b.n	0x816
     818:	4806      	ldr	r0, [pc, #24]	; (0x834)
     81a:	f7ff fdf7 	bl	0x40c
     81e:	23c0      	movs	r3, #192	; 0xc0
     820:	22f8      	movs	r2, #248	; 0xf8
     822:	04db      	lsls	r3, r3, #19
     824:	0092      	lsls	r2, r2, #2
     826:	801a      	strh	r2, [r3, #0]
     828:	e7f5      	b.n	0x816
     82a:	46c0      	nop			; (mov r8, r8)
     82c:	0001      	movs	r1, r0
     82e:	0400      	lsls	r0, r0, #16
     830:	73d0      	strb	r0, [r2, #15]
     832:	0800      	lsrs	r0, r0, #32
     834:	73e0      	strb	r0, [r4, #15]
     836:	0800      	lsrs	r0, r0, #32
     838:	b510      	push	{r4, lr}
     83a:	2800      	cmp	r0, #0
     83c:	d002      	beq.n	0x844
     83e:	bc10      	pop	{r4}
     840:	bc01      	pop	{r0}
     842:	4700      	bx	r0
     844:	3001      	adds	r0, #1
     846:	f7ff ffd5 	bl	0x7f4
     84a:	46c0      	nop			; (mov r8, r8)
     84c:	2001      	movs	r0, #1
     84e:	e251      	b.n	0xcf4
     850:	ff1e 012f 	vrhadd.u16	d0, d14, d31
     854:	0036      	movs	r6, r6
     856:	3a00      	subs	r2, #0
     858:	0001      	movs	r1, r0
     85a:	e150      	b.n	0xafe
     85c:	0022      	movs	r2, r4
     85e:	9a00      	ldr	r2, [sp, #0]
     860:	0002      	movs	r2, r0
     862:	e111      	b.n	0xa88
     864:	0023      	movs	r3, r4
     866:	0a00      	lsrs	r0, r0, #8
     868:	020e      	lsls	r6, r1, #8
     86a:	e311      	b.n	0xe90
     86c:	1181      	asrs	r1, r0, #6
     86e:	01a0      	lsls	r0, r4, #6
     870:	3008      	adds	r0, #8
     872:	03a0      	lsls	r0, r4, #14
     874:	3001      	adds	r0, #1
     876:	13a0      	asrs	r0, r4, #14
     878:	0201      	lsls	r1, r0, #8
     87a:	e351      	b.n	0xf20
     87c:	0000      	movs	r0, r0
     87e:	3151      	adds	r1, #81	; 0x51
     880:	1201      	asrs	r1, r0, #8
     882:	31a0      	adds	r1, #160	; 0xa0
     884:	3203      	adds	r2, #3
     886:	31a0      	adds	r1, #160	; 0xa0
     888:	fffa 3aff 			; <UNDEFINED> instruction: 0xfffa3aff
     88c:	0102      	lsls	r2, r0, #4
     88e:	e351      	b.n	0xf34
     890:	0000      	movs	r0, r0
     892:	3151      	adds	r1, #81	; 0x51
     894:	1081      	asrs	r1, r0, #2
     896:	31a0      	adds	r1, #160	; 0xa0
     898:	3083      	adds	r0, #131	; 0x83
     89a:	31a0      	adds	r1, #160	; 0xa0
     89c:	fffa 3aff 			; <UNDEFINED> instruction: 0xfffa3aff
     8a0:	2000      	movs	r0, #0
     8a2:	e3a0      	b.n	0xfe6
     8a4:	0001      	movs	r1, r0
     8a6:	e150      	b.n	0xb4a
     8a8:	0001      	movs	r1, r0
     8aa:	2040      	movs	r0, #64	; 0x40
     8ac:	2003      	movs	r0, #3
     8ae:	2182      	movs	r1, #130	; 0x82
     8b0:	00a1      	lsls	r1, r4, #2
     8b2:	e150      	b.n	0xb56
     8b4:	00a1      	lsls	r1, r4, #2
     8b6:	2040      	movs	r0, #64	; 0x40
     8b8:	20a3      	movs	r0, #163	; 0xa3
     8ba:	2182      	movs	r1, #130	; 0x82
     8bc:	0121      	lsls	r1, r4, #4
     8be:	e150      	b.n	0xb62
     8c0:	0121      	lsls	r1, r4, #4
     8c2:	2040      	movs	r0, #64	; 0x40
     8c4:	2123      	movs	r1, #35	; 0x23
     8c6:	2182      	movs	r1, #130	; 0x82
     8c8:	01a1      	lsls	r1, r4, #6
     8ca:	e150      	b.n	0xb6e
     8cc:	01a1      	lsls	r1, r4, #6
     8ce:	2040      	movs	r0, #64	; 0x40
     8d0:	21a3      	movs	r1, #163	; 0xa3
     8d2:	2182      	movs	r1, #130	; 0x82
     8d4:	0000      	movs	r0, r0
     8d6:	e350      	b.n	0xf7a
     8d8:	3223      	adds	r2, #35	; 0x23
     8da:	11b0      	asrs	r0, r6, #6
     8dc:	1221      	asrs	r1, r4, #8
     8de:	11a0      	asrs	r0, r4, #6
     8e0:	ffef 1aff 			; <UNDEFINED> instruction: 0xffef1aff
     8e4:	0002      	movs	r2, r0
     8e6:	e1a0      	b.n	0xc2a
     8e8:	ff1e e12f 	vrhadd.u16	d14, d14, d31
     8ec:	0001      	movs	r1, r0
     8ee:	03a0      	lsls	r0, r4, #14
     8f0:	0000      	movs	r0, r0
     8f2:	13a0      	asrs	r0, r4, #14
     8f4:	ff1e e12f 	vrhadd.u16	d14, d14, d31
     8f8:	0801      	lsrs	r1, r0, #32
     8fa:	e351      	b.n	0xfa0
     8fc:	1821      	adds	r1, r4, r0
     8fe:	21a0      	movs	r1, #160	; 0xa0
     900:	2010      	movs	r0, #16
     902:	23a0      	movs	r3, #160	; 0xa0
     904:	2000      	movs	r0, #0
     906:	33a0      	adds	r3, #160	; 0xa0
     908:	0c01      	lsrs	r1, r0, #16
     90a:	e351      	b.n	0xfb0
     90c:	1421      	asrs	r1, r4, #16
     90e:	21a0      	movs	r1, #160	; 0xa0
     910:	2008      	movs	r0, #8
     912:	2282      	movs	r2, #130	; 0x82
     914:	0010      	movs	r0, r2
     916:	e351      	b.n	0xfbc
     918:	1221      	asrs	r1, r4, #8
     91a:	21a0      	movs	r1, #160	; 0xa0
     91c:	2004      	movs	r0, #4
     91e:	2282      	movs	r2, #130	; 0x82
     920:	0004      	movs	r4, r0
     922:	e351      	b.n	0xfc8
     924:	2003      	movs	r0, #3
     926:	8282      	strh	r2, [r0, #20]
     928:	20a1      	movs	r0, #161	; 0xa1
     92a:	9082      	str	r0, [sp, #520]	; 0x208
     92c:	0230      	lsls	r0, r6, #8
     92e:	e1a0      	b.n	0xc72
     930:	ff1e e12f 	vrhadd.u16	d14, d14, d31
     934:	ff1f e12f 	vrhadd.u16	d14, d15, d31
     938:	0000      	movs	r0, r0
     93a:	e1a0      	b.n	0xc7e
     93c:	0000      	movs	r0, r0
     93e:	e350      	b.n	0xfe2
     940:	0000      	movs	r0, r0
     942:	13e0      	asrs	r0, r4, #15
     944:	1a8d      	subs	r5, r1, r2
     946:	ea00 0000 	and.w	r0, r0, r0
     94a:	e351      	b.n	0xff0
     94c:	fff8 0aff 			; <UNDEFINED> instruction: 0xfff80aff
     950:	4003      	ands	r3, r0
     952:	e92d ffbc 	stmdb	sp!, {r2, r3, r4, r5, r7, r8, r9, sl, fp, ip, sp, lr, pc}
     956:	ebff 4006 			; <UNDEFINED> instruction: 0xebff4006
     95a:	e8bd 0092 	ldmia.w	sp!, {r1, r4, r7}
     95e:	e003      	b.n	0x968
     960:	1003      	asrs	r3, r0, #32
     962:	e041      	b.n	0x9e8
     964:	ff1e e12f 	vrhadd.u16	d14, d14, d31
     968:	0000      	movs	r0, r0
     96a:	e351      	b.n	0x1010
     96c:	0043      	lsls	r3, r0, #1
     96e:	0a00      	lsrs	r0, r0, #8
     970:	c001      	stmia	r0!, {r0}
     972:	e020      	b.n	0x9b6
     974:	1000      	asrs	r0, r0, #32
     976:	4261      	negs	r1, r4
     978:	2001      	movs	r0, #1
     97a:	e251      	b.n	0xe20
     97c:	0027      	movs	r7, r4
     97e:	0a00      	lsrs	r0, r0, #8
     980:	3000      	adds	r0, #0
     982:	e1b0      	b.n	0xce6
     984:	3000      	adds	r0, #0
     986:	4260      	negs	r0, r4
     988:	0001      	movs	r1, r0
     98a:	e153      	b.n	0xc34
     98c:	0026      	movs	r6, r4
     98e:	9a00      	ldr	r2, [sp, #0]
     990:	0002      	movs	r2, r0
     992:	e111      	b.n	0xbb8
     994:	0028      	movs	r0, r5
     996:	0a00      	lsrs	r0, r0, #8
     998:	020e      	lsls	r6, r1, #8
     99a:	e311      	b.n	0xfc0
     99c:	1181      	asrs	r1, r0, #6
     99e:	01a0      	lsls	r0, r4, #6
     9a0:	2008      	movs	r0, #8
     9a2:	03a0      	lsls	r0, r4, #14
     9a4:	2001      	movs	r0, #1
     9a6:	13a0      	asrs	r0, r4, #14
     9a8:	0201      	lsls	r1, r0, #8
     9aa:	e351      	b.n	0x1050
     9ac:	0003      	movs	r3, r0
     9ae:	3151      	adds	r1, #81	; 0x51
     9b0:	1201      	asrs	r1, r0, #8
     9b2:	31a0      	adds	r1, #160	; 0xa0
     9b4:	2202      	movs	r2, #2
     9b6:	31a0      	adds	r1, #160	; 0xa0
     9b8:	fffa 3aff 			; <UNDEFINED> instruction: 0xfffa3aff
     9bc:	0102      	lsls	r2, r0, #4
     9be:	e351      	b.n	0x1064
     9c0:	0003      	movs	r3, r0
     9c2:	3151      	adds	r1, #81	; 0x51
     9c4:	1081      	asrs	r1, r0, #2
     9c6:	31a0      	adds	r1, #160	; 0xa0
     9c8:	2082      	movs	r0, #130	; 0x82
     9ca:	31a0      	adds	r1, #160	; 0xa0
     9cc:	fffa 3aff 			; <UNDEFINED> instruction: 0xfffa3aff
     9d0:	0000      	movs	r0, r0
     9d2:	e3a0      	b.n	0x1116
     9d4:	0001      	movs	r1, r0
     9d6:	e153      	b.n	0xc80
     9d8:	3001      	adds	r0, #1
     9da:	2043      	movs	r0, #67	; 0x43
     9dc:	0002      	movs	r2, r0
     9de:	2180      	movs	r1, #128	; 0x80
     9e0:	00a1      	lsls	r1, r4, #2
     9e2:	e153      	b.n	0xc8c
     9e4:	30a1      	adds	r0, #161	; 0xa1
     9e6:	2043      	movs	r0, #67	; 0x43
     9e8:	00a2      	lsls	r2, r4, #2
     9ea:	2180      	movs	r1, #128	; 0x80
     9ec:	0121      	lsls	r1, r4, #4
     9ee:	e153      	b.n	0xc98
     9f0:	3121      	adds	r1, #33	; 0x21
     9f2:	2043      	movs	r0, #67	; 0x43
     9f4:	0122      	lsls	r2, r4, #4
     9f6:	2180      	movs	r1, #128	; 0x80
     9f8:	01a1      	lsls	r1, r4, #6
     9fa:	e153      	b.n	0xca4
     9fc:	31a1      	adds	r1, #161	; 0xa1
     9fe:	2043      	movs	r0, #67	; 0x43
     a00:	01a2      	lsls	r2, r4, #6
     a02:	2180      	movs	r1, #128	; 0x80
     a04:	0000      	movs	r0, r0
     a06:	e353      	b.n	0x10b0
     a08:	2222      	movs	r2, #34	; 0x22
     a0a:	11b0      	asrs	r0, r6, #6
     a0c:	1221      	asrs	r1, r4, #8
     a0e:	11a0      	asrs	r0, r4, #6
     a10:	ffef 1aff 			; <UNDEFINED> instruction: 0xffef1aff
     a14:	0000      	movs	r0, r0
     a16:	e35c      	b.n	0x10d2
     a18:	0000      	movs	r0, r0
     a1a:	4260      	negs	r0, r4
     a1c:	ff1e e12f 	vrhadd.u16	d14, d14, d31
     a20:	0000      	movs	r0, r0
     a22:	e13c      	b.n	0xc9e
     a24:	0000      	movs	r0, r0
     a26:	4260      	negs	r0, r4
     a28:	ff1e e12f 	vrhadd.u16	d14, d14, d31
     a2c:	0000      	movs	r0, r0
     a2e:	33a0      	adds	r3, #160	; 0xa0
     a30:	0fcc      	lsrs	r4, r1, #31
     a32:	01a0      	lsls	r0, r4, #6
     a34:	0001      	movs	r1, r0
     a36:	0380      	lsls	r0, r0, #14
     a38:	ff1e e12f 	vrhadd.u16	d14, d14, d31
     a3c:	0801      	lsrs	r1, r0, #32
     a3e:	e351      	b.n	0x10e4
     a40:	1821      	adds	r1, r4, r0
     a42:	21a0      	movs	r1, #160	; 0xa0
     a44:	2010      	movs	r0, #16
     a46:	23a0      	movs	r3, #160	; 0xa0
     a48:	2000      	movs	r0, #0
     a4a:	33a0      	adds	r3, #160	; 0xa0
     a4c:	0c01      	lsrs	r1, r0, #16
     a4e:	e351      	b.n	0x10f4
     a50:	1421      	asrs	r1, r4, #16
     a52:	21a0      	movs	r1, #160	; 0xa0
     a54:	2008      	movs	r0, #8
     a56:	2282      	movs	r2, #130	; 0x82
     a58:	0010      	movs	r0, r2
     a5a:	e351      	b.n	0x1100
     a5c:	1221      	asrs	r1, r4, #8
     a5e:	21a0      	movs	r1, #160	; 0xa0
     a60:	2004      	movs	r0, #4
     a62:	2282      	movs	r2, #130	; 0x82
     a64:	0004      	movs	r4, r0
     a66:	e351      	b.n	0x110c
     a68:	2003      	movs	r0, #3
     a6a:	8282      	strh	r2, [r0, #20]
     a6c:	20a1      	movs	r0, #161	; 0xa1
     a6e:	9082      	str	r0, [sp, #520]	; 0x208
     a70:	0000      	movs	r0, r0
     a72:	e35c      	b.n	0x112e
     a74:	0233      	lsls	r3, r6, #8
     a76:	e1a0      	b.n	0xdba
     a78:	0000      	movs	r0, r0
     a7a:	4260      	negs	r0, r4
     a7c:	ff1e e12f 	vrhadd.u16	d14, d14, d31
     a80:	ff1f e12f 	vrhadd.u16	d14, d15, d31
     a84:	0000      	movs	r0, r0
     a86:	e1a0      	b.n	0xdca
     a88:	0000      	movs	r0, r0
     a8a:	e350      	b.n	0x112e
     a8c:	0102      	lsls	r2, r0, #4
     a8e:	c3e0      	stmia	r3!, {r5, r6, r7}
     a90:	0102      	lsls	r2, r0, #4
     a92:	b3a0      	cbz	r0, 0xafe
     a94:	1a39      	subs	r1, r7, r0
     a96:	ea00 0000 	and.w	r0, r0, r0
     a9a:	e351      	b.n	0x1140
     a9c:	fff7 0aff 			; <UNDEFINED> instruction: 0xfff70aff
     aa0:	4003      	ands	r3, r0
     aa2:	e92d ffb1 	stmdb	sp!, {r0, r4, r5, r7, r8, r9, sl, fp, ip, sp, lr, pc}
     aa6:	ebff 4006 			; <UNDEFINED> instruction: 0xebff4006
     aaa:	e8bd 0092 	ldmia.w	sp!, {r1, r4, r7}
     aae:	e003      	b.n	0xab8
     ab0:	1003      	asrs	r3, r0, #32
     ab2:	e041      	b.n	0xb38
     ab4:	ff1e e12f 	vrhadd.u16	d14, d14, d31
     ab8:	4770      	bx	lr
     aba:	46c0      	nop			; (mov r8, r8)
     abc:	c001      	stmia	r0!, {r0}
     abe:	e020      	b.n	0xb02
     ac0:	0003      	movs	r3, r0
     ac2:	e31c      	b.n	0x10fe
     ac4:	0021      	movs	r1, r4
     ac6:	1a00      	subs	r0, r0, r0
     ac8:	c003      	stmia	r0!, {r0, r1}
     aca:	e210      	b.n	0xeee
     acc:	0003      	movs	r3, r0
     ace:	e3c0      	b.n	0x1252
     ad0:	1003      	asrs	r3, r0, #32
     ad2:	e3c1      	b.n	0x1258
     ad4:	2004      	movs	r0, #4
     ad6:	e490      	b.n	0x3fa
     ad8:	3004      	adds	r0, #4
     ada:	0491      	lsls	r1, r2, #18
     adc:	0006      	movs	r6, r0
     ade:	0a00      	lsrs	r0, r0, #8
     ae0:	c003      	stmia	r0!, {r0, r1}
     ae2:	e22c      	b.n	0xf3e
     ae4:	34ff      	adds	r4, #255	; 0xff
     ae6:	e3e0      	b.n	0x12aa
     ae8:	c18c      	stmia	r1!, {r2, r3, r7}
     aea:	e1a0      	b.n	0xe2e
     aec:	cc33      	ldmia	r4, {r0, r1, r4, r5}
     aee:	e1a0      	b.n	0xe32
     af0:	3004      	adds	r0, #4
     af2:	e491      	b.n	0x418
     af4:	200c      	movs	r0, #12
     af6:	e182      	b.n	0xdfe
     af8:	300c      	adds	r0, #12
     afa:	e183      	b.n	0xe04
     afc:	4004      	ands	r4, r0
     afe:	e52d      	b.n	0x55c
     b00:	4001      	ands	r1, r0
     b02:	e3a0      	b.n	0x1246
     b04:	4404      	add	r4, r0
     b06:	e184      	b.n	0xe12
     b08:	4804      	ldr	r0, [pc, #16]	; (0xb1c)
     b0a:	e184      	b.n	0xe16
     b0c:	c004      	stmia	r0!, {r2}
     b0e:	e042      	b.n	0xb96
     b10:	0003      	movs	r3, r0
     b12:	e152      	b.n	0xdba
     b14:	c002      	stmia	r0!, {r1}
     b16:	01cc      	lsls	r4, r1, #7
     b18:	0384      	lsls	r4, r0, #14
     b1a:	011c      	lsls	r4, r3, #4
     b1c:	2004      	movs	r0, #4
     b1e:	0490      	lsls	r0, r2, #18
     b20:	3004      	adds	r0, #4
     b22:	0491      	lsls	r1, r2, #18
     b24:	fff8 0aff 			; <UNDEFINED> instruction: 0xfff80aff
     b28:	0c02      	lsrs	r2, r0, #16
     b2a:	e1a0      	b.n	0xe6e
     b2c:	2422      	movs	r4, #34	; 0x22
     b2e:	e1a0      	b.n	0xe72
     b30:	0001      	movs	r1, r0
     b32:	e350      	b.n	0x11d6
     b34:	0c03      	lsrs	r3, r0, #16
     b36:	2150      	movs	r1, #80	; 0x50
     b38:	3423      	adds	r4, #35	; 0x23
     b3a:	01a0      	lsls	r0, r4, #6
     b3c:	fff9 0aff 			; <UNDEFINED> instruction: 0xfff90aff
     b40:	30ff      	adds	r0, #255	; 0xff
     b42:	e203      	b.n	0xf4c
     b44:	0c20      	lsrs	r0, r4, #16
     b46:	e063      	b.n	0xc10
     b48:	4004      	ands	r4, r0
     b4a:	e49d      	b.n	0x488
     b4c:	ff1e e12f 	vrhadd.u16	d14, d14, d31
     b50:	0003      	movs	r3, r0
     b52:	e310      	b.n	0x1176
     b54:	0006      	movs	r6, r0
     b56:	0a00      	lsrs	r0, r0, #8
     b58:	2001      	movs	r0, #1
     b5a:	e4d0      	b.n	0x4fe
     b5c:	3001      	adds	r0, #1
     b5e:	e4d1      	b.n	0x504
     b60:	0001      	movs	r1, r0
     b62:	e352      	b.n	0x120a
     b64:	0003      	movs	r3, r0
     b66:	2152      	movs	r1, #82	; 0x52
     b68:	fff8 0aff 			; <UNDEFINED> instruction: 0xfff80aff
     b6c:	0003      	movs	r3, r0
     b6e:	e042      	b.n	0xbf6
     b70:	ff1e e12f 	vrhadd.u16	d14, d14, d31
     b74:	0030      	movs	r0, r6
     b76:	e92d 4001 	stmdb	sp!, {r0, lr}
     b7a:	e3a0      	b.n	0x12be
     b7c:	4404      	add	r4, r0
     b7e:	e184      	b.n	0xe8a
     b80:	4804      	ldr	r0, [pc, #16]	; (0xb94)
     b82:	e184      	b.n	0xe8e
     b84:	2004      	movs	r0, #4
     b86:	e490      	b.n	0x4aa
     b88:	5003      	str	r3, [r0, r0]
     b8a:	e201      	b.n	0xf90
     b8c:	1003      	asrs	r3, r0, #32
     b8e:	e3c1      	b.n	0x1314
     b90:	3004      	adds	r0, #4
     b92:	e491      	b.n	0x4b8
     b94:	0002      	movs	r2, r0
     b96:	e355      	b.n	0x1244
     b98:	0017      	movs	r7, r2
     b9a:	0a00      	lsrs	r0, r0, #8
     b9c:	002d      	movs	r5, r5
     b9e:	8a00      	ldrh	r0, [r0, #16]
     ba0:	54ff      	strb	r7, [r7, r3]
     ba2:	e3c2      	b.n	0x132a
     ba4:	0423      	lsls	r3, r4, #16
     ba6:	e155      	b.n	0xe54
     ba8:	c004      	stmia	r0!, {r2}
     baa:	e042      	b.n	0xc32
     bac:	c002      	stmia	r0!, {r1}
     bae:	e1cc      	b.n	0xf4a
     bb0:	0007      	movs	r7, r0
     bb2:	1a00      	subs	r0, r0, r0
     bb4:	c384      	stmia	r3!, {r2, r7}
     bb6:	e01c      	b.n	0xbf2
     bb8:	3004      	adds	r0, #4
     bba:	0491      	lsls	r1, r2, #18
     bbc:	0006      	movs	r6, r0
     bbe:	1a00      	subs	r0, r0, r0
     bc0:	5002      	str	r2, [r0, r0]
     bc2:	e025      	b.n	0xc10
     bc4:	0c03      	lsrs	r3, r0, #16
     bc6:	e155      	b.n	0xe74
     bc8:	0008      	movs	r0, r1
     bca:	1a00      	subs	r0, r0, r0
     bcc:	2004      	movs	r0, #4
     bce:	e490      	b.n	0x4f2
     bd0:	fff2 eaff 			; <UNDEFINED> instruction: 0xfff2eaff
     bd4:	3423      	adds	r4, #35	; 0x23
     bd6:	e1a0      	b.n	0xf1a
     bd8:	0036      	movs	r6, r6
     bda:	ea00 c4ff 			; <UNDEFINED> instruction: 0xea00c4ff
     bde:	e3dc      	b.n	0x139a
     be0:	0031      	movs	r1, r6
     be2:	1a00      	subs	r0, r0, r0
     be4:	3000      	adds	r0, #0
     be6:	e5d1      	b.n	0x78c
     be8:	5c22      	ldrb	r2, [r4, r0]
     bea:	e1a0      	b.n	0xf2e
     bec:	0031      	movs	r1, r6
     bee:	ea00 5c22 	and.w	ip, r0, r2, asr #20
     bf2:	e1a0      	b.n	0xf36
     bf4:	30ff      	adds	r0, #255	; 0xff
     bf6:	e203      	b.n	0x1000
     bf8:	002e      	movs	r6, r5
     bfa:	ea00 5802 	and.w	r8, r0, r2, lsl #20
     bfe:	e1a0      	b.n	0xf42
     c00:	c004      	stmia	r0!, {r2}
     c02:	e042      	b.n	0xc8a
     c04:	5825      	ldr	r5, [r4, r0]
     c06:	e1a0      	b.n	0xf4a
     c08:	c002      	stmia	r0!, {r1}
     c0a:	e1cc      	b.n	0xfa6
     c0c:	0823      	lsrs	r3, r4, #32
     c0e:	e155      	b.n	0xebc
     c10:	000e      	movs	r6, r1
     c12:	1a00      	subs	r0, r0, r0
     c14:	c384      	stmia	r3!, {r2, r7}
     c16:	e01c      	b.n	0xc52
     c18:	3004      	adds	r0, #4
     c1a:	0491      	lsls	r1, r2, #18
     c1c:	0004      	movs	r4, r0
     c1e:	1a00      	subs	r0, r0, r0
     c20:	5002      	str	r2, [r0, r0]
     c22:	e025      	b.n	0xc70
     c24:	0803      	lsrs	r3, r0, #32
     c26:	e155      	b.n	0xed4
     c28:	0006      	movs	r6, r0
     c2a:	1a00      	subs	r0, r0, r0
     c2c:	2004      	movs	r0, #4
     c2e:	e490      	b.n	0x552
     c30:	fff1 eaff 			; <UNDEFINED> instruction: 0xfff1eaff
     c34:	c80c      	ldmia	r0!, {r2, r3}
     c36:	e1b0      	b.n	0xf9a
     c38:	001b      	movs	r3, r3
     c3a:	1a00      	subs	r0, r0, r0
     c3c:	30b0      	adds	r0, #176	; 0xb0
     c3e:	e1d1      	b.n	0xfe4
     c40:	5822      	ldr	r2, [r4, r0]
     c42:	e1a0      	b.n	0xf86
     c44:	001b      	movs	r3, r3
     c46:	ea00 3803 	and.w	r8, r0, r3, lsl #12
     c4a:	e1a0      	b.n	0xf8e
     c4c:	5822      	ldr	r2, [r4, r0]
     c4e:	e1a0      	b.n	0xf92
     c50:	3823      	subs	r0, #35	; 0x23
     c52:	e1a0      	b.n	0xf96
     c54:	0017      	movs	r7, r2
     c56:	ea00 50ff 	and.w	r0, r0, pc, ror #23
     c5a:	e202      	b.n	0x1062
     c5c:	0c23      	lsrs	r3, r4, #16
     c5e:	e155      	b.n	0xf0c
     c60:	c004      	stmia	r0!, {r2}
     c62:	e042      	b.n	0xcea
     c64:	c002      	stmia	r0!, {r1}
     c66:	e1cc      	b.n	0x1002
     c68:	0007      	movs	r7, r0
     c6a:	1a00      	subs	r0, r0, r0
     c6c:	c384      	stmia	r3!, {r2, r7}
     c6e:	e01c      	b.n	0xcaa
     c70:	3004      	adds	r0, #4
     c72:	0491      	lsls	r1, r2, #18
     c74:	0006      	movs	r6, r0
     c76:	1a00      	subs	r0, r0, r0
     c78:	5002      	str	r2, [r0, r0]
     c7a:	e025      	b.n	0xcc8
     c7c:	0403      	lsls	r3, r0, #16
     c7e:	e155      	b.n	0xf2c
     c80:	0006      	movs	r6, r0
     c82:	1a00      	subs	r0, r0, r0
     c84:	2004      	movs	r0, #4
     c86:	e490      	b.n	0x5aa
     c88:	fff2 eaff 			; <UNDEFINED> instruction: 0xfff2eaff
     c8c:	3c23      	subs	r4, #35	; 0x23
     c8e:	e1a0      	b.n	0xfd2
     c90:	0008      	movs	r0, r1
     c92:	ea00 00ff 	and.w	r0, r0, pc, ror #3
     c96:	e312      	b.n	0x12be
     c98:	0003      	movs	r3, r0
     c9a:	0a00      	lsrs	r0, r0, #8
     c9c:	3004      	adds	r0, #4
     c9e:	e491      	b.n	0x5c4
     ca0:	5422      	strb	r2, [r4, r0]
     ca2:	e1a0      	b.n	0xfe6
     ca4:	34ff      	adds	r4, #255	; 0xff
     ca6:	e3c3      	b.n	0x1430
     ca8:	0002      	movs	r2, r0
     caa:	ea00 0000 	and.w	r0, r0, r0
     cae:	e3a0      	b.n	0x13f2
     cb0:	0030      	movs	r0, r6
     cb2:	e8bd ff1e 	ldmia.w	sp!, {r1, r2, r3, r4, r8, r9, sl, fp, ip, sp, lr, pc}
     cb6:	e12f      	b.n	0xf18
     cb8:	20ff      	movs	r0, #255	; 0xff
     cba:	e205      	b.n	0x10c8
     cbc:	00ff      	lsls	r7, r7, #3
     cbe:	e203      	b.n	0x10c8
     cc0:	0001      	movs	r1, r0
     cc2:	e350      	b.n	0x1366
     cc4:	0002      	movs	r2, r0
     cc6:	2150      	movs	r1, #80	; 0x50
     cc8:	5425      	strb	r5, [r4, r0]
     cca:	01a0      	lsls	r0, r4, #6
     ccc:	3423      	adds	r4, #35	; 0x23
     cce:	01a0      	lsls	r0, r4, #6
     cd0:	fff8 0aff 			; <UNDEFINED> instruction: 0xfff80aff
     cd4:	0000      	movs	r0, r0
     cd6:	e042      	b.n	0xd5e
     cd8:	0030      	movs	r0, r6
     cda:	e8bd ff1e 	ldmia.w	sp!, {r1, r2, r3, r4, r8, r9, sl, fp, ip, sp, lr, pc}
     cde:	e12f      	b.n	0xf40
     ce0:	b402      	push	{r1}
     ce2:	4671      	mov	r1, lr
     ce4:	0849      	lsrs	r1, r1, #1
     ce6:	0049      	lsls	r1, r1, #1
     ce8:	5c09      	ldrb	r1, [r1, r0]
     cea:	0049      	lsls	r1, r1, #1
     cec:	448e      	add	lr, r1
     cee:	bc02      	pop	{r1}
     cf0:	4770      	bx	lr
     cf2:	46c0      	nop			; (mov r8, r8)
     cf4:	b403      	push	{r0, r1}
     cf6:	4671      	mov	r1, lr
     cf8:	0849      	lsrs	r1, r1, #1
     cfa:	0040      	lsls	r0, r0, #1
     cfc:	0049      	lsls	r1, r1, #1
     cfe:	5a09      	ldrh	r1, [r1, r0]
     d00:	0049      	lsls	r1, r1, #1
     d02:	448e      	add	lr, r1
     d04:	bc03      	pop	{r0, r1}
     d06:	4770      	bx	lr
     d08:	1102      	asrs	r2, r0, #4
     d0a:	e221      	b.n	0x1150
     d0c:	0000      	movs	r0, r0
     d0e:	ea00 3102 	and.w	r1, r0, r2, lsl #12
     d12:	e223      	b.n	0x115c
     d14:	4030      	ands	r0, r6
     d16:	e92d 4081 	stmdb	sp!, {r0, r7, lr}
     d1a:	e1a0      	b.n	0x105e
     d1c:	5083      	str	r3, [r0, r2]
     d1e:	e1a0      	b.n	0x1062
     d20:	0005      	movs	r5, r0
     d22:	e134      	b.n	0xf8e
     d24:	0002      	movs	r2, r0
     d26:	0130      	lsls	r0, r6, #4
     d28:	c000      	stmia	r0!, {}
     d2a:	1194      	asrs	r4, r2, #6
     d2c:	c002      	stmia	r0!, {r1}
     d2e:	1195      	asrs	r5, r2, #6
     d30:	cac4      	ldmia	r2, {r2, r6, r7}
     d32:	11f0      	asrs	r0, r6, #7
     d34:	cac5      	ldmia	r2, {r0, r2, r6, r7}
     d36:	11f0      	asrs	r0, r6, #7
     d38:	008c      	lsls	r4, r1, #2
     d3a:	0a00      	lsrs	r0, r0, #8
     d3c:	4aa4      	ldr	r2, [pc, #656]	; (0xfd0)
     d3e:	e1a0      	b.n	0x1082
     d40:	5aa5      	ldrh	r5, [r4, r2]
     d42:	e074      	b.n	0xe2e
     d44:	5000      	str	r0, [r0, r0]
     d46:	b265      	sxtb	r5, r4
     d48:	0006      	movs	r6, r0
     d4a:	da00      	bge.n	0xd4e
     d4c:	4005      	ands	r5, r0
     d4e:	e084      	b.n	0xe5a
     d50:	2002      	movs	r0, #2
     d52:	e020      	b.n	0xd96
     d54:	3003      	adds	r0, #3
     d56:	e021      	b.n	0xd9c
     d58:	0000      	movs	r0, r0
     d5a:	e022      	b.n	0xda2
     d5c:	1001      	asrs	r1, r0, #32
     d5e:	e023      	b.n	0xda8
     d60:	2002      	movs	r0, #2
     d62:	e020      	b.n	0xda6
     d64:	3003      	adds	r0, #3
     d66:	e021      	b.n	0xdac
     d68:	0036      	movs	r6, r6
     d6a:	e355      	b.n	0x1418
     d6c:	4030      	ands	r0, r6
     d6e:	88bd      	ldrh	r5, [r7, #4]
     d70:	ff1e 812f 	vrhadd.u16	d8, d14, d31
     d74:	0102      	lsls	r2, r0, #4
     d76:	e311      	b.n	0x139c
     d78:	1601      	asrs	r1, r0, #24
     d7a:	e1a0      	b.n	0x10be
     d7c:	c601      	stmia	r6!, {r0}
     d7e:	e3a0      	b.n	0x14c2
     d80:	1621      	asrs	r1, r4, #24
     d82:	e18c      	b.n	0x109e
     d84:	0001      	movs	r1, r0
     d86:	0a00      	lsrs	r0, r0, #8
     d88:	0000      	movs	r0, r0
     d8a:	e270      	b.n	0x126e
     d8c:	1000      	asrs	r0, r0, #32
     d8e:	e2e1      	b.n	0x1354
     d90:	0102      	lsls	r2, r0, #4
     d92:	e313      	b.n	0x13bc
     d94:	3603      	adds	r6, #3
     d96:	e1a0      	b.n	0x10da
     d98:	3623      	adds	r6, #35	; 0x23
     d9a:	e18c      	b.n	0x10b6
     d9c:	0001      	movs	r1, r0
     d9e:	0a00      	lsrs	r0, r0, #8
     da0:	2000      	movs	r0, #0
     da2:	e272      	b.n	0x128a
     da4:	3000      	adds	r0, #0
     da6:	e2e3      	b.n	0x1370
     da8:	0005      	movs	r5, r0
     daa:	e134      	b.n	0x1016
     dac:	0069      	lsls	r1, r5, #1
     dae:	0a00      	lsrs	r0, r0, #8
     db0:	4001      	ands	r1, r0
     db2:	e244      	b.n	0x123e
     db4:	e020      	b.n	0xdf8
     db6:	e275      	b.n	0x12a4
     db8:	0005      	movs	r5, r0
     dba:	ba00      	rev	r0, r0
     dbc:	ce12      	ldmia	r6!, {r1, r4}
     dbe:	e1a0      	b.n	0x1102
     dc0:	0532      	lsls	r2, r6, #20
     dc2:	e090      	b.n	0xee6
     dc4:	1000      	asrs	r0, r0, #32
     dc6:	e2a1      	b.n	0x130c
     dc8:	0e13      	lsrs	r3, r2, #24
     dca:	e090      	b.n	0xeee
     dcc:	1553      	asrs	r3, r2, #21
     dce:	e0b1      	b.n	0xf34
     dd0:	0006      	movs	r6, r0
     dd2:	ea00 5020 	and.w	r0, r0, r0, asr #20
     dd6:	e245      	b.n	0x1264
     dd8:	e020      	b.n	0xe1c
     dda:	e28e      	b.n	0x12fa
     ddc:	0001      	movs	r1, r0
     dde:	e352      	b.n	0x1486
     de0:	ce13      	ldmia	r6!, {r0, r1, r4}
     de2:	e1a0      	b.n	0x1126
     de4:	c002      	stmia	r0!, {r1}
     de6:	238c      	movs	r3, #140	; 0x8c
     de8:	0553      	lsls	r3, r2, #21
     dea:	e090      	b.n	0xf0e
     dec:	1fc3      	subs	r3, r0, #7
     dee:	e0b1      	b.n	0xf54
     df0:	5102      	str	r2, [r0, r4]
     df2:	e201      	b.n	0x11f8
     df4:	0002      	movs	r2, r0
     df6:	5a00      	ldrh	r0, [r0, r0]
     df8:	c000      	stmia	r0!, {}
     dfa:	e27c      	b.n	0x12f6
     dfc:	0000      	movs	r0, r0
     dfe:	e2f0      	b.n	0x13e2
     e00:	1000      	asrs	r0, r0, #32
     e02:	e2e1      	b.n	0x13c8
     e04:	0601      	lsls	r1, r0, #24
     e06:	e351      	b.n	0x14ac
     e08:	000f      	movs	r7, r1
     e0a:	3a00      	subs	r2, #0
     e0c:	0602      	lsls	r2, r0, #24
     e0e:	e351      	b.n	0x14b4
     e10:	0006      	movs	r6, r0
     e12:	3a00      	subs	r2, #0
     e14:	10a1      	asrs	r1, r4, #2
     e16:	e1b0      	b.n	0x117a
     e18:	0060      	lsls	r0, r4, #1
     e1a:	e1b0      	b.n	0x117e
     e1c:	c06c      	stmia	r0!, {r2, r3, r5, r6}
     e1e:	e1a0      	b.n	0x1162
     e20:	4001      	ands	r1, r0
     e22:	e284      	b.n	0x132e
     e24:	2a84      	cmp	r2, #132	; 0x84
     e26:	e1a0      	b.n	0x116a
     e28:	0501      	lsls	r1, r0, #20
     e2a:	e372      	b.n	0x1512
     e2c:	006b      	lsls	r3, r5, #1
     e2e:	2a00      	cmp	r2, #0
     e30:	0102      	lsls	r2, r0, #4
     e32:	e35c      	b.n	0x14ee
     e34:	c0a0      	stmia	r0!, {r5, r7}
     e36:	01b0      	lsls	r0, r6, #6
     e38:	0000      	movs	r0, r0
     e3a:	e2b0      	b.n	0x139e
     e3c:	1a04      	subs	r4, r0, r0
     e3e:	e0a1      	b.n	0xf84
     e40:	1005      	asrs	r5, r0, #32
     e42:	e181      	b.n	0x1148
     e44:	4030      	ands	r0, r6
     e46:	e8bd ff1e 	ldmia.w	sp!, {r1, r2, r3, r4, r8, r9, sl, fp, ip, sp, lr, pc}
     e4a:	e12f      	b.n	0x10ac
     e4c:	c08c      	stmia	r0!, {r2, r3, r7}
     e4e:	e1b0      	b.n	0x11b2
     e50:	0000      	movs	r0, r0
     e52:	e0b0      	b.n	0xfb6
     e54:	1001      	asrs	r1, r0, #32
     e56:	e0a1      	b.n	0xf9c
     e58:	0601      	lsls	r1, r0, #24
     e5a:	e311      	b.n	0x1480
     e5c:	4001      	ands	r1, r0
     e5e:	e244      	b.n	0x12ea
     e60:	fff2 1aff 			; <UNDEFINED> instruction: 0xfff21aff
     e64:	0000      	movs	r0, r0
     e66:	e331      	b.n	0x14cc
     e68:	3014      	adds	r0, #20
     e6a:	13a0      	asrs	r0, r4, #14
     e6c:	3034      	adds	r0, #52	; 0x34
     e6e:	03a0      	lsls	r0, r4, #14
     e70:	1000      	asrs	r0, r0, #32
     e72:	01a0      	lsls	r0, r4, #6
     e74:	0000      	movs	r0, r0
     e76:	03a0      	lsls	r0, r4, #14
     e78:	2001      	movs	r0, #1
     e7a:	e1a0      	b.n	0x11be
     e7c:	0801      	lsrs	r1, r0, #32
     e7e:	e352      	b.n	0x1526
     e80:	2822      	cmp	r0, #34	; 0x22
     e82:	21a0      	movs	r1, #160	; 0xa0
     e84:	3010      	adds	r0, #16
     e86:	2243      	movs	r2, #67	; 0x43
     e88:	0c01      	lsrs	r1, r0, #16
     e8a:	e352      	b.n	0x1532
     e8c:	2422      	movs	r4, #34	; 0x22
     e8e:	21a0      	movs	r1, #160	; 0xa0
     e90:	3008      	adds	r0, #8
     e92:	2243      	movs	r2, #67	; 0x43
     e94:	0010      	movs	r0, r2
     e96:	e352      	b.n	0x153e
     e98:	2222      	movs	r2, #34	; 0x22
     e9a:	21a0      	movs	r1, #160	; 0xa0
     e9c:	3004      	adds	r0, #4
     e9e:	2243      	movs	r2, #67	; 0x43
     ea0:	0004      	movs	r4, r0
     ea2:	e352      	b.n	0x154a
     ea4:	3002      	adds	r0, #2
     ea6:	2243      	movs	r2, #67	; 0x43
     ea8:	30a2      	adds	r0, #162	; 0xa2
     eaa:	3043      	adds	r0, #67	; 0x43
     eac:	31a2      	adds	r1, #162	; 0xa2
     eae:	e043      	b.n	0xf38
     eb0:	2020      	movs	r0, #32
     eb2:	e253      	b.n	0x135c
     eb4:	0007      	movs	r7, r0
     eb6:	aa00      	add	r2, sp, #0
     eb8:	200c      	movs	r0, #12
     eba:	e292      	b.n	0x13e2
     ebc:	0004      	movs	r4, r0
     ebe:	da00      	bge.n	0xec2
     ec0:	c014      	stmia	r0!, {r2, r4}
     ec2:	e282      	b.n	0x13ca
     ec4:	200c      	movs	r0, #12
     ec6:	e262      	b.n	0x138e
     ec8:	0c11      	lsrs	r1, r2, #16
     eca:	e1a0      	b.n	0x120e
     ecc:	1231      	asrs	r1, r6, #8
     ece:	e1a0      	b.n	0x1212
     ed0:	0004      	movs	r4, r0
     ed2:	ea00 2014 	and.w	r0, r0, r4, lsr #8
     ed6:	e282      	b.n	0x13de
     ed8:	c020      	stmia	r0!, {r5}
     eda:	d262      	bcs.n	0xfa2
     edc:	1211      	asrs	r1, r2, #8
     ede:	e1a0      	b.n	0x1222
     ee0:	1c30      	adds	r0, r6, #0
     ee2:	d181      	bne.n	0xde8
     ee4:	0210      	lsls	r0, r2, #8
     ee6:	d1a0      	bne.n	0xe2a
     ee8:	4003      	ands	r3, r0
     eea:	e054      	b.n	0xf96
     eec:	1a04      	subs	r4, r0, r0
     eee:	a081      	add	r0, pc, #516	; (adr r0, 0x10f4)
     ef0:	1005      	asrs	r5, r0, #32
     ef2:	a181      	add	r1, pc, #516	; (adr r1, 0x10f8)
     ef4:	4030      	ands	r0, r6
     ef6:	a8bd      	add	r0, sp, #756	; 0x2f4
     ef8:	ff1e a12f 	vrhadd.u16	d10, d14, d31
     efc:	4004      	ands	r4, r0
     efe:	e1e0      	b.n	0x12c2
     f00:	401f      	ands	r7, r3
     f02:	e254      	b.n	0x13ae
     f04:	000f      	movs	r7, r1
     f06:	aa00      	add	r2, sp, #0
     f08:	400c      	ands	r4, r1
     f0a:	e294      	b.n	0x1436
     f0c:	0006      	movs	r6, r0
     f0e:	ca00      	ldmia	r2!, {}
     f10:	4014      	ands	r4, r2
     f12:	e284      	b.n	0x141e
     f14:	2020      	movs	r0, #32
     f16:	e264      	b.n	0x13e2
     f18:	0430      	lsls	r0, r6, #16
     f1a:	e1a0      	b.n	0x125e
     f1c:	0211      	lsls	r1, r2, #8
     f1e:	e180      	b.n	0x1222
     f20:	1431      	asrs	r1, r6, #16
     f22:	e185      	b.n	0x1230
     f24:	4030      	ands	r0, r6
     f26:	e8bd ff1e 	ldmia.w	sp!, {r1, r2, r3, r4, r8, r9, sl, fp, ip, sp, lr, pc}
     f2a:	e12f      	b.n	0x118c
     f2c:	400c      	ands	r4, r1
     f2e:	e264      	b.n	0x13fa
     f30:	2020      	movs	r0, #32
     f32:	e264      	b.n	0x13fe
     f34:	0230      	lsls	r0, r6, #8
     f36:	e1a0      	b.n	0x127a
     f38:	0411      	lsls	r1, r2, #16
     f3a:	e180      	b.n	0x123e
     f3c:	1005      	asrs	r5, r0, #32
     f3e:	e1a0      	b.n	0x1282
     f40:	4030      	ands	r0, r6
     f42:	e8bd ff1e 	ldmia.w	sp!, {r1, r2, r3, r4, r8, r9, sl, fp, ip, sp, lr, pc}
     f46:	e12f      	b.n	0x11a8
     f48:	0431      	lsls	r1, r6, #16
     f4a:	e1a0      	b.n	0x128e
     f4c:	1005      	asrs	r5, r0, #32
     f4e:	e1a0      	b.n	0x1292
     f50:	4030      	ands	r0, r6
     f52:	e8bd ff1e 	ldmia.w	sp!, {r1, r2, r3, r4, r8, r9, sl, fp, ip, sp, lr, pc}
     f56:	e12f      	b.n	0x11b8
     f58:	0000      	movs	r0, r0
     f5a:	e334      	b.n	0x15c6
     f5c:	3601      	adds	r6, #1
     f5e:	e223      	b.n	0x13a8
     f60:	1601      	asrs	r1, r0, #24
     f62:	0221      	lsls	r1, r4, #8
     f64:	4001      	ands	r1, r0
     f66:	0284      	lsls	r4, r0, #10
     f68:	5001      	str	r1, [r0, r0]
     f6a:	1245      	asrs	r5, r0, #9
     f6c:	ff8f eaff 			; <UNDEFINED> instruction: 0xff8feaff
     f70:	cac4      	ldmia	r2, {r2, r6, r7}
     f72:	e1f0      	b.n	0x1356
     f74:	cac5      	ldmia	r2, {r0, r2, r6, r7}
     f76:	11f0      	asrs	r0, r6, #7
     f78:	001d      	movs	r5, r3
     f7a:	0a00      	lsrs	r0, r0, #8
     f7c:	0005      	movs	r5, r0
     f7e:	e134      	b.n	0x11ea
     f80:	0002      	movs	r2, r0
     f82:	0130      	lsls	r0, r6, #4
     f84:	0004      	movs	r4, r0
     f86:	0a00      	lsrs	r0, r0, #8
     f88:	c000      	stmia	r0!, {}
     f8a:	e194      	b.n	0x12b6
     f8c:	1003      	asrs	r3, r0, #32
     f8e:	01a0      	lsls	r0, r4, #6
     f90:	0002      	movs	r2, r0
     f92:	01a0      	lsls	r0, r4, #6
     f94:	4030      	ands	r0, r6
     f96:	e8bd ff1e 	ldmia.w	sp!, {r1, r2, r3, r4, r8, r9, sl, fp, ip, sp, lr, pc}
     f9a:	e12f      	b.n	0x11fc
     f9c:	0003      	movs	r3, r0
     f9e:	e131      	b.n	0x1204
     fa0:	1000      	asrs	r0, r0, #32
     fa2:	13a0      	asrs	r0, r4, #14
     fa4:	0000      	movs	r0, r0
     fa6:	13a0      	asrs	r0, r4, #14
     fa8:	4030      	ands	r0, r6
     faa:	18bd      	adds	r5, r7, r2
     fac:	ff1e 112f 	vrhadd.u16	d1, d14, d31
     fb0:	caa4      	ldmia	r2, {r2, r5, r7}
     fb2:	e1b0      	b.n	0x1316
     fb4:	0004      	movs	r4, r0
     fb6:	1a00      	subs	r0, r0, r0
     fb8:	0080      	lsls	r0, r0, #2
     fba:	e1b0      	b.n	0x131e
     fbc:	1001      	asrs	r1, r0, #32
     fbe:	e0b1      	b.n	0x1124
     fc0:	1102      	asrs	r2, r0, #4
     fc2:	2381      	movs	r3, #129	; 0x81
     fc4:	4030      	ands	r0, r6
     fc6:	e8bd ff1e 	ldmia.w	sp!, {r1, r2, r3, r4, r8, r9, sl, fp, ip, sp, lr, pc}
     fca:	e12f      	b.n	0x122c
     fcc:	4501      	cmp	r1, r0
     fce:	e294      	b.n	0x14fa
     fd0:	1601      	asrs	r1, r0, #24
     fd2:	3281      	adds	r2, #129	; 0x81
     fd4:	4030      	ands	r0, r6
     fd6:	38bd      	subs	r0, #189	; 0xbd
     fd8:	ff1e 312f 	vrhadd.u16	d3, d14, d31
     fdc:	5102      	str	r2, [r0, r4]
     fde:	e201      	b.n	0x13e4
     fe0:	147f      	asrs	r7, r7, #17
     fe2:	e385      	b.n	0x16f0
     fe4:	160f      	asrs	r7, r1, #24
     fe6:	e381      	b.n	0x16ec
     fe8:	0000      	movs	r0, r0
     fea:	e3a0      	b.n	0x172e
     fec:	4030      	ands	r0, r6
     fee:	e8bd ff1e 	ldmia.w	sp!, {r1, r2, r3, r4, r8, r9, sl, fp, ip, sp, lr, pc}
     ff2:	e12f      	b.n	0x1254
     ff4:	cac4      	ldmia	r2, {r2, r6, r7}
     ff6:	e1f0      	b.n	0x13da
     ff8:	1003      	asrs	r3, r0, #32
     ffa:	11a0      	asrs	r0, r4, #6
     ffc:	0002      	movs	r2, r0
     ffe:	11a0      	asrs	r0, r4, #6
    1000:	cac5      	ldmia	r2, {r0, r2, r6, r7}
    1002:	01f0      	lsls	r0, r6, #7
    1004:	3001      	adds	r0, #1
    1006:	11a0      	asrs	r0, r4, #6
    1008:	2000      	movs	r0, #0
    100a:	11a0      	asrs	r0, r4, #6
    100c:	4601      	mov	r1, r0
    100e:	e190      	b.n	0x1332
    1010:	5603      	ldrsb	r3, [r0, r0]
    1012:	0192      	lsls	r2, r2, #6
    1014:	0003      	movs	r3, r0
    1016:	0131      	lsls	r1, r6, #4
    1018:	1702      	asrs	r2, r0, #28
    101a:	1381      	asrs	r1, r0, #14
    101c:	4030      	ands	r0, r6
    101e:	e8bd ff1e 	ldmia.w	sp!, {r1, r2, r3, r4, r8, r9, sl, fp, ip, sp, lr, pc}
    1022:	e12f      	b.n	0x1284
    1024:	0000      	movs	r0, r0
    1026:	e330      	b.n	0x168a
    1028:	1000      	asrs	r0, r0, #32
    102a:	03a0      	lsls	r0, r4, #14
    102c:	ff1e 012f 	vrhadd.u16	d0, d14, d31
    1030:	4030      	ands	r0, r6
    1032:	e92d 4b01 	stmdb	sp!, {r0, r8, r9, fp, lr}
    1036:	e3a0      	b.n	0x177a
    1038:	4032      	ands	r2, r6
    103a:	e284      	b.n	0x1546
    103c:	5000      	str	r0, [r0, r0]
    103e:	e3a0      	b.n	0x1782
    1040:	1000      	asrs	r0, r0, #32
    1042:	e3a0      	b.n	0x1786
    1044:	ff86 eaff 			; <UNDEFINED> instruction: 0xff86eaff
    1048:	0000      	movs	r0, r0
    104a:	e330      	b.n	0x16ae
    104c:	1000      	asrs	r0, r0, #32
    104e:	03a0      	lsls	r0, r4, #14
    1050:	ff1e 012f 	vrhadd.u16	d0, d14, d31
    1054:	4030      	ands	r0, r6
    1056:	e92d 4b01 	stmdb	sp!, {r0, r8, r9, fp, lr}
    105a:	e3a0      	b.n	0x179e
    105c:	4032      	ands	r2, r6
    105e:	e284      	b.n	0x156a
    1060:	5102      	str	r2, [r0, r4]
    1062:	e210      	b.n	0x1486
    1064:	0000      	movs	r0, r0
    1066:	4260      	negs	r0, r4
    1068:	1000      	asrs	r0, r0, #32
    106a:	e3a0      	b.n	0x17ae
    106c:	ff7c eaff 	vpmin.u<illegal width 64>	q15, q14, <illegal reg q15.5>
    1070:	2080      	movs	r0, #128	; 0x80
    1072:	e1b0      	b.n	0x13d6
    1074:	11c2      	asrs	r2, r0, #7
    1076:	e1a0      	b.n	0x13ba
    1078:	1061      	asrs	r1, r4, #1
    107a:	e1a0      	b.n	0x13be
    107c:	0e02      	lsrs	r2, r0, #24
    107e:	e1a0      	b.n	0x13c2
    1080:	34ff      	adds	r4, #255	; 0xff
    1082:	1212      	asrs	r2, r2, #8
    1084:	04ff      	lsls	r7, r7, #19
    1086:	1333      	asrs	r3, r6, #12
    1088:	130e      	asrs	r6, r1, #12
    108a:	1221      	asrs	r1, r4, #8
    108c:	ff1e 112f 	vrhadd.u16	d1, d14, d31
    1090:	24ff      	movs	r4, #255	; 0xff
    1092:	e3d2      	b.n	0x183a
    1094:	ff1e 012f 	vrhadd.u16	d0, d14, d31
    1098:	04ff      	lsls	r7, r7, #19
    109a:	e333      	b.n	0x1704
    109c:	1702      	asrs	r2, r0, #28
    109e:	0381      	lsls	r1, r0, #14
    10a0:	ff1e 012f 	vrhadd.u16	d0, d14, d31
    10a4:	4030      	ands	r0, r6
    10a6:	e92d 4d0e 	stmdb	sp!, {r1, r2, r3, r8, sl, fp, lr}
    10aa:	e3a0      	b.n	0x17ee
    10ac:	5102      	str	r2, [r0, r4]
    10ae:	e201      	b.n	0x14b4
    10b0:	1102      	asrs	r2, r0, #4
    10b2:	e3c1      	b.n	0x1838
    10b4:	ff6a eaff 	vpmin.u32	q15, q13, <illegal reg q15.5>
    10b8:	2001      	movs	r0, #1
    10ba:	e190      	b.n	0x13de
    10bc:	ff1e 012f 	vrhadd.u16	d0, d14, d31
    10c0:	4030      	ands	r0, r6
    10c2:	e92d 5000 	stmdb	sp!, {ip, lr}
    10c6:	e3a0      	b.n	0x180a
    10c8:	0006      	movs	r6, r0
    10ca:	ea00 2001 	and.w	r0, r0, r1, lsl #8
    10ce:	e190      	b.n	0x13f2
    10d0:	ff1e 012f 	vrhadd.u16	d0, d14, d31
    10d4:	4030      	ands	r0, r6
    10d6:	e92d 5102 	stmdb	sp!, {r1, r8, ip, lr}
    10da:	e211      	b.n	0x1500
    10dc:	0001      	movs	r1, r0
    10de:	5a00      	ldrh	r0, [r0, r0]
    10e0:	0000      	movs	r0, r0
    10e2:	e270      	b.n	0x15c6
    10e4:	1000      	asrs	r0, r0, #32
    10e6:	e2e1      	b.n	0x16ac
    10e8:	4b01      	ldr	r3, [pc, #4]	; (0x10f0)
    10ea:	e3a0      	b.n	0x182e
    10ec:	4032      	ands	r2, r6
    10ee:	e284      	b.n	0x15fa
    10f0:	cb21      	ldmia	r3!, {r0, r5}
    10f2:	e1b0      	b.n	0x1456
    10f4:	ff42 0aff 	vpmin.u8	q8, q9, <illegal reg q15.5>
    10f8:	2003      	movs	r0, #3
    10fa:	e3a0      	b.n	0x183e
    10fc:	c1ac      	stmia	r1!, {r2, r3, r5, r7}
    10fe:	e1b0      	b.n	0x1462
    1100:	2003      	movs	r0, #3
    1102:	1282      	asrs	r2, r0, #10
    1104:	c1ac      	stmia	r1!, {r2, r3, r5, r7}
    1106:	e1b0      	b.n	0x146a
    1108:	2003      	movs	r0, #3
    110a:	1282      	asrs	r2, r0, #10
    110c:	21ac      	movs	r1, #172	; 0xac
    110e:	e082      	b.n	0x1216
    1110:	3020      	adds	r0, #32
    1112:	e262      	b.n	0x15da
    1114:	c310      	stmia	r3!, {r4}
    1116:	e1a0      	b.n	0x145a
    1118:	0230      	lsls	r0, r6, #8
    111a:	e1a0      	b.n	0x145e
    111c:	0311      	lsls	r1, r2, #12
    111e:	e180      	b.n	0x1422
    1120:	1231      	asrs	r1, r6, #8
    1122:	e1a0      	b.n	0x1466
    1124:	4002      	ands	r2, r0
    1126:	e084      	b.n	0x1232
    1128:	ff35 eaff 	vpmin.u<illegal width 64>	q7, <illegal reg q10.5>, <illegal reg q15.5>
    112c:	4070      	eors	r0, r6
    112e:	e92d c0ff 	stmdb	sp!, {r0, r1, r2, r3, r4, r5, r6, r7, lr, pc}
    1132:	e3a0      	b.n	0x1876
    1134:	cc07      	ldmia	r4!, {r0, r1, r2}
    1136:	e38c      	b.n	0x1852
    1138:	4a21      	ldr	r2, [pc, #132]	; (0x11c0)
    113a:	e01c      	b.n	0x1176
    113c:	5a23      	ldrh	r3, [r4, r0]
    113e:	101c      	asrs	r4, r3, #32
    1140:	000c      	movs	r4, r1
    1142:	1134      	asrs	r4, r6, #4
    1144:	000c      	movs	r4, r1
    1146:	1135      	asrs	r5, r6, #4
    1148:	0075      	lsls	r5, r6, #1
    114a:	0b00      	lsrs	r0, r0, #12
    114c:	4005      	ands	r5, r0
    114e:	e084      	b.n	0x125a
    1150:	6003      	str	r3, [r0, #0]
    1152:	e021      	b.n	0x1198
    1154:	1a8c      	subs	r4, r1, r2
    1156:	e1c1      	b.n	0x14dc
    1158:	3a8c      	subs	r2, #140	; 0x8c
    115a:	e1c3      	b.n	0x14e4
    115c:	5601      	ldrsb	r1, [r0, r0]
    115e:	e190      	b.n	0x1482
    1160:	5603      	ldrsb	r3, [r0, r0]
    1162:	1192      	asrs	r2, r2, #6
    1164:	1601      	asrs	r1, r0, #24
    1166:	e381      	b.n	0x186c
    1168:	3601      	adds	r6, #1
    116a:	e383      	b.n	0x1874
    116c:	001d      	movs	r5, r3
    116e:	0a00      	lsrs	r0, r0, #8
    1170:	c290      	stmia	r2!, {r4, r7}
    1172:	e08e      	b.n	0x1292
    1174:	5000      	str	r0, [r0, r0]
    1176:	e3a0      	b.n	0x18ba
    1178:	e291      	b.n	0x169e
    117a:	e0a5      	b.n	0x12c8
    117c:	2102      	movs	r1, #2
    117e:	e206      	b.n	0x158e
    1180:	e390      	b.n	0x18a4
    1182:	e0a5      	b.n	0x12d0
    1184:	6000      	str	r0, [r0, #0]
    1186:	e3a0      	b.n	0x18ca
    1188:	5391      	strh	r1, [r2, r6]
    118a:	e0a6      	b.n	0x12da
    118c:	0000      	movs	r0, r0
    118e:	e33c      	b.n	0x180a
    1190:	e001      	b.n	0x1196
    1192:	138e      	asrs	r6, r1, #14
    1194:	40ff      	lsrs	r7, r7
    1196:	e244      	b.n	0x1622
    1198:	0c02      	lsrs	r2, r0, #16
    119a:	e356      	b.n	0x184a
    119c:	4c03      	ldr	r4, [pc, #12]	; (0x11ac)
    119e:	e2c4      	b.n	0x172a
    11a0:	0002      	movs	r2, r0
    11a2:	2a00      	cmp	r2, #0
    11a4:	e08e      	b.n	0x12c4
    11a6:	e1b0      	b.n	0x150a
    11a8:	5005      	str	r5, [r0, r0]
    11aa:	e0b5      	b.n	0x1318
    11ac:	6006      	str	r6, [r0, #0]
    11ae:	e0a6      	b.n	0x12fe
    11b0:	1586      	asrs	r6, r0, #22
    11b2:	e182      	b.n	0x14ba
    11b4:	1aa5      	subs	r5, r4, r2
    11b6:	e181      	b.n	0x14bc
    11b8:	0585      	lsls	r5, r0, #22
    11ba:	e1a0      	b.n	0x14fe
    11bc:	0aae      	lsrs	r6, r5, #10
    11be:	e180      	b.n	0x14c2
    11c0:	e58e      	b.n	0xce0
    11c2:	e1a0      	b.n	0x1506
    11c4:	c0fd      	stmia	r0!, {r0, r2, r3, r4, r5, r6, r7}
    11c6:	e254      	b.n	0x1672
    11c8:	0c07      	lsrs	r7, r0, #16
    11ca:	835c      	strh	r4, [r3, #26]
    11cc:	0011      	movs	r1, r2
    11ce:	8a00      	ldrh	r0, [r0, #16]
    11d0:	0102      	lsls	r2, r0, #4
    11d2:	e35e      	b.n	0x1892
    11d4:	e0a0      	b.n	0x1318
    11d6:	01b0      	lsls	r0, r6, #6
    11d8:	0000      	movs	r0, r0
    11da:	e2b0      	b.n	0x173e
    11dc:	1a04      	subs	r4, r0, r0
    11de:	e0a1      	b.n	0x1324
    11e0:	4070      	eors	r0, r6
    11e2:	e8bd ff1e 	ldmia.w	sp!, {r1, r2, r3, r4, r8, r9, sl, fp, ip, sp, lr, pc}
    11e6:	e12f      	b.n	0x1448
    11e8:	6102      	str	r2, [r0, #16]
    11ea:	e206      	b.n	0x15fa
    11ec:	1001      	asrs	r1, r0, #32
    11ee:	e186      	b.n	0x14fe
    11f0:	0002      	movs	r2, r0
    11f2:	e180      	b.n	0x14f6
    11f4:	1003      	asrs	r3, r0, #32
    11f6:	e021      	b.n	0x123c
    11f8:	40ac      	lsls	r4, r5
    11fa:	e054      	b.n	0x12a6
    11fc:	500c      	str	r4, [r1, r0]
    11fe:	c074      	stmia	r0!, {r2, r4, r5, r6}
    1200:	1a04      	subs	r4, r0, r0
    1202:	c181      	stmia	r1!, {r0, r7}
    1204:	4070      	eors	r0, r6
    1206:	c8bd      	ldmia	r0, {r0, r2, r3, r4, r5, r7}
    1208:	ff1e c12f 	vrhadd.u16	d12, d14, d31
    120c:	1601      	asrs	r1, r0, #24
    120e:	e381      	b.n	0x1914
    1210:	e000      	b.n	0x1214
    1212:	e3a0      	b.n	0x1956
    1214:	4001      	ands	r1, r0
    1216:	e254      	b.n	0x16c2
    1218:	005d      	lsls	r5, r3, #1
    121a:	ca00      	ldmia	r2!, {}
    121c:	0036      	movs	r6, r6
    121e:	e374      	b.n	0x190a
    1220:	0000      	movs	r0, r0
    1222:	d3a0      	bcc.n	0x1166
    1224:	1102      	asrs	r2, r0, #4
    1226:	d201      	bcs.n	0x122c
    1228:	4070      	eors	r0, r6
    122a:	d8bd      	bhi.n	0x11a8
    122c:	ff1e d12f 	vrhadd.u16	d13, d14, d31
    1230:	4000      	ands	r0, r0
    1232:	e264      	b.n	0x16fe
    1234:	4020      	ands	r0, r4
    1236:	e254      	b.n	0x16e2
    1238:	001a      	movs	r2, r3
    123a:	aa00      	add	r2, sp, #0
    123c:	400c      	ands	r4, r1
    123e:	e294      	b.n	0x176a
    1240:	000c      	movs	r4, r1
    1242:	ca00      	ldmia	r2!, {}
    1244:	4014      	ands	r4, r2
    1246:	e284      	b.n	0x1752
    1248:	5020      	str	r0, [r4, r0]
    124a:	e264      	b.n	0x1716
    124c:	3510      	adds	r5, #16
    124e:	e1a0      	b.n	0x1592
    1250:	0430      	lsls	r0, r6, #16
    1252:	e1a0      	b.n	0x1596
    1254:	0511      	lsls	r1, r2, #20
    1256:	e180      	b.n	0x155a
    1258:	2102      	movs	r1, #2
    125a:	e201      	b.n	0x1660
    125c:	1102      	asrs	r2, r0, #4
    125e:	e3c1      	b.n	0x19e4
    1260:	0fa3      	lsrs	r3, r4, #30
    1262:	e090      	b.n	0x1386
    1264:	1431      	asrs	r1, r6, #16
    1266:	e0a2      	b.n	0x13ae
    1268:	e083      	b.n	0x1372
    126a:	e19e      	b.n	0x15aa
    126c:	0fa3      	lsrs	r3, r4, #30
    126e:	01c0      	lsls	r0, r0, #7
    1270:	4070      	eors	r0, r6
    1272:	e8bd ff1e 	ldmia.w	sp!, {r1, r2, r3, r4, r8, r9, sl, fp, ip, sp, lr, pc}
    1276:	e12f      	b.n	0x14d8
    1278:	400c      	ands	r4, r1
    127a:	e264      	b.n	0x1746
    127c:	5020      	str	r0, [r4, r0]
    127e:	e264      	b.n	0x174a
    1280:	3410      	adds	r4, #16
    1282:	e1a0      	b.n	0x15c6
    1284:	0530      	lsls	r0, r6, #20
    1286:	e1a0      	b.n	0x15ca
    1288:	0411      	lsls	r1, r2, #16
    128a:	e180      	b.n	0x158e
    128c:	1102      	asrs	r2, r0, #4
    128e:	e201      	b.n	0x1694
    1290:	0fa3      	lsrs	r3, r4, #30
    1292:	e090      	b.n	0x13b6
    1294:	1000      	asrs	r0, r0, #32
    1296:	e2a1      	b.n	0x17dc
    1298:	e083      	b.n	0x13a2
    129a:	e19e      	b.n	0x15da
    129c:	0fa3      	lsrs	r3, r4, #30
    129e:	01c0      	lsls	r0, r0, #7
    12a0:	4070      	eors	r0, r6
    12a2:	e8bd ff1e 	ldmia.w	sp!, {r1, r2, r3, r4, r8, r9, sl, fp, ip, sp, lr, pc}
    12a6:	e12f      	b.n	0x1508
    12a8:	5020      	str	r0, [r4, r0]
    12aa:	e264      	b.n	0x1776
    12ac:	e510      	b.n	0xcd0
    12ae:	e18e      	b.n	0x15ce
    12b0:	3430      	adds	r4, #48	; 0x30
    12b2:	e1a0      	b.n	0x15f6
    12b4:	3511      	adds	r5, #17
    12b6:	e183      	b.n	0x15c0
    12b8:	0431      	lsls	r1, r6, #16
    12ba:	e1a0      	b.n	0x15fe
    12bc:	1102      	asrs	r2, r0, #4
    12be:	e201      	b.n	0x16c4
    12c0:	0431      	lsls	r1, r6, #16
    12c2:	e1c0      	b.n	0x1646
    12c4:	0fa3      	lsrs	r3, r4, #30
    12c6:	e080      	b.n	0x13ca
    12c8:	e083      	b.n	0x13d2
    12ca:	e19e      	b.n	0x160a
    12cc:	0fa3      	lsrs	r3, r4, #30
    12ce:	01c0      	lsls	r0, r0, #7
    12d0:	4070      	eors	r0, r6
    12d2:	e8bd ff1e 	ldmia.w	sp!, {r1, r2, r3, r4, r8, r9, sl, fp, ip, sp, lr, pc}
    12d6:	e12f      	b.n	0x1538
    12d8:	0000      	movs	r0, r0
    12da:	e334      	b.n	0x1946
    12dc:	0008      	movs	r0, r1
    12de:	1a00      	subs	r0, r0, r0
    12e0:	6102      	str	r2, [r0, #16]
    12e2:	e201      	b.n	0x16e8
    12e4:	0080      	lsls	r0, r0, #2
    12e6:	e1b0      	b.n	0x164a
    12e8:	1001      	asrs	r1, r0, #32
    12ea:	e0a1      	b.n	0x1430
    12ec:	0601      	lsls	r1, r0, #24
    12ee:	e311      	b.n	0x1914
    12f0:	4001      	ands	r1, r0
    12f2:	0244      	lsls	r4, r0, #9
    12f4:	fffa 0aff 			; <UNDEFINED> instruction: 0xfffa0aff
    12f8:	1006      	asrs	r6, r0, #32
    12fa:	e181      	b.n	0x1600
    12fc:	0000      	movs	r0, r0
    12fe:	e335      	b.n	0x196c
    1300:	ff1e 112f 	vrhadd.u16	d1, d14, d31
    1304:	6102      	str	r2, [r0, #16]
    1306:	e203      	b.n	0x1710
    1308:	2082      	movs	r0, #130	; 0x82
    130a:	e1b0      	b.n	0x166e
    130c:	3003      	adds	r0, #3
    130e:	e0a3      	b.n	0x1458
    1310:	0601      	lsls	r1, r0, #24
    1312:	e313      	b.n	0x193c
    1314:	5001      	str	r1, [r0, r0]
    1316:	0245      	lsls	r5, r0, #9
    1318:	fffa 0aff 			; <UNDEFINED> instruction: 0xfffa0aff
    131c:	3006      	adds	r0, #6
    131e:	e183      	b.n	0x1628
    1320:	ff1e e12f 	vrhadd.u16	d14, d14, d31
    1324:	000c      	movs	r4, r1
    1326:	e134      	b.n	0x1592
    1328:	5a23      	ldrh	r3, [r4, r0]
    132a:	e00c      	b.n	0x1346
    132c:	000c      	movs	r4, r1
    132e:	1135      	asrs	r5, r6, #4
    1330:	0007      	movs	r7, r0
    1332:	0a00      	lsrs	r0, r0, #8
    1334:	6081      	str	r1, [r0, #8]
    1336:	e190      	b.n	0x165a
    1338:	6083      	str	r3, [r0, #8]
    133a:	1192      	asrs	r2, r2, #6
    133c:	ffe5 1aff 			; <UNDEFINED> instruction: 0xffe51aff
    1340:	1003      	asrs	r3, r0, #32
    1342:	e021      	b.n	0x1388
    1344:	1102      	asrs	r2, r0, #4
    1346:	e201      	b.n	0x174c
    1348:	0000      	movs	r0, r0
    134a:	e3a0      	b.n	0x1a8e
    134c:	4070      	eors	r0, r6
    134e:	e8bd ff1e 	ldmia.w	sp!, {r1, r2, r3, r4, r8, r9, sl, fp, ip, sp, lr, pc}
    1352:	e12f      	b.n	0x15b4
    1354:	6081      	str	r1, [r0, #8]
    1356:	e190      	b.n	0x167a
    1358:	0002      	movs	r2, r0
    135a:	01a0      	lsls	r0, r4, #6
    135c:	1003      	asrs	r3, r0, #32
    135e:	01a0      	lsls	r0, r4, #6
    1360:	6083      	str	r3, [r0, #8]
    1362:	1192      	asrs	r2, r2, #6
    1364:	0010      	movs	r0, r2
    1366:	0a00      	lsrs	r0, r0, #8
    1368:	000c      	movs	r4, r1
    136a:	e134      	b.n	0x15d6
    136c:	0001      	movs	r1, r0
    136e:	1a00      	subs	r0, r0, r0
    1370:	6601      	str	r1, [r0, #96]	; 0x60
    1372:	e190      	b.n	0x1696
    1374:	000c      	movs	r4, r1
    1376:	1a00      	subs	r0, r0, r0
    1378:	000c      	movs	r4, r1
    137a:	e135      	b.n	0x15e8
    137c:	0003      	movs	r3, r0
    137e:	1a00      	subs	r0, r0, r0
    1380:	6603      	str	r3, [r0, #96]	; 0x60
    1382:	e192      	b.n	0x16aa
    1384:	0002      	movs	r2, r0
    1386:	11a0      	asrs	r0, r4, #6
    1388:	1003      	asrs	r3, r0, #32
    138a:	11a0      	asrs	r0, r4, #6
    138c:	0006      	movs	r6, r0
    138e:	1a00      	subs	r0, r0, r0
    1390:	1003      	asrs	r3, r0, #32
    1392:	e021      	b.n	0x13d8
    1394:	1102      	asrs	r2, r0, #4
    1396:	e201      	b.n	0x179c
    1398:	147f      	asrs	r7, r7, #17
    139a:	e381      	b.n	0x1aa0
    139c:	160f      	asrs	r7, r1, #24
    139e:	e381      	b.n	0x1aa4
    13a0:	0000      	movs	r0, r0
    13a2:	e3a0      	b.n	0x1ae6
    13a4:	4070      	eors	r0, r6
    13a6:	e8bd ff1e 	ldmia.w	sp!, {r1, r2, r3, r4, r8, r9, sl, fp, ip, sp, lr, pc}
    13aa:	e12f      	b.n	0x160c
    13ac:	147f      	asrs	r7, r7, #17
    13ae:	e381      	b.n	0x1ab4
    13b0:	173e      	asrs	r6, r7, #28
    13b2:	e381      	b.n	0x1ab8
    13b4:	4070      	eors	r0, r6
    13b6:	e8bd ff1e 	ldmia.w	sp!, {r1, r2, r3, r4, r8, r9, sl, fp, ip, sp, lr, pc}
    13ba:	e12f      	b.n	0x161c
    13bc:	4070      	eors	r0, r6
    13be:	e92d c0ff 	stmdb	sp!, {r0, r1, r2, r3, r4, r5, r6, r7, lr, pc}
    13c2:	e3a0      	b.n	0x1b06
    13c4:	cc07      	ldmia	r4!, {r0, r1, r2}
    13c6:	e38c      	b.n	0x1ae2
    13c8:	4a21      	ldr	r2, [pc, #132]	; (0x1450)
    13ca:	e01c      	b.n	0x1406
    13cc:	5a23      	ldrh	r3, [r4, r0]
    13ce:	101c      	asrs	r4, r3, #32
    13d0:	000c      	movs	r4, r1
    13d2:	1134      	asrs	r4, r6, #4
    13d4:	000c      	movs	r4, r1
    13d6:	1135      	asrs	r5, r6, #4
    13d8:	005e      	lsls	r6, r3, #1
    13da:	0b00      	lsrs	r0, r0, #12
    13dc:	4005      	ands	r5, r0
    13de:	e044      	b.n	0x146a
    13e0:	e003      	b.n	0x13ea
    13e2:	e021      	b.n	0x1428
    13e4:	5603      	ldrsb	r3, [r0, r0]
    13e6:	e192      	b.n	0x170e
    13e8:	1601      	asrs	r1, r0, #24
    13ea:	e1a0      	b.n	0x172e
    13ec:	004c      	lsls	r4, r1, #1
    13ee:	0a00      	lsrs	r0, r0, #8
    13f0:	3603      	adds	r6, #3
    13f2:	e1a0      	b.n	0x1736
    13f4:	5201      	strh	r1, [r0, r0]
    13f6:	e3a0      	b.n	0x1b3a
    13f8:	3223      	adds	r2, #35	; 0x23
    13fa:	e185      	b.n	0x1708
    13fc:	3c22      	subs	r4, #34	; 0x22
    13fe:	e183      	b.n	0x1708
    1400:	2402      	movs	r4, #2
    1402:	e1a0      	b.n	0x1746
    1404:	5221      	strh	r1, [r4, r0]
    1406:	e185      	b.n	0x1714
    1408:	5c20      	ldrb	r0, [r4, r0]
    140a:	e185      	b.n	0x1718
    140c:	6400      	str	r0, [r0, #64]	; 0x40
    140e:	e1a0      	b.n	0x1752
    1410:	1102      	asrs	r2, r0, #4
    1412:	e20e      	b.n	0x1832
    1414:	0003      	movs	r3, r0
    1416:	e155      	b.n	0x16c4
    1418:	0002      	movs	r2, r0
    141a:	0156      	lsls	r6, r2, #5
    141c:	40fd      	lsrs	r5, r7
    141e:	e2a4      	b.n	0x196a
    1420:	4c03      	ldr	r4, [pc, #12]	; (0x1430)
    1422:	e284      	b.n	0x192e
    1424:	0001      	movs	r1, r0
    1426:	2a00      	cmp	r2, #0
    1428:	30a3      	adds	r0, #163	; 0xa3
    142a:	e1b0      	b.n	0x178e
    142c:	2062      	movs	r0, #98	; 0x62
    142e:	e1a0      	b.n	0x1772
    1430:	6002      	str	r2, [r0, #0]
    1432:	e056      	b.n	0x14e2
    1434:	5003      	str	r3, [r0, r0]
    1436:	e0c5      	b.n	0x15c4
    1438:	30a3      	adds	r0, #163	; 0xa3
    143a:	e1b0      	b.n	0x179e
    143c:	2062      	movs	r0, #98	; 0x62
    143e:	e1a0      	b.n	0x1782
    1440:	0601      	lsls	r1, r0, #24
    1442:	e3a0      	b.n	0x1b86
    1444:	c702      	stmia	r7!, {r1}
    1446:	e3a0      	b.n	0x1b8a
    1448:	e002      	b.n	0x1450
    144a:	e056      	b.n	0x14fa
    144c:	e003      	b.n	0x1456
    144e:	e0d5      	b.n	0x15fc
    1450:	6002      	str	r2, [r0, #0]
    1452:	2046      	movs	r0, #70	; 0x46
    1454:	500e      	str	r6, [r1, r0]
    1456:	21a0      	movs	r1, #160	; 0xa0
    1458:	000c      	movs	r4, r1
    145a:	2180      	movs	r1, #128	; 0x80
    145c:	30a3      	adds	r0, #163	; 0xa3
    145e:	e1b0      	b.n	0x17c2
    1460:	2062      	movs	r0, #98	; 0x62
    1462:	e1a0      	b.n	0x17a6
    1464:	e002      	b.n	0x146c
    1466:	e056      	b.n	0x1516
    1468:	e003      	b.n	0x1472
    146a:	e0d5      	b.n	0x1618
    146c:	6002      	str	r2, [r0, #0]
    146e:	2046      	movs	r0, #70	; 0x46
    1470:	500e      	str	r6, [r1, r0]
    1472:	21a0      	movs	r1, #160	; 0xa0
    1474:	00ac      	lsls	r4, r5, #2
    1476:	2180      	movs	r1, #128	; 0x80
    1478:	30a3      	adds	r0, #163	; 0xa3
    147a:	e1b0      	b.n	0x17de
    147c:	2062      	movs	r0, #98	; 0x62
    147e:	e1a0      	b.n	0x17c2
    1480:	e002      	b.n	0x1488
    1482:	e056      	b.n	0x1532
    1484:	e003      	b.n	0x148e
    1486:	e0d5      	b.n	0x1634
    1488:	6002      	str	r2, [r0, #0]
    148a:	2046      	movs	r0, #70	; 0x46
    148c:	500e      	str	r6, [r1, r0]
    148e:	21a0      	movs	r1, #160	; 0xa0
    1490:	012c      	lsls	r4, r5, #4
    1492:	2180      	movs	r1, #128	; 0x80
    1494:	30a3      	adds	r0, #163	; 0xa3
    1496:	e1b0      	b.n	0x17fa
    1498:	2062      	movs	r0, #98	; 0x62
    149a:	e1a0      	b.n	0x17de
    149c:	e002      	b.n	0x14a4
    149e:	e056      	b.n	0x154e
    14a0:	e003      	b.n	0x14aa
    14a2:	e0d5      	b.n	0x1650
    14a4:	6002      	str	r2, [r0, #0]
    14a6:	2046      	movs	r0, #70	; 0x46
    14a8:	500e      	str	r6, [r1, r0]
    14aa:	21a0      	movs	r1, #160	; 0xa0
    14ac:	01ac      	lsls	r4, r5, #6
    14ae:	2180      	movs	r1, #128	; 0x80
    14b0:	e006      	b.n	0x14c0
    14b2:	e195      	b.n	0x17e0
    14b4:	000d      	movs	r5, r1
    14b6:	0a00      	lsrs	r0, r0, #8
    14b8:	5205      	strh	r5, [r0, r0]
    14ba:	e1a0      	b.n	0x17fe
    14bc:	5e26      	ldrsh	r6, [r4, r0]
    14be:	e185      	b.n	0x17cc
    14c0:	6206      	str	r6, [r0, #32]
    14c2:	e1a0      	b.n	0x1806
    14c4:	3183      	adds	r1, #131	; 0x83
    14c6:	e1a0      	b.n	0x180a
    14c8:	3ea2      	subs	r6, #162	; 0xa2
    14ca:	e183      	b.n	0x17d4
    14cc:	2182      	movs	r1, #130	; 0x82
    14ce:	e1a0      	b.n	0x1812
    14d0:	c22c      	stmia	r2!, {r2, r3, r5}
    14d2:	e1b0      	b.n	0x1836
    14d4:	ffdb 1aff 			; <UNDEFINED> instruction: 0xffdb1aff
    14d8:	0601      	lsls	r1, r0, #24
    14da:	e311      	b.n	0x1b00
    14dc:	0006      	movs	r6, r0
    14de:	1a00      	subs	r0, r0, r0
    14e0:	1000      	asrs	r0, r0, #32
    14e2:	e181      	b.n	0x17e8
    14e4:	0000      	movs	r0, r0
    14e6:	e3a0      	b.n	0x1c2a
    14e8:	c102      	stmia	r1!, {r1}
    14ea:	e3a0      	b.n	0x1c2e
    14ec:	ffd5 eaff 			; <UNDEFINED> instruction: 0xffd5eaff
    14f0:	0601      	lsls	r1, r0, #24
    14f2:	e311      	b.n	0x1b18
    14f4:	1000      	asrs	r0, r0, #32
    14f6:	0181      	lsls	r1, r0, #6
    14f8:	0000      	movs	r0, r0
    14fa:	03a0      	lsls	r0, r4, #14
    14fc:	c0fd      	stmia	r0!, {r0, r2, r3, r4, r5, r6, r7}
    14fe:	e254      	b.n	0x19aa
    1500:	0c07      	lsrs	r7, r0, #16
    1502:	835c      	strh	r4, [r3, #26]
    1504:	ff43 8aff 	vpmin.u8	q12, <illegal reg q9.5>, <illegal reg q15.5>
    1508:	c003      	stmia	r0!, {r0, r1}
    150a:	e055      	b.n	0x15b8
    150c:	c002      	stmia	r0!, {r1}
    150e:	0056      	lsls	r6, r2, #1
    1510:	c0a0      	stmia	r0!, {r5, r7}
    1512:	01b0      	lsls	r0, r6, #6
    1514:	0000      	movs	r0, r0
    1516:	e2b0      	b.n	0x1a7a
    1518:	1a04      	subs	r4, r0, r0
    151a:	e0a1      	b.n	0x1660
    151c:	4070      	eors	r0, r6
    151e:	e8bd ff1e 	ldmia.w	sp!, {r1, r2, r3, r4, r8, r9, sl, fp, ip, sp, lr, pc}
    1522:	e12f      	b.n	0x1784
    1524:	e102      	b.n	0x172c
    1526:	e20e      	b.n	0x1946
    1528:	1621      	asrs	r1, r4, #24
    152a:	e18e      	b.n	0x184a
    152c:	40ac      	lsls	r4, r5
    152e:	e094      	b.n	0x165a
    1530:	500c      	str	r4, [r1, r0]
    1532:	c074      	stmia	r0!, {r2, r4, r5, r6}
    1534:	1a04      	subs	r4, r0, r0
    1536:	c181      	stmia	r1!, {r0, r7}
    1538:	4070      	eors	r0, r6
    153a:	c8bd      	ldmia	r0, {r0, r2, r3, r4, r5, r7}
    153c:	ff1e c12f 	vrhadd.u16	d12, d14, d31
    1540:	1601      	asrs	r1, r0, #24
    1542:	e381      	b.n	0x1c48
    1544:	e000      	b.n	0x1548
    1546:	e3a0      	b.n	0x1c8a
    1548:	4001      	ands	r1, r0
    154a:	e254      	b.n	0x19f6
    154c:	ff31 eaff 	vpmin.u<illegal width 64>	q7, <illegal reg q8.5>, <illegal reg q15.5>
    1550:	e006      	b.n	0x1560
    1552:	e185      	b.n	0x1860
    1554:	ff2f eaff 	vpmin.u32	q7, <illegal reg q15.5>, <illegal reg q15.5>
    1558:	5a23      	ldrh	r3, [r4, r0]
    155a:	e00c      	b.n	0x1576
    155c:	000c      	movs	r4, r1
    155e:	e134      	b.n	0x17ca
    1560:	000c      	movs	r4, r1
    1562:	0135      	lsls	r5, r6, #4
    1564:	ff90 0aff 			; <UNDEFINED> instruction: 0xff900aff
    1568:	000c      	movs	r4, r1
    156a:	e134      	b.n	0x17d6
    156c:	0006      	movs	r6, r0
    156e:	1a00      	subs	r0, r0, r0
    1570:	4601      	mov	r1, r0
    1572:	e190      	b.n	0x1896
    1574:	ff8c 1aff 			; <UNDEFINED> instruction: 0xff8c1aff
    1578:	000c      	movs	r4, r1
    157a:	e135      	b.n	0x17e8
    157c:	ff83 1aff 			; <UNDEFINED> instruction: 0xff831aff
    1580:	0002      	movs	r2, r0
    1582:	e1a0      	b.n	0x18c6
    1584:	1003      	asrs	r3, r0, #32
    1586:	e1a0      	b.n	0x18ca
    1588:	ff87 eaff 			; <UNDEFINED> instruction: 0xff87eaff
    158c:	000c      	movs	r4, r1
    158e:	e135      	b.n	0x17fc
    1590:	0004      	movs	r4, r0
    1592:	1a00      	subs	r0, r0, r0
    1594:	5603      	ldrsb	r3, [r0, r0]
    1596:	e192      	b.n	0x18be
    1598:	ff68 0aff 	vpmin.u32	q8, q12, <illegal reg q15.5>
    159c:	0002      	movs	r2, r0
    159e:	e1a0      	b.n	0x18e2
    15a0:	1003      	asrs	r3, r0, #32
    15a2:	e1a0      	b.n	0x18e6
    15a4:	ff80 eaff 			; <UNDEFINED> instruction: 0xff80eaff
    15a8:	6081      	str	r1, [r0, #8]
    15aa:	e190      	b.n	0x18ce
    15ac:	6083      	str	r3, [r0, #8]
    15ae:	1192      	asrs	r2, r2, #6
    15b0:	ff48 1aff 	vpmin.u8	<illegal reg q8.5>, q12, <illegal reg q15.5>
    15b4:	4081      	lsls	r1, r0
    15b6:	e190      	b.n	0x18da
    15b8:	ff74 1aff 	vpmin.u<illegal width 64>	<illegal reg q8.5>, q10, <illegal reg q15.5>
    15bc:	5083      	str	r3, [r0, r2]
    15be:	e192      	b.n	0x18e6
    15c0:	ff5e 1aff 	vpmin.u16	<illegal reg q8.5>, q15, <illegal reg q15.5>
    15c4:	ff78 eaff 	vpmin.u<illegal width 64>	q15, q12, <illegal reg q15.5>
    15c8:	c000      	stmia	r0!, {}
    15ca:	e3e0      	b.n	0x1d8e
    15cc:	0002      	movs	r2, r0
    15ce:	ea00 c001 			; <UNDEFINED> instruction: 0xea00c001
    15d2:	e3a0      	b.n	0x1d16
    15d4:	0000      	movs	r0, r0
    15d6:	ea00 c001 			; <UNDEFINED> instruction: 0xea00c001
    15da:	e3a0      	b.n	0x1d1e
    15dc:	c004      	stmia	r0!, {r2}
    15de:	e52d      	b.n	0x103c
    15e0:	c081      	stmia	r0!, {r0, r7}
    15e2:	e1a0      	b.n	0x1926
    15e4:	cacc      	ldmia	r2, {r2, r3, r6, r7}
    15e6:	e1f0      	b.n	0x19ca
    15e8:	c083      	stmia	r0!, {r0, r1, r7}
    15ea:	e1a0      	b.n	0x192e
    15ec:	cacc      	ldmia	r2, {r2, r3, r6, r7}
    15ee:	11f0      	asrs	r0, r6, #7
    15f0:	000e      	movs	r6, r1
    15f2:	0a00      	lsrs	r0, r0, #8
    15f4:	d004      	beq.n	0x1600
    15f6:	e28d      	b.n	0x1b14
    15f8:	c081      	stmia	r0!, {r0, r7}
    15fa:	e190      	b.n	0x191e
    15fc:	c083      	stmia	r0!, {r0, r1, r7}
    15fe:	0192      	lsls	r2, r2, #6
    1600:	0003      	movs	r3, r0
    1602:	1131      	asrs	r1, r6, #4
    1604:	0002      	movs	r2, r0
    1606:	0130      	lsls	r0, r6, #4
    1608:	0000      	movs	r0, r0
    160a:	03a0      	lsls	r0, r4, #14
    160c:	ff1e 012f 	vrhadd.u16	d0, d14, d31
    1610:	0000      	movs	r0, r0
    1612:	e370      	b.n	0x1cf6
    1614:	0003      	movs	r3, r0
    1616:	e131      	b.n	0x187c
    1618:	0003      	movs	r3, r0
    161a:	5151      	str	r1, [r2, r5]
    161c:	0002      	movs	r2, r0
    161e:	0150      	lsls	r0, r2, #5
    1620:	0fc3      	lsrs	r3, r0, #31
    1622:	21a0      	movs	r1, #160	; 0xa0
    1624:	0fc3      	lsrs	r3, r0, #31
    1626:	31e0      	adds	r1, #224	; 0xe0
    1628:	0001      	movs	r1, r0
    162a:	e380      	b.n	0x1d2e
    162c:	ff1e e12f 	vrhadd.u16	d14, d14, d31
    1630:	c081      	stmia	r0!, {r0, r7}
    1632:	e1a0      	b.n	0x1976
    1634:	cacc      	ldmia	r2, {r2, r3, r6, r7}
    1636:	e1f0      	b.n	0x1a1a
    1638:	0001      	movs	r1, r0
    163a:	1a00      	subs	r0, r0, r0
    163c:	c601      	stmia	r6!, {r0}
    163e:	e190      	b.n	0x1962
    1640:	0004      	movs	r4, r0
    1642:	1a00      	subs	r0, r0, r0
    1644:	c083      	stmia	r0!, {r0, r1, r7}
    1646:	e1a0      	b.n	0x198a
    1648:	cacc      	ldmia	r2, {r2, r3, r6, r7}
    164a:	e1f0      	b.n	0x1a2e
    164c:	ffe8 1aff 			; <UNDEFINED> instruction: 0xffe81aff
    1650:	c603      	stmia	r6!, {r0, r1}
    1652:	e192      	b.n	0x197a
    1654:	ffe6 0aff 			; <UNDEFINED> instruction: 0xffe60aff
    1658:	0004      	movs	r4, r0
    165a:	e49d      	b.n	0xf98
    165c:	ff1e e12f 	vrhadd.u16	d14, d14, d31
    1660:	c000      	stmia	r0!, {}
    1662:	e1a0      	b.n	0x19a6
    1664:	0002      	movs	r2, r0
    1666:	e1a0      	b.n	0x19aa
    1668:	200c      	movs	r0, #12
    166a:	e1a0      	b.n	0x19ae
    166c:	c001      	stmia	r0!, {r0}
    166e:	e1a0      	b.n	0x19b2
    1670:	1003      	asrs	r3, r0, #32
    1672:	e1a0      	b.n	0x19b6
    1674:	300c      	adds	r0, #12
    1676:	e1a0      	b.n	0x19ba
    1678:	ffff eaff 			; <UNDEFINED> instruction: 0xffffeaff
    167c:	4001      	ands	r1, r0
    167e:	e92d ffd4 	stmdb	sp!, {r2, r4, r6, r7, r8, r9, sl, fp, ip, sp, lr, pc}
    1682:	ebff 0000 			; <UNDEFINED> instruction: 0xebff0000
    1686:	e350      	b.n	0x1d2a
    1688:	0000      	movs	r0, r0
    168a:	4370      	muls	r0, r6
    168c:	4001      	ands	r1, r0
    168e:	e8bd ff1e 	ldmia.w	sp!, {r1, r2, r3, r4, r8, r9, sl, fp, ip, sp, lr, pc}
    1692:	e12f      	b.n	0x18f4
    1694:	e008      	b.n	0x16a8
    1696:	e52d      	b.n	0x10f4
    1698:	fff7 ebff 			; <UNDEFINED> instruction: 0xfff7ebff
    169c:	0001      	movs	r1, r0
    169e:	03a0      	lsls	r0, r4, #14
    16a0:	0000      	movs	r0, r0
    16a2:	13a0      	asrs	r0, r4, #14
    16a4:	e008      	b.n	0x16b8
    16a6:	e49d      	b.n	0xfe4
    16a8:	ff1e e12f 	vrhadd.u16	d14, d14, d31
    16ac:	e008      	b.n	0x16c0
    16ae:	e52d      	b.n	0x110c
    16b0:	fff1 ebff 			; <UNDEFINED> instruction: 0xfff1ebff
    16b4:	0001      	movs	r1, r0
    16b6:	33a0      	adds	r3, #160	; 0xa0
    16b8:	0000      	movs	r0, r0
    16ba:	23a0      	movs	r3, #160	; 0xa0
    16bc:	e008      	b.n	0x16d0
    16be:	e49d      	b.n	0xffc
    16c0:	ff1e e12f 	vrhadd.u16	d14, d14, d31
    16c4:	e008      	b.n	0x16d8
    16c6:	e52d      	b.n	0x1124
    16c8:	ffeb ebff 			; <UNDEFINED> instruction: 0xffebebff
    16cc:	0001      	movs	r1, r0
    16ce:	93a0      	str	r3, [sp, #640]	; 0x280
    16d0:	0000      	movs	r0, r0
    16d2:	83a0      	strh	r0, [r4, #28]
    16d4:	e008      	b.n	0x16e8
    16d6:	e49d      	b.n	0x1014
    16d8:	ff1e e12f 	vrhadd.u16	d14, d14, d31
    16dc:	e008      	b.n	0x16f0
    16de:	e52d      	b.n	0x113c
    16e0:	ffde ebff 			; <UNDEFINED> instruction: 0xffdeebff
    16e4:	0001      	movs	r1, r0
    16e6:	93a0      	str	r3, [sp, #640]	; 0x280
    16e8:	0000      	movs	r0, r0
    16ea:	83a0      	strh	r0, [r4, #28]
    16ec:	e008      	b.n	0x1700
    16ee:	e49d      	b.n	0x102c
    16f0:	ff1e e12f 	vrhadd.u16	d14, d14, d31
    16f4:	e008      	b.n	0x1708
    16f6:	e52d      	b.n	0x1154
    16f8:	ffd8 ebff 			; <UNDEFINED> instruction: 0xffd8ebff
    16fc:	0001      	movs	r1, r0
    16fe:	33a0      	adds	r3, #160	; 0xa0
    1700:	0000      	movs	r0, r0
    1702:	23a0      	movs	r3, #160	; 0xa0
    1704:	e008      	b.n	0x1718
    1706:	e49d      	b.n	0x1044
    1708:	ff1e e12f 	vrhadd.u16	d14, d14, d31
    170c:	c081      	stmia	r0!, {r0, r7}
    170e:	e1a0      	b.n	0x1a52
    1710:	cacc      	ldmia	r2, {r2, r3, r6, r7}
    1712:	e1f0      	b.n	0x1af6
    1714:	0001      	movs	r1, r0
    1716:	1a00      	subs	r0, r0, r0
    1718:	c601      	stmia	r6!, {r0}
    171a:	e190      	b.n	0x1a3e
    171c:	0006      	movs	r6, r0
    171e:	1a00      	subs	r0, r0, r0
    1720:	c083      	stmia	r0!, {r0, r1, r7}
    1722:	e1a0      	b.n	0x1a66
    1724:	cacc      	ldmia	r2, {r2, r3, r6, r7}
    1726:	e1f0      	b.n	0x1b0a
    1728:	0001      	movs	r1, r0
    172a:	1a00      	subs	r0, r0, r0
    172c:	c603      	stmia	r6!, {r0, r1}
    172e:	e192      	b.n	0x1a56
    1730:	0001      	movs	r1, r0
    1732:	1a00      	subs	r0, r0, r0
    1734:	0000      	movs	r0, r0
    1736:	e3a0      	b.n	0x1e7a
    1738:	ff1e e12f 	vrhadd.u16	d14, d14, d31
    173c:	0001      	movs	r1, r0
    173e:	e3a0      	b.n	0x1e82
    1740:	ff1e e12f 	vrhadd.u16	d14, d14, d31
    1744:	2081      	movs	r0, #129	; 0x81
    1746:	e1a0      	b.n	0x1a8a
    1748:	2602      	movs	r6, #2
    174a:	e292      	b.n	0x1c72
    174c:	000c      	movs	r4, r1
    174e:	2a00      	cmp	r2, #0
    1750:	0009      	movs	r1, r1
    1752:	5a00      	ldrh	r0, [r0, r0]
    1754:	3e3e      	subs	r6, #62	; 0x3e
    1756:	e3e0      	b.n	0x1f1a
    1758:	2ac2      	cmp	r2, #194	; 0xc2
    175a:	e053      	b.n	0x1804
    175c:	000a      	movs	r2, r1
    175e:	9a00      	ldr	r2, [sp, #0]
    1760:	3581      	adds	r5, #129	; 0x81
    1762:	e1a0      	b.n	0x1aa6
    1764:	3102      	adds	r1, #2
    1766:	e383      	b.n	0x1e70
    1768:	3aa0      	subs	r2, #160	; 0xa0
    176a:	e183      	b.n	0x1a74
    176c:	0102      	lsls	r2, r0, #4
    176e:	e311      	b.n	0x1d94
    1770:	0233      	lsls	r3, r6, #8
    1772:	e1a0      	b.n	0x1ab6
    1774:	0000      	movs	r0, r0
    1776:	1260      	asrs	r0, r4, #9
    1778:	ff1e e12f 	vrhadd.u16	d14, d14, d31
    177c:	0000      	movs	r0, r0
    177e:	e3a0      	b.n	0x1ec2
    1780:	ff1e e12f 	vrhadd.u16	d14, d14, d31
    1784:	0601      	lsls	r1, r0, #24
    1786:	e190      	b.n	0x1aaa
    1788:	0002      	movs	r2, r0
    178a:	1a00      	subs	r0, r0, r0
    178c:	0102      	lsls	r2, r0, #4
    178e:	e211      	b.n	0x1bb4
    1790:	0102      	lsls	r2, r0, #4
    1792:	03e0      	lsls	r0, r4, #15
    1794:	ff1e e12f 	vrhadd.u16	d14, d14, d31
    1798:	0000      	movs	r0, r0
    179a:	e3a0      	b.n	0x1ede
    179c:	ff1e e12f 	vrhadd.u16	d14, d14, d31
    17a0:	0000      	movs	r0, r0
    17a2:	e353      	b.n	0x1e4c
    17a4:	0000      	movs	r0, r0
    17a6:	0352      	lsls	r2, r2, #13
    17a8:	0004      	movs	r4, r0
    17aa:	1a00      	subs	r0, r0, r0
    17ac:	0000      	movs	r0, r0
    17ae:	e351      	b.n	0x1e54
    17b0:	0000      	movs	r0, r0
    17b2:	0350      	lsls	r0, r2, #13
    17b4:	1000      	asrs	r0, r0, #32
    17b6:	13e0      	asrs	r0, r4, #15
    17b8:	0000      	movs	r0, r0
    17ba:	13e0      	asrs	r0, r4, #15
    17bc:	16d8      	asrs	r0, r3, #27
    17be:	ea00 d008 			; <UNDEFINED> instruction: 0xea00d008
    17c2:	e24d      	b.n	0x1c60
    17c4:	6000      	str	r0, [r0, #0]
    17c6:	e92d 16c8 	stmdb	sp!, {r3, r6, r7, r9, sl, ip}
    17ca:	eb00 e004 			; <UNDEFINED> instruction: 0xeb00e004
    17ce:	e59d      	b.n	0x130c
    17d0:	d008      	beq.n	0x17e4
    17d2:	e28d      	b.n	0x1cf0
    17d4:	000c      	movs	r4, r1
    17d6:	e8bd ff1e 	ldmia.w	sp!, {r1, r2, r3, r4, r8, r9, sl, fp, ip, sp, lr, pc}
    17da:	e12f      	b.n	0x1a3c
    17dc:	4010      	ands	r0, r2
    17de:	e92d 0000 	stmdb	sp!, {}
    17e2:	e351      	b.n	0x1e88
    17e4:	0002      	movs	r2, r0
    17e6:	1a00      	subs	r0, r0, r0
    17e8:	0005      	movs	r5, r0
    17ea:	eb00 0020 	add.w	r0, r0, r0, asr #32
    17ee:	e280      	b.n	0x1cf2
    17f0:	0001      	movs	r1, r0
    17f2:	ea00 0001 	and.w	r0, r0, r1
    17f6:	e1a0      	b.n	0x1b3a
    17f8:	0001      	movs	r1, r0
    17fa:	eb00 4010 	add.w	r0, r0, r0, lsr #16
    17fe:	e8bd ff1e 	ldmia.w	sp!, {r1, r2, r3, r4, r8, r9, sl, fp, ip, sp, lr, pc}
    1802:	e12f      	b.n	0x1a64
    1804:	101c      	asrs	r4, r3, #32
    1806:	e3a0      	b.n	0x1f4a
    1808:	0801      	lsrs	r1, r0, #32
    180a:	e350      	b.n	0x1eae
    180c:	0820      	lsrs	r0, r4, #32
    180e:	21a0      	movs	r1, #160	; 0xa0
    1810:	1010      	asrs	r0, r2, #32
    1812:	2241      	movs	r2, #65	; 0x41
    1814:	0c01      	lsrs	r1, r0, #16
    1816:	e350      	b.n	0x1eba
    1818:	0420      	lsls	r0, r4, #16
    181a:	21a0      	movs	r1, #160	; 0xa0
    181c:	1008      	asrs	r0, r1, #32
    181e:	2241      	movs	r2, #65	; 0x41
    1820:	0010      	movs	r0, r2
    1822:	e350      	b.n	0x1ec6
    1824:	0220      	lsls	r0, r4, #8
    1826:	21a0      	movs	r1, #160	; 0xa0
    1828:	1004      	asrs	r4, r0, #32
    182a:	2241      	movs	r2, #65	; 0x41
    182c:	2008      	movs	r0, #8
    182e:	e28f      	b.n	0x1d50
    1830:	0000      	movs	r0, r0
    1832:	e7d2      	b.n	0x17da
    1834:	0001      	movs	r1, r0
    1836:	e080      	b.n	0x193a
    1838:	ff1e e12f 	vrhadd.u16	d14, d14, d31
    183c:	0304      	lsls	r4, r0, #12
    183e:	0202      	lsls	r2, r0, #8
    1840:	0101      	lsls	r1, r0, #4
    1842:	0101      	lsls	r1, r0, #4
	...
    184c:	4806      	ldr	r0, [pc, #24]	; (0x1868)
    184e:	4b07      	ldr	r3, [pc, #28]	; (0x186c)
    1850:	b510      	push	{r4, lr}
    1852:	4283      	cmp	r3, r0
    1854:	d004      	beq.n	0x1860
    1856:	4b06      	ldr	r3, [pc, #24]	; (0x1870)
    1858:	2b00      	cmp	r3, #0
    185a:	d001      	beq.n	0x1860
    185c:	f000 f80a 	bl	0x1874
    1860:	bc10      	pop	{r4}
    1862:	bc01      	pop	{r0}
    1864:	4700      	bx	r0
    1866:	46c0      	nop			; (mov r8, r8)
    1868:	0bd8      	lsrs	r0, r3, #15
    186a:	0300      	lsls	r0, r0, #12
    186c:	0bd8      	lsrs	r0, r3, #15
    186e:	0300      	lsls	r0, r0, #12
    1870:	0000      	movs	r0, r0
    1872:	0000      	movs	r0, r0
    1874:	4718      	bx	r3
    1876:	46c0      	nop			; (mov r8, r8)
    1878:	4808      	ldr	r0, [pc, #32]	; (0x189c)
    187a:	4909      	ldr	r1, [pc, #36]	; (0x18a0)
    187c:	1a09      	subs	r1, r1, r0
    187e:	1089      	asrs	r1, r1, #2
    1880:	0fcb      	lsrs	r3, r1, #31
    1882:	1859      	adds	r1, r3, r1
    1884:	b510      	push	{r4, lr}
    1886:	1049      	asrs	r1, r1, #1
    1888:	d004      	beq.n	0x1894
    188a:	4b06      	ldr	r3, [pc, #24]	; (0x18a4)
    188c:	2b00      	cmp	r3, #0
    188e:	d001      	beq.n	0x1894
    1890:	f000 f80a 	bl	0x18a8
    1894:	bc10      	pop	{r4}
    1896:	bc01      	pop	{r0}
    1898:	4700      	bx	r0
    189a:	46c0      	nop			; (mov r8, r8)
    189c:	0bd8      	lsrs	r0, r3, #15
    189e:	0300      	lsls	r0, r0, #12
    18a0:	0bd8      	lsrs	r0, r3, #15
    18a2:	0300      	lsls	r0, r0, #12
    18a4:	0000      	movs	r0, r0
    18a6:	0000      	movs	r0, r0
    18a8:	4718      	bx	r3
    18aa:	46c0      	nop			; (mov r8, r8)
    18ac:	b510      	push	{r4, lr}
    18ae:	4c08      	ldr	r4, [pc, #32]	; (0x18d0)
    18b0:	7823      	ldrb	r3, [r4, #0]
    18b2:	2b00      	cmp	r3, #0
    18b4:	d109      	bne.n	0x18ca
    18b6:	f7ff ffc9 	bl	0x184c
    18ba:	4b06      	ldr	r3, [pc, #24]	; (0x18d4)
    18bc:	2b00      	cmp	r3, #0
    18be:	d002      	beq.n	0x18c6
    18c0:	4805      	ldr	r0, [pc, #20]	; (0x18d8)
    18c2:	e000      	b.n	0x18c6
    18c4:	bf00      	nop
    18c6:	2301      	movs	r3, #1
    18c8:	7023      	strb	r3, [r4, #0]
    18ca:	bc10      	pop	{r4}
    18cc:	bc01      	pop	{r0}
    18ce:	4700      	bx	r0
    18d0:	0000      	movs	r0, r0
    18d2:	0300      	lsls	r0, r0, #12
    18d4:	0000      	movs	r0, r0
    18d6:	0000      	movs	r0, r0
    18d8:	78b8      	ldrb	r0, [r7, #2]
    18da:	0800      	lsrs	r0, r0, #32
    18dc:	4b06      	ldr	r3, [pc, #24]	; (0x18f8)
    18de:	b510      	push	{r4, lr}
    18e0:	2b00      	cmp	r3, #0
    18e2:	d003      	beq.n	0x18ec
    18e4:	4905      	ldr	r1, [pc, #20]	; (0x18fc)
    18e6:	4806      	ldr	r0, [pc, #24]	; (0x1900)
    18e8:	e000      	b.n	0x18ec
    18ea:	bf00      	nop
    18ec:	f7ff ffc4 	bl	0x1878
    18f0:	bc10      	pop	{r4}
    18f2:	bc01      	pop	{r0}
    18f4:	4700      	bx	r0
    18f6:	46c0      	nop			; (mov r8, r8)
    18f8:	0000      	movs	r0, r0
    18fa:	0000      	movs	r0, r0
    18fc:	0004      	movs	r4, r0
    18fe:	0300      	lsls	r0, r0, #12
    1900:	78b8      	ldrb	r0, [r7, #2]
    1902:	0800      	lsrs	r0, r0, #32
    1904:	b530      	push	{r4, r5, lr}
    1906:	4c1a      	ldr	r4, [pc, #104]	; (0x1970)
    1908:	4d1a      	ldr	r5, [pc, #104]	; (0x1974)
    190a:	b083      	sub	sp, #12
    190c:	220e      	movs	r2, #14
    190e:	0029      	movs	r1, r5
    1910:	0020      	movs	r0, r4
    1912:	f000 f85f 	bl	0x19d4
    1916:	0029      	movs	r1, r5
    1918:	0020      	movs	r0, r4
    191a:	f005 fd29 	bl	0x7370
    191e:	4243      	negs	r3, r0
    1920:	4158      	adcs	r0, r3
    1922:	f7fe ff89 	bl	0x838
    1926:	2302      	movs	r3, #2
    1928:	4d13      	ldr	r5, [pc, #76]	; (0x1978)
    192a:	2201      	movs	r2, #1
    192c:	9300      	str	r3, [sp, #0]
    192e:	0029      	movs	r1, r5
    1930:	3b01      	subs	r3, #1
    1932:	0020      	movs	r0, r4
    1934:	f000 f89c 	bl	0x1a70
    1938:	4910      	ldr	r1, [pc, #64]	; (0x197c)
    193a:	0020      	movs	r0, r4
    193c:	f005 fd18 	bl	0x7370
    1940:	4243      	negs	r3, r0
    1942:	4158      	adcs	r0, r3
    1944:	f7fe ff78 	bl	0x838
    1948:	230c      	movs	r3, #12
    194a:	2202      	movs	r2, #2
    194c:	9300      	str	r3, [sp, #0]
    194e:	0029      	movs	r1, r5
    1950:	3b02      	subs	r3, #2
    1952:	0020      	movs	r0, r4
    1954:	f000 f88c 	bl	0x1a70
    1958:	4909      	ldr	r1, [pc, #36]	; (0x1980)
    195a:	0020      	movs	r0, r4
    195c:	f005 fd08 	bl	0x7370
    1960:	4243      	negs	r3, r0
    1962:	4158      	adcs	r0, r3
    1964:	f7fe ff68 	bl	0x838
    1968:	2000      	movs	r0, #0
    196a:	f7fe ff43 	bl	0x7f4
    196e:	46c0      	nop			; (mov r8, r8)
    1970:	016c      	lsls	r4, r5, #5
    1972:	0300      	lsls	r0, r0, #12
    1974:	73f0      	strb	r0, [r6, #15]
    1976:	0800      	lsrs	r0, r0, #32
    1978:	7400      	strb	r0, [r0, #16]
    197a:	0800      	lsrs	r0, r0, #32
    197c:	7410      	strb	r0, [r2, #16]
    197e:	0800      	lsrs	r0, r0, #32
    1980:	741c      	strb	r4, [r3, #16]
    1982:	0800      	lsrs	r0, r0, #32
    1984:	b570      	push	{r4, r5, r6, lr}
    1986:	4d0e      	ldr	r5, [pc, #56]	; (0x19c0)
    1988:	4e0e      	ldr	r6, [pc, #56]	; (0x19c4)
    198a:	1b76      	subs	r6, r6, r5
    198c:	10b6      	asrs	r6, r6, #2
    198e:	d006      	beq.n	0x199e
    1990:	2400      	movs	r4, #0
    1992:	cd08      	ldmia	r5!, {r3}
    1994:	3401      	adds	r4, #1
    1996:	f000 f81b 	bl	0x19d0
    199a:	42a6      	cmp	r6, r4
    199c:	d1f9      	bne.n	0x1992
    199e:	f7fe fc37 	bl	0x210
    19a2:	4d09      	ldr	r5, [pc, #36]	; (0x19c8)
    19a4:	4e09      	ldr	r6, [pc, #36]	; (0x19cc)
    19a6:	1b76      	subs	r6, r6, r5
    19a8:	10b6      	asrs	r6, r6, #2
    19aa:	d006      	beq.n	0x19ba
    19ac:	2400      	movs	r4, #0
    19ae:	cd08      	ldmia	r5!, {r3}
    19b0:	3401      	adds	r4, #1
    19b2:	f000 f80d 	bl	0x19d0
    19b6:	42a6      	cmp	r6, r4
    19b8:	d1f9      	bne.n	0x19ae
    19ba:	bc70      	pop	{r4, r5, r6}
    19bc:	bc01      	pop	{r0}
    19be:	4700      	bx	r0
    19c0:	0bd8      	lsrs	r0, r3, #15
    19c2:	0300      	lsls	r0, r0, #12
    19c4:	0bd8      	lsrs	r0, r3, #15
    19c6:	0300      	lsls	r0, r0, #12
    19c8:	0bd8      	lsrs	r0, r3, #15
    19ca:	0300      	lsls	r0, r0, #12
    19cc:	0bdc      	lsrs	r4, r3, #15
    19ce:	0300      	lsls	r0, r0, #12
    19d0:	4718      	bx	r3
    19d2:	46c0      	nop			; (mov r8, r8)
    19d4:	b5f0      	push	{r4, r5, r6, r7, lr}
    19d6:	2a0f      	cmp	r2, #15
    19d8:	d93f      	bls.n	0x1a5a
    19da:	000c      	movs	r4, r1
    19dc:	4304      	orrs	r4, r0
    19de:	000d      	movs	r5, r1
    19e0:	0003      	movs	r3, r0
    19e2:	07a4      	lsls	r4, r4, #30
    19e4:	d13e      	bne.n	0x1a64
    19e6:	0014      	movs	r4, r2
    19e8:	3c10      	subs	r4, #16
    19ea:	0924      	lsrs	r4, r4, #4
    19ec:	0127      	lsls	r7, r4, #4
    19ee:	183f      	adds	r7, r7, r0
    19f0:	e000      	b.n	0x19f4
    19f2:	0033      	movs	r3, r6
    19f4:	682e      	ldr	r6, [r5, #0]
    19f6:	601e      	str	r6, [r3, #0]
    19f8:	686e      	ldr	r6, [r5, #4]
    19fa:	605e      	str	r6, [r3, #4]
    19fc:	68ae      	ldr	r6, [r5, #8]
    19fe:	609e      	str	r6, [r3, #8]
    1a00:	68ee      	ldr	r6, [r5, #12]
    1a02:	60de      	str	r6, [r3, #12]
    1a04:	001e      	movs	r6, r3
    1a06:	3510      	adds	r5, #16
    1a08:	3610      	adds	r6, #16
    1a0a:	42bb      	cmp	r3, r7
    1a0c:	d1f1      	bne.n	0x19f2
    1a0e:	250f      	movs	r5, #15
    1a10:	230c      	movs	r3, #12
    1a12:	3401      	adds	r4, #1
    1a14:	0124      	lsls	r4, r4, #4
    1a16:	1909      	adds	r1, r1, r4
    1a18:	4015      	ands	r5, r2
    1a1a:	1904      	adds	r4, r0, r4
    1a1c:	4213      	tst	r3, r2
    1a1e:	d024      	beq.n	0x1a6a
    1a20:	2300      	movs	r3, #0
    1a22:	58ce      	ldr	r6, [r1, r3]
    1a24:	50e6      	str	r6, [r4, r3]
    1a26:	3304      	adds	r3, #4
    1a28:	1aee      	subs	r6, r5, r3
    1a2a:	2e03      	cmp	r6, #3
    1a2c:	d8f9      	bhi.n	0x1a22
    1a2e:	2303      	movs	r3, #3
    1a30:	3d04      	subs	r5, #4
    1a32:	08ad      	lsrs	r5, r5, #2
    1a34:	3501      	adds	r5, #1
    1a36:	00ad      	lsls	r5, r5, #2
    1a38:	401a      	ands	r2, r3
    1a3a:	1964      	adds	r4, r4, r5
    1a3c:	1949      	adds	r1, r1, r5
    1a3e:	1e55      	subs	r5, r2, #1
    1a40:	2a00      	cmp	r2, #0
    1a42:	d007      	beq.n	0x1a54
    1a44:	2300      	movs	r3, #0
    1a46:	e000      	b.n	0x1a4a
    1a48:	0013      	movs	r3, r2
    1a4a:	5cca      	ldrb	r2, [r1, r3]
    1a4c:	54e2      	strb	r2, [r4, r3]
    1a4e:	1c5a      	adds	r2, r3, #1
    1a50:	429d      	cmp	r5, r3
    1a52:	d1f9      	bne.n	0x1a48
    1a54:	bcf0      	pop	{r4, r5, r6, r7}
    1a56:	bc02      	pop	{r1}
    1a58:	4708      	bx	r1
    1a5a:	0004      	movs	r4, r0
    1a5c:	1e55      	subs	r5, r2, #1
    1a5e:	2a00      	cmp	r2, #0
    1a60:	d1f0      	bne.n	0x1a44
    1a62:	e7f7      	b.n	0x1a54
    1a64:	1e55      	subs	r5, r2, #1
    1a66:	0004      	movs	r4, r0
    1a68:	e7ec      	b.n	0x1a44
    1a6a:	002a      	movs	r2, r5
    1a6c:	e7f6      	b.n	0x1a5c
    1a6e:	46c0      	nop			; (mov r8, r8)
    1a70:	b40e      	push	{r1, r2, r3}
    1a72:	b510      	push	{r4, lr}
    1a74:	4a0c      	ldr	r2, [pc, #48]	; (0x1aa8)
    1a76:	b0a1      	sub	sp, #132	; 0x84
    1a78:	ab23      	add	r3, sp, #140	; 0x8c
    1a7a:	cb10      	ldmia	r3!, {r4}
    1a7c:	9207      	str	r2, [sp, #28]
    1a7e:	9204      	str	r2, [sp, #16]
    1a80:	4a0a      	ldr	r2, [pc, #40]	; (0x1aac)
    1a82:	9301      	str	r3, [sp, #4]
    1a84:	9205      	str	r2, [sp, #20]
    1a86:	9002      	str	r0, [sp, #8]
    1a88:	9006      	str	r0, [sp, #24]
    1a8a:	f005 fb47 	bl	0x711c
    1a8e:	9b01      	ldr	r3, [sp, #4]
    1a90:	0022      	movs	r2, r4
    1a92:	a902      	add	r1, sp, #8
    1a94:	f000 f9f0 	bl	0x1e78
    1a98:	2300      	movs	r3, #0
    1a9a:	9a02      	ldr	r2, [sp, #8]
    1a9c:	7013      	strb	r3, [r2, #0]
    1a9e:	b021      	add	sp, #132	; 0x84
    1aa0:	bc10      	pop	{r4}
    1aa2:	bc08      	pop	{r3}
    1aa4:	b003      	add	sp, #12
    1aa6:	4718      	bx	r3
    1aa8:	ffff 7fff 			; <UNDEFINED> instruction: 0xffff7fff
    1aac:	0208      	lsls	r0, r1, #8
    1aae:	ffff b5f0 	vsli.64	<illegal reg q13.5>, q8, #63	; 0x3f
    1ab2:	46de      	mov	lr, fp
    1ab4:	4657      	mov	r7, sl
    1ab6:	464e      	mov	r6, r9
    1ab8:	4645      	mov	r5, r8
    1aba:	b5e0      	push	{r5, r6, r7, lr}
    1abc:	b08d      	sub	sp, #52	; 0x34
    1abe:	001d      	movs	r5, r3
    1ac0:	9b17      	ldr	r3, [sp, #92]	; 0x5c
    1ac2:	469b      	mov	fp, r3
    1ac4:	9b18      	ldr	r3, [sp, #96]	; 0x60
    1ac6:	4699      	mov	r9, r3
    1ac8:	9b16      	ldr	r3, [sp, #88]	; 0x58
    1aca:	681c      	ldr	r4, [r3, #0]
    1acc:	9b19      	ldr	r3, [sp, #100]	; 0x64
    1ace:	681b      	ldr	r3, [r3, #0]
    1ad0:	9007      	str	r0, [sp, #28]
    1ad2:	9104      	str	r1, [sp, #16]
    1ad4:	4692      	mov	sl, r2
    1ad6:	2b00      	cmp	r3, #0
    1ad8:	d000      	beq.n	0x1adc
    1ada:	469a      	mov	sl, r3
    1adc:	4657      	mov	r7, sl
    1ade:	2208      	movs	r2, #8
    1ae0:	2100      	movs	r1, #0
    1ae2:	a80a      	add	r0, sp, #40	; 0x28
    1ae4:	f004 fa66 	bl	0x5fb4
    1ae8:	9b04      	ldr	r3, [sp, #16]
    1aea:	9303      	str	r3, [sp, #12]
    1aec:	783b      	ldrb	r3, [r7, #0]
    1aee:	2b00      	cmp	r3, #0
    1af0:	d100      	bne.n	0x1af4
    1af2:	e17a      	b.n	0x1dea
    1af4:	9b04      	ldr	r3, [sp, #16]
    1af6:	429c      	cmp	r4, r3
    1af8:	dd00      	ble.n	0x1afc
    1afa:	e176      	b.n	0x1dea
    1afc:	4ba1      	ldr	r3, [pc, #644]	; (0x1d84)
    1afe:	4698      	mov	r8, r3
    1b00:	ae0a      	add	r6, sp, #40	; 0x28
    1b02:	f005 fb0b 	bl	0x711c
    1b06:	6b43      	ldr	r3, [r0, #52]	; 0x34
    1b08:	2b00      	cmp	r3, #0
    1b0a:	d100      	bne.n	0x1b0e
    1b0c:	4643      	mov	r3, r8
    1b0e:	33e4      	adds	r3, #228	; 0xe4
    1b10:	681b      	ldr	r3, [r3, #0]
    1b12:	469a      	mov	sl, r3
    1b14:	f003 fe02 	bl	0x571c
    1b18:	9600      	str	r6, [sp, #0]
    1b1a:	0003      	movs	r3, r0
    1b1c:	003a      	movs	r2, r7
    1b1e:	a909      	add	r1, sp, #36	; 0x24
    1b20:	9807      	ldr	r0, [sp, #28]
    1b22:	f000 f9a8 	bl	0x1e76
    1b26:	2800      	cmp	r0, #0
    1b28:	dc00      	bgt.n	0x1b2c
    1b2a:	e15e      	b.n	0x1dea
    1b2c:	9b09      	ldr	r3, [sp, #36]	; 0x24
    1b2e:	183f      	adds	r7, r7, r0
    1b30:	2b25      	cmp	r3, #37	; 0x25
    1b32:	d1e6      	bne.n	0x1b02
    1b34:	2300      	movs	r3, #0
    1b36:	003a      	movs	r2, r7
    1b38:	4698      	mov	r8, r3
    1b3a:	2601      	movs	r6, #1
    1b3c:	4647      	mov	r7, r8
    1b3e:	469a      	mov	sl, r3
    1b40:	4690      	mov	r8, r2
    1b42:	9305      	str	r3, [sp, #20]
    1b44:	9302      	str	r3, [sp, #8]
    1b46:	4276      	negs	r6, r6
    1b48:	2301      	movs	r3, #1
    1b4a:	498f      	ldr	r1, [pc, #572]	; (0x1d88)
    1b4c:	469c      	mov	ip, r3
    1b4e:	7813      	ldrb	r3, [r2, #0]
    1b50:	5cc9      	ldrb	r1, [r1, r3]
    1b52:	9106      	str	r1, [sp, #24]
    1b54:	2109      	movs	r1, #9
    1b56:	44e0      	add	r8, ip
    1b58:	468c      	mov	ip, r1
    1b5a:	9805      	ldr	r0, [sp, #20]
    1b5c:	4661      	mov	r1, ip
    1b5e:	4341      	muls	r1, r0
    1b60:	468c      	mov	ip, r1
    1b62:	498a      	ldr	r1, [pc, #552]	; (0x1d8c)
    1b64:	9806      	ldr	r0, [sp, #24]
    1b66:	4461      	add	r1, ip
    1b68:	5c09      	ldrb	r1, [r1, r0]
    1b6a:	9105      	str	r1, [sp, #20]
    1b6c:	4988      	ldr	r1, [pc, #544]	; (0x1d90)
    1b6e:	4461      	add	r1, ip
    1b70:	5c08      	ldrb	r0, [r1, r0]
    1b72:	3801      	subs	r0, #1
    1b74:	2807      	cmp	r0, #7
    1b76:	d900      	bls.n	0x1b7a
    1b78:	e130      	b.n	0x1ddc
    1b7a:	f7ff f8bb 	bl	0xcf4
    1b7e:	0115      	lsls	r5, r2, #4
    1b80:	0127      	lsls	r7, r4, #4
    1b82:	0008      	movs	r0, r1
    1b84:	002c      	movs	r4, r5
    1b86:	010c      	lsls	r4, r1, #4
    1b88:	010b      	lsls	r3, r1, #4
    1b8a:	00dd      	lsls	r5, r3, #3
    1b8c:	00ed      	lsls	r5, r5, #3
    1b8e:	2b6a      	cmp	r3, #106	; 0x6a
    1b90:	d010      	beq.n	0x1bb4
    1b92:	d804      	bhi.n	0x1b9e
    1b94:	2b4c      	cmp	r3, #76	; 0x4c
    1b96:	d00b      	beq.n	0x1bb0
    1b98:	2b68      	cmp	r3, #104	; 0x68
    1b9a:	d10d      	bne.n	0x1bb8
    1b9c:	e11e      	b.n	0x1ddc
    1b9e:	2b74      	cmp	r3, #116	; 0x74
    1ba0:	d100      	bne.n	0x1ba4
    1ba2:	e11b      	b.n	0x1ddc
    1ba4:	2b7a      	cmp	r3, #122	; 0x7a
    1ba6:	d100      	bne.n	0x1baa
    1ba8:	e118      	b.n	0x1ddc
    1baa:	2b71      	cmp	r3, #113	; 0x71
    1bac:	d002      	beq.n	0x1bb4
    1bae:	e003      	b.n	0x1bb8
    1bb0:	2308      	movs	r3, #8
    1bb2:	e00c      	b.n	0x1bce
    1bb4:	2320      	movs	r3, #32
    1bb6:	e00a      	b.n	0x1bce
    1bb8:	7853      	ldrb	r3, [r2, #1]
    1bba:	2b6c      	cmp	r3, #108	; 0x6c
    1bbc:	d106      	bne.n	0x1bcc
    1bbe:	4651      	mov	r1, sl
    1bc0:	3b4c      	subs	r3, #76	; 0x4c
    1bc2:	4319      	orrs	r1, r3
    1bc4:	1c93      	adds	r3, r2, #2
    1bc6:	468a      	mov	sl, r1
    1bc8:	4698      	mov	r8, r3
    1bca:	e107      	b.n	0x1ddc
    1bcc:	2310      	movs	r3, #16
    1bce:	4652      	mov	r2, sl
    1bd0:	431a      	orrs	r2, r3
    1bd2:	4692      	mov	sl, r2
    1bd4:	e102      	b.n	0x1ddc
    1bd6:	221f      	movs	r2, #31
    1bd8:	3b41      	subs	r3, #65	; 0x41
    1bda:	4014      	ands	r4, r2
    1bdc:	0018      	movs	r0, r3
    1bde:	2b37      	cmp	r3, #55	; 0x37
    1be0:	d828      	bhi.n	0x1c34
    1be2:	f7ff f87d 	bl	0xce0
    1be6:	2786      	movs	r7, #134	; 0x86
    1be8:	3559      	adds	r5, #89	; 0x59
    1bea:	8686      	strh	r6, [r0, #52]	; 0x34
    1bec:	2786      	movs	r7, #134	; 0x86
    1bee:	2727      	movs	r7, #39	; 0x27
    1bf0:	2727      	movs	r7, #39	; 0x27
    1bf2:	2727      	movs	r7, #39	; 0x27
    1bf4:	2735      	movs	r7, #53	; 0x35
    1bf6:	2727      	movs	r7, #39	; 0x27
    1bf8:	2777      	movs	r7, #119	; 0x77
    1bfa:	2735      	movs	r7, #53	; 0x35
    1bfc:	1c27      	adds	r7, r4, #0
    1bfe:	2727      	movs	r7, #39	; 0x27
    1c00:	2727      	movs	r7, #39	; 0x27
    1c02:	2727      	movs	r7, #39	; 0x27
    1c04:	2727      	movs	r7, #39	; 0x27
    1c06:	2786      	movs	r7, #134	; 0x86
    1c08:	1c23      	adds	r3, r4, #0
    1c0a:	8686      	strh	r6, [r0, #52]	; 0x34
    1c0c:	2786      	movs	r7, #134	; 0x86
    1c0e:	271c      	movs	r7, #28
    1c10:	2727      	movs	r7, #39	; 0x27
    1c12:	7727      	strb	r7, [r4, #28]
    1c14:	771c      	strb	r4, [r3, #28]
    1c16:	2727      	movs	r7, #39	; 0x27
    1c18:	2777      	movs	r7, #119	; 0x77
    1c1a:	271c      	movs	r7, #28
    1c1c:	1c27      	adds	r7, r4, #0
    1c1e:	4653      	mov	r3, sl
    1c20:	06db      	lsls	r3, r3, #27
    1c22:	d415      	bmi.n	0x1c50
    1c24:	4653      	mov	r3, sl
    1c26:	069b      	lsls	r3, r3, #26
    1c28:	d421      	bmi.n	0x1c6e
    1c2a:	e044      	b.n	0x1cb6
    1c2c:	4653      	mov	r3, sl
    1c2e:	06db      	lsls	r3, r3, #27
    1c30:	d432      	bmi.n	0x1c98
    1c32:	e040      	b.n	0x1cb6
    1c34:	1c73      	adds	r3, r6, #1
    1c36:	d003      	beq.n	0x1c40
    1c38:	464a      	mov	r2, r9
    1c3a:	00b3      	lsls	r3, r6, #2
    1c3c:	509f      	str	r7, [r3, r2]
    1c3e:	e0cd      	b.n	0x1ddc
    1c40:	1e78      	subs	r0, r7, #1
    1c42:	2805      	cmp	r0, #5
    1c44:	d83a      	bhi.n	0x1cbc
    1c46:	f7ff f84b 	bl	0xce0
    1c4a:	1506      	asrs	r6, r0, #20
    1c4c:	5748      	ldrsb	r0, [r1, r5]
    1c4e:	2a69      	cmp	r2, #105	; 0x69
    1c50:	2701      	movs	r7, #1
    1c52:	1c73      	adds	r3, r6, #1
    1c54:	d1f0      	bne.n	0x1c38
    1c56:	4659      	mov	r1, fp
    1c58:	2601      	movs	r6, #1
    1c5a:	682b      	ldr	r3, [r5, #0]
    1c5c:	1d1a      	adds	r2, r3, #4
    1c5e:	602a      	str	r2, [r5, #0]
    1c60:	681a      	ldr	r2, [r3, #0]
    1c62:	00e3      	lsls	r3, r4, #3
    1c64:	50ca      	str	r2, [r1, r3]
    1c66:	3401      	adds	r4, #1
    1c68:	4276      	negs	r6, r6
    1c6a:	2701      	movs	r7, #1
    1c6c:	e0b6      	b.n	0x1ddc
    1c6e:	2702      	movs	r7, #2
    1c70:	1c73      	adds	r3, r6, #1
    1c72:	d1e1      	bne.n	0x1c38
    1c74:	2207      	movs	r2, #7
    1c76:	682b      	ldr	r3, [r5, #0]
    1c78:	3307      	adds	r3, #7
    1c7a:	4393      	bics	r3, r2
    1c7c:	001a      	movs	r2, r3
    1c7e:	2601      	movs	r6, #1
    1c80:	6818      	ldr	r0, [r3, #0]
    1c82:	6859      	ldr	r1, [r3, #4]
    1c84:	00e3      	lsls	r3, r4, #3
    1c86:	3208      	adds	r2, #8
    1c88:	445b      	add	r3, fp
    1c8a:	602a      	str	r2, [r5, #0]
    1c8c:	3401      	adds	r4, #1
    1c8e:	6018      	str	r0, [r3, #0]
    1c90:	6059      	str	r1, [r3, #4]
    1c92:	4276      	negs	r6, r6
    1c94:	2702      	movs	r7, #2
    1c96:	e0a1      	b.n	0x1ddc
    1c98:	2706      	movs	r7, #6
    1c9a:	1c73      	adds	r3, r6, #1
    1c9c:	d1cc      	bne.n	0x1c38
    1c9e:	4659      	mov	r1, fp
    1ca0:	2601      	movs	r6, #1
    1ca2:	682b      	ldr	r3, [r5, #0]
    1ca4:	1d1a      	adds	r2, r3, #4
    1ca6:	602a      	str	r2, [r5, #0]
    1ca8:	681a      	ldr	r2, [r3, #0]
    1caa:	00e3      	lsls	r3, r4, #3
    1cac:	50ca      	str	r2, [r1, r3]
    1cae:	3401      	adds	r4, #1
    1cb0:	4276      	negs	r6, r6
    1cb2:	2706      	movs	r7, #6
    1cb4:	e092      	b.n	0x1ddc
    1cb6:	2700      	movs	r7, #0
    1cb8:	1c73      	adds	r3, r6, #1
    1cba:	d1bd      	bne.n	0x1c38
    1cbc:	4659      	mov	r1, fp
    1cbe:	2601      	movs	r6, #1
    1cc0:	682b      	ldr	r3, [r5, #0]
    1cc2:	1d1a      	adds	r2, r3, #4
    1cc4:	602a      	str	r2, [r5, #0]
    1cc6:	681a      	ldr	r2, [r3, #0]
    1cc8:	00e3      	lsls	r3, r4, #3
    1cca:	50ca      	str	r2, [r1, r3]
    1ccc:	3401      	adds	r4, #1
    1cce:	4276      	negs	r6, r6
    1cd0:	2700      	movs	r7, #0
    1cd2:	e083      	b.n	0x1ddc
    1cd4:	2703      	movs	r7, #3
    1cd6:	1c73      	adds	r3, r6, #1
    1cd8:	d1ae      	bne.n	0x1c38
    1cda:	4659      	mov	r1, fp
    1cdc:	2601      	movs	r6, #1
    1cde:	682b      	ldr	r3, [r5, #0]
    1ce0:	1d1a      	adds	r2, r3, #4
    1ce2:	602a      	str	r2, [r5, #0]
    1ce4:	681a      	ldr	r2, [r3, #0]
    1ce6:	00e3      	lsls	r3, r4, #3
    1ce8:	50ca      	str	r2, [r1, r3]
    1cea:	3401      	adds	r4, #1
    1cec:	4276      	negs	r6, r6
    1cee:	2703      	movs	r7, #3
    1cf0:	e074      	b.n	0x1ddc
    1cf2:	2704      	movs	r7, #4
    1cf4:	1c73      	adds	r3, r6, #1
    1cf6:	d19f      	bne.n	0x1c38
    1cf8:	2207      	movs	r2, #7
    1cfa:	682b      	ldr	r3, [r5, #0]
    1cfc:	3307      	adds	r3, #7
    1cfe:	4393      	bics	r3, r2
    1d00:	001a      	movs	r2, r3
    1d02:	2601      	movs	r6, #1
    1d04:	6818      	ldr	r0, [r3, #0]
    1d06:	6859      	ldr	r1, [r3, #4]
    1d08:	00e3      	lsls	r3, r4, #3
    1d0a:	3208      	adds	r2, #8
    1d0c:	445b      	add	r3, fp
    1d0e:	602a      	str	r2, [r5, #0]
    1d10:	3401      	adds	r4, #1
    1d12:	6018      	str	r0, [r3, #0]
    1d14:	6059      	str	r1, [r3, #4]
    1d16:	4276      	negs	r6, r6
    1d18:	2704      	movs	r7, #4
    1d1a:	e05f      	b.n	0x1ddc
    1d1c:	2207      	movs	r2, #7
    1d1e:	682b      	ldr	r3, [r5, #0]
    1d20:	3307      	adds	r3, #7
    1d22:	4393      	bics	r3, r2
    1d24:	001a      	movs	r2, r3
    1d26:	6818      	ldr	r0, [r3, #0]
    1d28:	6859      	ldr	r1, [r3, #4]
    1d2a:	00e3      	lsls	r3, r4, #3
    1d2c:	3208      	adds	r2, #8
    1d2e:	445b      	add	r3, fp
    1d30:	602a      	str	r2, [r5, #0]
    1d32:	6018      	str	r0, [r3, #0]
    1d34:	6059      	str	r1, [r3, #4]
    1d36:	e035      	b.n	0x1da4
    1d38:	464b      	mov	r3, r9
    1d3a:	681b      	ldr	r3, [r3, #0]
    1d3c:	3301      	adds	r3, #1
    1d3e:	d104      	bne.n	0x1d4a
    1d40:	2280      	movs	r2, #128	; 0x80
    1d42:	2100      	movs	r1, #0
    1d44:	4648      	mov	r0, r9
    1d46:	f004 f935 	bl	0x5fb4
    1d4a:	9b02      	ldr	r3, [sp, #8]
    1d4c:	1e5e      	subs	r6, r3, #1
    1d4e:	9b03      	ldr	r3, [sp, #12]
    1d50:	42b3      	cmp	r3, r6
    1d52:	da43      	bge.n	0x1ddc
    1d54:	9603      	str	r6, [sp, #12]
    1d56:	e041      	b.n	0x1ddc
    1d58:	464b      	mov	r3, r9
    1d5a:	681b      	ldr	r3, [r3, #0]
    1d5c:	3301      	adds	r3, #1
    1d5e:	d104      	bne.n	0x1d6a
    1d60:	2280      	movs	r2, #128	; 0x80
    1d62:	2100      	movs	r1, #0
    1d64:	4648      	mov	r0, r9
    1d66:	f004 f925 	bl	0x5fb4
    1d6a:	2200      	movs	r2, #0
    1d6c:	4649      	mov	r1, r9
    1d6e:	9b02      	ldr	r3, [sp, #8]
    1d70:	3b01      	subs	r3, #1
    1d72:	9302      	str	r3, [sp, #8]
    1d74:	009b      	lsls	r3, r3, #2
    1d76:	505a      	str	r2, [r3, r1]
    1d78:	9b03      	ldr	r3, [sp, #12]
    1d7a:	9a02      	ldr	r2, [sp, #8]
    1d7c:	4293      	cmp	r3, r2
    1d7e:	da2d      	bge.n	0x1ddc
    1d80:	9203      	str	r2, [sp, #12]
    1d82:	e02b      	b.n	0x1ddc
    1d84:	01ec      	lsls	r4, r5, #7
    1d86:	0300      	lsls	r0, r0, #12
    1d88:	7648      	strb	r0, [r1, #25]
    1d8a:	0800      	lsrs	r0, r0, #32
    1d8c:	7748      	strb	r0, [r1, #29]
    1d8e:	0800      	lsrs	r0, r0, #32
    1d90:	75dc      	strb	r4, [r3, #23]
    1d92:	0800      	lsrs	r0, r0, #32
    1d94:	4690      	mov	r8, r2
    1d96:	4659      	mov	r1, fp
    1d98:	682b      	ldr	r3, [r5, #0]
    1d9a:	1d1a      	adds	r2, r3, #4
    1d9c:	602a      	str	r2, [r5, #0]
    1d9e:	681a      	ldr	r2, [r3, #0]
    1da0:	00e3      	lsls	r3, r4, #3
    1da2:	50ca      	str	r2, [r1, r3]
    1da4:	3401      	adds	r4, #1
    1da6:	e019      	b.n	0x1ddc
    1da8:	4642      	mov	r2, r8
    1daa:	3b30      	subs	r3, #48	; 0x30
    1dac:	9302      	str	r3, [sp, #8]
    1dae:	7813      	ldrb	r3, [r2, #0]
    1db0:	2b00      	cmp	r3, #0
    1db2:	d012      	beq.n	0x1dda
    1db4:	3b30      	subs	r3, #48	; 0x30
    1db6:	2b09      	cmp	r3, #9
    1db8:	d80f      	bhi.n	0x1dda
    1dba:	210a      	movs	r1, #10
    1dbc:	468c      	mov	ip, r1
    1dbe:	9802      	ldr	r0, [sp, #8]
    1dc0:	4661      	mov	r1, ip
    1dc2:	4341      	muls	r1, r0
    1dc4:	18cb      	adds	r3, r1, r3
    1dc6:	9302      	str	r3, [sp, #8]
    1dc8:	3201      	adds	r2, #1
    1dca:	e7f0      	b.n	0x1dae
    1dcc:	4642      	mov	r2, r8
    1dce:	7813      	ldrb	r3, [r2, #0]
    1dd0:	3b30      	subs	r3, #48	; 0x30
    1dd2:	2b09      	cmp	r3, #9
    1dd4:	d801      	bhi.n	0x1dda
    1dd6:	3201      	adds	r2, #1
    1dd8:	e7f9      	b.n	0x1dce
    1dda:	4690      	mov	r8, r2
    1ddc:	9b05      	ldr	r3, [sp, #20]
    1dde:	2b0b      	cmp	r3, #11
    1de0:	d001      	beq.n	0x1de6
    1de2:	4642      	mov	r2, r8
    1de4:	e6b0      	b.n	0x1b48
    1de6:	4647      	mov	r7, r8
    1de8:	e680      	b.n	0x1aec
    1dea:	783b      	ldrb	r3, [r7, #0]
    1dec:	46ba      	mov	sl, r7
    1dee:	2b00      	cmp	r3, #0
    1df0:	d001      	beq.n	0x1df6
    1df2:	9b04      	ldr	r3, [sp, #16]
    1df4:	9303      	str	r3, [sp, #12]
    1df6:	2607      	movs	r6, #7
    1df8:	465a      	mov	r2, fp
    1dfa:	464f      	mov	r7, r9
    1dfc:	9b03      	ldr	r3, [sp, #12]
    1dfe:	429c      	cmp	r4, r3
    1e00:	dc27      	bgt.n	0x1e52
    1e02:	00a3      	lsls	r3, r4, #2
    1e04:	58f8      	ldr	r0, [r7, r3]
    1e06:	3801      	subs	r0, #1
    1e08:	6829      	ldr	r1, [r5, #0]
    1e0a:	00e3      	lsls	r3, r4, #3
    1e0c:	2805      	cmp	r0, #5
    1e0e:	d81a      	bhi.n	0x1e46
    1e10:	f7fe ff66 	bl	0xce0
    1e14:	0319      	lsls	r1, r3, #12
    1e16:	0e19      	lsrs	r1, r3, #24
    1e18:	190e      	adds	r6, r1, r4
    1e1a:	3107      	adds	r1, #7
    1e1c:	43b1      	bics	r1, r6
    1e1e:	0008      	movs	r0, r1
    1e20:	3008      	adds	r0, #8
    1e22:	6028      	str	r0, [r5, #0]
    1e24:	6808      	ldr	r0, [r1, #0]
    1e26:	6849      	ldr	r1, [r1, #4]
    1e28:	18d3      	adds	r3, r2, r3
    1e2a:	6018      	str	r0, [r3, #0]
    1e2c:	6059      	str	r1, [r3, #4]
    1e2e:	e00e      	b.n	0x1e4e
    1e30:	3107      	adds	r1, #7
    1e32:	43b1      	bics	r1, r6
    1e34:	0008      	movs	r0, r1
    1e36:	3008      	adds	r0, #8
    1e38:	6028      	str	r0, [r5, #0]
    1e3a:	6808      	ldr	r0, [r1, #0]
    1e3c:	6849      	ldr	r1, [r1, #4]
    1e3e:	18d3      	adds	r3, r2, r3
    1e40:	6018      	str	r0, [r3, #0]
    1e42:	6059      	str	r1, [r3, #4]
    1e44:	e003      	b.n	0x1e4e
    1e46:	1d08      	adds	r0, r1, #4
    1e48:	6028      	str	r0, [r5, #0]
    1e4a:	6809      	ldr	r1, [r1, #0]
    1e4c:	50d1      	str	r1, [r2, r3]
    1e4e:	3401      	adds	r4, #1
    1e50:	e7d4      	b.n	0x1dfc
    1e52:	4693      	mov	fp, r2
    1e54:	4652      	mov	r2, sl
    1e56:	9b16      	ldr	r3, [sp, #88]	; 0x58
    1e58:	601c      	str	r4, [r3, #0]
    1e5a:	9b19      	ldr	r3, [sp, #100]	; 0x64
    1e5c:	601a      	str	r2, [r3, #0]
    1e5e:	9b04      	ldr	r3, [sp, #16]
    1e60:	00d8      	lsls	r0, r3, #3
    1e62:	4458      	add	r0, fp
    1e64:	b00d      	add	sp, #52	; 0x34
    1e66:	bc3c      	pop	{r2, r3, r4, r5}
    1e68:	4690      	mov	r8, r2
    1e6a:	4699      	mov	r9, r3
    1e6c:	46a2      	mov	sl, r4
    1e6e:	46ab      	mov	fp, r5
    1e70:	bcf0      	pop	{r4, r5, r6, r7}
    1e72:	bc02      	pop	{r1}
    1e74:	4708      	bx	r1
    1e76:	4750      	bx	sl
    1e78:	b5f0      	push	{r4, r5, r6, r7, lr}
    1e7a:	46de      	mov	lr, fp
    1e7c:	4657      	mov	r7, sl
    1e7e:	464e      	mov	r6, r9
    1e80:	4645      	mov	r5, r8
    1e82:	b5e0      	push	{r5, r6, r7, lr}
    1e84:	4cb5      	ldr	r4, [pc, #724]	; (0x215c)
    1e86:	44a5      	add	sp, r4
    1e88:	910a      	str	r1, [sp, #40]	; 0x28
    1e8a:	9209      	str	r2, [sp, #36]	; 0x24
    1e8c:	9321      	str	r3, [sp, #132]	; 0x84
    1e8e:	4683      	mov	fp, r0
    1e90:	f003 fc36 	bl	0x5700
    1e94:	6803      	ldr	r3, [r0, #0]
    1e96:	0018      	movs	r0, r3
    1e98:	9318      	str	r3, [sp, #96]	; 0x60
    1e9a:	f004 fc95 	bl	0x67c8
    1e9e:	2208      	movs	r2, #8
    1ea0:	9013      	str	r0, [sp, #76]	; 0x4c
    1ea2:	2100      	movs	r1, #0
    1ea4:	a82c      	add	r0, sp, #176	; 0xb0
    1ea6:	f004 f885 	bl	0x5fb4
    1eaa:	9b0a      	ldr	r3, [sp, #40]	; 0x28
    1eac:	899b      	ldrh	r3, [r3, #12]
    1eae:	061b      	lsls	r3, r3, #24
    1eb0:	d516      	bpl.n	0x1ee0
    1eb2:	9b0a      	ldr	r3, [sp, #40]	; 0x28
    1eb4:	691b      	ldr	r3, [r3, #16]
    1eb6:	9308      	str	r3, [sp, #32]
    1eb8:	2b00      	cmp	r3, #0
    1eba:	d111      	bne.n	0x1ee0
    1ebc:	2140      	movs	r1, #64	; 0x40
    1ebe:	4658      	mov	r0, fp
    1ec0:	f003 fc3c 	bl	0x573c
    1ec4:	9b0a      	ldr	r3, [sp, #40]	; 0x28
    1ec6:	6018      	str	r0, [r3, #0]
    1ec8:	6118      	str	r0, [r3, #16]
    1eca:	2800      	cmp	r0, #0
    1ecc:	d105      	bne.n	0x1eda
    1ece:	230c      	movs	r3, #12
    1ed0:	465a      	mov	r2, fp
    1ed2:	6013      	str	r3, [r2, #0]
    1ed4:	3b0d      	subs	r3, #13
    1ed6:	f002 f9ac 	bl	0x4232
    1eda:	2340      	movs	r3, #64	; 0x40
    1edc:	9a0a      	ldr	r2, [sp, #40]	; 0x28
    1ede:	6153      	str	r3, [r2, #20]
    1ee0:	2300      	movs	r3, #0
    1ee2:	4698      	mov	r8, r3
    1ee4:	9332      	str	r3, [sp, #200]	; 0xc8
    1ee6:	9331      	str	r3, [sp, #196]	; 0xc4
    1ee8:	9326      	str	r3, [sp, #152]	; 0x98
    1eea:	9325      	str	r3, [sp, #148]	; 0x94
    1eec:	930b      	str	r3, [sp, #44]	; 0x2c
    1eee:	930f      	str	r3, [sp, #60]	; 0x3c
    1ef0:	930e      	str	r3, [sp, #56]	; 0x38
    1ef2:	931b      	str	r3, [sp, #108]	; 0x6c
    1ef4:	931a      	str	r3, [sp, #104]	; 0x68
    1ef6:	9312      	str	r3, [sp, #72]	; 0x48
    1ef8:	9316      	str	r3, [sp, #88]	; 0x58
    1efa:	9319      	str	r3, [sp, #100]	; 0x64
    1efc:	9314      	str	r3, [sp, #80]	; 0x50
    1efe:	465b      	mov	r3, fp
    1f00:	2101      	movs	r1, #1
    1f02:	aa33      	add	r2, sp, #204	; 0xcc
    1f04:	46c1      	mov	r9, r8
    1f06:	4693      	mov	fp, r2
    1f08:	4698      	mov	r8, r3
    1f0a:	4249      	negs	r1, r1
    1f0c:	9230      	str	r2, [sp, #192]	; 0xc0
    1f0e:	915c      	str	r1, [sp, #368]	; 0x170
    1f10:	9d09      	ldr	r5, [sp, #36]	; 0x24
    1f12:	4f93      	ldr	r7, [pc, #588]	; (0x2160)
    1f14:	f005 f902 	bl	0x711c
    1f18:	6b43      	ldr	r3, [r0, #52]	; 0x34
    1f1a:	2b00      	cmp	r3, #0
    1f1c:	d100      	bne.n	0x1f20
    1f1e:	003b      	movs	r3, r7
    1f20:	33e4      	adds	r3, #228	; 0xe4
    1f22:	681e      	ldr	r6, [r3, #0]
    1f24:	f003 fbfa 	bl	0x571c
    1f28:	ac2c      	add	r4, sp, #176	; 0xb0
    1f2a:	0003      	movs	r3, r0
    1f2c:	9400      	str	r4, [sp, #0]
    1f2e:	002a      	movs	r2, r5
    1f30:	a928      	add	r1, sp, #160	; 0xa0
    1f32:	4640      	mov	r0, r8
    1f34:	f002 f9b6 	bl	0x42a4
    1f38:	2800      	cmp	r0, #0
    1f3a:	d00c      	beq.n	0x1f56
    1f3c:	da06      	bge.n	0x1f4c
    1f3e:	2208      	movs	r2, #8
    1f40:	2100      	movs	r1, #0
    1f42:	0020      	movs	r0, r4
    1f44:	f004 f836 	bl	0x5fb4
    1f48:	2001      	movs	r0, #1
    1f4a:	e002      	b.n	0x1f52
    1f4c:	9b28      	ldr	r3, [sp, #160]	; 0xa0
    1f4e:	2b25      	cmp	r3, #37	; 0x25
    1f50:	d001      	beq.n	0x1f56
    1f52:	182d      	adds	r5, r5, r0
    1f54:	e7de      	b.n	0x1f14
    1f56:	9b09      	ldr	r3, [sp, #36]	; 0x24
    1f58:	0004      	movs	r4, r0
    1f5a:	1aee      	subs	r6, r5, r3
    1f5c:	d01f      	beq.n	0x1f9e
    1f5e:	465b      	mov	r3, fp
    1f60:	9a09      	ldr	r2, [sp, #36]	; 0x24
    1f62:	c344      	stmia	r3!, {r2, r6}
    1f64:	9b32      	ldr	r3, [sp, #200]	; 0xc8
    1f66:	199b      	adds	r3, r3, r6
    1f68:	9332      	str	r3, [sp, #200]	; 0xc8
    1f6a:	9b31      	ldr	r3, [sp, #196]	; 0xc4
    1f6c:	9308      	str	r3, [sp, #32]
    1f6e:	3301      	adds	r3, #1
    1f70:	9331      	str	r3, [sp, #196]	; 0xc4
    1f72:	2b07      	cmp	r3, #7
    1f74:	dc03      	bgt.n	0x1f7e
    1f76:	2308      	movs	r3, #8
    1f78:	469c      	mov	ip, r3
    1f7a:	44e3      	add	fp, ip
    1f7c:	e00a      	b.n	0x1f94
    1f7e:	aa30      	add	r2, sp, #192	; 0xc0
    1f80:	990a      	ldr	r1, [sp, #40]	; 0x28
    1f82:	4640      	mov	r0, r8
    1f84:	f004 fc98 	bl	0x68b8
    1f88:	2800      	cmp	r0, #0
    1f8a:	d001      	beq.n	0x1f90
    1f8c:	f002 f94b 	bl	0x4226
    1f90:	ab33      	add	r3, sp, #204	; 0xcc
    1f92:	469b      	mov	fp, r3
    1f94:	9b14      	ldr	r3, [sp, #80]	; 0x50
    1f96:	469c      	mov	ip, r3
    1f98:	44b4      	add	ip, r6
    1f9a:	4663      	mov	r3, ip
    1f9c:	9314      	str	r3, [sp, #80]	; 0x50
    1f9e:	2c00      	cmp	r4, #0
    1fa0:	d101      	bne.n	0x1fa6
    1fa2:	f002 f928 	bl	0x41f6
    1fa6:	2200      	movs	r2, #0
    1fa8:	a81a      	add	r0, sp, #104	; 0x68
    1faa:	2127      	movs	r1, #39	; 0x27
    1fac:	4684      	mov	ip, r0
    1fae:	4692      	mov	sl, r2
    1fb0:	4461      	add	r1, ip
    1fb2:	700a      	strb	r2, [r1, #0]
    1fb4:	9210      	str	r2, [sp, #64]	; 0x40
    1fb6:	465a      	mov	r2, fp
    1fb8:	2701      	movs	r7, #1
    1fba:	46cb      	mov	fp, r9
    1fbc:	464e      	mov	r6, r9
    1fbe:	4654      	mov	r4, sl
    1fc0:	46a9      	mov	r9, r5
    1fc2:	9208      	str	r2, [sp, #32]
    1fc4:	1c6b      	adds	r3, r5, #1
    1fc6:	427f      	negs	r7, r7
    1fc8:	781a      	ldrb	r2, [r3, #0]
    1fca:	1c5d      	adds	r5, r3, #1
    1fcc:	0010      	movs	r0, r2
    1fce:	3820      	subs	r0, #32
    1fd0:	285a      	cmp	r0, #90	; 0x5a
    1fd2:	d901      	bls.n	0x1fd8
    1fd4:	f001 fc3b 	bl	0x384e
    1fd8:	f7fe fe8c 	bl	0xcf4
    1fdc:	008f      	lsls	r7, r1, #2
    1fde:	0c39      	lsrs	r1, r7, #16
    1fe0:	0c39      	lsrs	r1, r7, #16
    1fe2:	0099      	lsls	r1, r3, #2
    1fe4:	0c39      	lsrs	r1, r7, #16
    1fe6:	0c39      	lsrs	r1, r7, #16
    1fe8:	0c39      	lsrs	r1, r7, #16
    1fea:	0075      	lsls	r5, r6, #1
    1fec:	0c39      	lsrs	r1, r7, #16
    1fee:	0c39      	lsrs	r1, r7, #16
    1ff0:	009b      	lsls	r3, r3, #2
    1ff2:	00ed      	lsls	r5, r5, #3
    1ff4:	0c39      	lsrs	r1, r7, #16
    1ff6:	00eb      	lsls	r3, r5, #3
    1ff8:	00f4      	lsls	r4, r6, #3
    1ffa:	0c39      	lsrs	r1, r7, #16
    1ffc:	0137      	lsls	r7, r6, #4
    1ffe:	0139      	lsls	r1, r7, #4
    2000:	0139      	lsls	r1, r7, #4
    2002:	0139      	lsls	r1, r7, #4
    2004:	0139      	lsls	r1, r7, #4
    2006:	0139      	lsls	r1, r7, #4
    2008:	0139      	lsls	r1, r7, #4
    200a:	0139      	lsls	r1, r7, #4
    200c:	0139      	lsls	r1, r7, #4
    200e:	0139      	lsls	r1, r7, #4
    2010:	0c39      	lsrs	r1, r7, #16
    2012:	0c39      	lsrs	r1, r7, #16
    2014:	0c39      	lsrs	r1, r7, #16
    2016:	0c39      	lsrs	r1, r7, #16
    2018:	0c39      	lsrs	r1, r7, #16
    201a:	0c39      	lsrs	r1, r7, #16
    201c:	0c39      	lsrs	r1, r7, #16
    201e:	0345      	lsls	r5, r0, #13
    2020:	0c39      	lsrs	r1, r7, #16
    2022:	0166      	lsls	r6, r4, #5
    2024:	01fb      	lsls	r3, r7, #7
    2026:	0345      	lsls	r5, r0, #13
    2028:	0345      	lsls	r5, r0, #13
    202a:	0345      	lsls	r5, r0, #13
    202c:	0c39      	lsrs	r1, r7, #16
    202e:	0c39      	lsrs	r1, r7, #16
    2030:	0c39      	lsrs	r1, r7, #16
    2032:	0c39      	lsrs	r1, r7, #16
    2034:	0150      	lsls	r0, r2, #5
    2036:	0c39      	lsrs	r1, r7, #16
    2038:	0c39      	lsrs	r1, r7, #16
    203a:	06d7      	lsls	r7, r2, #27
    203c:	0c39      	lsrs	r1, r7, #16
    203e:	0c39      	lsrs	r1, r7, #16
    2040:	0c39      	lsrs	r1, r7, #16
    2042:	083c      	lsrs	r4, r7, #32
    2044:	0c39      	lsrs	r1, r7, #16
    2046:	0918      	lsrs	r0, r3, #4
    2048:	0c39      	lsrs	r1, r7, #16
    204a:	0c39      	lsrs	r1, r7, #16
    204c:	0a38      	lsrs	r0, r7, #8
    204e:	0c39      	lsrs	r1, r7, #16
    2050:	0c39      	lsrs	r1, r7, #16
    2052:	0c39      	lsrs	r1, r7, #16
    2054:	0c39      	lsrs	r1, r7, #16
    2056:	0c39      	lsrs	r1, r7, #16
    2058:	0c39      	lsrs	r1, r7, #16
    205a:	0c39      	lsrs	r1, r7, #16
    205c:	0c39      	lsrs	r1, r7, #16
    205e:	0345      	lsls	r5, r0, #13
    2060:	0c39      	lsrs	r1, r7, #16
    2062:	0166      	lsls	r6, r4, #5
    2064:	0209      	lsls	r1, r1, #8
    2066:	0345      	lsls	r5, r0, #13
    2068:	0345      	lsls	r5, r0, #13
    206a:	0345      	lsls	r5, r0, #13
    206c:	0152      	lsls	r2, r2, #5
    206e:	0209      	lsls	r1, r1, #8
    2070:	0163      	lsls	r3, r4, #5
    2072:	0c39      	lsrs	r1, r7, #16
    2074:	015b      	lsls	r3, r3, #5
    2076:	0c39      	lsrs	r1, r7, #16
    2078:	05f4      	lsls	r4, r6, #23
    207a:	06e5      	lsls	r5, r4, #27
    207c:	07f5      	lsls	r5, r6, #31
    207e:	0163      	lsls	r3, r4, #5
    2080:	0c39      	lsrs	r1, r7, #16
    2082:	083c      	lsrs	r4, r7, #32
    2084:	0073      	lsls	r3, r6, #1
    2086:	0926      	lsrs	r6, r4, #4
    2088:	0c39      	lsrs	r1, r7, #16
    208a:	0c39      	lsrs	r1, r7, #16
    208c:	0a43      	lsrs	r3, r0, #9
    208e:	0c39      	lsrs	r1, r7, #16
    2090:	0073      	lsls	r3, r6, #1
    2092:	786b      	ldrb	r3, [r5, #1]
    2094:	001a      	movs	r2, r3
    2096:	3a30      	subs	r2, #48	; 0x30
    2098:	2a09      	cmp	r2, #9
    209a:	d900      	bls.n	0x209e
    209c:	e0b6      	b.n	0x220c
    209e:	2100      	movs	r1, #0
    20a0:	3502      	adds	r5, #2
    20a2:	220a      	movs	r2, #10
    20a4:	434a      	muls	r2, r1
    20a6:	3b30      	subs	r3, #48	; 0x30
    20a8:	1899      	adds	r1, r3, r2
    20aa:	782b      	ldrb	r3, [r5, #0]
    20ac:	001a      	movs	r2, r3
    20ae:	3a30      	subs	r2, #48	; 0x30
    20b0:	3501      	adds	r5, #1
    20b2:	2a09      	cmp	r2, #9
    20b4:	d9f5      	bls.n	0x20a2
    20b6:	2b24      	cmp	r3, #36	; 0x24
    20b8:	d100      	bne.n	0x20bc
    20ba:	e08a      	b.n	0x21d2
    20bc:	0005      	movs	r5, r0
    20be:	2300      	movs	r3, #0
    20c0:	469a      	mov	sl, r3
    20c2:	002b      	movs	r3, r5
    20c4:	e780      	b.n	0x1fc8
    20c6:	4640      	mov	r0, r8
    20c8:	f003 fb1a 	bl	0x5700
    20cc:	6843      	ldr	r3, [r0, #4]
    20ce:	0018      	movs	r0, r3
    20d0:	9319      	str	r3, [sp, #100]	; 0x64
    20d2:	f004 fb79 	bl	0x67c8
    20d6:	9016      	str	r0, [sp, #88]	; 0x58
    20d8:	4640      	mov	r0, r8
    20da:	f003 fb11 	bl	0x5700
    20de:	6883      	ldr	r3, [r0, #8]
    20e0:	9312      	str	r3, [sp, #72]	; 0x48
    20e2:	9b16      	ldr	r3, [sp, #88]	; 0x58
    20e4:	2b00      	cmp	r3, #0
    20e6:	d0ec      	beq.n	0x20c2
    20e8:	9b12      	ldr	r3, [sp, #72]	; 0x48
    20ea:	2b00      	cmp	r3, #0
    20ec:	d0e9      	beq.n	0x20c2
    20ee:	781b      	ldrb	r3, [r3, #0]
    20f0:	2b00      	cmp	r3, #0
    20f2:	d0e6      	beq.n	0x20c2
    20f4:	2380      	movs	r3, #128	; 0x80
    20f6:	00db      	lsls	r3, r3, #3
    20f8:	e0d4      	b.n	0x22a4
    20fa:	2227      	movs	r2, #39	; 0x27
    20fc:	ab1a      	add	r3, sp, #104	; 0x68
    20fe:	189b      	adds	r3, r3, r2
    2100:	781b      	ldrb	r3, [r3, #0]
    2102:	2b00      	cmp	r3, #0
    2104:	d1dd      	bne.n	0x20c2
    2106:	ab1a      	add	r3, sp, #104	; 0x68
    2108:	189b      	adds	r3, r3, r2
    210a:	3a07      	subs	r2, #7
    210c:	e058      	b.n	0x21c0
    210e:	2301      	movs	r3, #1
    2110:	e0c8      	b.n	0x22a4
    2112:	782b      	ldrb	r3, [r5, #0]
    2114:	001a      	movs	r2, r3
    2116:	3a30      	subs	r2, #48	; 0x30
    2118:	2a09      	cmp	r2, #9
    211a:	d901      	bls.n	0x2120
    211c:	f002 f88b 	bl	0x4236
    2120:	2100      	movs	r1, #0
    2122:	1c6a      	adds	r2, r5, #1
    2124:	920c      	str	r2, [sp, #48]	; 0x30
    2126:	220a      	movs	r2, #10
    2128:	434a      	muls	r2, r1
    212a:	3b30      	subs	r3, #48	; 0x30
    212c:	1899      	adds	r1, r3, r2
    212e:	9b0c      	ldr	r3, [sp, #48]	; 0x30
    2130:	9a0c      	ldr	r2, [sp, #48]	; 0x30
    2132:	781b      	ldrb	r3, [r3, #0]
    2134:	3201      	adds	r2, #1
    2136:	920c      	str	r2, [sp, #48]	; 0x30
    2138:	001a      	movs	r2, r3
    213a:	3a30      	subs	r2, #48	; 0x30
    213c:	2a09      	cmp	r2, #9
    213e:	d9f2      	bls.n	0x2126
    2140:	2b24      	cmp	r3, #36	; 0x24
    2142:	d1bc      	bne.n	0x20be
    2144:	2920      	cmp	r1, #32
    2146:	dd01      	ble.n	0x214c
    2148:	f002 f86d 	bl	0x4226
    214c:	9b25      	ldr	r3, [sp, #148]	; 0x94
    214e:	3901      	subs	r1, #1
    2150:	428b      	cmp	r3, r1
    2152:	dd07      	ble.n	0x2164
    2154:	00c9      	lsls	r1, r1, #3
    2156:	aa7c      	add	r2, sp, #496	; 0x1f0
    2158:	588b      	ldr	r3, [r1, r2]
    215a:	e011      	b.n	0x2180
    215c:	fd0c ffff 			; <UNDEFINED> instruction: 0xfd0cffff
    2160:	01ec      	lsls	r4, r5, #7
    2162:	0300      	lsls	r0, r0, #12
    2164:	ab26      	add	r3, sp, #152	; 0x98
    2166:	9303      	str	r3, [sp, #12]
    2168:	ab5c      	add	r3, sp, #368	; 0x170
    216a:	9302      	str	r3, [sp, #8]
    216c:	ab7c      	add	r3, sp, #496	; 0x1f0
    216e:	9301      	str	r3, [sp, #4]
    2170:	ab25      	add	r3, sp, #148	; 0x94
    2172:	9300      	str	r3, [sp, #0]
    2174:	464a      	mov	r2, r9
    2176:	ab21      	add	r3, sp, #132	; 0x84
    2178:	4640      	mov	r0, r8
    217a:	f7ff fc99 	bl	0x1ab0
    217e:	6803      	ldr	r3, [r0, #0]
    2180:	9310      	str	r3, [sp, #64]	; 0x40
    2182:	9d0c      	ldr	r5, [sp, #48]	; 0x30
    2184:	0032      	movs	r2, r6
    2186:	e00e      	b.n	0x21a6
    2188:	9921      	ldr	r1, [sp, #132]	; 0x84
    218a:	1d08      	adds	r0, r1, #4
    218c:	2b1f      	cmp	r3, #31
    218e:	dd01      	ble.n	0x2194
    2190:	f002 f85c 	bl	0x424c
    2194:	1c5e      	adds	r6, r3, #1
    2196:	9625      	str	r6, [sp, #148]	; 0x94
    2198:	6809      	ldr	r1, [r1, #0]
    219a:	9110      	str	r1, [sp, #64]	; 0x40
    219c:	9021      	str	r0, [sp, #132]	; 0x84
    219e:	9810      	ldr	r0, [sp, #64]	; 0x40
    21a0:	00db      	lsls	r3, r3, #3
    21a2:	a97c      	add	r1, sp, #496	; 0x1f0
    21a4:	5058      	str	r0, [r3, r1]
    21a6:	9b10      	ldr	r3, [sp, #64]	; 0x40
    21a8:	0016      	movs	r6, r2
    21aa:	2b00      	cmp	r3, #0
    21ac:	da89      	bge.n	0x20c2
    21ae:	425b      	negs	r3, r3
    21b0:	9310      	str	r3, [sp, #64]	; 0x40
    21b2:	2304      	movs	r3, #4
    21b4:	e076      	b.n	0x22a4
    21b6:	aa1a      	add	r2, sp, #104	; 0x68
    21b8:	4694      	mov	ip, r2
    21ba:	2327      	movs	r3, #39	; 0x27
    21bc:	222b      	movs	r2, #43	; 0x2b
    21be:	4463      	add	r3, ip
    21c0:	701a      	strb	r2, [r3, #0]
    21c2:	e77e      	b.n	0x20c2
    21c4:	782a      	ldrb	r2, [r5, #0]
    21c6:	1c68      	adds	r0, r5, #1
    21c8:	2a2a      	cmp	r2, #42	; 0x2a
    21ca:	d100      	bne.n	0x21ce
    21cc:	e761      	b.n	0x2092
    21ce:	2700      	movs	r7, #0
    21d0:	e02d      	b.n	0x222e
    21d2:	2920      	cmp	r1, #32
    21d4:	dd01      	ble.n	0x21da
    21d6:	f002 f826 	bl	0x4226
    21da:	9b25      	ldr	r3, [sp, #148]	; 0x94
    21dc:	3901      	subs	r1, #1
    21de:	428b      	cmp	r3, r1
    21e0:	dd03      	ble.n	0x21ea
    21e2:	00c9      	lsls	r1, r1, #3
    21e4:	aa7c      	add	r2, sp, #496	; 0x1f0
    21e6:	588f      	ldr	r7, [r1, r2]
    21e8:	e00d      	b.n	0x2206
    21ea:	ab26      	add	r3, sp, #152	; 0x98
    21ec:	9303      	str	r3, [sp, #12]
    21ee:	ab5c      	add	r3, sp, #368	; 0x170
    21f0:	9302      	str	r3, [sp, #8]
    21f2:	ab7c      	add	r3, sp, #496	; 0x1f0
    21f4:	9301      	str	r3, [sp, #4]
    21f6:	ab25      	add	r3, sp, #148	; 0x94
    21f8:	9300      	str	r3, [sp, #0]
    21fa:	464a      	mov	r2, r9
    21fc:	ab21      	add	r3, sp, #132	; 0x84
    21fe:	4640      	mov	r0, r8
    2200:	f7ff fc56 	bl	0x1ab0
    2204:	6807      	ldr	r7, [r0, #0]
    2206:	0028      	movs	r0, r5
    2208:	0032      	movs	r2, r6
    220a:	e009      	b.n	0x2220
    220c:	9b25      	ldr	r3, [sp, #148]	; 0x94
    220e:	1c72      	adds	r2, r6, #1
    2210:	42b3      	cmp	r3, r6
    2212:	dc01      	bgt.n	0x2218
    2214:	f002 f81f 	bl	0x4256
    2218:	465b      	mov	r3, fp
    221a:	a97c      	add	r1, sp, #496	; 0x1f0
    221c:	00db      	lsls	r3, r3, #3
    221e:	585f      	ldr	r7, [r3, r1]
    2220:	2f00      	cmp	r7, #0
    2222:	da01      	bge.n	0x2228
    2224:	2701      	movs	r7, #1
    2226:	427f      	negs	r7, r7
    2228:	0016      	movs	r6, r2
    222a:	0005      	movs	r5, r0
    222c:	e749      	b.n	0x20c2
    222e:	0013      	movs	r3, r2
    2230:	3b30      	subs	r3, #48	; 0x30
    2232:	0005      	movs	r5, r0
    2234:	2b09      	cmp	r3, #9
    2236:	d805      	bhi.n	0x2244
    2238:	220a      	movs	r2, #10
    223a:	437a      	muls	r2, r7
    223c:	18d7      	adds	r7, r2, r3
    223e:	7802      	ldrb	r2, [r0, #0]
    2240:	3001      	adds	r0, #1
    2242:	e7f4      	b.n	0x222e
    2244:	9b10      	ldr	r3, [sp, #64]	; 0x40
    2246:	9310      	str	r3, [sp, #64]	; 0x40
    2248:	e6c0      	b.n	0x1fcc
    224a:	2380      	movs	r3, #128	; 0x80
    224c:	e02a      	b.n	0x22a4
    224e:	0029      	movs	r1, r5
    2250:	2300      	movs	r3, #0
    2252:	200a      	movs	r0, #10
    2254:	4358      	muls	r0, r3
    2256:	3a30      	subs	r2, #48	; 0x30
    2258:	1813      	adds	r3, r2, r0
    225a:	780a      	ldrb	r2, [r1, #0]
    225c:	0010      	movs	r0, r2
    225e:	3501      	adds	r5, #1
    2260:	3830      	subs	r0, #48	; 0x30
    2262:	0029      	movs	r1, r5
    2264:	2809      	cmp	r0, #9
    2266:	d9f4      	bls.n	0x2252
    2268:	2a24      	cmp	r2, #36	; 0x24
    226a:	d1ec      	bne.n	0x2246
    226c:	2b20      	cmp	r3, #32
    226e:	dd01      	ble.n	0x2274
    2270:	f001 ffd9 	bl	0x4226
    2274:	3b01      	subs	r3, #1
    2276:	469b      	mov	fp, r3
    2278:	2301      	movs	r3, #1
    227a:	e721      	b.n	0x20c0
    227c:	2308      	movs	r3, #8
    227e:	e011      	b.n	0x22a4
    2280:	782b      	ldrb	r3, [r5, #0]
    2282:	2b68      	cmp	r3, #104	; 0x68
    2284:	d103      	bne.n	0x228e
    2286:	3399      	adds	r3, #153	; 0x99
    2288:	3501      	adds	r5, #1
    228a:	33ff      	adds	r3, #255	; 0xff
    228c:	e00a      	b.n	0x22a4
    228e:	2340      	movs	r3, #64	; 0x40
    2290:	e008      	b.n	0x22a4
    2292:	782b      	ldrb	r3, [r5, #0]
    2294:	2b6c      	cmp	r3, #108	; 0x6c
    2296:	d102      	bne.n	0x229e
    2298:	3501      	adds	r5, #1
    229a:	3b4c      	subs	r3, #76	; 0x4c
    229c:	e002      	b.n	0x22a4
    229e:	2310      	movs	r3, #16
    22a0:	e000      	b.n	0x22a4
    22a2:	2320      	movs	r3, #32
    22a4:	431c      	orrs	r4, r3
    22a6:	e70c      	b.n	0x20c2
    22a8:	9b08      	ldr	r3, [sp, #32]
    22aa:	9511      	str	r5, [sp, #68]	; 0x44
    22ac:	920c      	str	r2, [sp, #48]	; 0x30
    22ae:	464d      	mov	r5, r9
    22b0:	46b1      	mov	r9, r6
    22b2:	4656      	mov	r6, sl
    22b4:	46a2      	mov	sl, r4
    22b6:	465c      	mov	r4, fp
    22b8:	469b      	mov	fp, r3
    22ba:	2a43      	cmp	r2, #67	; 0x43
    22bc:	d002      	beq.n	0x22c4
    22be:	4653      	mov	r3, sl
    22c0:	06db      	lsls	r3, r3, #27
    22c2:	d540      	bpl.n	0x2346
    22c4:	2208      	movs	r2, #8
    22c6:	2100      	movs	r1, #0
    22c8:	a82e      	add	r0, sp, #184	; 0xb8
    22ca:	f003 fe73 	bl	0x5fb4
    22ce:	9b25      	ldr	r3, [sp, #148]	; 0x94
    22d0:	2e00      	cmp	r6, #0
    22d2:	d016      	beq.n	0x2302
    22d4:	42a3      	cmp	r3, r4
    22d6:	dd03      	ble.n	0x22e0
    22d8:	00e4      	lsls	r4, r4, #3
    22da:	ab7c      	add	r3, sp, #496	; 0x1f0
    22dc:	58e2      	ldr	r2, [r4, r3]
    22de:	e00e      	b.n	0x22fe
    22e0:	ab26      	add	r3, sp, #152	; 0x98
    22e2:	9303      	str	r3, [sp, #12]
    22e4:	ab5c      	add	r3, sp, #368	; 0x170
    22e6:	9302      	str	r3, [sp, #8]
    22e8:	ab7c      	add	r3, sp, #496	; 0x1f0
    22ea:	9301      	str	r3, [sp, #4]
    22ec:	ab25      	add	r3, sp, #148	; 0x94
    22ee:	9300      	str	r3, [sp, #0]
    22f0:	002a      	movs	r2, r5
    22f2:	ab21      	add	r3, sp, #132	; 0x84
    22f4:	0021      	movs	r1, r4
    22f6:	4640      	mov	r0, r8
    22f8:	f7ff fbda 	bl	0x1ab0
    22fc:	6802      	ldr	r2, [r0, #0]
    22fe:	464d      	mov	r5, r9
    2300:	e015      	b.n	0x232e
    2302:	464a      	mov	r2, r9
    2304:	1c55      	adds	r5, r2, #1
    2306:	454b      	cmp	r3, r9
    2308:	dd03      	ble.n	0x2312
    230a:	00e4      	lsls	r4, r4, #3
    230c:	ab7c      	add	r3, sp, #496	; 0x1f0
    230e:	58e2      	ldr	r2, [r4, r3]
    2310:	e00d      	b.n	0x232e
    2312:	9a21      	ldr	r2, [sp, #132]	; 0x84
    2314:	1d11      	adds	r1, r2, #4
    2316:	2b1f      	cmp	r3, #31
    2318:	dc07      	bgt.n	0x232a
    231a:	1c58      	adds	r0, r3, #1
    231c:	9025      	str	r0, [sp, #148]	; 0x94
    231e:	6812      	ldr	r2, [r2, #0]
    2320:	9121      	str	r1, [sp, #132]	; 0x84
    2322:	00db      	lsls	r3, r3, #3
    2324:	a97c      	add	r1, sp, #496	; 0x1f0
    2326:	505a      	str	r2, [r3, r1]
    2328:	e001      	b.n	0x232e
    232a:	9121      	str	r1, [sp, #132]	; 0x84
    232c:	6812      	ldr	r2, [r2, #0]
    232e:	ab2e      	add	r3, sp, #184	; 0xb8
    2330:	a943      	add	r1, sp, #268	; 0x10c
    2332:	4640      	mov	r0, r8
    2334:	f001 ffb8 	bl	0x42a8
    2338:	0004      	movs	r4, r0
    233a:	1c43      	adds	r3, r0, #1
    233c:	d101      	bne.n	0x2342
    233e:	f000 ff18 	bl	0x3172
    2342:	46a9      	mov	r9, r5
    2344:	e037      	b.n	0x23b6
    2346:	9925      	ldr	r1, [sp, #148]	; 0x94
    2348:	2e00      	cmp	r6, #0
    234a:	d018      	beq.n	0x237e
    234c:	428c      	cmp	r4, r1
    234e:	da03      	bge.n	0x2358
    2350:	00e4      	lsls	r4, r4, #3
    2352:	ab7c      	add	r3, sp, #496	; 0x1f0
    2354:	58e3      	ldr	r3, [r4, r3]
    2356:	e00e      	b.n	0x2376
    2358:	ab26      	add	r3, sp, #152	; 0x98
    235a:	9303      	str	r3, [sp, #12]
    235c:	ab5c      	add	r3, sp, #368	; 0x170
    235e:	9302      	str	r3, [sp, #8]
    2360:	ab7c      	add	r3, sp, #496	; 0x1f0
    2362:	9301      	str	r3, [sp, #4]
    2364:	ab25      	add	r3, sp, #148	; 0x94
    2366:	9300      	str	r3, [sp, #0]
    2368:	002a      	movs	r2, r5
    236a:	ab21      	add	r3, sp, #132	; 0x84
    236c:	0021      	movs	r1, r4
    236e:	4640      	mov	r0, r8
    2370:	f7ff fb9e 	bl	0x1ab0
    2374:	6803      	ldr	r3, [r0, #0]
    2376:	061b      	lsls	r3, r3, #24
    2378:	0e1b      	lsrs	r3, r3, #24
    237a:	464a      	mov	r2, r9
    237c:	e017      	b.n	0x23ae
    237e:	464b      	mov	r3, r9
    2380:	1c5a      	adds	r2, r3, #1
    2382:	4589      	cmp	r9, r1
    2384:	da03      	bge.n	0x238e
    2386:	00e4      	lsls	r4, r4, #3
    2388:	ab7c      	add	r3, sp, #496	; 0x1f0
    238a:	58e3      	ldr	r3, [r4, r3]
    238c:	e00d      	b.n	0x23aa
    238e:	9b21      	ldr	r3, [sp, #132]	; 0x84
    2390:	1d18      	adds	r0, r3, #4
    2392:	291f      	cmp	r1, #31
    2394:	dc07      	bgt.n	0x23a6
    2396:	1c4c      	adds	r4, r1, #1
    2398:	9425      	str	r4, [sp, #148]	; 0x94
    239a:	681b      	ldr	r3, [r3, #0]
    239c:	9021      	str	r0, [sp, #132]	; 0x84
    239e:	00c9      	lsls	r1, r1, #3
    23a0:	a87c      	add	r0, sp, #496	; 0x1f0
    23a2:	500b      	str	r3, [r1, r0]
    23a4:	e001      	b.n	0x23aa
    23a6:	9021      	str	r0, [sp, #132]	; 0x84
    23a8:	681b      	ldr	r3, [r3, #0]
    23aa:	061b      	lsls	r3, r3, #24
    23ac:	0e1b      	lsrs	r3, r3, #24
    23ae:	4691      	mov	r9, r2
    23b0:	2401      	movs	r4, #1
    23b2:	a943      	add	r1, sp, #268	; 0x10c
    23b4:	700b      	strb	r3, [r1, #0]
    23b6:	aa1a      	add	r2, sp, #104	; 0x68
    23b8:	2327      	movs	r3, #39	; 0x27
    23ba:	4694      	mov	ip, r2
    23bc:	2000      	movs	r0, #0
    23be:	4463      	add	r3, ip
    23c0:	7018      	strb	r0, [r3, #0]
    23c2:	9008      	str	r0, [sp, #32]
    23c4:	0007      	movs	r7, r0
    23c6:	0006      	movs	r6, r0
    23c8:	900d      	str	r0, [sp, #52]	; 0x34
    23ca:	0005      	movs	r5, r0
    23cc:	ab43      	add	r3, sp, #268	; 0x10c
    23ce:	f001 fa56 	bl	0x387e
    23d2:	9511      	str	r5, [sp, #68]	; 0x44
    23d4:	464d      	mov	r5, r9
    23d6:	46b1      	mov	r9, r6
    23d8:	4656      	mov	r6, sl
    23da:	46a2      	mov	sl, r4
    23dc:	9b08      	ldr	r3, [sp, #32]
    23de:	920c      	str	r2, [sp, #48]	; 0x30
    23e0:	465c      	mov	r4, fp
    23e2:	4652      	mov	r2, sl
    23e4:	469b      	mov	fp, r3
    23e6:	2310      	movs	r3, #16
    23e8:	431a      	orrs	r2, r3
    23ea:	4692      	mov	sl, r2
    23ec:	e008      	b.n	0x2400
    23ee:	9b08      	ldr	r3, [sp, #32]
    23f0:	9511      	str	r5, [sp, #68]	; 0x44
    23f2:	464d      	mov	r5, r9
    23f4:	46b1      	mov	r9, r6
    23f6:	4656      	mov	r6, sl
    23f8:	46a2      	mov	sl, r4
    23fa:	465c      	mov	r4, fp
    23fc:	469b      	mov	fp, r3
    23fe:	920c      	str	r2, [sp, #48]	; 0x30
    2400:	4652      	mov	r2, sl
    2402:	9b25      	ldr	r3, [sp, #148]	; 0x94
    2404:	0692      	lsls	r2, r2, #26
    2406:	d541      	bpl.n	0x248c
    2408:	2e00      	cmp	r6, #0
    240a:	d01a      	beq.n	0x2442
    240c:	429c      	cmp	r4, r3
    240e:	da06      	bge.n	0x241e
    2410:	ab7c      	add	r3, sp, #496	; 0x1f0
    2412:	469c      	mov	ip, r3
    2414:	00e4      	lsls	r4, r4, #3
    2416:	4464      	add	r4, ip
    2418:	6826      	ldr	r6, [r4, #0]
    241a:	6862      	ldr	r2, [r4, #4]
    241c:	e00f      	b.n	0x243e
    241e:	ab26      	add	r3, sp, #152	; 0x98
    2420:	9303      	str	r3, [sp, #12]
    2422:	ab5c      	add	r3, sp, #368	; 0x170
    2424:	9302      	str	r3, [sp, #8]
    2426:	ab7c      	add	r3, sp, #496	; 0x1f0
    2428:	9301      	str	r3, [sp, #4]
    242a:	ab25      	add	r3, sp, #148	; 0x94
    242c:	9300      	str	r3, [sp, #0]
    242e:	002a      	movs	r2, r5
    2430:	ab21      	add	r3, sp, #132	; 0x84
    2432:	0021      	movs	r1, r4
    2434:	4640      	mov	r0, r8
    2436:	f7ff fb3b 	bl	0x1ab0
    243a:	6806      	ldr	r6, [r0, #0]
    243c:	6842      	ldr	r2, [r0, #4]
    243e:	464d      	mov	r5, r9
    2440:	e020      	b.n	0x2484
    2442:	464a      	mov	r2, r9
    2444:	1c55      	adds	r5, r2, #1
    2446:	4599      	cmp	r9, r3
    2448:	da06      	bge.n	0x2458
    244a:	ab7c      	add	r3, sp, #496	; 0x1f0
    244c:	469c      	mov	ip, r3
    244e:	00e4      	lsls	r4, r4, #3
    2450:	4464      	add	r4, ip
    2452:	6826      	ldr	r6, [r4, #0]
    2454:	6862      	ldr	r2, [r4, #4]
    2456:	e015      	b.n	0x2484
    2458:	2107      	movs	r1, #7
    245a:	9a21      	ldr	r2, [sp, #132]	; 0x84
    245c:	3207      	adds	r2, #7
    245e:	438a      	bics	r2, r1
    2460:	ca03      	ldmia	r2!, {r0, r1}
    2462:	2b1f      	cmp	r3, #31
    2464:	dc0b      	bgt.n	0x247e
    2466:	9221      	str	r2, [sp, #132]	; 0x84
    2468:	000a      	movs	r2, r1
    246a:	a97c      	add	r1, sp, #496	; 0x1f0
    246c:	468c      	mov	ip, r1
    246e:	0006      	movs	r6, r0
    2470:	1c5c      	adds	r4, r3, #1
    2472:	00db      	lsls	r3, r3, #3
    2474:	4463      	add	r3, ip
    2476:	9425      	str	r4, [sp, #148]	; 0x94
    2478:	601e      	str	r6, [r3, #0]
    247a:	605a      	str	r2, [r3, #4]
    247c:	e002      	b.n	0x2484
    247e:	9221      	str	r2, [sp, #132]	; 0x84
    2480:	0006      	movs	r6, r0
    2482:	000a      	movs	r2, r1
    2484:	9606      	str	r6, [sp, #24]
    2486:	9207      	str	r2, [sp, #28]
    2488:	46a9      	mov	r9, r5
    248a:	e0d7      	b.n	0x263c
    248c:	4652      	mov	r2, sl
    248e:	06d2      	lsls	r2, r2, #27
    2490:	d531      	bpl.n	0x24f6
    2492:	2e00      	cmp	r6, #0
    2494:	d016      	beq.n	0x24c4
    2496:	429c      	cmp	r4, r3
    2498:	da03      	bge.n	0x24a2
    249a:	00e4      	lsls	r4, r4, #3
    249c:	ab7c      	add	r3, sp, #496	; 0x1f0
    249e:	58e2      	ldr	r2, [r4, r3]
    24a0:	e00e      	b.n	0x24c0
    24a2:	ab26      	add	r3, sp, #152	; 0x98
    24a4:	9303      	str	r3, [sp, #12]
    24a6:	ab5c      	add	r3, sp, #368	; 0x170
    24a8:	9302      	str	r3, [sp, #8]
    24aa:	ab7c      	add	r3, sp, #496	; 0x1f0
    24ac:	9301      	str	r3, [sp, #4]
    24ae:	ab25      	add	r3, sp, #148	; 0x94
    24b0:	9300      	str	r3, [sp, #0]
    24b2:	002a      	movs	r2, r5
    24b4:	ab21      	add	r3, sp, #132	; 0x84
    24b6:	0021      	movs	r1, r4
    24b8:	4640      	mov	r0, r8
    24ba:	f7ff faf9 	bl	0x1ab0
    24be:	6802      	ldr	r2, [r0, #0]
    24c0:	4648      	mov	r0, r9
    24c2:	e013      	b.n	0x24ec
    24c4:	464a      	mov	r2, r9
    24c6:	1c50      	adds	r0, r2, #1
    24c8:	4599      	cmp	r9, r3
    24ca:	da03      	bge.n	0x24d4
    24cc:	00e4      	lsls	r4, r4, #3
    24ce:	ab7c      	add	r3, sp, #496	; 0x1f0
    24d0:	58e2      	ldr	r2, [r4, r3]
    24d2:	e00b      	b.n	0x24ec
    24d4:	9921      	ldr	r1, [sp, #132]	; 0x84
    24d6:	c904      	ldmia	r1!, {r2}
    24d8:	2b1f      	cmp	r3, #31
    24da:	dc06      	bgt.n	0x24ea
    24dc:	1c5c      	adds	r4, r3, #1
    24de:	9121      	str	r1, [sp, #132]	; 0x84
    24e0:	00db      	lsls	r3, r3, #3
    24e2:	a97c      	add	r1, sp, #496	; 0x1f0
    24e4:	9425      	str	r4, [sp, #148]	; 0x94
    24e6:	505a      	str	r2, [r3, r1]
    24e8:	e000      	b.n	0x24ec
    24ea:	9121      	str	r1, [sp, #132]	; 0x84
    24ec:	17d3      	asrs	r3, r2, #31
    24ee:	9206      	str	r2, [sp, #24]
    24f0:	9307      	str	r3, [sp, #28]
    24f2:	4681      	mov	r9, r0
    24f4:	e0a2      	b.n	0x263c
    24f6:	4652      	mov	r2, sl
    24f8:	0652      	lsls	r2, r2, #25
    24fa:	d532      	bpl.n	0x2562
    24fc:	2e00      	cmp	r6, #0
    24fe:	d016      	beq.n	0x252e
    2500:	429c      	cmp	r4, r3
    2502:	da03      	bge.n	0x250c
    2504:	00e4      	lsls	r4, r4, #3
    2506:	ab7c      	add	r3, sp, #496	; 0x1f0
    2508:	5f1a      	ldrsh	r2, [r3, r4]
    250a:	e07b      	b.n	0x2604
    250c:	ab26      	add	r3, sp, #152	; 0x98
    250e:	9303      	str	r3, [sp, #12]
    2510:	ab5c      	add	r3, sp, #368	; 0x170
    2512:	9302      	str	r3, [sp, #8]
    2514:	ab7c      	add	r3, sp, #496	; 0x1f0
    2516:	9301      	str	r3, [sp, #4]
    2518:	ab25      	add	r3, sp, #148	; 0x94
    251a:	9300      	str	r3, [sp, #0]
    251c:	002a      	movs	r2, r5
    251e:	ab21      	add	r3, sp, #132	; 0x84
    2520:	0021      	movs	r1, r4
    2522:	4640      	mov	r0, r8
    2524:	f7ff fac4 	bl	0x1ab0
    2528:	2300      	movs	r3, #0
    252a:	5ec2      	ldrsh	r2, [r0, r3]
    252c:	e06a      	b.n	0x2604
    252e:	464a      	mov	r2, r9
    2530:	1c51      	adds	r1, r2, #1
    2532:	4599      	cmp	r9, r3
    2534:	da03      	bge.n	0x253e
    2536:	00e4      	lsls	r4, r4, #3
    2538:	ab7c      	add	r3, sp, #496	; 0x1f0
    253a:	5f1a      	ldrsh	r2, [r3, r4]
    253c:	e07a      	b.n	0x2634
    253e:	9a21      	ldr	r2, [sp, #132]	; 0x84
    2540:	1d10      	adds	r0, r2, #4
    2542:	2b1f      	cmp	r3, #31
    2544:	dc09      	bgt.n	0x255a
    2546:	1c5c      	adds	r4, r3, #1
    2548:	9425      	str	r4, [sp, #148]	; 0x94
    254a:	6812      	ldr	r2, [r2, #0]
    254c:	9021      	str	r0, [sp, #132]	; 0x84
    254e:	00db      	lsls	r3, r3, #3
    2550:	a87c      	add	r0, sp, #496	; 0x1f0
    2552:	501a      	str	r2, [r3, r0]
    2554:	0412      	lsls	r2, r2, #16
    2556:	1412      	asrs	r2, r2, #16
    2558:	e06c      	b.n	0x2634
    255a:	9021      	str	r0, [sp, #132]	; 0x84
    255c:	2300      	movs	r3, #0
    255e:	5ed2      	ldrsh	r2, [r2, r3]
    2560:	e068      	b.n	0x2634
    2562:	4652      	mov	r2, sl
    2564:	0592      	lsls	r2, r2, #22
    2566:	d536      	bpl.n	0x25d6
    2568:	2e00      	cmp	r6, #0
    256a:	d018      	beq.n	0x259e
    256c:	429c      	cmp	r4, r3
    256e:	da03      	bge.n	0x2578
    2570:	00e4      	lsls	r4, r4, #3
    2572:	ab7c      	add	r3, sp, #496	; 0x1f0
    2574:	58e3      	ldr	r3, [r4, r3]
    2576:	e00e      	b.n	0x2596
    2578:	ab26      	add	r3, sp, #152	; 0x98
    257a:	9303      	str	r3, [sp, #12]
    257c:	ab5c      	add	r3, sp, #368	; 0x170
    257e:	9302      	str	r3, [sp, #8]
    2580:	ab7c      	add	r3, sp, #496	; 0x1f0
    2582:	9301      	str	r3, [sp, #4]
    2584:	ab25      	add	r3, sp, #148	; 0x94
    2586:	9300      	str	r3, [sp, #0]
    2588:	002a      	movs	r2, r5
    258a:	ab21      	add	r3, sp, #132	; 0x84
    258c:	0021      	movs	r1, r4
    258e:	4640      	mov	r0, r8
    2590:	f7ff fa8e 	bl	0x1ab0
    2594:	6803      	ldr	r3, [r0, #0]
    2596:	061b      	lsls	r3, r3, #24
    2598:	161b      	asrs	r3, r3, #24
    259a:	4649      	mov	r1, r9
    259c:	e018      	b.n	0x25d0
    259e:	464a      	mov	r2, r9
    25a0:	1c51      	adds	r1, r2, #1
    25a2:	4599      	cmp	r9, r3
    25a4:	da03      	bge.n	0x25ae
    25a6:	00e4      	lsls	r4, r4, #3
    25a8:	ab7c      	add	r3, sp, #496	; 0x1f0
    25aa:	58e3      	ldr	r3, [r4, r3]
    25ac:	e00e      	b.n	0x25cc
    25ae:	9a21      	ldr	r2, [sp, #132]	; 0x84
    25b0:	1d10      	adds	r0, r2, #4
    25b2:	2b1f      	cmp	r3, #31
    25b4:	dc08      	bgt.n	0x25c8
    25b6:	1c5c      	adds	r4, r3, #1
    25b8:	9425      	str	r4, [sp, #148]	; 0x94
    25ba:	6812      	ldr	r2, [r2, #0]
    25bc:	00db      	lsls	r3, r3, #3
    25be:	9021      	str	r0, [sp, #132]	; 0x84
    25c0:	a87c      	add	r0, sp, #496	; 0x1f0
    25c2:	501a      	str	r2, [r3, r0]
    25c4:	0613      	lsls	r3, r2, #24
    25c6:	e002      	b.n	0x25ce
    25c8:	9021      	str	r0, [sp, #132]	; 0x84
    25ca:	6813      	ldr	r3, [r2, #0]
    25cc:	061b      	lsls	r3, r3, #24
    25ce:	161b      	asrs	r3, r3, #24
    25d0:	9306      	str	r3, [sp, #24]
    25d2:	17db      	asrs	r3, r3, #31
    25d4:	e030      	b.n	0x2638
    25d6:	2e00      	cmp	r6, #0
    25d8:	d016      	beq.n	0x2608
    25da:	429c      	cmp	r4, r3
    25dc:	da03      	bge.n	0x25e6
    25de:	00e4      	lsls	r4, r4, #3
    25e0:	ab7c      	add	r3, sp, #496	; 0x1f0
    25e2:	58e2      	ldr	r2, [r4, r3]
    25e4:	e00e      	b.n	0x2604
    25e6:	ab26      	add	r3, sp, #152	; 0x98
    25e8:	9303      	str	r3, [sp, #12]
    25ea:	ab5c      	add	r3, sp, #368	; 0x170
    25ec:	9302      	str	r3, [sp, #8]
    25ee:	ab7c      	add	r3, sp, #496	; 0x1f0
    25f0:	9301      	str	r3, [sp, #4]
    25f2:	ab25      	add	r3, sp, #148	; 0x94
    25f4:	9300      	str	r3, [sp, #0]
    25f6:	002a      	movs	r2, r5
    25f8:	ab21      	add	r3, sp, #132	; 0x84
    25fa:	0021      	movs	r1, r4
    25fc:	4640      	mov	r0, r8
    25fe:	f7ff fa57 	bl	0x1ab0
    2602:	6802      	ldr	r2, [r0, #0]
    2604:	4649      	mov	r1, r9
    2606:	e015      	b.n	0x2634
    2608:	464a      	mov	r2, r9
    260a:	1c51      	adds	r1, r2, #1
    260c:	4599      	cmp	r9, r3
    260e:	da03      	bge.n	0x2618
    2610:	00e4      	lsls	r4, r4, #3
    2612:	ab7c      	add	r3, sp, #496	; 0x1f0
    2614:	58e2      	ldr	r2, [r4, r3]
    2616:	e00d      	b.n	0x2634
    2618:	9a21      	ldr	r2, [sp, #132]	; 0x84
    261a:	1d10      	adds	r0, r2, #4
    261c:	2b1f      	cmp	r3, #31
    261e:	dc07      	bgt.n	0x2630
    2620:	1c5c      	adds	r4, r3, #1
    2622:	9425      	str	r4, [sp, #148]	; 0x94
    2624:	6812      	ldr	r2, [r2, #0]
    2626:	9021      	str	r0, [sp, #132]	; 0x84
    2628:	00db      	lsls	r3, r3, #3
    262a:	a87c      	add	r0, sp, #496	; 0x1f0
    262c:	501a      	str	r2, [r3, r0]
    262e:	e001      	b.n	0x2634
    2630:	9021      	str	r0, [sp, #132]	; 0x84
    2632:	6812      	ldr	r2, [r2, #0]
    2634:	9206      	str	r2, [sp, #24]
    2636:	17d3      	asrs	r3, r2, #31
    2638:	4689      	mov	r9, r1
    263a:	9307      	str	r3, [sp, #28]
    263c:	9b07      	ldr	r3, [sp, #28]
    263e:	2b00      	cmp	r3, #0
    2640:	db01      	blt.n	0x2646
    2642:	f001 f83d 	bl	0x36c0
    2646:	9906      	ldr	r1, [sp, #24]
    2648:	9a07      	ldr	r2, [sp, #28]
    264a:	2400      	movs	r4, #0
    264c:	424b      	negs	r3, r1
    264e:	4194      	sbcs	r4, r2
    2650:	aa1a      	add	r2, sp, #104	; 0x68
    2652:	4694      	mov	ip, r2
    2654:	9306      	str	r3, [sp, #24]
    2656:	9407      	str	r4, [sp, #28]
    2658:	2327      	movs	r3, #39	; 0x27
    265a:	222d      	movs	r2, #45	; 0x2d
    265c:	4463      	add	r3, ip
    265e:	701a      	strb	r2, [r3, #0]
    2660:	3a2c      	subs	r2, #44	; 0x2c
    2662:	f001 f829 	bl	0x36b8
    2666:	9511      	str	r5, [sp, #68]	; 0x44
    2668:	464d      	mov	r5, r9
    266a:	46b1      	mov	r9, r6
    266c:	4656      	mov	r6, sl
    266e:	9b08      	ldr	r3, [sp, #32]
    2670:	46a2      	mov	sl, r4
    2672:	920c      	str	r2, [sp, #48]	; 0x30
    2674:	465c      	mov	r4, fp
    2676:	469b      	mov	fp, r3
    2678:	9b25      	ldr	r3, [sp, #148]	; 0x94
    267a:	2e00      	cmp	r6, #0
    267c:	d01c      	beq.n	0x26b8
    267e:	42a3      	cmp	r3, r4
    2680:	dd08      	ble.n	0x2694
    2682:	ab7c      	add	r3, sp, #496	; 0x1f0
    2684:	469c      	mov	ip, r3
    2686:	00e4      	lsls	r4, r4, #3
    2688:	4464      	add	r4, ip
    268a:	6823      	ldr	r3, [r4, #0]
    268c:	930f      	str	r3, [sp, #60]	; 0x3c
    268e:	6863      	ldr	r3, [r4, #4]
    2690:	930e      	str	r3, [sp, #56]	; 0x38
    2692:	e036      	b.n	0x2702
    2694:	ab26      	add	r3, sp, #152	; 0x98
    2696:	9303      	str	r3, [sp, #12]
    2698:	ab5c      	add	r3, sp, #368	; 0x170
    269a:	9302      	str	r3, [sp, #8]
    269c:	ab7c      	add	r3, sp, #496	; 0x1f0
    269e:	9301      	str	r3, [sp, #4]
    26a0:	ab25      	add	r3, sp, #148	; 0x94
    26a2:	9300      	str	r3, [sp, #0]
    26a4:	002a      	movs	r2, r5
    26a6:	ab21      	add	r3, sp, #132	; 0x84
    26a8:	0021      	movs	r1, r4
    26aa:	4640      	mov	r0, r8
    26ac:	f7ff fa00 	bl	0x1ab0
    26b0:	6803      	ldr	r3, [r0, #0]
    26b2:	930f      	str	r3, [sp, #60]	; 0x3c
    26b4:	6843      	ldr	r3, [r0, #4]
    26b6:	e7eb      	b.n	0x2690
    26b8:	464a      	mov	r2, r9
    26ba:	1c55      	adds	r5, r2, #1
    26bc:	454b      	cmp	r3, r9
    26be:	dd08      	ble.n	0x26d2
    26c0:	ab7c      	add	r3, sp, #496	; 0x1f0
    26c2:	469c      	mov	ip, r3
    26c4:	00e4      	lsls	r4, r4, #3
    26c6:	4464      	add	r4, ip
    26c8:	6823      	ldr	r3, [r4, #0]
    26ca:	930f      	str	r3, [sp, #60]	; 0x3c
    26cc:	6863      	ldr	r3, [r4, #4]
    26ce:	930e      	str	r3, [sp, #56]	; 0x38
    26d0:	e016      	b.n	0x2700
    26d2:	2107      	movs	r1, #7
    26d4:	9a21      	ldr	r2, [sp, #132]	; 0x84
    26d6:	3207      	adds	r2, #7
    26d8:	438a      	bics	r2, r1
    26da:	ca03      	ldmia	r2!, {r0, r1}
    26dc:	2b1f      	cmp	r3, #31
    26de:	dc0c      	bgt.n	0x26fa
    26e0:	1c5c      	adds	r4, r3, #1
    26e2:	9221      	str	r2, [sp, #132]	; 0x84
    26e4:	00db      	lsls	r3, r3, #3
    26e6:	aa7c      	add	r2, sp, #496	; 0x1f0
    26e8:	910e      	str	r1, [sp, #56]	; 0x38
    26ea:	18d1      	adds	r1, r2, r3
    26ec:	0002      	movs	r2, r0
    26ee:	9b0e      	ldr	r3, [sp, #56]	; 0x38
    26f0:	9425      	str	r4, [sp, #148]	; 0x94
    26f2:	900f      	str	r0, [sp, #60]	; 0x3c
    26f4:	600a      	str	r2, [r1, #0]
    26f6:	604b      	str	r3, [r1, #4]
    26f8:	e002      	b.n	0x2700
    26fa:	9221      	str	r2, [sp, #132]	; 0x84
    26fc:	900f      	str	r0, [sp, #60]	; 0x3c
    26fe:	910e      	str	r1, [sp, #56]	; 0x38
    2700:	46a9      	mov	r9, r5
    2702:	2201      	movs	r2, #1
    2704:	9b0e      	ldr	r3, [sp, #56]	; 0x38
    2706:	9d0f      	ldr	r5, [sp, #60]	; 0x3c
    2708:	005c      	lsls	r4, r3, #1
    270a:	0864      	lsrs	r4, r4, #1
    270c:	4252      	negs	r2, r2
    270e:	4bbc      	ldr	r3, [pc, #752]	; (0x2a00)
    2710:	0028      	movs	r0, r5
    2712:	0021      	movs	r1, r4
    2714:	f004 fe3e 	bl	0x7394
    2718:	2800      	cmp	r0, #0
    271a:	d117      	bne.n	0x274c
    271c:	2201      	movs	r2, #1
    271e:	4bb8      	ldr	r3, [pc, #736]	; (0x2a00)
    2720:	4252      	negs	r2, r2
    2722:	0028      	movs	r0, r5
    2724:	0021      	movs	r1, r4
    2726:	f004 fe1f 	bl	0x7368
    272a:	2800      	cmp	r0, #0
    272c:	d10e      	bne.n	0x274c
    272e:	2200      	movs	r2, #0
    2730:	2300      	movs	r3, #0
    2732:	980f      	ldr	r0, [sp, #60]	; 0x3c
    2734:	990e      	ldr	r1, [sp, #56]	; 0x38
    2736:	f004 fdf1 	bl	0x731c
    273a:	2800      	cmp	r0, #0
    273c:	d00f      	beq.n	0x275e
    273e:	aa1a      	add	r2, sp, #104	; 0x68
    2740:	4694      	mov	ip, r2
    2742:	2327      	movs	r3, #39	; 0x27
    2744:	222d      	movs	r2, #45	; 0x2d
    2746:	4463      	add	r3, ip
    2748:	701a      	strb	r2, [r3, #0]
    274a:	e008      	b.n	0x275e
    274c:	9a0f      	ldr	r2, [sp, #60]	; 0x3c
    274e:	9b0e      	ldr	r3, [sp, #56]	; 0x38
    2750:	980f      	ldr	r0, [sp, #60]	; 0x3c
    2752:	990e      	ldr	r1, [sp, #56]	; 0x38
    2754:	f004 fe1e 	bl	0x7394
    2758:	2800      	cmp	r0, #0
    275a:	d022      	beq.n	0x27a2
    275c:	e006      	b.n	0x276c
    275e:	4ba9      	ldr	r3, [pc, #676]	; (0x2a04)
    2760:	9309      	str	r3, [sp, #36]	; 0x24
    2762:	9b0c      	ldr	r3, [sp, #48]	; 0x30
    2764:	2b47      	cmp	r3, #71	; 0x47
    2766:	dd11      	ble.n	0x278c
    2768:	4ba7      	ldr	r3, [pc, #668]	; (0x2a08)
    276a:	e00e      	b.n	0x278a
    276c:	9b0e      	ldr	r3, [sp, #56]	; 0x38
    276e:	2b00      	cmp	r3, #0
    2770:	da05      	bge.n	0x277e
    2772:	aa1a      	add	r2, sp, #104	; 0x68
    2774:	4694      	mov	ip, r2
    2776:	2327      	movs	r3, #39	; 0x27
    2778:	222d      	movs	r2, #45	; 0x2d
    277a:	4463      	add	r3, ip
    277c:	701a      	strb	r2, [r3, #0]
    277e:	4ba3      	ldr	r3, [pc, #652]	; (0x2a0c)
    2780:	9309      	str	r3, [sp, #36]	; 0x24
    2782:	9b0c      	ldr	r3, [sp, #48]	; 0x30
    2784:	2b47      	cmp	r3, #71	; 0x47
    2786:	dd01      	ble.n	0x278c
    2788:	4ba1      	ldr	r3, [pc, #644]	; (0x2a10)
    278a:	9309      	str	r3, [sp, #36]	; 0x24
    278c:	2380      	movs	r3, #128	; 0x80
    278e:	4652      	mov	r2, sl
    2790:	439a      	bics	r2, r3
    2792:	2300      	movs	r3, #0
    2794:	4692      	mov	sl, r2
    2796:	9308      	str	r3, [sp, #32]
    2798:	2403      	movs	r4, #3
    279a:	001f      	movs	r7, r3
    279c:	001e      	movs	r6, r3
    279e:	f001 f853 	bl	0x3848
    27a2:	2320      	movs	r3, #32
    27a4:	9a0c      	ldr	r2, [sp, #48]	; 0x30
    27a6:	439a      	bics	r2, r3
    27a8:	920d      	str	r2, [sp, #52]	; 0x34
    27aa:	0013      	movs	r3, r2
    27ac:	2a41      	cmp	r2, #65	; 0x41
    27ae:	d11f      	bne.n	0x27f0
    27b0:	2128      	movs	r1, #40	; 0x28
    27b2:	aa1a      	add	r2, sp, #104	; 0x68
    27b4:	3b11      	subs	r3, #17
    27b6:	1852      	adds	r2, r2, r1
    27b8:	7013      	strb	r3, [r2, #0]
    27ba:	9a0c      	ldr	r2, [sp, #48]	; 0x30
    27bc:	3348      	adds	r3, #72	; 0x48
    27be:	2a61      	cmp	r2, #97	; 0x61
    27c0:	d000      	beq.n	0x27c4
    27c2:	3b20      	subs	r3, #32
    27c4:	2129      	movs	r1, #41	; 0x29
    27c6:	aa1a      	add	r2, sp, #104	; 0x68
    27c8:	1852      	adds	r2, r2, r1
    27ca:	7013      	strb	r3, [r2, #0]
    27cc:	4652      	mov	r2, sl
    27ce:	2302      	movs	r3, #2
    27d0:	431a      	orrs	r2, r3
    27d2:	4692      	mov	sl, r2
    27d4:	2f63      	cmp	r7, #99	; 0x63
    27d6:	dd16      	ble.n	0x2806
    27d8:	1c79      	adds	r1, r7, #1
    27da:	4640      	mov	r0, r8
    27dc:	f002 ffae 	bl	0x573c
    27e0:	9009      	str	r0, [sp, #36]	; 0x24
    27e2:	2800      	cmp	r0, #0
    27e4:	d101      	bne.n	0x27ea
    27e6:	f000 fcc4 	bl	0x3172
    27ea:	9b09      	ldr	r3, [sp, #36]	; 0x24
    27ec:	9308      	str	r3, [sp, #32]
    27ee:	e010      	b.n	0x2812
    27f0:	9008      	str	r0, [sp, #32]
    27f2:	1c7b      	adds	r3, r7, #1
    27f4:	d00c      	beq.n	0x2810
    27f6:	9b0d      	ldr	r3, [sp, #52]	; 0x34
    27f8:	2b47      	cmp	r3, #71	; 0x47
    27fa:	d10a      	bne.n	0x2812
    27fc:	2f00      	cmp	r7, #0
    27fe:	d108      	bne.n	0x2812
    2800:	9708      	str	r7, [sp, #32]
    2802:	3701      	adds	r7, #1
    2804:	e005      	b.n	0x2812
    2806:	2300      	movs	r3, #0
    2808:	9308      	str	r3, [sp, #32]
    280a:	ab43      	add	r3, sp, #268	; 0x10c
    280c:	9309      	str	r3, [sp, #36]	; 0x24
    280e:	e000      	b.n	0x2812
    2810:	2706      	movs	r7, #6
    2812:	2380      	movs	r3, #128	; 0x80
    2814:	4652      	mov	r2, sl
    2816:	005b      	lsls	r3, r3, #1
    2818:	9c0e      	ldr	r4, [sp, #56]	; 0x38
    281a:	431a      	orrs	r2, r3
    281c:	921c      	str	r2, [sp, #112]	; 0x70
    281e:	9e0f      	ldr	r6, [sp, #60]	; 0x3c
    2820:	2300      	movs	r3, #0
    2822:	2c00      	cmp	r4, #0
    2824:	da06      	bge.n	0x2834
    2826:	2280      	movs	r2, #128	; 0x80
    2828:	0612      	lsls	r2, r2, #24
    282a:	0023      	movs	r3, r4
    282c:	4694      	mov	ip, r2
    282e:	4463      	add	r3, ip
    2830:	001c      	movs	r4, r3
    2832:	232d      	movs	r3, #45	; 0x2d
    2834:	931e      	str	r3, [sp, #120]	; 0x78
    2836:	9b0d      	ldr	r3, [sp, #52]	; 0x34
    2838:	2b41      	cmp	r3, #65	; 0x41
    283a:	d17e      	bne.n	0x293a
    283c:	aa27      	add	r2, sp, #156	; 0x9c
    283e:	0021      	movs	r1, r4
    2840:	0030      	movs	r0, r6
    2842:	f003 ff8d 	bl	0x6760
    2846:	23ff      	movs	r3, #255	; 0xff
    2848:	2200      	movs	r2, #0
    284a:	059b      	lsls	r3, r3, #22
    284c:	f004 fda6 	bl	0x739c
    2850:	2200      	movs	r2, #0
    2852:	2300      	movs	r3, #0
    2854:	0004      	movs	r4, r0
    2856:	000d      	movs	r5, r1
    2858:	f004 fd6a 	bl	0x7330
    285c:	2800      	cmp	r0, #0
    285e:	d001      	beq.n	0x2864
    2860:	2301      	movs	r3, #1
    2862:	9327      	str	r3, [sp, #156]	; 0x9c
    2864:	4b6b      	ldr	r3, [pc, #428]	; (0x2a14)
    2866:	930b      	str	r3, [sp, #44]	; 0x2c
    2868:	9b0c      	ldr	r3, [sp, #48]	; 0x30
    286a:	2b61      	cmp	r3, #97	; 0x61
    286c:	d001      	beq.n	0x2872
    286e:	4b6a      	ldr	r3, [pc, #424]	; (0x2a18)
    2870:	930b      	str	r3, [sp, #44]	; 0x2c
    2872:	9b09      	ldr	r3, [sp, #36]	; 0x24
    2874:	9317      	str	r3, [sp, #92]	; 0x5c
    2876:	1e7b      	subs	r3, r7, #1
    2878:	9315      	str	r3, [sp, #84]	; 0x54
    287a:	2200      	movs	r2, #0
    287c:	4b67      	ldr	r3, [pc, #412]	; (0x2a1c)
    287e:	0020      	movs	r0, r4
    2880:	0029      	movs	r1, r5
    2882:	f004 fd8b 	bl	0x739c
    2886:	000d      	movs	r5, r1
    2888:	0004      	movs	r4, r0
    288a:	f004 fd43 	bl	0x7314
    288e:	901d      	str	r0, [sp, #116]	; 0x74
    2890:	f004 fd66 	bl	0x7360
    2894:	0002      	movs	r2, r0
    2896:	000b      	movs	r3, r1
    2898:	0020      	movs	r0, r4
    289a:	0029      	movs	r1, r5
    289c:	f004 fd32 	bl	0x7304
    28a0:	9b17      	ldr	r3, [sp, #92]	; 0x5c
    28a2:	9a1d      	ldr	r2, [sp, #116]	; 0x74
    28a4:	1c5e      	adds	r6, r3, #1
    28a6:	9b0b      	ldr	r3, [sp, #44]	; 0x2c
    28a8:	5c9b      	ldrb	r3, [r3, r2]
    28aa:	9a17      	ldr	r2, [sp, #92]	; 0x5c
    28ac:	7013      	strb	r3, [r2, #0]
    28ae:	9b15      	ldr	r3, [sp, #84]	; 0x54
    28b0:	0004      	movs	r4, r0
    28b2:	000d      	movs	r5, r1
    28b4:	961f      	str	r6, [sp, #124]	; 0x7c
    28b6:	9320      	str	r3, [sp, #128]	; 0x80
    28b8:	3301      	adds	r3, #1
    28ba:	d009      	beq.n	0x28d0
    28bc:	9b15      	ldr	r3, [sp, #84]	; 0x54
    28be:	3b01      	subs	r3, #1
    28c0:	9315      	str	r3, [sp, #84]	; 0x54
    28c2:	2200      	movs	r2, #0
    28c4:	2300      	movs	r3, #0
    28c6:	9617      	str	r6, [sp, #92]	; 0x5c
    28c8:	f004 fd32 	bl	0x7330
    28cc:	2800      	cmp	r0, #0
    28ce:	d0d4      	beq.n	0x287a
    28d0:	2200      	movs	r2, #0
    28d2:	4b53      	ldr	r3, [pc, #332]	; (0x2a20)
    28d4:	0020      	movs	r0, r4
    28d6:	0029      	movs	r1, r5
    28d8:	f004 fd36 	bl	0x7348
    28dc:	2800      	cmp	r0, #0
    28de:	d10b      	bne.n	0x28f8
    28e0:	2200      	movs	r2, #0
    28e2:	4b4f      	ldr	r3, [pc, #316]	; (0x2a20)
    28e4:	0020      	movs	r0, r4
    28e6:	0029      	movs	r1, r5
    28e8:	f004 fd22 	bl	0x7330
    28ec:	2800      	cmp	r0, #0
    28ee:	d018      	beq.n	0x2922
    28f0:	2201      	movs	r2, #1
    28f2:	9b1d      	ldr	r3, [sp, #116]	; 0x74
    28f4:	4213      	tst	r3, r2
    28f6:	d014      	beq.n	0x2922
    28f8:	9b0b      	ldr	r3, [sp, #44]	; 0x2c
    28fa:	7bd8      	ldrb	r0, [r3, #15]
    28fc:	2330      	movs	r3, #48	; 0x30
    28fe:	962e      	str	r6, [sp, #184]	; 0xb8
    2900:	9a2e      	ldr	r2, [sp, #184]	; 0xb8
    2902:	3a01      	subs	r2, #1
    2904:	922e      	str	r2, [sp, #184]	; 0xb8
    2906:	7811      	ldrb	r1, [r2, #0]
    2908:	4281      	cmp	r1, r0
    290a:	d101      	bne.n	0x2910
    290c:	7013      	strb	r3, [r2, #0]
    290e:	e7f7      	b.n	0x2900
    2910:	1c4b      	adds	r3, r1, #1
    2912:	061b      	lsls	r3, r3, #24
    2914:	0e1b      	lsrs	r3, r3, #24
    2916:	2939      	cmp	r1, #57	; 0x39
    2918:	d101      	bne.n	0x291e
    291a:	9b0b      	ldr	r3, [sp, #44]	; 0x2c
    291c:	7a9b      	ldrb	r3, [r3, #10]
    291e:	7013      	strb	r3, [r2, #0]
    2920:	e009      	b.n	0x2936
    2922:	0033      	movs	r3, r6
    2924:	2130      	movs	r1, #48	; 0x30
    2926:	9a20      	ldr	r2, [sp, #128]	; 0x80
    2928:	1992      	adds	r2, r2, r6
    292a:	931f      	str	r3, [sp, #124]	; 0x7c
    292c:	1ad0      	subs	r0, r2, r3
    292e:	d402      	bmi.n	0x2936
    2930:	7019      	strb	r1, [r3, #0]
    2932:	3301      	adds	r3, #1
    2934:	e7f9      	b.n	0x292a
    2936:	9b1f      	ldr	r3, [sp, #124]	; 0x7c
    2938:	e021      	b.n	0x297e
    293a:	9b0d      	ldr	r3, [sp, #52]	; 0x34
    293c:	2b46      	cmp	r3, #70	; 0x46
    293e:	d004      	beq.n	0x294a
    2940:	1c7d      	adds	r5, r7, #1
    2942:	2b45      	cmp	r3, #69	; 0x45
    2944:	d004      	beq.n	0x2950
    2946:	003d      	movs	r5, r7
    2948:	e002      	b.n	0x2950
    294a:	003d      	movs	r5, r7
    294c:	2303      	movs	r3, #3
    294e:	e000      	b.n	0x2952
    2950:	2302      	movs	r3, #2
    2952:	aa2e      	add	r2, sp, #184	; 0xb8
    2954:	9204      	str	r2, [sp, #16]
    2956:	aa29      	add	r2, sp, #164	; 0xa4
    2958:	9203      	str	r2, [sp, #12]
    295a:	aa27      	add	r2, sp, #156	; 0x9c
    295c:	9202      	str	r2, [sp, #8]
    295e:	9300      	str	r3, [sp, #0]
    2960:	9501      	str	r5, [sp, #4]
    2962:	0023      	movs	r3, r4
    2964:	0032      	movs	r2, r6
    2966:	4640      	mov	r0, r8
    2968:	f001 fd9c 	bl	0x44a4
    296c:	9b0d      	ldr	r3, [sp, #52]	; 0x34
    296e:	9009      	str	r0, [sp, #36]	; 0x24
    2970:	2b47      	cmp	r3, #71	; 0x47
    2972:	d10c      	bne.n	0x298e
    2974:	4653      	mov	r3, sl
    2976:	2201      	movs	r2, #1
    2978:	4213      	tst	r3, r2
    297a:	d108      	bne.n	0x298e
    297c:	9b2e      	ldr	r3, [sp, #184]	; 0xb8
    297e:	9a09      	ldr	r2, [sp, #36]	; 0x24
    2980:	1a9b      	subs	r3, r3, r2
    2982:	930b      	str	r3, [sp, #44]	; 0x2c
    2984:	9b0d      	ldr	r3, [sp, #52]	; 0x34
    2986:	9d27      	ldr	r5, [sp, #156]	; 0x9c
    2988:	2b47      	cmp	r3, #71	; 0x47
    298a:	d14b      	bne.n	0x2a24
    298c:	e02e      	b.n	0x29ec
    298e:	9b09      	ldr	r3, [sp, #36]	; 0x24
    2990:	469c      	mov	ip, r3
    2992:	44ac      	add	ip, r5
    2994:	4663      	mov	r3, ip
    2996:	930b      	str	r3, [sp, #44]	; 0x2c
    2998:	9b0d      	ldr	r3, [sp, #52]	; 0x34
    299a:	2b46      	cmp	r3, #70	; 0x46
    299c:	d113      	bne.n	0x29c6
    299e:	9b09      	ldr	r3, [sp, #36]	; 0x24
    29a0:	781b      	ldrb	r3, [r3, #0]
    29a2:	2b30      	cmp	r3, #48	; 0x30
    29a4:	d10a      	bne.n	0x29bc
    29a6:	2200      	movs	r2, #0
    29a8:	2300      	movs	r3, #0
    29aa:	0030      	movs	r0, r6
    29ac:	0021      	movs	r1, r4
    29ae:	f004 fcbf 	bl	0x7330
    29b2:	2800      	cmp	r0, #0
    29b4:	d102      	bne.n	0x29bc
    29b6:	2301      	movs	r3, #1
    29b8:	1b5d      	subs	r5, r3, r5
    29ba:	9527      	str	r5, [sp, #156]	; 0x9c
    29bc:	9a27      	ldr	r2, [sp, #156]	; 0x9c
    29be:	4694      	mov	ip, r2
    29c0:	9b0b      	ldr	r3, [sp, #44]	; 0x2c
    29c2:	4463      	add	r3, ip
    29c4:	930b      	str	r3, [sp, #44]	; 0x2c
    29c6:	2200      	movs	r2, #0
    29c8:	2300      	movs	r3, #0
    29ca:	0030      	movs	r0, r6
    29cc:	0021      	movs	r1, r4
    29ce:	f004 fcaf 	bl	0x7330
    29d2:	2800      	cmp	r0, #0
    29d4:	d001      	beq.n	0x29da
    29d6:	9b0b      	ldr	r3, [sp, #44]	; 0x2c
    29d8:	932e      	str	r3, [sp, #184]	; 0xb8
    29da:	2230      	movs	r2, #48	; 0x30
    29dc:	9b2e      	ldr	r3, [sp, #184]	; 0xb8
    29de:	990b      	ldr	r1, [sp, #44]	; 0x2c
    29e0:	4299      	cmp	r1, r3
    29e2:	d9cb      	bls.n	0x297c
    29e4:	1c59      	adds	r1, r3, #1
    29e6:	912e      	str	r1, [sp, #184]	; 0xb8
    29e8:	701a      	strb	r2, [r3, #0]
    29ea:	e7f7      	b.n	0x29dc
    29ec:	1ceb      	adds	r3, r5, #3
    29ee:	db02      	blt.n	0x29f6
    29f0:	42af      	cmp	r7, r5
    29f2:	db00      	blt.n	0x29f6
    29f4:	e096      	b.n	0x2b24
    29f6:	9b0c      	ldr	r3, [sp, #48]	; 0x30
    29f8:	3b02      	subs	r3, #2
    29fa:	930c      	str	r3, [sp, #48]	; 0x30
    29fc:	e015      	b.n	0x2a2a
    29fe:	46c0      	nop			; (mov r8, r8)
    2a00:	ffff 7fef 	vqrdmlsh.s<illegal width 64>	<illegal reg q11.5>, <illegal reg q15.5>, d31[0]
    2a04:	7429      	strb	r1, [r5, #16]
    2a06:	0800      	lsrs	r0, r0, #32
    2a08:	742d      	strb	r5, [r5, #16]
    2a0a:	0800      	lsrs	r0, r0, #32
    2a0c:	7431      	strb	r1, [r6, #16]
    2a0e:	0800      	lsrs	r0, r0, #32
    2a10:	7435      	strb	r5, [r6, #16]
    2a12:	0800      	lsrs	r0, r0, #32
    2a14:	7439      	strb	r1, [r7, #16]
    2a16:	0800      	lsrs	r0, r0, #32
    2a18:	744a      	strb	r2, [r1, #17]
    2a1a:	0800      	lsrs	r0, r0, #32
    2a1c:	0000      	movs	r0, r0
    2a1e:	4030      	ands	r0, r6
    2a20:	0000      	movs	r0, r0
    2a22:	3fe0      	subs	r7, #224	; 0xe0
    2a24:	9b0d      	ldr	r3, [sp, #52]	; 0x34
    2a26:	2b46      	cmp	r3, #70	; 0x46
    2a28:	d06a      	beq.n	0x2b00
    2a2a:	2220      	movs	r2, #32
    2a2c:	9b0c      	ldr	r3, [sp, #48]	; 0x30
    2a2e:	990c      	ldr	r1, [sp, #48]	; 0x30
    2a30:	1e6c      	subs	r4, r5, #1
    2a32:	4391      	bics	r1, r2
    2a34:	061b      	lsls	r3, r3, #24
    2a36:	000a      	movs	r2, r1
    2a38:	9427      	str	r4, [sp, #156]	; 0x9c
    2a3a:	0e1b      	lsrs	r3, r3, #24
    2a3c:	2100      	movs	r1, #0
    2a3e:	2a41      	cmp	r2, #65	; 0x41
    2a40:	d103      	bne.n	0x2a4a
    2a42:	330f      	adds	r3, #15
    2a44:	061b      	lsls	r3, r3, #24
    2a46:	0e1b      	lsrs	r3, r3, #24
    2a48:	3101      	adds	r1, #1
    2a4a:	aa2a      	add	r2, sp, #168	; 0xa8
    2a4c:	7013      	strb	r3, [r2, #0]
    2a4e:	232b      	movs	r3, #43	; 0x2b
    2a50:	2c00      	cmp	r4, #0
    2a52:	da02      	bge.n	0x2a5a
    2a54:	3b2a      	subs	r3, #42	; 0x2a
    2a56:	1b5c      	subs	r4, r3, r5
    2a58:	332c      	adds	r3, #44	; 0x2c
    2a5a:	7053      	strb	r3, [r2, #1]
    2a5c:	2c09      	cmp	r4, #9
    2a5e:	dd24      	ble.n	0x2aaa
    2a60:	ab1a      	add	r3, sp, #104	; 0x68
    2a62:	2557      	movs	r5, #87	; 0x57
    2a64:	469c      	mov	ip, r3
    2a66:	4465      	add	r5, ip
    2a68:	210a      	movs	r1, #10
    2a6a:	0020      	movs	r0, r4
    2a6c:	f004 fc64 	bl	0x7338
    2a70:	1e6e      	subs	r6, r5, #1
    2a72:	3130      	adds	r1, #48	; 0x30
    2a74:	7031      	strb	r1, [r6, #0]
    2a76:	0020      	movs	r0, r4
    2a78:	210a      	movs	r1, #10
    2a7a:	f004 fc7d 	bl	0x7378
    2a7e:	2c63      	cmp	r4, #99	; 0x63
    2a80:	dd02      	ble.n	0x2a88
    2a82:	0035      	movs	r5, r6
    2a84:	0004      	movs	r4, r0
    2a86:	e7ef      	b.n	0x2a68
    2a88:	aa1a      	add	r2, sp, #104	; 0x68
    2a8a:	4694      	mov	ip, r2
    2a8c:	2342      	movs	r3, #66	; 0x42
    2a8e:	2157      	movs	r1, #87	; 0x57
    2a90:	3d02      	subs	r5, #2
    2a92:	3030      	adds	r0, #48	; 0x30
    2a94:	7028      	strb	r0, [r5, #0]
    2a96:	4463      	add	r3, ip
    2a98:	4461      	add	r1, ip
    2a9a:	001a      	movs	r2, r3
    2a9c:	428d      	cmp	r5, r1
    2a9e:	d211      	bcs.n	0x2ac4
    2aa0:	782a      	ldrb	r2, [r5, #0]
    2aa2:	3501      	adds	r5, #1
    2aa4:	701a      	strb	r2, [r3, #0]
    2aa6:	3301      	adds	r3, #1
    2aa8:	e7f7      	b.n	0x2a9a
    2aaa:	a81a      	add	r0, sp, #104	; 0x68
    2aac:	2342      	movs	r3, #66	; 0x42
    2aae:	4684      	mov	ip, r0
    2ab0:	4463      	add	r3, ip
    2ab2:	2900      	cmp	r1, #0
    2ab4:	d103      	bne.n	0x2abe
    2ab6:	2330      	movs	r3, #48	; 0x30
    2ab8:	7093      	strb	r3, [r2, #2]
    2aba:	3313      	adds	r3, #19
    2abc:	4463      	add	r3, ip
    2abe:	3430      	adds	r4, #48	; 0x30
    2ac0:	701c      	strb	r4, [r3, #0]
    2ac2:	1c5a      	adds	r2, r3, #1
    2ac4:	ab2a      	add	r3, sp, #168	; 0xa8
    2ac6:	1ad3      	subs	r3, r2, r3
    2ac8:	931a      	str	r3, [sp, #104]	; 0x68
    2aca:	9a1a      	ldr	r2, [sp, #104]	; 0x68
    2acc:	4694      	mov	ip, r2
    2ace:	9b0b      	ldr	r3, [sp, #44]	; 0x2c
    2ad0:	4463      	add	r3, ip
    2ad2:	001c      	movs	r4, r3
    2ad4:	9b0b      	ldr	r3, [sp, #44]	; 0x2c
    2ad6:	2b01      	cmp	r3, #1
    2ad8:	dc03      	bgt.n	0x2ae2
    2ada:	4653      	mov	r3, sl
    2adc:	2201      	movs	r2, #1
    2ade:	4213      	tst	r3, r2
    2ae0:	d002      	beq.n	0x2ae8
    2ae2:	9b13      	ldr	r3, [sp, #76]	; 0x4c
    2ae4:	469c      	mov	ip, r3
    2ae6:	4464      	add	r4, ip
    2ae8:	4652      	mov	r2, sl
    2aea:	4bc5      	ldr	r3, [pc, #788]	; (0x2e00)
    2aec:	401a      	ands	r2, r3
    2aee:	0013      	movs	r3, r2
    2af0:	2280      	movs	r2, #128	; 0x80
    2af2:	2600      	movs	r6, #0
    2af4:	0052      	lsls	r2, r2, #1
    2af6:	431a      	orrs	r2, r3
    2af8:	921c      	str	r2, [sp, #112]	; 0x70
    2afa:	960d      	str	r6, [sp, #52]	; 0x34
    2afc:	0035      	movs	r5, r6
    2afe:	e053      	b.n	0x2ba8
    2b00:	4653      	mov	r3, sl
    2b02:	2201      	movs	r2, #1
    2b04:	4013      	ands	r3, r2
    2b06:	433b      	orrs	r3, r7
    2b08:	2d00      	cmp	r5, #0
    2b0a:	dd05      	ble.n	0x2b18
    2b0c:	002c      	movs	r4, r5
    2b0e:	2b00      	cmp	r3, #0
    2b10:	d020      	beq.n	0x2b54
    2b12:	9b13      	ldr	r3, [sp, #76]	; 0x4c
    2b14:	18ec      	adds	r4, r5, r3
    2b16:	e003      	b.n	0x2b20
    2b18:	2b00      	cmp	r3, #0
    2b1a:	d01d      	beq.n	0x2b58
    2b1c:	9b13      	ldr	r3, [sp, #76]	; 0x4c
    2b1e:	1c5c      	adds	r4, r3, #1
    2b20:	19e4      	adds	r4, r4, r7
    2b22:	e017      	b.n	0x2b54
    2b24:	9b0b      	ldr	r3, [sp, #44]	; 0x2c
    2b26:	429d      	cmp	r5, r3
    2b28:	db07      	blt.n	0x2b3a
    2b2a:	4653      	mov	r3, sl
    2b2c:	2201      	movs	r2, #1
    2b2e:	002c      	movs	r4, r5
    2b30:	4213      	tst	r3, r2
    2b32:	d015      	beq.n	0x2b60
    2b34:	9b13      	ldr	r3, [sp, #76]	; 0x4c
    2b36:	18ec      	adds	r4, r5, r3
    2b38:	e012      	b.n	0x2b60
    2b3a:	9a13      	ldr	r2, [sp, #76]	; 0x4c
    2b3c:	4694      	mov	ip, r2
    2b3e:	9b0b      	ldr	r3, [sp, #44]	; 0x2c
    2b40:	4463      	add	r3, ip
    2b42:	001c      	movs	r4, r3
    2b44:	2367      	movs	r3, #103	; 0x67
    2b46:	930c      	str	r3, [sp, #48]	; 0x30
    2b48:	2d00      	cmp	r5, #0
    2b4a:	dc0b      	bgt.n	0x2b64
    2b4c:	3b66      	subs	r3, #102	; 0x66
    2b4e:	1b5b      	subs	r3, r3, r5
    2b50:	18e4      	adds	r4, r4, r3
    2b52:	e007      	b.n	0x2b64
    2b54:	2366      	movs	r3, #102	; 0x66
    2b56:	e004      	b.n	0x2b62
    2b58:	2366      	movs	r3, #102	; 0x66
    2b5a:	2401      	movs	r4, #1
    2b5c:	930c      	str	r3, [sp, #48]	; 0x30
    2b5e:	e001      	b.n	0x2b64
    2b60:	2367      	movs	r3, #103	; 0x67
    2b62:	930c      	str	r3, [sp, #48]	; 0x30
    2b64:	2380      	movs	r3, #128	; 0x80
    2b66:	4652      	mov	r2, sl
    2b68:	2600      	movs	r6, #0
    2b6a:	00db      	lsls	r3, r3, #3
    2b6c:	401a      	ands	r2, r3
    2b6e:	920d      	str	r2, [sp, #52]	; 0x34
    2b70:	42b2      	cmp	r2, r6
    2b72:	d019      	beq.n	0x2ba8
    2b74:	960d      	str	r6, [sp, #52]	; 0x34
    2b76:	42b5      	cmp	r5, r6
    2b78:	dd16      	ble.n	0x2ba8
    2b7a:	9b12      	ldr	r3, [sp, #72]	; 0x48
    2b7c:	781a      	ldrb	r2, [r3, #0]
    2b7e:	2aff      	cmp	r2, #255	; 0xff
    2b80:	d00c      	beq.n	0x2b9c
    2b82:	42aa      	cmp	r2, r5
    2b84:	da0a      	bge.n	0x2b9c
    2b86:	1aad      	subs	r5, r5, r2
    2b88:	785a      	ldrb	r2, [r3, #1]
    2b8a:	2a00      	cmp	r2, #0
    2b8c:	d004      	beq.n	0x2b98
    2b8e:	9a0d      	ldr	r2, [sp, #52]	; 0x34
    2b90:	3201      	adds	r2, #1
    2b92:	920d      	str	r2, [sp, #52]	; 0x34
    2b94:	3301      	adds	r3, #1
    2b96:	e7f1      	b.n	0x2b7c
    2b98:	3601      	adds	r6, #1
    2b9a:	e7ef      	b.n	0x2b7c
    2b9c:	9312      	str	r3, [sp, #72]	; 0x48
    2b9e:	9b0d      	ldr	r3, [sp, #52]	; 0x34
    2ba0:	9a16      	ldr	r2, [sp, #88]	; 0x58
    2ba2:	199b      	adds	r3, r3, r6
    2ba4:	435a      	muls	r2, r3
    2ba6:	1914      	adds	r4, r2, r4
    2ba8:	9b1e      	ldr	r3, [sp, #120]	; 0x78
    2baa:	2b00      	cmp	r3, #0
    2bac:	d005      	beq.n	0x2bba
    2bae:	aa1a      	add	r2, sp, #104	; 0x68
    2bb0:	4694      	mov	ip, r2
    2bb2:	2327      	movs	r3, #39	; 0x27
    2bb4:	222d      	movs	r2, #45	; 0x2d
    2bb6:	4463      	add	r3, ip
    2bb8:	701a      	strb	r2, [r3, #0]
    2bba:	9b1c      	ldr	r3, [sp, #112]	; 0x70
    2bbc:	2700      	movs	r7, #0
    2bbe:	469a      	mov	sl, r3
    2bc0:	f000 fe63 	bl	0x388a
    2bc4:	9511      	str	r5, [sp, #68]	; 0x44
    2bc6:	464d      	mov	r5, r9
    2bc8:	46b1      	mov	r9, r6
    2bca:	4656      	mov	r6, sl
    2bcc:	46a2      	mov	sl, r4
    2bce:	4652      	mov	r2, sl
    2bd0:	9b08      	ldr	r3, [sp, #32]
    2bd2:	465c      	mov	r4, fp
    2bd4:	469b      	mov	fp, r3
    2bd6:	9b25      	ldr	r3, [sp, #148]	; 0x94
    2bd8:	0692      	lsls	r2, r2, #26
    2bda:	d533      	bpl.n	0x2c44
    2bdc:	2e00      	cmp	r6, #0
    2bde:	d016      	beq.n	0x2c0e
    2be0:	429c      	cmp	r4, r3
    2be2:	da03      	bge.n	0x2bec
    2be4:	00e4      	lsls	r4, r4, #3
    2be6:	ab7c      	add	r3, sp, #496	; 0x1f0
    2be8:	58e2      	ldr	r2, [r4, r3]
    2bea:	e00e      	b.n	0x2c0a
    2bec:	ab26      	add	r3, sp, #152	; 0x98
    2bee:	9303      	str	r3, [sp, #12]
    2bf0:	ab5c      	add	r3, sp, #368	; 0x170
    2bf2:	9302      	str	r3, [sp, #8]
    2bf4:	ab7c      	add	r3, sp, #496	; 0x1f0
    2bf6:	9301      	str	r3, [sp, #4]
    2bf8:	ab25      	add	r3, sp, #148	; 0x94
    2bfa:	9300      	str	r3, [sp, #0]
    2bfc:	002a      	movs	r2, r5
    2bfe:	ab21      	add	r3, sp, #132	; 0x84
    2c00:	0021      	movs	r1, r4
    2c02:	4640      	mov	r0, r8
    2c04:	f7fe ff54 	bl	0x1ab0
    2c08:	6802      	ldr	r2, [r0, #0]
    2c0a:	4649      	mov	r1, r9
    2c0c:	e015      	b.n	0x2c3a
    2c0e:	464a      	mov	r2, r9
    2c10:	1c51      	adds	r1, r2, #1
    2c12:	4599      	cmp	r9, r3
    2c14:	da03      	bge.n	0x2c1e
    2c16:	00e4      	lsls	r4, r4, #3
    2c18:	ab7c      	add	r3, sp, #496	; 0x1f0
    2c1a:	58e2      	ldr	r2, [r4, r3]
    2c1c:	e00d      	b.n	0x2c3a
    2c1e:	9a21      	ldr	r2, [sp, #132]	; 0x84
    2c20:	1d10      	adds	r0, r2, #4
    2c22:	2b1f      	cmp	r3, #31
    2c24:	dc07      	bgt.n	0x2c36
    2c26:	9021      	str	r0, [sp, #132]	; 0x84
    2c28:	6812      	ldr	r2, [r2, #0]
    2c2a:	1c5c      	adds	r4, r3, #1
    2c2c:	a87c      	add	r0, sp, #496	; 0x1f0
    2c2e:	00db      	lsls	r3, r3, #3
    2c30:	9425      	str	r4, [sp, #148]	; 0x94
    2c32:	501a      	str	r2, [r3, r0]
    2c34:	e001      	b.n	0x2c3a
    2c36:	9021      	str	r0, [sp, #132]	; 0x84
    2c38:	6812      	ldr	r2, [r2, #0]
    2c3a:	9b14      	ldr	r3, [sp, #80]	; 0x50
    2c3c:	6013      	str	r3, [r2, #0]
    2c3e:	17db      	asrs	r3, r3, #31
    2c40:	6053      	str	r3, [r2, #4]
    2c42:	e09d      	b.n	0x2d80
    2c44:	4652      	mov	r2, sl
    2c46:	06d2      	lsls	r2, r2, #27
    2c48:	d469      	bmi.n	0x2d1e
    2c4a:	4652      	mov	r2, sl
    2c4c:	0652      	lsls	r2, r2, #25
    2c4e:	d531      	bpl.n	0x2cb4
    2c50:	2e00      	cmp	r6, #0
    2c52:	d016      	beq.n	0x2c82
    2c54:	429c      	cmp	r4, r3
    2c56:	da03      	bge.n	0x2c60
    2c58:	00e4      	lsls	r4, r4, #3
    2c5a:	ab7c      	add	r3, sp, #496	; 0x1f0
    2c5c:	58e2      	ldr	r2, [r4, r3]
    2c5e:	e00e      	b.n	0x2c7e
    2c60:	ab26      	add	r3, sp, #152	; 0x98
    2c62:	9303      	str	r3, [sp, #12]
    2c64:	ab5c      	add	r3, sp, #368	; 0x170
    2c66:	9302      	str	r3, [sp, #8]
    2c68:	ab7c      	add	r3, sp, #496	; 0x1f0
    2c6a:	9301      	str	r3, [sp, #4]
    2c6c:	ab25      	add	r3, sp, #148	; 0x94
    2c6e:	9300      	str	r3, [sp, #0]
    2c70:	002a      	movs	r2, r5
    2c72:	ab21      	add	r3, sp, #132	; 0x84
    2c74:	0021      	movs	r1, r4
    2c76:	4640      	mov	r0, r8
    2c78:	f7fe ff1a 	bl	0x1ab0
    2c7c:	6802      	ldr	r2, [r0, #0]
    2c7e:	4649      	mov	r1, r9
    2c80:	e015      	b.n	0x2cae
    2c82:	464a      	mov	r2, r9
    2c84:	1c51      	adds	r1, r2, #1
    2c86:	4599      	cmp	r9, r3
    2c88:	da03      	bge.n	0x2c92
    2c8a:	00e4      	lsls	r4, r4, #3
    2c8c:	ab7c      	add	r3, sp, #496	; 0x1f0
    2c8e:	58e2      	ldr	r2, [r4, r3]
    2c90:	e00d      	b.n	0x2cae
    2c92:	9a21      	ldr	r2, [sp, #132]	; 0x84
    2c94:	1d10      	adds	r0, r2, #4
    2c96:	2b1f      	cmp	r3, #31
    2c98:	dc07      	bgt.n	0x2caa
    2c9a:	9021      	str	r0, [sp, #132]	; 0x84
    2c9c:	6812      	ldr	r2, [r2, #0]
    2c9e:	1c5c      	adds	r4, r3, #1
    2ca0:	a87c      	add	r0, sp, #496	; 0x1f0
    2ca2:	00db      	lsls	r3, r3, #3
    2ca4:	9425      	str	r4, [sp, #148]	; 0x94
    2ca6:	501a      	str	r2, [r3, r0]
    2ca8:	e001      	b.n	0x2cae
    2caa:	9021      	str	r0, [sp, #132]	; 0x84
    2cac:	6812      	ldr	r2, [r2, #0]
    2cae:	9b14      	ldr	r3, [sp, #80]	; 0x50
    2cb0:	8013      	strh	r3, [r2, #0]
    2cb2:	e065      	b.n	0x2d80
    2cb4:	4652      	mov	r2, sl
    2cb6:	0592      	lsls	r2, r2, #22
    2cb8:	d531      	bpl.n	0x2d1e
    2cba:	2e00      	cmp	r6, #0
    2cbc:	d016      	beq.n	0x2cec
    2cbe:	429c      	cmp	r4, r3
    2cc0:	da03      	bge.n	0x2cca
    2cc2:	00e4      	lsls	r4, r4, #3
    2cc4:	ab7c      	add	r3, sp, #496	; 0x1f0
    2cc6:	58e2      	ldr	r2, [r4, r3]
    2cc8:	e00e      	b.n	0x2ce8
    2cca:	ab26      	add	r3, sp, #152	; 0x98
    2ccc:	9303      	str	r3, [sp, #12]
    2cce:	ab5c      	add	r3, sp, #368	; 0x170
    2cd0:	9302      	str	r3, [sp, #8]
    2cd2:	ab7c      	add	r3, sp, #496	; 0x1f0
    2cd4:	9301      	str	r3, [sp, #4]
    2cd6:	ab25      	add	r3, sp, #148	; 0x94
    2cd8:	9300      	str	r3, [sp, #0]
    2cda:	002a      	movs	r2, r5
    2cdc:	ab21      	add	r3, sp, #132	; 0x84
    2cde:	0021      	movs	r1, r4
    2ce0:	4640      	mov	r0, r8
    2ce2:	f7fe fee5 	bl	0x1ab0
    2ce6:	6802      	ldr	r2, [r0, #0]
    2ce8:	4649      	mov	r1, r9
    2cea:	e015      	b.n	0x2d18
    2cec:	464a      	mov	r2, r9
    2cee:	1c51      	adds	r1, r2, #1
    2cf0:	4599      	cmp	r9, r3
    2cf2:	da03      	bge.n	0x2cfc
    2cf4:	00e4      	lsls	r4, r4, #3
    2cf6:	ab7c      	add	r3, sp, #496	; 0x1f0
    2cf8:	58e2      	ldr	r2, [r4, r3]
    2cfa:	e00d      	b.n	0x2d18
    2cfc:	9a21      	ldr	r2, [sp, #132]	; 0x84
    2cfe:	1d10      	adds	r0, r2, #4
    2d00:	2b1f      	cmp	r3, #31
    2d02:	dc07      	bgt.n	0x2d14
    2d04:	9021      	str	r0, [sp, #132]	; 0x84
    2d06:	6812      	ldr	r2, [r2, #0]
    2d08:	1c5c      	adds	r4, r3, #1
    2d0a:	a87c      	add	r0, sp, #496	; 0x1f0
    2d0c:	00db      	lsls	r3, r3, #3
    2d0e:	9425      	str	r4, [sp, #148]	; 0x94
    2d10:	501a      	str	r2, [r3, r0]
    2d12:	e001      	b.n	0x2d18
    2d14:	9021      	str	r0, [sp, #132]	; 0x84
    2d16:	6812      	ldr	r2, [r2, #0]
    2d18:	9b14      	ldr	r3, [sp, #80]	; 0x50
    2d1a:	7013      	strb	r3, [r2, #0]
    2d1c:	e030      	b.n	0x2d80
    2d1e:	2e00      	cmp	r6, #0
    2d20:	d016      	beq.n	0x2d50
    2d22:	429c      	cmp	r4, r3
    2d24:	da03      	bge.n	0x2d2e
    2d26:	00e4      	lsls	r4, r4, #3
    2d28:	ab7c      	add	r3, sp, #496	; 0x1f0
    2d2a:	58e2      	ldr	r2, [r4, r3]
    2d2c:	e00e      	b.n	0x2d4c
    2d2e:	ab26      	add	r3, sp, #152	; 0x98
    2d30:	9303      	str	r3, [sp, #12]
    2d32:	ab5c      	add	r3, sp, #368	; 0x170
    2d34:	9302      	str	r3, [sp, #8]
    2d36:	ab7c      	add	r3, sp, #496	; 0x1f0
    2d38:	9301      	str	r3, [sp, #4]
    2d3a:	ab25      	add	r3, sp, #148	; 0x94
    2d3c:	9300      	str	r3, [sp, #0]
    2d3e:	002a      	movs	r2, r5
    2d40:	ab21      	add	r3, sp, #132	; 0x84
    2d42:	0021      	movs	r1, r4
    2d44:	4640      	mov	r0, r8
    2d46:	f7fe feb3 	bl	0x1ab0
    2d4a:	6802      	ldr	r2, [r0, #0]
    2d4c:	4649      	mov	r1, r9
    2d4e:	e015      	b.n	0x2d7c
    2d50:	464a      	mov	r2, r9
    2d52:	1c51      	adds	r1, r2, #1
    2d54:	4599      	cmp	r9, r3
    2d56:	da03      	bge.n	0x2d60
    2d58:	00e4      	lsls	r4, r4, #3
    2d5a:	ab7c      	add	r3, sp, #496	; 0x1f0
    2d5c:	58e2      	ldr	r2, [r4, r3]
    2d5e:	e00d      	b.n	0x2d7c
    2d60:	9a21      	ldr	r2, [sp, #132]	; 0x84
    2d62:	1d10      	adds	r0, r2, #4
    2d64:	2b1f      	cmp	r3, #31
    2d66:	dc07      	bgt.n	0x2d78
    2d68:	1c5c      	adds	r4, r3, #1
    2d6a:	9021      	str	r0, [sp, #132]	; 0x84
    2d6c:	9425      	str	r4, [sp, #148]	; 0x94
    2d6e:	6812      	ldr	r2, [r2, #0]
    2d70:	00db      	lsls	r3, r3, #3
    2d72:	a87c      	add	r0, sp, #496	; 0x1f0
    2d74:	501a      	str	r2, [r3, r0]
    2d76:	e001      	b.n	0x2d7c
    2d78:	9021      	str	r0, [sp, #132]	; 0x84
    2d7a:	6812      	ldr	r2, [r2, #0]
    2d7c:	9b14      	ldr	r3, [sp, #80]	; 0x50
    2d7e:	6013      	str	r3, [r2, #0]
    2d80:	4689      	mov	r9, r1
    2d82:	9b11      	ldr	r3, [sp, #68]	; 0x44
    2d84:	9309      	str	r3, [sp, #36]	; 0x24
    2d86:	f7ff f8c3 	bl	0x1f10
    2d8a:	9511      	str	r5, [sp, #68]	; 0x44
    2d8c:	464d      	mov	r5, r9
    2d8e:	46b1      	mov	r9, r6
    2d90:	4656      	mov	r6, sl
    2d92:	46a2      	mov	sl, r4
    2d94:	9b08      	ldr	r3, [sp, #32]
    2d96:	920c      	str	r2, [sp, #48]	; 0x30
    2d98:	465c      	mov	r4, fp
    2d9a:	4652      	mov	r2, sl
    2d9c:	469b      	mov	fp, r3
    2d9e:	2310      	movs	r3, #16
    2da0:	431a      	orrs	r2, r3
    2da2:	4692      	mov	sl, r2
    2da4:	e008      	b.n	0x2db8
    2da6:	9b08      	ldr	r3, [sp, #32]
    2da8:	9511      	str	r5, [sp, #68]	; 0x44
    2daa:	464d      	mov	r5, r9
    2dac:	46b1      	mov	r9, r6
    2dae:	4656      	mov	r6, sl
    2db0:	46a2      	mov	sl, r4
    2db2:	465c      	mov	r4, fp
    2db4:	469b      	mov	fp, r3
    2db6:	920c      	str	r2, [sp, #48]	; 0x30
    2db8:	4653      	mov	r3, sl
    2dba:	9a25      	ldr	r2, [sp, #148]	; 0x94
    2dbc:	069b      	lsls	r3, r3, #26
    2dbe:	d545      	bpl.n	0x2e4c
    2dc0:	2e00      	cmp	r6, #0
    2dc2:	d01f      	beq.n	0x2e04
    2dc4:	4294      	cmp	r4, r2
    2dc6:	da06      	bge.n	0x2dd6
    2dc8:	ab7c      	add	r3, sp, #496	; 0x1f0
    2dca:	469c      	mov	ip, r3
    2dcc:	00e4      	lsls	r4, r4, #3
    2dce:	4464      	add	r4, ip
    2dd0:	6823      	ldr	r3, [r4, #0]
    2dd2:	6864      	ldr	r4, [r4, #4]
    2dd4:	e00f      	b.n	0x2df6
    2dd6:	ab26      	add	r3, sp, #152	; 0x98
    2dd8:	9303      	str	r3, [sp, #12]
    2dda:	ab5c      	add	r3, sp, #368	; 0x170
    2ddc:	9302      	str	r3, [sp, #8]
    2dde:	ab7c      	add	r3, sp, #496	; 0x1f0
    2de0:	9301      	str	r3, [sp, #4]
    2de2:	ab25      	add	r3, sp, #148	; 0x94
    2de4:	9300      	str	r3, [sp, #0]
    2de6:	0021      	movs	r1, r4
    2de8:	ab21      	add	r3, sp, #132	; 0x84
    2dea:	002a      	movs	r2, r5
    2dec:	4640      	mov	r0, r8
    2dee:	f7fe fe5f 	bl	0x1ab0
    2df2:	6803      	ldr	r3, [r0, #0]
    2df4:	6844      	ldr	r4, [r0, #4]
    2df6:	9306      	str	r3, [sp, #24]
    2df8:	9407      	str	r4, [sp, #28]
    2dfa:	464b      	mov	r3, r9
    2dfc:	e0dd      	b.n	0x2fba
    2dfe:	46c0      	nop			; (mov r8, r8)
    2e00:	fbff ffff 			; <UNDEFINED> instruction: 0xfbffffff
    2e04:	464b      	mov	r3, r9
    2e06:	3301      	adds	r3, #1
    2e08:	4591      	cmp	r9, r2
    2e0a:	da08      	bge.n	0x2e1e
    2e0c:	aa7c      	add	r2, sp, #496	; 0x1f0
    2e0e:	4694      	mov	ip, r2
    2e10:	00e4      	lsls	r4, r4, #3
    2e12:	4464      	add	r4, ip
    2e14:	6821      	ldr	r1, [r4, #0]
    2e16:	6862      	ldr	r2, [r4, #4]
    2e18:	9106      	str	r1, [sp, #24]
    2e1a:	9207      	str	r2, [sp, #28]
    2e1c:	e0cd      	b.n	0x2fba
    2e1e:	2007      	movs	r0, #7
    2e20:	9921      	ldr	r1, [sp, #132]	; 0x84
    2e22:	3107      	adds	r1, #7
    2e24:	4381      	bics	r1, r0
    2e26:	c930      	ldmia	r1!, {r4, r5}
    2e28:	9406      	str	r4, [sp, #24]
    2e2a:	9507      	str	r5, [sp, #28]
    2e2c:	2a1f      	cmp	r2, #31
    2e2e:	dc0b      	bgt.n	0x2e48
    2e30:	9121      	str	r1, [sp, #132]	; 0x84
    2e32:	a97c      	add	r1, sp, #496	; 0x1f0
    2e34:	1c50      	adds	r0, r2, #1
    2e36:	468c      	mov	ip, r1
    2e38:	9025      	str	r0, [sp, #148]	; 0x94
    2e3a:	0029      	movs	r1, r5
    2e3c:	0020      	movs	r0, r4
    2e3e:	00d2      	lsls	r2, r2, #3
    2e40:	4462      	add	r2, ip
    2e42:	6010      	str	r0, [r2, #0]
    2e44:	6051      	str	r1, [r2, #4]
    2e46:	e0b8      	b.n	0x2fba
    2e48:	9121      	str	r1, [sp, #132]	; 0x84
    2e4a:	e0b6      	b.n	0x2fba
    2e4c:	4653      	mov	r3, sl
    2e4e:	06db      	lsls	r3, r3, #27
    2e50:	d511      	bpl.n	0x2e76
    2e52:	2e00      	cmp	r6, #0
    2e54:	d000      	beq.n	0x2e58
    2e56:	e080      	b.n	0x2f5a
    2e58:	464b      	mov	r3, r9
    2e5a:	3301      	adds	r3, #1
    2e5c:	4591      	cmp	r9, r2
    2e5e:	da00      	bge.n	0x2e62
    2e60:	e096      	b.n	0x2f90
    2e62:	9821      	ldr	r0, [sp, #132]	; 0x84
    2e64:	c802      	ldmia	r0!, {r1}
    2e66:	2a1f      	cmp	r2, #31
    2e68:	dc03      	bgt.n	0x2e72
    2e6a:	1c54      	adds	r4, r2, #1
    2e6c:	9425      	str	r4, [sp, #148]	; 0x94
    2e6e:	9021      	str	r0, [sp, #132]	; 0x84
    2e70:	e09a      	b.n	0x2fa8
    2e72:	9021      	str	r0, [sp, #132]	; 0x84
    2e74:	e09e      	b.n	0x2fb4
    2e76:	4653      	mov	r3, sl
    2e78:	065b      	lsls	r3, r3, #25
    2e7a:	d533      	bpl.n	0x2ee4
    2e7c:	2e00      	cmp	r6, #0
    2e7e:	d017      	beq.n	0x2eb0
    2e80:	4294      	cmp	r4, r2
    2e82:	da03      	bge.n	0x2e8c
    2e84:	00e4      	lsls	r4, r4, #3
    2e86:	ab7c      	add	r3, sp, #496	; 0x1f0
    2e88:	58e2      	ldr	r2, [r4, r3]
    2e8a:	e00e      	b.n	0x2eaa
    2e8c:	ab26      	add	r3, sp, #152	; 0x98
    2e8e:	9303      	str	r3, [sp, #12]
    2e90:	ab5c      	add	r3, sp, #368	; 0x170
    2e92:	9302      	str	r3, [sp, #8]
    2e94:	ab7c      	add	r3, sp, #496	; 0x1f0
    2e96:	9301      	str	r3, [sp, #4]
    2e98:	ab25      	add	r3, sp, #148	; 0x94
    2e9a:	9300      	str	r3, [sp, #0]
    2e9c:	002a      	movs	r2, r5
    2e9e:	ab21      	add	r3, sp, #132	; 0x84
    2ea0:	0021      	movs	r1, r4
    2ea2:	4640      	mov	r0, r8
    2ea4:	f7fe fe04 	bl	0x1ab0
    2ea8:	6802      	ldr	r2, [r0, #0]
    2eaa:	0412      	lsls	r2, r2, #16
    2eac:	0c12      	lsrs	r2, r2, #16
    2eae:	e035      	b.n	0x2f1c
    2eb0:	464b      	mov	r3, r9
    2eb2:	3301      	adds	r3, #1
    2eb4:	4591      	cmp	r9, r2
    2eb6:	da03      	bge.n	0x2ec0
    2eb8:	00e4      	lsls	r4, r4, #3
    2eba:	aa7c      	add	r2, sp, #496	; 0x1f0
    2ebc:	58a2      	ldr	r2, [r4, r2]
    2ebe:	e00e      	b.n	0x2ede
    2ec0:	9921      	ldr	r1, [sp, #132]	; 0x84
    2ec2:	1d08      	adds	r0, r1, #4
    2ec4:	2a1f      	cmp	r2, #31
    2ec6:	dc08      	bgt.n	0x2eda
    2ec8:	1c54      	adds	r4, r2, #1
    2eca:	9425      	str	r4, [sp, #148]	; 0x94
    2ecc:	6809      	ldr	r1, [r1, #0]
    2ece:	00d2      	lsls	r2, r2, #3
    2ed0:	9021      	str	r0, [sp, #132]	; 0x84
    2ed2:	a87c      	add	r0, sp, #496	; 0x1f0
    2ed4:	5011      	str	r1, [r2, r0]
    2ed6:	040a      	lsls	r2, r1, #16
    2ed8:	e002      	b.n	0x2ee0
    2eda:	9021      	str	r0, [sp, #132]	; 0x84
    2edc:	680a      	ldr	r2, [r1, #0]
    2ede:	0412      	lsls	r2, r2, #16
    2ee0:	0c12      	lsrs	r2, r2, #16
    2ee2:	e036      	b.n	0x2f52
    2ee4:	4653      	mov	r3, sl
    2ee6:	059b      	lsls	r3, r3, #22
    2ee8:	d535      	bpl.n	0x2f56
    2eea:	2e00      	cmp	r6, #0
    2eec:	d018      	beq.n	0x2f20
    2eee:	4294      	cmp	r4, r2
    2ef0:	da03      	bge.n	0x2efa
    2ef2:	00e4      	lsls	r4, r4, #3
    2ef4:	ab7c      	add	r3, sp, #496	; 0x1f0
    2ef6:	58e2      	ldr	r2, [r4, r3]
    2ef8:	e00e      	b.n	0x2f18
    2efa:	ab26      	add	r3, sp, #152	; 0x98
    2efc:	9303      	str	r3, [sp, #12]
    2efe:	ab5c      	add	r3, sp, #368	; 0x170
    2f00:	9302      	str	r3, [sp, #8]
    2f02:	ab7c      	add	r3, sp, #496	; 0x1f0
    2f04:	9301      	str	r3, [sp, #4]
    2f06:	ab25      	add	r3, sp, #148	; 0x94
    2f08:	9300      	str	r3, [sp, #0]
    2f0a:	002a      	movs	r2, r5
    2f0c:	ab21      	add	r3, sp, #132	; 0x84
    2f0e:	0021      	movs	r1, r4
    2f10:	4640      	mov	r0, r8
    2f12:	f7fe fdcd 	bl	0x1ab0
    2f16:	6802      	ldr	r2, [r0, #0]
    2f18:	0612      	lsls	r2, r2, #24
    2f1a:	0e12      	lsrs	r2, r2, #24
    2f1c:	464b      	mov	r3, r9
    2f1e:	e018      	b.n	0x2f52
    2f20:	464b      	mov	r3, r9
    2f22:	3301      	adds	r3, #1
    2f24:	4591      	cmp	r9, r2
    2f26:	da03      	bge.n	0x2f30
    2f28:	00e4      	lsls	r4, r4, #3
    2f2a:	aa7c      	add	r2, sp, #496	; 0x1f0
    2f2c:	58a2      	ldr	r2, [r4, r2]
    2f2e:	e00e      	b.n	0x2f4e
    2f30:	9921      	ldr	r1, [sp, #132]	; 0x84
    2f32:	1d08      	adds	r0, r1, #4
    2f34:	2a1f      	cmp	r2, #31
    2f36:	dc08      	bgt.n	0x2f4a
    2f38:	1c54      	adds	r4, r2, #1
    2f3a:	9425      	str	r4, [sp, #148]	; 0x94
    2f3c:	6809      	ldr	r1, [r1, #0]
    2f3e:	00d2      	lsls	r2, r2, #3
    2f40:	9021      	str	r0, [sp, #132]	; 0x84
    2f42:	a87c      	add	r0, sp, #496	; 0x1f0
    2f44:	5011      	str	r1, [r2, r0]
    2f46:	060a      	lsls	r2, r1, #24
    2f48:	e002      	b.n	0x2f50
    2f4a:	9021      	str	r0, [sp, #132]	; 0x84
    2f4c:	680a      	ldr	r2, [r1, #0]
    2f4e:	0612      	lsls	r2, r2, #24
    2f50:	0e12      	lsrs	r2, r2, #24
    2f52:	9206      	str	r2, [sp, #24]
    2f54:	e02f      	b.n	0x2fb6
    2f56:	2e00      	cmp	r6, #0
    2f58:	d016      	beq.n	0x2f88
    2f5a:	4294      	cmp	r4, r2
    2f5c:	da03      	bge.n	0x2f66
    2f5e:	00e4      	lsls	r4, r4, #3
    2f60:	ab7c      	add	r3, sp, #496	; 0x1f0
    2f62:	58e1      	ldr	r1, [r4, r3]
    2f64:	e00e      	b.n	0x2f84
    2f66:	ab26      	add	r3, sp, #152	; 0x98
    2f68:	9303      	str	r3, [sp, #12]
    2f6a:	ab5c      	add	r3, sp, #368	; 0x170
    2f6c:	9302      	str	r3, [sp, #8]
    2f6e:	ab7c      	add	r3, sp, #496	; 0x1f0
    2f70:	9301      	str	r3, [sp, #4]
    2f72:	ab25      	add	r3, sp, #148	; 0x94
    2f74:	9300      	str	r3, [sp, #0]
    2f76:	0021      	movs	r1, r4
    2f78:	ab21      	add	r3, sp, #132	; 0x84
    2f7a:	002a      	movs	r2, r5
    2f7c:	4640      	mov	r0, r8
    2f7e:	f7fe fd97 	bl	0x1ab0
    2f82:	6801      	ldr	r1, [r0, #0]
    2f84:	464b      	mov	r3, r9
    2f86:	e015      	b.n	0x2fb4
    2f88:	464b      	mov	r3, r9
    2f8a:	3301      	adds	r3, #1
    2f8c:	4591      	cmp	r9, r2
    2f8e:	da03      	bge.n	0x2f98
    2f90:	00e4      	lsls	r4, r4, #3
    2f92:	aa7c      	add	r2, sp, #496	; 0x1f0
    2f94:	58a1      	ldr	r1, [r4, r2]
    2f96:	e00d      	b.n	0x2fb4
    2f98:	9921      	ldr	r1, [sp, #132]	; 0x84
    2f9a:	1d08      	adds	r0, r1, #4
    2f9c:	2a1f      	cmp	r2, #31
    2f9e:	dc07      	bgt.n	0x2fb0
    2fa0:	1c54      	adds	r4, r2, #1
    2fa2:	9425      	str	r4, [sp, #148]	; 0x94
    2fa4:	9021      	str	r0, [sp, #132]	; 0x84
    2fa6:	6809      	ldr	r1, [r1, #0]
    2fa8:	00d2      	lsls	r2, r2, #3
    2faa:	a87c      	add	r0, sp, #496	; 0x1f0
    2fac:	5011      	str	r1, [r2, r0]
    2fae:	e001      	b.n	0x2fb4
    2fb0:	9021      	str	r0, [sp, #132]	; 0x84
    2fb2:	6809      	ldr	r1, [r1, #0]
    2fb4:	9106      	str	r1, [sp, #24]
    2fb6:	2200      	movs	r2, #0
    2fb8:	9207      	str	r2, [sp, #28]
    2fba:	4651      	mov	r1, sl
    2fbc:	4acd      	ldr	r2, [pc, #820]	; (0x32f4)
    2fbe:	4011      	ands	r1, r2
    2fc0:	468a      	mov	sl, r1
    2fc2:	2200      	movs	r2, #0
    2fc4:	e371      	b.n	0x36aa
    2fc6:	9511      	str	r5, [sp, #68]	; 0x44
    2fc8:	464d      	mov	r5, r9
    2fca:	46b1      	mov	r9, r6
    2fcc:	4656      	mov	r6, sl
    2fce:	9b08      	ldr	r3, [sp, #32]
    2fd0:	46a2      	mov	sl, r4
    2fd2:	9a25      	ldr	r2, [sp, #148]	; 0x94
    2fd4:	465c      	mov	r4, fp
    2fd6:	469b      	mov	fp, r3
    2fd8:	2e00      	cmp	r6, #0
    2fda:	d016      	beq.n	0x300a
    2fdc:	4294      	cmp	r4, r2
    2fde:	da03      	bge.n	0x2fe8
    2fe0:	00e4      	lsls	r4, r4, #3
    2fe2:	ab7c      	add	r3, sp, #496	; 0x1f0
    2fe4:	58e1      	ldr	r1, [r4, r3]
    2fe6:	e00e      	b.n	0x3006
    2fe8:	ab26      	add	r3, sp, #152	; 0x98
    2fea:	9303      	str	r3, [sp, #12]
    2fec:	ab5c      	add	r3, sp, #368	; 0x170
    2fee:	9302      	str	r3, [sp, #8]
    2ff0:	ab7c      	add	r3, sp, #496	; 0x1f0
    2ff2:	9301      	str	r3, [sp, #4]
    2ff4:	ab25      	add	r3, sp, #148	; 0x94
    2ff6:	9300      	str	r3, [sp, #0]
    2ff8:	0021      	movs	r1, r4
    2ffa:	ab21      	add	r3, sp, #132	; 0x84
    2ffc:	002a      	movs	r2, r5
    2ffe:	4640      	mov	r0, r8
    3000:	f7fe fd56 	bl	0x1ab0
    3004:	6801      	ldr	r1, [r0, #0]
    3006:	464b      	mov	r3, r9
    3008:	e015      	b.n	0x3036
    300a:	464b      	mov	r3, r9
    300c:	3301      	adds	r3, #1
    300e:	4591      	cmp	r9, r2
    3010:	da03      	bge.n	0x301a
    3012:	00e4      	lsls	r4, r4, #3
    3014:	aa7c      	add	r2, sp, #496	; 0x1f0
    3016:	58a1      	ldr	r1, [r4, r2]
    3018:	e00d      	b.n	0x3036
    301a:	9921      	ldr	r1, [sp, #132]	; 0x84
    301c:	1d08      	adds	r0, r1, #4
    301e:	2a1f      	cmp	r2, #31
    3020:	dc07      	bgt.n	0x3032
    3022:	9021      	str	r0, [sp, #132]	; 0x84
    3024:	6809      	ldr	r1, [r1, #0]
    3026:	1c54      	adds	r4, r2, #1
    3028:	a87c      	add	r0, sp, #496	; 0x1f0
    302a:	00d2      	lsls	r2, r2, #3
    302c:	9425      	str	r4, [sp, #148]	; 0x94
    302e:	5011      	str	r1, [r2, r0]
    3030:	e001      	b.n	0x3036
    3032:	9021      	str	r0, [sp, #132]	; 0x84
    3034:	6809      	ldr	r1, [r1, #0]
    3036:	2200      	movs	r2, #0
    3038:	9106      	str	r1, [sp, #24]
    303a:	4651      	mov	r1, sl
    303c:	9207      	str	r2, [sp, #28]
    303e:	3202      	adds	r2, #2
    3040:	4311      	orrs	r1, r2
    3042:	48ad      	ldr	r0, [pc, #692]	; (0x32f8)
    3044:	468a      	mov	sl, r1
    3046:	a924      	add	r1, sp, #144	; 0x90
    3048:	8008      	strh	r0, [r1, #0]
    304a:	49ac      	ldr	r1, [pc, #688]	; (0x32fc)
    304c:	911b      	str	r1, [sp, #108]	; 0x6c
    304e:	2178      	movs	r1, #120	; 0x78
    3050:	910c      	str	r1, [sp, #48]	; 0x30
    3052:	e32a      	b.n	0x36aa
    3054:	9511      	str	r5, [sp, #68]	; 0x44
    3056:	464d      	mov	r5, r9
    3058:	46b1      	mov	r9, r6
    305a:	4656      	mov	r6, sl
    305c:	9b08      	ldr	r3, [sp, #32]
    305e:	46a2      	mov	sl, r4
    3060:	920c      	str	r2, [sp, #48]	; 0x30
    3062:	465c      	mov	r4, fp
    3064:	469b      	mov	fp, r3
    3066:	9b25      	ldr	r3, [sp, #148]	; 0x94
    3068:	2e00      	cmp	r6, #0
    306a:	d016      	beq.n	0x309a
    306c:	429c      	cmp	r4, r3
    306e:	da03      	bge.n	0x3078
    3070:	00e4      	lsls	r4, r4, #3
    3072:	ab7c      	add	r3, sp, #496	; 0x1f0
    3074:	58e3      	ldr	r3, [r4, r3]
    3076:	e00e      	b.n	0x3096
    3078:	ab26      	add	r3, sp, #152	; 0x98
    307a:	9303      	str	r3, [sp, #12]
    307c:	ab5c      	add	r3, sp, #368	; 0x170
    307e:	9302      	str	r3, [sp, #8]
    3080:	ab7c      	add	r3, sp, #496	; 0x1f0
    3082:	9301      	str	r3, [sp, #4]
    3084:	ab25      	add	r3, sp, #148	; 0x94
    3086:	9300      	str	r3, [sp, #0]
    3088:	002a      	movs	r2, r5
    308a:	ab21      	add	r3, sp, #132	; 0x84
    308c:	0021      	movs	r1, r4
    308e:	4640      	mov	r0, r8
    3090:	f7fe fd0e 	bl	0x1ab0
    3094:	6803      	ldr	r3, [r0, #0]
    3096:	9309      	str	r3, [sp, #36]	; 0x24
    3098:	e019      	b.n	0x30ce
    309a:	464a      	mov	r2, r9
    309c:	3201      	adds	r2, #1
    309e:	4599      	cmp	r9, r3
    30a0:	da03      	bge.n	0x30aa
    30a2:	00e4      	lsls	r4, r4, #3
    30a4:	ab7c      	add	r3, sp, #496	; 0x1f0
    30a6:	58e3      	ldr	r3, [r4, r3]
    30a8:	e00f      	b.n	0x30ca
    30aa:	9921      	ldr	r1, [sp, #132]	; 0x84
    30ac:	1d08      	adds	r0, r1, #4
    30ae:	2b1f      	cmp	r3, #31
    30b0:	dc09      	bgt.n	0x30c6
    30b2:	9021      	str	r0, [sp, #132]	; 0x84
    30b4:	6809      	ldr	r1, [r1, #0]
    30b6:	9109      	str	r1, [sp, #36]	; 0x24
    30b8:	9809      	ldr	r0, [sp, #36]	; 0x24
    30ba:	1c5c      	adds	r4, r3, #1
    30bc:	a97c      	add	r1, sp, #496	; 0x1f0
    30be:	00db      	lsls	r3, r3, #3
    30c0:	9425      	str	r4, [sp, #148]	; 0x94
    30c2:	5058      	str	r0, [r3, r1]
    30c4:	e002      	b.n	0x30cc
    30c6:	9021      	str	r0, [sp, #132]	; 0x84
    30c8:	680b      	ldr	r3, [r1, #0]
    30ca:	9309      	str	r3, [sp, #36]	; 0x24
    30cc:	4691      	mov	r9, r2
    30ce:	aa1a      	add	r2, sp, #104	; 0x68
    30d0:	4694      	mov	ip, r2
    30d2:	2327      	movs	r3, #39	; 0x27
    30d4:	2200      	movs	r2, #0
    30d6:	4463      	add	r3, ip
    30d8:	701a      	strb	r2, [r3, #0]
    30da:	9b09      	ldr	r3, [sp, #36]	; 0x24
    30dc:	4293      	cmp	r3, r2
    30de:	d10b      	bne.n	0x30f8
    30e0:	003c      	movs	r4, r7
    30e2:	2f06      	cmp	r7, #6
    30e4:	d900      	bls.n	0x30e8
    30e6:	2406      	movs	r4, #6
    30e8:	2300      	movs	r3, #0
    30ea:	9308      	str	r3, [sp, #32]
    30ec:	001f      	movs	r7, r3
    30ee:	001e      	movs	r6, r3
    30f0:	930d      	str	r3, [sp, #52]	; 0x34
    30f2:	001d      	movs	r5, r3
    30f4:	4b82      	ldr	r3, [pc, #520]	; (0x3300)
    30f6:	e3c2      	b.n	0x387e
    30f8:	9b0c      	ldr	r3, [sp, #48]	; 0x30
    30fa:	2b53      	cmp	r3, #83	; 0x53
    30fc:	d003      	beq.n	0x3106
    30fe:	2510      	movs	r5, #16
    3100:	4653      	mov	r3, sl
    3102:	401d      	ands	r5, r3
    3104:	d06b      	beq.n	0x31de
    3106:	9b09      	ldr	r3, [sp, #36]	; 0x24
    3108:	ad2e      	add	r5, sp, #184	; 0xb8
    310a:	2208      	movs	r2, #8
    310c:	2100      	movs	r1, #0
    310e:	0028      	movs	r0, r5
    3110:	9329      	str	r3, [sp, #164]	; 0xa4
    3112:	f002 ff4f 	bl	0x5fb4
    3116:	1c7b      	adds	r3, r7, #1
    3118:	d014      	beq.n	0x3144
    311a:	2600      	movs	r6, #0
    311c:	0034      	movs	r4, r6
    311e:	9b29      	ldr	r3, [sp, #164]	; 0xa4
    3120:	599a      	ldr	r2, [r3, r6]
    3122:	2a00      	cmp	r2, #0
    3124:	d01a      	beq.n	0x315c
    3126:	002b      	movs	r3, r5
    3128:	a943      	add	r1, sp, #268	; 0x10c
    312a:	4640      	mov	r0, r8
    312c:	f001 f8bc 	bl	0x42a8
    3130:	1c43      	adds	r3, r0, #1
    3132:	d01e      	beq.n	0x3172
    3134:	1820      	adds	r0, r4, r0
    3136:	42b8      	cmp	r0, r7
    3138:	dc10      	bgt.n	0x315c
    313a:	3604      	adds	r6, #4
    313c:	0004      	movs	r4, r0
    313e:	42b8      	cmp	r0, r7
    3140:	d1ed      	bne.n	0x311e
    3142:	e00b      	b.n	0x315c
    3144:	2300      	movs	r3, #0
    3146:	9500      	str	r5, [sp, #0]
    3148:	aa29      	add	r2, sp, #164	; 0xa4
    314a:	0019      	movs	r1, r3
    314c:	4640      	mov	r0, r8
    314e:	f001 f8ed 	bl	0x432c
    3152:	0004      	movs	r4, r0
    3154:	1c43      	adds	r3, r0, #1
    3156:	d00c      	beq.n	0x3172
    3158:	9b09      	ldr	r3, [sp, #36]	; 0x24
    315a:	9329      	str	r3, [sp, #164]	; 0xa4
    315c:	2c00      	cmp	r4, #0
    315e:	d038      	beq.n	0x31d2
    3160:	2c63      	cmp	r4, #99	; 0x63
    3162:	dd0e      	ble.n	0x3182
    3164:	1c61      	adds	r1, r4, #1
    3166:	4640      	mov	r0, r8
    3168:	f002 fae8 	bl	0x573c
    316c:	9009      	str	r0, [sp, #36]	; 0x24
    316e:	2800      	cmp	r0, #0
    3170:	d10c      	bne.n	0x318c
    3172:	9b0a      	ldr	r3, [sp, #40]	; 0x28
    3174:	899a      	ldrh	r2, [r3, #12]
    3176:	2340      	movs	r3, #64	; 0x40
    3178:	4313      	orrs	r3, r2
    317a:	9a0a      	ldr	r2, [sp, #40]	; 0x28
    317c:	8193      	strh	r3, [r2, #12]
    317e:	f001 f852 	bl	0x4226
    3182:	2300      	movs	r3, #0
    3184:	9308      	str	r3, [sp, #32]
    3186:	ab43      	add	r3, sp, #268	; 0x10c
    3188:	9309      	str	r3, [sp, #36]	; 0x24
    318a:	e001      	b.n	0x3190
    318c:	9b09      	ldr	r3, [sp, #36]	; 0x24
    318e:	9308      	str	r3, [sp, #32]
    3190:	ad2e      	add	r5, sp, #184	; 0xb8
    3192:	2208      	movs	r2, #8
    3194:	2100      	movs	r1, #0
    3196:	0028      	movs	r0, r5
    3198:	f002 ff0c 	bl	0x5fb4
    319c:	9500      	str	r5, [sp, #0]
    319e:	0023      	movs	r3, r4
    31a0:	aa29      	add	r2, sp, #164	; 0xa4
    31a2:	9909      	ldr	r1, [sp, #36]	; 0x24
    31a4:	4640      	mov	r0, r8
    31a6:	f001 f8c1 	bl	0x432c
    31aa:	4284      	cmp	r4, r0
    31ac:	d00a      	beq.n	0x31c4
    31ae:	9b08      	ldr	r3, [sp, #32]
    31b0:	469a      	mov	sl, r3
    31b2:	9b0a      	ldr	r3, [sp, #40]	; 0x28
    31b4:	899a      	ldrh	r2, [r3, #12]
    31b6:	2340      	movs	r3, #64	; 0x40
    31b8:	4313      	orrs	r3, r2
    31ba:	9a0a      	ldr	r2, [sp, #40]	; 0x28
    31bc:	46c3      	mov	fp, r8
    31be:	8193      	strh	r3, [r2, #12]
    31c0:	f001 f82a 	bl	0x4218
    31c4:	2700      	movs	r7, #0
    31c6:	9b09      	ldr	r3, [sp, #36]	; 0x24
    31c8:	003e      	movs	r6, r7
    31ca:	551f      	strb	r7, [r3, r4]
    31cc:	970d      	str	r7, [sp, #52]	; 0x34
    31ce:	003d      	movs	r5, r7
    31d0:	e35b      	b.n	0x388a
    31d2:	0027      	movs	r7, r4
    31d4:	0026      	movs	r6, r4
    31d6:	940d      	str	r4, [sp, #52]	; 0x34
    31d8:	0025      	movs	r5, r4
    31da:	9408      	str	r4, [sp, #32]
    31dc:	e355      	b.n	0x388a
    31de:	1c7b      	adds	r3, r7, #1
    31e0:	d00b      	beq.n	0x31fa
    31e2:	003a      	movs	r2, r7
    31e4:	0029      	movs	r1, r5
    31e6:	9809      	ldr	r0, [sp, #36]	; 0x24
    31e8:	f002 fea2 	bl	0x5f30
    31ec:	9008      	str	r0, [sp, #32]
    31ee:	2800      	cmp	r0, #0
    31f0:	d100      	bne.n	0x31f4
    31f2:	e346      	b.n	0x3882
    31f4:	9a09      	ldr	r2, [sp, #36]	; 0x24
    31f6:	1a84      	subs	r4, r0, r2
    31f8:	e003      	b.n	0x3202
    31fa:	9809      	ldr	r0, [sp, #36]	; 0x24
    31fc:	f003 fae4 	bl	0x67c8
    3200:	0004      	movs	r4, r0
    3202:	002f      	movs	r7, r5
    3204:	002e      	movs	r6, r5
    3206:	950d      	str	r5, [sp, #52]	; 0x34
    3208:	9508      	str	r5, [sp, #32]
    320a:	e33e      	b.n	0x388a
    320c:	9511      	str	r5, [sp, #68]	; 0x44
    320e:	464d      	mov	r5, r9
    3210:	46b1      	mov	r9, r6
    3212:	4656      	mov	r6, sl
    3214:	46a2      	mov	sl, r4
    3216:	9b08      	ldr	r3, [sp, #32]
    3218:	920c      	str	r2, [sp, #48]	; 0x30
    321a:	465c      	mov	r4, fp
    321c:	4652      	mov	r2, sl
    321e:	469b      	mov	fp, r3
    3220:	2310      	movs	r3, #16
    3222:	431a      	orrs	r2, r3
    3224:	4692      	mov	sl, r2
    3226:	e008      	b.n	0x323a
    3228:	9b08      	ldr	r3, [sp, #32]
    322a:	9511      	str	r5, [sp, #68]	; 0x44
    322c:	464d      	mov	r5, r9
    322e:	46b1      	mov	r9, r6
    3230:	4656      	mov	r6, sl
    3232:	46a2      	mov	sl, r4
    3234:	465c      	mov	r4, fp
    3236:	469b      	mov	fp, r3
    3238:	920c      	str	r2, [sp, #48]	; 0x30
    323a:	4653      	mov	r3, sl
    323c:	9a25      	ldr	r2, [sp, #148]	; 0x94
    323e:	069b      	lsls	r3, r3, #26
    3240:	d543      	bpl.n	0x32ca
    3242:	2e00      	cmp	r6, #0
    3244:	d01c      	beq.n	0x3280
    3246:	4294      	cmp	r4, r2
    3248:	da06      	bge.n	0x3258
    324a:	ab7c      	add	r3, sp, #496	; 0x1f0
    324c:	469c      	mov	ip, r3
    324e:	00e4      	lsls	r4, r4, #3
    3250:	4464      	add	r4, ip
    3252:	6823      	ldr	r3, [r4, #0]
    3254:	6864      	ldr	r4, [r4, #4]
    3256:	e00f      	b.n	0x3278
    3258:	ab26      	add	r3, sp, #152	; 0x98
    325a:	9303      	str	r3, [sp, #12]
    325c:	ab5c      	add	r3, sp, #368	; 0x170
    325e:	9302      	str	r3, [sp, #8]
    3260:	ab7c      	add	r3, sp, #496	; 0x1f0
    3262:	9301      	str	r3, [sp, #4]
    3264:	ab25      	add	r3, sp, #148	; 0x94
    3266:	9300      	str	r3, [sp, #0]
    3268:	0021      	movs	r1, r4
    326a:	ab21      	add	r3, sp, #132	; 0x84
    326c:	002a      	movs	r2, r5
    326e:	4640      	mov	r0, r8
    3270:	f7fe fc1e 	bl	0x1ab0
    3274:	6803      	ldr	r3, [r0, #0]
    3276:	6844      	ldr	r4, [r0, #4]
    3278:	9306      	str	r3, [sp, #24]
    327a:	9407      	str	r4, [sp, #28]
    327c:	464b      	mov	r3, r9
    327e:	e022      	b.n	0x32c6
    3280:	464b      	mov	r3, r9
    3282:	3301      	adds	r3, #1
    3284:	4591      	cmp	r9, r2
    3286:	da08      	bge.n	0x329a
    3288:	aa7c      	add	r2, sp, #496	; 0x1f0
    328a:	4694      	mov	ip, r2
    328c:	00e4      	lsls	r4, r4, #3
    328e:	4464      	add	r4, ip
    3290:	6821      	ldr	r1, [r4, #0]
    3292:	6862      	ldr	r2, [r4, #4]
    3294:	9106      	str	r1, [sp, #24]
    3296:	9207      	str	r2, [sp, #28]
    3298:	e015      	b.n	0x32c6
    329a:	2007      	movs	r0, #7
    329c:	9921      	ldr	r1, [sp, #132]	; 0x84
    329e:	3107      	adds	r1, #7
    32a0:	4381      	bics	r1, r0
    32a2:	c930      	ldmia	r1!, {r4, r5}
    32a4:	9406      	str	r4, [sp, #24]
    32a6:	9507      	str	r5, [sp, #28]
    32a8:	2a1f      	cmp	r2, #31
    32aa:	dc0b      	bgt.n	0x32c4
    32ac:	9121      	str	r1, [sp, #132]	; 0x84
    32ae:	a97c      	add	r1, sp, #496	; 0x1f0
    32b0:	1c50      	adds	r0, r2, #1
    32b2:	468c      	mov	ip, r1
    32b4:	9025      	str	r0, [sp, #148]	; 0x94
    32b6:	0029      	movs	r1, r5
    32b8:	0020      	movs	r0, r4
    32ba:	00d2      	lsls	r2, r2, #3
    32bc:	4462      	add	r2, ip
    32be:	6010      	str	r0, [r2, #0]
    32c0:	6051      	str	r1, [r2, #4]
    32c2:	e000      	b.n	0x32c6
    32c4:	9121      	str	r1, [sp, #132]	; 0x84
    32c6:	2201      	movs	r2, #1
    32c8:	e1ef      	b.n	0x36aa
    32ca:	4653      	mov	r3, sl
    32cc:	06db      	lsls	r3, r3, #27
    32ce:	d519      	bpl.n	0x3304
    32d0:	2e00      	cmp	r6, #0
    32d2:	d000      	beq.n	0x32d6
    32d4:	e088      	b.n	0x33e8
    32d6:	464b      	mov	r3, r9
    32d8:	3301      	adds	r3, #1
    32da:	4591      	cmp	r9, r2
    32dc:	da00      	bge.n	0x32e0
    32de:	e09e      	b.n	0x341e
    32e0:	9821      	ldr	r0, [sp, #132]	; 0x84
    32e2:	c802      	ldmia	r0!, {r1}
    32e4:	2a1f      	cmp	r2, #31
    32e6:	dc03      	bgt.n	0x32f0
    32e8:	1c54      	adds	r4, r2, #1
    32ea:	9425      	str	r4, [sp, #148]	; 0x94
    32ec:	9021      	str	r0, [sp, #132]	; 0x84
    32ee:	e0a2      	b.n	0x3436
    32f0:	9021      	str	r0, [sp, #132]	; 0x84
    32f2:	e0a6      	b.n	0x3442
    32f4:	fbff ffff 			; <UNDEFINED> instruction: 0xfbffffff
    32f8:	7830      	ldrb	r0, [r6, #0]
    32fa:	0000      	movs	r0, r0
    32fc:	7439      	strb	r1, [r7, #16]
    32fe:	0800      	lsrs	r0, r0, #32
    3300:	745b      	strb	r3, [r3, #17]
    3302:	0800      	lsrs	r0, r0, #32
    3304:	4653      	mov	r3, sl
    3306:	065b      	lsls	r3, r3, #25
    3308:	d533      	bpl.n	0x3372
    330a:	2e00      	cmp	r6, #0
    330c:	d017      	beq.n	0x333e
    330e:	4294      	cmp	r4, r2
    3310:	da03      	bge.n	0x331a
    3312:	00e4      	lsls	r4, r4, #3
    3314:	ab7c      	add	r3, sp, #496	; 0x1f0
    3316:	58e2      	ldr	r2, [r4, r3]
    3318:	e00e      	b.n	0x3338
    331a:	ab26      	add	r3, sp, #152	; 0x98
    331c:	9303      	str	r3, [sp, #12]
    331e:	ab5c      	add	r3, sp, #368	; 0x170
    3320:	9302      	str	r3, [sp, #8]
    3322:	ab7c      	add	r3, sp, #496	; 0x1f0
    3324:	9301      	str	r3, [sp, #4]
    3326:	ab25      	add	r3, sp, #148	; 0x94
    3328:	9300      	str	r3, [sp, #0]
    332a:	002a      	movs	r2, r5
    332c:	ab21      	add	r3, sp, #132	; 0x84
    332e:	0021      	movs	r1, r4
    3330:	4640      	mov	r0, r8
    3332:	f7fe fbbd 	bl	0x1ab0
    3336:	6802      	ldr	r2, [r0, #0]
    3338:	0412      	lsls	r2, r2, #16
    333a:	0c12      	lsrs	r2, r2, #16
    333c:	e035      	b.n	0x33aa
    333e:	464b      	mov	r3, r9
    3340:	3301      	adds	r3, #1
    3342:	4591      	cmp	r9, r2
    3344:	da03      	bge.n	0x334e
    3346:	00e4      	lsls	r4, r4, #3
    3348:	aa7c      	add	r2, sp, #496	; 0x1f0
    334a:	58a2      	ldr	r2, [r4, r2]
    334c:	e00e      	b.n	0x336c
    334e:	9921      	ldr	r1, [sp, #132]	; 0x84
    3350:	1d08      	adds	r0, r1, #4
    3352:	2a1f      	cmp	r2, #31
    3354:	dc08      	bgt.n	0x3368
    3356:	1c54      	adds	r4, r2, #1
    3358:	9425      	str	r4, [sp, #148]	; 0x94
    335a:	6809      	ldr	r1, [r1, #0]
    335c:	00d2      	lsls	r2, r2, #3
    335e:	9021      	str	r0, [sp, #132]	; 0x84
    3360:	a87c      	add	r0, sp, #496	; 0x1f0
    3362:	5011      	str	r1, [r2, r0]
    3364:	040a      	lsls	r2, r1, #16
    3366:	e002      	b.n	0x336e
    3368:	9021      	str	r0, [sp, #132]	; 0x84
    336a:	680a      	ldr	r2, [r1, #0]
    336c:	0412      	lsls	r2, r2, #16
    336e:	0c12      	lsrs	r2, r2, #16
    3370:	e036      	b.n	0x33e0
    3372:	4653      	mov	r3, sl
    3374:	059b      	lsls	r3, r3, #22
    3376:	d535      	bpl.n	0x33e4
    3378:	2e00      	cmp	r6, #0
    337a:	d018      	beq.n	0x33ae
    337c:	4294      	cmp	r4, r2
    337e:	da03      	bge.n	0x3388
    3380:	00e4      	lsls	r4, r4, #3
    3382:	ab7c      	add	r3, sp, #496	; 0x1f0
    3384:	58e2      	ldr	r2, [r4, r3]
    3386:	e00e      	b.n	0x33a6
    3388:	ab26      	add	r3, sp, #152	; 0x98
    338a:	9303      	str	r3, [sp, #12]
    338c:	ab5c      	add	r3, sp, #368	; 0x170
    338e:	9302      	str	r3, [sp, #8]
    3390:	ab7c      	add	r3, sp, #496	; 0x1f0
    3392:	9301      	str	r3, [sp, #4]
    3394:	ab25      	add	r3, sp, #148	; 0x94
    3396:	9300      	str	r3, [sp, #0]
    3398:	002a      	movs	r2, r5
    339a:	ab21      	add	r3, sp, #132	; 0x84
    339c:	0021      	movs	r1, r4
    339e:	4640      	mov	r0, r8
    33a0:	f7fe fb86 	bl	0x1ab0
    33a4:	6802      	ldr	r2, [r0, #0]
    33a6:	0612      	lsls	r2, r2, #24
    33a8:	0e12      	lsrs	r2, r2, #24
    33aa:	464b      	mov	r3, r9
    33ac:	e018      	b.n	0x33e0
    33ae:	464b      	mov	r3, r9
    33b0:	3301      	adds	r3, #1
    33b2:	4591      	cmp	r9, r2
    33b4:	da03      	bge.n	0x33be
    33b6:	00e4      	lsls	r4, r4, #3
    33b8:	aa7c      	add	r2, sp, #496	; 0x1f0
    33ba:	58a2      	ldr	r2, [r4, r2]
    33bc:	e00e      	b.n	0x33dc
    33be:	9921      	ldr	r1, [sp, #132]	; 0x84
    33c0:	1d08      	adds	r0, r1, #4
    33c2:	2a1f      	cmp	r2, #31
    33c4:	dc08      	bgt.n	0x33d8
    33c6:	1c54      	adds	r4, r2, #1
    33c8:	9425      	str	r4, [sp, #148]	; 0x94
    33ca:	6809      	ldr	r1, [r1, #0]
    33cc:	00d2      	lsls	r2, r2, #3
    33ce:	9021      	str	r0, [sp, #132]	; 0x84
    33d0:	a87c      	add	r0, sp, #496	; 0x1f0
    33d2:	5011      	str	r1, [r2, r0]
    33d4:	060a      	lsls	r2, r1, #24
    33d6:	e002      	b.n	0x33de
    33d8:	9021      	str	r0, [sp, #132]	; 0x84
    33da:	680a      	ldr	r2, [r1, #0]
    33dc:	0612      	lsls	r2, r2, #24
    33de:	0e12      	lsrs	r2, r2, #24
    33e0:	9206      	str	r2, [sp, #24]
    33e2:	e02f      	b.n	0x3444
    33e4:	2e00      	cmp	r6, #0
    33e6:	d016      	beq.n	0x3416
    33e8:	4294      	cmp	r4, r2
    33ea:	da03      	bge.n	0x33f4
    33ec:	00e4      	lsls	r4, r4, #3
    33ee:	ab7c      	add	r3, sp, #496	; 0x1f0
    33f0:	58e1      	ldr	r1, [r4, r3]
    33f2:	e00e      	b.n	0x3412
    33f4:	ab26      	add	r3, sp, #152	; 0x98
    33f6:	9303      	str	r3, [sp, #12]
    33f8:	ab5c      	add	r3, sp, #368	; 0x170
    33fa:	9302      	str	r3, [sp, #8]
    33fc:	ab7c      	add	r3, sp, #496	; 0x1f0
    33fe:	9301      	str	r3, [sp, #4]
    3400:	ab25      	add	r3, sp, #148	; 0x94
    3402:	9300      	str	r3, [sp, #0]
    3404:	0021      	movs	r1, r4
    3406:	ab21      	add	r3, sp, #132	; 0x84
    3408:	002a      	movs	r2, r5
    340a:	4640      	mov	r0, r8
    340c:	f7fe fb50 	bl	0x1ab0
    3410:	6801      	ldr	r1, [r0, #0]
    3412:	464b      	mov	r3, r9
    3414:	e015      	b.n	0x3442
    3416:	464b      	mov	r3, r9
    3418:	3301      	adds	r3, #1
    341a:	4591      	cmp	r9, r2
    341c:	da03      	bge.n	0x3426
    341e:	00e4      	lsls	r4, r4, #3
    3420:	aa7c      	add	r2, sp, #496	; 0x1f0
    3422:	58a1      	ldr	r1, [r4, r2]
    3424:	e00d      	b.n	0x3442
    3426:	9921      	ldr	r1, [sp, #132]	; 0x84
    3428:	1d08      	adds	r0, r1, #4
    342a:	2a1f      	cmp	r2, #31
    342c:	dc07      	bgt.n	0x343e
    342e:	1c54      	adds	r4, r2, #1
    3430:	9425      	str	r4, [sp, #148]	; 0x94
    3432:	9021      	str	r0, [sp, #132]	; 0x84
    3434:	6809      	ldr	r1, [r1, #0]
    3436:	00d2      	lsls	r2, r2, #3
    3438:	a87c      	add	r0, sp, #496	; 0x1f0
    343a:	5011      	str	r1, [r2, r0]
    343c:	e001      	b.n	0x3442
    343e:	9021      	str	r0, [sp, #132]	; 0x84
    3440:	6809      	ldr	r1, [r1, #0]
    3442:	9106      	str	r1, [sp, #24]
    3444:	2200      	movs	r2, #0
    3446:	9207      	str	r2, [sp, #28]
    3448:	3201      	adds	r2, #1
    344a:	e12e      	b.n	0x36aa
    344c:	9b08      	ldr	r3, [sp, #32]
    344e:	9511      	str	r5, [sp, #68]	; 0x44
    3450:	920c      	str	r2, [sp, #48]	; 0x30
    3452:	464d      	mov	r5, r9
    3454:	46b1      	mov	r9, r6
    3456:	4656      	mov	r6, sl
    3458:	46a2      	mov	sl, r4
    345a:	465c      	mov	r4, fp
    345c:	469b      	mov	fp, r3
    345e:	4bbb      	ldr	r3, [pc, #748]	; (0x374c)
    3460:	e009      	b.n	0x3476
    3462:	9b08      	ldr	r3, [sp, #32]
    3464:	9511      	str	r5, [sp, #68]	; 0x44
    3466:	920c      	str	r2, [sp, #48]	; 0x30
    3468:	464d      	mov	r5, r9
    346a:	46b1      	mov	r9, r6
    346c:	4656      	mov	r6, sl
    346e:	46a2      	mov	sl, r4
    3470:	465c      	mov	r4, fp
    3472:	469b      	mov	fp, r3
    3474:	4bb6      	ldr	r3, [pc, #728]	; (0x3750)
    3476:	931b      	str	r3, [sp, #108]	; 0x6c
    3478:	4653      	mov	r3, sl
    347a:	9a25      	ldr	r2, [sp, #148]	; 0x94
    347c:	069b      	lsls	r3, r3, #26
    347e:	d542      	bpl.n	0x3506
    3480:	2e00      	cmp	r6, #0
    3482:	d01c      	beq.n	0x34be
    3484:	4294      	cmp	r4, r2
    3486:	da06      	bge.n	0x3496
    3488:	ab7c      	add	r3, sp, #496	; 0x1f0
    348a:	469c      	mov	ip, r3
    348c:	00e4      	lsls	r4, r4, #3
    348e:	4464      	add	r4, ip
    3490:	6823      	ldr	r3, [r4, #0]
    3492:	6864      	ldr	r4, [r4, #4]
    3494:	e00f      	b.n	0x34b6
    3496:	ab26      	add	r3, sp, #152	; 0x98
    3498:	9303      	str	r3, [sp, #12]
    349a:	ab5c      	add	r3, sp, #368	; 0x170
    349c:	9302      	str	r3, [sp, #8]
    349e:	ab7c      	add	r3, sp, #496	; 0x1f0
    34a0:	9301      	str	r3, [sp, #4]
    34a2:	ab25      	add	r3, sp, #148	; 0x94
    34a4:	9300      	str	r3, [sp, #0]
    34a6:	0021      	movs	r1, r4
    34a8:	ab21      	add	r3, sp, #132	; 0x84
    34aa:	002a      	movs	r2, r5
    34ac:	4640      	mov	r0, r8
    34ae:	f7fe faff 	bl	0x1ab0
    34b2:	6803      	ldr	r3, [r0, #0]
    34b4:	6844      	ldr	r4, [r0, #4]
    34b6:	9306      	str	r3, [sp, #24]
    34b8:	9407      	str	r4, [sp, #28]
    34ba:	464b      	mov	r3, r9
    34bc:	e0da      	b.n	0x3674
    34be:	464b      	mov	r3, r9
    34c0:	3301      	adds	r3, #1
    34c2:	4591      	cmp	r9, r2
    34c4:	da08      	bge.n	0x34d8
    34c6:	aa7c      	add	r2, sp, #496	; 0x1f0
    34c8:	4694      	mov	ip, r2
    34ca:	00e4      	lsls	r4, r4, #3
    34cc:	4464      	add	r4, ip
    34ce:	6821      	ldr	r1, [r4, #0]
    34d0:	6862      	ldr	r2, [r4, #4]
    34d2:	9106      	str	r1, [sp, #24]
    34d4:	9207      	str	r2, [sp, #28]
    34d6:	e0cd      	b.n	0x3674
    34d8:	2007      	movs	r0, #7
    34da:	9921      	ldr	r1, [sp, #132]	; 0x84
    34dc:	3107      	adds	r1, #7
    34de:	4381      	bics	r1, r0
    34e0:	c930      	ldmia	r1!, {r4, r5}
    34e2:	9406      	str	r4, [sp, #24]
    34e4:	9507      	str	r5, [sp, #28]
    34e6:	2a1f      	cmp	r2, #31
    34e8:	dc0b      	bgt.n	0x3502
    34ea:	9121      	str	r1, [sp, #132]	; 0x84
    34ec:	a97c      	add	r1, sp, #496	; 0x1f0
    34ee:	1c50      	adds	r0, r2, #1
    34f0:	468c      	mov	ip, r1
    34f2:	9025      	str	r0, [sp, #148]	; 0x94
    34f4:	0029      	movs	r1, r5
    34f6:	0020      	movs	r0, r4
    34f8:	00d2      	lsls	r2, r2, #3
    34fa:	4462      	add	r2, ip
    34fc:	6010      	str	r0, [r2, #0]
    34fe:	6051      	str	r1, [r2, #4]
    3500:	e0b8      	b.n	0x3674
    3502:	9121      	str	r1, [sp, #132]	; 0x84
    3504:	e0b6      	b.n	0x3674
    3506:	4653      	mov	r3, sl
    3508:	06db      	lsls	r3, r3, #27
    350a:	d511      	bpl.n	0x3530
    350c:	2e00      	cmp	r6, #0
    350e:	d000      	beq.n	0x3512
    3510:	e080      	b.n	0x3614
    3512:	464b      	mov	r3, r9
    3514:	3301      	adds	r3, #1
    3516:	4591      	cmp	r9, r2
    3518:	da00      	bge.n	0x351c
    351a:	e096      	b.n	0x364a
    351c:	9821      	ldr	r0, [sp, #132]	; 0x84
    351e:	c802      	ldmia	r0!, {r1}
    3520:	2a1f      	cmp	r2, #31
    3522:	dc03      	bgt.n	0x352c
    3524:	1c54      	adds	r4, r2, #1
    3526:	9425      	str	r4, [sp, #148]	; 0x94
    3528:	9021      	str	r0, [sp, #132]	; 0x84
    352a:	e09a      	b.n	0x3662
    352c:	9021      	str	r0, [sp, #132]	; 0x84
    352e:	e09e      	b.n	0x366e
    3530:	4653      	mov	r3, sl
    3532:	065b      	lsls	r3, r3, #25
    3534:	d533      	bpl.n	0x359e
    3536:	2e00      	cmp	r6, #0
    3538:	d017      	beq.n	0x356a
    353a:	4294      	cmp	r4, r2
    353c:	da03      	bge.n	0x3546
    353e:	00e4      	lsls	r4, r4, #3
    3540:	ab7c      	add	r3, sp, #496	; 0x1f0
    3542:	58e2      	ldr	r2, [r4, r3]
    3544:	e00e      	b.n	0x3564
    3546:	ab26      	add	r3, sp, #152	; 0x98
    3548:	9303      	str	r3, [sp, #12]
    354a:	ab5c      	add	r3, sp, #368	; 0x170
    354c:	9302      	str	r3, [sp, #8]
    354e:	ab7c      	add	r3, sp, #496	; 0x1f0
    3550:	9301      	str	r3, [sp, #4]
    3552:	ab25      	add	r3, sp, #148	; 0x94
    3554:	9300      	str	r3, [sp, #0]
    3556:	002a      	movs	r2, r5
    3558:	ab21      	add	r3, sp, #132	; 0x84
    355a:	0021      	movs	r1, r4
    355c:	4640      	mov	r0, r8
    355e:	f7fe faa7 	bl	0x1ab0
    3562:	6802      	ldr	r2, [r0, #0]
    3564:	0412      	lsls	r2, r2, #16
    3566:	0c12      	lsrs	r2, r2, #16
    3568:	e035      	b.n	0x35d6
    356a:	464b      	mov	r3, r9
    356c:	3301      	adds	r3, #1
    356e:	4591      	cmp	r9, r2
    3570:	da03      	bge.n	0x357a
    3572:	00e4      	lsls	r4, r4, #3
    3574:	aa7c      	add	r2, sp, #496	; 0x1f0
    3576:	58a2      	ldr	r2, [r4, r2]
    3578:	e00e      	b.n	0x3598
    357a:	9921      	ldr	r1, [sp, #132]	; 0x84
    357c:	1d08      	adds	r0, r1, #4
    357e:	2a1f      	cmp	r2, #31
    3580:	dc08      	bgt.n	0x3594
    3582:	1c54      	adds	r4, r2, #1
    3584:	9425      	str	r4, [sp, #148]	; 0x94
    3586:	6809      	ldr	r1, [r1, #0]
    3588:	00d2      	lsls	r2, r2, #3
    358a:	9021      	str	r0, [sp, #132]	; 0x84
    358c:	a87c      	add	r0, sp, #496	; 0x1f0
    358e:	5011      	str	r1, [r2, r0]
    3590:	040a      	lsls	r2, r1, #16
    3592:	e002      	b.n	0x359a
    3594:	9021      	str	r0, [sp, #132]	; 0x84
    3596:	680a      	ldr	r2, [r1, #0]
    3598:	0412      	lsls	r2, r2, #16
    359a:	0c12      	lsrs	r2, r2, #16
    359c:	e036      	b.n	0x360c
    359e:	4653      	mov	r3, sl
    35a0:	059b      	lsls	r3, r3, #22
    35a2:	d535      	bpl.n	0x3610
    35a4:	2e00      	cmp	r6, #0
    35a6:	d018      	beq.n	0x35da
    35a8:	4294      	cmp	r4, r2
    35aa:	da03      	bge.n	0x35b4
    35ac:	00e4      	lsls	r4, r4, #3
    35ae:	ab7c      	add	r3, sp, #496	; 0x1f0
    35b0:	58e2      	ldr	r2, [r4, r3]
    35b2:	e00e      	b.n	0x35d2
    35b4:	ab26      	add	r3, sp, #152	; 0x98
    35b6:	9303      	str	r3, [sp, #12]
    35b8:	ab5c      	add	r3, sp, #368	; 0x170
    35ba:	9302      	str	r3, [sp, #8]
    35bc:	ab7c      	add	r3, sp, #496	; 0x1f0
    35be:	9301      	str	r3, [sp, #4]
    35c0:	ab25      	add	r3, sp, #148	; 0x94
    35c2:	9300      	str	r3, [sp, #0]
    35c4:	002a      	movs	r2, r5
    35c6:	ab21      	add	r3, sp, #132	; 0x84
    35c8:	0021      	movs	r1, r4
    35ca:	4640      	mov	r0, r8
    35cc:	f7fe fa70 	bl	0x1ab0
    35d0:	6802      	ldr	r2, [r0, #0]
    35d2:	0612      	lsls	r2, r2, #24
    35d4:	0e12      	lsrs	r2, r2, #24
    35d6:	464b      	mov	r3, r9
    35d8:	e018      	b.n	0x360c
    35da:	464b      	mov	r3, r9
    35dc:	3301      	adds	r3, #1
    35de:	4591      	cmp	r9, r2
    35e0:	da03      	bge.n	0x35ea
    35e2:	00e4      	lsls	r4, r4, #3
    35e4:	aa7c      	add	r2, sp, #496	; 0x1f0
    35e6:	58a2      	ldr	r2, [r4, r2]
    35e8:	e00e      	b.n	0x3608
    35ea:	9921      	ldr	r1, [sp, #132]	; 0x84
    35ec:	1d08      	adds	r0, r1, #4
    35ee:	2a1f      	cmp	r2, #31
    35f0:	dc08      	bgt.n	0x3604
    35f2:	1c54      	adds	r4, r2, #1
    35f4:	9425      	str	r4, [sp, #148]	; 0x94
    35f6:	6809      	ldr	r1, [r1, #0]
    35f8:	00d2      	lsls	r2, r2, #3
    35fa:	9021      	str	r0, [sp, #132]	; 0x84
    35fc:	a87c      	add	r0, sp, #496	; 0x1f0
    35fe:	5011      	str	r1, [r2, r0]
    3600:	060a      	lsls	r2, r1, #24
    3602:	e002      	b.n	0x360a
    3604:	9021      	str	r0, [sp, #132]	; 0x84
    3606:	680a      	ldr	r2, [r1, #0]
    3608:	0612      	lsls	r2, r2, #24
    360a:	0e12      	lsrs	r2, r2, #24
    360c:	9206      	str	r2, [sp, #24]
    360e:	e02f      	b.n	0x3670
    3610:	2e00      	cmp	r6, #0
    3612:	d016      	beq.n	0x3642
    3614:	4294      	cmp	r4, r2
    3616:	da03      	bge.n	0x3620
    3618:	00e4      	lsls	r4, r4, #3
    361a:	ab7c      	add	r3, sp, #496	; 0x1f0
    361c:	58e1      	ldr	r1, [r4, r3]
    361e:	e00e      	b.n	0x363e
    3620:	ab26      	add	r3, sp, #152	; 0x98
    3622:	9303      	str	r3, [sp, #12]
    3624:	ab5c      	add	r3, sp, #368	; 0x170
    3626:	9302      	str	r3, [sp, #8]
    3628:	ab7c      	add	r3, sp, #496	; 0x1f0
    362a:	9301      	str	r3, [sp, #4]
    362c:	ab25      	add	r3, sp, #148	; 0x94
    362e:	9300      	str	r3, [sp, #0]
    3630:	0021      	movs	r1, r4
    3632:	ab21      	add	r3, sp, #132	; 0x84
    3634:	002a      	movs	r2, r5
    3636:	4640      	mov	r0, r8
    3638:	f7fe fa3a 	bl	0x1ab0
    363c:	6801      	ldr	r1, [r0, #0]
    363e:	464b      	mov	r3, r9
    3640:	e015      	b.n	0x366e
    3642:	464b      	mov	r3, r9
    3644:	3301      	adds	r3, #1
    3646:	4591      	cmp	r9, r2
    3648:	da03      	bge.n	0x3652
    364a:	00e4      	lsls	r4, r4, #3
    364c:	aa7c      	add	r2, sp, #496	; 0x1f0
    364e:	58a1      	ldr	r1, [r4, r2]
    3650:	e00d      	b.n	0x366e
    3652:	9921      	ldr	r1, [sp, #132]	; 0x84
    3654:	1d08      	adds	r0, r1, #4
    3656:	2a1f      	cmp	r2, #31
    3658:	dc07      	bgt.n	0x366a
    365a:	1c54      	adds	r4, r2, #1
    365c:	9425      	str	r4, [sp, #148]	; 0x94
    365e:	9021      	str	r0, [sp, #132]	; 0x84
    3660:	6809      	ldr	r1, [r1, #0]
    3662:	00d2      	lsls	r2, r2, #3
    3664:	a87c      	add	r0, sp, #496	; 0x1f0
    3666:	5011      	str	r1, [r2, r0]
    3668:	e001      	b.n	0x366e
    366a:	9021      	str	r0, [sp, #132]	; 0x84
    366c:	6809      	ldr	r1, [r1, #0]
    366e:	9106      	str	r1, [sp, #24]
    3670:	2200      	movs	r2, #0
    3672:	9207      	str	r2, [sp, #28]
    3674:	4652      	mov	r2, sl
    3676:	2101      	movs	r1, #1
    3678:	420a      	tst	r2, r1
    367a:	d011      	beq.n	0x36a0
    367c:	9a06      	ldr	r2, [sp, #24]
    367e:	9907      	ldr	r1, [sp, #28]
    3680:	430a      	orrs	r2, r1
    3682:	d00d      	beq.n	0x36a0
    3684:	2028      	movs	r0, #40	; 0x28
    3686:	2230      	movs	r2, #48	; 0x30
    3688:	a91a      	add	r1, sp, #104	; 0x68
    368a:	1809      	adds	r1, r1, r0
    368c:	700a      	strb	r2, [r1, #0]
    368e:	2129      	movs	r1, #41	; 0x29
    3690:	aa1a      	add	r2, sp, #104	; 0x68
    3692:	1852      	adds	r2, r2, r1
    3694:	990c      	ldr	r1, [sp, #48]	; 0x30
    3696:	7011      	strb	r1, [r2, #0]
    3698:	4651      	mov	r1, sl
    369a:	2202      	movs	r2, #2
    369c:	4311      	orrs	r1, r2
    369e:	468a      	mov	sl, r1
    36a0:	4651      	mov	r1, sl
    36a2:	4a2c      	ldr	r2, [pc, #176]	; (0x3754)
    36a4:	4011      	ands	r1, r2
    36a6:	468a      	mov	sl, r1
    36a8:	2202      	movs	r2, #2
    36aa:	a81a      	add	r0, sp, #104	; 0x68
    36ac:	4684      	mov	ip, r0
    36ae:	2127      	movs	r1, #39	; 0x27
    36b0:	2000      	movs	r0, #0
    36b2:	4699      	mov	r9, r3
    36b4:	4461      	add	r1, ip
    36b6:	7008      	strb	r0, [r1, #0]
    36b8:	1c7b      	adds	r3, r7, #1
    36ba:	d012      	beq.n	0x36e2
    36bc:	4653      	mov	r3, sl
    36be:	e003      	b.n	0x36c8
    36c0:	1c7b      	adds	r3, r7, #1
    36c2:	d034      	beq.n	0x372e
    36c4:	4653      	mov	r3, sl
    36c6:	2201      	movs	r2, #1
    36c8:	2180      	movs	r1, #128	; 0x80
    36ca:	4650      	mov	r0, sl
    36cc:	4388      	bics	r0, r1
    36ce:	4682      	mov	sl, r0
    36d0:	9906      	ldr	r1, [sp, #24]
    36d2:	9807      	ldr	r0, [sp, #28]
    36d4:	4301      	orrs	r1, r0
    36d6:	d104      	bne.n	0x36e2
    36d8:	2f00      	cmp	r7, #0
    36da:	d100      	bne.n	0x36de
    36dc:	e09f      	b.n	0x381e
    36de:	f000 fdcb 	bl	0x4278
    36e2:	2a01      	cmp	r2, #1
    36e4:	d023      	beq.n	0x372e
    36e6:	ab5c      	add	r3, sp, #368	; 0x170
    36e8:	2a02      	cmp	r2, #2
    36ea:	d100      	bne.n	0x36ee
    36ec:	e07e      	b.n	0x37ec
    36ee:	9c06      	ldr	r4, [sp, #24]
    36f0:	9d07      	ldr	r5, [sp, #28]
    36f2:	1e5a      	subs	r2, r3, #1
    36f4:	9209      	str	r2, [sp, #36]	; 0x24
    36f6:	2207      	movs	r2, #7
    36f8:	4022      	ands	r2, r4
    36fa:	1e59      	subs	r1, r3, #1
    36fc:	3230      	adds	r2, #48	; 0x30
    36fe:	08e6      	lsrs	r6, r4, #3
    3700:	700a      	strb	r2, [r1, #0]
    3702:	0769      	lsls	r1, r5, #29
    3704:	08e8      	lsrs	r0, r5, #3
    3706:	4331      	orrs	r1, r6
    3708:	0005      	movs	r5, r0
    370a:	0008      	movs	r0, r1
    370c:	000c      	movs	r4, r1
    370e:	4328      	orrs	r0, r5
    3710:	d001      	beq.n	0x3716
    3712:	9b09      	ldr	r3, [sp, #36]	; 0x24
    3714:	e7ed      	b.n	0x36f2
    3716:	4651      	mov	r1, sl
    3718:	3001      	adds	r0, #1
    371a:	9406      	str	r4, [sp, #24]
    371c:	9507      	str	r5, [sp, #28]
    371e:	4201      	tst	r1, r0
    3720:	d100      	bne.n	0x3724
    3722:	e08b      	b.n	0x383c
    3724:	3b02      	subs	r3, #2
    3726:	2a30      	cmp	r2, #48	; 0x30
    3728:	d000      	beq.n	0x372c
    372a:	e084      	b.n	0x3836
    372c:	e086      	b.n	0x383c
    372e:	9b07      	ldr	r3, [sp, #28]
    3730:	2b00      	cmp	r3, #0
    3732:	d111      	bne.n	0x3758
    3734:	9b06      	ldr	r3, [sp, #24]
    3736:	2b09      	cmp	r3, #9
    3738:	d80e      	bhi.n	0x3758
    373a:	aa1a      	add	r2, sp, #104	; 0x68
    373c:	2308      	movs	r3, #8
    373e:	4694      	mov	ip, r2
    3740:	9a06      	ldr	r2, [sp, #24]
    3742:	33ff      	adds	r3, #255	; 0xff
    3744:	4463      	add	r3, ip
    3746:	3230      	adds	r2, #48	; 0x30
    3748:	e076      	b.n	0x3838
    374a:	46c0      	nop			; (mov r8, r8)
    374c:	744a      	strb	r2, [r1, #17]
    374e:	0800      	lsrs	r0, r0, #32
    3750:	7439      	strb	r1, [r7, #16]
    3752:	0800      	lsrs	r0, r0, #32
    3754:	fbff ffff 			; <UNDEFINED> instruction: 0xfbffffff
    3758:	2480      	movs	r4, #128	; 0x80
    375a:	2300      	movs	r3, #0
    375c:	4652      	mov	r2, sl
    375e:	00e4      	lsls	r4, r4, #3
    3760:	003d      	movs	r5, r7
    3762:	9e06      	ldr	r6, [sp, #24]
    3764:	9f07      	ldr	r7, [sp, #28]
    3766:	930b      	str	r3, [sp, #44]	; 0x2c
    3768:	4014      	ands	r4, r2
    376a:	ab5c      	add	r3, sp, #368	; 0x170
    376c:	3b01      	subs	r3, #1
    376e:	9309      	str	r3, [sp, #36]	; 0x24
    3770:	220a      	movs	r2, #10
    3772:	2300      	movs	r3, #0
    3774:	0030      	movs	r0, r6
    3776:	0039      	movs	r1, r7
    3778:	f003 fdc8 	bl	0x730c
    377c:	9b09      	ldr	r3, [sp, #36]	; 0x24
    377e:	3230      	adds	r2, #48	; 0x30
    3780:	701a      	strb	r2, [r3, #0]
    3782:	9b0b      	ldr	r3, [sp, #44]	; 0x2c
    3784:	3301      	adds	r3, #1
    3786:	930b      	str	r3, [sp, #44]	; 0x2c
    3788:	2c00      	cmp	r4, #0
    378a:	d01d      	beq.n	0x37c8
    378c:	9b12      	ldr	r3, [sp, #72]	; 0x48
    378e:	9a0b      	ldr	r2, [sp, #44]	; 0x2c
    3790:	781b      	ldrb	r3, [r3, #0]
    3792:	429a      	cmp	r2, r3
    3794:	d118      	bne.n	0x37c8
    3796:	2aff      	cmp	r2, #255	; 0xff
    3798:	d016      	beq.n	0x37c8
    379a:	2f00      	cmp	r7, #0
    379c:	d101      	bne.n	0x37a2
    379e:	2e09      	cmp	r6, #9
    37a0:	d912      	bls.n	0x37c8
    37a2:	9b09      	ldr	r3, [sp, #36]	; 0x24
    37a4:	9a16      	ldr	r2, [sp, #88]	; 0x58
    37a6:	1a9b      	subs	r3, r3, r2
    37a8:	0018      	movs	r0, r3
    37aa:	9919      	ldr	r1, [sp, #100]	; 0x64
    37ac:	9309      	str	r3, [sp, #36]	; 0x24
    37ae:	f003 f841 	bl	0x6834
    37b2:	2200      	movs	r2, #0
    37b4:	9b12      	ldr	r3, [sp, #72]	; 0x48
    37b6:	785b      	ldrb	r3, [r3, #1]
    37b8:	920b      	str	r2, [sp, #44]	; 0x2c
    37ba:	1e5a      	subs	r2, r3, #1
    37bc:	4193      	sbcs	r3, r2
    37be:	9a12      	ldr	r2, [sp, #72]	; 0x48
    37c0:	4694      	mov	ip, r2
    37c2:	449c      	add	ip, r3
    37c4:	4663      	mov	r3, ip
    37c6:	9312      	str	r3, [sp, #72]	; 0x48
    37c8:	220a      	movs	r2, #10
    37ca:	2300      	movs	r3, #0
    37cc:	0030      	movs	r0, r6
    37ce:	0039      	movs	r1, r7
    37d0:	f003 fd9c 	bl	0x730c
    37d4:	2f00      	cmp	r7, #0
    37d6:	d003      	beq.n	0x37e0
    37d8:	0006      	movs	r6, r0
    37da:	000f      	movs	r7, r1
    37dc:	9b09      	ldr	r3, [sp, #36]	; 0x24
    37de:	e7c5      	b.n	0x376c
    37e0:	2e09      	cmp	r6, #9
    37e2:	d8f9      	bhi.n	0x37d8
    37e4:	9606      	str	r6, [sp, #24]
    37e6:	9707      	str	r7, [sp, #28]
    37e8:	002f      	movs	r7, r5
    37ea:	e027      	b.n	0x383c
    37ec:	9309      	str	r3, [sp, #36]	; 0x24
    37ee:	230f      	movs	r3, #15
    37f0:	9806      	ldr	r0, [sp, #24]
    37f2:	9907      	ldr	r1, [sp, #28]
    37f4:	9a09      	ldr	r2, [sp, #36]	; 0x24
    37f6:	3a01      	subs	r2, #1
    37f8:	9209      	str	r2, [sp, #36]	; 0x24
    37fa:	0002      	movs	r2, r0
    37fc:	9c1b      	ldr	r4, [sp, #108]	; 0x6c
    37fe:	401a      	ands	r2, r3
    3800:	5ca2      	ldrb	r2, [r4, r2]
    3802:	9c09      	ldr	r4, [sp, #36]	; 0x24
    3804:	070d      	lsls	r5, r1, #28
    3806:	7022      	strb	r2, [r4, #0]
    3808:	0904      	lsrs	r4, r0, #4
    380a:	090a      	lsrs	r2, r1, #4
    380c:	4325      	orrs	r5, r4
    380e:	0011      	movs	r1, r2
    3810:	002a      	movs	r2, r5
    3812:	0028      	movs	r0, r5
    3814:	430a      	orrs	r2, r1
    3816:	d1ed      	bne.n	0x37f4
    3818:	9006      	str	r0, [sp, #24]
    381a:	9107      	str	r1, [sp, #28]
    381c:	e00e      	b.n	0x383c
    381e:	a95c      	add	r1, sp, #368	; 0x170
    3820:	9109      	str	r1, [sp, #36]	; 0x24
    3822:	2a00      	cmp	r2, #0
    3824:	d10a      	bne.n	0x383c
    3826:	3201      	adds	r2, #1
    3828:	4213      	tst	r3, r2
    382a:	d007      	beq.n	0x383c
    382c:	2308      	movs	r3, #8
    382e:	aa1a      	add	r2, sp, #104	; 0x68
    3830:	4694      	mov	ip, r2
    3832:	33ff      	adds	r3, #255	; 0xff
    3834:	4463      	add	r3, ip
    3836:	2230      	movs	r2, #48	; 0x30
    3838:	701a      	strb	r2, [r3, #0]
    383a:	9309      	str	r3, [sp, #36]	; 0x24
    383c:	9b09      	ldr	r3, [sp, #36]	; 0x24
    383e:	ac5c      	add	r4, sp, #368	; 0x170
    3840:	1ae4      	subs	r4, r4, r3
    3842:	2300      	movs	r3, #0
    3844:	001e      	movs	r6, r3
    3846:	9308      	str	r3, [sp, #32]
    3848:	930d      	str	r3, [sp, #52]	; 0x34
    384a:	001d      	movs	r5, r3
    384c:	e01d      	b.n	0x388a
    384e:	9b08      	ldr	r3, [sp, #32]
    3850:	9511      	str	r5, [sp, #68]	; 0x44
    3852:	46a2      	mov	sl, r4
    3854:	920c      	str	r2, [sp, #48]	; 0x30
    3856:	469b      	mov	fp, r3
    3858:	46b1      	mov	r9, r6
    385a:	2a00      	cmp	r2, #0
    385c:	d101      	bne.n	0x3862
    385e:	f000 fcca 	bl	0x41f6
    3862:	2000      	movs	r0, #0
    3864:	ab43      	add	r3, sp, #268	; 0x10c
    3866:	a91a      	add	r1, sp, #104	; 0x68
    3868:	701a      	strb	r2, [r3, #0]
    386a:	468c      	mov	ip, r1
    386c:	2227      	movs	r2, #39	; 0x27
    386e:	2401      	movs	r4, #1
    3870:	0007      	movs	r7, r0
    3872:	0006      	movs	r6, r0
    3874:	0005      	movs	r5, r0
    3876:	4462      	add	r2, ip
    3878:	7010      	strb	r0, [r2, #0]
    387a:	9008      	str	r0, [sp, #32]
    387c:	900d      	str	r0, [sp, #52]	; 0x34
    387e:	9309      	str	r3, [sp, #36]	; 0x24
    3880:	e003      	b.n	0x388a
    3882:	003c      	movs	r4, r7
    3884:	9f08      	ldr	r7, [sp, #32]
    3886:	003e      	movs	r6, r7
    3888:	970d      	str	r7, [sp, #52]	; 0x34
    388a:	9715      	str	r7, [sp, #84]	; 0x54
    388c:	42a7      	cmp	r7, r4
    388e:	da00      	bge.n	0x3892
    3890:	9415      	str	r4, [sp, #84]	; 0x54
    3892:	aa1a      	add	r2, sp, #104	; 0x68
    3894:	4694      	mov	ip, r2
    3896:	2327      	movs	r3, #39	; 0x27
    3898:	4463      	add	r3, ip
    389a:	781b      	ldrb	r3, [r3, #0]
    389c:	1e5a      	subs	r2, r3, #1
    389e:	4193      	sbcs	r3, r2
    38a0:	9a15      	ldr	r2, [sp, #84]	; 0x54
    38a2:	4694      	mov	ip, r2
    38a4:	449c      	add	ip, r3
    38a6:	4663      	mov	r3, ip
    38a8:	4652      	mov	r2, sl
    38aa:	9315      	str	r3, [sp, #84]	; 0x54
    38ac:	2302      	movs	r3, #2
    38ae:	401a      	ands	r2, r3
    38b0:	921c      	str	r2, [sp, #112]	; 0x70
    38b2:	d002      	beq.n	0x38ba
    38b4:	4663      	mov	r3, ip
    38b6:	3302      	adds	r3, #2
    38b8:	9315      	str	r3, [sp, #84]	; 0x54
    38ba:	2384      	movs	r3, #132	; 0x84
    38bc:	4652      	mov	r2, sl
    38be:	401a      	ands	r2, r3
    38c0:	921d      	str	r2, [sp, #116]	; 0x74
    38c2:	d142      	bne.n	0x394a
    38c4:	9b10      	ldr	r3, [sp, #64]	; 0x40
    38c6:	9a15      	ldr	r2, [sp, #84]	; 0x54
    38c8:	1a9b      	subs	r3, r3, r2
    38ca:	9317      	str	r3, [sp, #92]	; 0x5c
    38cc:	2b00      	cmp	r3, #0
    38ce:	dd3c      	ble.n	0x394a
    38d0:	4658      	mov	r0, fp
    38d2:	941f      	str	r4, [sp, #124]	; 0x7c
    38d4:	0001      	movs	r1, r0
    38d6:	9b31      	ldr	r3, [sp, #196]	; 0xc4
    38d8:	9c17      	ldr	r4, [sp, #92]	; 0x5c
    38da:	931e      	str	r3, [sp, #120]	; 0x78
    38dc:	9a32      	ldr	r2, [sp, #200]	; 0xc8
    38de:	3301      	adds	r3, #1
    38e0:	3108      	adds	r1, #8
    38e2:	2c10      	cmp	r4, #16
    38e4:	dd17      	ble.n	0x3916
    38e6:	4cca      	ldr	r4, [pc, #808]	; (0x3c10)
    38e8:	6004      	str	r4, [r0, #0]
    38ea:	2410      	movs	r4, #16
    38ec:	1912      	adds	r2, r2, r4
    38ee:	6044      	str	r4, [r0, #4]
    38f0:	9232      	str	r2, [sp, #200]	; 0xc8
    38f2:	9331      	str	r3, [sp, #196]	; 0xc4
    38f4:	2b07      	cmp	r3, #7
    38f6:	dd09      	ble.n	0x390c
    38f8:	aa30      	add	r2, sp, #192	; 0xc0
    38fa:	990a      	ldr	r1, [sp, #40]	; 0x28
    38fc:	4640      	mov	r0, r8
    38fe:	f002 ffdb 	bl	0x68b8
    3902:	2800      	cmp	r0, #0
    3904:	d001      	beq.n	0x390a
    3906:	f000 fc80 	bl	0x420a
    390a:	a933      	add	r1, sp, #204	; 0xcc
    390c:	9b17      	ldr	r3, [sp, #92]	; 0x5c
    390e:	3b10      	subs	r3, #16
    3910:	9317      	str	r3, [sp, #92]	; 0x5c
    3912:	0008      	movs	r0, r1
    3914:	e7de      	b.n	0x38d4
    3916:	921e      	str	r2, [sp, #120]	; 0x78
    3918:	4abd      	ldr	r2, [pc, #756]	; (0x3c10)
    391a:	6002      	str	r2, [r0, #0]
    391c:	0002      	movs	r2, r0
    391e:	9817      	ldr	r0, [sp, #92]	; 0x5c
    3920:	4684      	mov	ip, r0
    3922:	6050      	str	r0, [r2, #4]
    3924:	9a1e      	ldr	r2, [sp, #120]	; 0x78
    3926:	4462      	add	r2, ip
    3928:	9c1f      	ldr	r4, [sp, #124]	; 0x7c
    392a:	9232      	str	r2, [sp, #200]	; 0xc8
    392c:	9331      	str	r3, [sp, #196]	; 0xc4
    392e:	468b      	mov	fp, r1
    3930:	2b07      	cmp	r3, #7
    3932:	dd0a      	ble.n	0x394a
    3934:	aa30      	add	r2, sp, #192	; 0xc0
    3936:	990a      	ldr	r1, [sp, #40]	; 0x28
    3938:	4640      	mov	r0, r8
    393a:	f002 ffbd 	bl	0x68b8
    393e:	2800      	cmp	r0, #0
    3940:	d001      	beq.n	0x3946
    3942:	f000 fc62 	bl	0x420a
    3946:	ab33      	add	r3, sp, #204	; 0xcc
    3948:	469b      	mov	fp, r3
    394a:	2227      	movs	r2, #39	; 0x27
    394c:	ab1a      	add	r3, sp, #104	; 0x68
    394e:	189b      	adds	r3, r3, r2
    3950:	781b      	ldrb	r3, [r3, #0]
    3952:	2b00      	cmp	r3, #0
    3954:	d022      	beq.n	0x399c
    3956:	9b32      	ldr	r3, [sp, #200]	; 0xc8
    3958:	a91a      	add	r1, sp, #104	; 0x68
    395a:	9317      	str	r3, [sp, #92]	; 0x5c
    395c:	468c      	mov	ip, r1
    395e:	2327      	movs	r3, #39	; 0x27
    3960:	465a      	mov	r2, fp
    3962:	4463      	add	r3, ip
    3964:	6013      	str	r3, [r2, #0]
    3966:	2201      	movs	r2, #1
    3968:	465b      	mov	r3, fp
    396a:	605a      	str	r2, [r3, #4]
    396c:	9b17      	ldr	r3, [sp, #92]	; 0x5c
    396e:	189b      	adds	r3, r3, r2
    3970:	9332      	str	r3, [sp, #200]	; 0xc8
    3972:	9b31      	ldr	r3, [sp, #196]	; 0xc4
    3974:	9317      	str	r3, [sp, #92]	; 0x5c
    3976:	189b      	adds	r3, r3, r2
    3978:	9331      	str	r3, [sp, #196]	; 0xc4
    397a:	2b07      	cmp	r3, #7
    397c:	dc03      	bgt.n	0x3986
    397e:	2308      	movs	r3, #8
    3980:	469c      	mov	ip, r3
    3982:	44e3      	add	fp, ip
    3984:	e00a      	b.n	0x399c
    3986:	aa30      	add	r2, sp, #192	; 0xc0
    3988:	990a      	ldr	r1, [sp, #40]	; 0x28
    398a:	4640      	mov	r0, r8
    398c:	f002 ff94 	bl	0x68b8
    3990:	2800      	cmp	r0, #0
    3992:	d001      	beq.n	0x3998
    3994:	f000 fc39 	bl	0x420a
    3998:	ab33      	add	r3, sp, #204	; 0xcc
    399a:	469b      	mov	fp, r3
    399c:	9b1c      	ldr	r3, [sp, #112]	; 0x70
    399e:	2b00      	cmp	r3, #0
    39a0:	d01e      	beq.n	0x39e0
    39a2:	465a      	mov	r2, fp
    39a4:	9b32      	ldr	r3, [sp, #200]	; 0xc8
    39a6:	9317      	str	r3, [sp, #92]	; 0x5c
    39a8:	ab24      	add	r3, sp, #144	; 0x90
    39aa:	6013      	str	r3, [r2, #0]
    39ac:	2302      	movs	r3, #2
    39ae:	6053      	str	r3, [r2, #4]
    39b0:	9b17      	ldr	r3, [sp, #92]	; 0x5c
    39b2:	3302      	adds	r3, #2
    39b4:	9332      	str	r3, [sp, #200]	; 0xc8
    39b6:	9b31      	ldr	r3, [sp, #196]	; 0xc4
    39b8:	9317      	str	r3, [sp, #92]	; 0x5c
    39ba:	3301      	adds	r3, #1
    39bc:	9331      	str	r3, [sp, #196]	; 0xc4
    39be:	2b07      	cmp	r3, #7
    39c0:	dc03      	bgt.n	0x39ca
    39c2:	2308      	movs	r3, #8
    39c4:	469c      	mov	ip, r3
    39c6:	44e3      	add	fp, ip
    39c8:	e00a      	b.n	0x39e0
    39ca:	aa30      	add	r2, sp, #192	; 0xc0
    39cc:	990a      	ldr	r1, [sp, #40]	; 0x28
    39ce:	4640      	mov	r0, r8
    39d0:	f002 ff72 	bl	0x68b8
    39d4:	2800      	cmp	r0, #0
    39d6:	d001      	beq.n	0x39dc
    39d8:	f000 fc17 	bl	0x420a
    39dc:	ab33      	add	r3, sp, #204	; 0xcc
    39de:	469b      	mov	fp, r3
    39e0:	9b1d      	ldr	r3, [sp, #116]	; 0x74
    39e2:	2b80      	cmp	r3, #128	; 0x80
    39e4:	d140      	bne.n	0x3a68
    39e6:	9b10      	ldr	r3, [sp, #64]	; 0x40
    39e8:	9a15      	ldr	r2, [sp, #84]	; 0x54
    39ea:	1a9b      	subs	r3, r3, r2
    39ec:	9317      	str	r3, [sp, #92]	; 0x5c
    39ee:	2b00      	cmp	r3, #0
    39f0:	dd3a      	ble.n	0x3a68
    39f2:	4658      	mov	r0, fp
    39f4:	941d      	str	r4, [sp, #116]	; 0x74
    39f6:	0001      	movs	r1, r0
    39f8:	9b31      	ldr	r3, [sp, #196]	; 0xc4
    39fa:	9c17      	ldr	r4, [sp, #92]	; 0x5c
    39fc:	931c      	str	r3, [sp, #112]	; 0x70
    39fe:	9a32      	ldr	r2, [sp, #200]	; 0xc8
    3a00:	3301      	adds	r3, #1
    3a02:	3108      	adds	r1, #8
    3a04:	2c10      	cmp	r4, #16
    3a06:	dd16      	ble.n	0x3a36
    3a08:	4c82      	ldr	r4, [pc, #520]	; (0x3c14)
    3a0a:	6004      	str	r4, [r0, #0]
    3a0c:	2410      	movs	r4, #16
    3a0e:	1912      	adds	r2, r2, r4
    3a10:	6044      	str	r4, [r0, #4]
    3a12:	9232      	str	r2, [sp, #200]	; 0xc8
    3a14:	9331      	str	r3, [sp, #196]	; 0xc4
    3a16:	2b07      	cmp	r3, #7
    3a18:	dd08      	ble.n	0x3a2c
    3a1a:	aa30      	add	r2, sp, #192	; 0xc0
    3a1c:	990a      	ldr	r1, [sp, #40]	; 0x28
    3a1e:	4640      	mov	r0, r8
    3a20:	f002 ff4a 	bl	0x68b8
    3a24:	2800      	cmp	r0, #0
    3a26:	d000      	beq.n	0x3a2a
    3a28:	e3ef      	b.n	0x420a
    3a2a:	a933      	add	r1, sp, #204	; 0xcc
    3a2c:	9b17      	ldr	r3, [sp, #92]	; 0x5c
    3a2e:	3b10      	subs	r3, #16
    3a30:	9317      	str	r3, [sp, #92]	; 0x5c
    3a32:	0008      	movs	r0, r1
    3a34:	e7df      	b.n	0x39f6
    3a36:	921c      	str	r2, [sp, #112]	; 0x70
    3a38:	4a76      	ldr	r2, [pc, #472]	; (0x3c14)
    3a3a:	6002      	str	r2, [r0, #0]
    3a3c:	0002      	movs	r2, r0
    3a3e:	9817      	ldr	r0, [sp, #92]	; 0x5c
    3a40:	4684      	mov	ip, r0
    3a42:	6050      	str	r0, [r2, #4]
    3a44:	9a1c      	ldr	r2, [sp, #112]	; 0x70
    3a46:	4462      	add	r2, ip
    3a48:	9c1d      	ldr	r4, [sp, #116]	; 0x74
    3a4a:	9232      	str	r2, [sp, #200]	; 0xc8
    3a4c:	9331      	str	r3, [sp, #196]	; 0xc4
    3a4e:	468b      	mov	fp, r1
    3a50:	2b07      	cmp	r3, #7
    3a52:	dd09      	ble.n	0x3a68
    3a54:	aa30      	add	r2, sp, #192	; 0xc0
    3a56:	990a      	ldr	r1, [sp, #40]	; 0x28
    3a58:	4640      	mov	r0, r8
    3a5a:	f002 ff2d 	bl	0x68b8
    3a5e:	2800      	cmp	r0, #0
    3a60:	d000      	beq.n	0x3a64
    3a62:	e3d2      	b.n	0x420a
    3a64:	ab33      	add	r3, sp, #204	; 0xcc
    3a66:	469b      	mov	fp, r3
    3a68:	1b3f      	subs	r7, r7, r4
    3a6a:	2f00      	cmp	r7, #0
    3a6c:	dd33      	ble.n	0x3ad6
    3a6e:	4658      	mov	r0, fp
    3a70:	941c      	str	r4, [sp, #112]	; 0x70
    3a72:	0001      	movs	r1, r0
    3a74:	9b31      	ldr	r3, [sp, #196]	; 0xc4
    3a76:	9a32      	ldr	r2, [sp, #200]	; 0xc8
    3a78:	9317      	str	r3, [sp, #92]	; 0x5c
    3a7a:	3108      	adds	r1, #8
    3a7c:	3301      	adds	r3, #1
    3a7e:	2f10      	cmp	r7, #16
    3a80:	dd14      	ble.n	0x3aac
    3a82:	4c64      	ldr	r4, [pc, #400]	; (0x3c14)
    3a84:	6004      	str	r4, [r0, #0]
    3a86:	2410      	movs	r4, #16
    3a88:	1912      	adds	r2, r2, r4
    3a8a:	6044      	str	r4, [r0, #4]
    3a8c:	9232      	str	r2, [sp, #200]	; 0xc8
    3a8e:	9331      	str	r3, [sp, #196]	; 0xc4
    3a90:	2b07      	cmp	r3, #7
    3a92:	dd08      	ble.n	0x3aa6
    3a94:	aa30      	add	r2, sp, #192	; 0xc0
    3a96:	990a      	ldr	r1, [sp, #40]	; 0x28
    3a98:	4640      	mov	r0, r8
    3a9a:	f002 ff0d 	bl	0x68b8
    3a9e:	2800      	cmp	r0, #0
    3aa0:	d000      	beq.n	0x3aa4
    3aa2:	e3b2      	b.n	0x420a
    3aa4:	a933      	add	r1, sp, #204	; 0xcc
    3aa6:	3f10      	subs	r7, #16
    3aa8:	0008      	movs	r0, r1
    3aaa:	e7e2      	b.n	0x3a72
    3aac:	4694      	mov	ip, r2
    3aae:	4a59      	ldr	r2, [pc, #356]	; (0x3c14)
    3ab0:	6047      	str	r7, [r0, #4]
    3ab2:	4467      	add	r7, ip
    3ab4:	9c1c      	ldr	r4, [sp, #112]	; 0x70
    3ab6:	6002      	str	r2, [r0, #0]
    3ab8:	9732      	str	r7, [sp, #200]	; 0xc8
    3aba:	9331      	str	r3, [sp, #196]	; 0xc4
    3abc:	468b      	mov	fp, r1
    3abe:	2b07      	cmp	r3, #7
    3ac0:	dd09      	ble.n	0x3ad6
    3ac2:	aa30      	add	r2, sp, #192	; 0xc0
    3ac4:	990a      	ldr	r1, [sp, #40]	; 0x28
    3ac6:	4640      	mov	r0, r8
    3ac8:	f002 fef6 	bl	0x68b8
    3acc:	2800      	cmp	r0, #0
    3ace:	d000      	beq.n	0x3ad2
    3ad0:	e39b      	b.n	0x420a
    3ad2:	ab33      	add	r3, sp, #204	; 0xcc
    3ad4:	469b      	mov	fp, r3
    3ad6:	4653      	mov	r3, sl
    3ad8:	9f32      	ldr	r7, [sp, #200]	; 0xc8
    3ada:	05db      	lsls	r3, r3, #23
    3adc:	d40f      	bmi.n	0x3afe
    3ade:	465b      	mov	r3, fp
    3ae0:	9a09      	ldr	r2, [sp, #36]	; 0x24
    3ae2:	c314      	stmia	r3!, {r2, r4}
    3ae4:	9b31      	ldr	r3, [sp, #196]	; 0xc4
    3ae6:	19e4      	adds	r4, r4, r7
    3ae8:	9309      	str	r3, [sp, #36]	; 0x24
    3aea:	3301      	adds	r3, #1
    3aec:	9432      	str	r4, [sp, #200]	; 0xc8
    3aee:	9331      	str	r3, [sp, #196]	; 0xc4
    3af0:	2b07      	cmp	r3, #7
    3af2:	dd00      	ble.n	0x3af6
    3af4:	e31f      	b.n	0x4136
    3af6:	2308      	movs	r3, #8
    3af8:	469c      	mov	ip, r3
    3afa:	44e3      	add	fp, ip
    3afc:	e324      	b.n	0x4148
    3afe:	9b0c      	ldr	r3, [sp, #48]	; 0x30
    3b00:	2b65      	cmp	r3, #101	; 0x65
    3b02:	dc00      	bgt.n	0x3b06
    3b04:	e277      	b.n	0x3ff6
    3b06:	2200      	movs	r2, #0
    3b08:	2300      	movs	r3, #0
    3b0a:	980f      	ldr	r0, [sp, #60]	; 0x3c
    3b0c:	990e      	ldr	r1, [sp, #56]	; 0x38
    3b0e:	f003 fc0f 	bl	0x7330
    3b12:	2800      	cmp	r0, #0
    3b14:	d065      	beq.n	0x3be2
    3b16:	465a      	mov	r2, fp
    3b18:	4b3f      	ldr	r3, [pc, #252]	; (0x3c18)
    3b1a:	6013      	str	r3, [r2, #0]
    3b1c:	2201      	movs	r2, #1
    3b1e:	465b      	mov	r3, fp
    3b20:	605a      	str	r2, [r3, #4]
    3b22:	9b31      	ldr	r3, [sp, #196]	; 0xc4
    3b24:	18bf      	adds	r7, r7, r2
    3b26:	9309      	str	r3, [sp, #36]	; 0x24
    3b28:	189b      	adds	r3, r3, r2
    3b2a:	9732      	str	r7, [sp, #200]	; 0xc8
    3b2c:	9331      	str	r3, [sp, #196]	; 0xc4
    3b2e:	2b07      	cmp	r3, #7
    3b30:	dc03      	bgt.n	0x3b3a
    3b32:	2308      	movs	r3, #8
    3b34:	469c      	mov	ip, r3
    3b36:	44e3      	add	fp, ip
    3b38:	e009      	b.n	0x3b4e
    3b3a:	aa30      	add	r2, sp, #192	; 0xc0
    3b3c:	990a      	ldr	r1, [sp, #40]	; 0x28
    3b3e:	4640      	mov	r0, r8
    3b40:	f002 feba 	bl	0x68b8
    3b44:	2800      	cmp	r0, #0
    3b46:	d000      	beq.n	0x3b4a
    3b48:	e35f      	b.n	0x420a
    3b4a:	ab33      	add	r3, sp, #204	; 0xcc
    3b4c:	469b      	mov	fp, r3
    3b4e:	9b27      	ldr	r3, [sp, #156]	; 0x9c
    3b50:	9a0b      	ldr	r2, [sp, #44]	; 0x2c
    3b52:	4293      	cmp	r3, r2
    3b54:	db04      	blt.n	0x3b60
    3b56:	4653      	mov	r3, sl
    3b58:	2201      	movs	r2, #1
    3b5a:	4213      	tst	r3, r2
    3b5c:	d100      	bne.n	0x3b60
    3b5e:	e2f3      	b.n	0x4148
    3b60:	465b      	mov	r3, fp
    3b62:	9a18      	ldr	r2, [sp, #96]	; 0x60
    3b64:	601a      	str	r2, [r3, #0]
    3b66:	9a13      	ldr	r2, [sp, #76]	; 0x4c
    3b68:	4694      	mov	ip, r2
    3b6a:	605a      	str	r2, [r3, #4]
    3b6c:	9b32      	ldr	r3, [sp, #200]	; 0xc8
    3b6e:	4463      	add	r3, ip
    3b70:	9332      	str	r3, [sp, #200]	; 0xc8
    3b72:	9b31      	ldr	r3, [sp, #196]	; 0xc4
    3b74:	9309      	str	r3, [sp, #36]	; 0x24
    3b76:	3301      	adds	r3, #1
    3b78:	9331      	str	r3, [sp, #196]	; 0xc4
    3b7a:	2b07      	cmp	r3, #7
    3b7c:	dc03      	bgt.n	0x3b86
    3b7e:	2308      	movs	r3, #8
    3b80:	469c      	mov	ip, r3
    3b82:	44e3      	add	fp, ip
    3b84:	e009      	b.n	0x3b9a
    3b86:	aa30      	add	r2, sp, #192	; 0xc0
    3b88:	990a      	ldr	r1, [sp, #40]	; 0x28
    3b8a:	4640      	mov	r0, r8
    3b8c:	f002 fe94 	bl	0x68b8
    3b90:	2800      	cmp	r0, #0
    3b92:	d000      	beq.n	0x3b96
    3b94:	e339      	b.n	0x420a
    3b96:	ab33      	add	r3, sp, #204	; 0xcc
    3b98:	469b      	mov	fp, r3
    3b9a:	9b0b      	ldr	r3, [sp, #44]	; 0x2c
    3b9c:	1e5c      	subs	r4, r3, #1
    3b9e:	2c00      	cmp	r4, #0
    3ba0:	dc00      	bgt.n	0x3ba4
    3ba2:	e2d1      	b.n	0x4148
    3ba4:	2610      	movs	r6, #16
    3ba6:	4658      	mov	r0, fp
    3ba8:	4647      	mov	r7, r8
    3baa:	4d1a      	ldr	r5, [pc, #104]	; (0x3c14)
    3bac:	0001      	movs	r1, r0
    3bae:	9b31      	ldr	r3, [sp, #196]	; 0xc4
    3bb0:	9a32      	ldr	r2, [sp, #200]	; 0xc8
    3bb2:	9309      	str	r3, [sp, #36]	; 0x24
    3bb4:	3108      	adds	r1, #8
    3bb6:	3301      	adds	r3, #1
    3bb8:	2c10      	cmp	r4, #16
    3bba:	dc00      	bgt.n	0x3bbe
    3bbc:	e210      	b.n	0x3fe0
    3bbe:	3210      	adds	r2, #16
    3bc0:	c060      	stmia	r0!, {r5, r6}
    3bc2:	9232      	str	r2, [sp, #200]	; 0xc8
    3bc4:	9331      	str	r3, [sp, #196]	; 0xc4
    3bc6:	2b07      	cmp	r3, #7
    3bc8:	dd08      	ble.n	0x3bdc
    3bca:	aa30      	add	r2, sp, #192	; 0xc0
    3bcc:	990a      	ldr	r1, [sp, #40]	; 0x28
    3bce:	0038      	movs	r0, r7
    3bd0:	f002 fe72 	bl	0x68b8
    3bd4:	2800      	cmp	r0, #0
    3bd6:	d000      	beq.n	0x3bda
    3bd8:	e31b      	b.n	0x4212
    3bda:	a933      	add	r1, sp, #204	; 0xcc
    3bdc:	3c10      	subs	r4, #16
    3bde:	0008      	movs	r0, r1
    3be0:	e7e4      	b.n	0x3bac
    3be2:	9b27      	ldr	r3, [sp, #156]	; 0x9c
    3be4:	2b00      	cmp	r3, #0
    3be6:	dd00      	ble.n	0x3bea
    3be8:	e08c      	b.n	0x3d04
    3bea:	465a      	mov	r2, fp
    3bec:	4b0a      	ldr	r3, [pc, #40]	; (0x3c18)
    3bee:	6013      	str	r3, [r2, #0]
    3bf0:	2201      	movs	r2, #1
    3bf2:	465b      	mov	r3, fp
    3bf4:	605a      	str	r2, [r3, #4]
    3bf6:	9b31      	ldr	r3, [sp, #196]	; 0xc4
    3bf8:	18bf      	adds	r7, r7, r2
    3bfa:	930c      	str	r3, [sp, #48]	; 0x30
    3bfc:	189b      	adds	r3, r3, r2
    3bfe:	9732      	str	r7, [sp, #200]	; 0xc8
    3c00:	9331      	str	r3, [sp, #196]	; 0xc4
    3c02:	2b07      	cmp	r3, #7
    3c04:	dc0a      	bgt.n	0x3c1c
    3c06:	2308      	movs	r3, #8
    3c08:	469c      	mov	ip, r3
    3c0a:	44e3      	add	fp, ip
    3c0c:	e010      	b.n	0x3c30
    3c0e:	46c0      	nop			; (mov r8, r8)
    3c10:	7464      	strb	r4, [r4, #17]
    3c12:	0800      	lsrs	r0, r0, #32
    3c14:	7474      	strb	r4, [r6, #17]
    3c16:	0800      	lsrs	r0, r0, #32
    3c18:	7462      	strb	r2, [r4, #17]
    3c1a:	0800      	lsrs	r0, r0, #32
    3c1c:	aa30      	add	r2, sp, #192	; 0xc0
    3c1e:	990a      	ldr	r1, [sp, #40]	; 0x28
    3c20:	4640      	mov	r0, r8
    3c22:	f002 fe49 	bl	0x68b8
    3c26:	2800      	cmp	r0, #0
    3c28:	d000      	beq.n	0x3c2c
    3c2a:	e2ee      	b.n	0x420a
    3c2c:	ab33      	add	r3, sp, #204	; 0xcc
    3c2e:	469b      	mov	fp, r3
    3c30:	9927      	ldr	r1, [sp, #156]	; 0x9c
    3c32:	9b0b      	ldr	r3, [sp, #44]	; 0x2c
    3c34:	2001      	movs	r0, #1
    3c36:	430b      	orrs	r3, r1
    3c38:	4651      	mov	r1, sl
    3c3a:	4001      	ands	r1, r0
    3c3c:	9a32      	ldr	r2, [sp, #200]	; 0xc8
    3c3e:	430b      	orrs	r3, r1
    3c40:	d100      	bne.n	0x3c44
    3c42:	e281      	b.n	0x4148
    3c44:	465b      	mov	r3, fp
    3c46:	9918      	ldr	r1, [sp, #96]	; 0x60
    3c48:	6019      	str	r1, [r3, #0]
    3c4a:	9913      	ldr	r1, [sp, #76]	; 0x4c
    3c4c:	468c      	mov	ip, r1
    3c4e:	6059      	str	r1, [r3, #4]
    3c50:	9b31      	ldr	r3, [sp, #196]	; 0xc4
    3c52:	4462      	add	r2, ip
    3c54:	930c      	str	r3, [sp, #48]	; 0x30
    3c56:	181b      	adds	r3, r3, r0
    3c58:	9232      	str	r2, [sp, #200]	; 0xc8
    3c5a:	9331      	str	r3, [sp, #196]	; 0xc4
    3c5c:	2b07      	cmp	r3, #7
    3c5e:	dc02      	bgt.n	0x3c66
    3c60:	465b      	mov	r3, fp
    3c62:	3308      	adds	r3, #8
    3c64:	e008      	b.n	0x3c78
    3c66:	aa30      	add	r2, sp, #192	; 0xc0
    3c68:	990a      	ldr	r1, [sp, #40]	; 0x28
    3c6a:	4640      	mov	r0, r8
    3c6c:	f002 fe24 	bl	0x68b8
    3c70:	2800      	cmp	r0, #0
    3c72:	d000      	beq.n	0x3c76
    3c74:	e2c9      	b.n	0x420a
    3c76:	ab33      	add	r3, sp, #204	; 0xcc
    3c78:	9c27      	ldr	r4, [sp, #156]	; 0x9c
    3c7a:	2c00      	cmp	r4, #0
    3c7c:	da2e      	bge.n	0x3cdc
    3c7e:	0019      	movs	r1, r3
    3c80:	2610      	movs	r6, #16
    3c82:	4647      	mov	r7, r8
    3c84:	4dbc      	ldr	r5, [pc, #752]	; (0x3f78)
    3c86:	4264      	negs	r4, r4
    3c88:	9a31      	ldr	r2, [sp, #196]	; 0xc4
    3c8a:	9832      	ldr	r0, [sp, #200]	; 0xc8
    3c8c:	920c      	str	r2, [sp, #48]	; 0x30
    3c8e:	3308      	adds	r3, #8
    3c90:	3201      	adds	r2, #1
    3c92:	2c10      	cmp	r4, #16
    3c94:	dd11      	ble.n	0x3cba
    3c96:	3010      	adds	r0, #16
    3c98:	c160      	stmia	r1!, {r5, r6}
    3c9a:	9032      	str	r0, [sp, #200]	; 0xc8
    3c9c:	9231      	str	r2, [sp, #196]	; 0xc4
    3c9e:	2a07      	cmp	r2, #7
    3ca0:	dd08      	ble.n	0x3cb4
    3ca2:	aa30      	add	r2, sp, #192	; 0xc0
    3ca4:	990a      	ldr	r1, [sp, #40]	; 0x28
    3ca6:	0038      	movs	r0, r7
    3ca8:	f002 fe06 	bl	0x68b8
    3cac:	2800      	cmp	r0, #0
    3cae:	d000      	beq.n	0x3cb2
    3cb0:	e2af      	b.n	0x4212
    3cb2:	ab33      	add	r3, sp, #204	; 0xcc
    3cb4:	3c10      	subs	r4, #16
    3cb6:	0019      	movs	r1, r3
    3cb8:	e7e6      	b.n	0x3c88
    3cba:	604c      	str	r4, [r1, #4]
    3cbc:	1824      	adds	r4, r4, r0
    3cbe:	46b8      	mov	r8, r7
    3cc0:	600d      	str	r5, [r1, #0]
    3cc2:	9432      	str	r4, [sp, #200]	; 0xc8
    3cc4:	9231      	str	r2, [sp, #196]	; 0xc4
    3cc6:	2a07      	cmp	r2, #7
    3cc8:	dd08      	ble.n	0x3cdc
    3cca:	aa30      	add	r2, sp, #192	; 0xc0
    3ccc:	990a      	ldr	r1, [sp, #40]	; 0x28
    3cce:	0038      	movs	r0, r7
    3cd0:	f002 fdf2 	bl	0x68b8
    3cd4:	2800      	cmp	r0, #0
    3cd6:	d000      	beq.n	0x3cda
    3cd8:	e297      	b.n	0x420a
    3cda:	ab33      	add	r3, sp, #204	; 0xcc
    3cdc:	990b      	ldr	r1, [sp, #44]	; 0x2c
    3cde:	468c      	mov	ip, r1
    3ce0:	9a09      	ldr	r2, [sp, #36]	; 0x24
    3ce2:	601a      	str	r2, [r3, #0]
    3ce4:	9a0b      	ldr	r2, [sp, #44]	; 0x2c
    3ce6:	605a      	str	r2, [r3, #4]
    3ce8:	9a32      	ldr	r2, [sp, #200]	; 0xc8
    3cea:	4462      	add	r2, ip
    3cec:	9232      	str	r2, [sp, #200]	; 0xc8
    3cee:	9a31      	ldr	r2, [sp, #196]	; 0xc4
    3cf0:	9209      	str	r2, [sp, #36]	; 0x24
    3cf2:	3201      	adds	r2, #1
    3cf4:	9231      	str	r2, [sp, #196]	; 0xc4
    3cf6:	2a07      	cmp	r2, #7
    3cf8:	dd00      	ble.n	0x3cfc
    3cfa:	e21c      	b.n	0x4136
    3cfc:	2208      	movs	r2, #8
    3cfe:	4693      	mov	fp, r2
    3d00:	449b      	add	fp, r3
    3d02:	e221      	b.n	0x4148
    3d04:	9b0b      	ldr	r3, [sp, #44]	; 0x2c
    3d06:	002c      	movs	r4, r5
    3d08:	429d      	cmp	r5, r3
    3d0a:	dd00      	ble.n	0x3d0e
    3d0c:	001c      	movs	r4, r3
    3d0e:	2c00      	cmp	r4, #0
    3d10:	dd18      	ble.n	0x3d44
    3d12:	465b      	mov	r3, fp
    3d14:	9a09      	ldr	r2, [sp, #36]	; 0x24
    3d16:	c314      	stmia	r3!, {r2, r4}
    3d18:	9b31      	ldr	r3, [sp, #196]	; 0xc4
    3d1a:	19e7      	adds	r7, r4, r7
    3d1c:	930c      	str	r3, [sp, #48]	; 0x30
    3d1e:	3301      	adds	r3, #1
    3d20:	9732      	str	r7, [sp, #200]	; 0xc8
    3d22:	9331      	str	r3, [sp, #196]	; 0xc4
    3d24:	2b07      	cmp	r3, #7
    3d26:	dc03      	bgt.n	0x3d30
    3d28:	2308      	movs	r3, #8
    3d2a:	469c      	mov	ip, r3
    3d2c:	44e3      	add	fp, ip
    3d2e:	e009      	b.n	0x3d44
    3d30:	aa30      	add	r2, sp, #192	; 0xc0
    3d32:	990a      	ldr	r1, [sp, #40]	; 0x28
    3d34:	4640      	mov	r0, r8
    3d36:	f002 fdbf 	bl	0x68b8
    3d3a:	2800      	cmp	r0, #0
    3d3c:	d000      	beq.n	0x3d40
    3d3e:	e264      	b.n	0x420a
    3d40:	ab33      	add	r3, sp, #204	; 0xcc
    3d42:	469b      	mov	fp, r3
    3d44:	43e3      	mvns	r3, r4
    3d46:	17db      	asrs	r3, r3, #31
    3d48:	401c      	ands	r4, r3
    3d4a:	1b2c      	subs	r4, r5, r4
    3d4c:	2c00      	cmp	r4, #0
    3d4e:	dd31      	ble.n	0x3db4
    3d50:	4658      	mov	r0, fp
    3d52:	4f89      	ldr	r7, [pc, #548]	; (0x3f78)
    3d54:	9517      	str	r5, [sp, #92]	; 0x5c
    3d56:	0001      	movs	r1, r0
    3d58:	9b31      	ldr	r3, [sp, #196]	; 0xc4
    3d5a:	9a32      	ldr	r2, [sp, #200]	; 0xc8
    3d5c:	930c      	str	r3, [sp, #48]	; 0x30
    3d5e:	3108      	adds	r1, #8
    3d60:	3301      	adds	r3, #1
    3d62:	2c10      	cmp	r4, #16
    3d64:	dd13      	ble.n	0x3d8e
    3d66:	2510      	movs	r5, #16
    3d68:	1952      	adds	r2, r2, r5
    3d6a:	6007      	str	r7, [r0, #0]
    3d6c:	6045      	str	r5, [r0, #4]
    3d6e:	9232      	str	r2, [sp, #200]	; 0xc8
    3d70:	9331      	str	r3, [sp, #196]	; 0xc4
    3d72:	2b07      	cmp	r3, #7
    3d74:	dd08      	ble.n	0x3d88
    3d76:	aa30      	add	r2, sp, #192	; 0xc0
    3d78:	990a      	ldr	r1, [sp, #40]	; 0x28
    3d7a:	4640      	mov	r0, r8
    3d7c:	f002 fd9c 	bl	0x68b8
    3d80:	2800      	cmp	r0, #0
    3d82:	d000      	beq.n	0x3d86
    3d84:	e241      	b.n	0x420a
    3d86:	a933      	add	r1, sp, #204	; 0xcc
    3d88:	3c10      	subs	r4, #16
    3d8a:	0008      	movs	r0, r1
    3d8c:	e7e3      	b.n	0x3d56
    3d8e:	6044      	str	r4, [r0, #4]
    3d90:	18a4      	adds	r4, r4, r2
    3d92:	9d17      	ldr	r5, [sp, #92]	; 0x5c
    3d94:	6007      	str	r7, [r0, #0]
    3d96:	9432      	str	r4, [sp, #200]	; 0xc8
    3d98:	9331      	str	r3, [sp, #196]	; 0xc4
    3d9a:	468b      	mov	fp, r1
    3d9c:	2b07      	cmp	r3, #7
    3d9e:	dd09      	ble.n	0x3db4
    3da0:	aa30      	add	r2, sp, #192	; 0xc0
    3da2:	990a      	ldr	r1, [sp, #40]	; 0x28
    3da4:	4640      	mov	r0, r8
    3da6:	f002 fd87 	bl	0x68b8
    3daa:	2800      	cmp	r0, #0
    3dac:	d000      	beq.n	0x3db0
    3dae:	e22c      	b.n	0x420a
    3db0:	ab33      	add	r3, sp, #204	; 0xcc
    3db2:	469b      	mov	fp, r3
    3db4:	9b09      	ldr	r3, [sp, #36]	; 0x24
    3db6:	469c      	mov	ip, r3
    3db8:	4653      	mov	r3, sl
    3dba:	4465      	add	r5, ip
    3dbc:	055b      	lsls	r3, r3, #21
    3dbe:	d400      	bmi.n	0x3dc2
    3dc0:	e096      	b.n	0x3ef0
    3dc2:	465b      	mov	r3, fp
    3dc4:	4647      	mov	r7, r8
    3dc6:	46cb      	mov	fp, r9
    3dc8:	9a0d      	ldr	r2, [sp, #52]	; 0x34
    3dca:	2a00      	cmp	r2, #0
    3dcc:	d100      	bne.n	0x3dd0
    3dce:	e082      	b.n	0x3ed6
    3dd0:	2e00      	cmp	r6, #0
    3dd2:	d001      	beq.n	0x3dd8
    3dd4:	3e01      	subs	r6, #1
    3dd6:	e005      	b.n	0x3de4
    3dd8:	9a12      	ldr	r2, [sp, #72]	; 0x48
    3dda:	3a01      	subs	r2, #1
    3ddc:	9212      	str	r2, [sp, #72]	; 0x48
    3dde:	9a0d      	ldr	r2, [sp, #52]	; 0x34
    3de0:	3a01      	subs	r2, #1
    3de2:	920d      	str	r2, [sp, #52]	; 0x34
    3de4:	9916      	ldr	r1, [sp, #88]	; 0x58
    3de6:	468c      	mov	ip, r1
    3de8:	9a19      	ldr	r2, [sp, #100]	; 0x64
    3dea:	601a      	str	r2, [r3, #0]
    3dec:	9a16      	ldr	r2, [sp, #88]	; 0x58
    3dee:	605a      	str	r2, [r3, #4]
    3df0:	9a32      	ldr	r2, [sp, #200]	; 0xc8
    3df2:	4462      	add	r2, ip
    3df4:	9232      	str	r2, [sp, #200]	; 0xc8
    3df6:	9a31      	ldr	r2, [sp, #196]	; 0xc4
    3df8:	920c      	str	r2, [sp, #48]	; 0x30
    3dfa:	3201      	adds	r2, #1
    3dfc:	9231      	str	r2, [sp, #196]	; 0xc4
    3dfe:	3308      	adds	r3, #8
    3e00:	2a07      	cmp	r2, #7
    3e02:	dd08      	ble.n	0x3e16
    3e04:	aa30      	add	r2, sp, #192	; 0xc0
    3e06:	990a      	ldr	r1, [sp, #40]	; 0x28
    3e08:	0038      	movs	r0, r7
    3e0a:	f002 fd55 	bl	0x68b8
    3e0e:	2800      	cmp	r0, #0
    3e10:	d000      	beq.n	0x3e14
    3e12:	e1fe      	b.n	0x4212
    3e14:	ab33      	add	r3, sp, #204	; 0xcc
    3e16:	990b      	ldr	r1, [sp, #44]	; 0x2c
    3e18:	468c      	mov	ip, r1
    3e1a:	9912      	ldr	r1, [sp, #72]	; 0x48
    3e1c:	9a09      	ldr	r2, [sp, #36]	; 0x24
    3e1e:	780c      	ldrb	r4, [r1, #0]
    3e20:	4462      	add	r2, ip
    3e22:	1b52      	subs	r2, r2, r5
    3e24:	4294      	cmp	r4, r2
    3e26:	dd00      	ble.n	0x3e2a
    3e28:	0014      	movs	r4, r2
    3e2a:	2c00      	cmp	r4, #0
    3e2c:	dd14      	ble.n	0x3e58
    3e2e:	9a32      	ldr	r2, [sp, #200]	; 0xc8
    3e30:	18a2      	adds	r2, r4, r2
    3e32:	9232      	str	r2, [sp, #200]	; 0xc8
    3e34:	9a31      	ldr	r2, [sp, #196]	; 0xc4
    3e36:	920c      	str	r2, [sp, #48]	; 0x30
    3e38:	3201      	adds	r2, #1
    3e3a:	601d      	str	r5, [r3, #0]
    3e3c:	605c      	str	r4, [r3, #4]
    3e3e:	9231      	str	r2, [sp, #196]	; 0xc4
    3e40:	3308      	adds	r3, #8
    3e42:	2a07      	cmp	r2, #7
    3e44:	dd08      	ble.n	0x3e58
    3e46:	aa30      	add	r2, sp, #192	; 0xc0
    3e48:	990a      	ldr	r1, [sp, #40]	; 0x28
    3e4a:	0038      	movs	r0, r7
    3e4c:	f002 fd34 	bl	0x68b8
    3e50:	2800      	cmp	r0, #0
    3e52:	d000      	beq.n	0x3e56
    3e54:	e1dd      	b.n	0x4212
    3e56:	ab33      	add	r3, sp, #204	; 0xcc
    3e58:	43e2      	mvns	r2, r4
    3e5a:	17d2      	asrs	r2, r2, #31
    3e5c:	4014      	ands	r4, r2
    3e5e:	9a12      	ldr	r2, [sp, #72]	; 0x48
    3e60:	7812      	ldrb	r2, [r2, #0]
    3e62:	1b14      	subs	r4, r2, r4
    3e64:	2c00      	cmp	r4, #0
    3e66:	dd32      	ble.n	0x3ece
    3e68:	4a43      	ldr	r2, [pc, #268]	; (0x3f78)
    3e6a:	46a8      	mov	r8, r5
    3e6c:	4691      	mov	r9, r2
    3e6e:	0018      	movs	r0, r3
    3e70:	9a31      	ldr	r2, [sp, #196]	; 0xc4
    3e72:	9932      	ldr	r1, [sp, #200]	; 0xc8
    3e74:	920c      	str	r2, [sp, #48]	; 0x30
    3e76:	3008      	adds	r0, #8
    3e78:	3201      	adds	r2, #1
    3e7a:	2c10      	cmp	r4, #16
    3e7c:	dd14      	ble.n	0x3ea8
    3e7e:	464d      	mov	r5, r9
    3e80:	601d      	str	r5, [r3, #0]
    3e82:	2510      	movs	r5, #16
    3e84:	1949      	adds	r1, r1, r5
    3e86:	605d      	str	r5, [r3, #4]
    3e88:	9132      	str	r1, [sp, #200]	; 0xc8
    3e8a:	9231      	str	r2, [sp, #196]	; 0xc4
    3e8c:	2a07      	cmp	r2, #7
    3e8e:	dd08      	ble.n	0x3ea2
    3e90:	aa30      	add	r2, sp, #192	; 0xc0
    3e92:	990a      	ldr	r1, [sp, #40]	; 0x28
    3e94:	0038      	movs	r0, r7
    3e96:	f002 fd0f 	bl	0x68b8
    3e9a:	2800      	cmp	r0, #0
    3e9c:	d000      	beq.n	0x3ea0
    3e9e:	e1b8      	b.n	0x4212
    3ea0:	a833      	add	r0, sp, #204	; 0xcc
    3ea2:	3c10      	subs	r4, #16
    3ea4:	0003      	movs	r3, r0
    3ea6:	e7e2      	b.n	0x3e6e
    3ea8:	468c      	mov	ip, r1
    3eaa:	4649      	mov	r1, r9
    3eac:	c312      	stmia	r3!, {r1, r4}
    3eae:	4464      	add	r4, ip
    3eb0:	4645      	mov	r5, r8
    3eb2:	9432      	str	r4, [sp, #200]	; 0xc8
    3eb4:	9231      	str	r2, [sp, #196]	; 0xc4
    3eb6:	0003      	movs	r3, r0
    3eb8:	2a07      	cmp	r2, #7
    3eba:	dd08      	ble.n	0x3ece
    3ebc:	aa30      	add	r2, sp, #192	; 0xc0
    3ebe:	990a      	ldr	r1, [sp, #40]	; 0x28
    3ec0:	0038      	movs	r0, r7
    3ec2:	f002 fcf9 	bl	0x68b8
    3ec6:	2800      	cmp	r0, #0
    3ec8:	d000      	beq.n	0x3ecc
    3eca:	e1a2      	b.n	0x4212
    3ecc:	ab33      	add	r3, sp, #204	; 0xcc
    3ece:	9a12      	ldr	r2, [sp, #72]	; 0x48
    3ed0:	7812      	ldrb	r2, [r2, #0]
    3ed2:	18ad      	adds	r5, r5, r2
    3ed4:	e778      	b.n	0x3dc8
    3ed6:	2e00      	cmp	r6, #0
    3ed8:	d000      	beq.n	0x3edc
    3eda:	e77b      	b.n	0x3dd4
    3edc:	9a0b      	ldr	r2, [sp, #44]	; 0x2c
    3ede:	4694      	mov	ip, r2
    3ee0:	46d9      	mov	r9, fp
    3ee2:	469b      	mov	fp, r3
    3ee4:	9b09      	ldr	r3, [sp, #36]	; 0x24
    3ee6:	4463      	add	r3, ip
    3ee8:	46b8      	mov	r8, r7
    3eea:	429d      	cmp	r5, r3
    3eec:	d900      	bls.n	0x3ef0
    3eee:	001d      	movs	r5, r3
    3ef0:	9b27      	ldr	r3, [sp, #156]	; 0x9c
    3ef2:	9a0b      	ldr	r2, [sp, #44]	; 0x2c
    3ef4:	4293      	cmp	r3, r2
    3ef6:	db03      	blt.n	0x3f00
    3ef8:	4653      	mov	r3, sl
    3efa:	2201      	movs	r2, #1
    3efc:	4213      	tst	r3, r2
    3efe:	d01c      	beq.n	0x3f3a
    3f00:	465b      	mov	r3, fp
    3f02:	9a18      	ldr	r2, [sp, #96]	; 0x60
    3f04:	601a      	str	r2, [r3, #0]
    3f06:	9a13      	ldr	r2, [sp, #76]	; 0x4c
    3f08:	4694      	mov	ip, r2
    3f0a:	605a      	str	r2, [r3, #4]
    3f0c:	9b32      	ldr	r3, [sp, #200]	; 0xc8
    3f0e:	4463      	add	r3, ip
    3f10:	9332      	str	r3, [sp, #200]	; 0xc8
    3f12:	9b31      	ldr	r3, [sp, #196]	; 0xc4
    3f14:	930c      	str	r3, [sp, #48]	; 0x30
    3f16:	3301      	adds	r3, #1
    3f18:	9331      	str	r3, [sp, #196]	; 0xc4
    3f1a:	2b07      	cmp	r3, #7
    3f1c:	dc03      	bgt.n	0x3f26
    3f1e:	2308      	movs	r3, #8
    3f20:	469c      	mov	ip, r3
    3f22:	44e3      	add	fp, ip
    3f24:	e009      	b.n	0x3f3a
    3f26:	aa30      	add	r2, sp, #192	; 0xc0
    3f28:	990a      	ldr	r1, [sp, #40]	; 0x28
    3f2a:	4640      	mov	r0, r8
    3f2c:	f002 fcc4 	bl	0x68b8
    3f30:	2800      	cmp	r0, #0
    3f32:	d000      	beq.n	0x3f36
    3f34:	e169      	b.n	0x420a
    3f36:	ab33      	add	r3, sp, #204	; 0xcc
    3f38:	469b      	mov	fp, r3
    3f3a:	9a0b      	ldr	r2, [sp, #44]	; 0x2c
    3f3c:	4694      	mov	ip, r2
    3f3e:	9b09      	ldr	r3, [sp, #36]	; 0x24
    3f40:	9927      	ldr	r1, [sp, #156]	; 0x9c
    3f42:	4463      	add	r3, ip
    3f44:	1b5b      	subs	r3, r3, r5
    3f46:	1a54      	subs	r4, r2, r1
    3f48:	429c      	cmp	r4, r3
    3f4a:	dd00      	ble.n	0x3f4e
    3f4c:	001c      	movs	r4, r3
    3f4e:	2c00      	cmp	r4, #0
    3f50:	dd1e      	ble.n	0x3f90
    3f52:	9b32      	ldr	r3, [sp, #200]	; 0xc8
    3f54:	9309      	str	r3, [sp, #36]	; 0x24
    3f56:	465b      	mov	r3, fp
    3f58:	601d      	str	r5, [r3, #0]
    3f5a:	605c      	str	r4, [r3, #4]
    3f5c:	9b09      	ldr	r3, [sp, #36]	; 0x24
    3f5e:	18e3      	adds	r3, r4, r3
    3f60:	9332      	str	r3, [sp, #200]	; 0xc8
    3f62:	9b31      	ldr	r3, [sp, #196]	; 0xc4
    3f64:	9309      	str	r3, [sp, #36]	; 0x24
    3f66:	3301      	adds	r3, #1
    3f68:	9331      	str	r3, [sp, #196]	; 0xc4
    3f6a:	2b07      	cmp	r3, #7
    3f6c:	dc06      	bgt.n	0x3f7c
    3f6e:	2308      	movs	r3, #8
    3f70:	469c      	mov	ip, r3
    3f72:	44e3      	add	fp, ip
    3f74:	e00c      	b.n	0x3f90
    3f76:	46c0      	nop			; (mov r8, r8)
    3f78:	7474      	strb	r4, [r6, #17]
    3f7a:	0800      	lsrs	r0, r0, #32
    3f7c:	aa30      	add	r2, sp, #192	; 0xc0
    3f7e:	990a      	ldr	r1, [sp, #40]	; 0x28
    3f80:	4640      	mov	r0, r8
    3f82:	f002 fc99 	bl	0x68b8
    3f86:	2800      	cmp	r0, #0
    3f88:	d000      	beq.n	0x3f8c
    3f8a:	e13e      	b.n	0x420a
    3f8c:	ab33      	add	r3, sp, #204	; 0xcc
    3f8e:	469b      	mov	fp, r3
    3f90:	43e3      	mvns	r3, r4
    3f92:	17db      	asrs	r3, r3, #31
    3f94:	401c      	ands	r4, r3
    3f96:	9a27      	ldr	r2, [sp, #156]	; 0x9c
    3f98:	9b0b      	ldr	r3, [sp, #44]	; 0x2c
    3f9a:	1a9b      	subs	r3, r3, r2
    3f9c:	1b1c      	subs	r4, r3, r4
    3f9e:	2c00      	cmp	r4, #0
    3fa0:	dc00      	bgt.n	0x3fa4
    3fa2:	e0d1      	b.n	0x4148
    3fa4:	2610      	movs	r6, #16
    3fa6:	4658      	mov	r0, fp
    3fa8:	4647      	mov	r7, r8
    3faa:	4dbc      	ldr	r5, [pc, #752]	; (0x429c)
    3fac:	0001      	movs	r1, r0
    3fae:	9b31      	ldr	r3, [sp, #196]	; 0xc4
    3fb0:	9a32      	ldr	r2, [sp, #200]	; 0xc8
    3fb2:	9309      	str	r3, [sp, #36]	; 0x24
    3fb4:	3108      	adds	r1, #8
    3fb6:	3301      	adds	r3, #1
    3fb8:	2c10      	cmp	r4, #16
    3fba:	dd11      	ble.n	0x3fe0
    3fbc:	3210      	adds	r2, #16
    3fbe:	c060      	stmia	r0!, {r5, r6}
    3fc0:	9232      	str	r2, [sp, #200]	; 0xc8
    3fc2:	9331      	str	r3, [sp, #196]	; 0xc4
    3fc4:	2b07      	cmp	r3, #7
    3fc6:	dd08      	ble.n	0x3fda
    3fc8:	aa30      	add	r2, sp, #192	; 0xc0
    3fca:	990a      	ldr	r1, [sp, #40]	; 0x28
    3fcc:	0038      	movs	r0, r7
    3fce:	f002 fc73 	bl	0x68b8
    3fd2:	2800      	cmp	r0, #0
    3fd4:	d000      	beq.n	0x3fd8
    3fd6:	e11c      	b.n	0x4212
    3fd8:	a933      	add	r1, sp, #204	; 0xcc
    3fda:	3c10      	subs	r4, #16
    3fdc:	0008      	movs	r0, r1
    3fde:	e7e5      	b.n	0x3fac
    3fe0:	6044      	str	r4, [r0, #4]
    3fe2:	18a4      	adds	r4, r4, r2
    3fe4:	6005      	str	r5, [r0, #0]
    3fe6:	46b8      	mov	r8, r7
    3fe8:	9432      	str	r4, [sp, #200]	; 0xc8
    3fea:	9331      	str	r3, [sp, #196]	; 0xc4
    3fec:	468b      	mov	fp, r1
    3fee:	2b07      	cmp	r3, #7
    3ff0:	dc00      	bgt.n	0x3ff4
    3ff2:	e0a9      	b.n	0x4148
    3ff4:	e09f      	b.n	0x4136
    3ff6:	465d      	mov	r5, fp
    3ff8:	9b31      	ldr	r3, [sp, #196]	; 0xc4
    3ffa:	9a0b      	ldr	r2, [sp, #44]	; 0x2c
    3ffc:	930c      	str	r3, [sp, #48]	; 0x30
    3ffe:	3701      	adds	r7, #1
    4000:	3301      	adds	r3, #1
    4002:	3508      	adds	r5, #8
    4004:	2a01      	cmp	r2, #1
    4006:	dc03      	bgt.n	0x4010
    4008:	4652      	mov	r2, sl
    400a:	2101      	movs	r1, #1
    400c:	420a      	tst	r2, r1
    400e:	d076      	beq.n	0x40fe
    4010:	465a      	mov	r2, fp
    4012:	9909      	ldr	r1, [sp, #36]	; 0x24
    4014:	6011      	str	r1, [r2, #0]
    4016:	2101      	movs	r1, #1
    4018:	9732      	str	r7, [sp, #200]	; 0xc8
    401a:	6051      	str	r1, [r2, #4]
    401c:	9331      	str	r3, [sp, #196]	; 0xc4
    401e:	2b07      	cmp	r3, #7
    4020:	dd08      	ble.n	0x4034
    4022:	aa30      	add	r2, sp, #192	; 0xc0
    4024:	990a      	ldr	r1, [sp, #40]	; 0x28
    4026:	4640      	mov	r0, r8
    4028:	f002 fc46 	bl	0x68b8
    402c:	2800      	cmp	r0, #0
    402e:	d000      	beq.n	0x4032
    4030:	e0eb      	b.n	0x420a
    4032:	ad33      	add	r5, sp, #204	; 0xcc
    4034:	9a13      	ldr	r2, [sp, #76]	; 0x4c
    4036:	4694      	mov	ip, r2
    4038:	9b18      	ldr	r3, [sp, #96]	; 0x60
    403a:	602b      	str	r3, [r5, #0]
    403c:	9b13      	ldr	r3, [sp, #76]	; 0x4c
    403e:	606b      	str	r3, [r5, #4]
    4040:	9b32      	ldr	r3, [sp, #200]	; 0xc8
    4042:	4463      	add	r3, ip
    4044:	9332      	str	r3, [sp, #200]	; 0xc8
    4046:	9b31      	ldr	r3, [sp, #196]	; 0xc4
    4048:	930c      	str	r3, [sp, #48]	; 0x30
    404a:	3301      	adds	r3, #1
    404c:	9331      	str	r3, [sp, #196]	; 0xc4
    404e:	3508      	adds	r5, #8
    4050:	2b07      	cmp	r3, #7
    4052:	dd08      	ble.n	0x4066
    4054:	aa30      	add	r2, sp, #192	; 0xc0
    4056:	990a      	ldr	r1, [sp, #40]	; 0x28
    4058:	4640      	mov	r0, r8
    405a:	f002 fc2d 	bl	0x68b8
    405e:	2800      	cmp	r0, #0
    4060:	d000      	beq.n	0x4064
    4062:	e0d2      	b.n	0x420a
    4064:	ad33      	add	r5, sp, #204	; 0xcc
    4066:	9b0b      	ldr	r3, [sp, #44]	; 0x2c
    4068:	2200      	movs	r2, #0
    406a:	1e5c      	subs	r4, r3, #1
    406c:	980f      	ldr	r0, [sp, #60]	; 0x3c
    406e:	2300      	movs	r3, #0
    4070:	990e      	ldr	r1, [sp, #56]	; 0x38
    4072:	f003 f95d 	bl	0x7330
    4076:	2800      	cmp	r0, #0
    4078:	d11c      	bne.n	0x40b4
    407a:	990b      	ldr	r1, [sp, #44]	; 0x2c
    407c:	468c      	mov	ip, r1
    407e:	9b32      	ldr	r3, [sp, #200]	; 0xc8
    4080:	930c      	str	r3, [sp, #48]	; 0x30
    4082:	9b31      	ldr	r3, [sp, #196]	; 0xc4
    4084:	1c5a      	adds	r2, r3, #1
    4086:	930d      	str	r3, [sp, #52]	; 0x34
    4088:	9b09      	ldr	r3, [sp, #36]	; 0x24
    408a:	3301      	adds	r3, #1
    408c:	602b      	str	r3, [r5, #0]
    408e:	9b0c      	ldr	r3, [sp, #48]	; 0x30
    4090:	3b01      	subs	r3, #1
    4092:	4463      	add	r3, ip
    4094:	606c      	str	r4, [r5, #4]
    4096:	9332      	str	r3, [sp, #200]	; 0xc8
    4098:	9231      	str	r2, [sp, #196]	; 0xc4
    409a:	3508      	adds	r5, #8
    409c:	2a07      	cmp	r2, #7
    409e:	dd37      	ble.n	0x4110
    40a0:	aa30      	add	r2, sp, #192	; 0xc0
    40a2:	990a      	ldr	r1, [sp, #40]	; 0x28
    40a4:	4640      	mov	r0, r8
    40a6:	f002 fc07 	bl	0x68b8
    40aa:	2800      	cmp	r0, #0
    40ac:	d000      	beq.n	0x40b0
    40ae:	e0ac      	b.n	0x420a
    40b0:	ad33      	add	r5, sp, #204	; 0xcc
    40b2:	e02d      	b.n	0x4110
    40b4:	2c00      	cmp	r4, #0
    40b6:	dd2b      	ble.n	0x4110
    40b8:	2710      	movs	r7, #16
    40ba:	4e78      	ldr	r6, [pc, #480]	; (0x429c)
    40bc:	0029      	movs	r1, r5
    40be:	9b31      	ldr	r3, [sp, #196]	; 0xc4
    40c0:	9a32      	ldr	r2, [sp, #200]	; 0xc8
    40c2:	9309      	str	r3, [sp, #36]	; 0x24
    40c4:	3108      	adds	r1, #8
    40c6:	3301      	adds	r3, #1
    40c8:	602e      	str	r6, [r5, #0]
    40ca:	2c10      	cmp	r4, #16
    40cc:	dd11      	ble.n	0x40f2
    40ce:	3210      	adds	r2, #16
    40d0:	606f      	str	r7, [r5, #4]
    40d2:	9232      	str	r2, [sp, #200]	; 0xc8
    40d4:	9331      	str	r3, [sp, #196]	; 0xc4
    40d6:	2b07      	cmp	r3, #7
    40d8:	dd08      	ble.n	0x40ec
    40da:	aa30      	add	r2, sp, #192	; 0xc0
    40dc:	990a      	ldr	r1, [sp, #40]	; 0x28
    40de:	4640      	mov	r0, r8
    40e0:	f002 fbea 	bl	0x68b8
    40e4:	2800      	cmp	r0, #0
    40e6:	d000      	beq.n	0x40ea
    40e8:	e08f      	b.n	0x420a
    40ea:	a933      	add	r1, sp, #204	; 0xcc
    40ec:	3c10      	subs	r4, #16
    40ee:	000d      	movs	r5, r1
    40f0:	e7e4      	b.n	0x40bc
    40f2:	606c      	str	r4, [r5, #4]
    40f4:	18a4      	adds	r4, r4, r2
    40f6:	9432      	str	r4, [sp, #200]	; 0xc8
    40f8:	9331      	str	r3, [sp, #196]	; 0xc4
    40fa:	000d      	movs	r5, r1
    40fc:	e006      	b.n	0x410c
    40fe:	465a      	mov	r2, fp
    4100:	9909      	ldr	r1, [sp, #36]	; 0x24
    4102:	6011      	str	r1, [r2, #0]
    4104:	2101      	movs	r1, #1
    4106:	9732      	str	r7, [sp, #200]	; 0xc8
    4108:	6051      	str	r1, [r2, #4]
    410a:	9331      	str	r3, [sp, #196]	; 0xc4
    410c:	2b07      	cmp	r3, #7
    410e:	dcc7      	bgt.n	0x40a0
    4110:	9a1a      	ldr	r2, [sp, #104]	; 0x68
    4112:	4694      	mov	ip, r2
    4114:	ab2a      	add	r3, sp, #168	; 0xa8
    4116:	602b      	str	r3, [r5, #0]
    4118:	9b1a      	ldr	r3, [sp, #104]	; 0x68
    411a:	606b      	str	r3, [r5, #4]
    411c:	9b32      	ldr	r3, [sp, #200]	; 0xc8
    411e:	4463      	add	r3, ip
    4120:	9332      	str	r3, [sp, #200]	; 0xc8
    4122:	9b31      	ldr	r3, [sp, #196]	; 0xc4
    4124:	9309      	str	r3, [sp, #36]	; 0x24
    4126:	3301      	adds	r3, #1
    4128:	9331      	str	r3, [sp, #196]	; 0xc4
    412a:	2b07      	cmp	r3, #7
    412c:	dc03      	bgt.n	0x4136
    412e:	2308      	movs	r3, #8
    4130:	469b      	mov	fp, r3
    4132:	44ab      	add	fp, r5
    4134:	e008      	b.n	0x4148
    4136:	aa30      	add	r2, sp, #192	; 0xc0
    4138:	990a      	ldr	r1, [sp, #40]	; 0x28
    413a:	4640      	mov	r0, r8
    413c:	f002 fbbc 	bl	0x68b8
    4140:	2800      	cmp	r0, #0
    4142:	d162      	bne.n	0x420a
    4144:	ab33      	add	r3, sp, #204	; 0xcc
    4146:	469b      	mov	fp, r3
    4148:	4653      	mov	r3, sl
    414a:	075b      	lsls	r3, r3, #29
    414c:	d40e      	bmi.n	0x416c
    414e:	9b10      	ldr	r3, [sp, #64]	; 0x40
    4150:	9a15      	ldr	r2, [sp, #84]	; 0x54
    4152:	4293      	cmp	r3, r2
    4154:	da00      	bge.n	0x4158
    4156:	0013      	movs	r3, r2
    4158:	9a14      	ldr	r2, [sp, #80]	; 0x50
    415a:	4694      	mov	ip, r2
    415c:	449c      	add	ip, r3
    415e:	4663      	mov	r3, ip
    4160:	9314      	str	r3, [sp, #80]	; 0x50
    4162:	9b32      	ldr	r3, [sp, #200]	; 0xc8
    4164:	9309      	str	r3, [sp, #36]	; 0x24
    4166:	2b00      	cmp	r3, #0
    4168:	d038      	beq.n	0x41dc
    416a:	e030      	b.n	0x41ce
    416c:	9b10      	ldr	r3, [sp, #64]	; 0x40
    416e:	9a15      	ldr	r2, [sp, #84]	; 0x54
    4170:	1a9c      	subs	r4, r3, r2
    4172:	2c00      	cmp	r4, #0
    4174:	ddeb      	ble.n	0x414e
    4176:	2610      	movs	r6, #16
    4178:	4659      	mov	r1, fp
    417a:	4647      	mov	r7, r8
    417c:	4d48      	ldr	r5, [pc, #288]	; (0x42a0)
    417e:	9b31      	ldr	r3, [sp, #196]	; 0xc4
    4180:	9a32      	ldr	r2, [sp, #200]	; 0xc8
    4182:	9309      	str	r3, [sp, #36]	; 0x24
    4184:	3301      	adds	r3, #1
    4186:	2c10      	cmp	r4, #16
    4188:	dd11      	ble.n	0x41ae
    418a:	3210      	adds	r2, #16
    418c:	600d      	str	r5, [r1, #0]
    418e:	604e      	str	r6, [r1, #4]
    4190:	9232      	str	r2, [sp, #200]	; 0xc8
    4192:	9331      	str	r3, [sp, #196]	; 0xc4
    4194:	3108      	adds	r1, #8
    4196:	2b07      	cmp	r3, #7
    4198:	dd07      	ble.n	0x41aa
    419a:	aa30      	add	r2, sp, #192	; 0xc0
    419c:	990a      	ldr	r1, [sp, #40]	; 0x28
    419e:	0038      	movs	r0, r7
    41a0:	f002 fb8a 	bl	0x68b8
    41a4:	2800      	cmp	r0, #0
    41a6:	d134      	bne.n	0x4212
    41a8:	a933      	add	r1, sp, #204	; 0xcc
    41aa:	3c10      	subs	r4, #16
    41ac:	e7e7      	b.n	0x417e
    41ae:	604c      	str	r4, [r1, #4]
    41b0:	18a4      	adds	r4, r4, r2
    41b2:	46b8      	mov	r8, r7
    41b4:	600d      	str	r5, [r1, #0]
    41b6:	9432      	str	r4, [sp, #200]	; 0xc8
    41b8:	9331      	str	r3, [sp, #196]	; 0xc4
    41ba:	2b07      	cmp	r3, #7
    41bc:	ddc7      	ble.n	0x414e
    41be:	aa30      	add	r2, sp, #192	; 0xc0
    41c0:	990a      	ldr	r1, [sp, #40]	; 0x28
    41c2:	0038      	movs	r0, r7
    41c4:	f002 fb78 	bl	0x68b8
    41c8:	2800      	cmp	r0, #0
    41ca:	d0c0      	beq.n	0x414e
    41cc:	e01d      	b.n	0x420a
    41ce:	aa30      	add	r2, sp, #192	; 0xc0
    41d0:	990a      	ldr	r1, [sp, #40]	; 0x28
    41d2:	4640      	mov	r0, r8
    41d4:	f002 fb70 	bl	0x68b8
    41d8:	2800      	cmp	r0, #0
    41da:	d116      	bne.n	0x420a
    41dc:	2300      	movs	r3, #0
    41de:	9331      	str	r3, [sp, #196]	; 0xc4
    41e0:	9b08      	ldr	r3, [sp, #32]
    41e2:	2b00      	cmp	r3, #0
    41e4:	d003      	beq.n	0x41ee
    41e6:	9908      	ldr	r1, [sp, #32]
    41e8:	4640      	mov	r0, r8
    41ea:	f001 f999 	bl	0x5520
    41ee:	ab33      	add	r3, sp, #204	; 0xcc
    41f0:	469b      	mov	fp, r3
    41f2:	f7fe fdc6 	bl	0x2d82
    41f6:	9b32      	ldr	r3, [sp, #200]	; 0xc8
    41f8:	9308      	str	r3, [sp, #32]
    41fa:	2b00      	cmp	r3, #0
    41fc:	d013      	beq.n	0x4226
    41fe:	aa30      	add	r2, sp, #192	; 0xc0
    4200:	990a      	ldr	r1, [sp, #40]	; 0x28
    4202:	4640      	mov	r0, r8
    4204:	f002 fb58 	bl	0x68b8
    4208:	e00d      	b.n	0x4226
    420a:	9b08      	ldr	r3, [sp, #32]
    420c:	46c3      	mov	fp, r8
    420e:	469a      	mov	sl, r3
    4210:	e002      	b.n	0x4218
    4212:	9b08      	ldr	r3, [sp, #32]
    4214:	46bb      	mov	fp, r7
    4216:	469a      	mov	sl, r3
    4218:	4653      	mov	r3, sl
    421a:	2b00      	cmp	r3, #0
    421c:	d003      	beq.n	0x4226
    421e:	4651      	mov	r1, sl
    4220:	4658      	mov	r0, fp
    4222:	f001 f97d 	bl	0x5520
    4226:	9b0a      	ldr	r3, [sp, #40]	; 0x28
    4228:	899b      	ldrh	r3, [r3, #12]
    422a:	065b      	lsls	r3, r3, #25
    422c:	d52a      	bpl.n	0x4284
    422e:	2301      	movs	r3, #1
    4230:	425b      	negs	r3, r3
    4232:	9314      	str	r3, [sp, #80]	; 0x50
    4234:	e026      	b.n	0x4284
    4236:	9b25      	ldr	r3, [sp, #148]	; 0x94
    4238:	1c72      	adds	r2, r6, #1
    423a:	42b3      	cmp	r3, r6
    423c:	dc01      	bgt.n	0x4242
    423e:	f7fd ffa3 	bl	0x2188
    4242:	465b      	mov	r3, fp
    4244:	a97c      	add	r1, sp, #496	; 0x1f0
    4246:	00db      	lsls	r3, r3, #3
    4248:	585b      	ldr	r3, [r3, r1]
    424a:	e001      	b.n	0x4250
    424c:	9021      	str	r0, [sp, #132]	; 0x84
    424e:	680b      	ldr	r3, [r1, #0]
    4250:	9310      	str	r3, [sp, #64]	; 0x40
    4252:	f7fd ffa8 	bl	0x21a6
    4256:	9921      	ldr	r1, [sp, #132]	; 0x84
    4258:	1d0d      	adds	r5, r1, #4
    425a:	2b1f      	cmp	r3, #31
    425c:	dc08      	bgt.n	0x4270
    425e:	1c5e      	adds	r6, r3, #1
    4260:	9625      	str	r6, [sp, #148]	; 0x94
    4262:	680f      	ldr	r7, [r1, #0]
    4264:	00db      	lsls	r3, r3, #3
    4266:	a97c      	add	r1, sp, #496	; 0x1f0
    4268:	9521      	str	r5, [sp, #132]	; 0x84
    426a:	505f      	str	r7, [r3, r1]
    426c:	f7fd ffd8 	bl	0x2220
    4270:	9521      	str	r5, [sp, #132]	; 0x84
    4272:	680f      	ldr	r7, [r1, #0]
    4274:	f7fd ffd4 	bl	0x2220
    4278:	2a01      	cmp	r2, #1
    427a:	d001      	beq.n	0x4280
    427c:	f7ff fa33 	bl	0x36e6
    4280:	f7ff fa5b 	bl	0x373a
    4284:	9814      	ldr	r0, [sp, #80]	; 0x50
    4286:	23bd      	movs	r3, #189	; 0xbd
    4288:	009b      	lsls	r3, r3, #2
    428a:	449d      	add	sp, r3
    428c:	bc3c      	pop	{r2, r3, r4, r5}
    428e:	4690      	mov	r8, r2
    4290:	4699      	mov	r9, r3
    4292:	46a2      	mov	sl, r4
    4294:	46ab      	mov	fp, r5
    4296:	bcf0      	pop	{r4, r5, r6, r7}
    4298:	bc02      	pop	{r1}
    429a:	4708      	bx	r1
    429c:	7474      	strb	r4, [r6, #17]
    429e:	0800      	lsrs	r0, r0, #32
    42a0:	7464      	strb	r4, [r4, #17]
    42a2:	0800      	lsrs	r0, r0, #32
    42a4:	4730      	bx	r6
    42a6:	46c0      	nop			; (mov r8, r8)
    42a8:	b5f0      	push	{r4, r5, r6, r7, lr}
    42aa:	46c6      	mov	lr, r8
    42ac:	b500      	push	{lr}
    42ae:	0006      	movs	r6, r0
    42b0:	b084      	sub	sp, #16
    42b2:	000d      	movs	r5, r1
    42b4:	0017      	movs	r7, r2
    42b6:	1e1c      	subs	r4, r3, #0
    42b8:	d02d      	beq.n	0x4316
    42ba:	2d00      	cmp	r5, #0
    42bc:	d017      	beq.n	0x42ee
    42be:	f002 ff2d 	bl	0x711c
    42c2:	6b43      	ldr	r3, [r0, #52]	; 0x34
    42c4:	2b00      	cmp	r3, #0
    42c6:	d010      	beq.n	0x42ea
    42c8:	22e0      	movs	r2, #224	; 0xe0
    42ca:	589b      	ldr	r3, [r3, r2]
    42cc:	0029      	movs	r1, r5
    42ce:	4698      	mov	r8, r3
    42d0:	003a      	movs	r2, r7
    42d2:	0023      	movs	r3, r4
    42d4:	0030      	movs	r0, r6
    42d6:	f000 f828 	bl	0x432a
    42da:	1c43      	adds	r3, r0, #1
    42dc:	d016      	beq.n	0x430c
    42de:	b004      	add	sp, #16
    42e0:	bc04      	pop	{r2}
    42e2:	4690      	mov	r8, r2
    42e4:	bcf0      	pop	{r4, r5, r6, r7}
    42e6:	bc02      	pop	{r1}
    42e8:	4708      	bx	r1
    42ea:	4b0e      	ldr	r3, [pc, #56]	; (0x4324)
    42ec:	e7ec      	b.n	0x42c8
    42ee:	f002 ff15 	bl	0x711c
    42f2:	6b43      	ldr	r3, [r0, #52]	; 0x34
    42f4:	2b00      	cmp	r3, #0
    42f6:	d012      	beq.n	0x431e
    42f8:	22e0      	movs	r2, #224	; 0xe0
    42fa:	a901      	add	r1, sp, #4
    42fc:	589d      	ldr	r5, [r3, r2]
    42fe:	0030      	movs	r0, r6
    4300:	0023      	movs	r3, r4
    4302:	2200      	movs	r2, #0
    4304:	f000 f810 	bl	0x4328
    4308:	1c43      	adds	r3, r0, #1
    430a:	d1e8      	bne.n	0x42de
    430c:	2300      	movs	r3, #0
    430e:	6023      	str	r3, [r4, #0]
    4310:	338a      	adds	r3, #138	; 0x8a
    4312:	6033      	str	r3, [r6, #0]
    4314:	e7e3      	b.n	0x42de
    4316:	0004      	movs	r4, r0
    4318:	3415      	adds	r4, #21
    431a:	34ff      	adds	r4, #255	; 0xff
    431c:	e7cd      	b.n	0x42ba
    431e:	4b01      	ldr	r3, [pc, #4]	; (0x4324)
    4320:	e7ea      	b.n	0x42f8
    4322:	46c0      	nop			; (mov r8, r8)
    4324:	01ec      	lsls	r4, r5, #7
    4326:	0300      	lsls	r0, r0, #12
    4328:	4728      	bx	r5
    432a:	4740      	bx	r8
    432c:	b530      	push	{r4, r5, lr}
    432e:	2401      	movs	r4, #1
    4330:	b083      	sub	sp, #12
    4332:	9d06      	ldr	r5, [sp, #24]
    4334:	9300      	str	r3, [sp, #0]
    4336:	9501      	str	r5, [sp, #4]
    4338:	4263      	negs	r3, r4
    433a:	f002 fbe9 	bl	0x6b10
    433e:	b003      	add	sp, #12
    4340:	bc30      	pop	{r4, r5}
    4342:	bc02      	pop	{r1}
    4344:	4708      	bx	r1
    4346:	46c0      	nop			; (mov r8, r8)
    4348:	b5f0      	push	{r4, r5, r6, r7, lr}
    434a:	4657      	mov	r7, sl
    434c:	4645      	mov	r5, r8
    434e:	46de      	mov	lr, fp
    4350:	464e      	mov	r6, r9
    4352:	b5e0      	push	{r5, r6, r7, lr}
    4354:	690c      	ldr	r4, [r1, #16]
    4356:	6903      	ldr	r3, [r0, #16]
    4358:	b085      	sub	sp, #20
    435a:	0007      	movs	r7, r0
    435c:	4688      	mov	r8, r1
    435e:	42a3      	cmp	r3, r4
    4360:	da00      	bge.n	0x4364
    4362:	e09d      	b.n	0x44a0
    4364:	2114      	movs	r1, #20
    4366:	2214      	movs	r2, #20
    4368:	468c      	mov	ip, r1
    436a:	3c01      	subs	r4, #1
    436c:	4484      	add	ip, r0
    436e:	4442      	add	r2, r8
    4370:	00a3      	lsls	r3, r4, #2
    4372:	18d6      	adds	r6, r2, r3
    4374:	4463      	add	r3, ip
    4376:	9303      	str	r3, [sp, #12]
    4378:	681b      	ldr	r3, [r3, #0]
    437a:	4661      	mov	r1, ip
    437c:	469a      	mov	sl, r3
    437e:	6833      	ldr	r3, [r6, #0]
    4380:	3301      	adds	r3, #1
    4382:	9101      	str	r1, [sp, #4]
    4384:	4650      	mov	r0, sl
    4386:	0019      	movs	r1, r3
    4388:	9202      	str	r2, [sp, #8]
    438a:	4699      	mov	r9, r3
    438c:	f003 f80a 	bl	0x73a4
    4390:	0005      	movs	r5, r0
    4392:	45ca      	cmp	sl, r9
    4394:	d343      	bcc.n	0x441e
    4396:	9901      	ldr	r1, [sp, #4]
    4398:	2300      	movs	r3, #0
    439a:	468a      	mov	sl, r1
    439c:	46a4      	mov	ip, r4
    439e:	4650      	mov	r0, sl
    43a0:	2100      	movs	r1, #0
    43a2:	001c      	movs	r4, r3
    43a4:	46ba      	mov	sl, r7
    43a6:	9a02      	ldr	r2, [sp, #8]
    43a8:	9600      	str	r6, [sp, #0]
    43aa:	ca08      	ldmia	r2!, {r3}
    43ac:	041e      	lsls	r6, r3, #16
    43ae:	0c37      	lsrs	r7, r6, #16
    43b0:	003e      	movs	r6, r7
    43b2:	436e      	muls	r6, r5
    43b4:	46b3      	mov	fp, r6
    43b6:	44a3      	add	fp, r4
    43b8:	0c1c      	lsrs	r4, r3, #16
    43ba:	0023      	movs	r3, r4
    43bc:	436b      	muls	r3, r5
    43be:	465c      	mov	r4, fp
    43c0:	0c26      	lsrs	r6, r4, #16
    43c2:	199e      	adds	r6, r3, r6
    43c4:	6803      	ldr	r3, [r0, #0]
    43c6:	041f      	lsls	r7, r3, #16
    43c8:	0c3f      	lsrs	r7, r7, #16
    43ca:	187f      	adds	r7, r7, r1
    43cc:	4659      	mov	r1, fp
    43ce:	0409      	lsls	r1, r1, #16
    43d0:	0c09      	lsrs	r1, r1, #16
    43d2:	1a7f      	subs	r7, r7, r1
    43d4:	0431      	lsls	r1, r6, #16
    43d6:	0c09      	lsrs	r1, r1, #16
    43d8:	0c1b      	lsrs	r3, r3, #16
    43da:	1a5b      	subs	r3, r3, r1
    43dc:	1439      	asrs	r1, r7, #16
    43de:	185b      	adds	r3, r3, r1
    43e0:	0c34      	lsrs	r4, r6, #16
    43e2:	043e      	lsls	r6, r7, #16
    43e4:	1419      	asrs	r1, r3, #16
    43e6:	0c36      	lsrs	r6, r6, #16
    43e8:	041b      	lsls	r3, r3, #16
    43ea:	4333      	orrs	r3, r6
    43ec:	c008      	stmia	r0!, {r3}
    43ee:	9b00      	ldr	r3, [sp, #0]
    43f0:	4293      	cmp	r3, r2
    43f2:	d2da      	bcs.n	0x43aa
    43f4:	001e      	movs	r6, r3
    43f6:	9b03      	ldr	r3, [sp, #12]
    43f8:	681a      	ldr	r2, [r3, #0]
    43fa:	4664      	mov	r4, ip
    43fc:	4657      	mov	r7, sl
    43fe:	9200      	str	r2, [sp, #0]
    4400:	2a00      	cmp	r2, #0
    4402:	d10c      	bne.n	0x441e
    4404:	9a01      	ldr	r2, [sp, #4]
    4406:	3b04      	subs	r3, #4
    4408:	4293      	cmp	r3, r2
    440a:	d804      	bhi.n	0x4416
    440c:	e006      	b.n	0x441c
    440e:	3b04      	subs	r3, #4
    4410:	3c01      	subs	r4, #1
    4412:	4293      	cmp	r3, r2
    4414:	d902      	bls.n	0x441c
    4416:	6819      	ldr	r1, [r3, #0]
    4418:	2900      	cmp	r1, #0
    441a:	d0f8      	beq.n	0x440e
    441c:	613c      	str	r4, [r7, #16]
    441e:	4641      	mov	r1, r8
    4420:	0038      	movs	r0, r7
    4422:	f002 f893 	bl	0x654c
    4426:	2800      	cmp	r0, #0
    4428:	db30      	blt.n	0x448c
    442a:	2300      	movs	r3, #0
    442c:	3501      	adds	r5, #1
    442e:	46a0      	mov	r8, r4
    4430:	46ac      	mov	ip, r5
    4432:	001c      	movs	r4, r3
    4434:	9901      	ldr	r1, [sp, #4]
    4436:	9802      	ldr	r0, [sp, #8]
    4438:	680b      	ldr	r3, [r1, #0]
    443a:	c820      	ldmia	r0!, {r5}
    443c:	041a      	lsls	r2, r3, #16
    443e:	0c12      	lsrs	r2, r2, #16
    4440:	1912      	adds	r2, r2, r4
    4442:	042c      	lsls	r4, r5, #16
    4444:	0c24      	lsrs	r4, r4, #16
    4446:	1b12      	subs	r2, r2, r4
    4448:	0c1b      	lsrs	r3, r3, #16
    444a:	0c2c      	lsrs	r4, r5, #16
    444c:	1b1b      	subs	r3, r3, r4
    444e:	1414      	asrs	r4, r2, #16
    4450:	191b      	adds	r3, r3, r4
    4452:	0412      	lsls	r2, r2, #16
    4454:	141c      	asrs	r4, r3, #16
    4456:	0c12      	lsrs	r2, r2, #16
    4458:	041b      	lsls	r3, r3, #16
    445a:	4313      	orrs	r3, r2
    445c:	c108      	stmia	r1!, {r3}
    445e:	4286      	cmp	r6, r0
    4460:	d2ea      	bcs.n	0x4438
    4462:	9a01      	ldr	r2, [sp, #4]
    4464:	4644      	mov	r4, r8
    4466:	4665      	mov	r5, ip
    4468:	4694      	mov	ip, r2
    446a:	00a3      	lsls	r3, r4, #2
    446c:	4463      	add	r3, ip
    446e:	6819      	ldr	r1, [r3, #0]
    4470:	2900      	cmp	r1, #0
    4472:	d10b      	bne.n	0x448c
    4474:	3b04      	subs	r3, #4
    4476:	4293      	cmp	r3, r2
    4478:	d804      	bhi.n	0x4484
    447a:	e006      	b.n	0x448a
    447c:	3b04      	subs	r3, #4
    447e:	3c01      	subs	r4, #1
    4480:	4293      	cmp	r3, r2
    4482:	d902      	bls.n	0x448a
    4484:	6819      	ldr	r1, [r3, #0]
    4486:	2900      	cmp	r1, #0
    4488:	d0f8      	beq.n	0x447c
    448a:	613c      	str	r4, [r7, #16]
    448c:	0028      	movs	r0, r5
    448e:	b005      	add	sp, #20
    4490:	bc3c      	pop	{r2, r3, r4, r5}
    4492:	4690      	mov	r8, r2
    4494:	4699      	mov	r9, r3
    4496:	46a2      	mov	sl, r4
    4498:	46ab      	mov	fp, r5
    449a:	bcf0      	pop	{r4, r5, r6, r7}
    449c:	bc02      	pop	{r1}
    449e:	4708      	bx	r1
    44a0:	2000      	movs	r0, #0
    44a2:	e7f4      	b.n	0x448e
    44a4:	b5f0      	push	{r4, r5, r6, r7, lr}
    44a6:	4657      	mov	r7, sl
    44a8:	464e      	mov	r6, r9
    44aa:	46de      	mov	lr, fp
    44ac:	4645      	mov	r5, r8
    44ae:	b5e0      	push	{r5, r6, r7, lr}
    44b0:	0016      	movs	r6, r2
    44b2:	001f      	movs	r7, r3
    44b4:	6c01      	ldr	r1, [r0, #64]	; 0x40
    44b6:	b09b      	sub	sp, #108	; 0x6c
    44b8:	0004      	movs	r4, r0
    44ba:	9602      	str	r6, [sp, #8]
    44bc:	9703      	str	r7, [sp, #12]
    44be:	2900      	cmp	r1, #0
    44c0:	d008      	beq.n	0x44d4
    44c2:	2301      	movs	r3, #1
    44c4:	6c42      	ldr	r2, [r0, #68]	; 0x44
    44c6:	4093      	lsls	r3, r2
    44c8:	604a      	str	r2, [r1, #4]
    44ca:	608b      	str	r3, [r1, #8]
    44cc:	f001 fe08 	bl	0x60e0
    44d0:	2300      	movs	r3, #0
    44d2:	6423      	str	r3, [r4, #64]	; 0x40
    44d4:	1e3d      	subs	r5, r7, #0
    44d6:	da00      	bge.n	0x44da
    44d8:	e216      	b.n	0x4908
    44da:	2300      	movs	r3, #0
    44dc:	9a27      	ldr	r2, [sp, #156]	; 0x9c
    44de:	6013      	str	r3, [r2, #0]
    44e0:	002a      	movs	r2, r5
    44e2:	4bd2      	ldr	r3, [pc, #840]	; (0x482c)
    44e4:	401a      	ands	r2, r3
    44e6:	429a      	cmp	r2, r3
    44e8:	d100      	bne.n	0x44ec
    44ea:	e219      	b.n	0x4920
    44ec:	9a02      	ldr	r2, [sp, #8]
    44ee:	9b03      	ldr	r3, [sp, #12]
    44f0:	0010      	movs	r0, r2
    44f2:	0019      	movs	r1, r3
    44f4:	2200      	movs	r2, #0
    44f6:	2300      	movs	r3, #0
    44f8:	9008      	str	r0, [sp, #32]
    44fa:	9109      	str	r1, [sp, #36]	; 0x24
    44fc:	f002 ff18 	bl	0x7330
    4500:	2800      	cmp	r0, #0
    4502:	d013      	beq.n	0x452c
    4504:	2301      	movs	r3, #1
    4506:	9a26      	ldr	r2, [sp, #152]	; 0x98
    4508:	6013      	str	r3, [r2, #0]
    450a:	9b28      	ldr	r3, [sp, #160]	; 0xa0
    450c:	2b00      	cmp	r3, #0
    450e:	d100      	bne.n	0x4512
    4510:	e2cb      	b.n	0x4aaa
    4512:	4ec7      	ldr	r6, [pc, #796]	; (0x4830)
    4514:	601e      	str	r6, [r3, #0]
    4516:	3e01      	subs	r6, #1
    4518:	0030      	movs	r0, r6
    451a:	b01b      	add	sp, #108	; 0x6c
    451c:	bc3c      	pop	{r2, r3, r4, r5}
    451e:	4690      	mov	r8, r2
    4520:	4699      	mov	r9, r3
    4522:	46a2      	mov	sl, r4
    4524:	46ab      	mov	fp, r5
    4526:	bcf0      	pop	{r4, r5, r6, r7}
    4528:	bc02      	pop	{r1}
    452a:	4708      	bx	r1
    452c:	ab18      	add	r3, sp, #96	; 0x60
    452e:	9301      	str	r3, [sp, #4]
    4530:	ab19      	add	r3, sp, #100	; 0x64
    4532:	9300      	str	r3, [sp, #0]
    4534:	0020      	movs	r0, r4
    4536:	9a08      	ldr	r2, [sp, #32]
    4538:	9b09      	ldr	r3, [sp, #36]	; 0x24
    453a:	f002 f8b1 	bl	0x66a0
    453e:	0d2e      	lsrs	r6, r5, #20
    4540:	4682      	mov	sl, r0
    4542:	d000      	beq.n	0x4546
    4544:	e1fd      	b.n	0x4942
    4546:	9b18      	ldr	r3, [sp, #96]	; 0x60
    4548:	4698      	mov	r8, r3
    454a:	9b19      	ldr	r3, [sp, #100]	; 0x64
    454c:	4443      	add	r3, r8
    454e:	001e      	movs	r6, r3
    4550:	4bb8      	ldr	r3, [pc, #736]	; (0x4834)
    4552:	18f3      	adds	r3, r6, r3
    4554:	2b20      	cmp	r3, #32
    4556:	dc00      	bgt.n	0x455a
    4558:	e2a9      	b.n	0x4aae
    455a:	2240      	movs	r2, #64	; 0x40
    455c:	0028      	movs	r0, r5
    455e:	1ad3      	subs	r3, r2, r3
    4560:	4098      	lsls	r0, r3
    4562:	4bb5      	ldr	r3, [pc, #724]	; (0x4838)
    4564:	9a02      	ldr	r2, [sp, #8]
    4566:	18f3      	adds	r3, r6, r3
    4568:	40da      	lsrs	r2, r3
    456a:	4310      	orrs	r0, r2
    456c:	f002 fef4 	bl	0x7358
    4570:	2301      	movs	r3, #1
    4572:	4db2      	ldr	r5, [pc, #712]	; (0x483c)
    4574:	930f      	str	r3, [sp, #60]	; 0x3c
    4576:	1949      	adds	r1, r1, r5
    4578:	1e75      	subs	r5, r6, #1
    457a:	2200      	movs	r2, #0
    457c:	4bb0      	ldr	r3, [pc, #704]	; (0x4840)
    457e:	f002 fec1 	bl	0x7304
    4582:	4ab0      	ldr	r2, [pc, #704]	; (0x4844)
    4584:	4bb0      	ldr	r3, [pc, #704]	; (0x4848)
    4586:	f002 ff09 	bl	0x739c
    458a:	4ab0      	ldr	r2, [pc, #704]	; (0x484c)
    458c:	4bb0      	ldr	r3, [pc, #704]	; (0x4850)
    458e:	f002 fed7 	bl	0x7340
    4592:	0006      	movs	r6, r0
    4594:	0028      	movs	r0, r5
    4596:	000f      	movs	r7, r1
    4598:	f002 fee2 	bl	0x7360
    459c:	4aad      	ldr	r2, [pc, #692]	; (0x4854)
    459e:	4bae      	ldr	r3, [pc, #696]	; (0x4858)
    45a0:	f002 fefc 	bl	0x739c
    45a4:	0002      	movs	r2, r0
    45a6:	000b      	movs	r3, r1
    45a8:	0030      	movs	r0, r6
    45aa:	0039      	movs	r1, r7
    45ac:	f002 fec8 	bl	0x7340
    45b0:	0006      	movs	r6, r0
    45b2:	000f      	movs	r7, r1
    45b4:	f002 feae 	bl	0x7314
    45b8:	2200      	movs	r2, #0
    45ba:	4683      	mov	fp, r0
    45bc:	2300      	movs	r3, #0
    45be:	0030      	movs	r0, r6
    45c0:	0039      	movs	r1, r7
    45c2:	f002 feab 	bl	0x731c
    45c6:	2800      	cmp	r0, #0
    45c8:	d00b      	beq.n	0x45e2
    45ca:	4658      	mov	r0, fp
    45cc:	f002 fec8 	bl	0x7360
    45d0:	003b      	movs	r3, r7
    45d2:	0032      	movs	r2, r6
    45d4:	f002 feac 	bl	0x7330
    45d8:	4243      	negs	r3, r0
    45da:	4158      	adcs	r0, r3
    45dc:	465b      	mov	r3, fp
    45de:	1a1b      	subs	r3, r3, r0
    45e0:	469b      	mov	fp, r3
    45e2:	4643      	mov	r3, r8
    45e4:	1b5d      	subs	r5, r3, r5
    45e6:	1e6b      	subs	r3, r5, #1
    45e8:	9304      	str	r3, [sp, #16]
    45ea:	465b      	mov	r3, fp
    45ec:	2b16      	cmp	r3, #22
    45ee:	d900      	bls.n	0x45f2
    45f0:	e219      	b.n	0x4a26
    45f2:	00da      	lsls	r2, r3, #3
    45f4:	4b99      	ldr	r3, [pc, #612]	; (0x485c)
    45f6:	189b      	adds	r3, r3, r2
    45f8:	681a      	ldr	r2, [r3, #0]
    45fa:	685b      	ldr	r3, [r3, #4]
    45fc:	9808      	ldr	r0, [sp, #32]
    45fe:	9909      	ldr	r1, [sp, #36]	; 0x24
    4600:	f002 fe8c 	bl	0x731c
    4604:	2800      	cmp	r0, #0
    4606:	d100      	bne.n	0x460a
    4608:	e1ed      	b.n	0x49e6
    460a:	2301      	movs	r3, #1
    460c:	425b      	negs	r3, r3
    460e:	469c      	mov	ip, r3
    4610:	2300      	movs	r3, #0
    4612:	930e      	str	r3, [sp, #56]	; 0x38
    4614:	2300      	movs	r3, #0
    4616:	930a      	str	r3, [sp, #40]	; 0x28
    4618:	1e6b      	subs	r3, r5, #1
    461a:	44e3      	add	fp, ip
    461c:	2b00      	cmp	r3, #0
    461e:	da00      	bge.n	0x4622
    4620:	e209      	b.n	0x4a36
    4622:	465b      	mov	r3, fp
    4624:	2b00      	cmp	r3, #0
    4626:	db00      	blt.n	0x462a
    4628:	e1e4      	b.n	0x49f4
    462a:	465a      	mov	r2, fp
    462c:	9b0a      	ldr	r3, [sp, #40]	; 0x28
    462e:	1a9b      	subs	r3, r3, r2
    4630:	930a      	str	r3, [sp, #40]	; 0x28
    4632:	4253      	negs	r3, r2
    4634:	930d      	str	r3, [sp, #52]	; 0x34
    4636:	2300      	movs	r3, #0
    4638:	469b      	mov	fp, r3
    463a:	9b24      	ldr	r3, [sp, #144]	; 0x90
    463c:	9206      	str	r2, [sp, #24]
    463e:	2b09      	cmp	r3, #9
    4640:	d900      	bls.n	0x4644
    4642:	e1e2      	b.n	0x4a0a
    4644:	2501      	movs	r5, #1
    4646:	2b05      	cmp	r3, #5
    4648:	dd02      	ble.n	0x4650
    464a:	2500      	movs	r5, #0
    464c:	3b04      	subs	r3, #4
    464e:	9324      	str	r3, [sp, #144]	; 0x90
    4650:	9b24      	ldr	r3, [sp, #144]	; 0x90
    4652:	2b03      	cmp	r3, #3
    4654:	d101      	bne.n	0x465a
    4656:	f000 fd2f 	bl	0x50b8
    465a:	dc00      	bgt.n	0x465e
    465c:	e202      	b.n	0x4a64
    465e:	9b24      	ldr	r3, [sp, #144]	; 0x90
    4660:	2b04      	cmp	r3, #4
    4662:	d000      	beq.n	0x4666
    4664:	e1ed      	b.n	0x4a42
    4666:	2301      	movs	r3, #1
    4668:	930c      	str	r3, [sp, #48]	; 0x30
    466a:	9b25      	ldr	r3, [sp, #148]	; 0x94
    466c:	2b00      	cmp	r3, #0
    466e:	dc01      	bgt.n	0x4674
    4670:	f000 fc7a 	bl	0x4f68
    4674:	0018      	movs	r0, r3
    4676:	9316      	str	r3, [sp, #88]	; 0x58
    4678:	930b      	str	r3, [sp, #44]	; 0x2c
    467a:	2300      	movs	r3, #0
    467c:	220e      	movs	r2, #14
    467e:	990b      	ldr	r1, [sp, #44]	; 0x2c
    4680:	6463      	str	r3, [r4, #68]	; 0x44
    4682:	428a      	cmp	r2, r1
    4684:	415b      	adcs	r3, r3
    4686:	2100      	movs	r1, #0
    4688:	401d      	ands	r5, r3
    468a:	2817      	cmp	r0, #23
    468c:	dd07      	ble.n	0x469e
    468e:	2304      	movs	r3, #4
    4690:	005b      	lsls	r3, r3, #1
    4692:	001a      	movs	r2, r3
    4694:	3214      	adds	r2, #20
    4696:	3101      	adds	r1, #1
    4698:	4282      	cmp	r2, r0
    469a:	d9f9      	bls.n	0x4690
    469c:	6461      	str	r1, [r4, #68]	; 0x44
    469e:	0020      	movs	r0, r4
    46a0:	f001 fcf4 	bl	0x608c
    46a4:	9007      	str	r0, [sp, #28]
    46a6:	6420      	str	r0, [r4, #64]	; 0x40
    46a8:	2d00      	cmp	r5, #0
    46aa:	d100      	bne.n	0x46ae
    46ac:	e169      	b.n	0x4982
    46ae:	9806      	ldr	r0, [sp, #24]
    46b0:	2800      	cmp	r0, #0
    46b2:	dc00      	bgt.n	0x46b6
    46b4:	e374      	b.n	0x4da0
    46b6:	210f      	movs	r1, #15
    46b8:	0002      	movs	r2, r0
    46ba:	4b68      	ldr	r3, [pc, #416]	; (0x485c)
    46bc:	400a      	ands	r2, r1
    46be:	00d2      	lsls	r2, r2, #3
    46c0:	189b      	adds	r3, r3, r2
    46c2:	1105      	asrs	r5, r0, #4
    46c4:	681e      	ldr	r6, [r3, #0]
    46c6:	685f      	ldr	r7, [r3, #4]
    46c8:	06eb      	lsls	r3, r5, #27
    46ca:	d401      	bmi.n	0x46d0
    46cc:	f000 fc48 	bl	0x4f60
    46d0:	4b63      	ldr	r3, [pc, #396]	; (0x4860)
    46d2:	400d      	ands	r5, r1
    46d4:	6a1a      	ldr	r2, [r3, #32]
    46d6:	6a5b      	ldr	r3, [r3, #36]	; 0x24
    46d8:	9808      	ldr	r0, [sp, #32]
    46da:	9909      	ldr	r1, [sp, #36]	; 0x24
    46dc:	f002 fe66 	bl	0x73ac
    46e0:	2303      	movs	r3, #3
    46e2:	4699      	mov	r9, r3
    46e4:	9002      	str	r0, [sp, #8]
    46e6:	9103      	str	r1, [sp, #12]
    46e8:	2d00      	cmp	r5, #0
    46ea:	d016      	beq.n	0x471a
    46ec:	4b5c      	ldr	r3, [pc, #368]	; (0x4860)
    46ee:	4698      	mov	r8, r3
    46f0:	0023      	movs	r3, r4
    46f2:	4644      	mov	r4, r8
    46f4:	4698      	mov	r8, r3
    46f6:	2301      	movs	r3, #1
    46f8:	422b      	tst	r3, r5
    46fa:	d009      	beq.n	0x4710
    46fc:	469c      	mov	ip, r3
    46fe:	0030      	movs	r0, r6
    4700:	0039      	movs	r1, r7
    4702:	6822      	ldr	r2, [r4, #0]
    4704:	6863      	ldr	r3, [r4, #4]
    4706:	44e1      	add	r9, ip
    4708:	f002 fe48 	bl	0x739c
    470c:	0006      	movs	r6, r0
    470e:	000f      	movs	r7, r1
    4710:	106d      	asrs	r5, r5, #1
    4712:	3408      	adds	r4, #8
    4714:	2d00      	cmp	r5, #0
    4716:	d1ee      	bne.n	0x46f6
    4718:	4644      	mov	r4, r8
    471a:	9802      	ldr	r0, [sp, #8]
    471c:	9903      	ldr	r1, [sp, #12]
    471e:	0032      	movs	r2, r6
    4720:	003b      	movs	r3, r7
    4722:	f002 fe43 	bl	0x73ac
    4726:	9002      	str	r0, [sp, #8]
    4728:	9103      	str	r1, [sp, #12]
    472a:	9b0e      	ldr	r3, [sp, #56]	; 0x38
    472c:	2b00      	cmp	r3, #0
    472e:	d00b      	beq.n	0x4748
    4730:	9d02      	ldr	r5, [sp, #8]
    4732:	9e03      	ldr	r6, [sp, #12]
    4734:	2200      	movs	r2, #0
    4736:	4b4b      	ldr	r3, [pc, #300]	; (0x4864)
    4738:	0028      	movs	r0, r5
    473a:	0031      	movs	r1, r6
    473c:	f002 fdee 	bl	0x731c
    4740:	2800      	cmp	r0, #0
    4742:	d001      	beq.n	0x4748
    4744:	f000 fcc8 	bl	0x50d8
    4748:	4648      	mov	r0, r9
    474a:	f002 fe09 	bl	0x7360
    474e:	9a02      	ldr	r2, [sp, #8]
    4750:	9b03      	ldr	r3, [sp, #12]
    4752:	f002 fe23 	bl	0x739c
    4756:	4b44      	ldr	r3, [pc, #272]	; (0x4868)
    4758:	2200      	movs	r2, #0
    475a:	f002 fdf1 	bl	0x7340
    475e:	4b43      	ldr	r3, [pc, #268]	; (0x486c)
    4760:	18cf      	adds	r7, r1, r3
    4762:	9b0b      	ldr	r3, [sp, #44]	; 0x2c
    4764:	0006      	movs	r6, r0
    4766:	2b00      	cmp	r3, #0
    4768:	d100      	bne.n	0x476c
    476a:	e26e      	b.n	0x4c4a
    476c:	9b06      	ldr	r3, [sp, #24]
    476e:	9317      	str	r3, [sp, #92]	; 0x5c
    4770:	9b0b      	ldr	r3, [sp, #44]	; 0x2c
    4772:	9310      	str	r3, [sp, #64]	; 0x40
    4774:	9802      	ldr	r0, [sp, #8]
    4776:	9903      	ldr	r1, [sp, #12]
    4778:	f002 fdcc 	bl	0x7314
    477c:	9b07      	ldr	r3, [sp, #28]
    477e:	9910      	ldr	r1, [sp, #64]	; 0x40
    4780:	1c5a      	adds	r2, r3, #1
    4782:	4691      	mov	r9, r2
    4784:	4b35      	ldr	r3, [pc, #212]	; (0x485c)
    4786:	1e4a      	subs	r2, r1, #1
    4788:	00d2      	lsls	r2, r2, #3
    478a:	189b      	adds	r3, r3, r2
    478c:	6819      	ldr	r1, [r3, #0]
    478e:	685a      	ldr	r2, [r3, #4]
    4790:	9612      	str	r6, [sp, #72]	; 0x48
    4792:	9713      	str	r7, [sp, #76]	; 0x4c
    4794:	0005      	movs	r5, r0
    4796:	9114      	str	r1, [sp, #80]	; 0x50
    4798:	9215      	str	r2, [sp, #84]	; 0x54
    479a:	f002 fde1 	bl	0x7360
    479e:	0002      	movs	r2, r0
    47a0:	000b      	movs	r3, r1
    47a2:	9802      	ldr	r0, [sp, #8]
    47a4:	9903      	ldr	r1, [sp, #12]
    47a6:	f002 fdad 	bl	0x7304
    47aa:	3530      	adds	r5, #48	; 0x30
    47ac:	0006      	movs	r6, r0
    47ae:	980c      	ldr	r0, [sp, #48]	; 0x30
    47b0:	062d      	lsls	r5, r5, #24
    47b2:	0e2d      	lsrs	r5, r5, #24
    47b4:	000f      	movs	r7, r1
    47b6:	9a14      	ldr	r2, [sp, #80]	; 0x50
    47b8:	9b15      	ldr	r3, [sp, #84]	; 0x54
    47ba:	2800      	cmp	r0, #0
    47bc:	d101      	bne.n	0x47c2
    47be:	f000 fbe3 	bl	0x4f88
    47c2:	2000      	movs	r0, #0
    47c4:	492a      	ldr	r1, [pc, #168]	; (0x4870)
    47c6:	f002 fdf1 	bl	0x73ac
    47ca:	9a12      	ldr	r2, [sp, #72]	; 0x48
    47cc:	9b13      	ldr	r3, [sp, #76]	; 0x4c
    47ce:	f002 fd99 	bl	0x7304
    47d2:	9b07      	ldr	r3, [sp, #28]
    47d4:	0032      	movs	r2, r6
    47d6:	701d      	strb	r5, [r3, #0]
    47d8:	003b      	movs	r3, r7
    47da:	9012      	str	r0, [sp, #72]	; 0x48
    47dc:	9113      	str	r1, [sp, #76]	; 0x4c
    47de:	f002 fdb3 	bl	0x7348
    47e2:	2800      	cmp	r0, #0
    47e4:	d001      	beq.n	0x47ea
    47e6:	f000 fc22 	bl	0x502e
    47ea:	0032      	movs	r2, r6
    47ec:	003b      	movs	r3, r7
    47ee:	2000      	movs	r0, #0
    47f0:	491c      	ldr	r1, [pc, #112]	; (0x4864)
    47f2:	f002 fd87 	bl	0x7304
    47f6:	0002      	movs	r2, r0
    47f8:	000b      	movs	r3, r1
    47fa:	9812      	ldr	r0, [sp, #72]	; 0x48
    47fc:	9913      	ldr	r1, [sp, #76]	; 0x4c
    47fe:	f002 fda3 	bl	0x7348
    4802:	2800      	cmp	r0, #0
    4804:	d001      	beq.n	0x480a
    4806:	f000 fd98 	bl	0x533a
    480a:	9b10      	ldr	r3, [sp, #64]	; 0x40
    480c:	2b01      	cmp	r3, #1
    480e:	d100      	bne.n	0x4812
    4810:	e0b3      	b.n	0x497a
    4812:	9a07      	ldr	r2, [sp, #28]
    4814:	4694      	mov	ip, r2
    4816:	4463      	add	r3, ip
    4818:	9302      	str	r3, [sp, #8]
    481a:	465b      	mov	r3, fp
    481c:	9314      	str	r3, [sp, #80]	; 0x50
    481e:	4653      	mov	r3, sl
    4820:	46a3      	mov	fp, r4
    4822:	9310      	str	r3, [sp, #64]	; 0x40
    4824:	9c12      	ldr	r4, [sp, #72]	; 0x48
    4826:	9d13      	ldr	r5, [sp, #76]	; 0x4c
    4828:	e036      	b.n	0x4898
    482a:	46c0      	nop			; (mov r8, r8)
    482c:	0000      	movs	r0, r0
    482e:	7ff0      	ldrb	r0, [r6, #31]
    4830:	7495      	strb	r5, [r2, #18]
    4832:	0800      	lsrs	r0, r0, #32
    4834:	0432      	lsls	r2, r6, #16
    4836:	0000      	movs	r0, r0
    4838:	0412      	lsls	r2, r2, #16
    483a:	0000      	movs	r0, r0
    483c:	0000      	movs	r0, r0
    483e:	fe10 0000 			; <UNDEFINED> instruction: 0xfe100000
    4842:	3ff8      	subs	r7, #248	; 0xf8
    4844:	4361      	muls	r1, r4
    4846:	636f      	str	r7, [r5, #52]	; 0x34
    4848:	87a7      	strh	r7, [r4, #60]	; 0x3c
    484a:	3fd2      	subs	r7, #210	; 0xd2
    484c:	c8b3      	ldmia	r0, {r0, r1, r4, r5, r7}
    484e:	8b60      	ldrh	r0, [r4, #26]
    4850:	8a28      	ldrh	r0, [r5, #16]
    4852:	3fc6      	subs	r7, #198	; 0xc6
    4854:	79fb      	ldrb	r3, [r7, #7]
    4856:	509f      	str	r7, [r3, r2]
    4858:	4413      	add	r3, r2
    485a:	3fd3      	subs	r7, #211	; 0xd3
    485c:	7508      	strb	r0, [r1, #20]
    485e:	0800      	lsrs	r0, r0, #32
    4860:	74e0      	strb	r0, [r4, #19]
    4862:	0800      	lsrs	r0, r0, #32
    4864:	0000      	movs	r0, r0
    4866:	3ff0      	subs	r7, #240	; 0xf0
    4868:	0000      	movs	r0, r0
    486a:	401c      	ands	r4, r3
    486c:	0000      	movs	r0, r0
    486e:	fcc0 0000 			; <UNDEFINED> instruction: 0xfcc00000
    4872:	3fe0      	subs	r7, #224	; 0xe0
    4874:	0032      	movs	r2, r6
    4876:	003b      	movs	r3, r7
    4878:	2000      	movs	r0, #0
    487a:	498f      	ldr	r1, [pc, #572]	; (0x4ab8)
    487c:	f002 fd42 	bl	0x7304
    4880:	0022      	movs	r2, r4
    4882:	002b      	movs	r3, r5
    4884:	f002 fd4a 	bl	0x731c
    4888:	2800      	cmp	r0, #0
    488a:	d001      	beq.n	0x4890
    488c:	f000 fd8a 	bl	0x53a4
    4890:	9b02      	ldr	r3, [sp, #8]
    4892:	46c1      	mov	r9, r8
    4894:	4543      	cmp	r3, r8
    4896:	d06b      	beq.n	0x4970
    4898:	2200      	movs	r2, #0
    489a:	4b88      	ldr	r3, [pc, #544]	; (0x4abc)
    489c:	0020      	movs	r0, r4
    489e:	0029      	movs	r1, r5
    48a0:	f002 fd7c 	bl	0x739c
    48a4:	2200      	movs	r2, #0
    48a6:	4b85      	ldr	r3, [pc, #532]	; (0x4abc)
    48a8:	0004      	movs	r4, r0
    48aa:	000d      	movs	r5, r1
    48ac:	0030      	movs	r0, r6
    48ae:	0039      	movs	r1, r7
    48b0:	f002 fd74 	bl	0x739c
    48b4:	000f      	movs	r7, r1
    48b6:	0006      	movs	r6, r0
    48b8:	f002 fd2c 	bl	0x7314
    48bc:	4682      	mov	sl, r0
    48be:	f002 fd4f 	bl	0x7360
    48c2:	0002      	movs	r2, r0
    48c4:	000b      	movs	r3, r1
    48c6:	0030      	movs	r0, r6
    48c8:	0039      	movs	r1, r7
    48ca:	f002 fd1b 	bl	0x7304
    48ce:	2301      	movs	r3, #1
    48d0:	444b      	add	r3, r9
    48d2:	4698      	mov	r8, r3
    48d4:	4653      	mov	r3, sl
    48d6:	3330      	adds	r3, #48	; 0x30
    48d8:	061b      	lsls	r3, r3, #24
    48da:	0e1b      	lsrs	r3, r3, #24
    48dc:	469a      	mov	sl, r3
    48de:	464b      	mov	r3, r9
    48e0:	4652      	mov	r2, sl
    48e2:	701a      	strb	r2, [r3, #0]
    48e4:	0022      	movs	r2, r4
    48e6:	002b      	movs	r3, r5
    48e8:	0006      	movs	r6, r0
    48ea:	000f      	movs	r7, r1
    48ec:	f002 fd16 	bl	0x731c
    48f0:	2800      	cmp	r0, #0
    48f2:	d0bf      	beq.n	0x4874
    48f4:	9b10      	ldr	r3, [sp, #64]	; 0x40
    48f6:	469a      	mov	sl, r3
    48f8:	9b17      	ldr	r3, [sp, #92]	; 0x5c
    48fa:	3301      	adds	r3, #1
    48fc:	9306      	str	r3, [sp, #24]
    48fe:	4643      	mov	r3, r8
    4900:	9e07      	ldr	r6, [sp, #28]
    4902:	465c      	mov	r4, fp
    4904:	9307      	str	r3, [sp, #28]
    4906:	e17b      	b.n	0x4c00
    4908:	2301      	movs	r3, #1
    490a:	9a27      	ldr	r2, [sp, #156]	; 0x9c
    490c:	007d      	lsls	r5, r7, #1
    490e:	086d      	lsrs	r5, r5, #1
    4910:	6013      	str	r3, [r2, #0]
    4912:	002a      	movs	r2, r5
    4914:	4b6a      	ldr	r3, [pc, #424]	; (0x4ac0)
    4916:	9503      	str	r5, [sp, #12]
    4918:	401a      	ands	r2, r3
    491a:	429a      	cmp	r2, r3
    491c:	d000      	beq.n	0x4920
    491e:	e5e5      	b.n	0x44ec
    4920:	4b68      	ldr	r3, [pc, #416]	; (0x4ac4)
    4922:	9a26      	ldr	r2, [sp, #152]	; 0x98
    4924:	032e      	lsls	r6, r5, #12
    4926:	6013      	str	r3, [r2, #0]
    4928:	9b02      	ldr	r3, [sp, #8]
    492a:	0b36      	lsrs	r6, r6, #12
    492c:	431e      	orrs	r6, r3
    492e:	d017      	beq.n	0x4960
    4930:	9b28      	ldr	r3, [sp, #160]	; 0xa0
    4932:	4e65      	ldr	r6, [pc, #404]	; (0x4ac8)
    4934:	2b00      	cmp	r3, #0
    4936:	d100      	bne.n	0x493a
    4938:	e5ee      	b.n	0x4518
    493a:	1cf3      	adds	r3, r6, #3
    493c:	9a28      	ldr	r2, [sp, #160]	; 0xa0
    493e:	6013      	str	r3, [r2, #0]
    4940:	e5ea      	b.n	0x4518
    4942:	9a08      	ldr	r2, [sp, #32]
    4944:	9b09      	ldr	r3, [sp, #36]	; 0x24
    4946:	0010      	movs	r0, r2
    4948:	031b      	lsls	r3, r3, #12
    494a:	4a5b      	ldr	r2, [pc, #364]	; (0x4ab8)
    494c:	0b1b      	lsrs	r3, r3, #12
    494e:	431a      	orrs	r2, r3
    4950:	4b5e      	ldr	r3, [pc, #376]	; (0x4acc)
    4952:	18f5      	adds	r5, r6, r3
    4954:	9b18      	ldr	r3, [sp, #96]	; 0x60
    4956:	4698      	mov	r8, r3
    4958:	2300      	movs	r3, #0
    495a:	0011      	movs	r1, r2
    495c:	930f      	str	r3, [sp, #60]	; 0x3c
    495e:	e60c      	b.n	0x457a
    4960:	9b28      	ldr	r3, [sp, #160]	; 0xa0
    4962:	4e5b      	ldr	r6, [pc, #364]	; (0x4ad0)
    4964:	2b00      	cmp	r3, #0
    4966:	d100      	bne.n	0x496a
    4968:	e5d6      	b.n	0x4518
    496a:	0033      	movs	r3, r6
    496c:	3308      	adds	r3, #8
    496e:	e7e5      	b.n	0x493c
    4970:	9b10      	ldr	r3, [sp, #64]	; 0x40
    4972:	469a      	mov	sl, r3
    4974:	9b14      	ldr	r3, [sp, #80]	; 0x50
    4976:	465c      	mov	r4, fp
    4978:	469b      	mov	fp, r3
    497a:	9a08      	ldr	r2, [sp, #32]
    497c:	9b09      	ldr	r3, [sp, #36]	; 0x24
    497e:	9202      	str	r2, [sp, #8]
    4980:	9303      	str	r3, [sp, #12]
    4982:	220e      	movs	r2, #14
    4984:	2000      	movs	r0, #0
    4986:	9d06      	ldr	r5, [sp, #24]
    4988:	0feb      	lsrs	r3, r5, #31
    498a:	42aa      	cmp	r2, r5
    498c:	4143      	adcs	r3, r0
    498e:	9919      	ldr	r1, [sp, #100]	; 0x64
    4990:	061b      	lsls	r3, r3, #24
    4992:	d002      	beq.n	0x499a
    4994:	2900      	cmp	r1, #0
    4996:	db00      	blt.n	0x499a
    4998:	e23c      	b.n	0x4e14
    499a:	9b0c      	ldr	r3, [sp, #48]	; 0x30
    499c:	2b00      	cmp	r3, #0
    499e:	d100      	bne.n	0x49a2
    49a0:	e09a      	b.n	0x4ad8
    49a2:	9b24      	ldr	r3, [sp, #144]	; 0x90
    49a4:	2b01      	cmp	r3, #1
    49a6:	dc00      	bgt.n	0x49aa
    49a8:	e3be      	b.n	0x5128
    49aa:	9b0b      	ldr	r3, [sp, #44]	; 0x2c
    49ac:	1e5e      	subs	r6, r3, #1
    49ae:	9b0d      	ldr	r3, [sp, #52]	; 0x34
    49b0:	42b3      	cmp	r3, r6
    49b2:	db00      	blt.n	0x49b6
    49b4:	e372      	b.n	0x509c
    49b6:	9b0d      	ldr	r3, [sp, #52]	; 0x34
    49b8:	960d      	str	r6, [sp, #52]	; 0x34
    49ba:	1af2      	subs	r2, r6, r3
    49bc:	2600      	movs	r6, #0
    49be:	4493      	add	fp, r2
    49c0:	990a      	ldr	r1, [sp, #40]	; 0x28
    49c2:	9b0b      	ldr	r3, [sp, #44]	; 0x2c
    49c4:	1acd      	subs	r5, r1, r3
    49c6:	2b00      	cmp	r3, #0
    49c8:	db07      	blt.n	0x49da
    49ca:	9a04      	ldr	r2, [sp, #16]
    49cc:	469c      	mov	ip, r3
    49ce:	0010      	movs	r0, r2
    49d0:	000d      	movs	r5, r1
    49d2:	4460      	add	r0, ip
    49d4:	4461      	add	r1, ip
    49d6:	9004      	str	r0, [sp, #16]
    49d8:	910a      	str	r1, [sp, #40]	; 0x28
    49da:	2101      	movs	r1, #1
    49dc:	0020      	movs	r0, r4
    49de:	f001 fc23 	bl	0x6228
    49e2:	4681      	mov	r9, r0
    49e4:	e07c      	b.n	0x4ae0
    49e6:	1e6b      	subs	r3, r5, #1
    49e8:	2b00      	cmp	r3, #0
    49ea:	da00      	bge.n	0x49ee
    49ec:	e371      	b.n	0x50d2
    49ee:	2300      	movs	r3, #0
    49f0:	930e      	str	r3, [sp, #56]	; 0x38
    49f2:	930a      	str	r3, [sp, #40]	; 0x28
    49f4:	9b04      	ldr	r3, [sp, #16]
    49f6:	445b      	add	r3, fp
    49f8:	9304      	str	r3, [sp, #16]
    49fa:	465b      	mov	r3, fp
    49fc:	9306      	str	r3, [sp, #24]
    49fe:	2300      	movs	r3, #0
    4a00:	930d      	str	r3, [sp, #52]	; 0x34
    4a02:	9b24      	ldr	r3, [sp, #144]	; 0x90
    4a04:	2b09      	cmp	r3, #9
    4a06:	d800      	bhi.n	0x4a0a
    4a08:	e61c      	b.n	0x4644
    4a0a:	2201      	movs	r2, #1
    4a0c:	2300      	movs	r3, #0
    4a0e:	2500      	movs	r5, #0
    4a10:	920c      	str	r2, [sp, #48]	; 0x30
    4a12:	3a02      	subs	r2, #2
    4a14:	9324      	str	r3, [sp, #144]	; 0x90
    4a16:	920b      	str	r2, [sp, #44]	; 0x2c
    4a18:	9325      	str	r3, [sp, #148]	; 0x94
    4a1a:	2300      	movs	r3, #0
    4a1c:	6463      	str	r3, [r4, #68]	; 0x44
    4a1e:	9b0b      	ldr	r3, [sp, #44]	; 0x2c
    4a20:	2100      	movs	r1, #0
    4a22:	9316      	str	r3, [sp, #88]	; 0x58
    4a24:	e63b      	b.n	0x469e
    4a26:	2301      	movs	r3, #1
    4a28:	930e      	str	r3, [sp, #56]	; 0x38
    4a2a:	2300      	movs	r3, #0
    4a2c:	930a      	str	r3, [sp, #40]	; 0x28
    4a2e:	1e6b      	subs	r3, r5, #1
    4a30:	2b00      	cmp	r3, #0
    4a32:	db00      	blt.n	0x4a36
    4a34:	e5f5      	b.n	0x4622
    4a36:	2301      	movs	r3, #1
    4a38:	1b5b      	subs	r3, r3, r5
    4a3a:	930a      	str	r3, [sp, #40]	; 0x28
    4a3c:	2300      	movs	r3, #0
    4a3e:	9304      	str	r3, [sp, #16]
    4a40:	e5ef      	b.n	0x4622
    4a42:	2301      	movs	r3, #1
    4a44:	930c      	str	r3, [sp, #48]	; 0x30
    4a46:	9b24      	ldr	r3, [sp, #144]	; 0x90
    4a48:	2b05      	cmp	r3, #5
    4a4a:	d111      	bne.n	0x4a70
    4a4c:	9a06      	ldr	r2, [sp, #24]
    4a4e:	4694      	mov	ip, r2
    4a50:	9b25      	ldr	r3, [sp, #148]	; 0x94
    4a52:	4463      	add	r3, ip
    4a54:	9316      	str	r3, [sp, #88]	; 0x58
    4a56:	3301      	adds	r3, #1
    4a58:	930b      	str	r3, [sp, #44]	; 0x2c
    4a5a:	1e18      	subs	r0, r3, #0
    4a5c:	dd00      	ble.n	0x4a60
    4a5e:	e60c      	b.n	0x467a
    4a60:	2001      	movs	r0, #1
    4a62:	e60a      	b.n	0x467a
    4a64:	2300      	movs	r3, #0
    4a66:	930c      	str	r3, [sp, #48]	; 0x30
    4a68:	9b24      	ldr	r3, [sp, #144]	; 0x90
    4a6a:	2b02      	cmp	r3, #2
    4a6c:	d100      	bne.n	0x4a70
    4a6e:	e5fc      	b.n	0x466a
    4a70:	2500      	movs	r5, #0
    4a72:	0020      	movs	r0, r4
    4a74:	0029      	movs	r1, r5
    4a76:	6465      	str	r5, [r4, #68]	; 0x44
    4a78:	f001 fb08 	bl	0x608c
    4a7c:	220e      	movs	r2, #14
    4a7e:	9007      	str	r0, [sp, #28]
    4a80:	6420      	str	r0, [r4, #64]	; 0x40
    4a82:	9806      	ldr	r0, [sp, #24]
    4a84:	0fc3      	lsrs	r3, r0, #31
    4a86:	4282      	cmp	r2, r0
    4a88:	415d      	adcs	r5, r3
    4a8a:	062d      	lsls	r5, r5, #24
    4a8c:	9919      	ldr	r1, [sp, #100]	; 0x64
    4a8e:	0e2d      	lsrs	r5, r5, #24
    4a90:	d002      	beq.n	0x4a98
    4a92:	2900      	cmp	r1, #0
    4a94:	db00      	blt.n	0x4a98
    4a96:	e35f      	b.n	0x5158
    4a98:	2200      	movs	r2, #0
    4a9a:	2301      	movs	r3, #1
    4a9c:	9225      	str	r2, [sp, #148]	; 0x94
    4a9e:	425b      	negs	r3, r3
    4aa0:	3201      	adds	r2, #1
    4aa2:	930b      	str	r3, [sp, #44]	; 0x2c
    4aa4:	920c      	str	r2, [sp, #48]	; 0x30
    4aa6:	9316      	str	r3, [sp, #88]	; 0x58
    4aa8:	e77b      	b.n	0x49a2
    4aaa:	4e0a      	ldr	r6, [pc, #40]	; (0x4ad4)
    4aac:	e534      	b.n	0x4518
    4aae:	2220      	movs	r2, #32
    4ab0:	9802      	ldr	r0, [sp, #8]
    4ab2:	1ad3      	subs	r3, r2, r3
    4ab4:	4098      	lsls	r0, r3
    4ab6:	e559      	b.n	0x456c
    4ab8:	0000      	movs	r0, r0
    4aba:	3ff0      	subs	r7, #240	; 0xf0
    4abc:	0000      	movs	r0, r0
    4abe:	4024      	ands	r4, r4
    4ac0:	0000      	movs	r0, r0
    4ac2:	7ff0      	ldrb	r0, [r6, #31]
    4ac4:	270f      	movs	r7, #15
    4ac6:	0000      	movs	r0, r0
    4ac8:	7484      	strb	r4, [r0, #18]
    4aca:	0800      	lsrs	r0, r0, #32
    4acc:	fc01 ffff 			; <UNDEFINED> instruction: 0xfc01ffff
    4ad0:	7488      	strb	r0, [r1, #18]
    4ad2:	0800      	lsrs	r0, r0, #32
    4ad4:	7494      	strb	r4, [r2, #18]
    4ad6:	0800      	lsrs	r0, r0, #32
    4ad8:	2300      	movs	r3, #0
    4ada:	4699      	mov	r9, r3
    4adc:	9e0d      	ldr	r6, [sp, #52]	; 0x34
    4ade:	9d0a      	ldr	r5, [sp, #40]	; 0x28
    4ae0:	2d00      	cmp	r5, #0
    4ae2:	dd0d      	ble.n	0x4b00
    4ae4:	9a04      	ldr	r2, [sp, #16]
    4ae6:	2a00      	cmp	r2, #0
    4ae8:	dd0a      	ble.n	0x4b00
    4aea:	002b      	movs	r3, r5
    4aec:	4295      	cmp	r5, r2
    4aee:	dd00      	ble.n	0x4af2
    4af0:	e23e      	b.n	0x4f70
    4af2:	9a0a      	ldr	r2, [sp, #40]	; 0x28
    4af4:	1ad2      	subs	r2, r2, r3
    4af6:	920a      	str	r2, [sp, #40]	; 0x28
    4af8:	9a04      	ldr	r2, [sp, #16]
    4afa:	1aed      	subs	r5, r5, r3
    4afc:	1ad3      	subs	r3, r2, r3
    4afe:	9304      	str	r3, [sp, #16]
    4b00:	9b0d      	ldr	r3, [sp, #52]	; 0x34
    4b02:	2b00      	cmp	r3, #0
    4b04:	d00a      	beq.n	0x4b1c
    4b06:	9b0c      	ldr	r3, [sp, #48]	; 0x30
    4b08:	2b00      	cmp	r3, #0
    4b0a:	d100      	bne.n	0x4b0e
    4b0c:	e088      	b.n	0x4c20
    4b0e:	2e00      	cmp	r6, #0
    4b10:	dd00      	ble.n	0x4b14
    4b12:	e2b1      	b.n	0x5078
    4b14:	9b0d      	ldr	r3, [sp, #52]	; 0x34
    4b16:	1b9a      	subs	r2, r3, r6
    4b18:	d000      	beq.n	0x4b1c
    4b1a:	e082      	b.n	0x4c22
    4b1c:	2101      	movs	r1, #1
    4b1e:	0020      	movs	r0, r4
    4b20:	f001 fb82 	bl	0x6228
    4b24:	465b      	mov	r3, fp
    4b26:	4680      	mov	r8, r0
    4b28:	2b00      	cmp	r3, #0
    4b2a:	dd00      	ble.n	0x4b2e
    4b2c:	e192      	b.n	0x4e54
    4b2e:	9b24      	ldr	r3, [sp, #144]	; 0x90
    4b30:	2700      	movs	r7, #0
    4b32:	2b01      	cmp	r3, #1
    4b34:	dc00      	bgt.n	0x4b38
    4b36:	e2c2      	b.n	0x50be
    4b38:	465a      	mov	r2, fp
    4b3a:	2301      	movs	r3, #1
    4b3c:	2a00      	cmp	r2, #0
    4b3e:	d000      	beq.n	0x4b42
    4b40:	e193      	b.n	0x4e6a
    4b42:	9a04      	ldr	r2, [sp, #16]
    4b44:	4694      	mov	ip, r2
    4b46:	201f      	movs	r0, #31
    4b48:	4463      	add	r3, ip
    4b4a:	4018      	ands	r0, r3
    4b4c:	d100      	bne.n	0x4b50
    4b4e:	e09d      	b.n	0x4c8c
    4b50:	2320      	movs	r3, #32
    4b52:	1a1b      	subs	r3, r3, r0
    4b54:	2b04      	cmp	r3, #4
    4b56:	dc01      	bgt.n	0x4b5c
    4b58:	f000 fc84 	bl	0x5464
    4b5c:	231c      	movs	r3, #28
    4b5e:	1a18      	subs	r0, r3, r0
    4b60:	9b0a      	ldr	r3, [sp, #40]	; 0x28
    4b62:	469c      	mov	ip, r3
    4b64:	4484      	add	ip, r0
    4b66:	4663      	mov	r3, ip
    4b68:	4694      	mov	ip, r2
    4b6a:	4484      	add	ip, r0
    4b6c:	930a      	str	r3, [sp, #40]	; 0x28
    4b6e:	4663      	mov	r3, ip
    4b70:	9304      	str	r3, [sp, #16]
    4b72:	182d      	adds	r5, r5, r0
    4b74:	9b0a      	ldr	r3, [sp, #40]	; 0x28
    4b76:	2b00      	cmp	r3, #0
    4b78:	dd05      	ble.n	0x4b86
    4b7a:	4651      	mov	r1, sl
    4b7c:	001a      	movs	r2, r3
    4b7e:	0020      	movs	r0, r4
    4b80:	f001 fc7c 	bl	0x647c
    4b84:	4682      	mov	sl, r0
    4b86:	9b04      	ldr	r3, [sp, #16]
    4b88:	2b00      	cmp	r3, #0
    4b8a:	dd05      	ble.n	0x4b98
    4b8c:	4641      	mov	r1, r8
    4b8e:	001a      	movs	r2, r3
    4b90:	0020      	movs	r0, r4
    4b92:	f001 fc73 	bl	0x647c
    4b96:	4680      	mov	r8, r0
    4b98:	9b24      	ldr	r3, [sp, #144]	; 0x90
    4b9a:	2601      	movs	r6, #1
    4b9c:	2b02      	cmp	r3, #2
    4b9e:	dc00      	bgt.n	0x4ba2
    4ba0:	2600      	movs	r6, #0
    4ba2:	9b0e      	ldr	r3, [sp, #56]	; 0x38
    4ba4:	0636      	lsls	r6, r6, #24
    4ba6:	0e36      	lsrs	r6, r6, #24
    4ba8:	2b00      	cmp	r3, #0
    4baa:	d000      	beq.n	0x4bae
    4bac:	e168      	b.n	0x4e80
    4bae:	9b0b      	ldr	r3, [sp, #44]	; 0x2c
    4bb0:	2b00      	cmp	r3, #0
    4bb2:	dc78      	bgt.n	0x4ca6
    4bb4:	2e00      	cmp	r6, #0
    4bb6:	d076      	beq.n	0x4ca6
    4bb8:	9b0b      	ldr	r3, [sp, #44]	; 0x2c
    4bba:	2b00      	cmp	r3, #0
    4bbc:	d162      	bne.n	0x4c84
    4bbe:	4641      	mov	r1, r8
    4bc0:	2205      	movs	r2, #5
    4bc2:	0020      	movs	r0, r4
    4bc4:	f001 fa96 	bl	0x60f4
    4bc8:	4680      	mov	r8, r0
    4bca:	0001      	movs	r1, r0
    4bcc:	4650      	mov	r0, sl
    4bce:	f001 fcbd 	bl	0x654c
    4bd2:	2800      	cmp	r0, #0
    4bd4:	dd56      	ble.n	0x4c84
    4bd6:	2331      	movs	r3, #49	; 0x31
    4bd8:	9a07      	ldr	r2, [sp, #28]
    4bda:	0016      	movs	r6, r2
    4bdc:	7013      	strb	r3, [r2, #0]
    4bde:	9d06      	ldr	r5, [sp, #24]
    4be0:	1c53      	adds	r3, r2, #1
    4be2:	9307      	str	r3, [sp, #28]
    4be4:	3501      	adds	r5, #1
    4be6:	4641      	mov	r1, r8
    4be8:	0020      	movs	r0, r4
    4bea:	f001 fa79 	bl	0x60e0
    4bee:	1c6b      	adds	r3, r5, #1
    4bf0:	9306      	str	r3, [sp, #24]
    4bf2:	464b      	mov	r3, r9
    4bf4:	2b00      	cmp	r3, #0
    4bf6:	d003      	beq.n	0x4c00
    4bf8:	4649      	mov	r1, r9
    4bfa:	0020      	movs	r0, r4
    4bfc:	f001 fa70 	bl	0x60e0
    4c00:	4651      	mov	r1, sl
    4c02:	0020      	movs	r0, r4
    4c04:	f001 fa6c 	bl	0x60e0
    4c08:	2300      	movs	r3, #0
    4c0a:	9a07      	ldr	r2, [sp, #28]
    4c0c:	9906      	ldr	r1, [sp, #24]
    4c0e:	7013      	strb	r3, [r2, #0]
    4c10:	9b26      	ldr	r3, [sp, #152]	; 0x98
    4c12:	6019      	str	r1, [r3, #0]
    4c14:	9b28      	ldr	r3, [sp, #160]	; 0xa0
    4c16:	2b00      	cmp	r3, #0
    4c18:	d100      	bne.n	0x4c1c
    4c1a:	e47d      	b.n	0x4518
    4c1c:	601a      	str	r2, [r3, #0]
    4c1e:	e47b      	b.n	0x4518
    4c20:	9a0d      	ldr	r2, [sp, #52]	; 0x34
    4c22:	4651      	mov	r1, sl
    4c24:	0020      	movs	r0, r4
    4c26:	f001 fbc9 	bl	0x63bc
    4c2a:	4682      	mov	sl, r0
    4c2c:	e776      	b.n	0x4b1c
    4c2e:	4648      	mov	r0, r9
    4c30:	f002 fb96 	bl	0x7360
    4c34:	9a02      	ldr	r2, [sp, #8]
    4c36:	9b03      	ldr	r3, [sp, #12]
    4c38:	f002 fbb0 	bl	0x739c
    4c3c:	4bcd      	ldr	r3, [pc, #820]	; (0x4f74)
    4c3e:	2200      	movs	r2, #0
    4c40:	f002 fb7e 	bl	0x7340
    4c44:	0006      	movs	r6, r0
    4c46:	4bcc      	ldr	r3, [pc, #816]	; (0x4f78)
    4c48:	18cf      	adds	r7, r1, r3
    4c4a:	2200      	movs	r2, #0
    4c4c:	4bcb      	ldr	r3, [pc, #812]	; (0x4f7c)
    4c4e:	9802      	ldr	r0, [sp, #8]
    4c50:	9903      	ldr	r1, [sp, #12]
    4c52:	f002 fb57 	bl	0x7304
    4c56:	0032      	movs	r2, r6
    4c58:	003b      	movs	r3, r7
    4c5a:	9002      	str	r0, [sp, #8]
    4c5c:	9103      	str	r1, [sp, #12]
    4c5e:	f002 fb73 	bl	0x7348
    4c62:	2800      	cmp	r0, #0
    4c64:	d000      	beq.n	0x4c68
    4c66:	e273      	b.n	0x5150
    4c68:	2180      	movs	r1, #128	; 0x80
    4c6a:	0609      	lsls	r1, r1, #24
    4c6c:	187b      	adds	r3, r7, r1
    4c6e:	0032      	movs	r2, r6
    4c70:	9802      	ldr	r0, [sp, #8]
    4c72:	9903      	ldr	r1, [sp, #12]
    4c74:	f002 fb52 	bl	0x731c
    4c78:	2800      	cmp	r0, #0
    4c7a:	d100      	bne.n	0x4c7e
    4c7c:	e67d      	b.n	0x497a
    4c7e:	2300      	movs	r3, #0
    4c80:	4698      	mov	r8, r3
    4c82:	4699      	mov	r9, r3
    4c84:	9b25      	ldr	r3, [sp, #148]	; 0x94
    4c86:	9e07      	ldr	r6, [sp, #28]
    4c88:	43dd      	mvns	r5, r3
    4c8a:	e7ac      	b.n	0x4be6
    4c8c:	201c      	movs	r0, #28
    4c8e:	9b0a      	ldr	r3, [sp, #40]	; 0x28
    4c90:	469c      	mov	ip, r3
    4c92:	4484      	add	ip, r0
    4c94:	4663      	mov	r3, ip
    4c96:	930a      	str	r3, [sp, #40]	; 0x28
    4c98:	9b04      	ldr	r3, [sp, #16]
    4c9a:	469c      	mov	ip, r3
    4c9c:	4484      	add	ip, r0
    4c9e:	4663      	mov	r3, ip
    4ca0:	182d      	adds	r5, r5, r0
    4ca2:	9304      	str	r3, [sp, #16]
    4ca4:	e766      	b.n	0x4b74
    4ca6:	9b06      	ldr	r3, [sp, #24]
    4ca8:	3301      	adds	r3, #1
    4caa:	9306      	str	r3, [sp, #24]
    4cac:	9b0c      	ldr	r3, [sp, #48]	; 0x30
    4cae:	2b00      	cmp	r3, #0
    4cb0:	d100      	bne.n	0x4cb4
    4cb2:	e104      	b.n	0x4ebe
    4cb4:	2d00      	cmp	r5, #0
    4cb6:	dd05      	ble.n	0x4cc4
    4cb8:	4649      	mov	r1, r9
    4cba:	002a      	movs	r2, r5
    4cbc:	0020      	movs	r0, r4
    4cbe:	f001 fbdd 	bl	0x647c
    4cc2:	4681      	mov	r9, r0
    4cc4:	46cb      	mov	fp, r9
    4cc6:	2f00      	cmp	r7, #0
    4cc8:	d000      	beq.n	0x4ccc
    4cca:	e355      	b.n	0x5378
    4ccc:	9a0b      	ldr	r2, [sp, #44]	; 0x2c
    4cce:	4694      	mov	ip, r2
    4cd0:	9b07      	ldr	r3, [sp, #28]
    4cd2:	001e      	movs	r6, r3
    4cd4:	3b01      	subs	r3, #1
    4cd6:	449c      	add	ip, r3
    4cd8:	4663      	mov	r3, ip
    4cda:	930a      	str	r3, [sp, #40]	; 0x28
    4cdc:	2301      	movs	r3, #1
    4cde:	9a02      	ldr	r2, [sp, #8]
    4ce0:	401a      	ands	r2, r3
    4ce2:	4643      	mov	r3, r8
    4ce4:	4657      	mov	r7, sl
    4ce6:	46b0      	mov	r8, r6
    4ce8:	464e      	mov	r6, r9
    4cea:	46d9      	mov	r9, fp
    4cec:	469b      	mov	fp, r3
    4cee:	9208      	str	r2, [sp, #32]
    4cf0:	4659      	mov	r1, fp
    4cf2:	0038      	movs	r0, r7
    4cf4:	f7ff fb28 	bl	0x4348
    4cf8:	0003      	movs	r3, r0
    4cfa:	900b      	str	r0, [sp, #44]	; 0x2c
    4cfc:	3330      	adds	r3, #48	; 0x30
    4cfe:	0031      	movs	r1, r6
    4d00:	0038      	movs	r0, r7
    4d02:	9304      	str	r3, [sp, #16]
    4d04:	f001 fc22 	bl	0x654c
    4d08:	4659      	mov	r1, fp
    4d0a:	0005      	movs	r5, r0
    4d0c:	464a      	mov	r2, r9
    4d0e:	0020      	movs	r0, r4
    4d10:	f001 fc38 	bl	0x6584
    4d14:	68c3      	ldr	r3, [r0, #12]
    4d16:	4682      	mov	sl, r0
    4d18:	0001      	movs	r1, r0
    4d1a:	2b00      	cmp	r3, #0
    4d1c:	d000      	beq.n	0x4d20
    4d1e:	e1bf      	b.n	0x50a0
    4d20:	0038      	movs	r0, r7
    4d22:	f001 fc13 	bl	0x654c
    4d26:	4651      	mov	r1, sl
    4d28:	9002      	str	r0, [sp, #8]
    4d2a:	0020      	movs	r0, r4
    4d2c:	f001 f9d8 	bl	0x60e0
    4d30:	9a24      	ldr	r2, [sp, #144]	; 0x90
    4d32:	9b02      	ldr	r3, [sp, #8]
    4d34:	4313      	orrs	r3, r2
    4d36:	9a08      	ldr	r2, [sp, #32]
    4d38:	4313      	orrs	r3, r2
    4d3a:	d100      	bne.n	0x4d3e
    4d3c:	e370      	b.n	0x5420
    4d3e:	2301      	movs	r3, #1
    4d40:	4443      	add	r3, r8
    4d42:	469a      	mov	sl, r3
    4d44:	2d00      	cmp	r5, #0
    4d46:	da00      	bge.n	0x4d4a
    4d48:	e2c4      	b.n	0x52d4
    4d4a:	9b24      	ldr	r3, [sp, #144]	; 0x90
    4d4c:	431d      	orrs	r5, r3
    4d4e:	9b08      	ldr	r3, [sp, #32]
    4d50:	431d      	orrs	r5, r3
    4d52:	d100      	bne.n	0x4d56
    4d54:	e2be      	b.n	0x52d4
    4d56:	9b02      	ldr	r3, [sp, #8]
    4d58:	2b00      	cmp	r3, #0
    4d5a:	dd00      	ble.n	0x4d5e
    4d5c:	e32d      	b.n	0x53ba
    4d5e:	4643      	mov	r3, r8
    4d60:	9a04      	ldr	r2, [sp, #16]
    4d62:	701a      	strb	r2, [r3, #0]
    4d64:	9b0a      	ldr	r3, [sp, #40]	; 0x28
    4d66:	4543      	cmp	r3, r8
    4d68:	d100      	bne.n	0x4d6c
    4d6a:	e33d      	b.n	0x53e8
    4d6c:	0039      	movs	r1, r7
    4d6e:	2300      	movs	r3, #0
    4d70:	220a      	movs	r2, #10
    4d72:	0020      	movs	r0, r4
    4d74:	f001 f9be 	bl	0x60f4
    4d78:	2300      	movs	r3, #0
    4d7a:	0007      	movs	r7, r0
    4d7c:	220a      	movs	r2, #10
    4d7e:	0031      	movs	r1, r6
    4d80:	0020      	movs	r0, r4
    4d82:	454e      	cmp	r6, r9
    4d84:	d100      	bne.n	0x4d88
    4d86:	e191      	b.n	0x50ac
    4d88:	f001 f9b4 	bl	0x60f4
    4d8c:	4649      	mov	r1, r9
    4d8e:	0006      	movs	r6, r0
    4d90:	2300      	movs	r3, #0
    4d92:	220a      	movs	r2, #10
    4d94:	0020      	movs	r0, r4
    4d96:	f001 f9ad 	bl	0x60f4
    4d9a:	46d0      	mov	r8, sl
    4d9c:	4681      	mov	r9, r0
    4d9e:	e7a7      	b.n	0x4cf0
    4da0:	9b06      	ldr	r3, [sp, #24]
    4da2:	2b00      	cmp	r3, #0
    4da4:	d100      	bne.n	0x4da8
    4da6:	e14d      	b.n	0x5044
    4da8:	9b06      	ldr	r3, [sp, #24]
    4daa:	425e      	negs	r6, r3
    4dac:	230f      	movs	r3, #15
    4dae:	4a74      	ldr	r2, [pc, #464]	; (0x4f80)
    4db0:	4033      	ands	r3, r6
    4db2:	00db      	lsls	r3, r3, #3
    4db4:	18d3      	adds	r3, r2, r3
    4db6:	681a      	ldr	r2, [r3, #0]
    4db8:	685b      	ldr	r3, [r3, #4]
    4dba:	9808      	ldr	r0, [sp, #32]
    4dbc:	9909      	ldr	r1, [sp, #36]	; 0x24
    4dbe:	f002 faed 	bl	0x739c
    4dc2:	1136      	asrs	r6, r6, #4
    4dc4:	9010      	str	r0, [sp, #64]	; 0x40
    4dc6:	9111      	str	r1, [sp, #68]	; 0x44
    4dc8:	2e00      	cmp	r6, #0
    4dca:	d100      	bne.n	0x4dce
    4dcc:	e136      	b.n	0x503c
    4dce:	2202      	movs	r2, #2
    4dd0:	4691      	mov	r9, r2
    4dd2:	3a01      	subs	r2, #1
    4dd4:	4690      	mov	r8, r2
    4dd6:	0022      	movs	r2, r4
    4dd8:	2300      	movs	r3, #0
    4dda:	002c      	movs	r4, r5
    4ddc:	464d      	mov	r5, r9
    4dde:	4691      	mov	r9, r2
    4de0:	4f68      	ldr	r7, [pc, #416]	; (0x4f84)
    4de2:	4642      	mov	r2, r8
    4de4:	4232      	tst	r2, r6
    4de6:	d005      	beq.n	0x4df4
    4de8:	683a      	ldr	r2, [r7, #0]
    4dea:	687b      	ldr	r3, [r7, #4]
    4dec:	f002 fad6 	bl	0x739c
    4df0:	0023      	movs	r3, r4
    4df2:	3501      	adds	r5, #1
    4df4:	1076      	asrs	r6, r6, #1
    4df6:	3708      	adds	r7, #8
    4df8:	2e00      	cmp	r6, #0
    4dfa:	d1f2      	bne.n	0x4de2
    4dfc:	464c      	mov	r4, r9
    4dfe:	9002      	str	r0, [sp, #8]
    4e00:	9103      	str	r1, [sp, #12]
    4e02:	46a9      	mov	r9, r5
    4e04:	2b00      	cmp	r3, #0
    4e06:	d000      	beq.n	0x4e0a
    4e08:	e48f      	b.n	0x472a
    4e0a:	9a10      	ldr	r2, [sp, #64]	; 0x40
    4e0c:	9b11      	ldr	r3, [sp, #68]	; 0x44
    4e0e:	9202      	str	r2, [sp, #8]
    4e10:	9303      	str	r3, [sp, #12]
    4e12:	e48a      	b.n	0x472a
    4e14:	4b5a      	ldr	r3, [pc, #360]	; (0x4f80)
    4e16:	00ea      	lsls	r2, r5, #3
    4e18:	189b      	adds	r3, r3, r2
    4e1a:	6818      	ldr	r0, [r3, #0]
    4e1c:	6859      	ldr	r1, [r3, #4]
    4e1e:	9b25      	ldr	r3, [sp, #148]	; 0x94
    4e20:	9004      	str	r0, [sp, #16]
    4e22:	9105      	str	r1, [sp, #20]
    4e24:	2b00      	cmp	r3, #0
    4e26:	db00      	blt.n	0x4e2a
    4e28:	e1a1      	b.n	0x516e
    4e2a:	9b0b      	ldr	r3, [sp, #44]	; 0x2c
    4e2c:	2b00      	cmp	r3, #0
    4e2e:	dd00      	ble.n	0x4e32
    4e30:	e19d      	b.n	0x516e
    4e32:	d000      	beq.n	0x4e36
    4e34:	e723      	b.n	0x4c7e
    4e36:	2200      	movs	r2, #0
    4e38:	4b50      	ldr	r3, [pc, #320]	; (0x4f7c)
    4e3a:	f002 faaf 	bl	0x739c
    4e3e:	9a02      	ldr	r2, [sp, #8]
    4e40:	9b03      	ldr	r3, [sp, #12]
    4e42:	f002 fa5b 	bl	0x72fc
    4e46:	2300      	movs	r3, #0
    4e48:	4698      	mov	r8, r3
    4e4a:	4699      	mov	r9, r3
    4e4c:	2800      	cmp	r0, #0
    4e4e:	d000      	beq.n	0x4e52
    4e50:	e718      	b.n	0x4c84
    4e52:	e6c0      	b.n	0x4bd6
    4e54:	0001      	movs	r1, r0
    4e56:	465a      	mov	r2, fp
    4e58:	0020      	movs	r0, r4
    4e5a:	f001 faaf 	bl	0x63bc
    4e5e:	9b24      	ldr	r3, [sp, #144]	; 0x90
    4e60:	4680      	mov	r8, r0
    4e62:	2700      	movs	r7, #0
    4e64:	2b01      	cmp	r3, #1
    4e66:	dc00      	bgt.n	0x4e6a
    4e68:	e0f0      	b.n	0x504c
    4e6a:	4643      	mov	r3, r8
    4e6c:	691b      	ldr	r3, [r3, #16]
    4e6e:	3303      	adds	r3, #3
    4e70:	009b      	lsls	r3, r3, #2
    4e72:	4443      	add	r3, r8
    4e74:	6858      	ldr	r0, [r3, #4]
    4e76:	f001 f98d 	bl	0x6194
    4e7a:	2320      	movs	r3, #32
    4e7c:	1a1b      	subs	r3, r3, r0
    4e7e:	e660      	b.n	0x4b42
    4e80:	4641      	mov	r1, r8
    4e82:	4650      	mov	r0, sl
    4e84:	f001 fb62 	bl	0x654c
    4e88:	2800      	cmp	r0, #0
    4e8a:	db00      	blt.n	0x4e8e
    4e8c:	e68f      	b.n	0x4bae
    4e8e:	9b06      	ldr	r3, [sp, #24]
    4e90:	3b01      	subs	r3, #1
    4e92:	220a      	movs	r2, #10
    4e94:	4651      	mov	r1, sl
    4e96:	469b      	mov	fp, r3
    4e98:	0020      	movs	r0, r4
    4e9a:	2300      	movs	r3, #0
    4e9c:	f001 f92a 	bl	0x60f4
    4ea0:	9a16      	ldr	r2, [sp, #88]	; 0x58
    4ea2:	1e53      	subs	r3, r2, #1
    4ea4:	4313      	orrs	r3, r2
    4ea6:	0fdb      	lsrs	r3, r3, #31
    4ea8:	401e      	ands	r6, r3
    4eaa:	9b0c      	ldr	r3, [sp, #48]	; 0x30
    4eac:	4682      	mov	sl, r0
    4eae:	2b00      	cmp	r3, #0
    4eb0:	d000      	beq.n	0x4eb4
    4eb2:	e2c3      	b.n	0x543c
    4eb4:	2e00      	cmp	r6, #0
    4eb6:	d000      	beq.n	0x4eba
    4eb8:	e2ac      	b.n	0x5414
    4eba:	9b16      	ldr	r3, [sp, #88]	; 0x58
    4ebc:	930b      	str	r3, [sp, #44]	; 0x2c
    4ebe:	2301      	movs	r3, #1
    4ec0:	9a07      	ldr	r2, [sp, #28]
    4ec2:	1a9e      	subs	r6, r3, r2
    4ec4:	0033      	movs	r3, r6
    4ec6:	46a3      	mov	fp, r4
    4ec8:	4656      	mov	r6, sl
    4eca:	0015      	movs	r5, r2
    4ecc:	9c0b      	ldr	r4, [sp, #44]	; 0x2c
    4ece:	469a      	mov	sl, r3
    4ed0:	e007      	b.n	0x4ee2
    4ed2:	0031      	movs	r1, r6
    4ed4:	2300      	movs	r3, #0
    4ed6:	220a      	movs	r2, #10
    4ed8:	4658      	mov	r0, fp
    4eda:	f001 f90b 	bl	0x60f4
    4ede:	003d      	movs	r5, r7
    4ee0:	0006      	movs	r6, r0
    4ee2:	4641      	mov	r1, r8
    4ee4:	0030      	movs	r0, r6
    4ee6:	f7ff fa2f 	bl	0x4348
    4eea:	3030      	adds	r0, #48	; 0x30
    4eec:	1c6f      	adds	r7, r5, #1
    4eee:	7028      	strb	r0, [r5, #0]
    4ef0:	4455      	add	r5, sl
    4ef2:	42a5      	cmp	r5, r4
    4ef4:	dbed      	blt.n	0x4ed2
    4ef6:	46b2      	mov	sl, r6
    4ef8:	465c      	mov	r4, fp
    4efa:	2500      	movs	r5, #0
    4efc:	9004      	str	r0, [sp, #16]
    4efe:	4651      	mov	r1, sl
    4f00:	2201      	movs	r2, #1
    4f02:	0020      	movs	r0, r4
    4f04:	f001 faba 	bl	0x647c
    4f08:	4641      	mov	r1, r8
    4f0a:	4682      	mov	sl, r0
    4f0c:	f001 fb1e 	bl	0x654c
    4f10:	1e7b      	subs	r3, r7, #1
    4f12:	7819      	ldrb	r1, [r3, #0]
    4f14:	2800      	cmp	r0, #0
    4f16:	dc00      	bgt.n	0x4f1a
    4f18:	e1be      	b.n	0x5298
    4f1a:	001a      	movs	r2, r3
    4f1c:	9807      	ldr	r0, [sp, #28]
    4f1e:	e006      	b.n	0x4f2e
    4f20:	3a01      	subs	r2, #1
    4f22:	4298      	cmp	r0, r3
    4f24:	d100      	bne.n	0x4f28
    4f26:	e1b0      	b.n	0x528a
    4f28:	7811      	ldrb	r1, [r2, #0]
    4f2a:	001f      	movs	r7, r3
    4f2c:	3b01      	subs	r3, #1
    4f2e:	2939      	cmp	r1, #57	; 0x39
    4f30:	d0f6      	beq.n	0x4f20
    4f32:	3101      	adds	r1, #1
    4f34:	7019      	strb	r1, [r3, #0]
    4f36:	4641      	mov	r1, r8
    4f38:	0020      	movs	r0, r4
    4f3a:	f001 f8d1 	bl	0x60e0
    4f3e:	464b      	mov	r3, r9
    4f40:	2b00      	cmp	r3, #0
    4f42:	d100      	bne.n	0x4f46
    4f44:	e19e      	b.n	0x5284
    4f46:	2d00      	cmp	r5, #0
    4f48:	d100      	bne.n	0x4f4c
    4f4a:	e293      	b.n	0x5474
    4f4c:	454d      	cmp	r5, r9
    4f4e:	d100      	bne.n	0x4f52
    4f50:	e290      	b.n	0x5474
    4f52:	0029      	movs	r1, r5
    4f54:	0020      	movs	r0, r4
    4f56:	f001 f8c3 	bl	0x60e0
    4f5a:	9e07      	ldr	r6, [sp, #28]
    4f5c:	9707      	str	r7, [sp, #28]
    4f5e:	e64b      	b.n	0x4bf8
    4f60:	2302      	movs	r3, #2
    4f62:	4699      	mov	r9, r3
    4f64:	f7ff fbc0 	bl	0x46e8
    4f68:	2301      	movs	r3, #1
    4f6a:	930b      	str	r3, [sp, #44]	; 0x2c
    4f6c:	9325      	str	r3, [sp, #148]	; 0x94
    4f6e:	e554      	b.n	0x4a1a
    4f70:	0013      	movs	r3, r2
    4f72:	e5be      	b.n	0x4af2
    4f74:	0000      	movs	r0, r0
    4f76:	401c      	ands	r4, r3
    4f78:	0000      	movs	r0, r0
    4f7a:	fcc0 0000 			; <UNDEFINED> instruction: 0xfcc00000
    4f7e:	4014      	ands	r4, r2
    4f80:	7508      	strb	r0, [r1, #20]
    4f82:	0800      	lsrs	r0, r0, #32
    4f84:	74e0      	strb	r0, [r4, #19]
    4f86:	0800      	lsrs	r0, r0, #32
    4f88:	9812      	ldr	r0, [sp, #72]	; 0x48
    4f8a:	9913      	ldr	r1, [sp, #76]	; 0x4c
    4f8c:	f002 fa06 	bl	0x739c
    4f90:	9b07      	ldr	r3, [sp, #28]
    4f92:	9a10      	ldr	r2, [sp, #64]	; 0x40
    4f94:	9012      	str	r0, [sp, #72]	; 0x48
    4f96:	9113      	str	r1, [sp, #76]	; 0x4c
    4f98:	469c      	mov	ip, r3
    4f9a:	0011      	movs	r1, r2
    4f9c:	4461      	add	r1, ip
    4f9e:	701d      	strb	r5, [r3, #0]
    4fa0:	9102      	str	r1, [sp, #8]
    4fa2:	2a01      	cmp	r2, #1
    4fa4:	d021      	beq.n	0x4fea
    4fa6:	0022      	movs	r2, r4
    4fa8:	9b02      	ldr	r3, [sp, #8]
    4faa:	464c      	mov	r4, r9
    4fac:	4690      	mov	r8, r2
    4fae:	4699      	mov	r9, r3
    4fb0:	2200      	movs	r2, #0
    4fb2:	4bd9      	ldr	r3, [pc, #868]	; (0x5318)
    4fb4:	0030      	movs	r0, r6
    4fb6:	0039      	movs	r1, r7
    4fb8:	f002 f9f0 	bl	0x739c
    4fbc:	000f      	movs	r7, r1
    4fbe:	0006      	movs	r6, r0
    4fc0:	f002 f9a8 	bl	0x7314
    4fc4:	0005      	movs	r5, r0
    4fc6:	f002 f9cb 	bl	0x7360
    4fca:	0002      	movs	r2, r0
    4fcc:	000b      	movs	r3, r1
    4fce:	0030      	movs	r0, r6
    4fd0:	0039      	movs	r1, r7
    4fd2:	f002 f997 	bl	0x7304
    4fd6:	3530      	adds	r5, #48	; 0x30
    4fd8:	7025      	strb	r5, [r4, #0]
    4fda:	3401      	adds	r4, #1
    4fdc:	0006      	movs	r6, r0
    4fde:	000f      	movs	r7, r1
    4fe0:	45a1      	cmp	r9, r4
    4fe2:	d1e5      	bne.n	0x4fb0
    4fe4:	9b02      	ldr	r3, [sp, #8]
    4fe6:	4644      	mov	r4, r8
    4fe8:	4699      	mov	r9, r3
    4fea:	2200      	movs	r2, #0
    4fec:	4bcb      	ldr	r3, [pc, #812]	; (0x531c)
    4fee:	9812      	ldr	r0, [sp, #72]	; 0x48
    4ff0:	9913      	ldr	r1, [sp, #76]	; 0x4c
    4ff2:	f002 f9a5 	bl	0x7340
    4ff6:	0032      	movs	r2, r6
    4ff8:	003b      	movs	r3, r7
    4ffa:	f002 f98f 	bl	0x731c
    4ffe:	2800      	cmp	r0, #0
    5000:	d000      	beq.n	0x5004
    5002:	e197      	b.n	0x5334
    5004:	9a12      	ldr	r2, [sp, #72]	; 0x48
    5006:	9b13      	ldr	r3, [sp, #76]	; 0x4c
    5008:	2000      	movs	r0, #0
    500a:	49c4      	ldr	r1, [pc, #784]	; (0x531c)
    500c:	f002 f97a 	bl	0x7304
    5010:	0032      	movs	r2, r6
    5012:	003b      	movs	r3, r7
    5014:	f002 f998 	bl	0x7348
    5018:	4649      	mov	r1, r9
    501a:	2800      	cmp	r0, #0
    501c:	d100      	bne.n	0x5020
    501e:	e4ac      	b.n	0x497a
    5020:	e000      	b.n	0x5024
    5022:	0019      	movs	r1, r3
    5024:	1e4b      	subs	r3, r1, #1
    5026:	781a      	ldrb	r2, [r3, #0]
    5028:	2a30      	cmp	r2, #48	; 0x30
    502a:	d0fa      	beq.n	0x5022
    502c:	4689      	mov	r9, r1
    502e:	9b17      	ldr	r3, [sp, #92]	; 0x5c
    5030:	3301      	adds	r3, #1
    5032:	9306      	str	r3, [sp, #24]
    5034:	464b      	mov	r3, r9
    5036:	9e07      	ldr	r6, [sp, #28]
    5038:	9307      	str	r3, [sp, #28]
    503a:	e5e1      	b.n	0x4c00
    503c:	9a10      	ldr	r2, [sp, #64]	; 0x40
    503e:	9b11      	ldr	r3, [sp, #68]	; 0x44
    5040:	9202      	str	r2, [sp, #8]
    5042:	9303      	str	r3, [sp, #12]
    5044:	2302      	movs	r3, #2
    5046:	4699      	mov	r9, r3
    5048:	f7ff fb6f 	bl	0x472a
    504c:	9902      	ldr	r1, [sp, #8]
    504e:	9a03      	ldr	r2, [sp, #12]
    5050:	2900      	cmp	r1, #0
    5052:	d000      	beq.n	0x5056
    5054:	e709      	b.n	0x4e6a
    5056:	0013      	movs	r3, r2
    5058:	0312      	lsls	r2, r2, #12
    505a:	d000      	beq.n	0x505e
    505c:	e705      	b.n	0x4e6a
    505e:	4ab0      	ldr	r2, [pc, #704]	; (0x5320)
    5060:	2700      	movs	r7, #0
    5062:	4213      	tst	r3, r2
    5064:	d100      	bne.n	0x5068
    5066:	e567      	b.n	0x4b38
    5068:	9b0a      	ldr	r3, [sp, #40]	; 0x28
    506a:	3301      	adds	r3, #1
    506c:	930a      	str	r3, [sp, #40]	; 0x28
    506e:	9b04      	ldr	r3, [sp, #16]
    5070:	3301      	adds	r3, #1
    5072:	9304      	str	r3, [sp, #16]
    5074:	3701      	adds	r7, #1
    5076:	e55f      	b.n	0x4b38
    5078:	4649      	mov	r1, r9
    507a:	0032      	movs	r2, r6
    507c:	0020      	movs	r0, r4
    507e:	f001 f99d 	bl	0x63bc
    5082:	4652      	mov	r2, sl
    5084:	0001      	movs	r1, r0
    5086:	4681      	mov	r9, r0
    5088:	0020      	movs	r0, r4
    508a:	f001 f8d9 	bl	0x6240
    508e:	0007      	movs	r7, r0
    5090:	4651      	mov	r1, sl
    5092:	0020      	movs	r0, r4
    5094:	f001 f824 	bl	0x60e0
    5098:	46ba      	mov	sl, r7
    509a:	e53b      	b.n	0x4b14
    509c:	1b9e      	subs	r6, r3, r6
    509e:	e48f      	b.n	0x49c0
    50a0:	0020      	movs	r0, r4
    50a2:	f001 f81d 	bl	0x60e0
    50a6:	2301      	movs	r3, #1
    50a8:	9302      	str	r3, [sp, #8]
    50aa:	e648      	b.n	0x4d3e
    50ac:	f001 f822 	bl	0x60f4
    50b0:	46d0      	mov	r8, sl
    50b2:	0006      	movs	r6, r0
    50b4:	4681      	mov	r9, r0
    50b6:	e61b      	b.n	0x4cf0
    50b8:	2300      	movs	r3, #0
    50ba:	930c      	str	r3, [sp, #48]	; 0x30
    50bc:	e4c6      	b.n	0x4a4c
    50be:	9902      	ldr	r1, [sp, #8]
    50c0:	9a03      	ldr	r2, [sp, #12]
    50c2:	2900      	cmp	r1, #0
    50c4:	d000      	beq.n	0x50c8
    50c6:	e537      	b.n	0x4b38
    50c8:	0013      	movs	r3, r2
    50ca:	0312      	lsls	r2, r2, #12
    50cc:	d000      	beq.n	0x50d0
    50ce:	e533      	b.n	0x4b38
    50d0:	e7c5      	b.n	0x505e
    50d2:	2300      	movs	r3, #0
    50d4:	930e      	str	r3, [sp, #56]	; 0x38
    50d6:	e4ae      	b.n	0x4a36
    50d8:	9b0b      	ldr	r3, [sp, #44]	; 0x2c
    50da:	2b00      	cmp	r3, #0
    50dc:	d100      	bne.n	0x50e0
    50de:	e5a6      	b.n	0x4c2e
    50e0:	9b16      	ldr	r3, [sp, #88]	; 0x58
    50e2:	2b00      	cmp	r3, #0
    50e4:	dc00      	bgt.n	0x50e8
    50e6:	e448      	b.n	0x497a
    50e8:	9a06      	ldr	r2, [sp, #24]
    50ea:	3a01      	subs	r2, #1
    50ec:	4b8a      	ldr	r3, [pc, #552]	; (0x5318)
    50ee:	9217      	str	r2, [sp, #92]	; 0x5c
    50f0:	0028      	movs	r0, r5
    50f2:	2200      	movs	r2, #0
    50f4:	0031      	movs	r1, r6
    50f6:	f002 f951 	bl	0x739c
    50fa:	0005      	movs	r5, r0
    50fc:	4648      	mov	r0, r9
    50fe:	000e      	movs	r6, r1
    5100:	3001      	adds	r0, #1
    5102:	9502      	str	r5, [sp, #8]
    5104:	9603      	str	r6, [sp, #12]
    5106:	f002 f92b 	bl	0x7360
    510a:	0033      	movs	r3, r6
    510c:	002a      	movs	r2, r5
    510e:	f002 f945 	bl	0x739c
    5112:	2200      	movs	r2, #0
    5114:	4b83      	ldr	r3, [pc, #524]	; (0x5324)
    5116:	f002 f913 	bl	0x7340
    511a:	4a83      	ldr	r2, [pc, #524]	; (0x5328)
    511c:	9b16      	ldr	r3, [sp, #88]	; 0x58
    511e:	0006      	movs	r6, r0
    5120:	188f      	adds	r7, r1, r2
    5122:	9310      	str	r3, [sp, #64]	; 0x40
    5124:	f7ff fb26 	bl	0x4774
    5128:	9b0f      	ldr	r3, [sp, #60]	; 0x3c
    512a:	2b00      	cmp	r3, #0
    512c:	d100      	bne.n	0x5130
    512e:	e0c0      	b.n	0x52b2
    5130:	4b7e      	ldr	r3, [pc, #504]	; (0x532c)
    5132:	469c      	mov	ip, r3
    5134:	9b04      	ldr	r3, [sp, #16]
    5136:	4461      	add	r1, ip
    5138:	469c      	mov	ip, r3
    513a:	448c      	add	ip, r1
    513c:	4663      	mov	r3, ip
    513e:	9304      	str	r3, [sp, #16]
    5140:	9b0a      	ldr	r3, [sp, #40]	; 0x28
    5142:	469c      	mov	ip, r3
    5144:	448c      	add	ip, r1
    5146:	001d      	movs	r5, r3
    5148:	4663      	mov	r3, ip
    514a:	9e0d      	ldr	r6, [sp, #52]	; 0x34
    514c:	930a      	str	r3, [sp, #40]	; 0x28
    514e:	e444      	b.n	0x49da
    5150:	2300      	movs	r3, #0
    5152:	4698      	mov	r8, r3
    5154:	4699      	mov	r9, r3
    5156:	e53e      	b.n	0x4bd6
    5158:	9b06      	ldr	r3, [sp, #24]
    515a:	00da      	lsls	r2, r3, #3
    515c:	4b74      	ldr	r3, [pc, #464]	; (0x5330)
    515e:	189b      	adds	r3, r3, r2
    5160:	681a      	ldr	r2, [r3, #0]
    5162:	685b      	ldr	r3, [r3, #4]
    5164:	9204      	str	r2, [sp, #16]
    5166:	9305      	str	r3, [sp, #20]
    5168:	2301      	movs	r3, #1
    516a:	425b      	negs	r3, r3
    516c:	930b      	str	r3, [sp, #44]	; 0x2c
    516e:	9e02      	ldr	r6, [sp, #8]
    5170:	9f03      	ldr	r7, [sp, #12]
    5172:	9a04      	ldr	r2, [sp, #16]
    5174:	9b05      	ldr	r3, [sp, #20]
    5176:	0030      	movs	r0, r6
    5178:	0039      	movs	r1, r7
    517a:	f002 f917 	bl	0x73ac
    517e:	f002 f8c9 	bl	0x7314
    5182:	4680      	mov	r8, r0
    5184:	f002 f8ec 	bl	0x7360
    5188:	9a04      	ldr	r2, [sp, #16]
    518a:	9b05      	ldr	r3, [sp, #20]
    518c:	f002 f906 	bl	0x739c
    5190:	0002      	movs	r2, r0
    5192:	000b      	movs	r3, r1
    5194:	0030      	movs	r0, r6
    5196:	0039      	movs	r1, r7
    5198:	f002 f8b4 	bl	0x7304
    519c:	9a07      	ldr	r2, [sp, #28]
    519e:	1c53      	adds	r3, r2, #1
    51a0:	469b      	mov	fp, r3
    51a2:	4643      	mov	r3, r8
    51a4:	3330      	adds	r3, #48	; 0x30
    51a6:	7013      	strb	r3, [r2, #0]
    51a8:	9b06      	ldr	r3, [sp, #24]
    51aa:	3301      	adds	r3, #1
    51ac:	9306      	str	r3, [sp, #24]
    51ae:	9b0b      	ldr	r3, [sp, #44]	; 0x2c
    51b0:	0006      	movs	r6, r0
    51b2:	000f      	movs	r7, r1
    51b4:	2b01      	cmp	r3, #1
    51b6:	d046      	beq.n	0x5246
    51b8:	2200      	movs	r2, #0
    51ba:	4b57      	ldr	r3, [pc, #348]	; (0x5318)
    51bc:	f002 f8ee 	bl	0x739c
    51c0:	2200      	movs	r2, #0
    51c2:	2300      	movs	r3, #0
    51c4:	0006      	movs	r6, r0
    51c6:	000f      	movs	r7, r1
    51c8:	f002 f8b2 	bl	0x7330
    51cc:	2800      	cmp	r0, #0
    51ce:	d155      	bne.n	0x527c
    51d0:	9a07      	ldr	r2, [sp, #28]
    51d2:	4694      	mov	ip, r2
    51d4:	9b0b      	ldr	r3, [sp, #44]	; 0x2c
    51d6:	4463      	add	r3, ip
    51d8:	3b01      	subs	r3, #1
    51da:	9408      	str	r4, [sp, #32]
    51dc:	9302      	str	r3, [sp, #8]
    51de:	46d9      	mov	r9, fp
    51e0:	9c04      	ldr	r4, [sp, #16]
    51e2:	9d05      	ldr	r5, [sp, #20]
    51e4:	e00d      	b.n	0x5202
    51e6:	2200      	movs	r2, #0
    51e8:	4b4b      	ldr	r3, [pc, #300]	; (0x5318)
    51ea:	f002 f8d7 	bl	0x739c
    51ee:	2200      	movs	r2, #0
    51f0:	2300      	movs	r3, #0
    51f2:	0006      	movs	r6, r0
    51f4:	000f      	movs	r7, r1
    51f6:	46d9      	mov	r9, fp
    51f8:	f002 f89a 	bl	0x7330
    51fc:	2800      	cmp	r0, #0
    51fe:	d000      	beq.n	0x5202
    5200:	e0ec      	b.n	0x53dc
    5202:	0022      	movs	r2, r4
    5204:	002b      	movs	r3, r5
    5206:	0030      	movs	r0, r6
    5208:	0039      	movs	r1, r7
    520a:	f002 f8cf 	bl	0x73ac
    520e:	f002 f881 	bl	0x7314
    5212:	4680      	mov	r8, r0
    5214:	f002 f8a4 	bl	0x7360
    5218:	0022      	movs	r2, r4
    521a:	002b      	movs	r3, r5
    521c:	f002 f8be 	bl	0x739c
    5220:	0002      	movs	r2, r0
    5222:	000b      	movs	r3, r1
    5224:	0030      	movs	r0, r6
    5226:	0039      	movs	r1, r7
    5228:	f002 f86c 	bl	0x7304
    522c:	2301      	movs	r3, #1
    522e:	444b      	add	r3, r9
    5230:	469b      	mov	fp, r3
    5232:	4643      	mov	r3, r8
    5234:	464a      	mov	r2, r9
    5236:	3330      	adds	r3, #48	; 0x30
    5238:	7013      	strb	r3, [r2, #0]
    523a:	9b02      	ldr	r3, [sp, #8]
    523c:	0006      	movs	r6, r0
    523e:	000f      	movs	r7, r1
    5240:	4599      	cmp	r9, r3
    5242:	d1d0      	bne.n	0x51e6
    5244:	9c08      	ldr	r4, [sp, #32]
    5246:	0032      	movs	r2, r6
    5248:	003b      	movs	r3, r7
    524a:	0030      	movs	r0, r6
    524c:	0039      	movs	r1, r7
    524e:	f002 f877 	bl	0x7340
    5252:	9a04      	ldr	r2, [sp, #16]
    5254:	9b05      	ldr	r3, [sp, #20]
    5256:	0006      	movs	r6, r0
    5258:	000f      	movs	r7, r1
    525a:	f002 f875 	bl	0x7348
    525e:	2800      	cmp	r0, #0
    5260:	d000      	beq.n	0x5264
    5262:	e0d0      	b.n	0x5406
    5264:	9a04      	ldr	r2, [sp, #16]
    5266:	9b05      	ldr	r3, [sp, #20]
    5268:	0030      	movs	r0, r6
    526a:	0039      	movs	r1, r7
    526c:	f002 f860 	bl	0x7330
    5270:	2800      	cmp	r0, #0
    5272:	d003      	beq.n	0x527c
    5274:	4643      	mov	r3, r8
    5276:	07db      	lsls	r3, r3, #31
    5278:	d500      	bpl.n	0x527c
    527a:	e0c4      	b.n	0x5406
    527c:	465b      	mov	r3, fp
    527e:	9e07      	ldr	r6, [sp, #28]
    5280:	9307      	str	r3, [sp, #28]
    5282:	e4bd      	b.n	0x4c00
    5284:	9e07      	ldr	r6, [sp, #28]
    5286:	9707      	str	r7, [sp, #28]
    5288:	e4ba      	b.n	0x4c00
    528a:	2331      	movs	r3, #49	; 0x31
    528c:	9a07      	ldr	r2, [sp, #28]
    528e:	7013      	strb	r3, [r2, #0]
    5290:	9b06      	ldr	r3, [sp, #24]
    5292:	3301      	adds	r3, #1
    5294:	9306      	str	r3, [sp, #24]
    5296:	e64e      	b.n	0x4f36
    5298:	2800      	cmp	r0, #0
    529a:	d105      	bne.n	0x52a8
    529c:	9a04      	ldr	r2, [sp, #16]
    529e:	07d2      	lsls	r2, r2, #31
    52a0:	d500      	bpl.n	0x52a4
    52a2:	e63a      	b.n	0x4f1a
    52a4:	e000      	b.n	0x52a8
    52a6:	7819      	ldrb	r1, [r3, #0]
    52a8:	1c5f      	adds	r7, r3, #1
    52aa:	3b01      	subs	r3, #1
    52ac:	2930      	cmp	r1, #48	; 0x30
    52ae:	d0fa      	beq.n	0x52a6
    52b0:	e641      	b.n	0x4f36
    52b2:	2336      	movs	r3, #54	; 0x36
    52b4:	9a18      	ldr	r2, [sp, #96]	; 0x60
    52b6:	1a9b      	subs	r3, r3, r2
    52b8:	9a04      	ldr	r2, [sp, #16]
    52ba:	4694      	mov	ip, r2
    52bc:	449c      	add	ip, r3
    52be:	4662      	mov	r2, ip
    52c0:	9204      	str	r2, [sp, #16]
    52c2:	9a0a      	ldr	r2, [sp, #40]	; 0x28
    52c4:	4694      	mov	ip, r2
    52c6:	449c      	add	ip, r3
    52c8:	4663      	mov	r3, ip
    52ca:	9e0d      	ldr	r6, [sp, #52]	; 0x34
    52cc:	0015      	movs	r5, r2
    52ce:	930a      	str	r3, [sp, #40]	; 0x28
    52d0:	f7ff fb83 	bl	0x49da
    52d4:	4653      	mov	r3, sl
    52d6:	465a      	mov	r2, fp
    52d8:	46ba      	mov	sl, r7
    52da:	001f      	movs	r7, r3
    52dc:	9b02      	ldr	r3, [sp, #8]
    52de:	46cb      	mov	fp, r9
    52e0:	46b1      	mov	r9, r6
    52e2:	4646      	mov	r6, r8
    52e4:	4690      	mov	r8, r2
    52e6:	2b00      	cmp	r3, #0
    52e8:	dd11      	ble.n	0x530e
    52ea:	4651      	mov	r1, sl
    52ec:	2201      	movs	r2, #1
    52ee:	0020      	movs	r0, r4
    52f0:	f001 f8c4 	bl	0x647c
    52f4:	4641      	mov	r1, r8
    52f6:	4682      	mov	sl, r0
    52f8:	f001 f928 	bl	0x654c
    52fc:	2800      	cmp	r0, #0
    52fe:	dc00      	bgt.n	0x5302
    5300:	e0a8      	b.n	0x5454
    5302:	9b04      	ldr	r3, [sp, #16]
    5304:	2b39      	cmp	r3, #57	; 0x39
    5306:	d077      	beq.n	0x53f8
    5308:	9b0b      	ldr	r3, [sp, #44]	; 0x2c
    530a:	3331      	adds	r3, #49	; 0x31
    530c:	9304      	str	r3, [sp, #16]
    530e:	9b04      	ldr	r3, [sp, #16]
    5310:	464d      	mov	r5, r9
    5312:	7033      	strb	r3, [r6, #0]
    5314:	46d9      	mov	r9, fp
    5316:	e60e      	b.n	0x4f36
    5318:	0000      	movs	r0, r0
    531a:	4024      	ands	r4, r4
    531c:	0000      	movs	r0, r0
    531e:	3fe0      	subs	r7, #224	; 0xe0
    5320:	0000      	movs	r0, r0
    5322:	7ff0      	ldrb	r0, [r6, #31]
    5324:	0000      	movs	r0, r0
    5326:	401c      	ands	r4, r3
    5328:	0000      	movs	r0, r0
    532a:	fcc0 0433 			; <UNDEFINED> instruction: 0xfcc00433
    532e:	0000      	movs	r0, r0
    5330:	7508      	strb	r0, [r1, #20]
    5332:	0800      	lsrs	r0, r0, #32
    5334:	464b      	mov	r3, r9
    5336:	3b01      	subs	r3, #1
    5338:	781d      	ldrb	r5, [r3, #0]
    533a:	9b17      	ldr	r3, [sp, #92]	; 0x5c
    533c:	3301      	adds	r3, #1
    533e:	9306      	str	r3, [sp, #24]
    5340:	464b      	mov	r3, r9
    5342:	9e07      	ldr	r6, [sp, #28]
    5344:	9307      	str	r3, [sp, #28]
    5346:	9907      	ldr	r1, [sp, #28]
    5348:	1e4b      	subs	r3, r1, #1
    534a:	001a      	movs	r2, r3
    534c:	e005      	b.n	0x535a
    534e:	3a01      	subs	r2, #1
    5350:	42b3      	cmp	r3, r6
    5352:	d00a      	beq.n	0x536a
    5354:	7815      	ldrb	r5, [r2, #0]
    5356:	0019      	movs	r1, r3
    5358:	3b01      	subs	r3, #1
    535a:	2d39      	cmp	r5, #57	; 0x39
    535c:	d0f7      	beq.n	0x534e
    535e:	3501      	adds	r5, #1
    5360:	062d      	lsls	r5, r5, #24
    5362:	0e2d      	lsrs	r5, r5, #24
    5364:	9107      	str	r1, [sp, #28]
    5366:	701d      	strb	r5, [r3, #0]
    5368:	e44a      	b.n	0x4c00
    536a:	2531      	movs	r5, #49	; 0x31
    536c:	9a06      	ldr	r2, [sp, #24]
    536e:	3201      	adds	r2, #1
    5370:	9107      	str	r1, [sp, #28]
    5372:	9206      	str	r2, [sp, #24]
    5374:	701d      	strb	r5, [r3, #0]
    5376:	e443      	b.n	0x4c00
    5378:	464b      	mov	r3, r9
    537a:	0020      	movs	r0, r4
    537c:	6859      	ldr	r1, [r3, #4]
    537e:	f000 fe85 	bl	0x608c
    5382:	464b      	mov	r3, r9
    5384:	4649      	mov	r1, r9
    5386:	0005      	movs	r5, r0
    5388:	691b      	ldr	r3, [r3, #16]
    538a:	1c9a      	adds	r2, r3, #2
    538c:	0092      	lsls	r2, r2, #2
    538e:	310c      	adds	r1, #12
    5390:	300c      	adds	r0, #12
    5392:	f7fc fb1f 	bl	0x19d4
    5396:	2201      	movs	r2, #1
    5398:	0029      	movs	r1, r5
    539a:	0020      	movs	r0, r4
    539c:	f001 f86e 	bl	0x647c
    53a0:	4683      	mov	fp, r0
    53a2:	e493      	b.n	0x4ccc
    53a4:	9b10      	ldr	r3, [sp, #64]	; 0x40
    53a6:	4655      	mov	r5, sl
    53a8:	469a      	mov	sl, r3
    53aa:	9b17      	ldr	r3, [sp, #92]	; 0x5c
    53ac:	3301      	adds	r3, #1
    53ae:	9306      	str	r3, [sp, #24]
    53b0:	4643      	mov	r3, r8
    53b2:	9e07      	ldr	r6, [sp, #28]
    53b4:	465c      	mov	r4, fp
    53b6:	9307      	str	r3, [sp, #28]
    53b8:	e7c5      	b.n	0x5346
    53ba:	4653      	mov	r3, sl
    53bc:	465a      	mov	r2, fp
    53be:	46ba      	mov	sl, r7
    53c0:	001f      	movs	r7, r3
    53c2:	9b04      	ldr	r3, [sp, #16]
    53c4:	46cb      	mov	fp, r9
    53c6:	46b1      	mov	r9, r6
    53c8:	4646      	mov	r6, r8
    53ca:	4690      	mov	r8, r2
    53cc:	2b39      	cmp	r3, #57	; 0x39
    53ce:	d013      	beq.n	0x53f8
    53d0:	9b04      	ldr	r3, [sp, #16]
    53d2:	3301      	adds	r3, #1
    53d4:	464d      	mov	r5, r9
    53d6:	7033      	strb	r3, [r6, #0]
    53d8:	46d9      	mov	r9, fp
    53da:	e5ac      	b.n	0x4f36
    53dc:	465d      	mov	r5, fp
    53de:	9e07      	ldr	r6, [sp, #28]
    53e0:	9c08      	ldr	r4, [sp, #32]
    53e2:	9507      	str	r5, [sp, #28]
    53e4:	f7ff fc0c 	bl	0x4c00
    53e8:	4653      	mov	r3, sl
    53ea:	46d8      	mov	r8, fp
    53ec:	46cb      	mov	fp, r9
    53ee:	46ba      	mov	sl, r7
    53f0:	0035      	movs	r5, r6
    53f2:	001f      	movs	r7, r3
    53f4:	46d9      	mov	r9, fp
    53f6:	e582      	b.n	0x4efe
    53f8:	2339      	movs	r3, #57	; 0x39
    53fa:	464d      	mov	r5, r9
    53fc:	7033      	strb	r3, [r6, #0]
    53fe:	46d9      	mov	r9, fp
    5400:	2139      	movs	r1, #57	; 0x39
    5402:	1e7b      	subs	r3, r7, #1
    5404:	e589      	b.n	0x4f1a
    5406:	465b      	mov	r3, fp
    5408:	3b01      	subs	r3, #1
    540a:	781d      	ldrb	r5, [r3, #0]
    540c:	465b      	mov	r3, fp
    540e:	9e07      	ldr	r6, [sp, #28]
    5410:	9307      	str	r3, [sp, #28]
    5412:	e798      	b.n	0x5346
    5414:	465b      	mov	r3, fp
    5416:	9306      	str	r3, [sp, #24]
    5418:	9b16      	ldr	r3, [sp, #88]	; 0x58
    541a:	930b      	str	r3, [sp, #44]	; 0x2c
    541c:	f7ff fbcc 	bl	0x4bb8
    5420:	465b      	mov	r3, fp
    5422:	46cb      	mov	fp, r9
    5424:	46b1      	mov	r9, r6
    5426:	4646      	mov	r6, r8
    5428:	4698      	mov	r8, r3
    542a:	9b04      	ldr	r3, [sp, #16]
    542c:	46ba      	mov	sl, r7
    542e:	1c77      	adds	r7, r6, #1
    5430:	2b39      	cmp	r3, #57	; 0x39
    5432:	d0e1      	beq.n	0x53f8
    5434:	2d00      	cmp	r5, #0
    5436:	dd00      	ble.n	0x543a
    5438:	e766      	b.n	0x5308
    543a:	e768      	b.n	0x530e
    543c:	4649      	mov	r1, r9
    543e:	2300      	movs	r3, #0
    5440:	220a      	movs	r2, #10
    5442:	0020      	movs	r0, r4
    5444:	f000 fe56 	bl	0x60f4
    5448:	4681      	mov	r9, r0
    544a:	2e00      	cmp	r6, #0
    544c:	d1e2      	bne.n	0x5414
    544e:	9b16      	ldr	r3, [sp, #88]	; 0x58
    5450:	930b      	str	r3, [sp, #44]	; 0x2c
    5452:	e42f      	b.n	0x4cb4
    5454:	2800      	cmp	r0, #0
    5456:	d000      	beq.n	0x545a
    5458:	e759      	b.n	0x530e
    545a:	9b04      	ldr	r3, [sp, #16]
    545c:	07db      	lsls	r3, r3, #31
    545e:	d500      	bpl.n	0x5462
    5460:	e74f      	b.n	0x5302
    5462:	e754      	b.n	0x530e
    5464:	2b04      	cmp	r3, #4
    5466:	d101      	bne.n	0x546c
    5468:	f7ff fb84 	bl	0x4b74
    546c:	233c      	movs	r3, #60	; 0x3c
    546e:	1a18      	subs	r0, r3, r0
    5470:	f7ff fc0d 	bl	0x4c8e
    5474:	9e07      	ldr	r6, [sp, #28]
    5476:	9707      	str	r7, [sp, #28]
    5478:	f7ff fbbe 	bl	0x4bf8
    547c:	b5f8      	push	{r3, r4, r5, r6, r7, lr}
    547e:	000c      	movs	r4, r1
    5480:	0006      	movs	r6, r0
    5482:	f000 fdef 	bl	0x6064
    5486:	4f21      	ldr	r7, [pc, #132]	; (0x550c)
    5488:	68bb      	ldr	r3, [r7, #8]
    548a:	685d      	ldr	r5, [r3, #4]
    548c:	2303      	movs	r3, #3
    548e:	439d      	bics	r5, r3
    5490:	4b1f      	ldr	r3, [pc, #124]	; (0x5510)
    5492:	469c      	mov	ip, r3
    5494:	1b2c      	subs	r4, r5, r4
    5496:	4464      	add	r4, ip
    5498:	0b24      	lsrs	r4, r4, #12
    549a:	4b1e      	ldr	r3, [pc, #120]	; (0x5514)
    549c:	3c01      	subs	r4, #1
    549e:	0324      	lsls	r4, r4, #12
    54a0:	429c      	cmp	r4, r3
    54a2:	dd07      	ble.n	0x54b4
    54a4:	2100      	movs	r1, #0
    54a6:	0030      	movs	r0, r6
    54a8:	f001 fdf2 	bl	0x7090
    54ac:	68bb      	ldr	r3, [r7, #8]
    54ae:	195b      	adds	r3, r3, r5
    54b0:	4298      	cmp	r0, r3
    54b2:	d006      	beq.n	0x54c2
    54b4:	0030      	movs	r0, r6
    54b6:	f000 fddf 	bl	0x6078
    54ba:	2000      	movs	r0, #0
    54bc:	bcf8      	pop	{r3, r4, r5, r6, r7}
    54be:	bc02      	pop	{r1}
    54c0:	4708      	bx	r1
    54c2:	4261      	negs	r1, r4
    54c4:	0030      	movs	r0, r6
    54c6:	f001 fde3 	bl	0x7090
    54ca:	1c43      	adds	r3, r0, #1
    54cc:	d00d      	beq.n	0x54ea
    54ce:	2201      	movs	r2, #1
    54d0:	68bb      	ldr	r3, [r7, #8]
    54d2:	1b2d      	subs	r5, r5, r4
    54d4:	4315      	orrs	r5, r2
    54d6:	605d      	str	r5, [r3, #4]
    54d8:	4b0f      	ldr	r3, [pc, #60]	; (0x5518)
    54da:	681a      	ldr	r2, [r3, #0]
    54dc:	0030      	movs	r0, r6
    54de:	1b14      	subs	r4, r2, r4
    54e0:	601c      	str	r4, [r3, #0]
    54e2:	f000 fdc9 	bl	0x6078
    54e6:	2001      	movs	r0, #1
    54e8:	e7e8      	b.n	0x54bc
    54ea:	2100      	movs	r1, #0
    54ec:	0030      	movs	r0, r6
    54ee:	f001 fdcf 	bl	0x7090
    54f2:	68ba      	ldr	r2, [r7, #8]
    54f4:	1a83      	subs	r3, r0, r2
    54f6:	2b0f      	cmp	r3, #15
    54f8:	dddc      	ble.n	0x54b4
    54fa:	4908      	ldr	r1, [pc, #32]	; (0x551c)
    54fc:	6809      	ldr	r1, [r1, #0]
    54fe:	1a40      	subs	r0, r0, r1
    5500:	4905      	ldr	r1, [pc, #20]	; (0x5518)
    5502:	6008      	str	r0, [r1, #0]
    5504:	2101      	movs	r1, #1
    5506:	430b      	orrs	r3, r1
    5508:	6053      	str	r3, [r2, #4]
    550a:	e7d3      	b.n	0x54b4
    550c:	0358      	lsls	r0, r3, #13
    550e:	0300      	lsls	r0, r0, #12
    5510:	0fef      	lsrs	r7, r5, #31
    5512:	0000      	movs	r0, r0
    5514:	0fff      	lsrs	r7, r7, #31
    5516:	0000      	movs	r0, r0
    5518:	00e4      	lsls	r4, r4, #3
    551a:	0300      	lsls	r0, r0, #12
    551c:	0760      	lsls	r0, r4, #29
    551e:	0300      	lsls	r0, r0, #12
    5520:	b5f0      	push	{r4, r5, r6, r7, lr}
    5522:	46d6      	mov	lr, sl
    5524:	464f      	mov	r7, r9
    5526:	4646      	mov	r6, r8
    5528:	0005      	movs	r5, r0
    552a:	b5c0      	push	{r6, r7, lr}
    552c:	1e0c      	subs	r4, r1, #0
    552e:	d05c      	beq.n	0x55ea
    5530:	f000 fd98 	bl	0x6064
    5534:	0021      	movs	r1, r4
    5536:	3908      	subs	r1, #8
    5538:	684f      	ldr	r7, [r1, #4]
    553a:	2401      	movs	r4, #1
    553c:	003b      	movs	r3, r7
    553e:	2203      	movs	r2, #3
    5540:	43a3      	bics	r3, r4
    5542:	18c8      	adds	r0, r1, r3
    5544:	6846      	ldr	r6, [r0, #4]
    5546:	4396      	bics	r6, r2
    5548:	46b1      	mov	r9, r6
    554a:	4e67      	ldr	r6, [pc, #412]	; (0x56e8)
    554c:	68b2      	ldr	r2, [r6, #8]
    554e:	4282      	cmp	r2, r0
    5550:	d100      	bne.n	0x5554
    5552:	e077      	b.n	0x5644
    5554:	464a      	mov	r2, r9
    5556:	6042      	str	r2, [r0, #4]
    5558:	1882      	adds	r2, r0, r2
    555a:	4694      	mov	ip, r2
    555c:	423c      	tst	r4, r7
    555e:	d129      	bne.n	0x55b4
    5560:	680f      	ldr	r7, [r1, #0]
    5562:	1bc9      	subs	r1, r1, r7
    5564:	688a      	ldr	r2, [r1, #8]
    5566:	4690      	mov	r8, r2
    5568:	4662      	mov	r2, ip
    556a:	19db      	adds	r3, r3, r7
    556c:	6857      	ldr	r7, [r2, #4]
    556e:	2208      	movs	r2, #8
    5570:	4694      	mov	ip, r2
    5572:	4027      	ands	r7, r4
    5574:	44b4      	add	ip, r6
    5576:	46ba      	mov	sl, r7
    5578:	45e0      	cmp	r8, ip
    557a:	d058      	beq.n	0x562e
    557c:	68ca      	ldr	r2, [r1, #12]
    557e:	4694      	mov	ip, r2
    5580:	4642      	mov	r2, r8
    5582:	4667      	mov	r7, ip
    5584:	60d7      	str	r7, [r2, #12]
    5586:	4662      	mov	r2, ip
    5588:	4647      	mov	r7, r8
    558a:	6097      	str	r7, [r2, #8]
    558c:	4652      	mov	r2, sl
    558e:	2a00      	cmp	r2, #0
    5590:	d113      	bne.n	0x55ba
    5592:	2201      	movs	r2, #1
    5594:	444b      	add	r3, r9
    5596:	18cf      	adds	r7, r1, r3
    5598:	46bc      	mov	ip, r7
    559a:	6884      	ldr	r4, [r0, #8]
    559c:	4f53      	ldr	r7, [pc, #332]	; (0x56ec)
    559e:	431a      	orrs	r2, r3
    55a0:	42bc      	cmp	r4, r7
    55a2:	d100      	bne.n	0x55a6
    55a4:	e07c      	b.n	0x56a0
    55a6:	68c0      	ldr	r0, [r0, #12]
    55a8:	60e0      	str	r0, [r4, #12]
    55aa:	6084      	str	r4, [r0, #8]
    55ac:	604a      	str	r2, [r1, #4]
    55ae:	4662      	mov	r2, ip
    55b0:	6013      	str	r3, [r2, #0]
    55b2:	e005      	b.n	0x55c0
    55b4:	6857      	ldr	r7, [r2, #4]
    55b6:	4227      	tst	r7, r4
    55b8:	d0eb      	beq.n	0x5592
    55ba:	431c      	orrs	r4, r3
    55bc:	604c      	str	r4, [r1, #4]
    55be:	6003      	str	r3, [r0, #0]
    55c0:	4a4b      	ldr	r2, [pc, #300]	; (0x56f0)
    55c2:	4293      	cmp	r3, r2
    55c4:	d818      	bhi.n	0x55f8
    55c6:	08db      	lsrs	r3, r3, #3
    55c8:	3aff      	subs	r2, #255	; 0xff
    55ca:	1098      	asrs	r0, r3, #2
    55cc:	3aff      	subs	r2, #255	; 0xff
    55ce:	4082      	lsls	r2, r0
    55d0:	6870      	ldr	r0, [r6, #4]
    55d2:	00db      	lsls	r3, r3, #3
    55d4:	4302      	orrs	r2, r0
    55d6:	6072      	str	r2, [r6, #4]
    55d8:	199e      	adds	r6, r3, r6
    55da:	68b3      	ldr	r3, [r6, #8]
    55dc:	60ce      	str	r6, [r1, #12]
    55de:	608b      	str	r3, [r1, #8]
    55e0:	60b1      	str	r1, [r6, #8]
    55e2:	60d9      	str	r1, [r3, #12]
    55e4:	0028      	movs	r0, r5
    55e6:	f000 fd47 	bl	0x6078
    55ea:	bc1c      	pop	{r2, r3, r4}
    55ec:	4690      	mov	r8, r2
    55ee:	4699      	mov	r9, r3
    55f0:	46a2      	mov	sl, r4
    55f2:	bcf0      	pop	{r4, r5, r6, r7}
    55f4:	bc01      	pop	{r0}
    55f6:	4700      	bx	r0
    55f8:	0a5c      	lsrs	r4, r3, #9
    55fa:	2c04      	cmp	r4, #4
    55fc:	d83a      	bhi.n	0x5674
    55fe:	099c      	lsrs	r4, r3, #6
    5600:	0020      	movs	r0, r4
    5602:	3439      	adds	r4, #57	; 0x39
    5604:	3038      	adds	r0, #56	; 0x38
    5606:	00e4      	lsls	r4, r4, #3
    5608:	1934      	adds	r4, r6, r4
    560a:	3c08      	subs	r4, #8
    560c:	68a2      	ldr	r2, [r4, #8]
    560e:	2703      	movs	r7, #3
    5610:	4294      	cmp	r4, r2
    5612:	d03e      	beq.n	0x5692
    5614:	6850      	ldr	r0, [r2, #4]
    5616:	43b8      	bics	r0, r7
    5618:	4298      	cmp	r0, r3
    561a:	d902      	bls.n	0x5622
    561c:	6892      	ldr	r2, [r2, #8]
    561e:	4294      	cmp	r4, r2
    5620:	d1f8      	bne.n	0x5614
    5622:	68d4      	ldr	r4, [r2, #12]
    5624:	60cc      	str	r4, [r1, #12]
    5626:	608a      	str	r2, [r1, #8]
    5628:	60a1      	str	r1, [r4, #8]
    562a:	60d1      	str	r1, [r2, #12]
    562c:	e7da      	b.n	0x55e4
    562e:	2f00      	cmp	r7, #0
    5630:	d155      	bne.n	0x56de
    5632:	6886      	ldr	r6, [r0, #8]
    5634:	68c2      	ldr	r2, [r0, #12]
    5636:	444b      	add	r3, r9
    5638:	431c      	orrs	r4, r3
    563a:	60f2      	str	r2, [r6, #12]
    563c:	6096      	str	r6, [r2, #8]
    563e:	604c      	str	r4, [r1, #4]
    5640:	50cb      	str	r3, [r1, r3]
    5642:	e7cf      	b.n	0x55e4
    5644:	444b      	add	r3, r9
    5646:	423c      	tst	r4, r7
    5648:	d106      	bne.n	0x5658
    564a:	680a      	ldr	r2, [r1, #0]
    564c:	1a89      	subs	r1, r1, r2
    564e:	6888      	ldr	r0, [r1, #8]
    5650:	189b      	adds	r3, r3, r2
    5652:	68ca      	ldr	r2, [r1, #12]
    5654:	60c2      	str	r2, [r0, #12]
    5656:	6090      	str	r0, [r2, #8]
    5658:	2201      	movs	r2, #1
    565a:	431a      	orrs	r2, r3
    565c:	604a      	str	r2, [r1, #4]
    565e:	4a25      	ldr	r2, [pc, #148]	; (0x56f4)
    5660:	6812      	ldr	r2, [r2, #0]
    5662:	60b1      	str	r1, [r6, #8]
    5664:	429a      	cmp	r2, r3
    5666:	d8bd      	bhi.n	0x55e4
    5668:	4b23      	ldr	r3, [pc, #140]	; (0x56f8)
    566a:	0028      	movs	r0, r5
    566c:	6819      	ldr	r1, [r3, #0]
    566e:	f7ff ff05 	bl	0x547c
    5672:	e7b7      	b.n	0x55e4
    5674:	2c14      	cmp	r4, #20
    5676:	d907      	bls.n	0x5688
    5678:	2c54      	cmp	r4, #84	; 0x54
    567a:	d819      	bhi.n	0x56b0
    567c:	0b1c      	lsrs	r4, r3, #12
    567e:	0020      	movs	r0, r4
    5680:	346f      	adds	r4, #111	; 0x6f
    5682:	306e      	adds	r0, #110	; 0x6e
    5684:	00e4      	lsls	r4, r4, #3
    5686:	e7bf      	b.n	0x5608
    5688:	0020      	movs	r0, r4
    568a:	345c      	adds	r4, #92	; 0x5c
    568c:	305b      	adds	r0, #91	; 0x5b
    568e:	00e4      	lsls	r4, r4, #3
    5690:	e7ba      	b.n	0x5608
    5692:	2301      	movs	r3, #1
    5694:	1080      	asrs	r0, r0, #2
    5696:	4083      	lsls	r3, r0
    5698:	6870      	ldr	r0, [r6, #4]
    569a:	4303      	orrs	r3, r0
    569c:	6073      	str	r3, [r6, #4]
    569e:	e7c1      	b.n	0x5624
    56a0:	60e1      	str	r1, [r4, #12]
    56a2:	60a1      	str	r1, [r4, #8]
    56a4:	604a      	str	r2, [r1, #4]
    56a6:	4662      	mov	r2, ip
    56a8:	60cc      	str	r4, [r1, #12]
    56aa:	608c      	str	r4, [r1, #8]
    56ac:	6013      	str	r3, [r2, #0]
    56ae:	e799      	b.n	0x55e4
    56b0:	20aa      	movs	r0, #170	; 0xaa
    56b2:	0040      	lsls	r0, r0, #1
    56b4:	4284      	cmp	r4, r0
    56b6:	d805      	bhi.n	0x56c4
    56b8:	0bdc      	lsrs	r4, r3, #15
    56ba:	0020      	movs	r0, r4
    56bc:	3478      	adds	r4, #120	; 0x78
    56be:	3077      	adds	r0, #119	; 0x77
    56c0:	00e4      	lsls	r4, r4, #3
    56c2:	e7a1      	b.n	0x5608
    56c4:	480d      	ldr	r0, [pc, #52]	; (0x56fc)
    56c6:	4284      	cmp	r4, r0
    56c8:	d805      	bhi.n	0x56d6
    56ca:	0c9c      	lsrs	r4, r3, #18
    56cc:	0020      	movs	r0, r4
    56ce:	347d      	adds	r4, #125	; 0x7d
    56d0:	307c      	adds	r0, #124	; 0x7c
    56d2:	00e4      	lsls	r4, r4, #3
    56d4:	e798      	b.n	0x5608
    56d6:	24fe      	movs	r4, #254	; 0xfe
    56d8:	207e      	movs	r0, #126	; 0x7e
    56da:	00a4      	lsls	r4, r4, #2
    56dc:	e794      	b.n	0x5608
    56de:	431c      	orrs	r4, r3
    56e0:	604c      	str	r4, [r1, #4]
    56e2:	6003      	str	r3, [r0, #0]
    56e4:	e77e      	b.n	0x55e4
    56e6:	46c0      	nop			; (mov r8, r8)
    56e8:	0358      	lsls	r0, r3, #13
    56ea:	0300      	lsls	r0, r0, #12
    56ec:	0360      	lsls	r0, r4, #13
    56ee:	0300      	lsls	r0, r0, #12
    56f0:	01ff      	lsls	r7, r7, #7
    56f2:	0000      	movs	r0, r0
    56f4:	0764      	lsls	r4, r4, #29
    56f6:	0300      	lsls	r0, r0, #12
    56f8:	0114      	lsls	r4, r2, #4
    56fa:	0300      	lsls	r0, r0, #12
    56fc:	0554      	lsls	r4, r2, #21
    56fe:	0000      	movs	r0, r0
    5700:	b510      	push	{r4, lr}
    5702:	f001 fd0b 	bl	0x711c
    5706:	6b40      	ldr	r0, [r0, #52]	; 0x34
    5708:	2800      	cmp	r0, #0
    570a:	d003      	beq.n	0x5714
    570c:	30f0      	adds	r0, #240	; 0xf0
    570e:	bc10      	pop	{r4}
    5710:	bc02      	pop	{r1}
    5712:	4708      	bx	r1
    5714:	4800      	ldr	r0, [pc, #0]	; (0x5718)
    5716:	e7f9      	b.n	0x570c
    5718:	01ec      	lsls	r4, r5, #7
    571a:	0300      	lsls	r0, r0, #12
    571c:	b510      	push	{r4, lr}
    571e:	f001 fcfd 	bl	0x711c
    5722:	6b43      	ldr	r3, [r0, #52]	; 0x34
    5724:	2b00      	cmp	r3, #0
    5726:	d005      	beq.n	0x5734
    5728:	2294      	movs	r2, #148	; 0x94
    572a:	0052      	lsls	r2, r2, #1
    572c:	5c98      	ldrb	r0, [r3, r2]
    572e:	bc10      	pop	{r4}
    5730:	bc02      	pop	{r1}
    5732:	4708      	bx	r1
    5734:	4b00      	ldr	r3, [pc, #0]	; (0x5738)
    5736:	e7f7      	b.n	0x5728
    5738:	01ec      	lsls	r4, r5, #7
    573a:	0300      	lsls	r0, r0, #12
    573c:	b5f0      	push	{r4, r5, r6, r7, lr}
    573e:	4657      	mov	r7, sl
    5740:	4645      	mov	r5, r8
    5742:	46de      	mov	lr, fp
    5744:	464e      	mov	r6, r9
    5746:	b5e0      	push	{r5, r6, r7, lr}
    5748:	000d      	movs	r5, r1
    574a:	350b      	adds	r5, #11
    574c:	b083      	sub	sp, #12
    574e:	0007      	movs	r7, r0
    5750:	2d16      	cmp	r5, #22
    5752:	d82d      	bhi.n	0x57b0
    5754:	2910      	cmp	r1, #16
    5756:	d81f      	bhi.n	0x5798
    5758:	f000 fc84 	bl	0x6064
    575c:	2510      	movs	r5, #16
    575e:	2002      	movs	r0, #2
    5760:	2318      	movs	r3, #24
    5762:	4ec5      	ldr	r6, [pc, #788]	; (0x5a78)
    5764:	18f3      	adds	r3, r6, r3
    5766:	001a      	movs	r2, r3
    5768:	685c      	ldr	r4, [r3, #4]
    576a:	3a08      	subs	r2, #8
    576c:	4294      	cmp	r4, r2
    576e:	d100      	bne.n	0x5772
    5770:	e106      	b.n	0x5980
    5772:	2303      	movs	r3, #3
    5774:	6862      	ldr	r2, [r4, #4]
    5776:	439a      	bics	r2, r3
    5778:	0013      	movs	r3, r2
    577a:	68e2      	ldr	r2, [r4, #12]
    577c:	68a1      	ldr	r1, [r4, #8]
    577e:	60ca      	str	r2, [r1, #12]
    5780:	6091      	str	r1, [r2, #8]
    5782:	2201      	movs	r2, #1
    5784:	18e3      	adds	r3, r4, r3
    5786:	6859      	ldr	r1, [r3, #4]
    5788:	430a      	orrs	r2, r1
    578a:	0038      	movs	r0, r7
    578c:	605a      	str	r2, [r3, #4]
    578e:	f000 fc73 	bl	0x6078
    5792:	0020      	movs	r0, r4
    5794:	3008      	adds	r0, #8
    5796:	e002      	b.n	0x579e
    5798:	230c      	movs	r3, #12
    579a:	2000      	movs	r0, #0
    579c:	603b      	str	r3, [r7, #0]
    579e:	b003      	add	sp, #12
    57a0:	bc3c      	pop	{r2, r3, r4, r5}
    57a2:	4690      	mov	r8, r2
    57a4:	4699      	mov	r9, r3
    57a6:	46a2      	mov	sl, r4
    57a8:	46ab      	mov	fp, r5
    57aa:	bcf0      	pop	{r4, r5, r6, r7}
    57ac:	bc02      	pop	{r1}
    57ae:	4708      	bx	r1
    57b0:	2307      	movs	r3, #7
    57b2:	439d      	bics	r5, r3
    57b4:	d4f0      	bmi.n	0x5798
    57b6:	428d      	cmp	r5, r1
    57b8:	d3ee      	bcc.n	0x5798
    57ba:	f000 fc53 	bl	0x6064
    57be:	23f8      	movs	r3, #248	; 0xf8
    57c0:	33ff      	adds	r3, #255	; 0xff
    57c2:	429d      	cmp	r5, r3
    57c4:	d800      	bhi.n	0x57c8
    57c6:	e1b7      	b.n	0x5b38
    57c8:	0a68      	lsrs	r0, r5, #9
    57ca:	d100      	bne.n	0x57ce
    57cc:	e140      	b.n	0x5a50
    57ce:	2804      	cmp	r0, #4
    57d0:	d900      	bls.n	0x57d4
    57d2:	e18a      	b.n	0x5aea
    57d4:	2338      	movs	r3, #56	; 0x38
    57d6:	4698      	mov	r8, r3
    57d8:	09a8      	lsrs	r0, r5, #6
    57da:	4480      	add	r8, r0
    57dc:	3039      	adds	r0, #57	; 0x39
    57de:	00c1      	lsls	r1, r0, #3
    57e0:	4ea5      	ldr	r6, [pc, #660]	; (0x5a78)
    57e2:	1871      	adds	r1, r6, r1
    57e4:	3908      	subs	r1, #8
    57e6:	68cc      	ldr	r4, [r1, #12]
    57e8:	42a1      	cmp	r1, r4
    57ea:	d100      	bne.n	0x57ee
    57ec:	e0cd      	b.n	0x598a
    57ee:	2303      	movs	r3, #3
    57f0:	6862      	ldr	r2, [r4, #4]
    57f2:	439a      	bics	r2, r3
    57f4:	0013      	movs	r3, r2
    57f6:	1b52      	subs	r2, r2, r5
    57f8:	2a0f      	cmp	r2, #15
    57fa:	dc10      	bgt.n	0x581e
    57fc:	2a00      	cmp	r2, #0
    57fe:	dabc      	bge.n	0x577a
    5800:	2303      	movs	r3, #3
    5802:	469c      	mov	ip, r3
    5804:	e001      	b.n	0x580a
    5806:	2a00      	cmp	r2, #0
    5808:	dab7      	bge.n	0x577a
    580a:	68e4      	ldr	r4, [r4, #12]
    580c:	42a1      	cmp	r1, r4
    580e:	d100      	bne.n	0x5812
    5810:	e0bb      	b.n	0x598a
    5812:	4662      	mov	r2, ip
    5814:	6863      	ldr	r3, [r4, #4]
    5816:	4393      	bics	r3, r2
    5818:	1b5a      	subs	r2, r3, r5
    581a:	2a0f      	cmp	r2, #15
    581c:	ddf3      	ble.n	0x5806
    581e:	0032      	movs	r2, r6
    5820:	6934      	ldr	r4, [r6, #16]
    5822:	3208      	adds	r2, #8
    5824:	4640      	mov	r0, r8
    5826:	4294      	cmp	r4, r2
    5828:	d000      	beq.n	0x582c
    582a:	e0b4      	b.n	0x5996
    582c:	2101      	movs	r1, #1
    582e:	6873      	ldr	r3, [r6, #4]
    5830:	1082      	asrs	r2, r0, #2
    5832:	4091      	lsls	r1, r2
    5834:	4299      	cmp	r1, r3
    5836:	d800      	bhi.n	0x583a
    5838:	e0d2      	b.n	0x59e0
    583a:	2303      	movs	r3, #3
    583c:	68b4      	ldr	r4, [r6, #8]
    583e:	6862      	ldr	r2, [r4, #4]
    5840:	2000      	movs	r0, #0
    5842:	439a      	bics	r2, r3
    5844:	230f      	movs	r3, #15
    5846:	1b51      	subs	r1, r2, r5
    5848:	4690      	mov	r8, r2
    584a:	0fca      	lsrs	r2, r1, #31
    584c:	428b      	cmp	r3, r1
    584e:	4142      	adcs	r2, r0
    5850:	0612      	lsls	r2, r2, #24
    5852:	d102      	bne.n	0x585a
    5854:	45a8      	cmp	r8, r5
    5856:	d300      	bcc.n	0x585a
    5858:	e100      	b.n	0x5a5c
    585a:	0023      	movs	r3, r4
    585c:	4443      	add	r3, r8
    585e:	4a87      	ldr	r2, [pc, #540]	; (0x5a7c)
    5860:	9301      	str	r3, [sp, #4]
    5862:	4b87      	ldr	r3, [pc, #540]	; (0x5a80)
    5864:	4693      	mov	fp, r2
    5866:	681b      	ldr	r3, [r3, #0]
    5868:	6812      	ldr	r2, [r2, #0]
    586a:	18eb      	adds	r3, r5, r3
    586c:	3201      	adds	r2, #1
    586e:	d100      	bne.n	0x5872
    5870:	e1b5      	b.n	0x5bde
    5872:	4a84      	ldr	r2, [pc, #528]	; (0x5a84)
    5874:	4694      	mov	ip, r2
    5876:	4463      	add	r3, ip
    5878:	0b1b      	lsrs	r3, r3, #12
    587a:	031b      	lsls	r3, r3, #12
    587c:	9300      	str	r3, [sp, #0]
    587e:	9900      	ldr	r1, [sp, #0]
    5880:	0038      	movs	r0, r7
    5882:	f001 fc05 	bl	0x7090
    5886:	0003      	movs	r3, r0
    5888:	4681      	mov	r9, r0
    588a:	3301      	adds	r3, #1
    588c:	d100      	bne.n	0x5890
    588e:	e195      	b.n	0x5bbc
    5890:	42b4      	cmp	r4, r6
    5892:	d003      	beq.n	0x589c
    5894:	9b01      	ldr	r3, [sp, #4]
    5896:	4298      	cmp	r0, r3
    5898:	d200      	bcs.n	0x589c
    589a:	e18f      	b.n	0x5bbc
    589c:	4b7a      	ldr	r3, [pc, #488]	; (0x5a88)
    589e:	469a      	mov	sl, r3
    58a0:	681b      	ldr	r3, [r3, #0]
    58a2:	469c      	mov	ip, r3
    58a4:	4653      	mov	r3, sl
    58a6:	9a00      	ldr	r2, [sp, #0]
    58a8:	4462      	add	r2, ip
    58aa:	601a      	str	r2, [r3, #0]
    58ac:	9b01      	ldr	r3, [sp, #4]
    58ae:	454b      	cmp	r3, r9
    58b0:	d100      	bne.n	0x58b4
    58b2:	e186      	b.n	0x5bc2
    58b4:	465b      	mov	r3, fp
    58b6:	681b      	ldr	r3, [r3, #0]
    58b8:	3301      	adds	r3, #1
    58ba:	d100      	bne.n	0x58be
    58bc:	e18b      	b.n	0x5bd6
    58be:	464b      	mov	r3, r9
    58c0:	9901      	ldr	r1, [sp, #4]
    58c2:	1a5b      	subs	r3, r3, r1
    58c4:	189a      	adds	r2, r3, r2
    58c6:	4653      	mov	r3, sl
    58c8:	601a      	str	r2, [r3, #0]
    58ca:	2307      	movs	r3, #7
    58cc:	464a      	mov	r2, r9
    58ce:	4013      	ands	r3, r2
    58d0:	d100      	bne.n	0x58d4
    58d2:	e18e      	b.n	0x5bf2
    58d4:	2108      	movs	r1, #8
    58d6:	4689      	mov	r9, r1
    58d8:	1ad2      	subs	r2, r2, r3
    58da:	4491      	add	r9, r2
    58dc:	4a6b      	ldr	r2, [pc, #428]	; (0x5a8c)
    58de:	1ad2      	subs	r2, r2, r3
    58e0:	9b00      	ldr	r3, [sp, #0]
    58e2:	444b      	add	r3, r9
    58e4:	051b      	lsls	r3, r3, #20
    58e6:	0d1b      	lsrs	r3, r3, #20
    58e8:	1ad3      	subs	r3, r2, r3
    58ea:	0019      	movs	r1, r3
    58ec:	0038      	movs	r0, r7
    58ee:	469b      	mov	fp, r3
    58f0:	f001 fbce 	bl	0x7090
    58f4:	1c43      	adds	r3, r0, #1
    58f6:	d100      	bne.n	0x58fa
    58f8:	e193      	b.n	0x5c22
    58fa:	464b      	mov	r3, r9
    58fc:	2201      	movs	r2, #1
    58fe:	1ac3      	subs	r3, r0, r3
    5900:	445b      	add	r3, fp
    5902:	4313      	orrs	r3, r2
    5904:	4652      	mov	r2, sl
    5906:	4651      	mov	r1, sl
    5908:	6812      	ldr	r2, [r2, #0]
    590a:	445a      	add	r2, fp
    590c:	600a      	str	r2, [r1, #0]
    590e:	4649      	mov	r1, r9
    5910:	60b1      	str	r1, [r6, #8]
    5912:	604b      	str	r3, [r1, #4]
    5914:	42b4      	cmp	r4, r6
    5916:	d100      	bne.n	0x591a
    5918:	e181      	b.n	0x5c1e
    591a:	4643      	mov	r3, r8
    591c:	2b0f      	cmp	r3, #15
    591e:	d800      	bhi.n	0x5922
    5920:	e183      	b.n	0x5c2a
    5922:	2107      	movs	r1, #7
    5924:	6860      	ldr	r0, [r4, #4]
    5926:	3b0c      	subs	r3, #12
    5928:	438b      	bics	r3, r1
    592a:	3906      	subs	r1, #6
    592c:	4001      	ands	r1, r0
    592e:	2005      	movs	r0, #5
    5930:	4319      	orrs	r1, r3
    5932:	6061      	str	r1, [r4, #4]
    5934:	18e1      	adds	r1, r4, r3
    5936:	6048      	str	r0, [r1, #4]
    5938:	6088      	str	r0, [r1, #8]
    593a:	2b0f      	cmp	r3, #15
    593c:	d900      	bls.n	0x5940
    593e:	e18b      	b.n	0x5c58
    5940:	464b      	mov	r3, r9
    5942:	464c      	mov	r4, r9
    5944:	685b      	ldr	r3, [r3, #4]
    5946:	4952      	ldr	r1, [pc, #328]	; (0x5a90)
    5948:	6808      	ldr	r0, [r1, #0]
    594a:	4290      	cmp	r0, r2
    594c:	d200      	bcs.n	0x5950
    594e:	600a      	str	r2, [r1, #0]
    5950:	4950      	ldr	r1, [pc, #320]	; (0x5a94)
    5952:	6808      	ldr	r0, [r1, #0]
    5954:	4290      	cmp	r0, r2
    5956:	d200      	bcs.n	0x595a
    5958:	600a      	str	r2, [r1, #0]
    595a:	2203      	movs	r2, #3
    595c:	4393      	bics	r3, r2
    595e:	1b59      	subs	r1, r3, r5
    5960:	42ab      	cmp	r3, r5
    5962:	419b      	sbcs	r3, r3
    5964:	425b      	negs	r3, r3
    5966:	2b00      	cmp	r3, #0
    5968:	d105      	bne.n	0x5976
    596a:	200f      	movs	r0, #15
    596c:	0fca      	lsrs	r2, r1, #31
    596e:	4288      	cmp	r0, r1
    5970:	4153      	adcs	r3, r2
    5972:	061b      	lsls	r3, r3, #24
    5974:	d072      	beq.n	0x5a5c
    5976:	0038      	movs	r0, r7
    5978:	f000 fb7e 	bl	0x6078
    597c:	2000      	movs	r0, #0
    597e:	e70e      	b.n	0x579e
    5980:	68dc      	ldr	r4, [r3, #12]
    5982:	3002      	adds	r0, #2
    5984:	42a3      	cmp	r3, r4
    5986:	d000      	beq.n	0x598a
    5988:	e6f3      	b.n	0x5772
    598a:	0032      	movs	r2, r6
    598c:	6934      	ldr	r4, [r6, #16]
    598e:	3208      	adds	r2, #8
    5990:	4294      	cmp	r4, r2
    5992:	d100      	bne.n	0x5996
    5994:	e74a      	b.n	0x582c
    5996:	2303      	movs	r3, #3
    5998:	6861      	ldr	r1, [r4, #4]
    599a:	4399      	bics	r1, r3
    599c:	4689      	mov	r9, r1
    599e:	000b      	movs	r3, r1
    59a0:	1b49      	subs	r1, r1, r5
    59a2:	290f      	cmp	r1, #15
    59a4:	dd00      	ble.n	0x59a8
    59a6:	e0cb      	b.n	0x5b40
    59a8:	6172      	str	r2, [r6, #20]
    59aa:	6132      	str	r2, [r6, #16]
    59ac:	2900      	cmp	r1, #0
    59ae:	db00      	blt.n	0x59b2
    59b0:	e6e7      	b.n	0x5782
    59b2:	4a39      	ldr	r2, [pc, #228]	; (0x5a98)
    59b4:	4591      	cmp	r9, r2
    59b6:	d871      	bhi.n	0x5a9c
    59b8:	08da      	lsrs	r2, r3, #3
    59ba:	2301      	movs	r3, #1
    59bc:	1091      	asrs	r1, r2, #2
    59be:	408b      	lsls	r3, r1
    59c0:	00d2      	lsls	r2, r2, #3
    59c2:	6871      	ldr	r1, [r6, #4]
    59c4:	1992      	adds	r2, r2, r6
    59c6:	430b      	orrs	r3, r1
    59c8:	6891      	ldr	r1, [r2, #8]
    59ca:	6073      	str	r3, [r6, #4]
    59cc:	60e2      	str	r2, [r4, #12]
    59ce:	60a1      	str	r1, [r4, #8]
    59d0:	6094      	str	r4, [r2, #8]
    59d2:	60cc      	str	r4, [r1, #12]
    59d4:	2101      	movs	r1, #1
    59d6:	1082      	asrs	r2, r0, #2
    59d8:	4091      	lsls	r1, r2
    59da:	4299      	cmp	r1, r3
    59dc:	d900      	bls.n	0x59e0
    59de:	e72c      	b.n	0x583a
    59e0:	420b      	tst	r3, r1
    59e2:	d105      	bne.n	0x59f0
    59e4:	2203      	movs	r2, #3
    59e6:	4390      	bics	r0, r2
    59e8:	0049      	lsls	r1, r1, #1
    59ea:	3004      	adds	r0, #4
    59ec:	420b      	tst	r3, r1
    59ee:	d0fb      	beq.n	0x59e8
    59f0:	2303      	movs	r3, #3
    59f2:	4698      	mov	r8, r3
    59f4:	00c3      	lsls	r3, r0, #3
    59f6:	4699      	mov	r9, r3
    59f8:	44b1      	add	r9, r6
    59fa:	46cc      	mov	ip, r9
    59fc:	4682      	mov	sl, r0
    59fe:	4663      	mov	r3, ip
    5a00:	68dc      	ldr	r4, [r3, #12]
    5a02:	45a4      	cmp	ip, r4
    5a04:	d106      	bne.n	0x5a14
    5a06:	e07c      	b.n	0x5b02
    5a08:	2a00      	cmp	r2, #0
    5a0a:	db00      	blt.n	0x5a0e
    5a0c:	e085      	b.n	0x5b1a
    5a0e:	68e4      	ldr	r4, [r4, #12]
    5a10:	45a4      	cmp	ip, r4
    5a12:	d076      	beq.n	0x5b02
    5a14:	4642      	mov	r2, r8
    5a16:	6863      	ldr	r3, [r4, #4]
    5a18:	4393      	bics	r3, r2
    5a1a:	1b5a      	subs	r2, r3, r5
    5a1c:	2a0f      	cmp	r2, #15
    5a1e:	ddf3      	ble.n	0x5a08
    5a20:	2001      	movs	r0, #1
    5a22:	4680      	mov	r8, r0
    5a24:	1961      	adds	r1, r4, r5
    5a26:	4305      	orrs	r5, r0
    5a28:	6065      	str	r5, [r4, #4]
    5a2a:	68a0      	ldr	r0, [r4, #8]
    5a2c:	68e5      	ldr	r5, [r4, #12]
    5a2e:	60c5      	str	r5, [r0, #12]
    5a30:	60a8      	str	r0, [r5, #8]
    5a32:	4640      	mov	r0, r8
    5a34:	6171      	str	r1, [r6, #20]
    5a36:	6131      	str	r1, [r6, #16]
    5a38:	4310      	orrs	r0, r2
    5a3a:	3608      	adds	r6, #8
    5a3c:	6048      	str	r0, [r1, #4]
    5a3e:	60ce      	str	r6, [r1, #12]
    5a40:	608e      	str	r6, [r1, #8]
    5a42:	0038      	movs	r0, r7
    5a44:	50e2      	str	r2, [r4, r3]
    5a46:	f000 fb17 	bl	0x6078
    5a4a:	0020      	movs	r0, r4
    5a4c:	3008      	adds	r0, #8
    5a4e:	e6a6      	b.n	0x579e
    5a50:	2180      	movs	r1, #128	; 0x80
    5a52:	233f      	movs	r3, #63	; 0x3f
    5a54:	0089      	lsls	r1, r1, #2
    5a56:	2040      	movs	r0, #64	; 0x40
    5a58:	4698      	mov	r8, r3
    5a5a:	e6c1      	b.n	0x57e0
    5a5c:	2301      	movs	r3, #1
    5a5e:	002a      	movs	r2, r5
    5a60:	1965      	adds	r5, r4, r5
    5a62:	431a      	orrs	r2, r3
    5a64:	430b      	orrs	r3, r1
    5a66:	6062      	str	r2, [r4, #4]
    5a68:	0038      	movs	r0, r7
    5a6a:	60b5      	str	r5, [r6, #8]
    5a6c:	606b      	str	r3, [r5, #4]
    5a6e:	f000 fb03 	bl	0x6078
    5a72:	0020      	movs	r0, r4
    5a74:	3008      	adds	r0, #8
    5a76:	e692      	b.n	0x579e
    5a78:	0358      	lsls	r0, r3, #13
    5a7a:	0300      	lsls	r0, r0, #12
    5a7c:	0760      	lsls	r0, r4, #29
    5a7e:	0300      	lsls	r0, r0, #12
    5a80:	0114      	lsls	r4, r2, #4
    5a82:	0300      	lsls	r0, r0, #12
    5a84:	100f      	asrs	r7, r1, #32
    5a86:	0000      	movs	r0, r0
    5a88:	00e4      	lsls	r4, r4, #3
    5a8a:	0300      	lsls	r0, r0, #12
    5a8c:	1008      	asrs	r0, r1, #32
    5a8e:	0000      	movs	r0, r0
    5a90:	010c      	lsls	r4, r1, #4
    5a92:	0300      	lsls	r0, r0, #12
    5a94:	0110      	lsls	r0, r2, #4
    5a96:	0300      	lsls	r0, r0, #12
    5a98:	01ff      	lsls	r7, r7, #7
    5a9a:	0000      	movs	r0, r0
    5a9c:	0a5a      	lsrs	r2, r3, #9
    5a9e:	2a04      	cmp	r2, #4
    5aa0:	d961      	bls.n	0x5b66
    5aa2:	2a14      	cmp	r2, #20
    5aa4:	d900      	bls.n	0x5aa8
    5aa6:	e0a7      	b.n	0x5bf8
    5aa8:	0011      	movs	r1, r2
    5aaa:	325c      	adds	r2, #92	; 0x5c
    5aac:	315b      	adds	r1, #91	; 0x5b
    5aae:	00d2      	lsls	r2, r2, #3
    5ab0:	2308      	movs	r3, #8
    5ab2:	425b      	negs	r3, r3
    5ab4:	469c      	mov	ip, r3
    5ab6:	18b2      	adds	r2, r6, r2
    5ab8:	4494      	add	ip, r2
    5aba:	4663      	mov	r3, ip
    5abc:	689a      	ldr	r2, [r3, #8]
    5abe:	2303      	movs	r3, #3
    5ac0:	4698      	mov	r8, r3
    5ac2:	4594      	cmp	ip, r2
    5ac4:	d100      	bne.n	0x5ac8
    5ac6:	e08d      	b.n	0x5be4
    5ac8:	4643      	mov	r3, r8
    5aca:	6851      	ldr	r1, [r2, #4]
    5acc:	4399      	bics	r1, r3
    5ace:	4549      	cmp	r1, r9
    5ad0:	d902      	bls.n	0x5ad8
    5ad2:	6892      	ldr	r2, [r2, #8]
    5ad4:	4594      	cmp	ip, r2
    5ad6:	d1f7      	bne.n	0x5ac8
    5ad8:	68d3      	ldr	r3, [r2, #12]
    5ada:	469c      	mov	ip, r3
    5adc:	6873      	ldr	r3, [r6, #4]
    5ade:	4661      	mov	r1, ip
    5ae0:	60a2      	str	r2, [r4, #8]
    5ae2:	60e1      	str	r1, [r4, #12]
    5ae4:	608c      	str	r4, [r1, #8]
    5ae6:	60d4      	str	r4, [r2, #12]
    5ae8:	e774      	b.n	0x59d4
    5aea:	2814      	cmp	r0, #20
    5aec:	d941      	bls.n	0x5b72
    5aee:	2854      	cmp	r0, #84	; 0x54
    5af0:	d900      	bls.n	0x5af4
    5af2:	e089      	b.n	0x5c08
    5af4:	236e      	movs	r3, #110	; 0x6e
    5af6:	4698      	mov	r8, r3
    5af8:	0b28      	lsrs	r0, r5, #12
    5afa:	4480      	add	r8, r0
    5afc:	306f      	adds	r0, #111	; 0x6f
    5afe:	00c1      	lsls	r1, r0, #3
    5b00:	e66e      	b.n	0x57e0
    5b02:	2308      	movs	r3, #8
    5b04:	469b      	mov	fp, r3
    5b06:	3b07      	subs	r3, #7
    5b08:	44dc      	add	ip, fp
    5b0a:	469b      	mov	fp, r3
    5b0c:	44da      	add	sl, fp
    5b0e:	4643      	mov	r3, r8
    5b10:	4652      	mov	r2, sl
    5b12:	4213      	tst	r3, r2
    5b14:	d000      	beq.n	0x5b18
    5b16:	e772      	b.n	0x59fe
    5b18:	e03b      	b.n	0x5b92
    5b1a:	2201      	movs	r2, #1
    5b1c:	18e3      	adds	r3, r4, r3
    5b1e:	6859      	ldr	r1, [r3, #4]
    5b20:	430a      	orrs	r2, r1
    5b22:	605a      	str	r2, [r3, #4]
    5b24:	68e3      	ldr	r3, [r4, #12]
    5b26:	68a2      	ldr	r2, [r4, #8]
    5b28:	0038      	movs	r0, r7
    5b2a:	60d3      	str	r3, [r2, #12]
    5b2c:	609a      	str	r2, [r3, #8]
    5b2e:	f000 faa3 	bl	0x6078
    5b32:	0020      	movs	r0, r4
    5b34:	3008      	adds	r0, #8
    5b36:	e632      	b.n	0x579e
    5b38:	002b      	movs	r3, r5
    5b3a:	08e8      	lsrs	r0, r5, #3
    5b3c:	3308      	adds	r3, #8
    5b3e:	e610      	b.n	0x5762
    5b40:	2301      	movs	r3, #1
    5b42:	1960      	adds	r0, r4, r5
    5b44:	431d      	orrs	r5, r3
    5b46:	6065      	str	r5, [r4, #4]
    5b48:	6170      	str	r0, [r6, #20]
    5b4a:	6130      	str	r0, [r6, #16]
    5b4c:	60c2      	str	r2, [r0, #12]
    5b4e:	6082      	str	r2, [r0, #8]
    5b50:	001a      	movs	r2, r3
    5b52:	464b      	mov	r3, r9
    5b54:	430a      	orrs	r2, r1
    5b56:	6042      	str	r2, [r0, #4]
    5b58:	0038      	movs	r0, r7
    5b5a:	50e1      	str	r1, [r4, r3]
    5b5c:	f000 fa8c 	bl	0x6078
    5b60:	0020      	movs	r0, r4
    5b62:	3008      	adds	r0, #8
    5b64:	e61b      	b.n	0x579e
    5b66:	099a      	lsrs	r2, r3, #6
    5b68:	0011      	movs	r1, r2
    5b6a:	3239      	adds	r2, #57	; 0x39
    5b6c:	3138      	adds	r1, #56	; 0x38
    5b6e:	00d2      	lsls	r2, r2, #3
    5b70:	e79e      	b.n	0x5ab0
    5b72:	235b      	movs	r3, #91	; 0x5b
    5b74:	4698      	mov	r8, r3
    5b76:	4480      	add	r8, r0
    5b78:	305c      	adds	r0, #92	; 0x5c
    5b7a:	00c1      	lsls	r1, r0, #3
    5b7c:	e630      	b.n	0x57e0
    5b7e:	2308      	movs	r3, #8
    5b80:	425b      	negs	r3, r3
    5b82:	469c      	mov	ip, r3
    5b84:	44e1      	add	r9, ip
    5b86:	464b      	mov	r3, r9
    5b88:	689b      	ldr	r3, [r3, #8]
    5b8a:	3801      	subs	r0, #1
    5b8c:	454b      	cmp	r3, r9
    5b8e:	d000      	beq.n	0x5b92
    5b90:	e07f      	b.n	0x5c92
    5b92:	4643      	mov	r3, r8
    5b94:	4203      	tst	r3, r0
    5b96:	d1f2      	bne.n	0x5b7e
    5b98:	6873      	ldr	r3, [r6, #4]
    5b9a:	438b      	bics	r3, r1
    5b9c:	6073      	str	r3, [r6, #4]
    5b9e:	0049      	lsls	r1, r1, #1
    5ba0:	428b      	cmp	r3, r1
    5ba2:	d200      	bcs.n	0x5ba6
    5ba4:	e649      	b.n	0x583a
    5ba6:	2900      	cmp	r1, #0
    5ba8:	d104      	bne.n	0x5bb4
    5baa:	e646      	b.n	0x583a
    5bac:	2204      	movs	r2, #4
    5bae:	4694      	mov	ip, r2
    5bb0:	0049      	lsls	r1, r1, #1
    5bb2:	44e2      	add	sl, ip
    5bb4:	420b      	tst	r3, r1
    5bb6:	d0f9      	beq.n	0x5bac
    5bb8:	4650      	mov	r0, sl
    5bba:	e71b      	b.n	0x59f4
    5bbc:	68b4      	ldr	r4, [r6, #8]
    5bbe:	6863      	ldr	r3, [r4, #4]
    5bc0:	e6cb      	b.n	0x595a
    5bc2:	051b      	lsls	r3, r3, #20
    5bc4:	d000      	beq.n	0x5bc8
    5bc6:	e675      	b.n	0x58b4
    5bc8:	2101      	movs	r1, #1
    5bca:	9b00      	ldr	r3, [sp, #0]
    5bcc:	68b4      	ldr	r4, [r6, #8]
    5bce:	4443      	add	r3, r8
    5bd0:	430b      	orrs	r3, r1
    5bd2:	6063      	str	r3, [r4, #4]
    5bd4:	e6b7      	b.n	0x5946
    5bd6:	465b      	mov	r3, fp
    5bd8:	464a      	mov	r2, r9
    5bda:	601a      	str	r2, [r3, #0]
    5bdc:	e675      	b.n	0x58ca
    5bde:	3310      	adds	r3, #16
    5be0:	9300      	str	r3, [sp, #0]
    5be2:	e64c      	b.n	0x587e
    5be4:	1089      	asrs	r1, r1, #2
    5be6:	3b02      	subs	r3, #2
    5be8:	408b      	lsls	r3, r1
    5bea:	6871      	ldr	r1, [r6, #4]
    5bec:	430b      	orrs	r3, r1
    5bee:	6073      	str	r3, [r6, #4]
    5bf0:	e775      	b.n	0x5ade
    5bf2:	2280      	movs	r2, #128	; 0x80
    5bf4:	0152      	lsls	r2, r2, #5
    5bf6:	e673      	b.n	0x58e0
    5bf8:	2a54      	cmp	r2, #84	; 0x54
    5bfa:	d819      	bhi.n	0x5c30
    5bfc:	0b1a      	lsrs	r2, r3, #12
    5bfe:	0011      	movs	r1, r2
    5c00:	326f      	adds	r2, #111	; 0x6f
    5c02:	316e      	adds	r1, #110	; 0x6e
    5c04:	00d2      	lsls	r2, r2, #3
    5c06:	e753      	b.n	0x5ab0
    5c08:	23aa      	movs	r3, #170	; 0xaa
    5c0a:	005b      	lsls	r3, r3, #1
    5c0c:	4298      	cmp	r0, r3
    5c0e:	d819      	bhi.n	0x5c44
    5c10:	3bdd      	subs	r3, #221	; 0xdd
    5c12:	4698      	mov	r8, r3
    5c14:	0be8      	lsrs	r0, r5, #15
    5c16:	4480      	add	r8, r0
    5c18:	3078      	adds	r0, #120	; 0x78
    5c1a:	00c1      	lsls	r1, r0, #3
    5c1c:	e5e0      	b.n	0x57e0
    5c1e:	464c      	mov	r4, r9
    5c20:	e691      	b.n	0x5946
    5c22:	2200      	movs	r2, #0
    5c24:	2301      	movs	r3, #1
    5c26:	4693      	mov	fp, r2
    5c28:	e66c      	b.n	0x5904
    5c2a:	2301      	movs	r3, #1
    5c2c:	604b      	str	r3, [r1, #4]
    5c2e:	e6a2      	b.n	0x5976
    5c30:	21aa      	movs	r1, #170	; 0xaa
    5c32:	0049      	lsls	r1, r1, #1
    5c34:	428a      	cmp	r2, r1
    5c36:	d819      	bhi.n	0x5c6c
    5c38:	0bda      	lsrs	r2, r3, #15
    5c3a:	0011      	movs	r1, r2
    5c3c:	3278      	adds	r2, #120	; 0x78
    5c3e:	3177      	adds	r1, #119	; 0x77
    5c40:	00d2      	lsls	r2, r2, #3
    5c42:	e735      	b.n	0x5ab0
    5c44:	4b14      	ldr	r3, [pc, #80]	; (0x5c98)
    5c46:	4298      	cmp	r0, r3
    5c48:	d819      	bhi.n	0x5c7e
    5c4a:	237c      	movs	r3, #124	; 0x7c
    5c4c:	4698      	mov	r8, r3
    5c4e:	0ca8      	lsrs	r0, r5, #18
    5c50:	4480      	add	r8, r0
    5c52:	307d      	adds	r0, #125	; 0x7d
    5c54:	00c1      	lsls	r1, r0, #3
    5c56:	e5c3      	b.n	0x57e0
    5c58:	0021      	movs	r1, r4
    5c5a:	0038      	movs	r0, r7
    5c5c:	3108      	adds	r1, #8
    5c5e:	f7ff fc5f 	bl	0x5520
    5c62:	4653      	mov	r3, sl
    5c64:	68b4      	ldr	r4, [r6, #8]
    5c66:	681a      	ldr	r2, [r3, #0]
    5c68:	6863      	ldr	r3, [r4, #4]
    5c6a:	e66c      	b.n	0x5946
    5c6c:	490a      	ldr	r1, [pc, #40]	; (0x5c98)
    5c6e:	428a      	cmp	r2, r1
    5c70:	d80b      	bhi.n	0x5c8a
    5c72:	0c9a      	lsrs	r2, r3, #18
    5c74:	0011      	movs	r1, r2
    5c76:	327d      	adds	r2, #125	; 0x7d
    5c78:	317c      	adds	r1, #124	; 0x7c
    5c7a:	00d2      	lsls	r2, r2, #3
    5c7c:	e718      	b.n	0x5ab0
    5c7e:	21fe      	movs	r1, #254	; 0xfe
    5c80:	237e      	movs	r3, #126	; 0x7e
    5c82:	0089      	lsls	r1, r1, #2
    5c84:	207f      	movs	r0, #127	; 0x7f
    5c86:	4698      	mov	r8, r3
    5c88:	e5aa      	b.n	0x57e0
    5c8a:	22fe      	movs	r2, #254	; 0xfe
    5c8c:	217e      	movs	r1, #126	; 0x7e
    5c8e:	0092      	lsls	r2, r2, #2
    5c90:	e70e      	b.n	0x5ab0
    5c92:	6873      	ldr	r3, [r6, #4]
    5c94:	e783      	b.n	0x5b9e
    5c96:	46c0      	nop			; (mov r8, r8)
    5c98:	0554      	lsls	r4, r2, #21
    5c9a:	0000      	movs	r0, r0
    5c9c:	b5f0      	push	{r4, r5, r6, r7, lr}
    5c9e:	464e      	mov	r6, r9
    5ca0:	46de      	mov	lr, fp
    5ca2:	4657      	mov	r7, sl
    5ca4:	4645      	mov	r5, r8
    5ca6:	b5e0      	push	{r5, r6, r7, lr}
    5ca8:	b087      	sub	sp, #28
    5caa:	9003      	str	r0, [sp, #12]
    5cac:	9301      	str	r3, [sp, #4]
    5cae:	9e10      	ldr	r6, [sp, #64]	; 0x40
    5cb0:	2900      	cmp	r1, #0
    5cb2:	d046      	beq.n	0x5d42
    5cb4:	2a00      	cmp	r2, #0
    5cb6:	d047      	beq.n	0x5d48
    5cb8:	9b01      	ldr	r3, [sp, #4]
    5cba:	2b00      	cmp	r3, #0
    5cbc:	d100      	bne.n	0x5cc0
    5cbe:	e112      	b.n	0x5ee6
    5cc0:	6833      	ldr	r3, [r6, #0]
    5cc2:	9302      	str	r3, [sp, #8]
    5cc4:	2b00      	cmp	r3, #0
    5cc6:	d02c      	beq.n	0x5d22
    5cc8:	2500      	movs	r5, #0
    5cca:	7930      	ldrb	r0, [r6, #4]
    5ccc:	46ac      	mov	ip, r5
    5cce:	2800      	cmp	r0, #0
    5cd0:	d02c      	beq.n	0x5d2c
    5cd2:	287f      	cmp	r0, #127	; 0x7f
    5cd4:	dc00      	bgt.n	0x5cd8
    5cd6:	e088      	b.n	0x5dea
    5cd8:	0005      	movs	r5, r0
    5cda:	3dc0      	subs	r5, #192	; 0xc0
    5cdc:	2d1f      	cmp	r5, #31
    5cde:	d835      	bhi.n	0x5d4c
    5ce0:	7130      	strb	r0, [r6, #4]
    5ce2:	9b02      	ldr	r3, [sp, #8]
    5ce4:	2b00      	cmp	r3, #0
    5ce6:	d105      	bne.n	0x5cf4
    5ce8:	2401      	movs	r4, #1
    5cea:	9b01      	ldr	r3, [sp, #4]
    5cec:	6034      	str	r4, [r6, #0]
    5cee:	2b01      	cmp	r3, #1
    5cf0:	d800      	bhi.n	0x5cf4
    5cf2:	e0f8      	b.n	0x5ee6
    5cf4:	4663      	mov	r3, ip
    5cf6:	5cd2      	ldrb	r2, [r2, r3]
    5cf8:	1c5c      	adds	r4, r3, #1
    5cfa:	0013      	movs	r3, r2
    5cfc:	3b80      	subs	r3, #128	; 0x80
    5cfe:	2b3f      	cmp	r3, #63	; 0x3f
    5d00:	d900      	bls.n	0x5d04
    5d02:	e0f5      	b.n	0x5ef0
    5d04:	28c1      	cmp	r0, #193	; 0xc1
    5d06:	dc00      	bgt.n	0x5d0a
    5d08:	e0f2      	b.n	0x5ef0
    5d0a:	2300      	movs	r3, #0
    5d0c:	6033      	str	r3, [r6, #0]
    5d0e:	23f8      	movs	r3, #248	; 0xf8
    5d10:	0180      	lsls	r0, r0, #6
    5d12:	00db      	lsls	r3, r3, #3
    5d14:	4018      	ands	r0, r3
    5d16:	233f      	movs	r3, #63	; 0x3f
    5d18:	4013      	ands	r3, r2
    5d1a:	4318      	orrs	r0, r3
    5d1c:	6008      	str	r0, [r1, #0]
    5d1e:	0020      	movs	r0, r4
    5d20:	e006      	b.n	0x5d30
    5d22:	2501      	movs	r5, #1
    5d24:	7810      	ldrb	r0, [r2, #0]
    5d26:	46ac      	mov	ip, r5
    5d28:	2800      	cmp	r0, #0
    5d2a:	d1d2      	bne.n	0x5cd2
    5d2c:	6008      	str	r0, [r1, #0]
    5d2e:	6030      	str	r0, [r6, #0]
    5d30:	b007      	add	sp, #28
    5d32:	bc3c      	pop	{r2, r3, r4, r5}
    5d34:	4690      	mov	r8, r2
    5d36:	4699      	mov	r9, r3
    5d38:	46a2      	mov	sl, r4
    5d3a:	46ab      	mov	fp, r5
    5d3c:	bcf0      	pop	{r4, r5, r6, r7}
    5d3e:	bc02      	pop	{r1}
    5d40:	4708      	bx	r1
    5d42:	a905      	add	r1, sp, #20
    5d44:	2a00      	cmp	r2, #0
    5d46:	d1b7      	bne.n	0x5cb8
    5d48:	2000      	movs	r0, #0
    5d4a:	e7f1      	b.n	0x5d30
    5d4c:	25e0      	movs	r5, #224	; 0xe0
    5d4e:	426d      	negs	r5, r5
    5d50:	46a9      	mov	r9, r5
    5d52:	4481      	add	r9, r0
    5d54:	464d      	mov	r5, r9
    5d56:	2d0f      	cmp	r5, #15
    5d58:	d84c      	bhi.n	0x5df4
    5d5a:	7130      	strb	r0, [r6, #4]
    5d5c:	9b02      	ldr	r3, [sp, #8]
    5d5e:	2b00      	cmp	r3, #0
    5d60:	d100      	bne.n	0x5d64
    5d62:	e0a2      	b.n	0x5eaa
    5d64:	9c01      	ldr	r4, [sp, #4]
    5d66:	1c65      	adds	r5, r4, #1
    5d68:	1e6b      	subs	r3, r5, #1
    5d6a:	419d      	sbcs	r5, r3
    5d6c:	46a0      	mov	r8, r4
    5d6e:	44a8      	add	r8, r5
    5d70:	4643      	mov	r3, r8
    5d72:	9301      	str	r3, [sp, #4]
    5d74:	9b02      	ldr	r3, [sp, #8]
    5d76:	2b01      	cmp	r3, #1
    5d78:	d100      	bne.n	0x5d7c
    5d7a:	e09b      	b.n	0x5eb4
    5d7c:	7975      	ldrb	r5, [r6, #5]
    5d7e:	0fef      	lsrs	r7, r5, #31
    5d80:	46b8      	mov	r8, r7
    5d82:	279f      	movs	r7, #159	; 0x9f
    5d84:	46ba      	mov	sl, r7
    5d86:	2700      	movs	r7, #0
    5d88:	46bb      	mov	fp, r7
    5d8a:	4653      	mov	r3, sl
    5d8c:	4647      	mov	r7, r8
    5d8e:	465c      	mov	r4, fp
    5d90:	42ab      	cmp	r3, r5
    5d92:	4167      	adcs	r7, r4
    5d94:	063b      	lsls	r3, r7, #24
    5d96:	d003      	beq.n	0x5da0
    5d98:	464b      	mov	r3, r9
    5d9a:	2b00      	cmp	r3, #0
    5d9c:	d100      	bne.n	0x5da0
    5d9e:	e0a7      	b.n	0x5ef0
    5da0:	2380      	movs	r3, #128	; 0x80
    5da2:	425b      	negs	r3, r3
    5da4:	4698      	mov	r8, r3
    5da6:	44a8      	add	r8, r5
    5da8:	4643      	mov	r3, r8
    5daa:	2b3f      	cmp	r3, #63	; 0x3f
    5dac:	d900      	bls.n	0x5db0
    5dae:	e09f      	b.n	0x5ef0
    5db0:	7175      	strb	r5, [r6, #5]
    5db2:	9b02      	ldr	r3, [sp, #8]
    5db4:	2b01      	cmp	r3, #1
    5db6:	d100      	bne.n	0x5dba
    5db8:	e08f      	b.n	0x5eda
    5dba:	4664      	mov	r4, ip
    5dbc:	5d12      	ldrb	r2, [r2, r4]
    5dbe:	0014      	movs	r4, r2
    5dc0:	4663      	mov	r3, ip
    5dc2:	3c80      	subs	r4, #128	; 0x80
    5dc4:	3301      	adds	r3, #1
    5dc6:	2c3f      	cmp	r4, #63	; 0x3f
    5dc8:	d900      	bls.n	0x5dcc
    5dca:	e091      	b.n	0x5ef0
    5dcc:	2400      	movs	r4, #0
    5dce:	6034      	str	r4, [r6, #0]
    5dd0:	24fc      	movs	r4, #252	; 0xfc
    5dd2:	0700      	lsls	r0, r0, #28
    5dd4:	01ad      	lsls	r5, r5, #6
    5dd6:	0124      	lsls	r4, r4, #4
    5dd8:	0c00      	lsrs	r0, r0, #16
    5dda:	4025      	ands	r5, r4
    5ddc:	4305      	orrs	r5, r0
    5dde:	203f      	movs	r0, #63	; 0x3f
    5de0:	4010      	ands	r0, r2
    5de2:	4305      	orrs	r5, r0
    5de4:	600d      	str	r5, [r1, #0]
    5de6:	0018      	movs	r0, r3
    5de8:	e7a2      	b.n	0x5d30
    5dea:	2300      	movs	r3, #0
    5dec:	6033      	str	r3, [r6, #0]
    5dee:	6008      	str	r0, [r1, #0]
    5df0:	2001      	movs	r0, #1
    5df2:	e79d      	b.n	0x5d30
    5df4:	0005      	movs	r5, r0
    5df6:	3df0      	subs	r5, #240	; 0xf0
    5df8:	2d04      	cmp	r5, #4
    5dfa:	d879      	bhi.n	0x5ef0
    5dfc:	7130      	strb	r0, [r6, #4]
    5dfe:	9b02      	ldr	r3, [sp, #8]
    5e00:	2b00      	cmp	r3, #0
    5e02:	d05e      	beq.n	0x5ec2
    5e04:	9c01      	ldr	r4, [sp, #4]
    5e06:	1c65      	adds	r5, r4, #1
    5e08:	1e6b      	subs	r3, r5, #1
    5e0a:	419d      	sbcs	r5, r3
    5e0c:	46a0      	mov	r8, r4
    5e0e:	44a8      	add	r8, r5
    5e10:	4643      	mov	r3, r8
    5e12:	9301      	str	r3, [sp, #4]
    5e14:	9b02      	ldr	r3, [sp, #8]
    5e16:	2b01      	cmp	r3, #1
    5e18:	d058      	beq.n	0x5ecc
    5e1a:	7975      	ldrb	r5, [r6, #5]
    5e1c:	28f0      	cmp	r0, #240	; 0xf0
    5e1e:	d065      	beq.n	0x5eec
    5e20:	28f4      	cmp	r0, #244	; 0xf4
    5e22:	d108      	bne.n	0x5e36
    5e24:	2301      	movs	r3, #1
    5e26:	4698      	mov	r8, r3
    5e28:	2d8f      	cmp	r5, #143	; 0x8f
    5e2a:	dc01      	bgt.n	0x5e30
    5e2c:	2300      	movs	r3, #0
    5e2e:	4698      	mov	r8, r3
    5e30:	4643      	mov	r3, r8
    5e32:	061b      	lsls	r3, r3, #24
    5e34:	d15c      	bne.n	0x5ef0
    5e36:	2380      	movs	r3, #128	; 0x80
    5e38:	425b      	negs	r3, r3
    5e3a:	4698      	mov	r8, r3
    5e3c:	44a8      	add	r8, r5
    5e3e:	4643      	mov	r3, r8
    5e40:	2b3f      	cmp	r3, #63	; 0x3f
    5e42:	d855      	bhi.n	0x5ef0
    5e44:	7175      	strb	r5, [r6, #5]
    5e46:	9b02      	ldr	r3, [sp, #8]
    5e48:	2b01      	cmp	r3, #1
    5e4a:	d057      	beq.n	0x5efc
    5e4c:	9f01      	ldr	r7, [sp, #4]
    5e4e:	1c7c      	adds	r4, r7, #1
    5e50:	1e63      	subs	r3, r4, #1
    5e52:	419c      	sbcs	r4, r3
    5e54:	46b8      	mov	r8, r7
    5e56:	44a0      	add	r8, r4
    5e58:	4643      	mov	r3, r8
    5e5a:	9301      	str	r3, [sp, #4]
    5e5c:	6833      	ldr	r3, [r6, #0]
    5e5e:	2b02      	cmp	r3, #2
    5e60:	d051      	beq.n	0x5f06
    5e62:	79b4      	ldrb	r4, [r6, #6]
    5e64:	0023      	movs	r3, r4
    5e66:	3b80      	subs	r3, #128	; 0x80
    5e68:	2b3f      	cmp	r3, #63	; 0x3f
    5e6a:	d841      	bhi.n	0x5ef0
    5e6c:	4667      	mov	r7, ip
    5e6e:	4663      	mov	r3, ip
    5e70:	5dd2      	ldrb	r2, [r2, r7]
    5e72:	4694      	mov	ip, r2
    5e74:	3a80      	subs	r2, #128	; 0x80
    5e76:	3301      	adds	r3, #1
    5e78:	2a3f      	cmp	r2, #63	; 0x3f
    5e7a:	d839      	bhi.n	0x5ef0
    5e7c:	22e0      	movs	r2, #224	; 0xe0
    5e7e:	0480      	lsls	r0, r0, #18
    5e80:	0352      	lsls	r2, r2, #13
    5e82:	4010      	ands	r0, r2
    5e84:	22fc      	movs	r2, #252	; 0xfc
    5e86:	032d      	lsls	r5, r5, #12
    5e88:	0292      	lsls	r2, r2, #10
    5e8a:	4015      	ands	r5, r2
    5e8c:	22fc      	movs	r2, #252	; 0xfc
    5e8e:	01a4      	lsls	r4, r4, #6
    5e90:	0112      	lsls	r2, r2, #4
    5e92:	4014      	ands	r4, r2
    5e94:	4328      	orrs	r0, r5
    5e96:	4320      	orrs	r0, r4
    5e98:	223f      	movs	r2, #63	; 0x3f
    5e9a:	4664      	mov	r4, ip
    5e9c:	4022      	ands	r2, r4
    5e9e:	4310      	orrs	r0, r2
    5ea0:	2200      	movs	r2, #0
    5ea2:	6008      	str	r0, [r1, #0]
    5ea4:	6032      	str	r2, [r6, #0]
    5ea6:	0018      	movs	r0, r3
    5ea8:	e742      	b.n	0x5d30
    5eaa:	2401      	movs	r4, #1
    5eac:	9b01      	ldr	r3, [sp, #4]
    5eae:	6034      	str	r4, [r6, #0]
    5eb0:	2b01      	cmp	r3, #1
    5eb2:	d918      	bls.n	0x5ee6
    5eb4:	4663      	mov	r3, ip
    5eb6:	5cd5      	ldrb	r5, [r2, r3]
    5eb8:	2301      	movs	r3, #1
    5eba:	4698      	mov	r8, r3
    5ebc:	9302      	str	r3, [sp, #8]
    5ebe:	44c4      	add	ip, r8
    5ec0:	e75d      	b.n	0x5d7e
    5ec2:	2401      	movs	r4, #1
    5ec4:	9b01      	ldr	r3, [sp, #4]
    5ec6:	6034      	str	r4, [r6, #0]
    5ec8:	2b01      	cmp	r3, #1
    5eca:	d90c      	bls.n	0x5ee6
    5ecc:	4663      	mov	r3, ip
    5ece:	5cd5      	ldrb	r5, [r2, r3]
    5ed0:	2301      	movs	r3, #1
    5ed2:	4698      	mov	r8, r3
    5ed4:	9302      	str	r3, [sp, #8]
    5ed6:	44c4      	add	ip, r8
    5ed8:	e7a0      	b.n	0x5e1c
    5eda:	2402      	movs	r4, #2
    5edc:	9b01      	ldr	r3, [sp, #4]
    5ede:	6034      	str	r4, [r6, #0]
    5ee0:	2b02      	cmp	r3, #2
    5ee2:	d000      	beq.n	0x5ee6
    5ee4:	e769      	b.n	0x5dba
    5ee6:	2002      	movs	r0, #2
    5ee8:	4240      	negs	r0, r0
    5eea:	e721      	b.n	0x5d30
    5eec:	2d8f      	cmp	r5, #143	; 0x8f
    5eee:	dca2      	bgt.n	0x5e36
    5ef0:	238a      	movs	r3, #138	; 0x8a
    5ef2:	2001      	movs	r0, #1
    5ef4:	9a03      	ldr	r2, [sp, #12]
    5ef6:	4240      	negs	r0, r0
    5ef8:	6013      	str	r3, [r2, #0]
    5efa:	e719      	b.n	0x5d30
    5efc:	2402      	movs	r4, #2
    5efe:	9b01      	ldr	r3, [sp, #4]
    5f00:	6034      	str	r4, [r6, #0]
    5f02:	2b02      	cmp	r3, #2
    5f04:	d0ef      	beq.n	0x5ee6
    5f06:	2301      	movs	r3, #1
    5f08:	4463      	add	r3, ip
    5f0a:	4698      	mov	r8, r3
    5f0c:	4663      	mov	r3, ip
    5f0e:	5cd4      	ldrb	r4, [r2, r3]
    5f10:	2380      	movs	r3, #128	; 0x80
    5f12:	425b      	negs	r3, r3
    5f14:	469c      	mov	ip, r3
    5f16:	44a4      	add	ip, r4
    5f18:	4663      	mov	r3, ip
    5f1a:	2b3f      	cmp	r3, #63	; 0x3f
    5f1c:	d8e8      	bhi.n	0x5ef0
    5f1e:	2303      	movs	r3, #3
    5f20:	71b4      	strb	r4, [r6, #6]
    5f22:	6033      	str	r3, [r6, #0]
    5f24:	9b01      	ldr	r3, [sp, #4]
    5f26:	2b03      	cmp	r3, #3
    5f28:	d0dd      	beq.n	0x5ee6
    5f2a:	46c4      	mov	ip, r8
    5f2c:	e79e      	b.n	0x5e6c
    5f2e:	46c0      	nop			; (mov r8, r8)
    5f30:	b570      	push	{r4, r5, r6, lr}
    5f32:	060e      	lsls	r6, r1, #24
    5f34:	0e35      	lsrs	r5, r6, #24
    5f36:	0783      	lsls	r3, r0, #30
    5f38:	d035      	beq.n	0x5fa6
    5f3a:	1e53      	subs	r3, r2, #1
    5f3c:	2a00      	cmp	r2, #0
    5f3e:	d01b      	beq.n	0x5f78
    5f40:	7802      	ldrb	r2, [r0, #0]
    5f42:	42aa      	cmp	r2, r5
    5f44:	d019      	beq.n	0x5f7a
    5f46:	2403      	movs	r4, #3
    5f48:	e004      	b.n	0x5f54
    5f4a:	3b01      	subs	r3, #1
    5f4c:	d314      	bcc.n	0x5f78
    5f4e:	7802      	ldrb	r2, [r0, #0]
    5f50:	42aa      	cmp	r2, r5
    5f52:	d012      	beq.n	0x5f7a
    5f54:	3001      	adds	r0, #1
    5f56:	4220      	tst	r0, r4
    5f58:	d1f7      	bne.n	0x5f4a
    5f5a:	2b03      	cmp	r3, #3
    5f5c:	d810      	bhi.n	0x5f80
    5f5e:	2b00      	cmp	r3, #0
    5f60:	d00a      	beq.n	0x5f78
    5f62:	7802      	ldrb	r2, [r0, #0]
    5f64:	42aa      	cmp	r2, r5
    5f66:	d008      	beq.n	0x5f7a
    5f68:	18c3      	adds	r3, r0, r3
    5f6a:	e002      	b.n	0x5f72
    5f6c:	7802      	ldrb	r2, [r0, #0]
    5f6e:	42aa      	cmp	r2, r5
    5f70:	d003      	beq.n	0x5f7a
    5f72:	3001      	adds	r0, #1
    5f74:	4283      	cmp	r3, r0
    5f76:	d1f9      	bne.n	0x5f6c
    5f78:	2000      	movs	r0, #0
    5f7a:	bc70      	pop	{r4, r5, r6}
    5f7c:	bc02      	pop	{r1}
    5f7e:	4708      	bx	r1
    5f80:	22ff      	movs	r2, #255	; 0xff
    5f82:	0c36      	lsrs	r6, r6, #16
    5f84:	4011      	ands	r1, r2
    5f86:	430e      	orrs	r6, r1
    5f88:	0431      	lsls	r1, r6, #16
    5f8a:	4c08      	ldr	r4, [pc, #32]	; (0x5fac)
    5f8c:	430e      	orrs	r6, r1
    5f8e:	6802      	ldr	r2, [r0, #0]
    5f90:	4907      	ldr	r1, [pc, #28]	; (0x5fb0)
    5f92:	4072      	eors	r2, r6
    5f94:	1851      	adds	r1, r2, r1
    5f96:	4391      	bics	r1, r2
    5f98:	4221      	tst	r1, r4
    5f9a:	d1e2      	bne.n	0x5f62
    5f9c:	3b04      	subs	r3, #4
    5f9e:	3004      	adds	r0, #4
    5fa0:	2b03      	cmp	r3, #3
    5fa2:	d8f4      	bhi.n	0x5f8e
    5fa4:	e7db      	b.n	0x5f5e
    5fa6:	0013      	movs	r3, r2
    5fa8:	e7d7      	b.n	0x5f5a
    5faa:	46c0      	nop			; (mov r8, r8)
    5fac:	8080      	strh	r0, [r0, #4]
    5fae:	8080      	strh	r0, [r0, #4]
    5fb0:	feff fefe 			; <UNDEFINED> instruction: 0xfefffefe
    5fb4:	b5f0      	push	{r4, r5, r6, r7, lr}
    5fb6:	0005      	movs	r5, r0
    5fb8:	0783      	lsls	r3, r0, #30
    5fba:	d04e      	beq.n	0x605a
    5fbc:	1e54      	subs	r4, r2, #1
    5fbe:	2a00      	cmp	r2, #0
    5fc0:	d046      	beq.n	0x6050
    5fc2:	060a      	lsls	r2, r1, #24
    5fc4:	0e12      	lsrs	r2, r2, #24
    5fc6:	0003      	movs	r3, r0
    5fc8:	2603      	movs	r6, #3
    5fca:	e002      	b.n	0x5fd2
    5fcc:	3501      	adds	r5, #1
    5fce:	3c01      	subs	r4, #1
    5fd0:	d33e      	bcc.n	0x6050
    5fd2:	3301      	adds	r3, #1
    5fd4:	702a      	strb	r2, [r5, #0]
    5fd6:	4233      	tst	r3, r6
    5fd8:	d1f8      	bne.n	0x5fcc
    5fda:	2c03      	cmp	r4, #3
    5fdc:	d92f      	bls.n	0x603e
    5fde:	22ff      	movs	r2, #255	; 0xff
    5fe0:	400a      	ands	r2, r1
    5fe2:	0215      	lsls	r5, r2, #8
    5fe4:	4315      	orrs	r5, r2
    5fe6:	042a      	lsls	r2, r5, #16
    5fe8:	4315      	orrs	r5, r2
    5fea:	2c0f      	cmp	r4, #15
    5fec:	d938      	bls.n	0x6060
    5fee:	0027      	movs	r7, r4
    5ff0:	3f10      	subs	r7, #16
    5ff2:	093f      	lsrs	r7, r7, #4
    5ff4:	013e      	lsls	r6, r7, #4
    5ff6:	46b4      	mov	ip, r6
    5ff8:	001e      	movs	r6, r3
    5ffa:	001a      	movs	r2, r3
    5ffc:	3610      	adds	r6, #16
    5ffe:	4466      	add	r6, ip
    6000:	6015      	str	r5, [r2, #0]
    6002:	6055      	str	r5, [r2, #4]
    6004:	6095      	str	r5, [r2, #8]
    6006:	60d5      	str	r5, [r2, #12]
    6008:	3210      	adds	r2, #16
    600a:	42b2      	cmp	r2, r6
    600c:	d1f8      	bne.n	0x6000
    600e:	260f      	movs	r6, #15
    6010:	220c      	movs	r2, #12
    6012:	3701      	adds	r7, #1
    6014:	013f      	lsls	r7, r7, #4
    6016:	4026      	ands	r6, r4
    6018:	19db      	adds	r3, r3, r7
    601a:	0037      	movs	r7, r6
    601c:	4222      	tst	r2, r4
    601e:	d01a      	beq.n	0x6056
    6020:	1f3e      	subs	r6, r7, #4
    6022:	08b6      	lsrs	r6, r6, #2
    6024:	00b4      	lsls	r4, r6, #2
    6026:	46a4      	mov	ip, r4
    6028:	001a      	movs	r2, r3
    602a:	1d1c      	adds	r4, r3, #4
    602c:	4464      	add	r4, ip
    602e:	c220      	stmia	r2!, {r5}
    6030:	42a2      	cmp	r2, r4
    6032:	d1fc      	bne.n	0x602e
    6034:	2403      	movs	r4, #3
    6036:	3601      	adds	r6, #1
    6038:	00b6      	lsls	r6, r6, #2
    603a:	199b      	adds	r3, r3, r6
    603c:	403c      	ands	r4, r7
    603e:	2c00      	cmp	r4, #0
    6040:	d006      	beq.n	0x6050
    6042:	0609      	lsls	r1, r1, #24
    6044:	191c      	adds	r4, r3, r4
    6046:	0e09      	lsrs	r1, r1, #24
    6048:	7019      	strb	r1, [r3, #0]
    604a:	3301      	adds	r3, #1
    604c:	429c      	cmp	r4, r3
    604e:	d1fb      	bne.n	0x6048
    6050:	bcf0      	pop	{r4, r5, r6, r7}
    6052:	bc02      	pop	{r1}
    6054:	4708      	bx	r1
    6056:	0034      	movs	r4, r6
    6058:	e7f1      	b.n	0x603e
    605a:	0014      	movs	r4, r2
    605c:	0003      	movs	r3, r0
    605e:	e7bc      	b.n	0x5fda
    6060:	0027      	movs	r7, r4
    6062:	e7dd      	b.n	0x6020
    6064:	b510      	push	{r4, lr}
    6066:	4803      	ldr	r0, [pc, #12]	; (0x6074)
    6068:	f001 f83c 	bl	0x70e4
    606c:	bc10      	pop	{r4}
    606e:	bc01      	pop	{r0}
    6070:	4700      	bx	r0
    6072:	46c0      	nop			; (mov r8, r8)
    6074:	0768      	lsls	r0, r5, #29
    6076:	0300      	lsls	r0, r0, #12
    6078:	b510      	push	{r4, lr}
    607a:	4803      	ldr	r0, [pc, #12]	; (0x6088)
    607c:	f001 f840 	bl	0x7100
    6080:	bc10      	pop	{r4}
    6082:	bc01      	pop	{r0}
    6084:	4700      	bx	r0
    6086:	46c0      	nop			; (mov r8, r8)
    6088:	0768      	lsls	r0, r5, #29
    608a:	0300      	lsls	r0, r0, #12
    608c:	b570      	push	{r4, r5, r6, lr}
    608e:	0004      	movs	r4, r0
    6090:	6cc0      	ldr	r0, [r0, #76]	; 0x4c
    6092:	000d      	movs	r5, r1
    6094:	2800      	cmp	r0, #0
    6096:	d00c      	beq.n	0x60b2
    6098:	00ab      	lsls	r3, r5, #2
    609a:	18c3      	adds	r3, r0, r3
    609c:	6818      	ldr	r0, [r3, #0]
    609e:	2800      	cmp	r0, #0
    60a0:	d011      	beq.n	0x60c6
    60a2:	6802      	ldr	r2, [r0, #0]
    60a4:	601a      	str	r2, [r3, #0]
    60a6:	2300      	movs	r3, #0
    60a8:	6103      	str	r3, [r0, #16]
    60aa:	60c3      	str	r3, [r0, #12]
    60ac:	bc70      	pop	{r4, r5, r6}
    60ae:	bc02      	pop	{r1}
    60b0:	4708      	bx	r1
    60b2:	2221      	movs	r2, #33	; 0x21
    60b4:	2104      	movs	r1, #4
    60b6:	0020      	movs	r0, r4
    60b8:	f000 fda8 	bl	0x6c0c
    60bc:	64e0      	str	r0, [r4, #76]	; 0x4c
    60be:	2800      	cmp	r0, #0
    60c0:	d1ea      	bne.n	0x6098
    60c2:	2000      	movs	r0, #0
    60c4:	e7f2      	b.n	0x60ac
    60c6:	2601      	movs	r6, #1
    60c8:	40ae      	lsls	r6, r5
    60ca:	1d72      	adds	r2, r6, #5
    60cc:	0092      	lsls	r2, r2, #2
    60ce:	2101      	movs	r1, #1
    60d0:	0020      	movs	r0, r4
    60d2:	f000 fd9b 	bl	0x6c0c
    60d6:	2800      	cmp	r0, #0
    60d8:	d0f3      	beq.n	0x60c2
    60da:	6045      	str	r5, [r0, #4]
    60dc:	6086      	str	r6, [r0, #8]
    60de:	e7e2      	b.n	0x60a6
    60e0:	2900      	cmp	r1, #0
    60e2:	d006      	beq.n	0x60f2
    60e4:	684b      	ldr	r3, [r1, #4]
    60e6:	009a      	lsls	r2, r3, #2
    60e8:	6cc3      	ldr	r3, [r0, #76]	; 0x4c
    60ea:	189b      	adds	r3, r3, r2
    60ec:	681a      	ldr	r2, [r3, #0]
    60ee:	600a      	str	r2, [r1, #0]
    60f0:	6019      	str	r1, [r3, #0]
    60f2:	4770      	bx	lr
    60f4:	b5f8      	push	{r3, r4, r5, r6, r7, lr}
    60f6:	46ce      	mov	lr, r9
    60f8:	4647      	mov	r7, r8
    60fa:	4681      	mov	r9, r0
    60fc:	0008      	movs	r0, r1
    60fe:	b580      	push	{r7, lr}
    6100:	000d      	movs	r5, r1
    6102:	690c      	ldr	r4, [r1, #16]
    6104:	001f      	movs	r7, r3
    6106:	2100      	movs	r1, #0
    6108:	3014      	adds	r0, #20
    610a:	6803      	ldr	r3, [r0, #0]
    610c:	041e      	lsls	r6, r3, #16
    610e:	0c36      	lsrs	r6, r6, #16
    6110:	46b4      	mov	ip, r6
    6112:	4666      	mov	r6, ip
    6114:	4356      	muls	r6, r2
    6116:	19f6      	adds	r6, r6, r7
    6118:	0c1f      	lsrs	r7, r3, #16
    611a:	003b      	movs	r3, r7
    611c:	4353      	muls	r3, r2
    611e:	0c37      	lsrs	r7, r6, #16
    6120:	19db      	adds	r3, r3, r7
    6122:	0436      	lsls	r6, r6, #16
    6124:	0c1f      	lsrs	r7, r3, #16
    6126:	0c36      	lsrs	r6, r6, #16
    6128:	041b      	lsls	r3, r3, #16
    612a:	199b      	adds	r3, r3, r6
    612c:	3101      	adds	r1, #1
    612e:	c008      	stmia	r0!, {r3}
    6130:	428c      	cmp	r4, r1
    6132:	dcea      	bgt.n	0x610a
    6134:	2f00      	cmp	r7, #0
    6136:	d008      	beq.n	0x614a
    6138:	68ab      	ldr	r3, [r5, #8]
    613a:	42a3      	cmp	r3, r4
    613c:	dd0c      	ble.n	0x6158
    613e:	1d23      	adds	r3, r4, #4
    6140:	009b      	lsls	r3, r3, #2
    6142:	18eb      	adds	r3, r5, r3
    6144:	3401      	adds	r4, #1
    6146:	605f      	str	r7, [r3, #4]
    6148:	612c      	str	r4, [r5, #16]
    614a:	0028      	movs	r0, r5
    614c:	bc0c      	pop	{r2, r3}
    614e:	4690      	mov	r8, r2
    6150:	4699      	mov	r9, r3
    6152:	bcf8      	pop	{r3, r4, r5, r6, r7}
    6154:	bc02      	pop	{r1}
    6156:	4708      	bx	r1
    6158:	686b      	ldr	r3, [r5, #4]
    615a:	4648      	mov	r0, r9
    615c:	1c59      	adds	r1, r3, #1
    615e:	f7ff ff95 	bl	0x608c
    6162:	0029      	movs	r1, r5
    6164:	692b      	ldr	r3, [r5, #16]
    6166:	1c9a      	adds	r2, r3, #2
    6168:	4680      	mov	r8, r0
    616a:	0092      	lsls	r2, r2, #2
    616c:	310c      	adds	r1, #12
    616e:	300c      	adds	r0, #12
    6170:	f7fb fc30 	bl	0x19d4
    6174:	686b      	ldr	r3, [r5, #4]
    6176:	009a      	lsls	r2, r3, #2
    6178:	464b      	mov	r3, r9
    617a:	6cdb      	ldr	r3, [r3, #76]	; 0x4c
    617c:	189b      	adds	r3, r3, r2
    617e:	681a      	ldr	r2, [r3, #0]
    6180:	602a      	str	r2, [r5, #0]
    6182:	601d      	str	r5, [r3, #0]
    6184:	4645      	mov	r5, r8
    6186:	1d23      	adds	r3, r4, #4
    6188:	009b      	lsls	r3, r3, #2
    618a:	18eb      	adds	r3, r5, r3
    618c:	3401      	adds	r4, #1
    618e:	605f      	str	r7, [r3, #4]
    6190:	612c      	str	r4, [r5, #16]
    6192:	e7da      	b.n	0x614a
    6194:	0003      	movs	r3, r0
    6196:	0c02      	lsrs	r2, r0, #16
    6198:	2000      	movs	r0, #0
    619a:	2a00      	cmp	r2, #0
    619c:	d101      	bne.n	0x61a2
    619e:	041b      	lsls	r3, r3, #16
    61a0:	3010      	adds	r0, #16
    61a2:	0e1a      	lsrs	r2, r3, #24
    61a4:	d101      	bne.n	0x61aa
    61a6:	3008      	adds	r0, #8
    61a8:	021b      	lsls	r3, r3, #8
    61aa:	0f1a      	lsrs	r2, r3, #28
    61ac:	d101      	bne.n	0x61b2
    61ae:	3004      	adds	r0, #4
    61b0:	011b      	lsls	r3, r3, #4
    61b2:	0f9a      	lsrs	r2, r3, #30
    61b4:	d101      	bne.n	0x61ba
    61b6:	3002      	adds	r0, #2
    61b8:	009b      	lsls	r3, r3, #2
    61ba:	2b00      	cmp	r3, #0
    61bc:	db02      	blt.n	0x61c4
    61be:	3001      	adds	r0, #1
    61c0:	005b      	lsls	r3, r3, #1
    61c2:	d500      	bpl.n	0x61c6
    61c4:	4770      	bx	lr
    61c6:	2020      	movs	r0, #32
    61c8:	e7fc      	b.n	0x61c4
    61ca:	46c0      	nop			; (mov r8, r8)
    61cc:	6803      	ldr	r3, [r0, #0]
    61ce:	075a      	lsls	r2, r3, #29
    61d0:	d008      	beq.n	0x61e4
    61d2:	07da      	lsls	r2, r3, #31
    61d4:	d420      	bmi.n	0x6218
    61d6:	079a      	lsls	r2, r3, #30
    61d8:	d522      	bpl.n	0x6220
    61da:	2201      	movs	r2, #1
    61dc:	085b      	lsrs	r3, r3, #1
    61de:	6003      	str	r3, [r0, #0]
    61e0:	0010      	movs	r0, r2
    61e2:	4770      	bx	lr
    61e4:	0419      	lsls	r1, r3, #16
    61e6:	2200      	movs	r2, #0
    61e8:	2900      	cmp	r1, #0
    61ea:	d101      	bne.n	0x61f0
    61ec:	0c1b      	lsrs	r3, r3, #16
    61ee:	3210      	adds	r2, #16
    61f0:	21ff      	movs	r1, #255	; 0xff
    61f2:	4219      	tst	r1, r3
    61f4:	d101      	bne.n	0x61fa
    61f6:	3208      	adds	r2, #8
    61f8:	0a1b      	lsrs	r3, r3, #8
    61fa:	0719      	lsls	r1, r3, #28
    61fc:	d101      	bne.n	0x6202
    61fe:	3204      	adds	r2, #4
    6200:	091b      	lsrs	r3, r3, #4
    6202:	0799      	lsls	r1, r3, #30
    6204:	d101      	bne.n	0x620a
    6206:	3202      	adds	r2, #2
    6208:	089b      	lsrs	r3, r3, #2
    620a:	07d9      	lsls	r1, r3, #31
    620c:	d402      	bmi.n	0x6214
    620e:	3201      	adds	r2, #1
    6210:	085b      	lsrs	r3, r3, #1
    6212:	d003      	beq.n	0x621c
    6214:	6003      	str	r3, [r0, #0]
    6216:	e7e3      	b.n	0x61e0
    6218:	2200      	movs	r2, #0
    621a:	e7e1      	b.n	0x61e0
    621c:	2220      	movs	r2, #32
    621e:	e7df      	b.n	0x61e0
    6220:	089b      	lsrs	r3, r3, #2
    6222:	6003      	str	r3, [r0, #0]
    6224:	2202      	movs	r2, #2
    6226:	e7db      	b.n	0x61e0
    6228:	b510      	push	{r4, lr}
    622a:	000c      	movs	r4, r1
    622c:	2101      	movs	r1, #1
    622e:	f7ff ff2d 	bl	0x608c
    6232:	2301      	movs	r3, #1
    6234:	6144      	str	r4, [r0, #20]
    6236:	6103      	str	r3, [r0, #16]
    6238:	bc10      	pop	{r4}
    623a:	bc02      	pop	{r1}
    623c:	4708      	bx	r1
    623e:	46c0      	nop			; (mov r8, r8)
    6240:	b5f0      	push	{r4, r5, r6, r7, lr}
    6242:	4657      	mov	r7, sl
    6244:	464e      	mov	r6, r9
    6246:	4645      	mov	r5, r8
    6248:	46de      	mov	lr, fp
    624a:	b5e0      	push	{r5, r6, r7, lr}
    624c:	690c      	ldr	r4, [r1, #16]
    624e:	6916      	ldr	r6, [r2, #16]
    6250:	b085      	sub	sp, #20
    6252:	000d      	movs	r5, r1
    6254:	0017      	movs	r7, r2
    6256:	42b4      	cmp	r4, r6
    6258:	db04      	blt.n	0x6264
    625a:	0033      	movs	r3, r6
    625c:	000f      	movs	r7, r1
    625e:	0026      	movs	r6, r4
    6260:	0015      	movs	r5, r2
    6262:	001c      	movs	r4, r3
    6264:	1933      	adds	r3, r6, r4
    6266:	4698      	mov	r8, r3
    6268:	68bb      	ldr	r3, [r7, #8]
    626a:	6879      	ldr	r1, [r7, #4]
    626c:	4543      	cmp	r3, r8
    626e:	da00      	bge.n	0x6272
    6270:	3101      	adds	r1, #1
    6272:	f7ff ff0b 	bl	0x608c
    6276:	2214      	movs	r2, #20
    6278:	0003      	movs	r3, r0
    627a:	4694      	mov	ip, r2
    627c:	4463      	add	r3, ip
    627e:	469b      	mov	fp, r3
    6280:	4643      	mov	r3, r8
    6282:	009b      	lsls	r3, r3, #2
    6284:	445b      	add	r3, fp
    6286:	0019      	movs	r1, r3
    6288:	9302      	str	r3, [sp, #8]
    628a:	9003      	str	r0, [sp, #12]
    628c:	465b      	mov	r3, fp
    628e:	2200      	movs	r2, #0
    6290:	458b      	cmp	fp, r1
    6292:	d203      	bcs.n	0x629c
    6294:	9902      	ldr	r1, [sp, #8]
    6296:	c304      	stmia	r3!, {r2}
    6298:	4299      	cmp	r1, r3
    629a:	d8fc      	bhi.n	0x6296
    629c:	003b      	movs	r3, r7
    629e:	3314      	adds	r3, #20
    62a0:	469c      	mov	ip, r3
    62a2:	9301      	str	r3, [sp, #4]
    62a4:	2314      	movs	r3, #20
    62a6:	00a4      	lsls	r4, r4, #2
    62a8:	4699      	mov	r9, r3
    62aa:	0023      	movs	r3, r4
    62ac:	00b1      	lsls	r1, r6, #2
    62ae:	44a9      	add	r9, r5
    62b0:	4461      	add	r1, ip
    62b2:	444b      	add	r3, r9
    62b4:	9300      	str	r3, [sp, #0]
    62b6:	468c      	mov	ip, r1
    62b8:	4599      	cmp	r9, r3
    62ba:	d309      	bcc.n	0x62d0
    62bc:	e05e      	b.n	0x637c
    62be:	0c24      	lsrs	r4, r4, #16
    62c0:	d130      	bne.n	0x6324
    62c2:	2304      	movs	r3, #4
    62c4:	469a      	mov	sl, r3
    62c6:	9b00      	ldr	r3, [sp, #0]
    62c8:	44d1      	add	r9, sl
    62ca:	44d3      	add	fp, sl
    62cc:	454b      	cmp	r3, r9
    62ce:	d955      	bls.n	0x637c
    62d0:	464b      	mov	r3, r9
    62d2:	681c      	ldr	r4, [r3, #0]
    62d4:	0425      	lsls	r5, r4, #16
    62d6:	0c2d      	lsrs	r5, r5, #16
    62d8:	d0f1      	beq.n	0x62be
    62da:	465e      	mov	r6, fp
    62dc:	2100      	movs	r1, #0
    62de:	9f01      	ldr	r7, [sp, #4]
    62e0:	0030      	movs	r0, r6
    62e2:	ce08      	ldmia	r6!, {r3}
    62e4:	469a      	mov	sl, r3
    62e6:	cf04      	ldmia	r7!, {r2}
    62e8:	0413      	lsls	r3, r2, #16
    62ea:	0c1c      	lsrs	r4, r3, #16
    62ec:	0023      	movs	r3, r4
    62ee:	436b      	muls	r3, r5
    62f0:	4654      	mov	r4, sl
    62f2:	0424      	lsls	r4, r4, #16
    62f4:	0c24      	lsrs	r4, r4, #16
    62f6:	191b      	adds	r3, r3, r4
    62f8:	0c12      	lsrs	r2, r2, #16
    62fa:	185c      	adds	r4, r3, r1
    62fc:	002b      	movs	r3, r5
    62fe:	4353      	muls	r3, r2
    6300:	4652      	mov	r2, sl
    6302:	0c12      	lsrs	r2, r2, #16
    6304:	189b      	adds	r3, r3, r2
    6306:	0c22      	lsrs	r2, r4, #16
    6308:	189b      	adds	r3, r3, r2
    630a:	0422      	lsls	r2, r4, #16
    630c:	0c19      	lsrs	r1, r3, #16
    630e:	0c12      	lsrs	r2, r2, #16
    6310:	041b      	lsls	r3, r3, #16
    6312:	4313      	orrs	r3, r2
    6314:	6003      	str	r3, [r0, #0]
    6316:	45bc      	cmp	ip, r7
    6318:	d8e2      	bhi.n	0x62e0
    631a:	464b      	mov	r3, r9
    631c:	6031      	str	r1, [r6, #0]
    631e:	681c      	ldr	r4, [r3, #0]
    6320:	0c24      	lsrs	r4, r4, #16
    6322:	d0ce      	beq.n	0x62c2
    6324:	465b      	mov	r3, fp
    6326:	2700      	movs	r7, #0
    6328:	681b      	ldr	r3, [r3, #0]
    632a:	4666      	mov	r6, ip
    632c:	4659      	mov	r1, fp
    632e:	0018      	movs	r0, r3
    6330:	46bc      	mov	ip, r7
    6332:	9d01      	ldr	r5, [sp, #4]
    6334:	882a      	ldrh	r2, [r5, #0]
    6336:	0017      	movs	r7, r2
    6338:	4367      	muls	r7, r4
    633a:	000a      	movs	r2, r1
    633c:	0c00      	lsrs	r0, r0, #16
    633e:	183f      	adds	r7, r7, r0
    6340:	4467      	add	r7, ip
    6342:	041b      	lsls	r3, r3, #16
    6344:	0438      	lsls	r0, r7, #16
    6346:	0c1b      	lsrs	r3, r3, #16
    6348:	4303      	orrs	r3, r0
    634a:	c208      	stmia	r2!, {r3}
    634c:	cd08      	ldmia	r5!, {r3}
    634e:	6848      	ldr	r0, [r1, #4]
    6350:	0c19      	lsrs	r1, r3, #16
    6352:	000b      	movs	r3, r1
    6354:	4363      	muls	r3, r4
    6356:	0401      	lsls	r1, r0, #16
    6358:	0c09      	lsrs	r1, r1, #16
    635a:	185b      	adds	r3, r3, r1
    635c:	0c3f      	lsrs	r7, r7, #16
    635e:	19db      	adds	r3, r3, r7
    6360:	0c19      	lsrs	r1, r3, #16
    6362:	468c      	mov	ip, r1
    6364:	0011      	movs	r1, r2
    6366:	42ae      	cmp	r6, r5
    6368:	d8e4      	bhi.n	0x6334
    636a:	6013      	str	r3, [r2, #0]
    636c:	2304      	movs	r3, #4
    636e:	469a      	mov	sl, r3
    6370:	9b00      	ldr	r3, [sp, #0]
    6372:	44d1      	add	r9, sl
    6374:	46b4      	mov	ip, r6
    6376:	44d3      	add	fp, sl
    6378:	454b      	cmp	r3, r9
    637a:	d8a9      	bhi.n	0x62d0
    637c:	4643      	mov	r3, r8
    637e:	2b00      	cmp	r3, #0
    6380:	dd0e      	ble.n	0x63a0
    6382:	9b02      	ldr	r3, [sp, #8]
    6384:	3b04      	subs	r3, #4
    6386:	681a      	ldr	r2, [r3, #0]
    6388:	2a00      	cmp	r2, #0
    638a:	d109      	bne.n	0x63a0
    638c:	4642      	mov	r2, r8
    638e:	e003      	b.n	0x6398
    6390:	3b04      	subs	r3, #4
    6392:	6819      	ldr	r1, [r3, #0]
    6394:	2900      	cmp	r1, #0
    6396:	d102      	bne.n	0x639e
    6398:	3a01      	subs	r2, #1
    639a:	2a00      	cmp	r2, #0
    639c:	d1f8      	bne.n	0x6390
    639e:	4690      	mov	r8, r2
    63a0:	9b03      	ldr	r3, [sp, #12]
    63a2:	4642      	mov	r2, r8
    63a4:	0018      	movs	r0, r3
    63a6:	611a      	str	r2, [r3, #16]
    63a8:	b005      	add	sp, #20
    63aa:	bc3c      	pop	{r2, r3, r4, r5}
    63ac:	4690      	mov	r8, r2
    63ae:	4699      	mov	r9, r3
    63b0:	46a2      	mov	sl, r4
    63b2:	46ab      	mov	fp, r5
    63b4:	bcf0      	pop	{r4, r5, r6, r7}
    63b6:	bc02      	pop	{r1}
    63b8:	4708      	bx	r1
    63ba:	46c0      	nop			; (mov r8, r8)
    63bc:	b5f8      	push	{r3, r4, r5, r6, r7, lr}
    63be:	4647      	mov	r7, r8
    63c0:	46ce      	mov	lr, r9
    63c2:	2303      	movs	r3, #3
    63c4:	b580      	push	{r7, lr}
    63c6:	4680      	mov	r8, r0
    63c8:	000e      	movs	r6, r1
    63ca:	0014      	movs	r4, r2
    63cc:	4013      	ands	r3, r2
    63ce:	d139      	bne.n	0x6444
    63d0:	10a4      	asrs	r4, r4, #2
    63d2:	d024      	beq.n	0x641e
    63d4:	4643      	mov	r3, r8
    63d6:	6c9d      	ldr	r5, [r3, #72]	; 0x48
    63d8:	2d00      	cmp	r5, #0
    63da:	d03c      	beq.n	0x6456
    63dc:	2300      	movs	r3, #0
    63de:	2701      	movs	r7, #1
    63e0:	4699      	mov	r9, r3
    63e2:	4227      	tst	r7, r4
    63e4:	d107      	bne.n	0x63f6
    63e6:	1064      	asrs	r4, r4, #1
    63e8:	d019      	beq.n	0x641e
    63ea:	6828      	ldr	r0, [r5, #0]
    63ec:	2800      	cmp	r0, #0
    63ee:	d01d      	beq.n	0x642c
    63f0:	0005      	movs	r5, r0
    63f2:	4227      	tst	r7, r4
    63f4:	d0f7      	beq.n	0x63e6
    63f6:	002a      	movs	r2, r5
    63f8:	0031      	movs	r1, r6
    63fa:	4640      	mov	r0, r8
    63fc:	f7ff ff20 	bl	0x6240
    6400:	2e00      	cmp	r6, #0
    6402:	d01d      	beq.n	0x6440
    6404:	4642      	mov	r2, r8
    6406:	6cd2      	ldr	r2, [r2, #76]	; 0x4c
    6408:	4694      	mov	ip, r2
    640a:	6873      	ldr	r3, [r6, #4]
    640c:	009b      	lsls	r3, r3, #2
    640e:	4463      	add	r3, ip
    6410:	681a      	ldr	r2, [r3, #0]
    6412:	1064      	asrs	r4, r4, #1
    6414:	6032      	str	r2, [r6, #0]
    6416:	601e      	str	r6, [r3, #0]
    6418:	0006      	movs	r6, r0
    641a:	2c00      	cmp	r4, #0
    641c:	d1e5      	bne.n	0x63ea
    641e:	0030      	movs	r0, r6
    6420:	bc0c      	pop	{r2, r3}
    6422:	4690      	mov	r8, r2
    6424:	4699      	mov	r9, r3
    6426:	bcf8      	pop	{r3, r4, r5, r6, r7}
    6428:	bc02      	pop	{r1}
    642a:	4708      	bx	r1
    642c:	002a      	movs	r2, r5
    642e:	0029      	movs	r1, r5
    6430:	4640      	mov	r0, r8
    6432:	f7ff ff05 	bl	0x6240
    6436:	464b      	mov	r3, r9
    6438:	6028      	str	r0, [r5, #0]
    643a:	6003      	str	r3, [r0, #0]
    643c:	0005      	movs	r5, r0
    643e:	e7d8      	b.n	0x63f2
    6440:	0006      	movs	r6, r0
    6442:	e7d0      	b.n	0x63e6
    6444:	4a0b      	ldr	r2, [pc, #44]	; (0x6474)
    6446:	3b01      	subs	r3, #1
    6448:	009b      	lsls	r3, r3, #2
    644a:	589a      	ldr	r2, [r3, r2]
    644c:	2300      	movs	r3, #0
    644e:	f7ff fe51 	bl	0x60f4
    6452:	0006      	movs	r6, r0
    6454:	e7bc      	b.n	0x63d0
    6456:	2101      	movs	r1, #1
    6458:	4640      	mov	r0, r8
    645a:	f7ff fe17 	bl	0x608c
    645e:	4b06      	ldr	r3, [pc, #24]	; (0x6478)
    6460:	6143      	str	r3, [r0, #20]
    6462:	2301      	movs	r3, #1
    6464:	6103      	str	r3, [r0, #16]
    6466:	4643      	mov	r3, r8
    6468:	6498      	str	r0, [r3, #72]	; 0x48
    646a:	2300      	movs	r3, #0
    646c:	0005      	movs	r5, r0
    646e:	6003      	str	r3, [r0, #0]
    6470:	e7b4      	b.n	0x63dc
    6472:	46c0      	nop			; (mov r8, r8)
    6474:	75d0      	strb	r0, [r2, #23]
    6476:	0800      	lsrs	r0, r0, #32
    6478:	0271      	lsls	r1, r6, #9
    647a:	0000      	movs	r0, r0
    647c:	b5f0      	push	{r4, r5, r6, r7, lr}
    647e:	46de      	mov	lr, fp
    6480:	4657      	mov	r7, sl
    6482:	464e      	mov	r6, r9
    6484:	4645      	mov	r5, r8
    6486:	b5e0      	push	{r5, r6, r7, lr}
    6488:	000d      	movs	r5, r1
    648a:	1153      	asrs	r3, r2, #5
    648c:	469a      	mov	sl, r3
    648e:	692b      	ldr	r3, [r5, #16]
    6490:	4453      	add	r3, sl
    6492:	469b      	mov	fp, r3
    6494:	1c5c      	adds	r4, r3, #1
    6496:	68ab      	ldr	r3, [r5, #8]
    6498:	b083      	sub	sp, #12
    649a:	9001      	str	r0, [sp, #4]
    649c:	0016      	movs	r6, r2
    649e:	6849      	ldr	r1, [r1, #4]
    64a0:	429c      	cmp	r4, r3
    64a2:	dd03      	ble.n	0x64ac
    64a4:	3101      	adds	r1, #1
    64a6:	005b      	lsls	r3, r3, #1
    64a8:	429c      	cmp	r4, r3
    64aa:	dcfb      	bgt.n	0x64a4
    64ac:	9801      	ldr	r0, [sp, #4]
    64ae:	f7ff fded 	bl	0x608c
    64b2:	4652      	mov	r2, sl
    64b4:	0003      	movs	r3, r0
    64b6:	4681      	mov	r9, r0
    64b8:	3314      	adds	r3, #20
    64ba:	2a00      	cmp	r2, #0
    64bc:	dd0a      	ble.n	0x64d4
    64be:	4651      	mov	r1, sl
    64c0:	001a      	movs	r2, r3
    64c2:	2000      	movs	r0, #0
    64c4:	0089      	lsls	r1, r1, #2
    64c6:	468a      	mov	sl, r1
    64c8:	3114      	adds	r1, #20
    64ca:	4449      	add	r1, r9
    64cc:	c201      	stmia	r2!, {r0}
    64ce:	428a      	cmp	r2, r1
    64d0:	d1fc      	bne.n	0x64cc
    64d2:	4453      	add	r3, sl
    64d4:	692a      	ldr	r2, [r5, #16]
    64d6:	0029      	movs	r1, r5
    64d8:	0090      	lsls	r0, r2, #2
    64da:	221f      	movs	r2, #31
    64dc:	3114      	adds	r1, #20
    64de:	4032      	ands	r2, r6
    64e0:	1808      	adds	r0, r1, r0
    64e2:	4694      	mov	ip, r2
    64e4:	2a00      	cmp	r2, #0
    64e6:	d027      	beq.n	0x6538
    64e8:	4666      	mov	r6, ip
    64ea:	2220      	movs	r2, #32
    64ec:	1b92      	subs	r2, r2, r6
    64ee:	4690      	mov	r8, r2
    64f0:	2600      	movs	r6, #0
    64f2:	4667      	mov	r7, ip
    64f4:	680a      	ldr	r2, [r1, #0]
    64f6:	40ba      	lsls	r2, r7
    64f8:	4332      	orrs	r2, r6
    64fa:	c304      	stmia	r3!, {r2}
    64fc:	4642      	mov	r2, r8
    64fe:	c940      	ldmia	r1!, {r6}
    6500:	40d6      	lsrs	r6, r2
    6502:	4288      	cmp	r0, r1
    6504:	d8f5      	bhi.n	0x64f2
    6506:	601e      	str	r6, [r3, #0]
    6508:	2e00      	cmp	r6, #0
    650a:	d000      	beq.n	0x650e
    650c:	46a3      	mov	fp, r4
    650e:	464b      	mov	r3, r9
    6510:	465a      	mov	r2, fp
    6512:	4648      	mov	r0, r9
    6514:	611a      	str	r2, [r3, #16]
    6516:	686b      	ldr	r3, [r5, #4]
    6518:	009a      	lsls	r2, r3, #2
    651a:	9b01      	ldr	r3, [sp, #4]
    651c:	6cdb      	ldr	r3, [r3, #76]	; 0x4c
    651e:	189b      	adds	r3, r3, r2
    6520:	681a      	ldr	r2, [r3, #0]
    6522:	602a      	str	r2, [r5, #0]
    6524:	601d      	str	r5, [r3, #0]
    6526:	b003      	add	sp, #12
    6528:	bc3c      	pop	{r2, r3, r4, r5}
    652a:	4690      	mov	r8, r2
    652c:	4699      	mov	r9, r3
    652e:	46a2      	mov	sl, r4
    6530:	46ab      	mov	fp, r5
    6532:	bcf0      	pop	{r4, r5, r6, r7}
    6534:	bc02      	pop	{r1}
    6536:	4708      	bx	r1
    6538:	c904      	ldmia	r1!, {r2}
    653a:	c304      	stmia	r3!, {r2}
    653c:	4288      	cmp	r0, r1
    653e:	d9e6      	bls.n	0x650e
    6540:	c904      	ldmia	r1!, {r2}
    6542:	c304      	stmia	r3!, {r2}
    6544:	4288      	cmp	r0, r1
    6546:	d8f7      	bhi.n	0x6538
    6548:	e7e1      	b.n	0x650e
    654a:	46c0      	nop			; (mov r8, r8)
    654c:	690a      	ldr	r2, [r1, #16]
    654e:	6903      	ldr	r3, [r0, #16]
    6550:	b530      	push	{r4, r5, lr}
    6552:	0005      	movs	r5, r0
    6554:	1a98      	subs	r0, r3, r2
    6556:	d112      	bne.n	0x657e
    6558:	0092      	lsls	r2, r2, #2
    655a:	3514      	adds	r5, #20
    655c:	3114      	adds	r1, #20
    655e:	18ab      	adds	r3, r5, r2
    6560:	1889      	adds	r1, r1, r2
    6562:	e001      	b.n	0x6568
    6564:	429d      	cmp	r5, r3
    6566:	d20a      	bcs.n	0x657e
    6568:	3b04      	subs	r3, #4
    656a:	3904      	subs	r1, #4
    656c:	681c      	ldr	r4, [r3, #0]
    656e:	680a      	ldr	r2, [r1, #0]
    6570:	4294      	cmp	r4, r2
    6572:	d0f7      	beq.n	0x6564
    6574:	4294      	cmp	r4, r2
    6576:	4180      	sbcs	r0, r0
    6578:	2301      	movs	r3, #1
    657a:	4398      	bics	r0, r3
    657c:	3001      	adds	r0, #1
    657e:	bc30      	pop	{r4, r5}
    6580:	bc02      	pop	{r1}
    6582:	4708      	bx	r1
    6584:	b5f8      	push	{r3, r4, r5, r6, r7, lr}
    6586:	4645      	mov	r5, r8
    6588:	4657      	mov	r7, sl
    658a:	464e      	mov	r6, r9
    658c:	0014      	movs	r4, r2
    658e:	46de      	mov	lr, fp
    6590:	b5e0      	push	{r5, r6, r7, lr}
    6592:	000d      	movs	r5, r1
    6594:	0026      	movs	r6, r4
    6596:	6912      	ldr	r2, [r2, #16]
    6598:	690b      	ldr	r3, [r1, #16]
    659a:	4684      	mov	ip, r0
    659c:	4688      	mov	r8, r1
    659e:	1a9f      	subs	r7, r3, r2
    65a0:	3514      	adds	r5, #20
    65a2:	3614      	adds	r6, #20
    65a4:	2f00      	cmp	r7, #0
    65a6:	d114      	bne.n	0x65d2
    65a8:	0092      	lsls	r2, r2, #2
    65aa:	18ab      	adds	r3, r5, r2
    65ac:	18b2      	adds	r2, r6, r2
    65ae:	e001      	b.n	0x65b4
    65b0:	42ab      	cmp	r3, r5
    65b2:	d96b      	bls.n	0x668c
    65b4:	3b04      	subs	r3, #4
    65b6:	3a04      	subs	r2, #4
    65b8:	6818      	ldr	r0, [r3, #0]
    65ba:	6811      	ldr	r1, [r2, #0]
    65bc:	4288      	cmp	r0, r1
    65be:	d0f7      	beq.n	0x65b0
    65c0:	d20a      	bcs.n	0x65d8
    65c2:	002b      	movs	r3, r5
    65c4:	0035      	movs	r5, r6
    65c6:	001e      	movs	r6, r3
    65c8:	4643      	mov	r3, r8
    65ca:	2701      	movs	r7, #1
    65cc:	46a0      	mov	r8, r4
    65ce:	001c      	movs	r4, r3
    65d0:	e002      	b.n	0x65d8
    65d2:	2f00      	cmp	r7, #0
    65d4:	dbf5      	blt.n	0x65c2
    65d6:	2700      	movs	r7, #0
    65d8:	4643      	mov	r3, r8
    65da:	4660      	mov	r0, ip
    65dc:	6859      	ldr	r1, [r3, #4]
    65de:	f7ff fd55 	bl	0x608c
    65e2:	4643      	mov	r3, r8
    65e4:	4681      	mov	r9, r0
    65e6:	691b      	ldr	r3, [r3, #16]
    65e8:	60c7      	str	r7, [r0, #12]
    65ea:	469c      	mov	ip, r3
    65ec:	0098      	lsls	r0, r3, #2
    65ee:	6923      	ldr	r3, [r4, #16]
    65f0:	009b      	lsls	r3, r3, #2
    65f2:	4683      	mov	fp, r0
    65f4:	4698      	mov	r8, r3
    65f6:	464c      	mov	r4, r9
    65f8:	2100      	movs	r1, #0
    65fa:	44ab      	add	fp, r5
    65fc:	44b0      	add	r8, r6
    65fe:	3414      	adds	r4, #20
    6600:	0027      	movs	r7, r4
    6602:	cd08      	ldmia	r5!, {r3}
    6604:	ce01      	ldmia	r6!, {r0}
    6606:	041a      	lsls	r2, r3, #16
    6608:	0c12      	lsrs	r2, r2, #16
    660a:	1851      	adds	r1, r2, r1
    660c:	0402      	lsls	r2, r0, #16
    660e:	0c12      	lsrs	r2, r2, #16
    6610:	1a8a      	subs	r2, r1, r2
    6612:	0c19      	lsrs	r1, r3, #16
    6614:	0c03      	lsrs	r3, r0, #16
    6616:	1acb      	subs	r3, r1, r3
    6618:	1411      	asrs	r1, r2, #16
    661a:	185b      	adds	r3, r3, r1
    661c:	0412      	lsls	r2, r2, #16
    661e:	1419      	asrs	r1, r3, #16
    6620:	0c12      	lsrs	r2, r2, #16
    6622:	041b      	lsls	r3, r3, #16
    6624:	3404      	adds	r4, #4
    6626:	4313      	orrs	r3, r2
    6628:	46a2      	mov	sl, r4
    662a:	603b      	str	r3, [r7, #0]
    662c:	45b0      	cmp	r8, r6
    662e:	d8e7      	bhi.n	0x6600
    6630:	45ab      	cmp	fp, r5
    6632:	d91d      	bls.n	0x6670
    6634:	002e      	movs	r6, r5
    6636:	ce08      	ldmia	r6!, {r3}
    6638:	041a      	lsls	r2, r3, #16
    663a:	0c12      	lsrs	r2, r2, #16
    663c:	1852      	adds	r2, r2, r1
    663e:	1411      	asrs	r1, r2, #16
    6640:	0c1b      	lsrs	r3, r3, #16
    6642:	185b      	adds	r3, r3, r1
    6644:	0412      	lsls	r2, r2, #16
    6646:	1419      	asrs	r1, r3, #16
    6648:	0c12      	lsrs	r2, r2, #16
    664a:	041b      	lsls	r3, r3, #16
    664c:	4313      	orrs	r3, r2
    664e:	c408      	stmia	r4!, {r3}
    6650:	45b3      	cmp	fp, r6
    6652:	d8f0      	bhi.n	0x6636
    6654:	4658      	mov	r0, fp
    6656:	3801      	subs	r0, #1
    6658:	1b47      	subs	r7, r0, r5
    665a:	08bf      	lsrs	r7, r7, #2
    665c:	00bf      	lsls	r7, r7, #2
    665e:	4457      	add	r7, sl
    6660:	2b00      	cmp	r3, #0
    6662:	d107      	bne.n	0x6674
    6664:	2301      	movs	r3, #1
    6666:	425b      	negs	r3, r3
    6668:	4698      	mov	r8, r3
    666a:	3f04      	subs	r7, #4
    666c:	683b      	ldr	r3, [r7, #0]
    666e:	44c4      	add	ip, r8
    6670:	2b00      	cmp	r3, #0
    6672:	d0f7      	beq.n	0x6664
    6674:	464b      	mov	r3, r9
    6676:	4662      	mov	r2, ip
    6678:	611a      	str	r2, [r3, #16]
    667a:	4648      	mov	r0, r9
    667c:	bc3c      	pop	{r2, r3, r4, r5}
    667e:	4690      	mov	r8, r2
    6680:	4699      	mov	r9, r3
    6682:	46a2      	mov	sl, r4
    6684:	46ab      	mov	fp, r5
    6686:	bcf8      	pop	{r3, r4, r5, r6, r7}
    6688:	bc02      	pop	{r1}
    668a:	4708      	bx	r1
    668c:	2100      	movs	r1, #0
    668e:	4660      	mov	r0, ip
    6690:	f7ff fcfc 	bl	0x608c
    6694:	2301      	movs	r3, #1
    6696:	6103      	str	r3, [r0, #16]
    6698:	2300      	movs	r3, #0
    669a:	4681      	mov	r9, r0
    669c:	6143      	str	r3, [r0, #20]
    669e:	e7ec      	b.n	0x667a
    66a0:	b5f0      	push	{r4, r5, r6, r7, lr}
    66a2:	2101      	movs	r1, #1
    66a4:	001c      	movs	r4, r3
    66a6:	b083      	sub	sp, #12
    66a8:	0015      	movs	r5, r2
    66aa:	9f08      	ldr	r7, [sp, #32]
    66ac:	f7ff fcee 	bl	0x608c
    66b0:	0323      	lsls	r3, r4, #12
    66b2:	0064      	lsls	r4, r4, #1
    66b4:	0006      	movs	r6, r0
    66b6:	0b1b      	lsrs	r3, r3, #12
    66b8:	0d64      	lsrs	r4, r4, #21
    66ba:	d002      	beq.n	0x66c2
    66bc:	2280      	movs	r2, #128	; 0x80
    66be:	0352      	lsls	r2, r2, #13
    66c0:	4313      	orrs	r3, r2
    66c2:	9301      	str	r3, [sp, #4]
    66c4:	2d00      	cmp	r5, #0
    66c6:	d029      	beq.n	0x671c
    66c8:	4668      	mov	r0, sp
    66ca:	9500      	str	r5, [sp, #0]
    66cc:	f7ff fd7e 	bl	0x61cc
    66d0:	2800      	cmp	r0, #0
    66d2:	d117      	bne.n	0x6704
    66d4:	9b00      	ldr	r3, [sp, #0]
    66d6:	9d01      	ldr	r5, [sp, #4]
    66d8:	6173      	str	r3, [r6, #20]
    66da:	61b5      	str	r5, [r6, #24]
    66dc:	1e6b      	subs	r3, r5, #1
    66de:	419d      	sbcs	r5, r3
    66e0:	3501      	adds	r5, #1
    66e2:	6135      	str	r5, [r6, #16]
    66e4:	2c00      	cmp	r4, #0
    66e6:	d024      	beq.n	0x6732
    66e8:	4b1a      	ldr	r3, [pc, #104]	; (0x6754)
    66ea:	469c      	mov	ip, r3
    66ec:	2335      	movs	r3, #53	; 0x35
    66ee:	4464      	add	r4, ip
    66f0:	1824      	adds	r4, r4, r0
    66f2:	1a18      	subs	r0, r3, r0
    66f4:	9b09      	ldr	r3, [sp, #36]	; 0x24
    66f6:	603c      	str	r4, [r7, #0]
    66f8:	6018      	str	r0, [r3, #0]
    66fa:	0030      	movs	r0, r6
    66fc:	b003      	add	sp, #12
    66fe:	bcf0      	pop	{r4, r5, r6, r7}
    6700:	bc02      	pop	{r1}
    6702:	4708      	bx	r1
    6704:	9d01      	ldr	r5, [sp, #4]
    6706:	2320      	movs	r3, #32
    6708:	002a      	movs	r2, r5
    670a:	1a1b      	subs	r3, r3, r0
    670c:	409a      	lsls	r2, r3
    670e:	0013      	movs	r3, r2
    6710:	40c5      	lsrs	r5, r0
    6712:	9a00      	ldr	r2, [sp, #0]
    6714:	4313      	orrs	r3, r2
    6716:	6173      	str	r3, [r6, #20]
    6718:	9501      	str	r5, [sp, #4]
    671a:	e7de      	b.n	0x66da
    671c:	a801      	add	r0, sp, #4
    671e:	f7ff fd55 	bl	0x61cc
    6722:	9b01      	ldr	r3, [sp, #4]
    6724:	6173      	str	r3, [r6, #20]
    6726:	2301      	movs	r3, #1
    6728:	3020      	adds	r0, #32
    672a:	6133      	str	r3, [r6, #16]
    672c:	2501      	movs	r5, #1
    672e:	2c00      	cmp	r4, #0
    6730:	d1da      	bne.n	0x66e8
    6732:	4b09      	ldr	r3, [pc, #36]	; (0x6758)
    6734:	469c      	mov	ip, r3
    6736:	4b09      	ldr	r3, [pc, #36]	; (0x675c)
    6738:	18eb      	adds	r3, r5, r3
    673a:	009b      	lsls	r3, r3, #2
    673c:	4460      	add	r0, ip
    673e:	18f3      	adds	r3, r6, r3
    6740:	6038      	str	r0, [r7, #0]
    6742:	6958      	ldr	r0, [r3, #20]
    6744:	f7ff fd26 	bl	0x6194
    6748:	016d      	lsls	r5, r5, #5
    674a:	9b09      	ldr	r3, [sp, #36]	; 0x24
    674c:	1a2d      	subs	r5, r5, r0
    674e:	601d      	str	r5, [r3, #0]
    6750:	e7d3      	b.n	0x66fa
    6752:	46c0      	nop			; (mov r8, r8)
    6754:	fbcd ffff 			; <UNDEFINED> instruction: 0xfbcdffff
    6758:	fbce ffff 			; <UNDEFINED> instruction: 0xfbceffff
    675c:	ffff 3fff 			; <UNDEFINED> instruction: 0xffff3fff
    6760:	b570      	push	{r4, r5, r6, lr}
    6762:	0014      	movs	r4, r2
    6764:	2500      	movs	r5, #0
    6766:	6025      	str	r5, [r4, #0]
    6768:	4d11      	ldr	r5, [pc, #68]	; (0x67b0)
    676a:	004b      	lsls	r3, r1, #1
    676c:	000a      	movs	r2, r1
    676e:	085b      	lsrs	r3, r3, #1
    6770:	42ab      	cmp	r3, r5
    6772:	dc19      	bgt.n	0x67a8
    6774:	001d      	movs	r5, r3
    6776:	4305      	orrs	r5, r0
    6778:	d016      	beq.n	0x67a8
    677a:	4e0e      	ldr	r6, [pc, #56]	; (0x67b4)
    677c:	2500      	movs	r5, #0
    677e:	4231      	tst	r1, r6
    6780:	d107      	bne.n	0x6792
    6782:	2200      	movs	r2, #0
    6784:	4b0c      	ldr	r3, [pc, #48]	; (0x67b8)
    6786:	f000 fe09 	bl	0x739c
    678a:	000a      	movs	r2, r1
    678c:	004b      	lsls	r3, r1, #1
    678e:	085b      	lsrs	r3, r3, #1
    6790:	3d36      	subs	r5, #54	; 0x36
    6792:	4e0a      	ldr	r6, [pc, #40]	; (0x67bc)
    6794:	46b4      	mov	ip, r6
    6796:	151b      	asrs	r3, r3, #20
    6798:	4463      	add	r3, ip
    679a:	195b      	adds	r3, r3, r5
    679c:	6023      	str	r3, [r4, #0]
    679e:	4b08      	ldr	r3, [pc, #32]	; (0x67c0)
    67a0:	401a      	ands	r2, r3
    67a2:	4b08      	ldr	r3, [pc, #32]	; (0x67c4)
    67a4:	4313      	orrs	r3, r2
    67a6:	0019      	movs	r1, r3
    67a8:	bc70      	pop	{r4, r5, r6}
    67aa:	bc04      	pop	{r2}
    67ac:	4710      	bx	r2
    67ae:	46c0      	nop			; (mov r8, r8)
    67b0:	ffff 7fef 	vqrdmlsh.s<illegal width 64>	<illegal reg q11.5>, <illegal reg q15.5>, d31[0]
    67b4:	0000      	movs	r0, r0
    67b6:	7ff0      	ldrb	r0, [r6, #31]
    67b8:	0000      	movs	r0, r0
    67ba:	4350      	muls	r0, r2
    67bc:	fc02 ffff 			; <UNDEFINED> instruction: 0xfc02ffff
    67c0:	ffff 800f 	vaddl.u<illegal width 64>	q12, d15, d15
    67c4:	0000      	movs	r0, r0
    67c6:	3fe0      	subs	r7, #224	; 0xe0
    67c8:	b510      	push	{r4, lr}
    67ca:	0783      	lsls	r3, r0, #30
    67cc:	d029      	beq.n	0x6822
    67ce:	7803      	ldrb	r3, [r0, #0]
    67d0:	2b00      	cmp	r3, #0
    67d2:	d028      	beq.n	0x6826
    67d4:	0003      	movs	r3, r0
    67d6:	2103      	movs	r1, #3
    67d8:	e002      	b.n	0x67e0
    67da:	781a      	ldrb	r2, [r3, #0]
    67dc:	2a00      	cmp	r2, #0
    67de:	d01c      	beq.n	0x681a
    67e0:	3301      	adds	r3, #1
    67e2:	420b      	tst	r3, r1
    67e4:	d1f9      	bne.n	0x67da
    67e6:	6819      	ldr	r1, [r3, #0]
    67e8:	4a10      	ldr	r2, [pc, #64]	; (0x682c)
    67ea:	4c11      	ldr	r4, [pc, #68]	; (0x6830)
    67ec:	188a      	adds	r2, r1, r2
    67ee:	438a      	bics	r2, r1
    67f0:	4222      	tst	r2, r4
    67f2:	d10f      	bne.n	0x6814
    67f4:	3304      	adds	r3, #4
    67f6:	6819      	ldr	r1, [r3, #0]
    67f8:	4a0c      	ldr	r2, [pc, #48]	; (0x682c)
    67fa:	188a      	adds	r2, r1, r2
    67fc:	438a      	bics	r2, r1
    67fe:	4222      	tst	r2, r4
    6800:	d108      	bne.n	0x6814
    6802:	3304      	adds	r3, #4
    6804:	6819      	ldr	r1, [r3, #0]
    6806:	4a09      	ldr	r2, [pc, #36]	; (0x682c)
    6808:	188a      	adds	r2, r1, r2
    680a:	438a      	bics	r2, r1
    680c:	4222      	tst	r2, r4
    680e:	d0f1      	beq.n	0x67f4
    6810:	e000      	b.n	0x6814
    6812:	3301      	adds	r3, #1
    6814:	781a      	ldrb	r2, [r3, #0]
    6816:	2a00      	cmp	r2, #0
    6818:	d1fb      	bne.n	0x6812
    681a:	1a18      	subs	r0, r3, r0
    681c:	bc10      	pop	{r4}
    681e:	bc02      	pop	{r1}
    6820:	4708      	bx	r1
    6822:	0003      	movs	r3, r0
    6824:	e7df      	b.n	0x67e6
    6826:	2000      	movs	r0, #0
    6828:	e7f8      	b.n	0x681c
    682a:	46c0      	nop			; (mov r8, r8)
    682c:	feff fefe 			; <UNDEFINED> instruction: 0xfefffefe
    6830:	8080      	strh	r0, [r0, #4]
    6832:	8080      	strh	r0, [r0, #4]
    6834:	b5f0      	push	{r4, r5, r6, r7, lr}
    6836:	000d      	movs	r5, r1
    6838:	2403      	movs	r4, #3
    683a:	4305      	orrs	r5, r0
    683c:	0003      	movs	r3, r0
    683e:	422c      	tst	r4, r5
    6840:	d101      	bne.n	0x6846
    6842:	4294      	cmp	r4, r2
    6844:	d317      	bcc.n	0x6876
    6846:	0007      	movs	r7, r0
    6848:	2a00      	cmp	r2, #0
    684a:	d011      	beq.n	0x6870
    684c:	780d      	ldrb	r5, [r1, #0]
    684e:	1e54      	subs	r4, r2, #1
    6850:	1c7b      	adds	r3, r7, #1
    6852:	703d      	strb	r5, [r7, #0]
    6854:	2d00      	cmp	r5, #0
    6856:	d022      	beq.n	0x689e
    6858:	2501      	movs	r5, #1
    685a:	18ba      	adds	r2, r7, r2
    685c:	e006      	b.n	0x686c
    685e:	5d4e      	ldrb	r6, [r1, r5]
    6860:	3c01      	subs	r4, #1
    6862:	557e      	strb	r6, [r7, r5]
    6864:	1b13      	subs	r3, r2, r4
    6866:	3501      	adds	r5, #1
    6868:	2e00      	cmp	r6, #0
    686a:	d018      	beq.n	0x689e
    686c:	2c00      	cmp	r4, #0
    686e:	d1f6      	bne.n	0x685e
    6870:	bcf0      	pop	{r4, r5, r6, r7}
    6872:	bc02      	pop	{r1}
    6874:	4708      	bx	r1
    6876:	4c0e      	ldr	r4, [pc, #56]	; (0x68b0)
    6878:	46a4      	mov	ip, r4
    687a:	e006      	b.n	0x688a
    687c:	3304      	adds	r3, #4
    687e:	3a04      	subs	r2, #4
    6880:	3104      	adds	r1, #4
    6882:	001f      	movs	r7, r3
    6884:	6035      	str	r5, [r6, #0]
    6886:	2a03      	cmp	r2, #3
    6888:	d9de      	bls.n	0x6848
    688a:	4667      	mov	r7, ip
    688c:	680d      	ldr	r5, [r1, #0]
    688e:	4c09      	ldr	r4, [pc, #36]	; (0x68b4)
    6890:	192c      	adds	r4, r5, r4
    6892:	43ac      	bics	r4, r5
    6894:	001e      	movs	r6, r3
    6896:	423c      	tst	r4, r7
    6898:	d0f0      	beq.n	0x687c
    689a:	001f      	movs	r7, r3
    689c:	e7d6      	b.n	0x684c
    689e:	1919      	adds	r1, r3, r4
    68a0:	2200      	movs	r2, #0
    68a2:	2c00      	cmp	r4, #0
    68a4:	d0e4      	beq.n	0x6870
    68a6:	701a      	strb	r2, [r3, #0]
    68a8:	3301      	adds	r3, #1
    68aa:	4299      	cmp	r1, r3
    68ac:	d1fb      	bne.n	0x68a6
    68ae:	e7df      	b.n	0x6870
    68b0:	8080      	strh	r0, [r0, #4]
    68b2:	8080      	strh	r0, [r0, #4]
    68b4:	feff fefe 			; <UNDEFINED> instruction: 0xfefffefe
    68b8:	b5f0      	push	{r4, r5, r6, r7, lr}
    68ba:	4657      	mov	r7, sl
    68bc:	4645      	mov	r5, r8
    68be:	46de      	mov	lr, fp
    68c0:	464e      	mov	r6, r9
    68c2:	b5e0      	push	{r5, r6, r7, lr}
    68c4:	6893      	ldr	r3, [r2, #8]
    68c6:	b083      	sub	sp, #12
    68c8:	4682      	mov	sl, r0
    68ca:	000c      	movs	r4, r1
    68cc:	4690      	mov	r8, r2
    68ce:	2b00      	cmp	r3, #0
    68d0:	d028      	beq.n	0x6924
    68d2:	6813      	ldr	r3, [r2, #0]
    68d4:	469b      	mov	fp, r3
    68d6:	2300      	movs	r3, #0
    68d8:	9301      	str	r3, [sp, #4]
    68da:	001d      	movs	r5, r3
    68dc:	e007      	b.n	0x68ee
    68de:	465b      	mov	r3, fp
    68e0:	681b      	ldr	r3, [r3, #0]
    68e2:	9301      	str	r3, [sp, #4]
    68e4:	465b      	mov	r3, fp
    68e6:	685d      	ldr	r5, [r3, #4]
    68e8:	2308      	movs	r3, #8
    68ea:	469c      	mov	ip, r3
    68ec:	44e3      	add	fp, ip
    68ee:	2d00      	cmp	r5, #0
    68f0:	d0f5      	beq.n	0x68de
    68f2:	68a7      	ldr	r7, [r4, #8]
    68f4:	42bd      	cmp	r5, r7
    68f6:	d219      	bcs.n	0x692c
    68f8:	42af      	cmp	r7, r5
    68fa:	d900      	bls.n	0x68fe
    68fc:	002f      	movs	r7, r5
    68fe:	003a      	movs	r2, r7
    6900:	9901      	ldr	r1, [sp, #4]
    6902:	6820      	ldr	r0, [r4, #0]
    6904:	f000 f9b4 	bl	0x6c70
    6908:	68a3      	ldr	r3, [r4, #8]
    690a:	1bdb      	subs	r3, r3, r7
    690c:	60a3      	str	r3, [r4, #8]
    690e:	6823      	ldr	r3, [r4, #0]
    6910:	469c      	mov	ip, r3
    6912:	4643      	mov	r3, r8
    6914:	689b      	ldr	r3, [r3, #8]
    6916:	1b5d      	subs	r5, r3, r5
    6918:	4643      	mov	r3, r8
    691a:	4467      	add	r7, ip
    691c:	6027      	str	r7, [r4, #0]
    691e:	609d      	str	r5, [r3, #8]
    6920:	2d00      	cmp	r5, #0
    6922:	d1dc      	bne.n	0x68de
    6924:	2000      	movs	r0, #0
    6926:	4643      	mov	r3, r8
    6928:	6058      	str	r0, [r3, #4]
    692a:	e04c      	b.n	0x69c6
    692c:	2390      	movs	r3, #144	; 0x90
    692e:	89a2      	ldrh	r2, [r4, #12]
    6930:	00db      	lsls	r3, r3, #3
    6932:	421a      	tst	r2, r3
    6934:	d0e0      	beq.n	0x68f8
    6936:	6921      	ldr	r1, [r4, #16]
    6938:	6823      	ldr	r3, [r4, #0]
    693a:	1a5b      	subs	r3, r3, r1
    693c:	4699      	mov	r9, r3
    693e:	6963      	ldr	r3, [r4, #20]
    6940:	469c      	mov	ip, r3
    6942:	2303      	movs	r3, #3
    6944:	4666      	mov	r6, ip
    6946:	435e      	muls	r6, r3
    6948:	0ff3      	lsrs	r3, r6, #31
    694a:	199e      	adds	r6, r3, r6
    694c:	464b      	mov	r3, r9
    694e:	3301      	adds	r3, #1
    6950:	195b      	adds	r3, r3, r5
    6952:	1076      	asrs	r6, r6, #1
    6954:	42b3      	cmp	r3, r6
    6956:	d900      	bls.n	0x695a
    6958:	001e      	movs	r6, r3
    695a:	2380      	movs	r3, #128	; 0x80
    695c:	00db      	lsls	r3, r3, #3
    695e:	421a      	tst	r2, r3
    6960:	d010      	beq.n	0x6984
    6962:	0031      	movs	r1, r6
    6964:	4650      	mov	r0, sl
    6966:	f7fe fee9 	bl	0x573c
    696a:	1e07      	subs	r7, r0, #0
    696c:	d014      	beq.n	0x6998
    696e:	464a      	mov	r2, r9
    6970:	6921      	ldr	r1, [r4, #16]
    6972:	f7fb f82f 	bl	0x19d4
    6976:	89a3      	ldrh	r3, [r4, #12]
    6978:	4a17      	ldr	r2, [pc, #92]	; (0x69d8)
    697a:	401a      	ands	r2, r3
    697c:	2380      	movs	r3, #128	; 0x80
    697e:	4313      	orrs	r3, r2
    6980:	81a3      	strh	r3, [r4, #12]
    6982:	e017      	b.n	0x69b4
    6984:	0032      	movs	r2, r6
    6986:	4650      	mov	r0, sl
    6988:	f000 f9ca 	bl	0x6d20
    698c:	1e07      	subs	r7, r0, #0
    698e:	d111      	bne.n	0x69b4
    6990:	6921      	ldr	r1, [r4, #16]
    6992:	4650      	mov	r0, sl
    6994:	f7fe fdc4 	bl	0x5520
    6998:	230c      	movs	r3, #12
    699a:	4652      	mov	r2, sl
    699c:	6013      	str	r3, [r2, #0]
    699e:	2340      	movs	r3, #64	; 0x40
    69a0:	89a2      	ldrh	r2, [r4, #12]
    69a2:	4313      	orrs	r3, r2
    69a4:	81a3      	strh	r3, [r4, #12]
    69a6:	4642      	mov	r2, r8
    69a8:	2300      	movs	r3, #0
    69aa:	2001      	movs	r0, #1
    69ac:	6093      	str	r3, [r2, #8]
    69ae:	6053      	str	r3, [r2, #4]
    69b0:	4240      	negs	r0, r0
    69b2:	e008      	b.n	0x69c6
    69b4:	464b      	mov	r3, r9
    69b6:	6127      	str	r7, [r4, #16]
    69b8:	6166      	str	r6, [r4, #20]
    69ba:	444f      	add	r7, r9
    69bc:	1af6      	subs	r6, r6, r3
    69be:	6027      	str	r7, [r4, #0]
    69c0:	60a6      	str	r6, [r4, #8]
    69c2:	002f      	movs	r7, r5
    69c4:	e798      	b.n	0x68f8
    69c6:	b003      	add	sp, #12
    69c8:	bc3c      	pop	{r2, r3, r4, r5}
    69ca:	4690      	mov	r8, r2
    69cc:	4699      	mov	r9, r3
    69ce:	46a2      	mov	sl, r4
    69d0:	46ab      	mov	fp, r5
    69d2:	bcf0      	pop	{r4, r5, r6, r7}
    69d4:	bc02      	pop	{r1}
    69d6:	4708      	bx	r1
    69d8:	fb7f ffff 			; <UNDEFINED> instruction: 0xfb7fffff
    69dc:	b5f0      	push	{r4, r5, r6, r7, lr}
    69de:	4657      	mov	r7, sl
    69e0:	464e      	mov	r6, r9
    69e2:	46de      	mov	lr, fp
    69e4:	4645      	mov	r5, r8
    69e6:	b5e0      	push	{r5, r6, r7, lr}
    69e8:	b08d      	sub	sp, #52	; 0x34
    69ea:	4691      	mov	r9, r2
    69ec:	9c17      	ldr	r4, [sp, #92]	; 0x5c
    69ee:	9a16      	ldr	r2, [sp, #88]	; 0x58
    69f0:	9005      	str	r0, [sp, #20]
    69f2:	9106      	str	r1, [sp, #24]
    69f4:	4692      	mov	sl, r2
    69f6:	2c00      	cmp	r4, #0
    69f8:	d070      	beq.n	0x6adc
    69fa:	464a      	mov	r2, r9
    69fc:	6815      	ldr	r5, [r2, #0]
    69fe:	9a06      	ldr	r2, [sp, #24]
    6a00:	2a00      	cmp	r2, #0
    6a02:	d100      	bne.n	0x6a06
    6a04:	e073      	b.n	0x6aee
    6a06:	4652      	mov	r2, sl
    6a08:	2a00      	cmp	r2, #0
    6a0a:	d100      	bne.n	0x6a0e
    6a0c:	e07a      	b.n	0x6b04
    6a0e:	1e5e      	subs	r6, r3, #1
    6a10:	2b00      	cmp	r3, #0
    6a12:	d100      	bne.n	0x6a16
    6a14:	e076      	b.n	0x6b04
    6a16:	9b06      	ldr	r3, [sp, #24]
    6a18:	9307      	str	r3, [sp, #28]
    6a1a:	2300      	movs	r3, #0
    6a1c:	4698      	mov	r8, r3
    6a1e:	33e0      	adds	r3, #224	; 0xe0
    6a20:	469b      	mov	fp, r3
    6a22:	ab08      	add	r3, sp, #32
    6a24:	1cdf      	adds	r7, r3, #3
    6a26:	9601      	str	r6, [sp, #4]
    6a28:	e00d      	b.n	0x6a46
    6a2a:	9b06      	ldr	r3, [sp, #24]
    6a2c:	2b00      	cmp	r3, #0
    6a2e:	d12d      	bne.n	0x6a8c
    6a30:	682b      	ldr	r3, [r5, #0]
    6a32:	2b00      	cmp	r3, #0
    6a34:	d048      	beq.n	0x6ac8
    6a36:	4552      	cmp	r2, sl
    6a38:	d267      	bcs.n	0x6b0a
    6a3a:	9b01      	ldr	r3, [sp, #4]
    6a3c:	3504      	adds	r5, #4
    6a3e:	4690      	mov	r8, r2
    6a40:	3b01      	subs	r3, #1
    6a42:	9301      	str	r3, [sp, #4]
    6a44:	d318      	bcc.n	0x6a78
    6a46:	465a      	mov	r2, fp
    6a48:	6823      	ldr	r3, [r4, #0]
    6a4a:	9303      	str	r3, [sp, #12]
    6a4c:	6863      	ldr	r3, [r4, #4]
    6a4e:	9304      	str	r3, [sp, #16]
    6a50:	9b18      	ldr	r3, [sp, #96]	; 0x60
    6a52:	589b      	ldr	r3, [r3, r2]
    6a54:	9302      	str	r3, [sp, #8]
    6a56:	682a      	ldr	r2, [r5, #0]
    6a58:	0023      	movs	r3, r4
    6a5a:	a909      	add	r1, sp, #36	; 0x24
    6a5c:	9805      	ldr	r0, [sp, #20]
    6a5e:	9e02      	ldr	r6, [sp, #8]
    6a60:	f000 f855 	bl	0x6b0e
    6a64:	1c43      	adds	r3, r0, #1
    6a66:	d046      	beq.n	0x6af6
    6a68:	4643      	mov	r3, r8
    6a6a:	18c2      	adds	r2, r0, r3
    6a6c:	4552      	cmp	r2, sl
    6a6e:	d9dc      	bls.n	0x6a2a
    6a70:	9b03      	ldr	r3, [sp, #12]
    6a72:	6023      	str	r3, [r4, #0]
    6a74:	9b04      	ldr	r3, [sp, #16]
    6a76:	6063      	str	r3, [r4, #4]
    6a78:	4640      	mov	r0, r8
    6a7a:	b00d      	add	sp, #52	; 0x34
    6a7c:	bc3c      	pop	{r2, r3, r4, r5}
    6a7e:	4690      	mov	r8, r2
    6a80:	4699      	mov	r9, r3
    6a82:	46a2      	mov	sl, r4
    6a84:	46ab      	mov	fp, r5
    6a86:	bcf0      	pop	{r4, r5, r6, r7}
    6a88:	bc02      	pop	{r1}
    6a8a:	4708      	bx	r1
    6a8c:	2800      	cmp	r0, #0
    6a8e:	dd13      	ble.n	0x6ab8
    6a90:	9907      	ldr	r1, [sp, #28]
    6a92:	3901      	subs	r1, #1
    6a94:	4694      	mov	ip, r2
    6a96:	2301      	movs	r3, #1
    6a98:	9e01      	ldr	r6, [sp, #4]
    6a9a:	000a      	movs	r2, r1
    6a9c:	e000      	b.n	0x6aa0
    6a9e:	000b      	movs	r3, r1
    6aa0:	5cf9      	ldrb	r1, [r7, r3]
    6aa2:	54d1      	strb	r1, [r2, r3]
    6aa4:	1c59      	adds	r1, r3, #1
    6aa6:	4298      	cmp	r0, r3
    6aa8:	d1f9      	bne.n	0x6a9e
    6aaa:	9b07      	ldr	r3, [sp, #28]
    6aac:	4662      	mov	r2, ip
    6aae:	469c      	mov	ip, r3
    6ab0:	4484      	add	ip, r0
    6ab2:	4663      	mov	r3, ip
    6ab4:	9601      	str	r6, [sp, #4]
    6ab6:	9307      	str	r3, [sp, #28]
    6ab8:	464b      	mov	r3, r9
    6aba:	4649      	mov	r1, r9
    6abc:	681b      	ldr	r3, [r3, #0]
    6abe:	3304      	adds	r3, #4
    6ac0:	600b      	str	r3, [r1, #0]
    6ac2:	682b      	ldr	r3, [r5, #0]
    6ac4:	2b00      	cmp	r3, #0
    6ac6:	d1b6      	bne.n	0x6a36
    6ac8:	9906      	ldr	r1, [sp, #24]
    6aca:	2900      	cmp	r1, #0
    6acc:	d001      	beq.n	0x6ad2
    6ace:	4649      	mov	r1, r9
    6ad0:	600b      	str	r3, [r1, #0]
    6ad2:	2300      	movs	r3, #0
    6ad4:	6023      	str	r3, [r4, #0]
    6ad6:	1e53      	subs	r3, r2, #1
    6ad8:	4698      	mov	r8, r3
    6ada:	e7cd      	b.n	0x6a78
    6adc:	464a      	mov	r2, r9
    6ade:	0004      	movs	r4, r0
    6ae0:	6815      	ldr	r5, [r2, #0]
    6ae2:	9a06      	ldr	r2, [sp, #24]
    6ae4:	341d      	adds	r4, #29
    6ae6:	34ff      	adds	r4, #255	; 0xff
    6ae8:	2a00      	cmp	r2, #0
    6aea:	d000      	beq.n	0x6aee
    6aec:	e78b      	b.n	0x6a06
    6aee:	2201      	movs	r2, #1
    6af0:	4252      	negs	r2, r2
    6af2:	4692      	mov	sl, r2
    6af4:	e78b      	b.n	0x6a0e
    6af6:	238a      	movs	r3, #138	; 0x8a
    6af8:	9a05      	ldr	r2, [sp, #20]
    6afa:	6013      	str	r3, [r2, #0]
    6afc:	2300      	movs	r3, #0
    6afe:	4680      	mov	r8, r0
    6b00:	6023      	str	r3, [r4, #0]
    6b02:	e7b9      	b.n	0x6a78
    6b04:	2300      	movs	r3, #0
    6b06:	4698      	mov	r8, r3
    6b08:	e7b6      	b.n	0x6a78
    6b0a:	4690      	mov	r8, r2
    6b0c:	e7b4      	b.n	0x6a78
    6b0e:	4730      	bx	r6
    6b10:	b5f0      	push	{r4, r5, r6, r7, lr}
    6b12:	b085      	sub	sp, #20
    6b14:	001f      	movs	r7, r3
    6b16:	000d      	movs	r5, r1
    6b18:	0016      	movs	r6, r2
    6b1a:	f000 faff 	bl	0x711c
    6b1e:	0004      	movs	r4, r0
    6b20:	f000 fafc 	bl	0x711c
    6b24:	6b43      	ldr	r3, [r0, #52]	; 0x34
    6b26:	2b00      	cmp	r3, #0
    6b28:	d00e      	beq.n	0x6b48
    6b2a:	9302      	str	r3, [sp, #8]
    6b2c:	9b0b      	ldr	r3, [sp, #44]	; 0x2c
    6b2e:	9301      	str	r3, [sp, #4]
    6b30:	9b0a      	ldr	r3, [sp, #40]	; 0x28
    6b32:	0032      	movs	r2, r6
    6b34:	9300      	str	r3, [sp, #0]
    6b36:	0029      	movs	r1, r5
    6b38:	003b      	movs	r3, r7
    6b3a:	0020      	movs	r0, r4
    6b3c:	f7ff ff4e 	bl	0x69dc
    6b40:	b005      	add	sp, #20
    6b42:	bcf0      	pop	{r4, r5, r6, r7}
    6b44:	bc02      	pop	{r1}
    6b46:	4708      	bx	r1
    6b48:	4b00      	ldr	r3, [pc, #0]	; (0x6b4c)
    6b4a:	e7ee      	b.n	0x6b2a
    6b4c:	01ec      	lsls	r4, r5, #7
    6b4e:	0300      	lsls	r0, r0, #12
    6b50:	b510      	push	{r4, lr}
    6b52:	2900      	cmp	r1, #0
    6b54:	d037      	beq.n	0x6bc6
    6b56:	2a7f      	cmp	r2, #127	; 0x7f
    6b58:	d925      	bls.n	0x6ba6
    6b5a:	0013      	movs	r3, r2
    6b5c:	4c26      	ldr	r4, [pc, #152]	; (0x6bf8)
    6b5e:	3b80      	subs	r3, #128	; 0x80
    6b60:	42a3      	cmp	r3, r4
    6b62:	d923      	bls.n	0x6bac
    6b64:	4b25      	ldr	r3, [pc, #148]	; (0x6bfc)
    6b66:	4c26      	ldr	r4, [pc, #152]	; (0x6c00)
    6b68:	18d3      	adds	r3, r2, r3
    6b6a:	42a3      	cmp	r3, r4
    6b6c:	d92d      	bls.n	0x6bca
    6b6e:	4b25      	ldr	r3, [pc, #148]	; (0x6c04)
    6b70:	4c25      	ldr	r4, [pc, #148]	; (0x6c08)
    6b72:	18d3      	adds	r3, r2, r3
    6b74:	42a3      	cmp	r3, r4
    6b76:	d839      	bhi.n	0x6bec
    6b78:	2310      	movs	r3, #16
    6b7a:	0c90      	lsrs	r0, r2, #18
    6b7c:	425b      	negs	r3, r3
    6b7e:	4303      	orrs	r3, r0
    6b80:	700b      	strb	r3, [r1, #0]
    6b82:	203f      	movs	r0, #63	; 0x3f
    6b84:	2380      	movs	r3, #128	; 0x80
    6b86:	0b14      	lsrs	r4, r2, #12
    6b88:	425b      	negs	r3, r3
    6b8a:	4004      	ands	r4, r0
    6b8c:	431c      	orrs	r4, r3
    6b8e:	704c      	strb	r4, [r1, #1]
    6b90:	0994      	lsrs	r4, r2, #6
    6b92:	4004      	ands	r4, r0
    6b94:	4002      	ands	r2, r0
    6b96:	431c      	orrs	r4, r3
    6b98:	4313      	orrs	r3, r2
    6b9a:	708c      	strb	r4, [r1, #2]
    6b9c:	70cb      	strb	r3, [r1, #3]
    6b9e:	383b      	subs	r0, #59	; 0x3b
    6ba0:	bc10      	pop	{r4}
    6ba2:	bc02      	pop	{r1}
    6ba4:	4708      	bx	r1
    6ba6:	700a      	strb	r2, [r1, #0]
    6ba8:	2001      	movs	r0, #1
    6baa:	e7f9      	b.n	0x6ba0
    6bac:	2340      	movs	r3, #64	; 0x40
    6bae:	0990      	lsrs	r0, r2, #6
    6bb0:	425b      	negs	r3, r3
    6bb2:	4303      	orrs	r3, r0
    6bb4:	700b      	strb	r3, [r1, #0]
    6bb6:	233f      	movs	r3, #63	; 0x3f
    6bb8:	4013      	ands	r3, r2
    6bba:	2280      	movs	r2, #128	; 0x80
    6bbc:	4252      	negs	r2, r2
    6bbe:	431a      	orrs	r2, r3
    6bc0:	704a      	strb	r2, [r1, #1]
    6bc2:	2002      	movs	r0, #2
    6bc4:	e7ec      	b.n	0x6ba0
    6bc6:	2000      	movs	r0, #0
    6bc8:	e7ea      	b.n	0x6ba0
    6bca:	2320      	movs	r3, #32
    6bcc:	0b10      	lsrs	r0, r2, #12
    6bce:	425b      	negs	r3, r3
    6bd0:	4303      	orrs	r3, r0
    6bd2:	243f      	movs	r4, #63	; 0x3f
    6bd4:	2080      	movs	r0, #128	; 0x80
    6bd6:	700b      	strb	r3, [r1, #0]
    6bd8:	0993      	lsrs	r3, r2, #6
    6bda:	4240      	negs	r0, r0
    6bdc:	4023      	ands	r3, r4
    6bde:	4022      	ands	r2, r4
    6be0:	4303      	orrs	r3, r0
    6be2:	4310      	orrs	r0, r2
    6be4:	7088      	strb	r0, [r1, #2]
    6be6:	704b      	strb	r3, [r1, #1]
    6be8:	2003      	movs	r0, #3
    6bea:	e7d9      	b.n	0x6ba0
    6bec:	238a      	movs	r3, #138	; 0x8a
    6bee:	6003      	str	r3, [r0, #0]
    6bf0:	2001      	movs	r0, #1
    6bf2:	4240      	negs	r0, r0
    6bf4:	e7d4      	b.n	0x6ba0
    6bf6:	46c0      	nop			; (mov r8, r8)
    6bf8:	077f      	lsls	r7, r7, #29
    6bfa:	0000      	movs	r0, r0
    6bfc:	f800 ffff 	strb.w	pc, [r0, #255]!
    6c00:	f7ff 0000 			; <UNDEFINED> instruction: 0xf7ff0000
    6c04:	0000      	movs	r0, r0
    6c06:	ffff ffff 			; <UNDEFINED> instruction: 0xffffffff
    6c0a:	000f      	movs	r7, r1
    6c0c:	000b      	movs	r3, r1
    6c0e:	b510      	push	{r4, lr}
    6c10:	0019      	movs	r1, r3
    6c12:	4351      	muls	r1, r2
    6c14:	f7fe fd92 	bl	0x573c
    6c18:	1e04      	subs	r4, r0, #0
    6c1a:	d00e      	beq.n	0x6c3a
    6c1c:	0003      	movs	r3, r0
    6c1e:	3b08      	subs	r3, #8
    6c20:	685a      	ldr	r2, [r3, #4]
    6c22:	2303      	movs	r3, #3
    6c24:	439a      	bics	r2, r3
    6c26:	3a04      	subs	r2, #4
    6c28:	2a24      	cmp	r2, #36	; 0x24
    6c2a:	d817      	bhi.n	0x6c5c
    6c2c:	0003      	movs	r3, r0
    6c2e:	2a13      	cmp	r2, #19
    6c30:	d807      	bhi.n	0x6c42
    6c32:	2200      	movs	r2, #0
    6c34:	601a      	str	r2, [r3, #0]
    6c36:	605a      	str	r2, [r3, #4]
    6c38:	609a      	str	r2, [r3, #8]
    6c3a:	0020      	movs	r0, r4
    6c3c:	bc10      	pop	{r4}
    6c3e:	bc02      	pop	{r1}
    6c40:	4708      	bx	r1
    6c42:	2100      	movs	r1, #0
    6c44:	3308      	adds	r3, #8
    6c46:	6001      	str	r1, [r0, #0]
    6c48:	6041      	str	r1, [r0, #4]
    6c4a:	2a1b      	cmp	r2, #27
    6c4c:	d9f1      	bls.n	0x6c32
    6c4e:	6081      	str	r1, [r0, #8]
    6c50:	60c1      	str	r1, [r0, #12]
    6c52:	2a24      	cmp	r2, #36	; 0x24
    6c54:	d006      	beq.n	0x6c64
    6c56:	0003      	movs	r3, r0
    6c58:	3310      	adds	r3, #16
    6c5a:	e7ea      	b.n	0x6c32
    6c5c:	2100      	movs	r1, #0
    6c5e:	f7ff f9a9 	bl	0x5fb4
    6c62:	e7ea      	b.n	0x6c3a
    6c64:	0003      	movs	r3, r0
    6c66:	6101      	str	r1, [r0, #16]
    6c68:	3318      	adds	r3, #24
    6c6a:	6141      	str	r1, [r0, #20]
    6c6c:	e7e1      	b.n	0x6c32
    6c6e:	46c0      	nop			; (mov r8, r8)
    6c70:	b5f0      	push	{r4, r5, r6, r7, lr}
    6c72:	4288      	cmp	r0, r1
    6c74:	d90c      	bls.n	0x6c90
    6c76:	188b      	adds	r3, r1, r2
    6c78:	4298      	cmp	r0, r3
    6c7a:	d209      	bcs.n	0x6c90
    6c7c:	1e53      	subs	r3, r2, #1
    6c7e:	2a00      	cmp	r2, #0
    6c80:	d003      	beq.n	0x6c8a
    6c82:	5cca      	ldrb	r2, [r1, r3]
    6c84:	54c2      	strb	r2, [r0, r3]
    6c86:	3b01      	subs	r3, #1
    6c88:	d2fb      	bcs.n	0x6c82
    6c8a:	bcf0      	pop	{r4, r5, r6, r7}
    6c8c:	bc02      	pop	{r1}
    6c8e:	4708      	bx	r1
    6c90:	2a0f      	cmp	r2, #15
    6c92:	d80c      	bhi.n	0x6cae
    6c94:	0005      	movs	r5, r0
    6c96:	1e56      	subs	r6, r2, #1
    6c98:	2a00      	cmp	r2, #0
    6c9a:	d0f6      	beq.n	0x6c8a
    6c9c:	2300      	movs	r3, #0
    6c9e:	e000      	b.n	0x6ca2
    6ca0:	0023      	movs	r3, r4
    6ca2:	5cca      	ldrb	r2, [r1, r3]
    6ca4:	1c5c      	adds	r4, r3, #1
    6ca6:	54ea      	strb	r2, [r5, r3]
    6ca8:	429e      	cmp	r6, r3
    6caa:	d1f9      	bne.n	0x6ca0
    6cac:	e7ed      	b.n	0x6c8a
    6cae:	000d      	movs	r5, r1
    6cb0:	4305      	orrs	r5, r0
    6cb2:	000c      	movs	r4, r1
    6cb4:	0003      	movs	r3, r0
    6cb6:	07ad      	lsls	r5, r5, #30
    6cb8:	d12c      	bne.n	0x6d14
    6cba:	0015      	movs	r5, r2
    6cbc:	3d10      	subs	r5, #16
    6cbe:	092d      	lsrs	r5, r5, #4
    6cc0:	012f      	lsls	r7, r5, #4
    6cc2:	183f      	adds	r7, r7, r0
    6cc4:	e000      	b.n	0x6cc8
    6cc6:	0033      	movs	r3, r6
    6cc8:	6826      	ldr	r6, [r4, #0]
    6cca:	601e      	str	r6, [r3, #0]
    6ccc:	6866      	ldr	r6, [r4, #4]
    6cce:	605e      	str	r6, [r3, #4]
    6cd0:	68a6      	ldr	r6, [r4, #8]
    6cd2:	609e      	str	r6, [r3, #8]
    6cd4:	68e6      	ldr	r6, [r4, #12]
    6cd6:	60de      	str	r6, [r3, #12]
    6cd8:	001e      	movs	r6, r3
    6cda:	3410      	adds	r4, #16
    6cdc:	3610      	adds	r6, #16
    6cde:	42bb      	cmp	r3, r7
    6ce0:	d1f1      	bne.n	0x6cc6
    6ce2:	240f      	movs	r4, #15
    6ce4:	230c      	movs	r3, #12
    6ce6:	3501      	adds	r5, #1
    6ce8:	012d      	lsls	r5, r5, #4
    6cea:	1949      	adds	r1, r1, r5
    6cec:	4014      	ands	r4, r2
    6cee:	1945      	adds	r5, r0, r5
    6cf0:	4213      	tst	r3, r2
    6cf2:	d012      	beq.n	0x6d1a
    6cf4:	2300      	movs	r3, #0
    6cf6:	58ce      	ldr	r6, [r1, r3]
    6cf8:	50ee      	str	r6, [r5, r3]
    6cfa:	3304      	adds	r3, #4
    6cfc:	1ae6      	subs	r6, r4, r3
    6cfe:	2e03      	cmp	r6, #3
    6d00:	d8f9      	bhi.n	0x6cf6
    6d02:	2303      	movs	r3, #3
    6d04:	3c04      	subs	r4, #4
    6d06:	08a4      	lsrs	r4, r4, #2
    6d08:	3401      	adds	r4, #1
    6d0a:	00a4      	lsls	r4, r4, #2
    6d0c:	192d      	adds	r5, r5, r4
    6d0e:	1909      	adds	r1, r1, r4
    6d10:	401a      	ands	r2, r3
    6d12:	e7c0      	b.n	0x6c96
    6d14:	1e56      	subs	r6, r2, #1
    6d16:	0005      	movs	r5, r0
    6d18:	e7c0      	b.n	0x6c9c
    6d1a:	0022      	movs	r2, r4
    6d1c:	e7bb      	b.n	0x6c96
    6d1e:	46c0      	nop			; (mov r8, r8)
    6d20:	b5f0      	push	{r4, r5, r6, r7, lr}
    6d22:	46de      	mov	lr, fp
    6d24:	464e      	mov	r6, r9
    6d26:	4645      	mov	r5, r8
    6d28:	4657      	mov	r7, sl
    6d2a:	b5e0      	push	{r5, r6, r7, lr}
    6d2c:	4680      	mov	r8, r0
    6d2e:	b085      	sub	sp, #20
    6d30:	1e0e      	subs	r6, r1, #0
    6d32:	4693      	mov	fp, r2
    6d34:	d100      	bne.n	0x6d38
    6d36:	e0a5      	b.n	0x6e84
    6d38:	0037      	movs	r7, r6
    6d3a:	3f08      	subs	r7, #8
    6d3c:	f7ff f992 	bl	0x6064
    6d40:	687b      	ldr	r3, [r7, #4]
    6d42:	465c      	mov	r4, fp
    6d44:	2203      	movs	r2, #3
    6d46:	001d      	movs	r5, r3
    6d48:	340b      	adds	r4, #11
    6d4a:	46ba      	mov	sl, r7
    6d4c:	4395      	bics	r5, r2
    6d4e:	2c16      	cmp	r4, #22
    6d50:	d861      	bhi.n	0x6e16
    6d52:	2210      	movs	r2, #16
    6d54:	2100      	movs	r1, #0
    6d56:	2410      	movs	r4, #16
    6d58:	9201      	str	r2, [sp, #4]
    6d5a:	455c      	cmp	r4, fp
    6d5c:	d200      	bcs.n	0x6d60
    6d5e:	e0a7      	b.n	0x6eb0
    6d60:	2900      	cmp	r1, #0
    6d62:	d000      	beq.n	0x6d66
    6d64:	e0a4      	b.n	0x6eb0
    6d66:	9a01      	ldr	r2, [sp, #4]
    6d68:	1979      	adds	r1, r7, r5
    6d6a:	4689      	mov	r9, r1
    6d6c:	4295      	cmp	r5, r2
    6d6e:	da60      	bge.n	0x6e32
    6d70:	4ac6      	ldr	r2, [pc, #792]	; (0x708c)
    6d72:	6892      	ldr	r2, [r2, #8]
    6d74:	6848      	ldr	r0, [r1, #4]
    6d76:	9202      	str	r2, [sp, #8]
    6d78:	428a      	cmp	r2, r1
    6d7a:	d100      	bne.n	0x6d7e
    6d7c:	e0cb      	b.n	0x6f16
    6d7e:	2101      	movs	r1, #1
    6d80:	0002      	movs	r2, r0
    6d82:	438a      	bics	r2, r1
    6d84:	4694      	mov	ip, r2
    6d86:	44cc      	add	ip, r9
    6d88:	4662      	mov	r2, ip
    6d8a:	6852      	ldr	r2, [r2, #4]
    6d8c:	420a      	tst	r2, r1
    6d8e:	d16d      	bne.n	0x6e6c
    6d90:	2203      	movs	r2, #3
    6d92:	4390      	bics	r0, r2
    6d94:	182a      	adds	r2, r5, r0
    6d96:	4694      	mov	ip, r2
    6d98:	9a01      	ldr	r2, [sp, #4]
    6d9a:	4594      	cmp	ip, r2
    6d9c:	da40      	bge.n	0x6e20
    6d9e:	4219      	tst	r1, r3
    6da0:	d112      	bne.n	0x6dc8
    6da2:	2203      	movs	r2, #3
    6da4:	683b      	ldr	r3, [r7, #0]
    6da6:	1afb      	subs	r3, r7, r3
    6da8:	9302      	str	r3, [sp, #8]
    6daa:	685b      	ldr	r3, [r3, #4]
    6dac:	4393      	bics	r3, r2
    6dae:	1818      	adds	r0, r3, r0
    6db0:	9901      	ldr	r1, [sp, #4]
    6db2:	1942      	adds	r2, r0, r5
    6db4:	9203      	str	r2, [sp, #12]
    6db6:	428a      	cmp	r2, r1
    6db8:	db00      	blt.n	0x6dbc
    6dba:	e07f      	b.n	0x6ebc
    6dbc:	9a01      	ldr	r2, [sp, #4]
    6dbe:	18eb      	adds	r3, r5, r3
    6dc0:	9303      	str	r3, [sp, #12]
    6dc2:	4293      	cmp	r3, r2
    6dc4:	db00      	blt.n	0x6dc8
    6dc6:	e07f      	b.n	0x6ec8
    6dc8:	4659      	mov	r1, fp
    6dca:	4640      	mov	r0, r8
    6dcc:	f7fe fcb6 	bl	0x573c
    6dd0:	4681      	mov	r9, r0
    6dd2:	2800      	cmp	r0, #0
    6dd4:	d01b      	beq.n	0x6e0e
    6dd6:	2301      	movs	r3, #1
    6dd8:	687a      	ldr	r2, [r7, #4]
    6dda:	439a      	bics	r2, r3
    6ddc:	18bb      	adds	r3, r7, r2
    6dde:	0002      	movs	r2, r0
    6de0:	3a08      	subs	r2, #8
    6de2:	4293      	cmp	r3, r2
    6de4:	d100      	bne.n	0x6de8
    6de6:	e0dd      	b.n	0x6fa4
    6de8:	1f2a      	subs	r2, r5, #4
    6dea:	2a24      	cmp	r2, #36	; 0x24
    6dec:	d900      	bls.n	0x6df0
    6dee:	e0ea      	b.n	0x6fc6
    6df0:	6831      	ldr	r1, [r6, #0]
    6df2:	0003      	movs	r3, r0
    6df4:	2a13      	cmp	r2, #19
    6df6:	d900      	bls.n	0x6dfa
    6df8:	e0db      	b.n	0x6fb2
    6dfa:	0032      	movs	r2, r6
    6dfc:	6019      	str	r1, [r3, #0]
    6dfe:	6851      	ldr	r1, [r2, #4]
    6e00:	6059      	str	r1, [r3, #4]
    6e02:	6892      	ldr	r2, [r2, #8]
    6e04:	609a      	str	r2, [r3, #8]
    6e06:	0031      	movs	r1, r6
    6e08:	4640      	mov	r0, r8
    6e0a:	f7fe fb89 	bl	0x5520
    6e0e:	4640      	mov	r0, r8
    6e10:	f7ff f932 	bl	0x6078
    6e14:	e020      	b.n	0x6e58
    6e16:	3204      	adds	r2, #4
    6e18:	4394      	bics	r4, r2
    6e1a:	9401      	str	r4, [sp, #4]
    6e1c:	0fe1      	lsrs	r1, r4, #31
    6e1e:	e79c      	b.n	0x6d5a
    6e20:	464b      	mov	r3, r9
    6e22:	464a      	mov	r2, r9
    6e24:	4467      	add	r7, ip
    6e26:	46b9      	mov	r9, r7
    6e28:	4665      	mov	r5, ip
    6e2a:	68db      	ldr	r3, [r3, #12]
    6e2c:	6892      	ldr	r2, [r2, #8]
    6e2e:	60d3      	str	r3, [r2, #12]
    6e30:	609a      	str	r2, [r3, #8]
    6e32:	4652      	mov	r2, sl
    6e34:	2301      	movs	r3, #1
    6e36:	6852      	ldr	r2, [r2, #4]
    6e38:	1b28      	subs	r0, r5, r4
    6e3a:	401a      	ands	r2, r3
    6e3c:	280f      	cmp	r0, #15
    6e3e:	d826      	bhi.n	0x6e8e
    6e40:	4651      	mov	r1, sl
    6e42:	432a      	orrs	r2, r5
    6e44:	604a      	str	r2, [r1, #4]
    6e46:	464a      	mov	r2, r9
    6e48:	6852      	ldr	r2, [r2, #4]
    6e4a:	4313      	orrs	r3, r2
    6e4c:	464a      	mov	r2, r9
    6e4e:	6053      	str	r3, [r2, #4]
    6e50:	4640      	mov	r0, r8
    6e52:	f7ff f911 	bl	0x6078
    6e56:	46b1      	mov	r9, r6
    6e58:	4648      	mov	r0, r9
    6e5a:	b005      	add	sp, #20
    6e5c:	bc3c      	pop	{r2, r3, r4, r5}
    6e5e:	4690      	mov	r8, r2
    6e60:	4699      	mov	r9, r3
    6e62:	46a2      	mov	sl, r4
    6e64:	46ab      	mov	fp, r5
    6e66:	bcf0      	pop	{r4, r5, r6, r7}
    6e68:	bc02      	pop	{r1}
    6e6a:	4708      	bx	r1
    6e6c:	4219      	tst	r1, r3
    6e6e:	d1ab      	bne.n	0x6dc8
    6e70:	683b      	ldr	r3, [r7, #0]
    6e72:	1afb      	subs	r3, r7, r3
    6e74:	9302      	str	r3, [sp, #8]
    6e76:	685b      	ldr	r3, [r3, #4]
    6e78:	9303      	str	r3, [sp, #12]
    6e7a:	2303      	movs	r3, #3
    6e7c:	9a03      	ldr	r2, [sp, #12]
    6e7e:	439a      	bics	r2, r3
    6e80:	0013      	movs	r3, r2
    6e82:	e79b      	b.n	0x6dbc
    6e84:	0011      	movs	r1, r2
    6e86:	f7fe fc59 	bl	0x573c
    6e8a:	4681      	mov	r9, r0
    6e8c:	e7e4      	b.n	0x6e58
    6e8e:	4651      	mov	r1, sl
    6e90:	1909      	adds	r1, r1, r4
    6e92:	4314      	orrs	r4, r2
    6e94:	4652      	mov	r2, sl
    6e96:	6054      	str	r4, [r2, #4]
    6e98:	464a      	mov	r2, r9
    6e9a:	4318      	orrs	r0, r3
    6e9c:	6048      	str	r0, [r1, #4]
    6e9e:	6852      	ldr	r2, [r2, #4]
    6ea0:	4313      	orrs	r3, r2
    6ea2:	464a      	mov	r2, r9
    6ea4:	3108      	adds	r1, #8
    6ea6:	6053      	str	r3, [r2, #4]
    6ea8:	4640      	mov	r0, r8
    6eaa:	f7fe fb39 	bl	0x5520
    6eae:	e7cf      	b.n	0x6e50
    6eb0:	230c      	movs	r3, #12
    6eb2:	4642      	mov	r2, r8
    6eb4:	6013      	str	r3, [r2, #0]
    6eb6:	2300      	movs	r3, #0
    6eb8:	4699      	mov	r9, r3
    6eba:	e7cd      	b.n	0x6e58
    6ebc:	464b      	mov	r3, r9
    6ebe:	464a      	mov	r2, r9
    6ec0:	68db      	ldr	r3, [r3, #12]
    6ec2:	6892      	ldr	r2, [r2, #8]
    6ec4:	60d3      	str	r3, [r2, #12]
    6ec6:	609a      	str	r2, [r3, #8]
    6ec8:	9802      	ldr	r0, [sp, #8]
    6eca:	0001      	movs	r1, r0
    6ecc:	4684      	mov	ip, r0
    6ece:	0007      	movs	r7, r0
    6ed0:	3108      	adds	r1, #8
    6ed2:	c90c      	ldmia	r1!, {r2, r3}
    6ed4:	9903      	ldr	r1, [sp, #12]
    6ed6:	60d3      	str	r3, [r2, #12]
    6ed8:	4461      	add	r1, ip
    6eda:	609a      	str	r2, [r3, #8]
    6edc:	1f2a      	subs	r2, r5, #4
    6ede:	3708      	adds	r7, #8
    6ee0:	4689      	mov	r9, r1
    6ee2:	2a24      	cmp	r2, #36	; 0x24
    6ee4:	d873      	bhi.n	0x6fce
    6ee6:	6831      	ldr	r1, [r6, #0]
    6ee8:	003b      	movs	r3, r7
    6eea:	2a13      	cmp	r2, #19
    6eec:	d909      	bls.n	0x6f02
    6eee:	6081      	str	r1, [r0, #8]
    6ef0:	6873      	ldr	r3, [r6, #4]
    6ef2:	60c3      	str	r3, [r0, #12]
    6ef4:	2a1b      	cmp	r2, #27
    6ef6:	d900      	bls.n	0x6efa
    6ef8:	e08e      	b.n	0x7018
    6efa:	0003      	movs	r3, r0
    6efc:	68b1      	ldr	r1, [r6, #8]
    6efe:	3310      	adds	r3, #16
    6f00:	3608      	adds	r6, #8
    6f02:	6019      	str	r1, [r3, #0]
    6f04:	6872      	ldr	r2, [r6, #4]
    6f06:	605a      	str	r2, [r3, #4]
    6f08:	68b2      	ldr	r2, [r6, #8]
    6f0a:	609a      	str	r2, [r3, #8]
    6f0c:	9b02      	ldr	r3, [sp, #8]
    6f0e:	003e      	movs	r6, r7
    6f10:	9d03      	ldr	r5, [sp, #12]
    6f12:	469a      	mov	sl, r3
    6f14:	e78d      	b.n	0x6e32
    6f16:	2103      	movs	r1, #3
    6f18:	4388      	bics	r0, r1
    6f1a:	182a      	adds	r2, r5, r0
    6f1c:	4691      	mov	r9, r2
    6f1e:	2210      	movs	r2, #16
    6f20:	4694      	mov	ip, r2
    6f22:	44a4      	add	ip, r4
    6f24:	45e1      	cmp	r9, ip
    6f26:	da66      	bge.n	0x6ff6
    6f28:	07db      	lsls	r3, r3, #31
    6f2a:	d500      	bpl.n	0x6f2e
    6f2c:	e74c      	b.n	0x6dc8
    6f2e:	683b      	ldr	r3, [r7, #0]
    6f30:	1afb      	subs	r3, r7, r3
    6f32:	9302      	str	r3, [sp, #8]
    6f34:	685b      	ldr	r3, [r3, #4]
    6f36:	438b      	bics	r3, r1
    6f38:	1818      	adds	r0, r3, r0
    6f3a:	1942      	adds	r2, r0, r5
    6f3c:	9203      	str	r2, [sp, #12]
    6f3e:	4594      	cmp	ip, r2
    6f40:	dd00      	ble.n	0x6f44
    6f42:	e73b      	b.n	0x6dbc
    6f44:	9802      	ldr	r0, [sp, #8]
    6f46:	6882      	ldr	r2, [r0, #8]
    6f48:	68c3      	ldr	r3, [r0, #12]
    6f4a:	4684      	mov	ip, r0
    6f4c:	60d3      	str	r3, [r2, #12]
    6f4e:	609a      	str	r2, [r3, #8]
    6f50:	2208      	movs	r2, #8
    6f52:	4462      	add	r2, ip
    6f54:	4691      	mov	r9, r2
    6f56:	1f2a      	subs	r2, r5, #4
    6f58:	2a24      	cmp	r2, #36	; 0x24
    6f5a:	d87c      	bhi.n	0x7056
    6f5c:	6831      	ldr	r1, [r6, #0]
    6f5e:	464b      	mov	r3, r9
    6f60:	2a13      	cmp	r2, #19
    6f62:	d908      	bls.n	0x6f76
    6f64:	6081      	str	r1, [r0, #8]
    6f66:	6873      	ldr	r3, [r6, #4]
    6f68:	60c3      	str	r3, [r0, #12]
    6f6a:	2a1b      	cmp	r2, #27
    6f6c:	d878      	bhi.n	0x7060
    6f6e:	0003      	movs	r3, r0
    6f70:	68b1      	ldr	r1, [r6, #8]
    6f72:	3310      	adds	r3, #16
    6f74:	3608      	adds	r6, #8
    6f76:	6019      	str	r1, [r3, #0]
    6f78:	6872      	ldr	r2, [r6, #4]
    6f7a:	605a      	str	r2, [r3, #4]
    6f7c:	68b2      	ldr	r2, [r6, #8]
    6f7e:	609a      	str	r2, [r3, #8]
    6f80:	9802      	ldr	r0, [sp, #8]
    6f82:	4b42      	ldr	r3, [pc, #264]	; (0x708c)
    6f84:	1901      	adds	r1, r0, r4
    6f86:	6099      	str	r1, [r3, #8]
    6f88:	9b03      	ldr	r3, [sp, #12]
    6f8a:	1b1a      	subs	r2, r3, r4
    6f8c:	2301      	movs	r3, #1
    6f8e:	431a      	orrs	r2, r3
    6f90:	604a      	str	r2, [r1, #4]
    6f92:	6841      	ldr	r1, [r0, #4]
    6f94:	400b      	ands	r3, r1
    6f96:	431c      	orrs	r4, r3
    6f98:	6044      	str	r4, [r0, #4]
    6f9a:	4640      	mov	r0, r8
    6f9c:	9101      	str	r1, [sp, #4]
    6f9e:	f7ff f86b 	bl	0x6078
    6fa2:	e759      	b.n	0x6e58
    6fa4:	2203      	movs	r2, #3
    6fa6:	46b9      	mov	r9, r7
    6fa8:	685b      	ldr	r3, [r3, #4]
    6faa:	4393      	bics	r3, r2
    6fac:	18ed      	adds	r5, r5, r3
    6fae:	44a9      	add	r9, r5
    6fb0:	e73f      	b.n	0x6e32
    6fb2:	6001      	str	r1, [r0, #0]
    6fb4:	6871      	ldr	r1, [r6, #4]
    6fb6:	6041      	str	r1, [r0, #4]
    6fb8:	2a1b      	cmp	r2, #27
    6fba:	d811      	bhi.n	0x6fe0
    6fbc:	0032      	movs	r2, r6
    6fbe:	3308      	adds	r3, #8
    6fc0:	3208      	adds	r2, #8
    6fc2:	68b1      	ldr	r1, [r6, #8]
    6fc4:	e71a      	b.n	0x6dfc
    6fc6:	0031      	movs	r1, r6
    6fc8:	f7ff fe52 	bl	0x6c70
    6fcc:	e71b      	b.n	0x6e06
    6fce:	0031      	movs	r1, r6
    6fd0:	0038      	movs	r0, r7
    6fd2:	f7ff fe4d 	bl	0x6c70
    6fd6:	9b02      	ldr	r3, [sp, #8]
    6fd8:	003e      	movs	r6, r7
    6fda:	9d03      	ldr	r5, [sp, #12]
    6fdc:	469a      	mov	sl, r3
    6fde:	e728      	b.n	0x6e32
    6fe0:	68b1      	ldr	r1, [r6, #8]
    6fe2:	6081      	str	r1, [r0, #8]
    6fe4:	68f1      	ldr	r1, [r6, #12]
    6fe6:	60c1      	str	r1, [r0, #12]
    6fe8:	2a24      	cmp	r2, #36	; 0x24
    6fea:	d020      	beq.n	0x702e
    6fec:	0032      	movs	r2, r6
    6fee:	3310      	adds	r3, #16
    6ff0:	3210      	adds	r2, #16
    6ff2:	6931      	ldr	r1, [r6, #16]
    6ff4:	e702      	b.n	0x6dfc
    6ff6:	4b25      	ldr	r3, [pc, #148]	; (0x708c)
    6ff8:	1939      	adds	r1, r7, r4
    6ffa:	6099      	str	r1, [r3, #8]
    6ffc:	464b      	mov	r3, r9
    6ffe:	1b1a      	subs	r2, r3, r4
    7000:	2301      	movs	r3, #1
    7002:	431a      	orrs	r2, r3
    7004:	604a      	str	r2, [r1, #4]
    7006:	687a      	ldr	r2, [r7, #4]
    7008:	4013      	ands	r3, r2
    700a:	431c      	orrs	r4, r3
    700c:	607c      	str	r4, [r7, #4]
    700e:	4640      	mov	r0, r8
    7010:	f7ff f832 	bl	0x6078
    7014:	46b1      	mov	r9, r6
    7016:	e71f      	b.n	0x6e58
    7018:	68b1      	ldr	r1, [r6, #8]
    701a:	9b02      	ldr	r3, [sp, #8]
    701c:	6119      	str	r1, [r3, #16]
    701e:	68f1      	ldr	r1, [r6, #12]
    7020:	6159      	str	r1, [r3, #20]
    7022:	2a24      	cmp	r2, #36	; 0x24
    7024:	d00d      	beq.n	0x7042
    7026:	6931      	ldr	r1, [r6, #16]
    7028:	3318      	adds	r3, #24
    702a:	3610      	adds	r6, #16
    702c:	e769      	b.n	0x6f02
    702e:	6932      	ldr	r2, [r6, #16]
    7030:	0001      	movs	r1, r0
    7032:	6102      	str	r2, [r0, #16]
    7034:	0032      	movs	r2, r6
    7036:	6970      	ldr	r0, [r6, #20]
    7038:	6148      	str	r0, [r1, #20]
    703a:	3218      	adds	r2, #24
    703c:	3318      	adds	r3, #24
    703e:	69b1      	ldr	r1, [r6, #24]
    7040:	e6dc      	b.n	0x6dfc
    7042:	6933      	ldr	r3, [r6, #16]
    7044:	9a02      	ldr	r2, [sp, #8]
    7046:	6193      	str	r3, [r2, #24]
    7048:	0013      	movs	r3, r2
    704a:	6971      	ldr	r1, [r6, #20]
    704c:	61d1      	str	r1, [r2, #28]
    704e:	3320      	adds	r3, #32
    7050:	69b1      	ldr	r1, [r6, #24]
    7052:	3618      	adds	r6, #24
    7054:	e755      	b.n	0x6f02
    7056:	0031      	movs	r1, r6
    7058:	4648      	mov	r0, r9
    705a:	f7ff fe09 	bl	0x6c70
    705e:	e78f      	b.n	0x6f80
    7060:	68b1      	ldr	r1, [r6, #8]
    7062:	9b02      	ldr	r3, [sp, #8]
    7064:	6119      	str	r1, [r3, #16]
    7066:	68f1      	ldr	r1, [r6, #12]
    7068:	6159      	str	r1, [r3, #20]
    706a:	2a24      	cmp	r2, #36	; 0x24
    706c:	d003      	beq.n	0x7076
    706e:	6931      	ldr	r1, [r6, #16]
    7070:	3318      	adds	r3, #24
    7072:	3610      	adds	r6, #16
    7074:	e77f      	b.n	0x6f76
    7076:	6933      	ldr	r3, [r6, #16]
    7078:	9a02      	ldr	r2, [sp, #8]
    707a:	6193      	str	r3, [r2, #24]
    707c:	0013      	movs	r3, r2
    707e:	6971      	ldr	r1, [r6, #20]
    7080:	61d1      	str	r1, [r2, #28]
    7082:	3320      	adds	r3, #32
    7084:	69b1      	ldr	r1, [r6, #24]
    7086:	3618      	adds	r6, #24
    7088:	e775      	b.n	0x6f76
    708a:	46c0      	nop			; (mov r8, r8)
    708c:	0358      	lsls	r0, r3, #13
    708e:	0300      	lsls	r0, r0, #12
    7090:	4a10      	ldr	r2, [pc, #64]	; (0x70d4)
    7092:	b510      	push	{r4, lr}
    7094:	0004      	movs	r4, r0
    7096:	6810      	ldr	r0, [r2, #0]
    7098:	2800      	cmp	r0, #0
    709a:	d011      	beq.n	0x70c0
    709c:	4b0e      	ldr	r3, [pc, #56]	; (0x70d8)
    709e:	681b      	ldr	r3, [r3, #0]
    70a0:	2b00      	cmp	r3, #0
    70a2:	d00b      	beq.n	0x70bc
    70a4:	1841      	adds	r1, r0, r1
    70a6:	4299      	cmp	r1, r3
    70a8:	d803      	bhi.n	0x70b2
    70aa:	6011      	str	r1, [r2, #0]
    70ac:	bc10      	pop	{r4}
    70ae:	bc02      	pop	{r1}
    70b0:	4708      	bx	r1
    70b2:	230c      	movs	r3, #12
    70b4:	2001      	movs	r0, #1
    70b6:	6023      	str	r3, [r4, #0]
    70b8:	4240      	negs	r0, r0
    70ba:	e7f7      	b.n	0x70ac
    70bc:	466b      	mov	r3, sp
    70be:	e7f1      	b.n	0x70a4
    70c0:	4b06      	ldr	r3, [pc, #24]	; (0x70dc)
    70c2:	6818      	ldr	r0, [r3, #0]
    70c4:	2800      	cmp	r0, #0
    70c6:	d001      	beq.n	0x70cc
    70c8:	6010      	str	r0, [r2, #0]
    70ca:	e7e7      	b.n	0x709c
    70cc:	4804      	ldr	r0, [pc, #16]	; (0x70e0)
    70ce:	6010      	str	r0, [r2, #0]
    70d0:	e7e4      	b.n	0x709c
    70d2:	46c0      	nop			; (mov r8, r8)
    70d4:	0118      	lsls	r0, r3, #4
    70d6:	0300      	lsls	r0, r0, #12
    70d8:	011c      	lsls	r4, r3, #4
    70da:	0300      	lsls	r0, r0, #12
    70dc:	0120      	lsls	r0, r4, #4
    70de:	0300      	lsls	r0, r0, #12
    70e0:	0000      	movs	r0, r0
    70e2:	0200      	lsls	r0, r0, #8
    70e4:	4b04      	ldr	r3, [pc, #16]	; (0x70f8)
    70e6:	6a5b      	ldr	r3, [r3, #36]	; 0x24
    70e8:	b510      	push	{r4, lr}
    70ea:	2b00      	cmp	r3, #0
    70ec:	d001      	beq.n	0x70f2
    70ee:	f000 f805 	bl	0x70fc
    70f2:	bc10      	pop	{r4}
    70f4:	bc01      	pop	{r0}
    70f6:	4700      	bx	r0
    70f8:	0124      	lsls	r4, r4, #4
    70fa:	0300      	lsls	r0, r0, #12
    70fc:	4718      	bx	r3
    70fe:	46c0      	nop			; (mov r8, r8)
    7100:	4b04      	ldr	r3, [pc, #16]	; (0x7114)
    7102:	6adb      	ldr	r3, [r3, #44]	; 0x2c
    7104:	b510      	push	{r4, lr}
    7106:	2b00      	cmp	r3, #0
    7108:	d001      	beq.n	0x710e
    710a:	f000 f805 	bl	0x7118
    710e:	bc10      	pop	{r4}
    7110:	bc01      	pop	{r0}
    7112:	4700      	bx	r0
    7114:	0124      	lsls	r4, r4, #4
    7116:	0300      	lsls	r0, r0, #12
    7118:	4718      	bx	r3
    711a:	46c0      	nop			; (mov r8, r8)
    711c:	4b06      	ldr	r3, [pc, #24]	; (0x7138)
    711e:	6b5b      	ldr	r3, [r3, #52]	; 0x34
    7120:	b510      	push	{r4, lr}
    7122:	2b00      	cmp	r3, #0
    7124:	d004      	beq.n	0x7130
    7126:	f000 f80b 	bl	0x7140
    712a:	bc10      	pop	{r4}
    712c:	bc02      	pop	{r1}
    712e:	4708      	bx	r1
    7130:	4b02      	ldr	r3, [pc, #8]	; (0x713c)
    7132:	6818      	ldr	r0, [r3, #0]
    7134:	e7f9      	b.n	0x712a
    7136:	46c0      	nop			; (mov r8, r8)
    7138:	0124      	lsls	r4, r4, #4
    713a:	0300      	lsls	r0, r0, #12
    713c:	0774      	lsls	r4, r6, #29
    713e:	0300      	lsls	r0, r0, #12
    7140:	4718      	bx	r3
    7142:	46c0      	nop			; (mov r8, r8)
    7144:	b5f0      	push	{r4, r5, r6, r7, lr}
    7146:	4657      	mov	r7, sl
    7148:	464e      	mov	r6, r9
    714a:	4645      	mov	r5, r8
    714c:	46de      	mov	lr, fp
    714e:	b5e0      	push	{r5, r6, r7, lr}
    7150:	0004      	movs	r4, r0
    7152:	b083      	sub	sp, #12
    7154:	000d      	movs	r5, r1
    7156:	4692      	mov	sl, r2
    7158:	4699      	mov	r9, r3
    715a:	428b      	cmp	r3, r1
    715c:	d830      	bhi.n	0x71c0
    715e:	d02d      	beq.n	0x71bc
    7160:	4649      	mov	r1, r9
    7162:	4650      	mov	r0, sl
    7164:	f000 f8f4 	bl	0x7350
    7168:	0029      	movs	r1, r5
    716a:	0006      	movs	r6, r0
    716c:	0020      	movs	r0, r4
    716e:	f000 f8ef 	bl	0x7350
    7172:	1a33      	subs	r3, r6, r0
    7174:	4698      	mov	r8, r3
    7176:	3b20      	subs	r3, #32
    7178:	469b      	mov	fp, r3
    717a:	d435      	bmi.n	0x71e8
    717c:	465a      	mov	r2, fp
    717e:	4653      	mov	r3, sl
    7180:	4093      	lsls	r3, r2
    7182:	4642      	mov	r2, r8
    7184:	001f      	movs	r7, r3
    7186:	4653      	mov	r3, sl
    7188:	4093      	lsls	r3, r2
    718a:	001e      	movs	r6, r3
    718c:	42af      	cmp	r7, r5
    718e:	d83c      	bhi.n	0x720a
    7190:	42af      	cmp	r7, r5
    7192:	d100      	bne.n	0x7196
    7194:	e07d      	b.n	0x7292
    7196:	465b      	mov	r3, fp
    7198:	1ba4      	subs	r4, r4, r6
    719a:	41bd      	sbcs	r5, r7
    719c:	2b00      	cmp	r3, #0
    719e:	da00      	bge.n	0x71a2
    71a0:	e07a      	b.n	0x7298
    71a2:	2200      	movs	r2, #0
    71a4:	2300      	movs	r3, #0
    71a6:	9200      	str	r2, [sp, #0]
    71a8:	9301      	str	r3, [sp, #4]
    71aa:	2301      	movs	r3, #1
    71ac:	465a      	mov	r2, fp
    71ae:	4093      	lsls	r3, r2
    71b0:	9301      	str	r3, [sp, #4]
    71b2:	2301      	movs	r3, #1
    71b4:	4642      	mov	r2, r8
    71b6:	4093      	lsls	r3, r2
    71b8:	9300      	str	r3, [sp, #0]
    71ba:	e02a      	b.n	0x7212
    71bc:	4282      	cmp	r2, r0
    71be:	d9cf      	bls.n	0x7160
    71c0:	2200      	movs	r2, #0
    71c2:	2300      	movs	r3, #0
    71c4:	9200      	str	r2, [sp, #0]
    71c6:	9301      	str	r3, [sp, #4]
    71c8:	9b0c      	ldr	r3, [sp, #48]	; 0x30
    71ca:	2b00      	cmp	r3, #0
    71cc:	d001      	beq.n	0x71d2
    71ce:	601c      	str	r4, [r3, #0]
    71d0:	605d      	str	r5, [r3, #4]
    71d2:	9800      	ldr	r0, [sp, #0]
    71d4:	9901      	ldr	r1, [sp, #4]
    71d6:	b003      	add	sp, #12
    71d8:	bc3c      	pop	{r2, r3, r4, r5}
    71da:	4690      	mov	r8, r2
    71dc:	4699      	mov	r9, r3
    71de:	46a2      	mov	sl, r4
    71e0:	46ab      	mov	fp, r5
    71e2:	bcf0      	pop	{r4, r5, r6, r7}
    71e4:	bc04      	pop	{r2}
    71e6:	4710      	bx	r2
    71e8:	4642      	mov	r2, r8
    71ea:	2320      	movs	r3, #32
    71ec:	1a9b      	subs	r3, r3, r2
    71ee:	4652      	mov	r2, sl
    71f0:	40da      	lsrs	r2, r3
    71f2:	4641      	mov	r1, r8
    71f4:	0013      	movs	r3, r2
    71f6:	464a      	mov	r2, r9
    71f8:	408a      	lsls	r2, r1
    71fa:	0017      	movs	r7, r2
    71fc:	4642      	mov	r2, r8
    71fe:	431f      	orrs	r7, r3
    7200:	4653      	mov	r3, sl
    7202:	4093      	lsls	r3, r2
    7204:	001e      	movs	r6, r3
    7206:	42af      	cmp	r7, r5
    7208:	d9c2      	bls.n	0x7190
    720a:	2200      	movs	r2, #0
    720c:	2300      	movs	r3, #0
    720e:	9200      	str	r2, [sp, #0]
    7210:	9301      	str	r3, [sp, #4]
    7212:	4643      	mov	r3, r8
    7214:	2b00      	cmp	r3, #0
    7216:	d0d7      	beq.n	0x71c8
    7218:	07fb      	lsls	r3, r7, #31
    721a:	469c      	mov	ip, r3
    721c:	4661      	mov	r1, ip
    721e:	0872      	lsrs	r2, r6, #1
    7220:	430a      	orrs	r2, r1
    7222:	087b      	lsrs	r3, r7, #1
    7224:	4646      	mov	r6, r8
    7226:	e00e      	b.n	0x7246
    7228:	42ab      	cmp	r3, r5
    722a:	d101      	bne.n	0x7230
    722c:	42a2      	cmp	r2, r4
    722e:	d80c      	bhi.n	0x724a
    7230:	1aa4      	subs	r4, r4, r2
    7232:	419d      	sbcs	r5, r3
    7234:	2001      	movs	r0, #1
    7236:	1924      	adds	r4, r4, r4
    7238:	416d      	adcs	r5, r5
    723a:	2100      	movs	r1, #0
    723c:	3e01      	subs	r6, #1
    723e:	1824      	adds	r4, r4, r0
    7240:	414d      	adcs	r5, r1
    7242:	2e00      	cmp	r6, #0
    7244:	d006      	beq.n	0x7254
    7246:	42ab      	cmp	r3, r5
    7248:	d9ee      	bls.n	0x7228
    724a:	3e01      	subs	r6, #1
    724c:	1924      	adds	r4, r4, r4
    724e:	416d      	adcs	r5, r5
    7250:	2e00      	cmp	r6, #0
    7252:	d1f8      	bne.n	0x7246
    7254:	465b      	mov	r3, fp
    7256:	9800      	ldr	r0, [sp, #0]
    7258:	9901      	ldr	r1, [sp, #4]
    725a:	1900      	adds	r0, r0, r4
    725c:	4169      	adcs	r1, r5
    725e:	2b00      	cmp	r3, #0
    7260:	db25      	blt.n	0x72ae
    7262:	002b      	movs	r3, r5
    7264:	465a      	mov	r2, fp
    7266:	4644      	mov	r4, r8
    7268:	40d3      	lsrs	r3, r2
    726a:	002a      	movs	r2, r5
    726c:	40e2      	lsrs	r2, r4
    726e:	001c      	movs	r4, r3
    7270:	465b      	mov	r3, fp
    7272:	0015      	movs	r5, r2
    7274:	2b00      	cmp	r3, #0
    7276:	db2b      	blt.n	0x72d0
    7278:	0026      	movs	r6, r4
    727a:	465f      	mov	r7, fp
    727c:	40be      	lsls	r6, r7
    727e:	0033      	movs	r3, r6
    7280:	0026      	movs	r6, r4
    7282:	4647      	mov	r7, r8
    7284:	40be      	lsls	r6, r7
    7286:	0032      	movs	r2, r6
    7288:	1a80      	subs	r0, r0, r2
    728a:	4199      	sbcs	r1, r3
    728c:	9000      	str	r0, [sp, #0]
    728e:	9101      	str	r1, [sp, #4]
    7290:	e79a      	b.n	0x71c8
    7292:	42a3      	cmp	r3, r4
    7294:	d8b9      	bhi.n	0x720a
    7296:	e77e      	b.n	0x7196
    7298:	4642      	mov	r2, r8
    729a:	2320      	movs	r3, #32
    729c:	2100      	movs	r1, #0
    729e:	1a9b      	subs	r3, r3, r2
    72a0:	2200      	movs	r2, #0
    72a2:	9100      	str	r1, [sp, #0]
    72a4:	9201      	str	r2, [sp, #4]
    72a6:	2201      	movs	r2, #1
    72a8:	40da      	lsrs	r2, r3
    72aa:	9201      	str	r2, [sp, #4]
    72ac:	e781      	b.n	0x71b2
    72ae:	4642      	mov	r2, r8
    72b0:	2320      	movs	r3, #32
    72b2:	1a9b      	subs	r3, r3, r2
    72b4:	002a      	movs	r2, r5
    72b6:	4646      	mov	r6, r8
    72b8:	409a      	lsls	r2, r3
    72ba:	0023      	movs	r3, r4
    72bc:	40f3      	lsrs	r3, r6
    72be:	4644      	mov	r4, r8
    72c0:	4313      	orrs	r3, r2
    72c2:	002a      	movs	r2, r5
    72c4:	40e2      	lsrs	r2, r4
    72c6:	001c      	movs	r4, r3
    72c8:	465b      	mov	r3, fp
    72ca:	0015      	movs	r5, r2
    72cc:	2b00      	cmp	r3, #0
    72ce:	dad3      	bge.n	0x7278
    72d0:	2320      	movs	r3, #32
    72d2:	4642      	mov	r2, r8
    72d4:	0026      	movs	r6, r4
    72d6:	1a9b      	subs	r3, r3, r2
    72d8:	40de      	lsrs	r6, r3
    72da:	002f      	movs	r7, r5
    72dc:	46b4      	mov	ip, r6
    72de:	4646      	mov	r6, r8
    72e0:	40b7      	lsls	r7, r6
    72e2:	4666      	mov	r6, ip
    72e4:	003b      	movs	r3, r7
    72e6:	4333      	orrs	r3, r6
    72e8:	e7ca      	b.n	0x7280
    72ea:	46c0      	nop			; (mov r8, r8)
    72ec:	ffff ffff 			; <UNDEFINED> instruction: 0xffffffff
    72f0:	c000      	stmia	r0!, {}
    72f2:	e59f      	b.n	0x6e34
    72f4:	ff1c e12f 	vrhadd.u16	d14, d12, d31
    72f8:	7145      	strb	r5, [r0, #5]
    72fa:	0800      	lsrs	r0, r0, #32
    72fc:	4778      	bx	pc
    72fe:	46c0      	nop			; (mov r8, r8)
    7300:	e8f5 eaff 	ldrd	lr, sl, [r5], #1020	; 0x3fc
    7304:	4778      	bx	pc
    7306:	46c0      	nop			; (mov r8, r8)
    7308:	e680      	b.n	0x700c
    730a:	eaff 4778 			; <UNDEFINED> instruction: 0xeaff4778
    730e:	46c0      	nop			; (mov r8, r8)
    7310:	e922 eaff 	stmdb	r2!, {r0, r1, r2, r3, r4, r5, r6, r7, r9, fp, sp, lr, pc}
    7314:	4778      	bx	pc
    7316:	46c0      	nop			; (mov r8, r8)
    7318:	e909 eaff 	stmdb	r9, {r0, r1, r2, r3, r4, r5, r6, r7, r9, fp, sp, lr, pc}
    731c:	4778      	bx	pc
    731e:	46c0      	nop			; (mov r8, r8)
    7320:	e8e1 eaff 	strd	lr, sl, [r1], #1020	; 0x3fc
    7324:	c000      	stmia	r0!, {}
    7326:	e59f      	b.n	0x6e68
    7328:	ff1c e12f 	vrhadd.u16	d14, d12, d31
    732c:	0ab9      	lsrs	r1, r7, #10
    732e:	0800      	lsrs	r0, r0, #32
    7330:	4778      	bx	pc
    7332:	46c0      	nop			; (mov r8, r8)
    7334:	e8d6 eaff 	ldaexd	lr, sl, [r6]
    7338:	4778      	bx	pc
    733a:	46c0      	nop			; (mov r8, r8)
    733c:	e5d5      	b.n	0x6eea
    733e:	eaff 4778 			; <UNDEFINED> instruction: 0xeaff4778
    7342:	46c0      	nop			; (mov r8, r8)
    7344:	e672      	b.n	0x702c
    7346:	eaff 4778 			; <UNDEFINED> instruction: 0xeaff4778
    734a:	46c0      	nop			; (mov r8, r8)
    734c:	e8e8 eaff 	strd	lr, sl, [r8], #1020	; 0x3fc
    7350:	4778      	bx	pc
    7352:	46c0      	nop			; (mov r8, r8)
    7354:	e920 eaff 	stmdb	r0!, {r0, r1, r2, r3, r4, r5, r6, r7, r9, fp, sp, lr, pc}
    7358:	4778      	bx	pc
    735a:	46c0      	nop			; (mov r8, r8)
    735c:	e730      	b.n	0x71c0
    735e:	eaff 4778 			; <UNDEFINED> instruction: 0xeaff4778
    7362:	46c0      	nop			; (mov r8, r8)
    7364:	e737      	b.n	0x71d6
    7366:	eaff 4778 			; <UNDEFINED> instruction: 0xeaff4778
    736a:	46c0      	nop			; (mov r8, r8)
    736c:	e8d4 eaff 	ldaexd	lr, sl, [r4]
    7370:	4778      	bx	pc
    7372:	46c0      	nop			; (mov r8, r8)
    7374:	e5d0      	b.n	0x6f18
    7376:	eaff 4778 			; <UNDEFINED> instruction: 0xeaff4778
    737a:	46c0      	nop			; (mov r8, r8)
    737c:	e579      	b.n	0x6e72
    737e:	eaff c000 			; <UNDEFINED> instruction: 0xeaffc000
    7382:	e59f      	b.n	0x6ec4
    7384:	ff1c e12f 	vrhadd.u16	d14, d12, d31
    7388:	0ab9      	lsrs	r1, r7, #10
    738a:	0800      	lsrs	r0, r0, #32
    738c:	4778      	bx	pc
    738e:	46c0      	nop			; (mov r8, r8)
    7390:	e56c      	b.n	0x6e6c
    7392:	eaff 4778 			; <UNDEFINED> instruction: 0xeaff4778
    7396:	46c0      	nop			; (mov r8, r8)
    7398:	e8db eaff 	ldaexd	lr, sl, [fp]
    739c:	4778      	bx	pc
    739e:	46c0      	nop			; (mov r8, r8)
    73a0:	e761      	b.n	0x7266
    73a2:	eaff 4778 			; <UNDEFINED> instruction: 0xeaff4778
    73a6:	46c0      	nop			; (mov r8, r8)
    73a8:	e527      	b.n	0x6dfa
    73aa:	eaff 4778 			; <UNDEFINED> instruction: 0xeaff4778
    73ae:	46c0      	nop			; (mov r8, r8)
    73b0:	e801 eaff 			; <UNDEFINED> instruction: 0xe801eaff
	...
    73c0:	b5f8      	push	{r3, r4, r5, r6, r7, lr}
    73c2:	46c0      	nop			; (mov r8, r8)
    73c4:	bcf8      	pop	{r3, r4, r5, r6, r7}
    73c6:	bc08      	pop	{r3}
    73c8:	469e      	mov	lr, r3
    73ca:	4770      	bx	lr
    73cc:	0000      	movs	r0, r0
    73ce:	0000      	movs	r0, r0
    73d0:	6948      	ldr	r0, [r1, #20]
    73d2:	2074      	movs	r0, #116	; 0x74
    73d4:	6142      	str	r2, [r0, #20]
    73d6:	2064      	movs	r0, #100	; 0x64
    73d8:	7254      	strb	r4, [r2, #9]
    73da:	7061      	strb	r1, [r4, #1]
    73dc:	000a      	movs	r2, r1
    73de:	0000      	movs	r0, r0
    73e0:	6948      	ldr	r0, [r1, #20]
    73e2:	2074      	movs	r0, #116	; 0x74
    73e4:	6f47      	ldr	r7, [r0, #116]	; 0x74
    73e6:	646f      	str	r7, [r5, #68]	; 0x44
    73e8:	5420      	strb	r0, [r4, r0]
    73ea:	6172      	str	r2, [r6, #20]
    73ec:	0a70      	lsrs	r0, r6, #9
    73ee:	0000      	movs	r0, r0
    73f0:	6548      	str	r0, [r1, #84]	; 0x54
    73f2:	6c6c      	ldr	r4, [r5, #68]	; 0x44
    73f4:	206f      	movs	r0, #111	; 0x6f
    73f6:	6f77      	ldr	r7, [r6, #116]	; 0x74
    73f8:	6c72      	ldr	r2, [r6, #68]	; 0x44
    73fa:	2164      	movs	r1, #100	; 0x64
    73fc:	000a      	movs	r2, r1
    73fe:	0000      	movs	r0, r0
    7400:	6425      	str	r5, [r4, #64]	; 0x40
    7402:	2b20      	cmp	r3, #32
    7404:	2520      	movs	r5, #32
    7406:	2064      	movs	r0, #100	; 0x64
    7408:	203d      	movs	r0, #61	; 0x3d
    740a:	6425      	str	r5, [r4, #64]	; 0x40
    740c:	000a      	movs	r2, r1
    740e:	0000      	movs	r0, r0
    7410:	2031      	movs	r0, #49	; 0x31
    7412:	202b      	movs	r0, #43	; 0x2b
    7414:	2031      	movs	r0, #49	; 0x31
    7416:	203d      	movs	r0, #61	; 0x3d
    7418:	0a32      	lsrs	r2, r6, #8
    741a:	0000      	movs	r0, r0
    741c:	2032      	movs	r0, #50	; 0x32
    741e:	202b      	movs	r0, #43	; 0x2b
    7420:	3031      	adds	r0, #49	; 0x31
    7422:	3d20      	subs	r5, #32
    7424:	3120      	adds	r1, #32
    7426:	0a32      	lsrs	r2, r6, #8
    7428:	4900      	ldr	r1, [pc, #0]	; (0x742c)
    742a:	464e      	mov	r6, r9
    742c:	6900      	ldr	r0, [r0, #16]
    742e:	666e      	str	r6, [r5, #100]	; 0x64
    7430:	4e00      	ldr	r6, [pc, #0]	; (0x7434)
    7432:	4e41      	ldr	r6, [pc, #260]	; (0x7538)
    7434:	6e00      	ldr	r0, [r0, #96]	; 0x60
    7436:	6e61      	ldr	r1, [r4, #100]	; 0x64
    7438:	3000      	adds	r0, #0
    743a:	3231      	adds	r2, #49	; 0x31
    743c:	3433      	adds	r4, #51	; 0x33
    743e:	3635      	adds	r6, #53	; 0x35
    7440:	3837      	subs	r0, #55	; 0x37
    7442:	6139      	str	r1, [r7, #16]
    7444:	6362      	str	r2, [r4, #52]	; 0x34
    7446:	6564      	str	r4, [r4, #84]	; 0x54
    7448:	0066      	lsls	r6, r4, #1
    744a:	3130      	adds	r1, #48	; 0x30
    744c:	3332      	adds	r3, #50	; 0x32
    744e:	3534      	adds	r5, #52	; 0x34
    7450:	3736      	adds	r7, #54	; 0x36
    7452:	3938      	subs	r1, #56	; 0x38
    7454:	4241      	negs	r1, r0
    7456:	4443      	add	r3, r8
    7458:	4645      	mov	r5, r8
    745a:	2800      	cmp	r0, #0
    745c:	756e      	strb	r6, [r5, #21]
    745e:	6c6c      	ldr	r4, [r5, #68]	; 0x44
    7460:	0029      	movs	r1, r5
    7462:	0030      	movs	r0, r6
    7464:	2020      	movs	r0, #32
    7466:	2020      	movs	r0, #32
    7468:	2020      	movs	r0, #32
    746a:	2020      	movs	r0, #32
    746c:	2020      	movs	r0, #32
    746e:	2020      	movs	r0, #32
    7470:	2020      	movs	r0, #32
    7472:	2020      	movs	r0, #32
    7474:	3030      	adds	r0, #48	; 0x30
    7476:	3030      	adds	r0, #48	; 0x30
    7478:	3030      	adds	r0, #48	; 0x30
    747a:	3030      	adds	r0, #48	; 0x30
    747c:	3030      	adds	r0, #48	; 0x30
    747e:	3030      	adds	r0, #48	; 0x30
    7480:	3030      	adds	r0, #48	; 0x30
    7482:	3030      	adds	r0, #48	; 0x30
    7484:	614e      	str	r6, [r1, #20]
    7486:	004e      	lsls	r6, r1, #1
    7488:	6e49      	ldr	r1, [r1, #100]	; 0x64
    748a:	6966      	ldr	r6, [r4, #20]
    748c:	696e      	ldr	r6, [r5, #20]
    748e:	7974      	ldrb	r4, [r6, #5]
    7490:	0000      	movs	r0, r0
    7492:	0000      	movs	r0, r0
    7494:	0030      	movs	r0, r6
    7496:	ffff 002e 	vaddl.u<illegal width 64>	q8, d15, d30
    749a:	0000      	movs	r0, r0
    749c:	434c      	muls	r4, r1
    749e:	435f      	muls	r7, r3
    74a0:	4c4f      	ldr	r4, [pc, #316]	; (0x75e0)
    74a2:	414c      	adcs	r4, r1
    74a4:	4554      	cmp	r4, sl
    74a6:	0000      	movs	r0, r0
    74a8:	434c      	muls	r4, r1
    74aa:	435f      	muls	r7, r3
    74ac:	5954      	ldr	r4, [r2, r5]
    74ae:	4550      	cmp	r0, sl
    74b0:	0000      	movs	r0, r0
    74b2:	0000      	movs	r0, r0
    74b4:	434c      	muls	r4, r1
    74b6:	4d5f      	ldr	r5, [pc, #380]	; (0x7634)
    74b8:	4e4f      	ldr	r6, [pc, #316]	; (0x75f8)
    74ba:	5445      	strb	r5, [r0, r1]
    74bc:	5241      	strh	r1, [r0, r1]
    74be:	0059      	lsls	r1, r3, #1
    74c0:	434c      	muls	r4, r1
    74c2:	4e5f      	ldr	r6, [pc, #380]	; (0x7640)
    74c4:	4d55      	ldr	r5, [pc, #340]	; (0x761c)
    74c6:	5245      	strh	r5, [r0, r1]
    74c8:	4349      	muls	r1, r1
    74ca:	0000      	movs	r0, r0
    74cc:	434c      	muls	r4, r1
    74ce:	545f      	strb	r7, [r3, r1]
    74d0:	4d49      	ldr	r5, [pc, #292]	; (0x75f8)
    74d2:	0045      	lsls	r5, r0, #1
    74d4:	434c      	muls	r4, r1
    74d6:	4d5f      	ldr	r5, [pc, #380]	; (0x7654)
    74d8:	5345      	strh	r5, [r0, r5]
    74da:	4153      	adcs	r3, r2
    74dc:	4547      	cmp	r7, r8
    74de:	0053      	lsls	r3, r2, #1
    74e0:	8000      	strh	r0, [r0, #0]
    74e2:	37e0      	adds	r7, #224	; 0xe0
    74e4:	c379      	stmia	r3!, {r0, r3, r4, r5, r6}
    74e6:	4341      	muls	r1, r0
    74e8:	6e17      	ldr	r7, [r2, #96]	; 0x60
    74ea:	b505      	push	{r0, r2, lr}
    74ec:	b8b5      			; <UNDEFINED> instruction: 0xb8b5
    74ee:	4693      	mov	fp, r2
    74f0:	f9f5 e93f 	ldr??.w	lr, [r5, #2367]	; 0x93f
    74f4:	4f03      	ldr	r7, [pc, #12]	; (0x7504)
    74f6:	4d38      	ldr	r5, [pc, #224]	; (0x75d8)
    74f8:	1d32      	adds	r2, r6, #4
    74fa:	f930 7748 	ldrsh.w	r7, [r0, <undefined>]
    74fe:	5a82      	ldrh	r2, [r0, r2]
    7500:	bf3c      	itt	cc
    7502:	7f73      	ldrbcc	r3, [r6, #29]
    7504:	4fdd      	ldrcc	r7, [pc, #884]	; (0x787c)
    7506:	7515      	strb	r5, [r2, #20]
    7508:	0000      	movs	r0, r0
    750a:	0000      	movs	r0, r0
    750c:	0000      	movs	r0, r0
    750e:	3ff0      	subs	r7, #240	; 0xf0
    7510:	0000      	movs	r0, r0
    7512:	0000      	movs	r0, r0
    7514:	0000      	movs	r0, r0
    7516:	4024      	ands	r4, r4
    7518:	0000      	movs	r0, r0
    751a:	0000      	movs	r0, r0
    751c:	0000      	movs	r0, r0
    751e:	4059      	eors	r1, r3
    7520:	0000      	movs	r0, r0
    7522:	0000      	movs	r0, r0
    7524:	4000      	ands	r0, r0
    7526:	408f      	lsls	r7, r1
    7528:	0000      	movs	r0, r0
    752a:	0000      	movs	r0, r0
    752c:	8800      	ldrh	r0, [r0, #0]
    752e:	40c3      	lsrs	r3, r0
    7530:	0000      	movs	r0, r0
    7532:	0000      	movs	r0, r0
    7534:	6a00      	ldr	r0, [r0, #32]
    7536:	40f8      	lsrs	r0, r7
    7538:	0000      	movs	r0, r0
    753a:	0000      	movs	r0, r0
    753c:	8480      	strh	r0, [r0, #36]	; 0x24
    753e:	412e      	asrs	r6, r5
    7540:	0000      	movs	r0, r0
    7542:	0000      	movs	r0, r0
    7544:	12d0      	asrs	r0, r2, #11
    7546:	4163      	adcs	r3, r4
    7548:	0000      	movs	r0, r0
    754a:	0000      	movs	r0, r0
    754c:	d784      	bvc.n	0x7458
    754e:	4197      	sbcs	r7, r2
    7550:	0000      	movs	r0, r0
    7552:	0000      	movs	r0, r0
    7554:	cd65      	ldmia	r5, {r0, r2, r5, r6}
    7556:	41cd      	rors	r5, r1
    7558:	0000      	movs	r0, r0
    755a:	2000      	movs	r0, #0
    755c:	a05f      	add	r0, pc, #380	; (adr r0, 0x76dc)
    755e:	4202      	tst	r2, r0
    7560:	0000      	movs	r0, r0
    7562:	e800 4876 			; <UNDEFINED> instruction: 0xe8004876
    7566:	4237      	tst	r7, r6
    7568:	0000      	movs	r0, r0
    756a:	a200      	add	r2, pc, #0	; (adr r2, 0x756c)
    756c:	1a94      	subs	r4, r2, r2
    756e:	426d      	negs	r5, r5
    7570:	0000      	movs	r0, r0
    7572:	e540      	b.n	0x6ff6
    7574:	309c      	adds	r0, #156	; 0x9c
    7576:	42a2      	cmp	r2, r4
    7578:	0000      	movs	r0, r0
    757a:	1e90      	subs	r0, r2, #2
    757c:	bcc4      	pop	{r2, r6, r7}
    757e:	42d6      	cmn	r6, r2
    7580:	0000      	movs	r0, r0
    7582:	2634      	movs	r6, #52	; 0x34
    7584:	6bf5      	ldr	r5, [r6, #60]	; 0x3c
    7586:	430c      	orrs	r4, r1
    7588:	8000      	strh	r0, [r0, #0]
    758a:	37e0      	adds	r7, #224	; 0xe0
    758c:	c379      	stmia	r3!, {r0, r3, r4, r5, r6}
    758e:	4341      	muls	r1, r0
    7590:	a000      	add	r0, pc, #0	; (adr r0, 0x7594)
    7592:	85d8      	strh	r0, [r3, #46]	; 0x2e
    7594:	3457      	adds	r4, #87	; 0x57
    7596:	4376      	muls	r6, r6
    7598:	c800      	ldmia	r0!, {}
    759a:	674e      	str	r6, [r1, #116]	; 0x74
    759c:	c16d      	stmia	r1!, {r0, r2, r3, r5, r6}
    759e:	43ab      	bics	r3, r5
    75a0:	3d00      	subs	r5, #0
    75a2:	6091      	str	r1, [r2, #8]
    75a4:	58e4      	ldr	r4, [r4, r3]
    75a6:	43e1      	mvns	r1, r4
    75a8:	8c40      	ldrh	r0, [r0, #34]	; 0x22
    75aa:	78b5      	ldrb	r5, [r6, #2]
    75ac:	af1d      	add	r7, sp, #116	; 0x74
    75ae:	4415      	add	r5, r2
    75b0:	ef50 d6e2 	vmax.s16	<illegal reg q14.5>, q8, q9
    75b4:	1ae4      	subs	r4, r4, r3
    75b6:	444b      	add	r3, r9
    75b8:	d592      	bpl.n	0x74e0
    75ba:	064d      	lsls	r5, r1, #25
    75bc:	f0cf 4480 			; <UNDEFINED> instruction: 0xf0cf4480
    75c0:	4af6      	ldr	r2, [pc, #984]	; (0x799c)
    75c2:	c7e1      	stmia	r7!, {r0, r5, r6, r7}
    75c4:	2d02      	cmp	r5, #2
    75c6:	44b5      	add	sp, r6
    75c8:	9db4      	ldr	r5, [sp, #720]	; 0x2d0
    75ca:	79d9      	ldrb	r1, [r3, #7]
    75cc:	7843      	ldrb	r3, [r0, #1]
    75ce:	44ea      	add	sl, sp
    75d0:	0005      	movs	r5, r0
    75d2:	0000      	movs	r0, r0
    75d4:	0019      	movs	r1, r3
    75d6:	0000      	movs	r0, r0
    75d8:	007d      	lsls	r5, r7, #1
    75da:	0000      	movs	r0, r0
    75dc:	0100      	lsls	r0, r0, #4
    75de:	0300      	lsls	r0, r0, #12
    75e0:	0004      	movs	r4, r0
    75e2:	0000      	movs	r0, r0
    75e4:	0000      	movs	r0, r0
    75e6:	0001      	movs	r1, r0
    75e8:	0403      	lsls	r3, r0, #16
    75ea:	0000      	movs	r0, r0
    75ec:	0000      	movs	r0, r0
    75ee:	0000      	movs	r0, r0
    75f0:	0307      	lsls	r7, r0, #12
    75f2:	0004      	movs	r4, r0
    75f4:	0000      	movs	r0, r0
    75f6:	0000      	movs	r0, r0
    75f8:	0000      	movs	r0, r0
    75fa:	0403      	lsls	r3, r0, #16
	...
    7604:	0004      	movs	r4, r0
    7606:	0000      	movs	r0, r0
    7608:	0000      	movs	r0, r0
    760a:	0002      	movs	r2, r0
    760c:	0403      	lsls	r3, r0, #16
    760e:	0000      	movs	r0, r0
    7610:	0000      	movs	r0, r0
    7612:	0100      	lsls	r0, r0, #4
    7614:	0500      	lsls	r0, r0, #20
    7616:	0506      	lsls	r6, r0, #20
    7618:	0000      	movs	r0, r0
    761a:	0000      	movs	r0, r0
    761c:	0001      	movs	r1, r0
    761e:	0605      	lsls	r5, r0, #24
    7620:	0000      	movs	r0, r0
    7622:	0000      	movs	r0, r0
    7624:	0000      	movs	r0, r0
    7626:	0300      	lsls	r0, r0, #12
    7628:	0004      	movs	r4, r0
    762a:	0000      	movs	r0, r0
    762c:	0000      	movs	r0, r0
    762e:	0800      	lsrs	r0, r0, #32
	...
    7638:	0008      	movs	r0, r1
	...
    7646:	0000      	movs	r0, r0
    7648:	0808      	lsrs	r0, r1, #32
    764a:	0808      	lsrs	r0, r1, #32
    764c:	0808      	lsrs	r0, r1, #32
    764e:	0808      	lsrs	r0, r1, #32
    7650:	0808      	lsrs	r0, r1, #32
    7652:	0808      	lsrs	r0, r1, #32
    7654:	0808      	lsrs	r0, r1, #32
    7656:	0808      	lsrs	r0, r1, #32
    7658:	0808      	lsrs	r0, r1, #32
    765a:	0808      	lsrs	r0, r1, #32
    765c:	0808      	lsrs	r0, r1, #32
    765e:	0808      	lsrs	r0, r1, #32
    7660:	0808      	lsrs	r0, r1, #32
    7662:	0808      	lsrs	r0, r1, #32
    7664:	0808      	lsrs	r0, r1, #32
    7666:	0808      	lsrs	r0, r1, #32
    7668:	0807      	lsrs	r7, r0, #32
    766a:	0708      	lsls	r0, r1, #28
    766c:	0802      	lsrs	r2, r0, #32
    766e:	0708      	lsls	r0, r1, #28
    7670:	0808      	lsrs	r0, r1, #32
    7672:	0706      	lsls	r6, r0, #28
    7674:	0708      	lsls	r0, r1, #28
    7676:	0805      	lsrs	r5, r0, #32
    7678:	0100      	lsls	r0, r0, #4
    767a:	0101      	lsls	r1, r0, #4
    767c:	0101      	lsls	r1, r0, #4
    767e:	0101      	lsls	r1, r0, #4
    7680:	0101      	lsls	r1, r0, #4
    7682:	0808      	lsrs	r0, r1, #32
    7684:	0808      	lsrs	r0, r1, #32
    7686:	0808      	lsrs	r0, r1, #32
    7688:	0408      	lsls	r0, r1, #16
    768a:	0408      	lsls	r0, r1, #16
    768c:	0404      	lsls	r4, r0, #16
    768e:	0404      	lsls	r4, r0, #16
    7690:	0808      	lsrs	r0, r1, #32
    7692:	0808      	lsrs	r0, r1, #32
    7694:	0803      	lsrs	r3, r0, #32
    7696:	0408      	lsls	r0, r1, #16
    7698:	0808      	lsrs	r0, r1, #32
    769a:	0408      	lsls	r0, r1, #16
    769c:	0408      	lsls	r0, r1, #16
    769e:	0808      	lsrs	r0, r1, #32
    76a0:	0804      	lsrs	r4, r0, #32
    76a2:	0808      	lsrs	r0, r1, #32
    76a4:	0808      	lsrs	r0, r1, #32
    76a6:	0808      	lsrs	r0, r1, #32
    76a8:	0408      	lsls	r0, r1, #16
    76aa:	0408      	lsls	r0, r1, #16
    76ac:	0404      	lsls	r4, r0, #16
    76ae:	0404      	lsls	r4, r0, #16
    76b0:	0403      	lsls	r3, r0, #16
    76b2:	0803      	lsrs	r3, r0, #32
    76b4:	0803      	lsrs	r3, r0, #32
    76b6:	0404      	lsls	r4, r0, #16
    76b8:	0304      	lsls	r4, r0, #12
    76ba:	0408      	lsls	r0, r1, #16
    76bc:	0403      	lsls	r3, r0, #16
    76be:	0808      	lsrs	r0, r1, #32
    76c0:	0804      	lsrs	r4, r0, #32
    76c2:	0803      	lsrs	r3, r0, #32
    76c4:	0808      	lsrs	r0, r1, #32
    76c6:	0808      	lsrs	r0, r1, #32
    76c8:	0808      	lsrs	r0, r1, #32
    76ca:	0808      	lsrs	r0, r1, #32
    76cc:	0808      	lsrs	r0, r1, #32
    76ce:	0808      	lsrs	r0, r1, #32
    76d0:	0808      	lsrs	r0, r1, #32
    76d2:	0808      	lsrs	r0, r1, #32
    76d4:	0808      	lsrs	r0, r1, #32
    76d6:	0808      	lsrs	r0, r1, #32
    76d8:	0808      	lsrs	r0, r1, #32
    76da:	0808      	lsrs	r0, r1, #32
    76dc:	0808      	lsrs	r0, r1, #32
    76de:	0808      	lsrs	r0, r1, #32
    76e0:	0808      	lsrs	r0, r1, #32
    76e2:	0808      	lsrs	r0, r1, #32
    76e4:	0808      	lsrs	r0, r1, #32
    76e6:	0808      	lsrs	r0, r1, #32
    76e8:	0808      	lsrs	r0, r1, #32
    76ea:	0808      	lsrs	r0, r1, #32
    76ec:	0808      	lsrs	r0, r1, #32
    76ee:	0808      	lsrs	r0, r1, #32
    76f0:	0808      	lsrs	r0, r1, #32
    76f2:	0808      	lsrs	r0, r1, #32
    76f4:	0808      	lsrs	r0, r1, #32
    76f6:	0808      	lsrs	r0, r1, #32
    76f8:	0808      	lsrs	r0, r1, #32
    76fa:	0808      	lsrs	r0, r1, #32
    76fc:	0808      	lsrs	r0, r1, #32
    76fe:	0808      	lsrs	r0, r1, #32
    7700:	0808      	lsrs	r0, r1, #32
    7702:	0808      	lsrs	r0, r1, #32
    7704:	0808      	lsrs	r0, r1, #32
    7706:	0808      	lsrs	r0, r1, #32
    7708:	0808      	lsrs	r0, r1, #32
    770a:	0808      	lsrs	r0, r1, #32
    770c:	0808      	lsrs	r0, r1, #32
    770e:	0808      	lsrs	r0, r1, #32
    7710:	0808      	lsrs	r0, r1, #32
    7712:	0808      	lsrs	r0, r1, #32
    7714:	0808      	lsrs	r0, r1, #32
    7716:	0808      	lsrs	r0, r1, #32
    7718:	0808      	lsrs	r0, r1, #32
    771a:	0808      	lsrs	r0, r1, #32
    771c:	0808      	lsrs	r0, r1, #32
    771e:	0808      	lsrs	r0, r1, #32
    7720:	0808      	lsrs	r0, r1, #32
    7722:	0808      	lsrs	r0, r1, #32
    7724:	0808      	lsrs	r0, r1, #32
    7726:	0808      	lsrs	r0, r1, #32
    7728:	0808      	lsrs	r0, r1, #32
    772a:	0808      	lsrs	r0, r1, #32
    772c:	0808      	lsrs	r0, r1, #32
    772e:	0808      	lsrs	r0, r1, #32
    7730:	0808      	lsrs	r0, r1, #32
    7732:	0808      	lsrs	r0, r1, #32
    7734:	0808      	lsrs	r0, r1, #32
    7736:	0808      	lsrs	r0, r1, #32
    7738:	0808      	lsrs	r0, r1, #32
    773a:	0808      	lsrs	r0, r1, #32
    773c:	0808      	lsrs	r0, r1, #32
    773e:	0808      	lsrs	r0, r1, #32
    7740:	0808      	lsrs	r0, r1, #32
    7742:	0808      	lsrs	r0, r1, #32
    7744:	0808      	lsrs	r0, r1, #32
    7746:	0808      	lsrs	r0, r1, #32
    7748:	0201      	lsls	r1, r0, #8
    774a:	040b      	lsls	r3, r1, #16
    774c:	050b      	lsls	r3, r1, #20
    774e:	0106      	lsls	r6, r0, #4
    7750:	010b      	lsls	r3, r1, #4
    7752:	0b02      	lsrs	r2, r0, #12
    7754:	0b04      	lsrs	r4, r0, #12
    7756:	0605      	lsls	r5, r0, #24
    7758:	0b01      	lsrs	r1, r0, #12
    775a:	0b0b      	lsrs	r3, r1, #12
    775c:	0403      	lsls	r3, r0, #16
    775e:	050b      	lsls	r3, r1, #20
    7760:	0b0b      	lsrs	r3, r1, #12
    7762:	0b0b      	lsrs	r3, r1, #12
    7764:	0b0b      	lsrs	r3, r1, #12
    7766:	0b04      	lsrs	r4, r0, #12
    7768:	0b05      	lsrs	r5, r0, #12
    776a:	0b0b      	lsrs	r3, r1, #12
    776c:	0b0b      	lsrs	r3, r1, #12
    776e:	0b0b      	lsrs	r3, r1, #12
    7770:	0b0b      	lsrs	r3, r1, #12
    7772:	0b0b      	lsrs	r3, r1, #12
    7774:	050b      	lsls	r3, r1, #20
    7776:	0b08      	lsrs	r0, r1, #12
    7778:	0b04      	lsrs	r4, r0, #12
    777a:	070b      	lsls	r3, r1, #28
    777c:	0b0b      	lsrs	r3, r1, #12
    777e:	090b      	lsrs	r3, r1, #4
    7780:	040b      	lsls	r3, r1, #16
    7782:	050b      	lsls	r3, r1, #20
    7784:	0b0b      	lsrs	r3, r1, #12
    7786:	0b0b      	lsrs	r3, r1, #12
    7788:	0b0a      	lsrs	r2, r1, #12
    778a:	0b04      	lsrs	r4, r0, #12
    778c:	0b0b      	lsrs	r3, r1, #12
    778e:	0b0b      	lsrs	r3, r1, #12
    7790:	0b0b      	lsrs	r3, r1, #12
    7792:	040b      	lsls	r3, r1, #16
    7794:	0b0b      	lsrs	r3, r1, #12
    7796:	0b0b      	lsrs	r3, r1, #12
    7798:	0b0b      	lsrs	r3, r1, #12
    779a:	030b      	lsls	r3, r1, #12
    779c:	0b0b      	lsrs	r3, r1, #12
    779e:	0b0b      	lsrs	r3, r1, #12
    77a0:	0b0b      	lsrs	r3, r1, #12
    77a2:	0b0b      	lsrs	r3, r1, #12
    77a4:	0b08      	lsrs	r0, r1, #12
    77a6:	0b0b      	lsrs	r3, r1, #12
    77a8:	0b0b      	lsrs	r3, r1, #12
    77aa:	000b      	movs	r3, r1
	...
    77b4:	2000      	movs	r0, #0
    77b6:	2020      	movs	r0, #32
    77b8:	2020      	movs	r0, #32
    77ba:	2020      	movs	r0, #32
    77bc:	2020      	movs	r0, #32
    77be:	2828      	cmp	r0, #40	; 0x28
    77c0:	2828      	cmp	r0, #40	; 0x28
    77c2:	2028      	movs	r0, #40	; 0x28
    77c4:	2020      	movs	r0, #32
    77c6:	2020      	movs	r0, #32
    77c8:	2020      	movs	r0, #32
    77ca:	2020      	movs	r0, #32
    77cc:	2020      	movs	r0, #32
    77ce:	2020      	movs	r0, #32
    77d0:	2020      	movs	r0, #32
    77d2:	2020      	movs	r0, #32
    77d4:	8820      	ldrh	r0, [r4, #0]
    77d6:	1010      	asrs	r0, r2, #32
    77d8:	1010      	asrs	r0, r2, #32
    77da:	1010      	asrs	r0, r2, #32
    77dc:	1010      	asrs	r0, r2, #32
    77de:	1010      	asrs	r0, r2, #32
    77e0:	1010      	asrs	r0, r2, #32
    77e2:	1010      	asrs	r0, r2, #32
    77e4:	0410      	lsls	r0, r2, #16
    77e6:	0404      	lsls	r4, r0, #16
    77e8:	0404      	lsls	r4, r0, #16
    77ea:	0404      	lsls	r4, r0, #16
    77ec:	0404      	lsls	r4, r0, #16
    77ee:	1004      	asrs	r4, r0, #32
    77f0:	1010      	asrs	r0, r2, #32
    77f2:	1010      	asrs	r0, r2, #32
    77f4:	1010      	asrs	r0, r2, #32
    77f6:	4141      	adcs	r1, r0
    77f8:	4141      	adcs	r1, r0
    77fa:	4141      	adcs	r1, r0
    77fc:	0101      	lsls	r1, r0, #4
    77fe:	0101      	lsls	r1, r0, #4
    7800:	0101      	lsls	r1, r0, #4
    7802:	0101      	lsls	r1, r0, #4
    7804:	0101      	lsls	r1, r0, #4
    7806:	0101      	lsls	r1, r0, #4
    7808:	0101      	lsls	r1, r0, #4
    780a:	0101      	lsls	r1, r0, #4
    780c:	0101      	lsls	r1, r0, #4
    780e:	0101      	lsls	r1, r0, #4
    7810:	1010      	asrs	r0, r2, #32
    7812:	1010      	asrs	r0, r2, #32
    7814:	1010      	asrs	r0, r2, #32
    7816:	4242      	negs	r2, r0
    7818:	4242      	negs	r2, r0
    781a:	4242      	negs	r2, r0
    781c:	0202      	lsls	r2, r0, #8
    781e:	0202      	lsls	r2, r0, #8
    7820:	0202      	lsls	r2, r0, #8
    7822:	0202      	lsls	r2, r0, #8
    7824:	0202      	lsls	r2, r0, #8
    7826:	0202      	lsls	r2, r0, #8
    7828:	0202      	lsls	r2, r0, #8
    782a:	0202      	lsls	r2, r0, #8
    782c:	0202      	lsls	r2, r0, #8
    782e:	0202      	lsls	r2, r0, #8
    7830:	1010      	asrs	r0, r2, #32
    7832:	1010      	asrs	r0, r2, #32
    7834:	0020      	movs	r0, r4
	...
    78b2:	0000      	movs	r0, r0
    78b4:	ff00 ffff 	vmaxnm.f32	<illegal reg q7.5>, q8, <illegal reg q15.5>
    78b8:	0000      	movs	r0, r0
    78ba:	0000      	movs	r0, r0
    78bc:	0043      	lsls	r3, r0, #1
	...
    78da:	0000      	movs	r0, r0
    78dc:	0043      	lsls	r3, r0, #1
	...
    78fa:	0000      	movs	r0, r0
    78fc:	2e43      	cmp	r6, #67	; 0x43
    78fe:	5455      	strb	r5, [r2, r1]
    7900:	2d46      	cmp	r5, #70	; 0x46
    7902:	0038      	movs	r0, r7
	...
    791c:	0043      	lsls	r3, r0, #1
	...
    793a:	0000      	movs	r0, r0
    793c:	0043      	lsls	r3, r0, #1
	...
    795a:	0000      	movs	r0, r0
    795c:	0043      	lsls	r3, r0, #1
	...
    797a:	0000      	movs	r0, r0
    797c:	0043      	lsls	r3, r0, #1
	...
    799a:	0000      	movs	r0, r0
    799c:	6b51      	ldr	r1, [r2, #52]	; 0x34
    799e:	0800      	lsrs	r0, r0, #32
    79a0:	5c9d      	ldrb	r5, [r3, r2]
    79a2:	0800      	lsrs	r0, r0, #32
    79a4:	0000      	movs	r0, r0
    79a6:	0000      	movs	r0, r0
    79a8:	77b4      	strb	r4, [r6, #30]
    79aa:	0800      	lsrs	r0, r0, #32
    79ac:	7498      	strb	r0, [r3, #18]
    79ae:	0800      	lsrs	r0, r0, #32
    79b0:	7428      	strb	r0, [r5, #16]
    79b2:	0800      	lsrs	r0, r0, #32
    79b4:	7428      	strb	r0, [r5, #16]
    79b6:	0800      	lsrs	r0, r0, #32
    79b8:	7428      	strb	r0, [r5, #16]
    79ba:	0800      	lsrs	r0, r0, #32
    79bc:	7428      	strb	r0, [r5, #16]
    79be:	0800      	lsrs	r0, r0, #32
    79c0:	7428      	strb	r0, [r5, #16]
    79c2:	0800      	lsrs	r0, r0, #32
    79c4:	7428      	strb	r0, [r5, #16]
    79c6:	0800      	lsrs	r0, r0, #32
    79c8:	7428      	strb	r0, [r5, #16]
    79ca:	0800      	lsrs	r0, r0, #32
    79cc:	7428      	strb	r0, [r5, #16]
    79ce:	0800      	lsrs	r0, r0, #32
    79d0:	7428      	strb	r0, [r5, #16]
    79d2:	0800      	lsrs	r0, r0, #32
    79d4:	ffff ffff 			; <UNDEFINED> instruction: 0xffffffff
    79d8:	ffff ffff 			; <UNDEFINED> instruction: 0xffffffff
    79dc:	ffff ffff 			; <UNDEFINED> instruction: 0xffffffff
    79e0:	ffff 0000 	vaddl.u<illegal width 64>	q8, d15, d0
    79e4:	0006      	movs	r6, r0
    79e6:	5455      	strb	r5, [r2, r1]
    79e8:	2d46      	cmp	r5, #70	; 0x46
    79ea:	0038      	movs	r0, r7
	...
    7a04:	0000      	movs	r0, r0
    7a06:	5455      	strb	r5, [r2, r1]
    7a08:	2d46      	cmp	r5, #70	; 0x46
    7a0a:	0038      	movs	r0, r7
	...
    7a30:	0358      	lsls	r0, r3, #13
    7a32:	0300      	lsls	r0, r0, #12
    7a34:	0358      	lsls	r0, r3, #13
    7a36:	0300      	lsls	r0, r0, #12
    7a38:	0360      	lsls	r0, r4, #13
    7a3a:	0300      	lsls	r0, r0, #12
    7a3c:	0360      	lsls	r0, r4, #13
    7a3e:	0300      	lsls	r0, r0, #12
    7a40:	0368      	lsls	r0, r5, #13
    7a42:	0300      	lsls	r0, r0, #12
    7a44:	0368      	lsls	r0, r5, #13
    7a46:	0300      	lsls	r0, r0, #12
    7a48:	0370      	lsls	r0, r6, #13
    7a4a:	0300      	lsls	r0, r0, #12
    7a4c:	0370      	lsls	r0, r6, #13
    7a4e:	0300      	lsls	r0, r0, #12
    7a50:	0378      	lsls	r0, r7, #13
    7a52:	0300      	lsls	r0, r0, #12
    7a54:	0378      	lsls	r0, r7, #13
    7a56:	0300      	lsls	r0, r0, #12
    7a58:	0380      	lsls	r0, r0, #14
    7a5a:	0300      	lsls	r0, r0, #12
    7a5c:	0380      	lsls	r0, r0, #14
    7a5e:	0300      	lsls	r0, r0, #12
    7a60:	0388      	lsls	r0, r1, #14
    7a62:	0300      	lsls	r0, r0, #12
    7a64:	0388      	lsls	r0, r1, #14
    7a66:	0300      	lsls	r0, r0, #12
    7a68:	0390      	lsls	r0, r2, #14
    7a6a:	0300      	lsls	r0, r0, #12
    7a6c:	0390      	lsls	r0, r2, #14
    7a6e:	0300      	lsls	r0, r0, #12
    7a70:	0398      	lsls	r0, r3, #14
    7a72:	0300      	lsls	r0, r0, #12
    7a74:	0398      	lsls	r0, r3, #14
    7a76:	0300      	lsls	r0, r0, #12
    7a78:	03a0      	lsls	r0, r4, #14
    7a7a:	0300      	lsls	r0, r0, #12
    7a7c:	03a0      	lsls	r0, r4, #14
    7a7e:	0300      	lsls	r0, r0, #12
    7a80:	03a8      	lsls	r0, r5, #14
    7a82:	0300      	lsls	r0, r0, #12
    7a84:	03a8      	lsls	r0, r5, #14
    7a86:	0300      	lsls	r0, r0, #12
    7a88:	03b0      	lsls	r0, r6, #14
    7a8a:	0300      	lsls	r0, r0, #12
    7a8c:	03b0      	lsls	r0, r6, #14
    7a8e:	0300      	lsls	r0, r0, #12
    7a90:	03b8      	lsls	r0, r7, #14
    7a92:	0300      	lsls	r0, r0, #12
    7a94:	03b8      	lsls	r0, r7, #14
    7a96:	0300      	lsls	r0, r0, #12
    7a98:	03c0      	lsls	r0, r0, #15
    7a9a:	0300      	lsls	r0, r0, #12
    7a9c:	03c0      	lsls	r0, r0, #15
    7a9e:	0300      	lsls	r0, r0, #12
    7aa0:	03c8      	lsls	r0, r1, #15
    7aa2:	0300      	lsls	r0, r0, #12
    7aa4:	03c8      	lsls	r0, r1, #15
    7aa6:	0300      	lsls	r0, r0, #12
    7aa8:	03d0      	lsls	r0, r2, #15
    7aaa:	0300      	lsls	r0, r0, #12
    7aac:	03d0      	lsls	r0, r2, #15
    7aae:	0300      	lsls	r0, r0, #12
    7ab0:	03d8      	lsls	r0, r3, #15
    7ab2:	0300      	lsls	r0, r0, #12
    7ab4:	03d8      	lsls	r0, r3, #15
    7ab6:	0300      	lsls	r0, r0, #12
    7ab8:	03e0      	lsls	r0, r4, #15
    7aba:	0300      	lsls	r0, r0, #12
    7abc:	03e0      	lsls	r0, r4, #15
    7abe:	0300      	lsls	r0, r0, #12
    7ac0:	03e8      	lsls	r0, r5, #15
    7ac2:	0300      	lsls	r0, r0, #12
    7ac4:	03e8      	lsls	r0, r5, #15
    7ac6:	0300      	lsls	r0, r0, #12
    7ac8:	03f0      	lsls	r0, r6, #15
    7aca:	0300      	lsls	r0, r0, #12
    7acc:	03f0      	lsls	r0, r6, #15
    7ace:	0300      	lsls	r0, r0, #12
    7ad0:	03f8      	lsls	r0, r7, #15
    7ad2:	0300      	lsls	r0, r0, #12
    7ad4:	03f8      	lsls	r0, r7, #15
    7ad6:	0300      	lsls	r0, r0, #12
    7ad8:	0400      	lsls	r0, r0, #16
    7ada:	0300      	lsls	r0, r0, #12
    7adc:	0400      	lsls	r0, r0, #16
    7ade:	0300      	lsls	r0, r0, #12
    7ae0:	0408      	lsls	r0, r1, #16
    7ae2:	0300      	lsls	r0, r0, #12
    7ae4:	0408      	lsls	r0, r1, #16
    7ae6:	0300      	lsls	r0, r0, #12
    7ae8:	0410      	lsls	r0, r2, #16
    7aea:	0300      	lsls	r0, r0, #12
    7aec:	0410      	lsls	r0, r2, #16
    7aee:	0300      	lsls	r0, r0, #12
    7af0:	0418      	lsls	r0, r3, #16
    7af2:	0300      	lsls	r0, r0, #12
    7af4:	0418      	lsls	r0, r3, #16
    7af6:	0300      	lsls	r0, r0, #12
    7af8:	0420      	lsls	r0, r4, #16
    7afa:	0300      	lsls	r0, r0, #12
    7afc:	0420      	lsls	r0, r4, #16
    7afe:	0300      	lsls	r0, r0, #12
    7b00:	0428      	lsls	r0, r5, #16
    7b02:	0300      	lsls	r0, r0, #12
    7b04:	0428      	lsls	r0, r5, #16
    7b06:	0300      	lsls	r0, r0, #12
    7b08:	0430      	lsls	r0, r6, #16
    7b0a:	0300      	lsls	r0, r0, #12
    7b0c:	0430      	lsls	r0, r6, #16
    7b0e:	0300      	lsls	r0, r0, #12
    7b10:	0438      	lsls	r0, r7, #16
    7b12:	0300      	lsls	r0, r0, #12
    7b14:	0438      	lsls	r0, r7, #16
    7b16:	0300      	lsls	r0, r0, #12
    7b18:	0440      	lsls	r0, r0, #17
    7b1a:	0300      	lsls	r0, r0, #12
    7b1c:	0440      	lsls	r0, r0, #17
    7b1e:	0300      	lsls	r0, r0, #12
    7b20:	0448      	lsls	r0, r1, #17
    7b22:	0300      	lsls	r0, r0, #12
    7b24:	0448      	lsls	r0, r1, #17
    7b26:	0300      	lsls	r0, r0, #12
    7b28:	0450      	lsls	r0, r2, #17
    7b2a:	0300      	lsls	r0, r0, #12
    7b2c:	0450      	lsls	r0, r2, #17
    7b2e:	0300      	lsls	r0, r0, #12
    7b30:	0458      	lsls	r0, r3, #17
    7b32:	0300      	lsls	r0, r0, #12
    7b34:	0458      	lsls	r0, r3, #17
    7b36:	0300      	lsls	r0, r0, #12
    7b38:	0460      	lsls	r0, r4, #17
    7b3a:	0300      	lsls	r0, r0, #12
    7b3c:	0460      	lsls	r0, r4, #17
    7b3e:	0300      	lsls	r0, r0, #12
    7b40:	0468      	lsls	r0, r5, #17
    7b42:	0300      	lsls	r0, r0, #12
    7b44:	0468      	lsls	r0, r5, #17
    7b46:	0300      	lsls	r0, r0, #12
    7b48:	0470      	lsls	r0, r6, #17
    7b4a:	0300      	lsls	r0, r0, #12
    7b4c:	0470      	lsls	r0, r6, #17
    7b4e:	0300      	lsls	r0, r0, #12
    7b50:	0478      	lsls	r0, r7, #17
    7b52:	0300      	lsls	r0, r0, #12
    7b54:	0478      	lsls	r0, r7, #17
    7b56:	0300      	lsls	r0, r0, #12
    7b58:	0480      	lsls	r0, r0, #18
    7b5a:	0300      	lsls	r0, r0, #12
    7b5c:	0480      	lsls	r0, r0, #18
    7b5e:	0300      	lsls	r0, r0, #12
    7b60:	0488      	lsls	r0, r1, #18
    7b62:	0300      	lsls	r0, r0, #12
    7b64:	0488      	lsls	r0, r1, #18
    7b66:	0300      	lsls	r0, r0, #12
    7b68:	0490      	lsls	r0, r2, #18
    7b6a:	0300      	lsls	r0, r0, #12
    7b6c:	0490      	lsls	r0, r2, #18
    7b6e:	0300      	lsls	r0, r0, #12
    7b70:	0498      	lsls	r0, r3, #18
    7b72:	0300      	lsls	r0, r0, #12
    7b74:	0498      	lsls	r0, r3, #18
    7b76:	0300      	lsls	r0, r0, #12
    7b78:	04a0      	lsls	r0, r4, #18
    7b7a:	0300      	lsls	r0, r0, #12
    7b7c:	04a0      	lsls	r0, r4, #18
    7b7e:	0300      	lsls	r0, r0, #12
    7b80:	04a8      	lsls	r0, r5, #18
    7b82:	0300      	lsls	r0, r0, #12
    7b84:	04a8      	lsls	r0, r5, #18
    7b86:	0300      	lsls	r0, r0, #12
    7b88:	04b0      	lsls	r0, r6, #18
    7b8a:	0300      	lsls	r0, r0, #12
    7b8c:	04b0      	lsls	r0, r6, #18
    7b8e:	0300      	lsls	r0, r0, #12
    7b90:	04b8      	lsls	r0, r7, #18
    7b92:	0300      	lsls	r0, r0, #12
    7b94:	04b8      	lsls	r0, r7, #18
    7b96:	0300      	lsls	r0, r0, #12
    7b98:	04c0      	lsls	r0, r0, #19
    7b9a:	0300      	lsls	r0, r0, #12
    7b9c:	04c0      	lsls	r0, r0, #19
    7b9e:	0300      	lsls	r0, r0, #12
    7ba0:	04c8      	lsls	r0, r1, #19
    7ba2:	0300      	lsls	r0, r0, #12
    7ba4:	04c8      	lsls	r0, r1, #19
    7ba6:	0300      	lsls	r0, r0, #12
    7ba8:	04d0      	lsls	r0, r2, #19
    7baa:	0300      	lsls	r0, r0, #12
    7bac:	04d0      	lsls	r0, r2, #19
    7bae:	0300      	lsls	r0, r0, #12
    7bb0:	04d8      	lsls	r0, r3, #19
    7bb2:	0300      	lsls	r0, r0, #12
    7bb4:	04d8      	lsls	r0, r3, #19
    7bb6:	0300      	lsls	r0, r0, #12
    7bb8:	04e0      	lsls	r0, r4, #19
    7bba:	0300      	lsls	r0, r0, #12
    7bbc:	04e0      	lsls	r0, r4, #19
    7bbe:	0300      	lsls	r0, r0, #12
    7bc0:	04e8      	lsls	r0, r5, #19
    7bc2:	0300      	lsls	r0, r0, #12
    7bc4:	04e8      	lsls	r0, r5, #19
    7bc6:	0300      	lsls	r0, r0, #12
    7bc8:	04f0      	lsls	r0, r6, #19
    7bca:	0300      	lsls	r0, r0, #12
    7bcc:	04f0      	lsls	r0, r6, #19
    7bce:	0300      	lsls	r0, r0, #12
    7bd0:	04f8      	lsls	r0, r7, #19
    7bd2:	0300      	lsls	r0, r0, #12
    7bd4:	04f8      	lsls	r0, r7, #19
    7bd6:	0300      	lsls	r0, r0, #12
    7bd8:	0500      	lsls	r0, r0, #20
    7bda:	0300      	lsls	r0, r0, #12
    7bdc:	0500      	lsls	r0, r0, #20
    7bde:	0300      	lsls	r0, r0, #12
    7be0:	0508      	lsls	r0, r1, #20
    7be2:	0300      	lsls	r0, r0, #12
    7be4:	0508      	lsls	r0, r1, #20
    7be6:	0300      	lsls	r0, r0, #12
    7be8:	0510      	lsls	r0, r2, #20
    7bea:	0300      	lsls	r0, r0, #12
    7bec:	0510      	lsls	r0, r2, #20
    7bee:	0300      	lsls	r0, r0, #12
    7bf0:	0518      	lsls	r0, r3, #20
    7bf2:	0300      	lsls	r0, r0, #12
    7bf4:	0518      	lsls	r0, r3, #20
    7bf6:	0300      	lsls	r0, r0, #12
    7bf8:	0520      	lsls	r0, r4, #20
    7bfa:	0300      	lsls	r0, r0, #12
    7bfc:	0520      	lsls	r0, r4, #20
    7bfe:	0300      	lsls	r0, r0, #12
    7c00:	0528      	lsls	r0, r5, #20
    7c02:	0300      	lsls	r0, r0, #12
    7c04:	0528      	lsls	r0, r5, #20
    7c06:	0300      	lsls	r0, r0, #12
    7c08:	0530      	lsls	r0, r6, #20
    7c0a:	0300      	lsls	r0, r0, #12
    7c0c:	0530      	lsls	r0, r6, #20
    7c0e:	0300      	lsls	r0, r0, #12
    7c10:	0538      	lsls	r0, r7, #20
    7c12:	0300      	lsls	r0, r0, #12
    7c14:	0538      	lsls	r0, r7, #20
    7c16:	0300      	lsls	r0, r0, #12
    7c18:	0540      	lsls	r0, r0, #21
    7c1a:	0300      	lsls	r0, r0, #12
    7c1c:	0540      	lsls	r0, r0, #21
    7c1e:	0300      	lsls	r0, r0, #12
    7c20:	0548      	lsls	r0, r1, #21
    7c22:	0300      	lsls	r0, r0, #12
    7c24:	0548      	lsls	r0, r1, #21
    7c26:	0300      	lsls	r0, r0, #12
    7c28:	0550      	lsls	r0, r2, #21
    7c2a:	0300      	lsls	r0, r0, #12
    7c2c:	0550      	lsls	r0, r2, #21
    7c2e:	0300      	lsls	r0, r0, #12
    7c30:	0558      	lsls	r0, r3, #21
    7c32:	0300      	lsls	r0, r0, #12
    7c34:	0558      	lsls	r0, r3, #21
    7c36:	0300      	lsls	r0, r0, #12
    7c38:	0560      	lsls	r0, r4, #21
    7c3a:	0300      	lsls	r0, r0, #12
    7c3c:	0560      	lsls	r0, r4, #21
    7c3e:	0300      	lsls	r0, r0, #12
    7c40:	0568      	lsls	r0, r5, #21
    7c42:	0300      	lsls	r0, r0, #12
    7c44:	0568      	lsls	r0, r5, #21
    7c46:	0300      	lsls	r0, r0, #12
    7c48:	0570      	lsls	r0, r6, #21
    7c4a:	0300      	lsls	r0, r0, #12
    7c4c:	0570      	lsls	r0, r6, #21
    7c4e:	0300      	lsls	r0, r0, #12
    7c50:	0578      	lsls	r0, r7, #21
    7c52:	0300      	lsls	r0, r0, #12
    7c54:	0578      	lsls	r0, r7, #21
    7c56:	0300      	lsls	r0, r0, #12
    7c58:	0580      	lsls	r0, r0, #22
    7c5a:	0300      	lsls	r0, r0, #12
    7c5c:	0580      	lsls	r0, r0, #22
    7c5e:	0300      	lsls	r0, r0, #12
    7c60:	0588      	lsls	r0, r1, #22
    7c62:	0300      	lsls	r0, r0, #12
    7c64:	0588      	lsls	r0, r1, #22
    7c66:	0300      	lsls	r0, r0, #12
    7c68:	0590      	lsls	r0, r2, #22
    7c6a:	0300      	lsls	r0, r0, #12
    7c6c:	0590      	lsls	r0, r2, #22
    7c6e:	0300      	lsls	r0, r0, #12
    7c70:	0598      	lsls	r0, r3, #22
    7c72:	0300      	lsls	r0, r0, #12
    7c74:	0598      	lsls	r0, r3, #22
    7c76:	0300      	lsls	r0, r0, #12
    7c78:	05a0      	lsls	r0, r4, #22
    7c7a:	0300      	lsls	r0, r0, #12
    7c7c:	05a0      	lsls	r0, r4, #22
    7c7e:	0300      	lsls	r0, r0, #12
    7c80:	05a8      	lsls	r0, r5, #22
    7c82:	0300      	lsls	r0, r0, #12
    7c84:	05a8      	lsls	r0, r5, #22
    7c86:	0300      	lsls	r0, r0, #12
    7c88:	05b0      	lsls	r0, r6, #22
    7c8a:	0300      	lsls	r0, r0, #12
    7c8c:	05b0      	lsls	r0, r6, #22
    7c8e:	0300      	lsls	r0, r0, #12
    7c90:	05b8      	lsls	r0, r7, #22
    7c92:	0300      	lsls	r0, r0, #12
    7c94:	05b8      	lsls	r0, r7, #22
    7c96:	0300      	lsls	r0, r0, #12
    7c98:	05c0      	lsls	r0, r0, #23
    7c9a:	0300      	lsls	r0, r0, #12
    7c9c:	05c0      	lsls	r0, r0, #23
    7c9e:	0300      	lsls	r0, r0, #12
    7ca0:	05c8      	lsls	r0, r1, #23
    7ca2:	0300      	lsls	r0, r0, #12
    7ca4:	05c8      	lsls	r0, r1, #23
    7ca6:	0300      	lsls	r0, r0, #12
    7ca8:	05d0      	lsls	r0, r2, #23
    7caa:	0300      	lsls	r0, r0, #12
    7cac:	05d0      	lsls	r0, r2, #23
    7cae:	0300      	lsls	r0, r0, #12
    7cb0:	05d8      	lsls	r0, r3, #23
    7cb2:	0300      	lsls	r0, r0, #12
    7cb4:	05d8      	lsls	r0, r3, #23
    7cb6:	0300      	lsls	r0, r0, #12
    7cb8:	05e0      	lsls	r0, r4, #23
    7cba:	0300      	lsls	r0, r0, #12
    7cbc:	05e0      	lsls	r0, r4, #23
    7cbe:	0300      	lsls	r0, r0, #12
    7cc0:	05e8      	lsls	r0, r5, #23
    7cc2:	0300      	lsls	r0, r0, #12
    7cc4:	05e8      	lsls	r0, r5, #23
    7cc6:	0300      	lsls	r0, r0, #12
    7cc8:	05f0      	lsls	r0, r6, #23
    7cca:	0300      	lsls	r0, r0, #12
    7ccc:	05f0      	lsls	r0, r6, #23
    7cce:	0300      	lsls	r0, r0, #12
    7cd0:	05f8      	lsls	r0, r7, #23
    7cd2:	0300      	lsls	r0, r0, #12
    7cd4:	05f8      	lsls	r0, r7, #23
    7cd6:	0300      	lsls	r0, r0, #12
    7cd8:	0600      	lsls	r0, r0, #24
    7cda:	0300      	lsls	r0, r0, #12
    7cdc:	0600      	lsls	r0, r0, #24
    7cde:	0300      	lsls	r0, r0, #12
    7ce0:	0608      	lsls	r0, r1, #24
    7ce2:	0300      	lsls	r0, r0, #12
    7ce4:	0608      	lsls	r0, r1, #24
    7ce6:	0300      	lsls	r0, r0, #12
    7ce8:	0610      	lsls	r0, r2, #24
    7cea:	0300      	lsls	r0, r0, #12
    7cec:	0610      	lsls	r0, r2, #24
    7cee:	0300      	lsls	r0, r0, #12
    7cf0:	0618      	lsls	r0, r3, #24
    7cf2:	0300      	lsls	r0, r0, #12
    7cf4:	0618      	lsls	r0, r3, #24
    7cf6:	0300      	lsls	r0, r0, #12
    7cf8:	0620      	lsls	r0, r4, #24
    7cfa:	0300      	lsls	r0, r0, #12
    7cfc:	0620      	lsls	r0, r4, #24
    7cfe:	0300      	lsls	r0, r0, #12
    7d00:	0628      	lsls	r0, r5, #24
    7d02:	0300      	lsls	r0, r0, #12
    7d04:	0628      	lsls	r0, r5, #24
    7d06:	0300      	lsls	r0, r0, #12
    7d08:	0630      	lsls	r0, r6, #24
    7d0a:	0300      	lsls	r0, r0, #12
    7d0c:	0630      	lsls	r0, r6, #24
    7d0e:	0300      	lsls	r0, r0, #12
    7d10:	0638      	lsls	r0, r7, #24
    7d12:	0300      	lsls	r0, r0, #12
    7d14:	0638      	lsls	r0, r7, #24
    7d16:	0300      	lsls	r0, r0, #12
    7d18:	0640      	lsls	r0, r0, #25
    7d1a:	0300      	lsls	r0, r0, #12
    7d1c:	0640      	lsls	r0, r0, #25
    7d1e:	0300      	lsls	r0, r0, #12
    7d20:	0648      	lsls	r0, r1, #25
    7d22:	0300      	lsls	r0, r0, #12
    7d24:	0648      	lsls	r0, r1, #25
    7d26:	0300      	lsls	r0, r0, #12
    7d28:	0650      	lsls	r0, r2, #25
    7d2a:	0300      	lsls	r0, r0, #12
    7d2c:	0650      	lsls	r0, r2, #25
    7d2e:	0300      	lsls	r0, r0, #12
    7d30:	0658      	lsls	r0, r3, #25
    7d32:	0300      	lsls	r0, r0, #12
    7d34:	0658      	lsls	r0, r3, #25
    7d36:	0300      	lsls	r0, r0, #12
    7d38:	0660      	lsls	r0, r4, #25
    7d3a:	0300      	lsls	r0, r0, #12
    7d3c:	0660      	lsls	r0, r4, #25
    7d3e:	0300      	lsls	r0, r0, #12
    7d40:	0668      	lsls	r0, r5, #25
    7d42:	0300      	lsls	r0, r0, #12
    7d44:	0668      	lsls	r0, r5, #25
    7d46:	0300      	lsls	r0, r0, #12
    7d48:	0670      	lsls	r0, r6, #25
    7d4a:	0300      	lsls	r0, r0, #12
    7d4c:	0670      	lsls	r0, r6, #25
    7d4e:	0300      	lsls	r0, r0, #12
    7d50:	0678      	lsls	r0, r7, #25
    7d52:	0300      	lsls	r0, r0, #12
    7d54:	0678      	lsls	r0, r7, #25
    7d56:	0300      	lsls	r0, r0, #12
    7d58:	0680      	lsls	r0, r0, #26
    7d5a:	0300      	lsls	r0, r0, #12
    7d5c:	0680      	lsls	r0, r0, #26
    7d5e:	0300      	lsls	r0, r0, #12
    7d60:	0688      	lsls	r0, r1, #26
    7d62:	0300      	lsls	r0, r0, #12
    7d64:	0688      	lsls	r0, r1, #26
    7d66:	0300      	lsls	r0, r0, #12
    7d68:	0690      	lsls	r0, r2, #26
    7d6a:	0300      	lsls	r0, r0, #12
    7d6c:	0690      	lsls	r0, r2, #26
    7d6e:	0300      	lsls	r0, r0, #12
    7d70:	0698      	lsls	r0, r3, #26
    7d72:	0300      	lsls	r0, r0, #12
    7d74:	0698      	lsls	r0, r3, #26
    7d76:	0300      	lsls	r0, r0, #12
    7d78:	06a0      	lsls	r0, r4, #26
    7d7a:	0300      	lsls	r0, r0, #12
    7d7c:	06a0      	lsls	r0, r4, #26
    7d7e:	0300      	lsls	r0, r0, #12
    7d80:	06a8      	lsls	r0, r5, #26
    7d82:	0300      	lsls	r0, r0, #12
    7d84:	06a8      	lsls	r0, r5, #26
    7d86:	0300      	lsls	r0, r0, #12
    7d88:	06b0      	lsls	r0, r6, #26
    7d8a:	0300      	lsls	r0, r0, #12
    7d8c:	06b0      	lsls	r0, r6, #26
    7d8e:	0300      	lsls	r0, r0, #12
    7d90:	06b8      	lsls	r0, r7, #26
    7d92:	0300      	lsls	r0, r0, #12
    7d94:	06b8      	lsls	r0, r7, #26
    7d96:	0300      	lsls	r0, r0, #12
    7d98:	06c0      	lsls	r0, r0, #27
    7d9a:	0300      	lsls	r0, r0, #12
    7d9c:	06c0      	lsls	r0, r0, #27
    7d9e:	0300      	lsls	r0, r0, #12
    7da0:	06c8      	lsls	r0, r1, #27
    7da2:	0300      	lsls	r0, r0, #12
    7da4:	06c8      	lsls	r0, r1, #27
    7da6:	0300      	lsls	r0, r0, #12
    7da8:	06d0      	lsls	r0, r2, #27
    7daa:	0300      	lsls	r0, r0, #12
    7dac:	06d0      	lsls	r0, r2, #27
    7dae:	0300      	lsls	r0, r0, #12
    7db0:	06d8      	lsls	r0, r3, #27
    7db2:	0300      	lsls	r0, r0, #12
    7db4:	06d8      	lsls	r0, r3, #27
    7db6:	0300      	lsls	r0, r0, #12
    7db8:	06e0      	lsls	r0, r4, #27
    7dba:	0300      	lsls	r0, r0, #12
    7dbc:	06e0      	lsls	r0, r4, #27
    7dbe:	0300      	lsls	r0, r0, #12
    7dc0:	06e8      	lsls	r0, r5, #27
    7dc2:	0300      	lsls	r0, r0, #12
    7dc4:	06e8      	lsls	r0, r5, #27
    7dc6:	0300      	lsls	r0, r0, #12
    7dc8:	06f0      	lsls	r0, r6, #27
    7dca:	0300      	lsls	r0, r0, #12
    7dcc:	06f0      	lsls	r0, r6, #27
    7dce:	0300      	lsls	r0, r0, #12
    7dd0:	06f8      	lsls	r0, r7, #27
    7dd2:	0300      	lsls	r0, r0, #12
    7dd4:	06f8      	lsls	r0, r7, #27
    7dd6:	0300      	lsls	r0, r0, #12
    7dd8:	0700      	lsls	r0, r0, #28
    7dda:	0300      	lsls	r0, r0, #12
    7ddc:	0700      	lsls	r0, r0, #28
    7dde:	0300      	lsls	r0, r0, #12
    7de0:	0708      	lsls	r0, r1, #28
    7de2:	0300      	lsls	r0, r0, #12
    7de4:	0708      	lsls	r0, r1, #28
    7de6:	0300      	lsls	r0, r0, #12
    7de8:	0710      	lsls	r0, r2, #28
    7dea:	0300      	lsls	r0, r0, #12
    7dec:	0710      	lsls	r0, r2, #28
    7dee:	0300      	lsls	r0, r0, #12
    7df0:	0718      	lsls	r0, r3, #28
    7df2:	0300      	lsls	r0, r0, #12
    7df4:	0718      	lsls	r0, r3, #28
    7df6:	0300      	lsls	r0, r0, #12
    7df8:	0720      	lsls	r0, r4, #28
    7dfa:	0300      	lsls	r0, r0, #12
    7dfc:	0720      	lsls	r0, r4, #28
    7dfe:	0300      	lsls	r0, r0, #12
    7e00:	0728      	lsls	r0, r5, #28
    7e02:	0300      	lsls	r0, r0, #12
    7e04:	0728      	lsls	r0, r5, #28
    7e06:	0300      	lsls	r0, r0, #12
    7e08:	0730      	lsls	r0, r6, #28
    7e0a:	0300      	lsls	r0, r0, #12
    7e0c:	0730      	lsls	r0, r6, #28
    7e0e:	0300      	lsls	r0, r0, #12
    7e10:	0738      	lsls	r0, r7, #28
    7e12:	0300      	lsls	r0, r0, #12
    7e14:	0738      	lsls	r0, r7, #28
    7e16:	0300      	lsls	r0, r0, #12
    7e18:	0740      	lsls	r0, r0, #29
    7e1a:	0300      	lsls	r0, r0, #12
    7e1c:	0740      	lsls	r0, r0, #29
    7e1e:	0300      	lsls	r0, r0, #12
    7e20:	0748      	lsls	r0, r1, #29
    7e22:	0300      	lsls	r0, r0, #12
    7e24:	0748      	lsls	r0, r1, #29
    7e26:	0300      	lsls	r0, r0, #12
    7e28:	0750      	lsls	r0, r2, #29
    7e2a:	0300      	lsls	r0, r0, #12
    7e2c:	0750      	lsls	r0, r2, #29
    7e2e:	0300      	lsls	r0, r0, #12
    7e30:	ffff ffff 			; <UNDEFINED> instruction: 0xffffffff
    7e34:	0000      	movs	r0, r0
    7e36:	0002      	movs	r2, r0
    7e38:	0001      	movs	r1, r0
	...
    7e42:	0000      	movs	r0, r0
    7e44:	0778      	lsls	r0, r7, #29
    7e46:	0300      	lsls	r0, r0, #12
    7e48:	0000      	movs	r0, r0
    7e4a:	0000      	movs	r0, r0
    7e4c:	0a68      	lsrs	r0, r5, #9
    7e4e:	0300      	lsls	r0, r0, #12
    7e50:	0ae0      	lsrs	r0, r4, #11
    7e52:	0300      	lsls	r0, r0, #12
    7e54:	0b58      	lsrs	r0, r3, #13
    7e56:	0300      	lsls	r0, r0, #12
	...
    7ef0:	0001      	movs	r1, r0
    7ef2:	0000      	movs	r0, r0
    7ef4:	0000      	movs	r0, r0
    7ef6:	0000      	movs	r0, r0
    7ef8:	330e      	adds	r3, #14
    7efa:	abcd      	add	r3, sp, #820	; 0x334
    7efc:	1234      	asrs	r4, r6, #8
    7efe:	e66d      	b.n	0x7bdc
    7f00:	deec      	udf	#236	; 0xec
    7f02:	0005      	movs	r5, r0
    7f04:	000b      	movs	r3, r1
	...
    82a6:	0000      	movs	r0, r0
    82a8:	18dd      	adds	r5, r3, r3
    82aa:	0800      	lsrs	r0, r0, #32
    82ac:	18ad      	adds	r5, r5, r2
    82ae:	0800      	lsrs	r0, r0, #32
    82b0:	6b64      	ldr	r4, [r4, #52]	; 0x34
    82b2:	5241      	strh	r1, [r0, r1]
    82b4:	004d      	lsls	r5, r1, #1
	...
