
test.gba:     file format binary


Disassembly of section .data:

00000000 <.data>:
       0:	002e      	movs	r6, r5
       2:	ea00 0000 	and.w	r0, r0, r0
	...
      ae:	0000      	movs	r0, r0
      b0:	3130      	adds	r1, #48	; 0x30
      b2:	0096      	lsls	r6, r2, #2
	...
      bc:	f000 0000 	and.w	r0, r0, #0
      c0:	0006      	movs	r6, r0
      c2:	ea00 0000 	and.w	r0, r0, r0
	...
      de:	0000      	movs	r0, r0
      e0:	0301      	lsls	r1, r0, #12
      e2:	e3a0      	b.n	0x826
      e4:	0208      	lsls	r0, r1, #8
      e6:	e580      	b.n	0xfffffbea
      e8:	0012      	movs	r2, r2
      ea:	e3a0      	b.n	0x82e
      ec:	f000 e129 			; <UNDEFINED> instruction: 0xf000e129
      f0:	d0b8      	beq.n	0x64
      f2:	e59f      	b.n	0xfffffc34
      f4:	001f      	movs	r7, r3
      f6:	e3a0      	b.n	0x83a
      f8:	f000 e129 			; <UNDEFINED> instruction: 0xf000e129
      fc:	d0b0      	beq.n	0x60
      fe:	e59f      	b.n	0xfffffc40
     100:	0001      	movs	r1, r0
     102:	e28f      	b.n	0x624
     104:	ff10 e12f 	vrhadd.u16	d14, d0, d31
     108:	482b      	ldr	r0, [pc, #172]	; (0x1b8)
     10a:	0140      	lsls	r0, r0, #5
     10c:	d20b      	bcs.n	0x126
     10e:	4678      	mov	r0, pc
     110:	0140      	lsls	r0, r0, #5
     112:	d30d      	bcc.n	0x130
     114:	2202      	movs	r2, #2
     116:	0612      	lsls	r2, r2, #24
     118:	4b28      	ldr	r3, [pc, #160]	; (0x1bc)
     11a:	1a9b      	subs	r3, r3, r2
     11c:	1c16      	adds	r6, r2, #0
     11e:	0091      	lsls	r1, r2, #2
     120:	f000 f83c 	bl	0x19c
     124:	4730      	bx	r6
     126:	2140      	movs	r1, #64	; 0x40
     128:	0309      	lsls	r1, r1, #12
     12a:	01c8      	lsls	r0, r1, #7
     12c:	f000 f82b 	bl	0x186
     130:	4823      	ldr	r0, [pc, #140]	; (0x1c0)
     132:	4924      	ldr	r1, [pc, #144]	; (0x1c4)
     134:	1a09      	subs	r1, r1, r0
     136:	f000 f826 	bl	0x186
     13a:	4823      	ldr	r0, [pc, #140]	; (0x1c8)
     13c:	4923      	ldr	r1, [pc, #140]	; (0x1cc)
     13e:	1a09      	subs	r1, r1, r0
     140:	f000 f821 	bl	0x186
     144:	4922      	ldr	r1, [pc, #136]	; (0x1d0)
     146:	4a23      	ldr	r2, [pc, #140]	; (0x1d4)
     148:	4c23      	ldr	r4, [pc, #140]	; (0x1d8)
     14a:	f000 f826 	bl	0x19a
     14e:	4923      	ldr	r1, [pc, #140]	; (0x1dc)
     150:	4a23      	ldr	r2, [pc, #140]	; (0x1e0)
     152:	4c24      	ldr	r4, [pc, #144]	; (0x1e4)
     154:	f000 f821 	bl	0x19a
     158:	4a23      	ldr	r2, [pc, #140]	; (0x1e8)
     15a:	4924      	ldr	r1, [pc, #144]	; (0x1ec)
     15c:	1a53      	subs	r3, r2, r1
     15e:	d002      	beq.n	0x166
     160:	4a23      	ldr	r2, [pc, #140]	; (0x1f0)
     162:	f000 f81b 	bl	0x19c
     166:	4923      	ldr	r1, [pc, #140]	; (0x1f4)
     168:	4a23      	ldr	r2, [pc, #140]	; (0x1f8)
     16a:	4c24      	ldr	r4, [pc, #144]	; (0x1fc)
     16c:	f000 f815 	bl	0x19a
     170:	4923      	ldr	r1, [pc, #140]	; (0x200)
     172:	4824      	ldr	r0, [pc, #144]	; (0x204)
     174:	6008      	str	r0, [r1, #0]
     176:	4b24      	ldr	r3, [pc, #144]	; (0x208)
     178:	f000 f80e 	bl	0x198
     17c:	2000      	movs	r0, #0
     17e:	2100      	movs	r1, #0
     180:	4b22      	ldr	r3, [pc, #136]	; (0x20c)
     182:	f000 f809 	bl	0x198
     186:	2203      	movs	r2, #3
     188:	1889      	adds	r1, r1, r2
     18a:	4391      	bics	r1, r2
     18c:	d003      	beq.n	0x196
     18e:	2200      	movs	r2, #0
     190:	c004      	stmia	r0!, {r2}
     192:	3904      	subs	r1, #4
     194:	d1fc      	bne.n	0x190
     196:	4770      	bx	lr
     198:	4718      	bx	r3
     19a:	1aa3      	subs	r3, r4, r2
     19c:	2003      	movs	r0, #3
     19e:	181b      	adds	r3, r3, r0
     1a0:	4383      	bics	r3, r0
     1a2:	d003      	beq.n	0x1ac
     1a4:	c901      	ldmia	r1!, {r0}
     1a6:	c201      	stmia	r2!, {r0}
     1a8:	3b04      	subs	r3, #4
     1aa:	d1fb      	bne.n	0x1a4
     1ac:	4770      	bx	lr
     1ae:	46c0      	nop			; (mov r8, r8)
     1b0:	7fa0      	ldrb	r0, [r4, #30]
     1b2:	0300      	lsls	r0, r0, #12
     1b4:	7f00      	ldrb	r0, [r0, #28]
     1b6:	0300      	lsls	r0, r0, #12
     1b8:	0000      	movs	r0, r0
     1ba:	0800      	lsrs	r0, r0, #32
     1bc:	0000      	movs	r0, r0
     1be:	0200      	lsls	r0, r0, #8
     1c0:	0000      	movs	r0, r0
     1c2:	0300      	lsls	r0, r0, #12
     1c4:	01ec      	lsls	r4, r5, #7
     1c6:	0300      	lsls	r0, r0, #12
     1c8:	0000      	movs	r0, r0
     1ca:	0200      	lsls	r0, r0, #8
     1cc:	0000      	movs	r0, r0
     1ce:	0200      	lsls	r0, r0, #8
     1d0:	a4c4      	add	r4, pc, #784	; (adr r4, 0x4e4)
     1d2:	0800      	lsrs	r0, r0, #32
     1d4:	01ec      	lsls	r4, r5, #7
     1d6:	0300      	lsls	r0, r0, #12
     1d8:	0be0      	lsrs	r0, r4, #15
     1da:	0300      	lsls	r0, r0, #12
     1dc:	a4c4      	add	r4, pc, #784	; (adr r4, 0x4f0)
     1de:	0800      	lsrs	r0, r0, #32
     1e0:	0000      	movs	r0, r0
     1e2:	0300      	lsls	r0, r0, #12
     1e4:	0000      	movs	r0, r0
     1e6:	0300      	lsls	r0, r0, #12
     1e8:	aeb8      	add	r6, sp, #736	; 0x2e0
     1ea:	0800      	lsrs	r0, r0, #32
     1ec:	aeb8      	add	r6, sp, #736	; 0x2e0
     1ee:	0800      	lsrs	r0, r0, #32
     1f0:	0be0      	lsrs	r0, r4, #15
     1f2:	0300      	lsls	r0, r0, #12
     1f4:	aeb8      	add	r6, sp, #736	; 0x2e0
     1f6:	0800      	lsrs	r0, r0, #32
     1f8:	0000      	movs	r0, r0
     1fa:	0200      	lsls	r0, r0, #8
     1fc:	0000      	movs	r0, r0
     1fe:	0200      	lsls	r0, r0, #8
     200:	011c      	lsls	r4, r3, #4
     202:	0300      	lsls	r0, r0, #12
     204:	0000      	movs	r0, r0
     206:	0204      	lsls	r4, r0, #8
     208:	1ccc      	adds	r4, r1, #3
     20a:	0800      	lsrs	r0, r0, #32
     20c:	1c0c      	adds	r4, r1, #0
     20e:	0800      	lsrs	r0, r0, #32
     210:	c00d      	stmia	r0!, {r0, r2, r3}
     212:	e1a0      	b.n	0x556
     214:	dff8      	svc	248	; 0xf8
     216:	e92d b004 	stmdb	sp!, {r2, ip, sp, pc}
     21a:	e24c      	b.n	0x6b6
     21c:	d028      	beq.n	0x270
     21e:	e24b      	b.n	0x6b8
     220:	6ff0      	ldr	r0, [r6, #124]	; 0x7c
     222:	e89d ff1e 	ldmia.w	sp, {r1, r2, r3, r4, r8, r9, sl, fp, ip, sp, lr, pc}
     226:	e12f      	b.n	0x488
     228:	0000      	movs	r0, r0
     22a:	e351      	b.n	0x8d0
     22c:	40f0      	lsrs	r0, r6
     22e:	e92d 0006 	stmdb	sp!, {r1, r2}
     232:	1a00      	subs	r0, r0, r0
     234:	3030      	adds	r0, #48	; 0x30
     236:	e3a0      	b.n	0x97a
     238:	6001      	str	r1, [r0, #0]
     23a:	e3a0      	b.n	0x97e
     23c:	3000      	adds	r0, #0
     23e:	e5c0      	b.n	0xfffffdc2
     240:	3000      	adds	r0, #0
     242:	e3a0      	b.n	0x986
     244:	3006      	adds	r0, #6
     246:	e7c0      	b.n	0x1ca
     248:	40f0      	lsrs	r0, r6
     24a:	e8bd ff1e 	ldmia.w	sp!, {r1, r2, r3, r4, r8, r9, sl, fp, ip, sp, lr, pc}
     24e:	e12f      	b.n	0x4b0
     250:	c001      	stmia	r0!, {r0}
     252:	e240      	b.n	0x6d6
     254:	400c      	ands	r4, r1
     256:	e1a0      	b.n	0x59a
     258:	e000      	b.n	0x25c
     25a:	e3a0      	b.n	0x99e
     25c:	508c      	str	r4, [r1, r2]
     25e:	e59f      	b.n	0xfffffda0
     260:	0001      	movs	r1, r0
     262:	ea00 e006 			; <UNDEFINED> instruction: 0xea00e006
     266:	e1a0      	b.n	0x5aa
     268:	1002      	asrs	r2, r0, #32
     26a:	e1a0      	b.n	0x5ae
     26c:	3195      	adds	r1, #149	; 0x95
     26e:	e082      	b.n	0x376
     270:	21a2      	movs	r1, #162	; 0xa2
     272:	e1a0      	b.n	0x5b6
     274:	3102      	adds	r1, #2
     276:	e082      	b.n	0x37e
     278:	3083      	adds	r0, #131	; 0x83
     27a:	e041      	b.n	0x300
     27c:	3030      	adds	r0, #48	; 0x30
     27e:	e283      	b.n	0x788
     280:	30ff      	adds	r0, #255	; 0xff
     282:	e203      	b.n	0x68c
     284:	0009      	movs	r1, r1
     286:	e351      	b.n	0x92c
     288:	3001      	adds	r0, #1
     28a:	e5e4      	b.n	0xfffffe56
     28c:	6001      	str	r1, [r0, #0]
     28e:	e28e      	b.n	0x7ae
     290:	fff3 8aff 			; <UNDEFINED> instruction: 0xfff38aff
     294:	0000      	movs	r0, r0
     296:	e35e      	b.n	0x956
     298:	0012      	movs	r2, r2
     29a:	0a00      	lsrs	r0, r0, #8
     29c:	400e      	ands	r6, r1
     29e:	e080      	b.n	0x3a2
     2a0:	0001      	movs	r1, r0
     2a2:	ea00 c005 			; <UNDEFINED> instruction: 0xea00c005
     2a6:	e1a0      	b.n	0x5ea
     2a8:	3000      	adds	r0, #0
     2aa:	e5d4      	b.n	0xfffffe56
     2ac:	5001      	str	r1, [r0, r0]
     2ae:	e28c      	b.n	0x7ca
     2b0:	2005      	movs	r0, #5
     2b2:	e1e0      	b.n	0x676
     2b4:	1002      	asrs	r2, r0, #32
     2b6:	e28c      	b.n	0x7d2
     2b8:	2000      	movs	r0, #0
     2ba:	e082      	b.n	0x3c2
     2bc:	7001      	strb	r1, [r0, #0]
     2be:	e5dc      	b.n	0xfffffe7a
     2c0:	200e      	movs	r0, #14
     2c2:	e082      	b.n	0x3ca
     2c4:	1000      	asrs	r0, r0, #32
     2c6:	e041      	b.n	0x34c
     2c8:	0002      	movs	r2, r0
     2ca:	e151      	b.n	0x570
     2cc:	3001      	adds	r0, #1
     2ce:	e5cc      	b.n	0xfffffe6a
     2d0:	7001      	strb	r1, [r0, #0]
     2d2:	e444      	b.n	0xfffffb5e
     2d4:	fff2 3aff 			; <UNDEFINED> instruction: 0xfff23aff
     2d8:	3000      	adds	r0, #0
     2da:	e3a0      	b.n	0xa1e
     2dc:	3006      	adds	r0, #6
     2de:	e7c0      	b.n	0x262
     2e0:	40f0      	lsrs	r0, r6
     2e2:	e8bd ff1e 	ldmia.w	sp!, {r1, r2, r3, r4, r8, r9, sl, fp, ip, sp, lr, pc}
     2e6:	e12f      	b.n	0x548
     2e8:	6001      	str	r1, [r0, #0]
     2ea:	e3a0      	b.n	0xa2e
     2ec:	ffd3 eaff 			; <UNDEFINED> instruction: 0xffd3eaff
     2f0:	cccd      	ldmia	r4!, {r0, r2, r3, r6, r7}
     2f2:	cccc      	ldmia	r4!, {r2, r3, r6, r7}
     2f4:	0000      	movs	r0, r0
     2f6:	e351      	b.n	0x99c
     2f8:	4070      	eors	r0, r6
     2fa:	e92d 0007 	stmdb	sp!, {r0, r1, r2}
     2fe:	ba00      	rev	r0, r0
     300:	002f      	movs	r7, r5
     302:	1a00      	subs	r0, r0, r0
     304:	5000      	str	r0, [r0, r0]
     306:	e1a0      	b.n	0x64a
     308:	3030      	adds	r0, #48	; 0x30
     30a:	e3a0      	b.n	0xa4e
     30c:	3001      	adds	r0, #1
     30e:	e4c5      	b.n	0xfffffc9c
     310:	3000      	adds	r0, #0
     312:	e3a0      	b.n	0xa56
     314:	3000      	adds	r0, #0
     316:	e5c5      	b.n	0xfffffea4
     318:	4070      	eors	r0, r6
     31a:	e8bd ff1e 	ldmia.w	sp!, {r1, r2, r3, r4, r8, r9, sl, fp, ip, sp, lr, pc}
     31e:	e12f      	b.n	0x580
     320:	302d      	adds	r0, #45	; 0x2d
     322:	e3a0      	b.n	0xa66
     324:	3000      	adds	r0, #0
     326:	e5c0      	b.n	0xfffffeaa
     328:	3001      	adds	r0, #1
     32a:	e3a0      	b.n	0xa6e
     32c:	1000      	asrs	r0, r0, #32
     32e:	e261      	b.n	0x7f4
     330:	c003      	stmia	r0!, {r0, r1}
     332:	e080      	b.n	0x436
     334:	e003      	b.n	0x33e
     336:	e1a0      	b.n	0x67a
     338:	608c      	str	r4, [r1, #8]
     33a:	e59f      	b.n	0xfffffe7c
     33c:	0000      	movs	r0, r0
     33e:	ea00 e002 			; <UNDEFINED> instruction: 0xea00e002
     342:	e1a0      	b.n	0x686
     344:	4196      	sbcs	r6, r2
     346:	e082      	b.n	0x44e
     348:	21a2      	movs	r1, #162	; 0xa2
     34a:	e1a0      	b.n	0x68e
     34c:	4102      	asrs	r2, r0
     34e:	e082      	b.n	0x456
     350:	1084      	asrs	r4, r0, #2
     352:	e041      	b.n	0x3d8
     354:	1030      	asrs	r0, r6, #32
     356:	e281      	b.n	0x85c
     358:	40ff      	lsrs	r7, r7
     35a:	e201      	b.n	0x760
     35c:	4001      	ands	r1, r0
     35e:	e4cc      	b.n	0xfffffcfa
     360:	1000      	asrs	r0, r0, #32
     362:	e252      	b.n	0x80a
     364:	500c      	str	r4, [r1, r0]
     366:	e1a0      	b.n	0x6aa
     368:	2001      	movs	r0, #1
     36a:	e28e      	b.n	0x88a
     36c:	fff3 1aff 			; <UNDEFINED> instruction: 0xfff31aff
     370:	000e      	movs	r6, r1
     372:	e153      	b.n	0x61c
     374:	ffe5 2aff 			; <UNDEFINED> instruction: 0xffe52aff
     378:	3001      	adds	r0, #1
     37a:	e243      	b.n	0x804
     37c:	6000      	str	r0, [r0, #0]
     37e:	e1e0      	b.n	0x742
     380:	3003      	adds	r0, #3
     382:	e080      	b.n	0x486
     384:	c00e      	stmia	r0!, {r1, r2, r3}
     386:	e080      	b.n	0x48a
     388:	0000      	movs	r0, r0
     38a:	ea00 4001 	and.w	r0, r0, r1, lsl #16
     38e:	e57c      	b.n	0xfffffe8a
     390:	200c      	movs	r0, #12
     392:	e1a0      	b.n	0x6d6
     394:	e001      	b.n	0x39a
     396:	e5d3      	b.n	0xffffff40
     398:	1002      	asrs	r2, r0, #32
     39a:	e283      	b.n	0x8a4
     39c:	4001      	ands	r1, r0
     39e:	e5c3      	b.n	0xffffff28
     3a0:	e006      	b.n	0x3b0
     3a2:	e6c2      	b.n	0x12a
     3a4:	1000      	asrs	r0, r0, #32
     3a6:	e041      	b.n	0x42c
     3a8:	0002      	movs	r2, r0
     3aa:	e151      	b.n	0x650
     3ac:	3001      	adds	r0, #1
     3ae:	e283      	b.n	0x8b8
     3b0:	fff5 3aff 			; <UNDEFINED> instruction: 0xfff53aff
     3b4:	3000      	adds	r0, #0
     3b6:	e3a0      	b.n	0xafa
     3b8:	3000      	adds	r0, #0
     3ba:	e5c5      	b.n	0xffffff48
     3bc:	4070      	eors	r0, r6
     3be:	e8bd ff1e 	ldmia.w	sp!, {r1, r2, r3, r4, r8, r9, sl, fp, ip, sp, lr, pc}
     3c2:	e12f      	b.n	0x624
     3c4:	3000      	adds	r0, #0
     3c6:	e3a0      	b.n	0xb0a
     3c8:	ffd8 eaff 			; <UNDEFINED> instruction: 0xffd8eaff
     3cc:	cccd      	ldmia	r4!, {r0, r2, r3, r6, r7}
     3ce:	cccc      	ldmia	r4!, {r2, r3, r6, r7}
     3d0:	1020      	asrs	r0, r4, #32
     3d2:	e59f      	b.n	0xffffff14
     3d4:	3001      	adds	r0, #1
     3d6:	e5d1      	b.n	0xffffff7c
     3d8:	2001      	movs	r0, #1
     3da:	e203      	b.n	0x7e4
     3dc:	00a3      	lsls	r3, r4, #2
     3de:	e152      	b.n	0x686
     3e0:	fffb 1aff 			; <UNDEFINED> instruction: 0xfffb1aff
     3e4:	0000      	movs	r0, r0
     3e6:	e5c1      	b.n	0xffffff6c
     3e8:	3001      	adds	r0, #1
     3ea:	e5d1      	b.n	0xffffff90
     3ec:	3001      	adds	r0, #1
     3ee:	e223      	b.n	0x838
     3f0:	3001      	adds	r0, #1
     3f2:	e5c1      	b.n	0xffffff78
     3f4:	ff1e e12f 	vrhadd.u16	d14, d14, d31
     3f8:	0400      	lsls	r0, r0, #16
     3fa:	0400      	lsls	r0, r0, #16
     3fc:	0009      	movs	r1, r1
     3fe:	e350      	b.n	0xaa2
     400:	00ff      	lsls	r7, r7, #3
     402:	e200      	b.n	0x806
     404:	000b      	movs	r3, r1
     406:	ca00      	ldmia	r2!, {}
     408:	0030      	movs	r0, r6
     40a:	e280      	b.n	0x90e
     40c:	1044      	asrs	r4, r0, #1
     40e:	e59f      	b.n	0xffffff50
     410:	00ff      	lsls	r7, r7, #3
     412:	e200      	b.n	0x816
     414:	3001      	adds	r0, #1
     416:	e5d1      	b.n	0xffffffbc
     418:	2001      	movs	r0, #1
     41a:	e203      	b.n	0x824
     41c:	00a3      	lsls	r3, r4, #2
     41e:	e152      	b.n	0x6c6
     420:	fffb 1aff 			; <UNDEFINED> instruction: 0xfffb1aff
     424:	0000      	movs	r0, r0
     426:	e5c1      	b.n	0xffffffac
     428:	3001      	adds	r0, #1
     42a:	e5d1      	b.n	0xffffffd0
     42c:	3001      	adds	r0, #1
     42e:	e223      	b.n	0x878
     430:	3001      	adds	r0, #1
     432:	e5c1      	b.n	0xffffffb8
     434:	ff1e e12f 	vrhadd.u16	d14, d14, d31
     438:	0057      	lsls	r7, r2, #1
     43a:	e280      	b.n	0x93e
     43c:	1014      	asrs	r4, r2, #32
     43e:	e59f      	b.n	0xffffff80
     440:	00ff      	lsls	r7, r7, #3
     442:	e200      	b.n	0x846
     444:	3001      	adds	r0, #1
     446:	e5d1      	b.n	0xffffffec
     448:	2001      	movs	r0, #1
     44a:	e203      	b.n	0x854
     44c:	00a3      	lsls	r3, r4, #2
     44e:	e152      	b.n	0x6f6
     450:	fffb 1aff 			; <UNDEFINED> instruction: 0xfffb1aff
     454:	fff2 eaff 			; <UNDEFINED> instruction: 0xfff2eaff
     458:	0400      	lsls	r0, r0, #16
     45a:	0400      	lsls	r0, r0, #16
     45c:	c000      	stmia	r0!, {}
     45e:	e5d0      	b.n	0x2
     460:	0000      	movs	r0, r0
     462:	e35c      	b.n	0xb1e
     464:	ff1e 012f 	vrhadd.u16	d0, d14, d31
     468:	102c      	asrs	r4, r5, #32
     46a:	e59f      	b.n	0xffffffac
     46c:	3001      	adds	r0, #1
     46e:	e5d1      	b.n	0x14
     470:	2001      	movs	r0, #1
     472:	e203      	b.n	0x87c
     474:	00a3      	lsls	r3, r4, #2
     476:	e152      	b.n	0x71e
     478:	fffb 1aff 			; <UNDEFINED> instruction: 0xfffb1aff
     47c:	c000      	stmia	r0!, {}
     47e:	e5c1      	b.n	0x4
     480:	3001      	adds	r0, #1
     482:	e5d1      	b.n	0x28
     484:	3001      	adds	r0, #1
     486:	e223      	b.n	0x8d0
     488:	3001      	adds	r0, #1
     48a:	e5c1      	b.n	0x10
     48c:	c001      	stmia	r0!, {r0}
     48e:	e5f0      	b.n	0x72
     490:	0000      	movs	r0, r0
     492:	e35c      	b.n	0xb4e
     494:	fff4 1aff 			; <UNDEFINED> instruction: 0xfff41aff
     498:	ff1e e12f 	vrhadd.u16	d14, d14, d31
     49c:	0400      	lsls	r0, r0, #16
     49e:	0400      	lsls	r0, r0, #16
     4a0:	e004      	b.n	0x4ac
     4a2:	e52d      	b.n	0xffffff00
     4a4:	e004      	b.n	0x4b0
     4a6:	e59d      	b.n	0xffffffe4
     4a8:	c201      	stmia	r2!, {r0}
     4aa:	e1a0      	b.n	0x7ee
     4ac:	250e      	movs	r5, #14
     4ae:	e082      	b.n	0x5b6
     4b0:	1401      	asrs	r1, r0, #16
     4b2:	e06c      	b.n	0x58e
     4b4:	3283      	adds	r2, #131	; 0x83
     4b6:	e082      	b.n	0x5be
     4b8:	1000      	asrs	r0, r0, #32
     4ba:	e081      	b.n	0x5c0
     4bc:	3803      	subs	r0, #3
     4be:	e1a0      	b.n	0x802
     4c0:	1081      	asrs	r1, r0, #2
     4c2:	e1a0      	b.n	0x806
     4c4:	3823      	subs	r0, #35	; 0x23
     4c6:	e1a0      	b.n	0x80a
     4c8:	1406      	asrs	r6, r0, #16
     4ca:	e281      	b.n	0x9d0
     4cc:	30b0      	adds	r0, #176	; 0xb0
     4ce:	e1c1      	b.n	0x854
     4d0:	e004      	b.n	0x4dc
     4d2:	e49d      	b.n	0xfffffe10
     4d4:	ff1e e12f 	vrhadd.u16	d14, d14, d31
     4d8:	2004      	movs	r0, #4
     4da:	e3a0      	b.n	0xc1e
     4dc:	3301      	adds	r3, #1
     4de:	e3a0      	b.n	0xc22
     4e0:	1003      	asrs	r3, r0, #32
     4e2:	e3a0      	b.n	0xc26
     4e4:	0000      	movs	r0, r0
     4e6:	e350      	b.n	0xb8a
     4e8:	1000      	asrs	r0, r0, #32
     4ea:	e5c3      	b.n	0x74
     4ec:	2001      	movs	r0, #1
     4ee:	e5c3      	b.n	0x78
     4f0:	3406      	adds	r4, #6
     4f2:	e3a0      	b.n	0xc36
     4f4:	201f      	movs	r0, #31
     4f6:	13a0      	asrs	r0, r4, #14
     4f8:	2e3e      	cmp	r6, #62	; 0x3e
     4fa:	03a0      	lsls	r0, r4, #14
     4fc:	20b0      	movs	r0, #176	; 0xb0
     4fe:	e1c3      	b.n	0x888
     500:	fffe eaff 			; <UNDEFINED> instruction: 0xfffeeaff
     504:	000f      	movs	r7, r1
     506:	e92d 40f0 	stmdb	sp!, {r4, r5, r6, r7, lr}
     50a:	e92d d00c 	stmdb	sp!, {r2, r3, ip, lr, pc}
     50e:	e24d      	b.n	0x9ac
     510:	1020      	asrs	r0, r4, #32
     512:	e59d      	b.n	0x50
     514:	0000      	movs	r0, r0
     516:	e5d1      	b.n	0xbc
     518:	3024      	adds	r0, #36	; 0x24
     51a:	e28d      	b.n	0xa38
     51c:	0000      	movs	r0, r0
     51e:	e350      	b.n	0xbc2
     520:	3004      	adds	r0, #4
     522:	e58d      	b.n	0x40
     524:	41a0      	sbcs	r0, r4
     526:	e59f      	b.n	0x68
     528:	51a0      	str	r0, [r4, r6]
     52a:	e59f      	b.n	0x6c
     52c:	6025      	str	r5, [r4, #0]
     52e:	e3a0      	b.n	0xc72
     530:	002d      	movs	r5, r5
     532:	0a00      	lsrs	r0, r0, #8
     534:	0025      	movs	r5, r4
     536:	e350      	b.n	0xbda
     538:	001e      	movs	r6, r3
     53a:	1a00      	subs	r0, r0, r0
     53c:	3001      	adds	r0, #1
     53e:	e5d1      	b.n	0xe4
     540:	0064      	lsls	r4, r4, #1
     542:	e353      	b.n	0xbec
     544:	7002      	strb	r2, [r0, #0]
     546:	e281      	b.n	0xa4c
     548:	0036      	movs	r6, r6
     54a:	0a00      	lsrs	r0, r0, #8
     54c:	002a      	movs	r2, r5
     54e:	9a00      	ldr	r2, [sp, #0]
     550:	0073      	lsls	r3, r6, #1
     552:	e353      	b.n	0xbfc
     554:	0049      	lsls	r1, r1, #1
     556:	0a00      	lsrs	r0, r0, #8
     558:	0075      	lsls	r5, r6, #1
     55a:	e353      	b.n	0xc04
     55c:	001e      	movs	r6, r3
     55e:	1a00      	subs	r0, r0, r0
     560:	3004      	adds	r0, #4
     562:	e59d      	b.n	0xa0
     564:	0164      	lsls	r4, r4, #5
     566:	e59f      	b.n	0xa8
     568:	2004      	movs	r0, #4
     56a:	e283      	b.n	0xa74
     56c:	1000      	asrs	r0, r0, #32
     56e:	e593      	b.n	0x98
     570:	2004      	movs	r0, #4
     572:	e58d      	b.n	0x90
     574:	ff2b ebff 	vqrdmlah.s32	q7, <illegal reg q13.5>, <illegal reg q15.5>
     578:	1000      	asrs	r0, r0, #32
     57a:	e5d5      	b.n	0x128
     57c:	0000      	movs	r0, r0
     57e:	e351      	b.n	0xc24
     580:	0015      	movs	r5, r2
     582:	0a00      	lsrs	r0, r0, #8
     584:	0148      	lsls	r0, r1, #5
     586:	e59f      	b.n	0xc8
     588:	3001      	adds	r0, #1
     58a:	e5d4      	b.n	0x136
     58c:	2001      	movs	r0, #1
     58e:	e203      	b.n	0x998
     590:	00a3      	lsls	r3, r4, #2
     592:	e152      	b.n	0x83a
     594:	fffb 1aff 			; <UNDEFINED> instruction: 0xfffb1aff
     598:	1000      	asrs	r0, r0, #32
     59a:	e5c4      	b.n	0x126
     59c:	3001      	adds	r0, #1
     59e:	e5d4      	b.n	0x14a
     5a0:	3001      	adds	r0, #1
     5a2:	e223      	b.n	0x9ec
     5a4:	3001      	adds	r0, #1
     5a6:	e5c4      	b.n	0x132
     5a8:	1001      	asrs	r1, r0, #32
     5aa:	e4d0      	b.n	0xffffff4e
     5ac:	0000      	movs	r0, r0
     5ae:	e351      	b.n	0xc54
     5b0:	fff4 1aff 			; <UNDEFINED> instruction: 0xfff41aff
     5b4:	0008      	movs	r0, r1
     5b6:	ea00 3001 	and.w	r0, r0, r1, lsl #12
     5ba:	e5d4      	b.n	0x166
     5bc:	2001      	movs	r0, #1
     5be:	e203      	b.n	0x9c8
     5c0:	00a3      	lsls	r3, r4, #2
     5c2:	e152      	b.n	0x86a
     5c4:	fffb 1aff 			; <UNDEFINED> instruction: 0xfffb1aff
     5c8:	0000      	movs	r0, r0
     5ca:	e5c4      	b.n	0x156
     5cc:	3001      	adds	r0, #1
     5ce:	e5d4      	b.n	0x17a
     5d0:	3001      	adds	r0, #1
     5d2:	e223      	b.n	0xa1c
     5d4:	3001      	adds	r0, #1
     5d6:	e5c4      	b.n	0x162
     5d8:	7001      	strb	r1, [r0, #0]
     5da:	e281      	b.n	0xae0
     5dc:	1007      	asrs	r7, r0, #32
     5de:	e1a0      	b.n	0x922
     5e0:	0000      	movs	r0, r0
     5e2:	e5d1      	b.n	0x188
     5e4:	0000      	movs	r0, r0
     5e6:	e350      	b.n	0xc8a
     5e8:	ffd1 1aff 			; <UNDEFINED> instruction: 0xffd11aff
     5ec:	d00c      	beq.n	0x608
     5ee:	e28d      	b.n	0xb0c
     5f0:	40f0      	lsrs	r0, r6
     5f2:	e8bd d010 	ldmia.w	sp!, {r4, ip, lr, pc}
     5f6:	e28d      	b.n	0xb14
     5f8:	ff1e e12f 	vrhadd.u16	d14, d14, d31
     5fc:	0025      	movs	r5, r4
     5fe:	e353      	b.n	0xca8
     600:	fff5 1aff 			; <UNDEFINED> instruction: 0xfff51aff
     604:	3001      	adds	r0, #1
     606:	e5d4      	b.n	0x1b2
     608:	2001      	movs	r0, #1
     60a:	e203      	b.n	0xa14
     60c:	00a3      	lsls	r3, r4, #2
     60e:	e152      	b.n	0x8b6
     610:	fffb 1aff 			; <UNDEFINED> instruction: 0xfffb1aff
     614:	6000      	str	r0, [r0, #0]
     616:	e5c4      	b.n	0x1a2
     618:	3001      	adds	r0, #1
     61a:	e5d4      	b.n	0x1c6
     61c:	3001      	adds	r0, #1
     61e:	e223      	b.n	0xa68
     620:	3001      	adds	r0, #1
     622:	e5c4      	b.n	0x1ae
     624:	ffec eaff 			; <UNDEFINED> instruction: 0xffeceaff
     628:	3004      	adds	r0, #4
     62a:	e59d      	b.n	0x168
     62c:	009c      	lsls	r4, r3, #2
     62e:	e59f      	b.n	0x170
     630:	2004      	movs	r0, #4
     632:	e283      	b.n	0xb3c
     634:	1000      	asrs	r0, r0, #32
     636:	e593      	b.n	0x160
     638:	2004      	movs	r0, #4
     63a:	e58d      	b.n	0x158
     63c:	ff2c ebff 	vqrdmlah.s32	q7, q14, <illegal reg q15.5>
     640:	1000      	asrs	r0, r0, #32
     642:	e5d5      	b.n	0x1f0
     644:	0000      	movs	r0, r0
     646:	e351      	b.n	0xcec
     648:	ffe3 0aff 			; <UNDEFINED> instruction: 0xffe30aff
     64c:	0080      	lsls	r0, r0, #2
     64e:	e59f      	b.n	0x190
     650:	3001      	adds	r0, #1
     652:	e5d4      	b.n	0x1fe
     654:	2001      	movs	r0, #1
     656:	e203      	b.n	0xa60
     658:	00a3      	lsls	r3, r4, #2
     65a:	e152      	b.n	0x902
     65c:	fffb 1aff 			; <UNDEFINED> instruction: 0xfffb1aff
     660:	1000      	asrs	r0, r0, #32
     662:	e5c4      	b.n	0x1ee
     664:	3001      	adds	r0, #1
     666:	e5d4      	b.n	0x212
     668:	3001      	adds	r0, #1
     66a:	e223      	b.n	0xab4
     66c:	3001      	adds	r0, #1
     66e:	e5c4      	b.n	0x1fa
     670:	1001      	asrs	r1, r0, #32
     672:	e4d0      	b.n	0x16
     674:	0000      	movs	r0, r0
     676:	e351      	b.n	0xd1c
     678:	fff4 1aff 			; <UNDEFINED> instruction: 0xfff41aff
     67c:	ffd6 eaff 			; <UNDEFINED> instruction: 0xffd6eaff
     680:	3004      	adds	r0, #4
     682:	e59d      	b.n	0x1c0
     684:	0000      	movs	r0, r0
     686:	e593      	b.n	0x1b0
     688:	1000      	asrs	r0, r0, #32
     68a:	e5d0      	b.n	0x22e
     68c:	3004      	adds	r0, #4
     68e:	e283      	b.n	0xb98
     690:	0000      	movs	r0, r0
     692:	e351      	b.n	0xd38
     694:	3004      	adds	r0, #4
     696:	e58d      	b.n	0x1b4
     698:	ffcf 0aff 			; <UNDEFINED> instruction: 0xffcf0aff
     69c:	3001      	adds	r0, #1
     69e:	e5d4      	b.n	0x24a
     6a0:	2001      	movs	r0, #1
     6a2:	e203      	b.n	0xaac
     6a4:	00a3      	lsls	r3, r4, #2
     6a6:	e152      	b.n	0x94e
     6a8:	fffb 1aff 			; <UNDEFINED> instruction: 0xfffb1aff
     6ac:	1000      	asrs	r0, r0, #32
     6ae:	e5c4      	b.n	0x23a
     6b0:	3001      	adds	r0, #1
     6b2:	e5d4      	b.n	0x25e
     6b4:	3001      	adds	r0, #1
     6b6:	e223      	b.n	0xb00
     6b8:	3001      	adds	r0, #1
     6ba:	e5c4      	b.n	0x246
     6bc:	1001      	asrs	r1, r0, #32
     6be:	e5f0      	b.n	0x2a2
     6c0:	0000      	movs	r0, r0
     6c2:	e351      	b.n	0xd68
     6c4:	fff4 1aff 			; <UNDEFINED> instruction: 0xfff41aff
     6c8:	ffc3 eaff 			; <UNDEFINED> instruction: 0xffc3eaff
     6cc:	0400      	lsls	r0, r0, #16
     6ce:	0400      	lsls	r0, r0, #16
     6d0:	001c      	movs	r4, r3
     6d2:	0300      	lsls	r0, r0, #12
     6d4:	001d      	movs	r5, r3
     6d6:	0300      	lsls	r0, r0, #12
     6d8:	0000      	movs	r0, r0
     6da:	e3a0      	b.n	0xe1e
     6dc:	ff1e e12f 	vrhadd.u16	d14, d14, d31
     6e0:	000e      	movs	r6, r1
     6e2:	e92d 47f0 	stmdb	sp!, {r4, r5, r6, r7, r8, r9, sl, lr}
     6e6:	e92d 9000 	stmdb	sp!, {ip, pc}
     6ea:	e1a0      	b.n	0xa2e
     6ec:	6000      	str	r0, [r0, #0]
     6ee:	e1a0      	b.n	0xa32
     6f0:	5000      	str	r0, [r0, r0]
     6f2:	e3a0      	b.n	0xe36
     6f4:	d00c      	beq.n	0x710
     6f6:	e24d      	b.n	0xb94
     6f8:	3030      	adds	r0, #48	; 0x30
     6fa:	e28d      	b.n	0xc18
     6fc:	a168      	add	r1, pc, #416	; (adr r1, 0x8a0)
     6fe:	e59f      	b.n	0x240
     700:	3004      	adds	r0, #4
     702:	e58d      	b.n	0x220
     704:	302c      	adds	r0, #44	; 0x2c
     706:	e59d      	b.n	0x244
     708:	7002      	strb	r2, [r0, #0]
     70a:	e260      	b.n	0xbce
     70c:	8064      	strh	r4, [r4, #2]
     70e:	e28a      	b.n	0xc26
     710:	2000      	movs	r0, #0
     712:	e5d3      	b.n	0x2bc
     714:	0000      	movs	r0, r0
     716:	e352      	b.n	0xdbe
     718:	0008      	movs	r0, r1
     71a:	0a00      	lsrs	r0, r0, #8
     71c:	0025      	movs	r5, r4
     71e:	e352      	b.n	0xdc6
     720:	000c      	movs	r4, r1
     722:	0a00      	lsrs	r0, r0, #8
     724:	2000      	movs	r0, #0
     726:	e5c6      	b.n	0x2b6
     728:	3001      	adds	r0, #1
     72a:	e283      	b.n	0xc34
     72c:	2000      	movs	r0, #0
     72e:	e5d3      	b.n	0x2d8
     730:	5001      	str	r1, [r0, r0]
     732:	e285      	b.n	0xc40
     734:	0000      	movs	r0, r0
     736:	e352      	b.n	0xdde
     738:	6005      	str	r5, [r0, #0]
     73a:	e089      	b.n	0x850
     73c:	fff6 1aff 			; <UNDEFINED> instruction: 0xfff61aff
     740:	0005      	movs	r5, r0
     742:	e1a0      	b.n	0xa86
     744:	2000      	movs	r0, #0
     746:	e5c6      	b.n	0x2d6
     748:	d00c      	beq.n	0x764
     74a:	e28d      	b.n	0xc68
     74c:	47f0      	blx	lr
     74e:	e8bd d00c 	ldmia.w	sp!, {r2, r3, ip, lr, pc}
     752:	e28d      	b.n	0xc70
     754:	ff1e e12f 	vrhadd.u16	d14, d14, d31
     758:	2001      	movs	r0, #1
     75a:	e5d3      	b.n	0x304
     75c:	0064      	lsls	r4, r4, #1
     75e:	e352      	b.n	0xe06
     760:	4002      	ands	r2, r0
     762:	e283      	b.n	0xc6c
     764:	0016      	movs	r6, r2
     766:	0a00      	lsrs	r0, r0, #8
     768:	0020      	movs	r0, r4
     76a:	9a00      	ldr	r2, [sp, #0]
     76c:	0073      	lsls	r3, r6, #1
     76e:	e352      	b.n	0xe16
     770:	0025      	movs	r5, r4
     772:	0a00      	lsrs	r0, r0, #8
     774:	0075      	lsls	r5, r6, #1
     776:	e352      	b.n	0xe1e
     778:	001a      	movs	r2, r3
     77a:	1a00      	subs	r0, r0, r0
     77c:	3004      	adds	r0, #4
     77e:	e59d      	b.n	0x2bc
     780:	0008      	movs	r0, r1
     782:	e1a0      	b.n	0xac6
     784:	2004      	movs	r0, #4
     786:	e283      	b.n	0xc90
     788:	1000      	asrs	r0, r0, #32
     78a:	e593      	b.n	0x2b4
     78c:	2004      	movs	r0, #4
     78e:	e58d      	b.n	0x2ac
     790:	fea4 ebff 			; <UNDEFINED> instruction: 0xfea4ebff
     794:	2064      	movs	r0, #100	; 0x64
     796:	e5da      	b.n	0x34e
     798:	0000      	movs	r0, r0
     79a:	e352      	b.n	0xe42
     79c:	0011      	movs	r1, r2
     79e:	0a00      	lsrs	r0, r0, #8
     7a0:	5001      	str	r1, [r0, r0]
     7a2:	e245      	b.n	0xc30
     7a4:	10c4      	asrs	r4, r0, #3
     7a6:	e59f      	b.n	0x2e8
     7a8:	3005      	adds	r0, #5
     7aa:	e089      	b.n	0x8c0
     7ac:	5003      	str	r3, [r0, r0]
     7ae:	e087      	b.n	0x8c0
     7b0:	2001      	movs	r0, #1
     7b2:	e5e3      	b.n	0x37c
     7b4:	2001      	movs	r0, #1
     7b6:	e4d1      	b.n	0x15c
     7b8:	0000      	movs	r0, r0
     7ba:	e352      	b.n	0xe62
     7bc:	fffa 1aff 			; <UNDEFINED> instruction: 0xfffa1aff
     7c0:	000e      	movs	r6, r1
     7c2:	ea00 3004 	and.w	r0, r0, r4, lsl #12
     7c6:	e59d      	b.n	0x304
     7c8:	0008      	movs	r0, r1
     7ca:	e1a0      	b.n	0xb0e
     7cc:	2004      	movs	r0, #4
     7ce:	e283      	b.n	0xcd8
     7d0:	1000      	asrs	r0, r0, #32
     7d2:	e593      	b.n	0x2fc
     7d4:	2004      	movs	r0, #4
     7d6:	e58d      	b.n	0x2f4
     7d8:	fec5 ebff 			; <UNDEFINED> instruction: 0xfec5ebff
     7dc:	2064      	movs	r0, #100	; 0x64
     7de:	e5da      	b.n	0x396
     7e0:	0000      	movs	r0, r0
     7e2:	e352      	b.n	0xe8a
     7e4:	0017      	movs	r7, r2
     7e6:	1a00      	subs	r0, r0, r0
     7e8:	3004      	adds	r0, #4
     7ea:	e1a0      	b.n	0xb2e
     7ec:	ffc7 eaff 			; <UNDEFINED> instruction: 0xffc7eaff
     7f0:	0025      	movs	r5, r4
     7f2:	e352      	b.n	0xe9a
     7f4:	5001      	str	r1, [r0, r0]
     7f6:	0285      	lsls	r5, r0, #10
     7f8:	2000      	movs	r0, #0
     7fa:	05c6      	lsls	r6, r0, #23
     7fc:	fff9 1aff 			; <UNDEFINED> instruction: 0xfff91aff
     800:	3004      	adds	r0, #4
     802:	e1a0      	b.n	0xb46
     804:	6005      	str	r5, [r0, #0]
     806:	e089      	b.n	0x91c
     808:	ffc0 eaff 			; <UNDEFINED> instruction: 0xffc0eaff
     80c:	3004      	adds	r0, #4
     80e:	e59d      	b.n	0x34c
     810:	1000      	asrs	r0, r0, #32
     812:	e593      	b.n	0x33c
     814:	2000      	movs	r0, #0
     816:	e5d1      	b.n	0x3bc
     818:	3004      	adds	r0, #4
     81a:	e283      	b.n	0xd24
     81c:	0000      	movs	r0, r0
     81e:	e352      	b.n	0xec6
     820:	3004      	adds	r0, #4
     822:	e58d      	b.n	0x340
     824:	ffef 0aff 			; <UNDEFINED> instruction: 0xffef0aff
     828:	5001      	str	r1, [r0, r0]
     82a:	e245      	b.n	0xcb8
     82c:	3005      	adds	r0, #5
     82e:	e089      	b.n	0x944
     830:	5003      	str	r3, [r0, r0]
     832:	e087      	b.n	0x944
     834:	2001      	movs	r0, #1
     836:	e5e3      	b.n	0x400
     838:	2001      	movs	r0, #1
     83a:	e5f1      	b.n	0x420
     83c:	0000      	movs	r0, r0
     83e:	e352      	b.n	0xee6
     840:	fffa 1aff 			; <UNDEFINED> instruction: 0xfffa1aff
     844:	ffed eaff 			; <UNDEFINED> instruction: 0xffedeaff
     848:	5001      	str	r1, [r0, r0]
     84a:	e245      	b.n	0xcd8
     84c:	101c      	asrs	r4, r3, #32
     84e:	e59f      	b.n	0x390
     850:	3005      	adds	r0, #5
     852:	e089      	b.n	0x968
     854:	5003      	str	r3, [r0, r0]
     856:	e087      	b.n	0x968
     858:	2001      	movs	r0, #1
     85a:	e5e3      	b.n	0x424
     85c:	2001      	movs	r0, #1
     85e:	e4d1      	b.n	0x204
     860:	0000      	movs	r0, r0
     862:	e352      	b.n	0xf0a
     864:	fffa 1aff 			; <UNDEFINED> instruction: 0xfffa1aff
     868:	ffe4 eaff 			; <UNDEFINED> instruction: 0xffe4eaff
     86c:	001c      	movs	r4, r3
     86e:	0300      	lsls	r0, r0, #12
     870:	0081      	lsls	r1, r0, #2
     872:	0300      	lsls	r0, r0, #12
     874:	000c      	movs	r4, r1
     876:	e92d 0000 	stmdb	sp!, {}
     87a:	e3a0      	b.n	0xfbe
     87c:	d008      	beq.n	0x890
     87e:	e28d      	b.n	0xd9c
     880:	ff1e e12f 	vrhadd.u16	d14, d14, d31
     884:	3000      	adds	r0, #0
     886:	e5d0      	b.n	0x42a
     888:	0000      	movs	r0, r0
     88a:	e353      	b.n	0xf34
     88c:	0006      	movs	r6, r0
     88e:	0a00      	lsrs	r0, r0, #8
     890:	3000      	adds	r0, #0
     892:	e1a0      	b.n	0xbd6
     894:	1001      	asrs	r1, r0, #32
     896:	e260      	b.n	0xd5a
     898:	0003      	movs	r3, r0
     89a:	e081      	b.n	0x9a0
     89c:	2001      	movs	r0, #1
     89e:	e5f3      	b.n	0x488
     8a0:	0000      	movs	r0, r0
     8a2:	e352      	b.n	0xf4a
     8a4:	fffb 1aff 			; <UNDEFINED> instruction: 0xfffb1aff
     8a8:	ff1e e12f 	vrhadd.u16	d14, d14, d31
     8ac:	0003      	movs	r3, r0
     8ae:	e1a0      	b.n	0xbf2
     8b0:	ff1e e12f 	vrhadd.u16	d14, d14, d31
     8b4:	c000      	stmia	r0!, {}
     8b6:	e5d1      	b.n	0x45c
     8b8:	0000      	movs	r0, r0
     8ba:	e35c      	b.n	0xf76
     8bc:	000b      	movs	r3, r1
     8be:	0a00      	lsrs	r0, r0, #8
     8c0:	3001      	adds	r0, #1
     8c2:	e240      	b.n	0xd46
     8c4:	c001      	stmia	r0!, {r0}
     8c6:	e5c3      	b.n	0x450
     8c8:	c001      	stmia	r0!, {r0}
     8ca:	e5f1      	b.n	0x4b0
     8cc:	2002      	movs	r0, #2
     8ce:	e283      	b.n	0xdd8
     8d0:	0000      	movs	r0, r0
     8d2:	e35c      	b.n	0xf8e
     8d4:	2000      	movs	r0, #0
     8d6:	e042      	b.n	0x95e
     8d8:	3001      	adds	r0, #1
     8da:	e283      	b.n	0xde4
     8dc:	fff8 1aff 			; <UNDEFINED> instruction: 0xfff81aff
     8e0:	2002      	movs	r0, #2
     8e2:	e080      	b.n	0x9e6
     8e4:	3000      	adds	r0, #0
     8e6:	e3a0      	b.n	0x102a
     8e8:	3000      	adds	r0, #0
     8ea:	e5c2      	b.n	0x472
     8ec:	ff1e e12f 	vrhadd.u16	d14, d14, d31
     8f0:	2000      	movs	r0, #0
     8f2:	e1a0      	b.n	0xc36
     8f4:	fffa eaff 			; <UNDEFINED> instruction: 0xfffaeaff
     8f8:	0000      	movs	r0, r0
     8fa:	e352      	b.n	0xfa2
     8fc:	ff1e 012f 	vrhadd.u16	d0, d14, d31
     900:	4010      	ands	r0, r2
     902:	e92d e000 	stmdb	sp!, {sp, lr, pc}
     906:	e5d1      	b.n	0x4ac
     908:	0000      	movs	r0, r0
     90a:	e35e      	b.n	0xfca
     90c:	0013      	movs	r3, r2
     90e:	0a00      	lsrs	r0, r0, #8
     910:	3001      	adds	r0, #1
     912:	e240      	b.n	0xd96
     914:	2002      	movs	r0, #2
     916:	e083      	b.n	0xa20
     918:	0003      	movs	r3, r0
     91a:	ea00 e001 			; <UNDEFINED> instruction: 0xea00e001
     91e:	e5f1      	b.n	0x504
     920:	0000      	movs	r0, r0
     922:	e35e      	b.n	0xfe2
     924:	3004      	adds	r0, #4
     926:	e1a0      	b.n	0xc6a
     928:	0007      	movs	r7, r0
     92a:	0a00      	lsrs	r0, r0, #8
     92c:	4001      	ands	r1, r0
     92e:	e283      	b.n	0xe38
     930:	c002      	stmia	r0!, {r1}
     932:	e283      	b.n	0xe3c
     934:	0002      	movs	r2, r0
     936:	e154      	b.n	0xbe2
     938:	e001      	b.n	0x93e
     93a:	e5c3      	b.n	0x4c4
     93c:	c000      	stmia	r0!, {}
     93e:	e04c      	b.n	0x9da
     940:	fff5 1aff 			; <UNDEFINED> instruction: 0xfff51aff
     944:	4010      	ands	r0, r2
     946:	e8bd ff1e 	ldmia.w	sp!, {r1, r2, r3, r4, r8, r9, sl, fp, ip, sp, lr, pc}
     94a:	e12f      	b.n	0xbac
     94c:	c00c      	stmia	r0!, {r2, r3}
     94e:	e080      	b.n	0xa52
     950:	3000      	adds	r0, #0
     952:	e3a0      	b.n	0x1096
     954:	3000      	adds	r0, #0
     956:	e5cc      	b.n	0x4f2
     958:	4010      	ands	r0, r2
     95a:	e8bd ff1e 	ldmia.w	sp!, {r1, r2, r3, r4, r8, r9, sl, fp, ip, sp, lr, pc}
     95e:	e12f      	b.n	0xbc0
     960:	c000      	stmia	r0!, {}
     962:	e1a0      	b.n	0xca6
     964:	fff9 eaff 			; <UNDEFINED> instruction: 0xfff9eaff
     968:	2000      	movs	r0, #0
     96a:	e5d0      	b.n	0x50e
     96c:	0000      	movs	r0, r0
     96e:	e352      	b.n	0x1016
     970:	4010      	ands	r0, r2
     972:	e92d 0018 	stmdb	sp!, {r3, r4}
     976:	0a00      	lsrs	r0, r0, #8
     978:	2000      	movs	r0, #0
     97a:	e3a0      	b.n	0x10be
     97c:	3001      	adds	r0, #1
     97e:	e280      	b.n	0xe82
     980:	e000      	b.n	0x984
     982:	e5d3      	b.n	0x52c
     984:	0000      	movs	r0, r0
     986:	e35e      	b.n	0x1046
     988:	c003      	stmia	r0!, {r0, r1}
     98a:	e1a0      	b.n	0xcce
     98c:	2001      	movs	r0, #1
     98e:	e282      	b.n	0xe96
     990:	3001      	adds	r0, #1
     992:	e283      	b.n	0xe9c
     994:	fff9 1aff 			; <UNDEFINED> instruction: 0xfff91aff
     998:	3000      	adds	r0, #0
     99a:	e5d1      	b.n	0x540
     99c:	0000      	movs	r0, r0
     99e:	e353      	b.n	0x1048
     9a0:	0009      	movs	r1, r1
     9a2:	0a00      	lsrs	r0, r0, #8
     9a4:	c001      	stmia	r0!, {r0}
     9a6:	e242      	b.n	0xe2e
     9a8:	4001      	ands	r1, r0
     9aa:	e261      	b.n	0xe70
     9ac:	c00c      	stmia	r0!, {r2, r3}
     9ae:	e080      	b.n	0xab2
     9b0:	3001      	adds	r0, #1
     9b2:	e5ec      	b.n	0x58e
     9b4:	e001      	b.n	0x9ba
     9b6:	e084      	b.n	0xac2
     9b8:	3001      	adds	r0, #1
     9ba:	e5f1      	b.n	0x5a0
     9bc:	0000      	movs	r0, r0
     9be:	e353      	b.n	0x1068
     9c0:	fffa 1aff 			; <UNDEFINED> instruction: 0xfffa1aff
     9c4:	200e      	movs	r0, #14
     9c6:	e082      	b.n	0xace
     9c8:	c002      	stmia	r0!, {r1}
     9ca:	e080      	b.n	0xace
     9cc:	3000      	adds	r0, #0
     9ce:	e3a0      	b.n	0x1112
     9d0:	3000      	adds	r0, #0
     9d2:	e5cc      	b.n	0x56e
     9d4:	4010      	ands	r0, r2
     9d6:	e8bd ff1e 	ldmia.w	sp!, {r1, r2, r3, r4, r8, r9, sl, fp, ip, sp, lr, pc}
     9da:	e12f      	b.n	0xc3c
     9dc:	c000      	stmia	r0!, {}
     9de:	e1a0      	b.n	0xd22
     9e0:	ffec eaff 			; <UNDEFINED> instruction: 0xffeceaff
     9e4:	3000      	adds	r0, #0
     9e6:	e5d0      	b.n	0x58a
     9e8:	2000      	movs	r0, #0
     9ea:	e5d1      	b.n	0x590
     9ec:	0003      	movs	r3, r0
     9ee:	e152      	b.n	0xc96
     9f0:	0008      	movs	r0, r1
     9f2:	1a00      	subs	r0, r0, r0
     9f4:	0000      	movs	r0, r0
     9f6:	e352      	b.n	0x109e
     9f8:	0002      	movs	r2, r0
     9fa:	1a00      	subs	r0, r0, r0
     9fc:	000b      	movs	r3, r1
     9fe:	ea00 0000 	and.w	r0, r0, r0
     a02:	e353      	b.n	0x10ac
     a04:	0007      	movs	r7, r0
     a06:	0a00      	lsrs	r0, r0, #8
     a08:	3001      	adds	r0, #1
     a0a:	e5f0      	b.n	0x5ee
     a0c:	2001      	movs	r0, #1
     a0e:	e5f1      	b.n	0x5f4
     a10:	0002      	movs	r2, r0
     a12:	e153      	b.n	0xcbc
     a14:	fff9 0aff 			; <UNDEFINED> instruction: 0xfff90aff
     a18:	0002      	movs	r2, r0
     a1a:	e153      	b.n	0xcc4
     a1c:	0000      	movs	r0, r0
     a1e:	33e0      	adds	r3, #224	; 0xe0
     a20:	0001      	movs	r1, r0
     a22:	23a0      	movs	r3, #160	; 0xa0
     a24:	ff1e e12f 	vrhadd.u16	d14, d14, d31
     a28:	0003      	movs	r3, r0
     a2a:	e1a0      	b.n	0xd6e
     a2c:	ff1e e12f 	vrhadd.u16	d14, d14, d31
     a30:	0002      	movs	r2, r0
     a32:	e1a0      	b.n	0xd76
     a34:	ff1e e12f 	vrhadd.u16	d14, d14, d31
     a38:	0000      	movs	r0, r0
     a3a:	e352      	b.n	0x10e2
     a3c:	0010      	movs	r0, r2
     a3e:	0a00      	lsrs	r0, r0, #8
     a40:	3000      	adds	r0, #0
     a42:	e5d0      	b.n	0x5e6
     a44:	c000      	stmia	r0!, {}
     a46:	e5d1      	b.n	0x5ec
     a48:	0003      	movs	r3, r0
     a4a:	e15c      	b.n	0xd06
     a4c:	000e      	movs	r6, r1
     a4e:	1a00      	subs	r0, r0, r0
     a50:	0000      	movs	r0, r0
     a52:	e35c      	b.n	0x110e
     a54:	000a      	movs	r2, r1
     a56:	0a00      	lsrs	r0, r0, #8
     a58:	2002      	movs	r0, #2
     a5a:	e080      	b.n	0xb5e
     a5c:	2001      	movs	r0, #1
     a5e:	e242      	b.n	0xee6
     a60:	0005      	movs	r5, r0
     a62:	ea00 3001 	and.w	r0, r0, r1, lsl #12
     a66:	e5f0      	b.n	0x64a
     a68:	c001      	stmia	r0!, {r0}
     a6a:	e5f1      	b.n	0x650
     a6c:	000c      	movs	r4, r1
     a6e:	e153      	b.n	0xd18
     a70:	0005      	movs	r5, r0
     a72:	1a00      	subs	r0, r0, r0
     a74:	0000      	movs	r0, r0
     a76:	e353      	b.n	0x1120
     a78:	0001      	movs	r1, r0
     a7a:	0a00      	lsrs	r0, r0, #8
     a7c:	0002      	movs	r2, r0
     a7e:	e150      	b.n	0xd22
     a80:	fff7 1aff 			; <UNDEFINED> instruction: 0xfff71aff
     a84:	0000      	movs	r0, r0
     a86:	e3a0      	b.n	0x11ca
     a88:	ff1e e12f 	vrhadd.u16	d14, d14, d31
     a8c:	000c      	movs	r4, r1
     a8e:	e153      	b.n	0xd38
     a90:	0000      	movs	r0, r0
     a92:	33e0      	adds	r3, #224	; 0xe0
     a94:	0001      	movs	r1, r0
     a96:	23a0      	movs	r3, #160	; 0xa0
     a98:	ff1e e12f 	vrhadd.u16	d14, d14, d31
     a9c:	0000      	movs	r0, r0
     a9e:	e352      	b.n	0x1146
     aa0:	ff1e 012f 	vrhadd.u16	d0, d14, d31
     aa4:	2002      	movs	r0, #2
     aa6:	e080      	b.n	0xbaa
     aa8:	2001      	movs	r0, #1
     aaa:	e242      	b.n	0xf32
     aac:	10ff      	asrs	r7, r7, #3
     aae:	e201      	b.n	0xeb4
     ab0:	3001      	adds	r0, #1
     ab2:	e240      	b.n	0xf36
     ab4:	1001      	asrs	r1, r0, #32
     ab6:	e5e3      	b.n	0x680
     ab8:	0002      	movs	r2, r0
     aba:	e153      	b.n	0xd64
     abc:	fffc 1aff 			; <UNDEFINED> instruction: 0xfffc1aff
     ac0:	ff1e e12f 	vrhadd.u16	d14, d14, d31
     ac4:	0000      	movs	r0, r0
     ac6:	e352      	b.n	0x116e
     ac8:	ff1e 012f 	vrhadd.u16	d0, d14, d31
     acc:	2002      	movs	r0, #2
     ace:	e081      	b.n	0xbd4
     ad0:	c001      	stmia	r0!, {r0}
     ad2:	e242      	b.n	0xf5a
     ad4:	1001      	asrs	r1, r0, #32
     ad6:	e241      	b.n	0xf5c
     ad8:	3001      	adds	r0, #1
     ada:	e240      	b.n	0xf5e
     adc:	2001      	movs	r0, #1
     ade:	e5f1      	b.n	0x6c4
     ae0:	000c      	movs	r4, r1
     ae2:	e151      	b.n	0xd88
     ae4:	2001      	movs	r0, #1
     ae6:	e5e3      	b.n	0x6b0
     ae8:	fffb 1aff 			; <UNDEFINED> instruction: 0xfffb1aff
     aec:	ff1e e12f 	vrhadd.u16	d14, d14, d31
     af0:	0000      	movs	r0, r0
     af2:	e352      	b.n	0x119a
     af4:	0010      	movs	r0, r2
     af6:	0a00      	lsrs	r0, r0, #8
     af8:	3000      	adds	r0, #0
     afa:	e5d0      	b.n	0x69e
     afc:	c000      	stmia	r0!, {}
     afe:	e5d1      	b.n	0x6a4
     b00:	0003      	movs	r3, r0
     b02:	e15c      	b.n	0xdbe
     b04:	000e      	movs	r6, r1
     b06:	1a00      	subs	r0, r0, r0
     b08:	0000      	movs	r0, r0
     b0a:	e35c      	b.n	0x11c6
     b0c:	000a      	movs	r2, r1
     b0e:	0a00      	lsrs	r0, r0, #8
     b10:	2002      	movs	r0, #2
     b12:	e080      	b.n	0xc16
     b14:	2001      	movs	r0, #1
     b16:	e242      	b.n	0xf9e
     b18:	0005      	movs	r5, r0
     b1a:	ea00 3001 	and.w	r0, r0, r1, lsl #12
     b1e:	e5f0      	b.n	0x702
     b20:	c001      	stmia	r0!, {r0}
     b22:	e5f1      	b.n	0x708
     b24:	000c      	movs	r4, r1
     b26:	e153      	b.n	0xdd0
     b28:	0005      	movs	r5, r0
     b2a:	1a00      	subs	r0, r0, r0
     b2c:	0000      	movs	r0, r0
     b2e:	e353      	b.n	0x11d8
     b30:	0001      	movs	r1, r0
     b32:	0a00      	lsrs	r0, r0, #8
     b34:	0002      	movs	r2, r0
     b36:	e150      	b.n	0xdda
     b38:	fff7 1aff 			; <UNDEFINED> instruction: 0xfff71aff
     b3c:	0000      	movs	r0, r0
     b3e:	e3a0      	b.n	0x1282
     b40:	ff1e e12f 	vrhadd.u16	d14, d14, d31
     b44:	000c      	movs	r4, r1
     b46:	e153      	b.n	0xdf0
     b48:	0000      	movs	r0, r0
     b4a:	33e0      	adds	r3, #224	; 0xe0
     b4c:	0001      	movs	r1, r0
     b4e:	23a0      	movs	r3, #160	; 0xa0
     b50:	ff1e e12f 	vrhadd.u16	d14, d14, d31
     b54:	0000      	movs	r0, r0
     b56:	e350      	b.n	0x11fa
     b58:	ff1e 112f 	vrhadd.u16	d1, d14, d31
     b5c:	4010      	ands	r0, r2
     b5e:	e92d 0001 	stmdb	sp!, {r0}
     b62:	e3a0      	b.n	0x12a6
     b64:	fe5b ebff 			; <UNDEFINED> instruction: 0xfe5bebff
     b68:	c001      	stmia	r0!, {r0}
     b6a:	e020      	b.n	0xbae
     b6c:	0003      	movs	r3, r0
     b6e:	e31c      	b.n	0x11aa
     b70:	0021      	movs	r1, r4
     b72:	1a00      	subs	r0, r0, r0
     b74:	c003      	stmia	r0!, {r0, r1}
     b76:	e210      	b.n	0xf9a
     b78:	0003      	movs	r3, r0
     b7a:	e3c0      	b.n	0x12fe
     b7c:	1003      	asrs	r3, r0, #32
     b7e:	e3c1      	b.n	0x1304
     b80:	2004      	movs	r0, #4
     b82:	e490      	b.n	0x4a6
     b84:	3004      	adds	r0, #4
     b86:	0491      	lsls	r1, r2, #18
     b88:	0006      	movs	r6, r0
     b8a:	0a00      	lsrs	r0, r0, #8
     b8c:	c003      	stmia	r0!, {r0, r1}
     b8e:	e22c      	b.n	0xfea
     b90:	34ff      	adds	r4, #255	; 0xff
     b92:	e3e0      	b.n	0x1356
     b94:	c18c      	stmia	r1!, {r2, r3, r7}
     b96:	e1a0      	b.n	0xeda
     b98:	cc33      	ldmia	r4, {r0, r1, r4, r5}
     b9a:	e1a0      	b.n	0xede
     b9c:	3004      	adds	r0, #4
     b9e:	e491      	b.n	0x4c4
     ba0:	200c      	movs	r0, #12
     ba2:	e182      	b.n	0xeaa
     ba4:	300c      	adds	r0, #12
     ba6:	e183      	b.n	0xeb0
     ba8:	4004      	ands	r4, r0
     baa:	e52d      	b.n	0x608
     bac:	4001      	ands	r1, r0
     bae:	e3a0      	b.n	0x12f2
     bb0:	4404      	add	r4, r0
     bb2:	e184      	b.n	0xebe
     bb4:	4804      	ldr	r0, [pc, #16]	; (0xbc8)
     bb6:	e184      	b.n	0xec2
     bb8:	c004      	stmia	r0!, {r2}
     bba:	e042      	b.n	0xc42
     bbc:	0003      	movs	r3, r0
     bbe:	e152      	b.n	0xe66
     bc0:	c002      	stmia	r0!, {r1}
     bc2:	01cc      	lsls	r4, r1, #7
     bc4:	0384      	lsls	r4, r0, #14
     bc6:	011c      	lsls	r4, r3, #4
     bc8:	2004      	movs	r0, #4
     bca:	0490      	lsls	r0, r2, #18
     bcc:	3004      	adds	r0, #4
     bce:	0491      	lsls	r1, r2, #18
     bd0:	fff8 0aff 			; <UNDEFINED> instruction: 0xfff80aff
     bd4:	0c02      	lsrs	r2, r0, #16
     bd6:	e1a0      	b.n	0xf1a
     bd8:	2422      	movs	r4, #34	; 0x22
     bda:	e1a0      	b.n	0xf1e
     bdc:	0001      	movs	r1, r0
     bde:	e350      	b.n	0x1282
     be0:	0c03      	lsrs	r3, r0, #16
     be2:	2150      	movs	r1, #80	; 0x50
     be4:	3423      	adds	r4, #35	; 0x23
     be6:	01a0      	lsls	r0, r4, #6
     be8:	fff9 0aff 			; <UNDEFINED> instruction: 0xfff90aff
     bec:	30ff      	adds	r0, #255	; 0xff
     bee:	e203      	b.n	0xff8
     bf0:	0c20      	lsrs	r0, r4, #16
     bf2:	e063      	b.n	0xcbc
     bf4:	4004      	ands	r4, r0
     bf6:	e49d      	b.n	0x534
     bf8:	ff1e e12f 	vrhadd.u16	d14, d14, d31
     bfc:	0003      	movs	r3, r0
     bfe:	e310      	b.n	0x1222
     c00:	0006      	movs	r6, r0
     c02:	0a00      	lsrs	r0, r0, #8
     c04:	2001      	movs	r0, #1
     c06:	e4d0      	b.n	0x5aa
     c08:	3001      	adds	r0, #1
     c0a:	e4d1      	b.n	0x5b0
     c0c:	0001      	movs	r1, r0
     c0e:	e352      	b.n	0x12b6
     c10:	0003      	movs	r3, r0
     c12:	2152      	movs	r1, #82	; 0x52
     c14:	fff8 0aff 			; <UNDEFINED> instruction: 0xfff80aff
     c18:	0003      	movs	r3, r0
     c1a:	e042      	b.n	0xca2
     c1c:	ff1e e12f 	vrhadd.u16	d14, d14, d31
     c20:	0030      	movs	r0, r6
     c22:	e92d 4001 	stmdb	sp!, {r0, lr}
     c26:	e3a0      	b.n	0x136a
     c28:	4404      	add	r4, r0
     c2a:	e184      	b.n	0xf36
     c2c:	4804      	ldr	r0, [pc, #16]	; (0xc40)
     c2e:	e184      	b.n	0xf3a
     c30:	2004      	movs	r0, #4
     c32:	e490      	b.n	0x556
     c34:	5003      	str	r3, [r0, r0]
     c36:	e201      	b.n	0x103c
     c38:	1003      	asrs	r3, r0, #32
     c3a:	e3c1      	b.n	0x13c0
     c3c:	3004      	adds	r0, #4
     c3e:	e491      	b.n	0x564
     c40:	0002      	movs	r2, r0
     c42:	e355      	b.n	0x12f0
     c44:	0017      	movs	r7, r2
     c46:	0a00      	lsrs	r0, r0, #8
     c48:	002d      	movs	r5, r5
     c4a:	8a00      	ldrh	r0, [r0, #16]
     c4c:	54ff      	strb	r7, [r7, r3]
     c4e:	e3c2      	b.n	0x13d6
     c50:	0423      	lsls	r3, r4, #16
     c52:	e155      	b.n	0xf00
     c54:	c004      	stmia	r0!, {r2}
     c56:	e042      	b.n	0xcde
     c58:	c002      	stmia	r0!, {r1}
     c5a:	e1cc      	b.n	0xff6
     c5c:	0007      	movs	r7, r0
     c5e:	1a00      	subs	r0, r0, r0
     c60:	c384      	stmia	r3!, {r2, r7}
     c62:	e01c      	b.n	0xc9e
     c64:	3004      	adds	r0, #4
     c66:	0491      	lsls	r1, r2, #18
     c68:	0006      	movs	r6, r0
     c6a:	1a00      	subs	r0, r0, r0
     c6c:	5002      	str	r2, [r0, r0]
     c6e:	e025      	b.n	0xcbc
     c70:	0c03      	lsrs	r3, r0, #16
     c72:	e155      	b.n	0xf20
     c74:	0008      	movs	r0, r1
     c76:	1a00      	subs	r0, r0, r0
     c78:	2004      	movs	r0, #4
     c7a:	e490      	b.n	0x59e
     c7c:	fff2 eaff 			; <UNDEFINED> instruction: 0xfff2eaff
     c80:	3423      	adds	r4, #35	; 0x23
     c82:	e1a0      	b.n	0xfc6
     c84:	0036      	movs	r6, r6
     c86:	ea00 c4ff 			; <UNDEFINED> instruction: 0xea00c4ff
     c8a:	e3dc      	b.n	0x1446
     c8c:	0031      	movs	r1, r6
     c8e:	1a00      	subs	r0, r0, r0
     c90:	3000      	adds	r0, #0
     c92:	e5d1      	b.n	0x838
     c94:	5c22      	ldrb	r2, [r4, r0]
     c96:	e1a0      	b.n	0xfda
     c98:	0031      	movs	r1, r6
     c9a:	ea00 5c22 	and.w	ip, r0, r2, asr #20
     c9e:	e1a0      	b.n	0xfe2
     ca0:	30ff      	adds	r0, #255	; 0xff
     ca2:	e203      	b.n	0x10ac
     ca4:	002e      	movs	r6, r5
     ca6:	ea00 5802 	and.w	r8, r0, r2, lsl #20
     caa:	e1a0      	b.n	0xfee
     cac:	c004      	stmia	r0!, {r2}
     cae:	e042      	b.n	0xd36
     cb0:	5825      	ldr	r5, [r4, r0]
     cb2:	e1a0      	b.n	0xff6
     cb4:	c002      	stmia	r0!, {r1}
     cb6:	e1cc      	b.n	0x1052
     cb8:	0823      	lsrs	r3, r4, #32
     cba:	e155      	b.n	0xf68
     cbc:	000e      	movs	r6, r1
     cbe:	1a00      	subs	r0, r0, r0
     cc0:	c384      	stmia	r3!, {r2, r7}
     cc2:	e01c      	b.n	0xcfe
     cc4:	3004      	adds	r0, #4
     cc6:	0491      	lsls	r1, r2, #18
     cc8:	0004      	movs	r4, r0
     cca:	1a00      	subs	r0, r0, r0
     ccc:	5002      	str	r2, [r0, r0]
     cce:	e025      	b.n	0xd1c
     cd0:	0803      	lsrs	r3, r0, #32
     cd2:	e155      	b.n	0xf80
     cd4:	0006      	movs	r6, r0
     cd6:	1a00      	subs	r0, r0, r0
     cd8:	2004      	movs	r0, #4
     cda:	e490      	b.n	0x5fe
     cdc:	fff1 eaff 			; <UNDEFINED> instruction: 0xfff1eaff
     ce0:	c80c      	ldmia	r0!, {r2, r3}
     ce2:	e1b0      	b.n	0x1046
     ce4:	001b      	movs	r3, r3
     ce6:	1a00      	subs	r0, r0, r0
     ce8:	30b0      	adds	r0, #176	; 0xb0
     cea:	e1d1      	b.n	0x1090
     cec:	5822      	ldr	r2, [r4, r0]
     cee:	e1a0      	b.n	0x1032
     cf0:	001b      	movs	r3, r3
     cf2:	ea00 3803 	and.w	r8, r0, r3, lsl #12
     cf6:	e1a0      	b.n	0x103a
     cf8:	5822      	ldr	r2, [r4, r0]
     cfa:	e1a0      	b.n	0x103e
     cfc:	3823      	subs	r0, #35	; 0x23
     cfe:	e1a0      	b.n	0x1042
     d00:	0017      	movs	r7, r2
     d02:	ea00 50ff 	and.w	r0, r0, pc, ror #23
     d06:	e202      	b.n	0x110e
     d08:	0c23      	lsrs	r3, r4, #16
     d0a:	e155      	b.n	0xfb8
     d0c:	c004      	stmia	r0!, {r2}
     d0e:	e042      	b.n	0xd96
     d10:	c002      	stmia	r0!, {r1}
     d12:	e1cc      	b.n	0x10ae
     d14:	0007      	movs	r7, r0
     d16:	1a00      	subs	r0, r0, r0
     d18:	c384      	stmia	r3!, {r2, r7}
     d1a:	e01c      	b.n	0xd56
     d1c:	3004      	adds	r0, #4
     d1e:	0491      	lsls	r1, r2, #18
     d20:	0006      	movs	r6, r0
     d22:	1a00      	subs	r0, r0, r0
     d24:	5002      	str	r2, [r0, r0]
     d26:	e025      	b.n	0xd74
     d28:	0403      	lsls	r3, r0, #16
     d2a:	e155      	b.n	0xfd8
     d2c:	0006      	movs	r6, r0
     d2e:	1a00      	subs	r0, r0, r0
     d30:	2004      	movs	r0, #4
     d32:	e490      	b.n	0x656
     d34:	fff2 eaff 			; <UNDEFINED> instruction: 0xfff2eaff
     d38:	3c23      	subs	r4, #35	; 0x23
     d3a:	e1a0      	b.n	0x107e
     d3c:	0008      	movs	r0, r1
     d3e:	ea00 00ff 	and.w	r0, r0, pc, ror #3
     d42:	e312      	b.n	0x136a
     d44:	0003      	movs	r3, r0
     d46:	0a00      	lsrs	r0, r0, #8
     d48:	3004      	adds	r0, #4
     d4a:	e491      	b.n	0x670
     d4c:	5422      	strb	r2, [r4, r0]
     d4e:	e1a0      	b.n	0x1092
     d50:	34ff      	adds	r4, #255	; 0xff
     d52:	e3c3      	b.n	0x14dc
     d54:	0002      	movs	r2, r0
     d56:	ea00 0000 	and.w	r0, r0, r0
     d5a:	e3a0      	b.n	0x149e
     d5c:	0030      	movs	r0, r6
     d5e:	e8bd ff1e 	ldmia.w	sp!, {r1, r2, r3, r4, r8, r9, sl, fp, ip, sp, lr, pc}
     d62:	e12f      	b.n	0xfc4
     d64:	20ff      	movs	r0, #255	; 0xff
     d66:	e205      	b.n	0x1174
     d68:	00ff      	lsls	r7, r7, #3
     d6a:	e203      	b.n	0x1174
     d6c:	0001      	movs	r1, r0
     d6e:	e350      	b.n	0x1412
     d70:	0002      	movs	r2, r0
     d72:	2150      	movs	r1, #80	; 0x50
     d74:	5425      	strb	r5, [r4, r0]
     d76:	01a0      	lsls	r0, r4, #6
     d78:	3423      	adds	r4, #35	; 0x23
     d7a:	01a0      	lsls	r0, r4, #6
     d7c:	fff8 0aff 			; <UNDEFINED> instruction: 0xfff80aff
     d80:	0000      	movs	r0, r0
     d82:	e042      	b.n	0xe0a
     d84:	0030      	movs	r0, r6
     d86:	e8bd ff1e 	ldmia.w	sp!, {r1, r2, r3, r4, r8, r9, sl, fp, ip, sp, lr, pc}
     d8a:	e12f      	b.n	0xfec
     d8c:	2001      	movs	r0, #1
     d8e:	e251      	b.n	0x1234
     d90:	ff1e 012f 	vrhadd.u16	d0, d14, d31
     d94:	0036      	movs	r6, r6
     d96:	3a00      	subs	r2, #0
     d98:	0001      	movs	r1, r0
     d9a:	e150      	b.n	0x103e
     d9c:	0022      	movs	r2, r4
     d9e:	9a00      	ldr	r2, [sp, #0]
     da0:	0002      	movs	r2, r0
     da2:	e111      	b.n	0xfc8
     da4:	0023      	movs	r3, r4
     da6:	0a00      	lsrs	r0, r0, #8
     da8:	020e      	lsls	r6, r1, #8
     daa:	e311      	b.n	0x13d0
     dac:	1181      	asrs	r1, r0, #6
     dae:	01a0      	lsls	r0, r4, #6
     db0:	3008      	adds	r0, #8
     db2:	03a0      	lsls	r0, r4, #14
     db4:	3001      	adds	r0, #1
     db6:	13a0      	asrs	r0, r4, #14
     db8:	0201      	lsls	r1, r0, #8
     dba:	e351      	b.n	0x1460
     dbc:	0000      	movs	r0, r0
     dbe:	3151      	adds	r1, #81	; 0x51
     dc0:	1201      	asrs	r1, r0, #8
     dc2:	31a0      	adds	r1, #160	; 0xa0
     dc4:	3203      	adds	r2, #3
     dc6:	31a0      	adds	r1, #160	; 0xa0
     dc8:	fffa 3aff 			; <UNDEFINED> instruction: 0xfffa3aff
     dcc:	0102      	lsls	r2, r0, #4
     dce:	e351      	b.n	0x1474
     dd0:	0000      	movs	r0, r0
     dd2:	3151      	adds	r1, #81	; 0x51
     dd4:	1081      	asrs	r1, r0, #2
     dd6:	31a0      	adds	r1, #160	; 0xa0
     dd8:	3083      	adds	r0, #131	; 0x83
     dda:	31a0      	adds	r1, #160	; 0xa0
     ddc:	fffa 3aff 			; <UNDEFINED> instruction: 0xfffa3aff
     de0:	2000      	movs	r0, #0
     de2:	e3a0      	b.n	0x1526
     de4:	0001      	movs	r1, r0
     de6:	e150      	b.n	0x108a
     de8:	0001      	movs	r1, r0
     dea:	2040      	movs	r0, #64	; 0x40
     dec:	2003      	movs	r0, #3
     dee:	2182      	movs	r1, #130	; 0x82
     df0:	00a1      	lsls	r1, r4, #2
     df2:	e150      	b.n	0x1096
     df4:	00a1      	lsls	r1, r4, #2
     df6:	2040      	movs	r0, #64	; 0x40
     df8:	20a3      	movs	r0, #163	; 0xa3
     dfa:	2182      	movs	r1, #130	; 0x82
     dfc:	0121      	lsls	r1, r4, #4
     dfe:	e150      	b.n	0x10a2
     e00:	0121      	lsls	r1, r4, #4
     e02:	2040      	movs	r0, #64	; 0x40
     e04:	2123      	movs	r1, #35	; 0x23
     e06:	2182      	movs	r1, #130	; 0x82
     e08:	01a1      	lsls	r1, r4, #6
     e0a:	e150      	b.n	0x10ae
     e0c:	01a1      	lsls	r1, r4, #6
     e0e:	2040      	movs	r0, #64	; 0x40
     e10:	21a3      	movs	r1, #163	; 0xa3
     e12:	2182      	movs	r1, #130	; 0x82
     e14:	0000      	movs	r0, r0
     e16:	e350      	b.n	0x14ba
     e18:	3223      	adds	r2, #35	; 0x23
     e1a:	11b0      	asrs	r0, r6, #6
     e1c:	1221      	asrs	r1, r4, #8
     e1e:	11a0      	asrs	r0, r4, #6
     e20:	ffef 1aff 			; <UNDEFINED> instruction: 0xffef1aff
     e24:	0002      	movs	r2, r0
     e26:	e1a0      	b.n	0x116a
     e28:	ff1e e12f 	vrhadd.u16	d14, d14, d31
     e2c:	0001      	movs	r1, r0
     e2e:	03a0      	lsls	r0, r4, #14
     e30:	0000      	movs	r0, r0
     e32:	13a0      	asrs	r0, r4, #14
     e34:	ff1e e12f 	vrhadd.u16	d14, d14, d31
     e38:	0801      	lsrs	r1, r0, #32
     e3a:	e351      	b.n	0x14e0
     e3c:	1821      	adds	r1, r4, r0
     e3e:	21a0      	movs	r1, #160	; 0xa0
     e40:	2010      	movs	r0, #16
     e42:	23a0      	movs	r3, #160	; 0xa0
     e44:	2000      	movs	r0, #0
     e46:	33a0      	adds	r3, #160	; 0xa0
     e48:	0c01      	lsrs	r1, r0, #16
     e4a:	e351      	b.n	0x14f0
     e4c:	1421      	asrs	r1, r4, #16
     e4e:	21a0      	movs	r1, #160	; 0xa0
     e50:	2008      	movs	r0, #8
     e52:	2282      	movs	r2, #130	; 0x82
     e54:	0010      	movs	r0, r2
     e56:	e351      	b.n	0x14fc
     e58:	1221      	asrs	r1, r4, #8
     e5a:	21a0      	movs	r1, #160	; 0xa0
     e5c:	2004      	movs	r0, #4
     e5e:	2282      	movs	r2, #130	; 0x82
     e60:	0004      	movs	r4, r0
     e62:	e351      	b.n	0x1508
     e64:	2003      	movs	r0, #3
     e66:	8282      	strh	r2, [r0, #20]
     e68:	20a1      	movs	r0, #161	; 0xa1
     e6a:	9082      	str	r0, [sp, #520]	; 0x208
     e6c:	0230      	lsls	r0, r6, #8
     e6e:	e1a0      	b.n	0x11b2
     e70:	ff1e e12f 	vrhadd.u16	d14, d14, d31
     e74:	0000      	movs	r0, r0
     e76:	e350      	b.n	0x151a
     e78:	0000      	movs	r0, r0
     e7a:	13e0      	asrs	r0, r4, #15
     e7c:	0059      	lsls	r1, r3, #1
     e7e:	ea00 0000 	and.w	r0, r0, r0
     e82:	e351      	b.n	0x1528
     e84:	fffa 0aff 			; <UNDEFINED> instruction: 0xfffa0aff
     e88:	4003      	ands	r3, r0
     e8a:	e92d ffbe 	stmdb	sp!, {r1, r2, r3, r4, r5, r7, r8, r9, sl, fp, ip, sp, lr, pc}
     e8e:	ebff 4006 			; <UNDEFINED> instruction: 0xebff4006
     e92:	e8bd 0092 	ldmia.w	sp!, {r1, r4, r7}
     e96:	e003      	b.n	0xea0
     e98:	1003      	asrs	r3, r0, #32
     e9a:	e041      	b.n	0xf20
     e9c:	ff1e e12f 	vrhadd.u16	d14, d14, d31
     ea0:	0000      	movs	r0, r0
     ea2:	e351      	b.n	0x1548
     ea4:	0043      	lsls	r3, r0, #1
     ea6:	0a00      	lsrs	r0, r0, #8
     ea8:	c001      	stmia	r0!, {r0}
     eaa:	e020      	b.n	0xeee
     eac:	1000      	asrs	r0, r0, #32
     eae:	4261      	negs	r1, r4
     eb0:	2001      	movs	r0, #1
     eb2:	e251      	b.n	0x1358
     eb4:	0027      	movs	r7, r4
     eb6:	0a00      	lsrs	r0, r0, #8
     eb8:	3000      	adds	r0, #0
     eba:	e1b0      	b.n	0x121e
     ebc:	3000      	adds	r0, #0
     ebe:	4260      	negs	r0, r4
     ec0:	0001      	movs	r1, r0
     ec2:	e153      	b.n	0x116c
     ec4:	0026      	movs	r6, r4
     ec6:	9a00      	ldr	r2, [sp, #0]
     ec8:	0002      	movs	r2, r0
     eca:	e111      	b.n	0x10f0
     ecc:	0028      	movs	r0, r5
     ece:	0a00      	lsrs	r0, r0, #8
     ed0:	020e      	lsls	r6, r1, #8
     ed2:	e311      	b.n	0x14f8
     ed4:	1181      	asrs	r1, r0, #6
     ed6:	01a0      	lsls	r0, r4, #6
     ed8:	2008      	movs	r0, #8
     eda:	03a0      	lsls	r0, r4, #14
     edc:	2001      	movs	r0, #1
     ede:	13a0      	asrs	r0, r4, #14
     ee0:	0201      	lsls	r1, r0, #8
     ee2:	e351      	b.n	0x1588
     ee4:	0003      	movs	r3, r0
     ee6:	3151      	adds	r1, #81	; 0x51
     ee8:	1201      	asrs	r1, r0, #8
     eea:	31a0      	adds	r1, #160	; 0xa0
     eec:	2202      	movs	r2, #2
     eee:	31a0      	adds	r1, #160	; 0xa0
     ef0:	fffa 3aff 			; <UNDEFINED> instruction: 0xfffa3aff
     ef4:	0102      	lsls	r2, r0, #4
     ef6:	e351      	b.n	0x159c
     ef8:	0003      	movs	r3, r0
     efa:	3151      	adds	r1, #81	; 0x51
     efc:	1081      	asrs	r1, r0, #2
     efe:	31a0      	adds	r1, #160	; 0xa0
     f00:	2082      	movs	r0, #130	; 0x82
     f02:	31a0      	adds	r1, #160	; 0xa0
     f04:	fffa 3aff 			; <UNDEFINED> instruction: 0xfffa3aff
     f08:	0000      	movs	r0, r0
     f0a:	e3a0      	b.n	0x164e
     f0c:	0001      	movs	r1, r0
     f0e:	e153      	b.n	0x11b8
     f10:	3001      	adds	r0, #1
     f12:	2043      	movs	r0, #67	; 0x43
     f14:	0002      	movs	r2, r0
     f16:	2180      	movs	r1, #128	; 0x80
     f18:	00a1      	lsls	r1, r4, #2
     f1a:	e153      	b.n	0x11c4
     f1c:	30a1      	adds	r0, #161	; 0xa1
     f1e:	2043      	movs	r0, #67	; 0x43
     f20:	00a2      	lsls	r2, r4, #2
     f22:	2180      	movs	r1, #128	; 0x80
     f24:	0121      	lsls	r1, r4, #4
     f26:	e153      	b.n	0x11d0
     f28:	3121      	adds	r1, #33	; 0x21
     f2a:	2043      	movs	r0, #67	; 0x43
     f2c:	0122      	lsls	r2, r4, #4
     f2e:	2180      	movs	r1, #128	; 0x80
     f30:	01a1      	lsls	r1, r4, #6
     f32:	e153      	b.n	0x11dc
     f34:	31a1      	adds	r1, #161	; 0xa1
     f36:	2043      	movs	r0, #67	; 0x43
     f38:	01a2      	lsls	r2, r4, #6
     f3a:	2180      	movs	r1, #128	; 0x80
     f3c:	0000      	movs	r0, r0
     f3e:	e353      	b.n	0x15e8
     f40:	2222      	movs	r2, #34	; 0x22
     f42:	11b0      	asrs	r0, r6, #6
     f44:	1221      	asrs	r1, r4, #8
     f46:	11a0      	asrs	r0, r4, #6
     f48:	ffef 1aff 			; <UNDEFINED> instruction: 0xffef1aff
     f4c:	0000      	movs	r0, r0
     f4e:	e35c      	b.n	0x160a
     f50:	0000      	movs	r0, r0
     f52:	4260      	negs	r0, r4
     f54:	ff1e e12f 	vrhadd.u16	d14, d14, d31
     f58:	0000      	movs	r0, r0
     f5a:	e13c      	b.n	0x11d6
     f5c:	0000      	movs	r0, r0
     f5e:	4260      	negs	r0, r4
     f60:	ff1e e12f 	vrhadd.u16	d14, d14, d31
     f64:	0000      	movs	r0, r0
     f66:	33a0      	adds	r3, #160	; 0xa0
     f68:	0fcc      	lsrs	r4, r1, #31
     f6a:	01a0      	lsls	r0, r4, #6
     f6c:	0001      	movs	r1, r0
     f6e:	0380      	lsls	r0, r0, #14
     f70:	ff1e e12f 	vrhadd.u16	d14, d14, d31
     f74:	0801      	lsrs	r1, r0, #32
     f76:	e351      	b.n	0x161c
     f78:	1821      	adds	r1, r4, r0
     f7a:	21a0      	movs	r1, #160	; 0xa0
     f7c:	2010      	movs	r0, #16
     f7e:	23a0      	movs	r3, #160	; 0xa0
     f80:	2000      	movs	r0, #0
     f82:	33a0      	adds	r3, #160	; 0xa0
     f84:	0c01      	lsrs	r1, r0, #16
     f86:	e351      	b.n	0x162c
     f88:	1421      	asrs	r1, r4, #16
     f8a:	21a0      	movs	r1, #160	; 0xa0
     f8c:	2008      	movs	r0, #8
     f8e:	2282      	movs	r2, #130	; 0x82
     f90:	0010      	movs	r0, r2
     f92:	e351      	b.n	0x1638
     f94:	1221      	asrs	r1, r4, #8
     f96:	21a0      	movs	r1, #160	; 0xa0
     f98:	2004      	movs	r0, #4
     f9a:	2282      	movs	r2, #130	; 0x82
     f9c:	0004      	movs	r4, r0
     f9e:	e351      	b.n	0x1644
     fa0:	2003      	movs	r0, #3
     fa2:	8282      	strh	r2, [r0, #20]
     fa4:	20a1      	movs	r0, #161	; 0xa1
     fa6:	9082      	str	r0, [sp, #520]	; 0x208
     fa8:	0000      	movs	r0, r0
     faa:	e35c      	b.n	0x1666
     fac:	0233      	lsls	r3, r6, #8
     fae:	e1a0      	b.n	0x12f2
     fb0:	0000      	movs	r0, r0
     fb2:	4260      	negs	r0, r4
     fb4:	ff1e e12f 	vrhadd.u16	d14, d14, d31
     fb8:	0000      	movs	r0, r0
     fba:	e350      	b.n	0x165e
     fbc:	0102      	lsls	r2, r0, #4
     fbe:	c3e0      	stmia	r3!, {r5, r6, r7}
     fc0:	0102      	lsls	r2, r0, #4
     fc2:	b3a0      	cbz	r0, 0x102e
     fc4:	0007      	movs	r7, r0
     fc6:	ea00 0000 	and.w	r0, r0, r0
     fca:	e351      	b.n	0x1670
     fcc:	fff9 0aff 			; <UNDEFINED> instruction: 0xfff90aff
     fd0:	4003      	ands	r3, r0
     fd2:	e92d ffb3 	stmdb	sp!, {r0, r1, r4, r5, r7, r8, r9, sl, fp, ip, sp, lr, pc}
     fd6:	ebff 4006 			; <UNDEFINED> instruction: 0xebff4006
     fda:	e8bd 0092 	ldmia.w	sp!, {r1, r4, r7}
     fde:	e003      	b.n	0xfe8
     fe0:	1003      	asrs	r3, r0, #32
     fe2:	e041      	b.n	0x1068
     fe4:	ff1e e12f 	vrhadd.u16	d14, d14, d31
     fe8:	ff1e e12f 	vrhadd.u16	d14, d14, d31
     fec:	1102      	asrs	r2, r0, #4
     fee:	e221      	b.n	0x1434
     ff0:	0000      	movs	r0, r0
     ff2:	ea00 3102 	and.w	r1, r0, r2, lsl #12
     ff6:	e223      	b.n	0x1440
     ff8:	4030      	ands	r0, r6
     ffa:	e92d 4081 	stmdb	sp!, {r0, r7, lr}
     ffe:	e1a0      	b.n	0x1342
    1000:	5083      	str	r3, [r0, r2]
    1002:	e1a0      	b.n	0x1346
    1004:	0005      	movs	r5, r0
    1006:	e134      	b.n	0x1272
    1008:	0002      	movs	r2, r0
    100a:	0130      	lsls	r0, r6, #4
    100c:	c000      	stmia	r0!, {}
    100e:	1194      	asrs	r4, r2, #6
    1010:	c002      	stmia	r0!, {r1}
    1012:	1195      	asrs	r5, r2, #6
    1014:	cac4      	ldmia	r2, {r2, r6, r7}
    1016:	11f0      	asrs	r0, r6, #7
    1018:	cac5      	ldmia	r2, {r0, r2, r6, r7}
    101a:	11f0      	asrs	r0, r6, #7
    101c:	008c      	lsls	r4, r1, #2
    101e:	0a00      	lsrs	r0, r0, #8
    1020:	4aa4      	ldr	r2, [pc, #656]	; (0x12b4)
    1022:	e1a0      	b.n	0x1366
    1024:	5aa5      	ldrh	r5, [r4, r2]
    1026:	e074      	b.n	0x1112
    1028:	5000      	str	r0, [r0, r0]
    102a:	b265      	sxtb	r5, r4
    102c:	0006      	movs	r6, r0
    102e:	da00      	bge.n	0x1032
    1030:	4005      	ands	r5, r0
    1032:	e084      	b.n	0x113e
    1034:	2002      	movs	r0, #2
    1036:	e020      	b.n	0x107a
    1038:	3003      	adds	r0, #3
    103a:	e021      	b.n	0x1080
    103c:	0000      	movs	r0, r0
    103e:	e022      	b.n	0x1086
    1040:	1001      	asrs	r1, r0, #32
    1042:	e023      	b.n	0x108c
    1044:	2002      	movs	r0, #2
    1046:	e020      	b.n	0x108a
    1048:	3003      	adds	r0, #3
    104a:	e021      	b.n	0x1090
    104c:	0036      	movs	r6, r6
    104e:	e355      	b.n	0x16fc
    1050:	4030      	ands	r0, r6
    1052:	88bd      	ldrh	r5, [r7, #4]
    1054:	ff1e 812f 	vrhadd.u16	d8, d14, d31
    1058:	0102      	lsls	r2, r0, #4
    105a:	e311      	b.n	0x1680
    105c:	1601      	asrs	r1, r0, #24
    105e:	e1a0      	b.n	0x13a2
    1060:	c601      	stmia	r6!, {r0}
    1062:	e3a0      	b.n	0x17a6
    1064:	1621      	asrs	r1, r4, #24
    1066:	e18c      	b.n	0x1382
    1068:	0001      	movs	r1, r0
    106a:	0a00      	lsrs	r0, r0, #8
    106c:	0000      	movs	r0, r0
    106e:	e270      	b.n	0x1552
    1070:	1000      	asrs	r0, r0, #32
    1072:	e2e1      	b.n	0x1638
    1074:	0102      	lsls	r2, r0, #4
    1076:	e313      	b.n	0x16a0
    1078:	3603      	adds	r6, #3
    107a:	e1a0      	b.n	0x13be
    107c:	3623      	adds	r6, #35	; 0x23
    107e:	e18c      	b.n	0x139a
    1080:	0001      	movs	r1, r0
    1082:	0a00      	lsrs	r0, r0, #8
    1084:	2000      	movs	r0, #0
    1086:	e272      	b.n	0x156e
    1088:	3000      	adds	r0, #0
    108a:	e2e3      	b.n	0x1654
    108c:	0005      	movs	r5, r0
    108e:	e134      	b.n	0x12fa
    1090:	0069      	lsls	r1, r5, #1
    1092:	0a00      	lsrs	r0, r0, #8
    1094:	4001      	ands	r1, r0
    1096:	e244      	b.n	0x1522
    1098:	e020      	b.n	0x10dc
    109a:	e275      	b.n	0x1588
    109c:	0005      	movs	r5, r0
    109e:	ba00      	rev	r0, r0
    10a0:	ce12      	ldmia	r6!, {r1, r4}
    10a2:	e1a0      	b.n	0x13e6
    10a4:	0532      	lsls	r2, r6, #20
    10a6:	e090      	b.n	0x11ca
    10a8:	1000      	asrs	r0, r0, #32
    10aa:	e2a1      	b.n	0x15f0
    10ac:	0e13      	lsrs	r3, r2, #24
    10ae:	e090      	b.n	0x11d2
    10b0:	1553      	asrs	r3, r2, #21
    10b2:	e0b1      	b.n	0x1218
    10b4:	0006      	movs	r6, r0
    10b6:	ea00 5020 	and.w	r0, r0, r0, asr #20
    10ba:	e245      	b.n	0x1548
    10bc:	e020      	b.n	0x1100
    10be:	e28e      	b.n	0x15de
    10c0:	0001      	movs	r1, r0
    10c2:	e352      	b.n	0x176a
    10c4:	ce13      	ldmia	r6!, {r0, r1, r4}
    10c6:	e1a0      	b.n	0x140a
    10c8:	c002      	stmia	r0!, {r1}
    10ca:	238c      	movs	r3, #140	; 0x8c
    10cc:	0553      	lsls	r3, r2, #21
    10ce:	e090      	b.n	0x11f2
    10d0:	1fc3      	subs	r3, r0, #7
    10d2:	e0b1      	b.n	0x1238
    10d4:	5102      	str	r2, [r0, r4]
    10d6:	e201      	b.n	0x14dc
    10d8:	0002      	movs	r2, r0
    10da:	5a00      	ldrh	r0, [r0, r0]
    10dc:	c000      	stmia	r0!, {}
    10de:	e27c      	b.n	0x15da
    10e0:	0000      	movs	r0, r0
    10e2:	e2f0      	b.n	0x16c6
    10e4:	1000      	asrs	r0, r0, #32
    10e6:	e2e1      	b.n	0x16ac
    10e8:	0601      	lsls	r1, r0, #24
    10ea:	e351      	b.n	0x1790
    10ec:	000f      	movs	r7, r1
    10ee:	3a00      	subs	r2, #0
    10f0:	0602      	lsls	r2, r0, #24
    10f2:	e351      	b.n	0x1798
    10f4:	0006      	movs	r6, r0
    10f6:	3a00      	subs	r2, #0
    10f8:	10a1      	asrs	r1, r4, #2
    10fa:	e1b0      	b.n	0x145e
    10fc:	0060      	lsls	r0, r4, #1
    10fe:	e1b0      	b.n	0x1462
    1100:	c06c      	stmia	r0!, {r2, r3, r5, r6}
    1102:	e1a0      	b.n	0x1446
    1104:	4001      	ands	r1, r0
    1106:	e284      	b.n	0x1612
    1108:	2a84      	cmp	r2, #132	; 0x84
    110a:	e1a0      	b.n	0x144e
    110c:	0501      	lsls	r1, r0, #20
    110e:	e372      	b.n	0x17f6
    1110:	006b      	lsls	r3, r5, #1
    1112:	2a00      	cmp	r2, #0
    1114:	0102      	lsls	r2, r0, #4
    1116:	e35c      	b.n	0x17d2
    1118:	c0a0      	stmia	r0!, {r5, r7}
    111a:	01b0      	lsls	r0, r6, #6
    111c:	0000      	movs	r0, r0
    111e:	e2b0      	b.n	0x1682
    1120:	1a04      	subs	r4, r0, r0
    1122:	e0a1      	b.n	0x1268
    1124:	1005      	asrs	r5, r0, #32
    1126:	e181      	b.n	0x142c
    1128:	4030      	ands	r0, r6
    112a:	e8bd ff1e 	ldmia.w	sp!, {r1, r2, r3, r4, r8, r9, sl, fp, ip, sp, lr, pc}
    112e:	e12f      	b.n	0x1390
    1130:	c08c      	stmia	r0!, {r2, r3, r7}
    1132:	e1b0      	b.n	0x1496
    1134:	0000      	movs	r0, r0
    1136:	e0b0      	b.n	0x129a
    1138:	1001      	asrs	r1, r0, #32
    113a:	e0a1      	b.n	0x1280
    113c:	0601      	lsls	r1, r0, #24
    113e:	e311      	b.n	0x1764
    1140:	4001      	ands	r1, r0
    1142:	e244      	b.n	0x15ce
    1144:	fff2 1aff 			; <UNDEFINED> instruction: 0xfff21aff
    1148:	0000      	movs	r0, r0
    114a:	e331      	b.n	0x17b0
    114c:	3014      	adds	r0, #20
    114e:	13a0      	asrs	r0, r4, #14
    1150:	3034      	adds	r0, #52	; 0x34
    1152:	03a0      	lsls	r0, r4, #14
    1154:	1000      	asrs	r0, r0, #32
    1156:	01a0      	lsls	r0, r4, #6
    1158:	0000      	movs	r0, r0
    115a:	03a0      	lsls	r0, r4, #14
    115c:	2001      	movs	r0, #1
    115e:	e1a0      	b.n	0x14a2
    1160:	0801      	lsrs	r1, r0, #32
    1162:	e352      	b.n	0x180a
    1164:	2822      	cmp	r0, #34	; 0x22
    1166:	21a0      	movs	r1, #160	; 0xa0
    1168:	3010      	adds	r0, #16
    116a:	2243      	movs	r2, #67	; 0x43
    116c:	0c01      	lsrs	r1, r0, #16
    116e:	e352      	b.n	0x1816
    1170:	2422      	movs	r4, #34	; 0x22
    1172:	21a0      	movs	r1, #160	; 0xa0
    1174:	3008      	adds	r0, #8
    1176:	2243      	movs	r2, #67	; 0x43
    1178:	0010      	movs	r0, r2
    117a:	e352      	b.n	0x1822
    117c:	2222      	movs	r2, #34	; 0x22
    117e:	21a0      	movs	r1, #160	; 0xa0
    1180:	3004      	adds	r0, #4
    1182:	2243      	movs	r2, #67	; 0x43
    1184:	0004      	movs	r4, r0
    1186:	e352      	b.n	0x182e
    1188:	3002      	adds	r0, #2
    118a:	2243      	movs	r2, #67	; 0x43
    118c:	30a2      	adds	r0, #162	; 0xa2
    118e:	3043      	adds	r0, #67	; 0x43
    1190:	31a2      	adds	r1, #162	; 0xa2
    1192:	e043      	b.n	0x121c
    1194:	2020      	movs	r0, #32
    1196:	e253      	b.n	0x1640
    1198:	0007      	movs	r7, r0
    119a:	aa00      	add	r2, sp, #0
    119c:	200c      	movs	r0, #12
    119e:	e292      	b.n	0x16c6
    11a0:	0004      	movs	r4, r0
    11a2:	da00      	bge.n	0x11a6
    11a4:	c014      	stmia	r0!, {r2, r4}
    11a6:	e282      	b.n	0x16ae
    11a8:	200c      	movs	r0, #12
    11aa:	e262      	b.n	0x1672
    11ac:	0c11      	lsrs	r1, r2, #16
    11ae:	e1a0      	b.n	0x14f2
    11b0:	1231      	asrs	r1, r6, #8
    11b2:	e1a0      	b.n	0x14f6
    11b4:	0004      	movs	r4, r0
    11b6:	ea00 2014 	and.w	r0, r0, r4, lsr #8
    11ba:	e282      	b.n	0x16c2
    11bc:	c020      	stmia	r0!, {r5}
    11be:	d262      	bcs.n	0x1286
    11c0:	1211      	asrs	r1, r2, #8
    11c2:	e1a0      	b.n	0x1506
    11c4:	1c30      	adds	r0, r6, #0
    11c6:	d181      	bne.n	0x10cc
    11c8:	0210      	lsls	r0, r2, #8
    11ca:	d1a0      	bne.n	0x110e
    11cc:	4003      	ands	r3, r0
    11ce:	e054      	b.n	0x127a
    11d0:	1a04      	subs	r4, r0, r0
    11d2:	a081      	add	r0, pc, #516	; (adr r0, 0x13d8)
    11d4:	1005      	asrs	r5, r0, #32
    11d6:	a181      	add	r1, pc, #516	; (adr r1, 0x13dc)
    11d8:	4030      	ands	r0, r6
    11da:	a8bd      	add	r0, sp, #756	; 0x2f4
    11dc:	ff1e a12f 	vrhadd.u16	d10, d14, d31
    11e0:	4004      	ands	r4, r0
    11e2:	e1e0      	b.n	0x15a6
    11e4:	401f      	ands	r7, r3
    11e6:	e254      	b.n	0x1692
    11e8:	000f      	movs	r7, r1
    11ea:	aa00      	add	r2, sp, #0
    11ec:	400c      	ands	r4, r1
    11ee:	e294      	b.n	0x171a
    11f0:	0006      	movs	r6, r0
    11f2:	ca00      	ldmia	r2!, {}
    11f4:	4014      	ands	r4, r2
    11f6:	e284      	b.n	0x1702
    11f8:	2020      	movs	r0, #32
    11fa:	e264      	b.n	0x16c6
    11fc:	0430      	lsls	r0, r6, #16
    11fe:	e1a0      	b.n	0x1542
    1200:	0211      	lsls	r1, r2, #8
    1202:	e180      	b.n	0x1506
    1204:	1431      	asrs	r1, r6, #16
    1206:	e185      	b.n	0x1514
    1208:	4030      	ands	r0, r6
    120a:	e8bd ff1e 	ldmia.w	sp!, {r1, r2, r3, r4, r8, r9, sl, fp, ip, sp, lr, pc}
    120e:	e12f      	b.n	0x1470
    1210:	400c      	ands	r4, r1
    1212:	e264      	b.n	0x16de
    1214:	2020      	movs	r0, #32
    1216:	e264      	b.n	0x16e2
    1218:	0230      	lsls	r0, r6, #8
    121a:	e1a0      	b.n	0x155e
    121c:	0411      	lsls	r1, r2, #16
    121e:	e180      	b.n	0x1522
    1220:	1005      	asrs	r5, r0, #32
    1222:	e1a0      	b.n	0x1566
    1224:	4030      	ands	r0, r6
    1226:	e8bd ff1e 	ldmia.w	sp!, {r1, r2, r3, r4, r8, r9, sl, fp, ip, sp, lr, pc}
    122a:	e12f      	b.n	0x148c
    122c:	0431      	lsls	r1, r6, #16
    122e:	e1a0      	b.n	0x1572
    1230:	1005      	asrs	r5, r0, #32
    1232:	e1a0      	b.n	0x1576
    1234:	4030      	ands	r0, r6
    1236:	e8bd ff1e 	ldmia.w	sp!, {r1, r2, r3, r4, r8, r9, sl, fp, ip, sp, lr, pc}
    123a:	e12f      	b.n	0x149c
    123c:	0000      	movs	r0, r0
    123e:	e334      	b.n	0x18aa
    1240:	3601      	adds	r6, #1
    1242:	e223      	b.n	0x168c
    1244:	1601      	asrs	r1, r0, #24
    1246:	0221      	lsls	r1, r4, #8
    1248:	4001      	ands	r1, r0
    124a:	0284      	lsls	r4, r0, #10
    124c:	5001      	str	r1, [r0, r0]
    124e:	1245      	asrs	r5, r0, #9
    1250:	ff8f eaff 			; <UNDEFINED> instruction: 0xff8feaff
    1254:	cac4      	ldmia	r2, {r2, r6, r7}
    1256:	e1f0      	b.n	0x163a
    1258:	cac5      	ldmia	r2, {r0, r2, r6, r7}
    125a:	11f0      	asrs	r0, r6, #7
    125c:	001d      	movs	r5, r3
    125e:	0a00      	lsrs	r0, r0, #8
    1260:	0005      	movs	r5, r0
    1262:	e134      	b.n	0x14ce
    1264:	0002      	movs	r2, r0
    1266:	0130      	lsls	r0, r6, #4
    1268:	0004      	movs	r4, r0
    126a:	0a00      	lsrs	r0, r0, #8
    126c:	c000      	stmia	r0!, {}
    126e:	e194      	b.n	0x159a
    1270:	1003      	asrs	r3, r0, #32
    1272:	01a0      	lsls	r0, r4, #6
    1274:	0002      	movs	r2, r0
    1276:	01a0      	lsls	r0, r4, #6
    1278:	4030      	ands	r0, r6
    127a:	e8bd ff1e 	ldmia.w	sp!, {r1, r2, r3, r4, r8, r9, sl, fp, ip, sp, lr, pc}
    127e:	e12f      	b.n	0x14e0
    1280:	0003      	movs	r3, r0
    1282:	e131      	b.n	0x14e8
    1284:	1000      	asrs	r0, r0, #32
    1286:	13a0      	asrs	r0, r4, #14
    1288:	0000      	movs	r0, r0
    128a:	13a0      	asrs	r0, r4, #14
    128c:	4030      	ands	r0, r6
    128e:	18bd      	adds	r5, r7, r2
    1290:	ff1e 112f 	vrhadd.u16	d1, d14, d31
    1294:	caa4      	ldmia	r2, {r2, r5, r7}
    1296:	e1b0      	b.n	0x15fa
    1298:	0004      	movs	r4, r0
    129a:	1a00      	subs	r0, r0, r0
    129c:	0080      	lsls	r0, r0, #2
    129e:	e1b0      	b.n	0x1602
    12a0:	1001      	asrs	r1, r0, #32
    12a2:	e0b1      	b.n	0x1408
    12a4:	1102      	asrs	r2, r0, #4
    12a6:	2381      	movs	r3, #129	; 0x81
    12a8:	4030      	ands	r0, r6
    12aa:	e8bd ff1e 	ldmia.w	sp!, {r1, r2, r3, r4, r8, r9, sl, fp, ip, sp, lr, pc}
    12ae:	e12f      	b.n	0x1510
    12b0:	4501      	cmp	r1, r0
    12b2:	e294      	b.n	0x17de
    12b4:	1601      	asrs	r1, r0, #24
    12b6:	3281      	adds	r2, #129	; 0x81
    12b8:	4030      	ands	r0, r6
    12ba:	38bd      	subs	r0, #189	; 0xbd
    12bc:	ff1e 312f 	vrhadd.u16	d3, d14, d31
    12c0:	5102      	str	r2, [r0, r4]
    12c2:	e201      	b.n	0x16c8
    12c4:	147f      	asrs	r7, r7, #17
    12c6:	e385      	b.n	0x19d4
    12c8:	160f      	asrs	r7, r1, #24
    12ca:	e381      	b.n	0x19d0
    12cc:	0000      	movs	r0, r0
    12ce:	e3a0      	b.n	0x1a12
    12d0:	4030      	ands	r0, r6
    12d2:	e8bd ff1e 	ldmia.w	sp!, {r1, r2, r3, r4, r8, r9, sl, fp, ip, sp, lr, pc}
    12d6:	e12f      	b.n	0x1538
    12d8:	cac4      	ldmia	r2, {r2, r6, r7}
    12da:	e1f0      	b.n	0x16be
    12dc:	1003      	asrs	r3, r0, #32
    12de:	11a0      	asrs	r0, r4, #6
    12e0:	0002      	movs	r2, r0
    12e2:	11a0      	asrs	r0, r4, #6
    12e4:	cac5      	ldmia	r2, {r0, r2, r6, r7}
    12e6:	01f0      	lsls	r0, r6, #7
    12e8:	3001      	adds	r0, #1
    12ea:	11a0      	asrs	r0, r4, #6
    12ec:	2000      	movs	r0, #0
    12ee:	11a0      	asrs	r0, r4, #6
    12f0:	4601      	mov	r1, r0
    12f2:	e190      	b.n	0x1616
    12f4:	5603      	ldrsb	r3, [r0, r0]
    12f6:	0192      	lsls	r2, r2, #6
    12f8:	0003      	movs	r3, r0
    12fa:	0131      	lsls	r1, r6, #4
    12fc:	1702      	asrs	r2, r0, #28
    12fe:	1381      	asrs	r1, r0, #14
    1300:	4030      	ands	r0, r6
    1302:	e8bd ff1e 	ldmia.w	sp!, {r1, r2, r3, r4, r8, r9, sl, fp, ip, sp, lr, pc}
    1306:	e12f      	b.n	0x1568
    1308:	0000      	movs	r0, r0
    130a:	e330      	b.n	0x196e
    130c:	1000      	asrs	r0, r0, #32
    130e:	03a0      	lsls	r0, r4, #14
    1310:	ff1e 012f 	vrhadd.u16	d0, d14, d31
    1314:	4030      	ands	r0, r6
    1316:	e92d 4b01 	stmdb	sp!, {r0, r8, r9, fp, lr}
    131a:	e3a0      	b.n	0x1a5e
    131c:	4032      	ands	r2, r6
    131e:	e284      	b.n	0x182a
    1320:	5000      	str	r0, [r0, r0]
    1322:	e3a0      	b.n	0x1a66
    1324:	1000      	asrs	r0, r0, #32
    1326:	e3a0      	b.n	0x1a6a
    1328:	ff86 eaff 			; <UNDEFINED> instruction: 0xff86eaff
    132c:	0000      	movs	r0, r0
    132e:	e330      	b.n	0x1992
    1330:	1000      	asrs	r0, r0, #32
    1332:	03a0      	lsls	r0, r4, #14
    1334:	ff1e 012f 	vrhadd.u16	d0, d14, d31
    1338:	4030      	ands	r0, r6
    133a:	e92d 4b01 	stmdb	sp!, {r0, r8, r9, fp, lr}
    133e:	e3a0      	b.n	0x1a82
    1340:	4032      	ands	r2, r6
    1342:	e284      	b.n	0x184e
    1344:	5102      	str	r2, [r0, r4]
    1346:	e210      	b.n	0x176a
    1348:	0000      	movs	r0, r0
    134a:	4260      	negs	r0, r4
    134c:	1000      	asrs	r0, r0, #32
    134e:	e3a0      	b.n	0x1a92
    1350:	ff7c eaff 	vpmin.u<illegal width 64>	q15, q14, <illegal reg q15.5>
    1354:	2080      	movs	r0, #128	; 0x80
    1356:	e1b0      	b.n	0x16ba
    1358:	11c2      	asrs	r2, r0, #7
    135a:	e1a0      	b.n	0x169e
    135c:	1061      	asrs	r1, r4, #1
    135e:	e1a0      	b.n	0x16a2
    1360:	0e02      	lsrs	r2, r0, #24
    1362:	e1a0      	b.n	0x16a6
    1364:	34ff      	adds	r4, #255	; 0xff
    1366:	1212      	asrs	r2, r2, #8
    1368:	04ff      	lsls	r7, r7, #19
    136a:	1333      	asrs	r3, r6, #12
    136c:	130e      	asrs	r6, r1, #12
    136e:	1221      	asrs	r1, r4, #8
    1370:	ff1e 112f 	vrhadd.u16	d1, d14, d31
    1374:	24ff      	movs	r4, #255	; 0xff
    1376:	e3d2      	b.n	0x1b1e
    1378:	ff1e 012f 	vrhadd.u16	d0, d14, d31
    137c:	04ff      	lsls	r7, r7, #19
    137e:	e333      	b.n	0x19e8
    1380:	1702      	asrs	r2, r0, #28
    1382:	0381      	lsls	r1, r0, #14
    1384:	ff1e 012f 	vrhadd.u16	d0, d14, d31
    1388:	4030      	ands	r0, r6
    138a:	e92d 4d0e 	stmdb	sp!, {r1, r2, r3, r8, sl, fp, lr}
    138e:	e3a0      	b.n	0x1ad2
    1390:	5102      	str	r2, [r0, r4]
    1392:	e201      	b.n	0x1798
    1394:	1102      	asrs	r2, r0, #4
    1396:	e3c1      	b.n	0x1b1c
    1398:	ff6a eaff 	vpmin.u32	q15, q13, <illegal reg q15.5>
    139c:	2001      	movs	r0, #1
    139e:	e190      	b.n	0x16c2
    13a0:	ff1e 012f 	vrhadd.u16	d0, d14, d31
    13a4:	4030      	ands	r0, r6
    13a6:	e92d 5000 	stmdb	sp!, {ip, lr}
    13aa:	e3a0      	b.n	0x1aee
    13ac:	0006      	movs	r6, r0
    13ae:	ea00 2001 	and.w	r0, r0, r1, lsl #8
    13b2:	e190      	b.n	0x16d6
    13b4:	ff1e 012f 	vrhadd.u16	d0, d14, d31
    13b8:	4030      	ands	r0, r6
    13ba:	e92d 5102 	stmdb	sp!, {r1, r8, ip, lr}
    13be:	e211      	b.n	0x17e4
    13c0:	0001      	movs	r1, r0
    13c2:	5a00      	ldrh	r0, [r0, r0]
    13c4:	0000      	movs	r0, r0
    13c6:	e270      	b.n	0x18aa
    13c8:	1000      	asrs	r0, r0, #32
    13ca:	e2e1      	b.n	0x1990
    13cc:	4b01      	ldr	r3, [pc, #4]	; (0x13d4)
    13ce:	e3a0      	b.n	0x1b12
    13d0:	4032      	ands	r2, r6
    13d2:	e284      	b.n	0x18de
    13d4:	cb21      	ldmia	r3!, {r0, r5}
    13d6:	e1b0      	b.n	0x173a
    13d8:	ff42 0aff 	vpmin.u8	q8, q9, <illegal reg q15.5>
    13dc:	2003      	movs	r0, #3
    13de:	e3a0      	b.n	0x1b22
    13e0:	c1ac      	stmia	r1!, {r2, r3, r5, r7}
    13e2:	e1b0      	b.n	0x1746
    13e4:	2003      	movs	r0, #3
    13e6:	1282      	asrs	r2, r0, #10
    13e8:	c1ac      	stmia	r1!, {r2, r3, r5, r7}
    13ea:	e1b0      	b.n	0x174e
    13ec:	2003      	movs	r0, #3
    13ee:	1282      	asrs	r2, r0, #10
    13f0:	21ac      	movs	r1, #172	; 0xac
    13f2:	e082      	b.n	0x14fa
    13f4:	3020      	adds	r0, #32
    13f6:	e262      	b.n	0x18be
    13f8:	c310      	stmia	r3!, {r4}
    13fa:	e1a0      	b.n	0x173e
    13fc:	0230      	lsls	r0, r6, #8
    13fe:	e1a0      	b.n	0x1742
    1400:	0311      	lsls	r1, r2, #12
    1402:	e180      	b.n	0x1706
    1404:	1231      	asrs	r1, r6, #8
    1406:	e1a0      	b.n	0x174a
    1408:	4002      	ands	r2, r0
    140a:	e084      	b.n	0x1516
    140c:	ff35 eaff 	vpmin.u<illegal width 64>	q7, <illegal reg q10.5>, <illegal reg q15.5>
    1410:	4070      	eors	r0, r6
    1412:	e92d c0ff 	stmdb	sp!, {r0, r1, r2, r3, r4, r5, r6, r7, lr, pc}
    1416:	e3a0      	b.n	0x1b5a
    1418:	cc07      	ldmia	r4!, {r0, r1, r2}
    141a:	e38c      	b.n	0x1b36
    141c:	4a21      	ldr	r2, [pc, #132]	; (0x14a4)
    141e:	e01c      	b.n	0x145a
    1420:	5a23      	ldrh	r3, [r4, r0]
    1422:	101c      	asrs	r4, r3, #32
    1424:	000c      	movs	r4, r1
    1426:	1134      	asrs	r4, r6, #4
    1428:	000c      	movs	r4, r1
    142a:	1135      	asrs	r5, r6, #4
    142c:	0075      	lsls	r5, r6, #1
    142e:	0b00      	lsrs	r0, r0, #12
    1430:	4005      	ands	r5, r0
    1432:	e084      	b.n	0x153e
    1434:	6003      	str	r3, [r0, #0]
    1436:	e021      	b.n	0x147c
    1438:	1a8c      	subs	r4, r1, r2
    143a:	e1c1      	b.n	0x17c0
    143c:	3a8c      	subs	r2, #140	; 0x8c
    143e:	e1c3      	b.n	0x17c8
    1440:	5601      	ldrsb	r1, [r0, r0]
    1442:	e190      	b.n	0x1766
    1444:	5603      	ldrsb	r3, [r0, r0]
    1446:	1192      	asrs	r2, r2, #6
    1448:	1601      	asrs	r1, r0, #24
    144a:	e381      	b.n	0x1b50
    144c:	3601      	adds	r6, #1
    144e:	e383      	b.n	0x1b58
    1450:	001d      	movs	r5, r3
    1452:	0a00      	lsrs	r0, r0, #8
    1454:	c290      	stmia	r2!, {r4, r7}
    1456:	e08e      	b.n	0x1576
    1458:	5000      	str	r0, [r0, r0]
    145a:	e3a0      	b.n	0x1b9e
    145c:	e291      	b.n	0x1982
    145e:	e0a5      	b.n	0x15ac
    1460:	2102      	movs	r1, #2
    1462:	e206      	b.n	0x1872
    1464:	e390      	b.n	0x1b88
    1466:	e0a5      	b.n	0x15b4
    1468:	6000      	str	r0, [r0, #0]
    146a:	e3a0      	b.n	0x1bae
    146c:	5391      	strh	r1, [r2, r6]
    146e:	e0a6      	b.n	0x15be
    1470:	0000      	movs	r0, r0
    1472:	e33c      	b.n	0x1aee
    1474:	e001      	b.n	0x147a
    1476:	138e      	asrs	r6, r1, #14
    1478:	40ff      	lsrs	r7, r7
    147a:	e244      	b.n	0x1906
    147c:	0c02      	lsrs	r2, r0, #16
    147e:	e356      	b.n	0x1b2e
    1480:	4c03      	ldr	r4, [pc, #12]	; (0x1490)
    1482:	e2c4      	b.n	0x1a0e
    1484:	0002      	movs	r2, r0
    1486:	2a00      	cmp	r2, #0
    1488:	e08e      	b.n	0x15a8
    148a:	e1b0      	b.n	0x17ee
    148c:	5005      	str	r5, [r0, r0]
    148e:	e0b5      	b.n	0x15fc
    1490:	6006      	str	r6, [r0, #0]
    1492:	e0a6      	b.n	0x15e2
    1494:	1586      	asrs	r6, r0, #22
    1496:	e182      	b.n	0x179e
    1498:	1aa5      	subs	r5, r4, r2
    149a:	e181      	b.n	0x17a0
    149c:	0585      	lsls	r5, r0, #22
    149e:	e1a0      	b.n	0x17e2
    14a0:	0aae      	lsrs	r6, r5, #10
    14a2:	e180      	b.n	0x17a6
    14a4:	e58e      	b.n	0xfc4
    14a6:	e1a0      	b.n	0x17ea
    14a8:	c0fd      	stmia	r0!, {r0, r2, r3, r4, r5, r6, r7}
    14aa:	e254      	b.n	0x1956
    14ac:	0c07      	lsrs	r7, r0, #16
    14ae:	835c      	strh	r4, [r3, #26]
    14b0:	0011      	movs	r1, r2
    14b2:	8a00      	ldrh	r0, [r0, #16]
    14b4:	0102      	lsls	r2, r0, #4
    14b6:	e35e      	b.n	0x1b76
    14b8:	e0a0      	b.n	0x15fc
    14ba:	01b0      	lsls	r0, r6, #6
    14bc:	0000      	movs	r0, r0
    14be:	e2b0      	b.n	0x1a22
    14c0:	1a04      	subs	r4, r0, r0
    14c2:	e0a1      	b.n	0x1608
    14c4:	4070      	eors	r0, r6
    14c6:	e8bd ff1e 	ldmia.w	sp!, {r1, r2, r3, r4, r8, r9, sl, fp, ip, sp, lr, pc}
    14ca:	e12f      	b.n	0x172c
    14cc:	6102      	str	r2, [r0, #16]
    14ce:	e206      	b.n	0x18de
    14d0:	1001      	asrs	r1, r0, #32
    14d2:	e186      	b.n	0x17e2
    14d4:	0002      	movs	r2, r0
    14d6:	e180      	b.n	0x17da
    14d8:	1003      	asrs	r3, r0, #32
    14da:	e021      	b.n	0x1520
    14dc:	40ac      	lsls	r4, r5
    14de:	e054      	b.n	0x158a
    14e0:	500c      	str	r4, [r1, r0]
    14e2:	c074      	stmia	r0!, {r2, r4, r5, r6}
    14e4:	1a04      	subs	r4, r0, r0
    14e6:	c181      	stmia	r1!, {r0, r7}
    14e8:	4070      	eors	r0, r6
    14ea:	c8bd      	ldmia	r0, {r0, r2, r3, r4, r5, r7}
    14ec:	ff1e c12f 	vrhadd.u16	d12, d14, d31
    14f0:	1601      	asrs	r1, r0, #24
    14f2:	e381      	b.n	0x1bf8
    14f4:	e000      	b.n	0x14f8
    14f6:	e3a0      	b.n	0x1c3a
    14f8:	4001      	ands	r1, r0
    14fa:	e254      	b.n	0x19a6
    14fc:	005d      	lsls	r5, r3, #1
    14fe:	ca00      	ldmia	r2!, {}
    1500:	0036      	movs	r6, r6
    1502:	e374      	b.n	0x1bee
    1504:	0000      	movs	r0, r0
    1506:	d3a0      	bcc.n	0x144a
    1508:	1102      	asrs	r2, r0, #4
    150a:	d201      	bcs.n	0x1510
    150c:	4070      	eors	r0, r6
    150e:	d8bd      	bhi.n	0x148c
    1510:	ff1e d12f 	vrhadd.u16	d13, d14, d31
    1514:	4000      	ands	r0, r0
    1516:	e264      	b.n	0x19e2
    1518:	4020      	ands	r0, r4
    151a:	e254      	b.n	0x19c6
    151c:	001a      	movs	r2, r3
    151e:	aa00      	add	r2, sp, #0
    1520:	400c      	ands	r4, r1
    1522:	e294      	b.n	0x1a4e
    1524:	000c      	movs	r4, r1
    1526:	ca00      	ldmia	r2!, {}
    1528:	4014      	ands	r4, r2
    152a:	e284      	b.n	0x1a36
    152c:	5020      	str	r0, [r4, r0]
    152e:	e264      	b.n	0x19fa
    1530:	3510      	adds	r5, #16
    1532:	e1a0      	b.n	0x1876
    1534:	0430      	lsls	r0, r6, #16
    1536:	e1a0      	b.n	0x187a
    1538:	0511      	lsls	r1, r2, #20
    153a:	e180      	b.n	0x183e
    153c:	2102      	movs	r1, #2
    153e:	e201      	b.n	0x1944
    1540:	1102      	asrs	r2, r0, #4
    1542:	e3c1      	b.n	0x1cc8
    1544:	0fa3      	lsrs	r3, r4, #30
    1546:	e090      	b.n	0x166a
    1548:	1431      	asrs	r1, r6, #16
    154a:	e0a2      	b.n	0x1692
    154c:	e083      	b.n	0x1656
    154e:	e19e      	b.n	0x188e
    1550:	0fa3      	lsrs	r3, r4, #30
    1552:	01c0      	lsls	r0, r0, #7
    1554:	4070      	eors	r0, r6
    1556:	e8bd ff1e 	ldmia.w	sp!, {r1, r2, r3, r4, r8, r9, sl, fp, ip, sp, lr, pc}
    155a:	e12f      	b.n	0x17bc
    155c:	400c      	ands	r4, r1
    155e:	e264      	b.n	0x1a2a
    1560:	5020      	str	r0, [r4, r0]
    1562:	e264      	b.n	0x1a2e
    1564:	3410      	adds	r4, #16
    1566:	e1a0      	b.n	0x18aa
    1568:	0530      	lsls	r0, r6, #20
    156a:	e1a0      	b.n	0x18ae
    156c:	0411      	lsls	r1, r2, #16
    156e:	e180      	b.n	0x1872
    1570:	1102      	asrs	r2, r0, #4
    1572:	e201      	b.n	0x1978
    1574:	0fa3      	lsrs	r3, r4, #30
    1576:	e090      	b.n	0x169a
    1578:	1000      	asrs	r0, r0, #32
    157a:	e2a1      	b.n	0x1ac0
    157c:	e083      	b.n	0x1686
    157e:	e19e      	b.n	0x18be
    1580:	0fa3      	lsrs	r3, r4, #30
    1582:	01c0      	lsls	r0, r0, #7
    1584:	4070      	eors	r0, r6
    1586:	e8bd ff1e 	ldmia.w	sp!, {r1, r2, r3, r4, r8, r9, sl, fp, ip, sp, lr, pc}
    158a:	e12f      	b.n	0x17ec
    158c:	5020      	str	r0, [r4, r0]
    158e:	e264      	b.n	0x1a5a
    1590:	e510      	b.n	0xfb4
    1592:	e18e      	b.n	0x18b2
    1594:	3430      	adds	r4, #48	; 0x30
    1596:	e1a0      	b.n	0x18da
    1598:	3511      	adds	r5, #17
    159a:	e183      	b.n	0x18a4
    159c:	0431      	lsls	r1, r6, #16
    159e:	e1a0      	b.n	0x18e2
    15a0:	1102      	asrs	r2, r0, #4
    15a2:	e201      	b.n	0x19a8
    15a4:	0431      	lsls	r1, r6, #16
    15a6:	e1c0      	b.n	0x192a
    15a8:	0fa3      	lsrs	r3, r4, #30
    15aa:	e080      	b.n	0x16ae
    15ac:	e083      	b.n	0x16b6
    15ae:	e19e      	b.n	0x18ee
    15b0:	0fa3      	lsrs	r3, r4, #30
    15b2:	01c0      	lsls	r0, r0, #7
    15b4:	4070      	eors	r0, r6
    15b6:	e8bd ff1e 	ldmia.w	sp!, {r1, r2, r3, r4, r8, r9, sl, fp, ip, sp, lr, pc}
    15ba:	e12f      	b.n	0x181c
    15bc:	0000      	movs	r0, r0
    15be:	e334      	b.n	0x1c2a
    15c0:	0008      	movs	r0, r1
    15c2:	1a00      	subs	r0, r0, r0
    15c4:	6102      	str	r2, [r0, #16]
    15c6:	e201      	b.n	0x19cc
    15c8:	0080      	lsls	r0, r0, #2
    15ca:	e1b0      	b.n	0x192e
    15cc:	1001      	asrs	r1, r0, #32
    15ce:	e0a1      	b.n	0x1714
    15d0:	0601      	lsls	r1, r0, #24
    15d2:	e311      	b.n	0x1bf8
    15d4:	4001      	ands	r1, r0
    15d6:	0244      	lsls	r4, r0, #9
    15d8:	fffa 0aff 			; <UNDEFINED> instruction: 0xfffa0aff
    15dc:	1006      	asrs	r6, r0, #32
    15de:	e181      	b.n	0x18e4
    15e0:	0000      	movs	r0, r0
    15e2:	e335      	b.n	0x1c50
    15e4:	ff1e 112f 	vrhadd.u16	d1, d14, d31
    15e8:	6102      	str	r2, [r0, #16]
    15ea:	e203      	b.n	0x19f4
    15ec:	2082      	movs	r0, #130	; 0x82
    15ee:	e1b0      	b.n	0x1952
    15f0:	3003      	adds	r0, #3
    15f2:	e0a3      	b.n	0x173c
    15f4:	0601      	lsls	r1, r0, #24
    15f6:	e313      	b.n	0x1c20
    15f8:	5001      	str	r1, [r0, r0]
    15fa:	0245      	lsls	r5, r0, #9
    15fc:	fffa 0aff 			; <UNDEFINED> instruction: 0xfffa0aff
    1600:	3006      	adds	r0, #6
    1602:	e183      	b.n	0x190c
    1604:	ff1e e12f 	vrhadd.u16	d14, d14, d31
    1608:	000c      	movs	r4, r1
    160a:	e134      	b.n	0x1876
    160c:	5a23      	ldrh	r3, [r4, r0]
    160e:	e00c      	b.n	0x162a
    1610:	000c      	movs	r4, r1
    1612:	1135      	asrs	r5, r6, #4
    1614:	0007      	movs	r7, r0
    1616:	0a00      	lsrs	r0, r0, #8
    1618:	6081      	str	r1, [r0, #8]
    161a:	e190      	b.n	0x193e
    161c:	6083      	str	r3, [r0, #8]
    161e:	1192      	asrs	r2, r2, #6
    1620:	ffe5 1aff 			; <UNDEFINED> instruction: 0xffe51aff
    1624:	1003      	asrs	r3, r0, #32
    1626:	e021      	b.n	0x166c
    1628:	1102      	asrs	r2, r0, #4
    162a:	e201      	b.n	0x1a30
    162c:	0000      	movs	r0, r0
    162e:	e3a0      	b.n	0x1d72
    1630:	4070      	eors	r0, r6
    1632:	e8bd ff1e 	ldmia.w	sp!, {r1, r2, r3, r4, r8, r9, sl, fp, ip, sp, lr, pc}
    1636:	e12f      	b.n	0x1898
    1638:	6081      	str	r1, [r0, #8]
    163a:	e190      	b.n	0x195e
    163c:	0002      	movs	r2, r0
    163e:	01a0      	lsls	r0, r4, #6
    1640:	1003      	asrs	r3, r0, #32
    1642:	01a0      	lsls	r0, r4, #6
    1644:	6083      	str	r3, [r0, #8]
    1646:	1192      	asrs	r2, r2, #6
    1648:	0010      	movs	r0, r2
    164a:	0a00      	lsrs	r0, r0, #8
    164c:	000c      	movs	r4, r1
    164e:	e134      	b.n	0x18ba
    1650:	0001      	movs	r1, r0
    1652:	1a00      	subs	r0, r0, r0
    1654:	6601      	str	r1, [r0, #96]	; 0x60
    1656:	e190      	b.n	0x197a
    1658:	000c      	movs	r4, r1
    165a:	1a00      	subs	r0, r0, r0
    165c:	000c      	movs	r4, r1
    165e:	e135      	b.n	0x18cc
    1660:	0003      	movs	r3, r0
    1662:	1a00      	subs	r0, r0, r0
    1664:	6603      	str	r3, [r0, #96]	; 0x60
    1666:	e192      	b.n	0x198e
    1668:	0002      	movs	r2, r0
    166a:	11a0      	asrs	r0, r4, #6
    166c:	1003      	asrs	r3, r0, #32
    166e:	11a0      	asrs	r0, r4, #6
    1670:	0006      	movs	r6, r0
    1672:	1a00      	subs	r0, r0, r0
    1674:	1003      	asrs	r3, r0, #32
    1676:	e021      	b.n	0x16bc
    1678:	1102      	asrs	r2, r0, #4
    167a:	e201      	b.n	0x1a80
    167c:	147f      	asrs	r7, r7, #17
    167e:	e381      	b.n	0x1d84
    1680:	160f      	asrs	r7, r1, #24
    1682:	e381      	b.n	0x1d88
    1684:	0000      	movs	r0, r0
    1686:	e3a0      	b.n	0x1dca
    1688:	4070      	eors	r0, r6
    168a:	e8bd ff1e 	ldmia.w	sp!, {r1, r2, r3, r4, r8, r9, sl, fp, ip, sp, lr, pc}
    168e:	e12f      	b.n	0x18f0
    1690:	147f      	asrs	r7, r7, #17
    1692:	e381      	b.n	0x1d98
    1694:	173e      	asrs	r6, r7, #28
    1696:	e381      	b.n	0x1d9c
    1698:	4070      	eors	r0, r6
    169a:	e8bd ff1e 	ldmia.w	sp!, {r1, r2, r3, r4, r8, r9, sl, fp, ip, sp, lr, pc}
    169e:	e12f      	b.n	0x1900
    16a0:	4070      	eors	r0, r6
    16a2:	e92d c0ff 	stmdb	sp!, {r0, r1, r2, r3, r4, r5, r6, r7, lr, pc}
    16a6:	e3a0      	b.n	0x1dea
    16a8:	cc07      	ldmia	r4!, {r0, r1, r2}
    16aa:	e38c      	b.n	0x1dc6
    16ac:	4a21      	ldr	r2, [pc, #132]	; (0x1734)
    16ae:	e01c      	b.n	0x16ea
    16b0:	5a23      	ldrh	r3, [r4, r0]
    16b2:	101c      	asrs	r4, r3, #32
    16b4:	000c      	movs	r4, r1
    16b6:	1134      	asrs	r4, r6, #4
    16b8:	000c      	movs	r4, r1
    16ba:	1135      	asrs	r5, r6, #4
    16bc:	005e      	lsls	r6, r3, #1
    16be:	0b00      	lsrs	r0, r0, #12
    16c0:	4005      	ands	r5, r0
    16c2:	e044      	b.n	0x174e
    16c4:	e003      	b.n	0x16ce
    16c6:	e021      	b.n	0x170c
    16c8:	5603      	ldrsb	r3, [r0, r0]
    16ca:	e192      	b.n	0x19f2
    16cc:	1601      	asrs	r1, r0, #24
    16ce:	e1a0      	b.n	0x1a12
    16d0:	004c      	lsls	r4, r1, #1
    16d2:	0a00      	lsrs	r0, r0, #8
    16d4:	3603      	adds	r6, #3
    16d6:	e1a0      	b.n	0x1a1a
    16d8:	5201      	strh	r1, [r0, r0]
    16da:	e3a0      	b.n	0x1e1e
    16dc:	3223      	adds	r2, #35	; 0x23
    16de:	e185      	b.n	0x19ec
    16e0:	3c22      	subs	r4, #34	; 0x22
    16e2:	e183      	b.n	0x19ec
    16e4:	2402      	movs	r4, #2
    16e6:	e1a0      	b.n	0x1a2a
    16e8:	5221      	strh	r1, [r4, r0]
    16ea:	e185      	b.n	0x19f8
    16ec:	5c20      	ldrb	r0, [r4, r0]
    16ee:	e185      	b.n	0x19fc
    16f0:	6400      	str	r0, [r0, #64]	; 0x40
    16f2:	e1a0      	b.n	0x1a36
    16f4:	1102      	asrs	r2, r0, #4
    16f6:	e20e      	b.n	0x1b16
    16f8:	0003      	movs	r3, r0
    16fa:	e155      	b.n	0x19a8
    16fc:	0002      	movs	r2, r0
    16fe:	0156      	lsls	r6, r2, #5
    1700:	40fd      	lsrs	r5, r7
    1702:	e2a4      	b.n	0x1c4e
    1704:	4c03      	ldr	r4, [pc, #12]	; (0x1714)
    1706:	e284      	b.n	0x1c12
    1708:	0001      	movs	r1, r0
    170a:	2a00      	cmp	r2, #0
    170c:	30a3      	adds	r0, #163	; 0xa3
    170e:	e1b0      	b.n	0x1a72
    1710:	2062      	movs	r0, #98	; 0x62
    1712:	e1a0      	b.n	0x1a56
    1714:	6002      	str	r2, [r0, #0]
    1716:	e056      	b.n	0x17c6
    1718:	5003      	str	r3, [r0, r0]
    171a:	e0c5      	b.n	0x18a8
    171c:	30a3      	adds	r0, #163	; 0xa3
    171e:	e1b0      	b.n	0x1a82
    1720:	2062      	movs	r0, #98	; 0x62
    1722:	e1a0      	b.n	0x1a66
    1724:	0601      	lsls	r1, r0, #24
    1726:	e3a0      	b.n	0x1e6a
    1728:	c702      	stmia	r7!, {r1}
    172a:	e3a0      	b.n	0x1e6e
    172c:	e002      	b.n	0x1734
    172e:	e056      	b.n	0x17de
    1730:	e003      	b.n	0x173a
    1732:	e0d5      	b.n	0x18e0
    1734:	6002      	str	r2, [r0, #0]
    1736:	2046      	movs	r0, #70	; 0x46
    1738:	500e      	str	r6, [r1, r0]
    173a:	21a0      	movs	r1, #160	; 0xa0
    173c:	000c      	movs	r4, r1
    173e:	2180      	movs	r1, #128	; 0x80
    1740:	30a3      	adds	r0, #163	; 0xa3
    1742:	e1b0      	b.n	0x1aa6
    1744:	2062      	movs	r0, #98	; 0x62
    1746:	e1a0      	b.n	0x1a8a
    1748:	e002      	b.n	0x1750
    174a:	e056      	b.n	0x17fa
    174c:	e003      	b.n	0x1756
    174e:	e0d5      	b.n	0x18fc
    1750:	6002      	str	r2, [r0, #0]
    1752:	2046      	movs	r0, #70	; 0x46
    1754:	500e      	str	r6, [r1, r0]
    1756:	21a0      	movs	r1, #160	; 0xa0
    1758:	00ac      	lsls	r4, r5, #2
    175a:	2180      	movs	r1, #128	; 0x80
    175c:	30a3      	adds	r0, #163	; 0xa3
    175e:	e1b0      	b.n	0x1ac2
    1760:	2062      	movs	r0, #98	; 0x62
    1762:	e1a0      	b.n	0x1aa6
    1764:	e002      	b.n	0x176c
    1766:	e056      	b.n	0x1816
    1768:	e003      	b.n	0x1772
    176a:	e0d5      	b.n	0x1918
    176c:	6002      	str	r2, [r0, #0]
    176e:	2046      	movs	r0, #70	; 0x46
    1770:	500e      	str	r6, [r1, r0]
    1772:	21a0      	movs	r1, #160	; 0xa0
    1774:	012c      	lsls	r4, r5, #4
    1776:	2180      	movs	r1, #128	; 0x80
    1778:	30a3      	adds	r0, #163	; 0xa3
    177a:	e1b0      	b.n	0x1ade
    177c:	2062      	movs	r0, #98	; 0x62
    177e:	e1a0      	b.n	0x1ac2
    1780:	e002      	b.n	0x1788
    1782:	e056      	b.n	0x1832
    1784:	e003      	b.n	0x178e
    1786:	e0d5      	b.n	0x1934
    1788:	6002      	str	r2, [r0, #0]
    178a:	2046      	movs	r0, #70	; 0x46
    178c:	500e      	str	r6, [r1, r0]
    178e:	21a0      	movs	r1, #160	; 0xa0
    1790:	01ac      	lsls	r4, r5, #6
    1792:	2180      	movs	r1, #128	; 0x80
    1794:	e006      	b.n	0x17a4
    1796:	e195      	b.n	0x1ac4
    1798:	000d      	movs	r5, r1
    179a:	0a00      	lsrs	r0, r0, #8
    179c:	5205      	strh	r5, [r0, r0]
    179e:	e1a0      	b.n	0x1ae2
    17a0:	5e26      	ldrsh	r6, [r4, r0]
    17a2:	e185      	b.n	0x1ab0
    17a4:	6206      	str	r6, [r0, #32]
    17a6:	e1a0      	b.n	0x1aea
    17a8:	3183      	adds	r1, #131	; 0x83
    17aa:	e1a0      	b.n	0x1aee
    17ac:	3ea2      	subs	r6, #162	; 0xa2
    17ae:	e183      	b.n	0x1ab8
    17b0:	2182      	movs	r1, #130	; 0x82
    17b2:	e1a0      	b.n	0x1af6
    17b4:	c22c      	stmia	r2!, {r2, r3, r5}
    17b6:	e1b0      	b.n	0x1b1a
    17b8:	ffdb 1aff 			; <UNDEFINED> instruction: 0xffdb1aff
    17bc:	0601      	lsls	r1, r0, #24
    17be:	e311      	b.n	0x1de4
    17c0:	0006      	movs	r6, r0
    17c2:	1a00      	subs	r0, r0, r0
    17c4:	1000      	asrs	r0, r0, #32
    17c6:	e181      	b.n	0x1acc
    17c8:	0000      	movs	r0, r0
    17ca:	e3a0      	b.n	0x1f0e
    17cc:	c102      	stmia	r1!, {r1}
    17ce:	e3a0      	b.n	0x1f12
    17d0:	ffd5 eaff 			; <UNDEFINED> instruction: 0xffd5eaff
    17d4:	0601      	lsls	r1, r0, #24
    17d6:	e311      	b.n	0x1dfc
    17d8:	1000      	asrs	r0, r0, #32
    17da:	0181      	lsls	r1, r0, #6
    17dc:	0000      	movs	r0, r0
    17de:	03a0      	lsls	r0, r4, #14
    17e0:	c0fd      	stmia	r0!, {r0, r2, r3, r4, r5, r6, r7}
    17e2:	e254      	b.n	0x1c8e
    17e4:	0c07      	lsrs	r7, r0, #16
    17e6:	835c      	strh	r4, [r3, #26]
    17e8:	ff43 8aff 	vpmin.u8	q12, <illegal reg q9.5>, <illegal reg q15.5>
    17ec:	c003      	stmia	r0!, {r0, r1}
    17ee:	e055      	b.n	0x189c
    17f0:	c002      	stmia	r0!, {r1}
    17f2:	0056      	lsls	r6, r2, #1
    17f4:	c0a0      	stmia	r0!, {r5, r7}
    17f6:	01b0      	lsls	r0, r6, #6
    17f8:	0000      	movs	r0, r0
    17fa:	e2b0      	b.n	0x1d5e
    17fc:	1a04      	subs	r4, r0, r0
    17fe:	e0a1      	b.n	0x1944
    1800:	4070      	eors	r0, r6
    1802:	e8bd ff1e 	ldmia.w	sp!, {r1, r2, r3, r4, r8, r9, sl, fp, ip, sp, lr, pc}
    1806:	e12f      	b.n	0x1a68
    1808:	e102      	b.n	0x1a10
    180a:	e20e      	b.n	0x1c2a
    180c:	1621      	asrs	r1, r4, #24
    180e:	e18e      	b.n	0x1b2e
    1810:	40ac      	lsls	r4, r5
    1812:	e094      	b.n	0x193e
    1814:	500c      	str	r4, [r1, r0]
    1816:	c074      	stmia	r0!, {r2, r4, r5, r6}
    1818:	1a04      	subs	r4, r0, r0
    181a:	c181      	stmia	r1!, {r0, r7}
    181c:	4070      	eors	r0, r6
    181e:	c8bd      	ldmia	r0, {r0, r2, r3, r4, r5, r7}
    1820:	ff1e c12f 	vrhadd.u16	d12, d14, d31
    1824:	1601      	asrs	r1, r0, #24
    1826:	e381      	b.n	0x1f2c
    1828:	e000      	b.n	0x182c
    182a:	e3a0      	b.n	0x1f6e
    182c:	4001      	ands	r1, r0
    182e:	e254      	b.n	0x1cda
    1830:	ff31 eaff 	vpmin.u<illegal width 64>	q7, <illegal reg q8.5>, <illegal reg q15.5>
    1834:	e006      	b.n	0x1844
    1836:	e185      	b.n	0x1b44
    1838:	ff2f eaff 	vpmin.u32	q7, <illegal reg q15.5>, <illegal reg q15.5>
    183c:	5a23      	ldrh	r3, [r4, r0]
    183e:	e00c      	b.n	0x185a
    1840:	000c      	movs	r4, r1
    1842:	e134      	b.n	0x1aae
    1844:	000c      	movs	r4, r1
    1846:	0135      	lsls	r5, r6, #4
    1848:	ff90 0aff 			; <UNDEFINED> instruction: 0xff900aff
    184c:	000c      	movs	r4, r1
    184e:	e134      	b.n	0x1aba
    1850:	0006      	movs	r6, r0
    1852:	1a00      	subs	r0, r0, r0
    1854:	4601      	mov	r1, r0
    1856:	e190      	b.n	0x1b7a
    1858:	ff8c 1aff 			; <UNDEFINED> instruction: 0xff8c1aff
    185c:	000c      	movs	r4, r1
    185e:	e135      	b.n	0x1acc
    1860:	ff83 1aff 			; <UNDEFINED> instruction: 0xff831aff
    1864:	0002      	movs	r2, r0
    1866:	e1a0      	b.n	0x1baa
    1868:	1003      	asrs	r3, r0, #32
    186a:	e1a0      	b.n	0x1bae
    186c:	ff87 eaff 			; <UNDEFINED> instruction: 0xff87eaff
    1870:	000c      	movs	r4, r1
    1872:	e135      	b.n	0x1ae0
    1874:	0004      	movs	r4, r0
    1876:	1a00      	subs	r0, r0, r0
    1878:	5603      	ldrsb	r3, [r0, r0]
    187a:	e192      	b.n	0x1ba2
    187c:	ff68 0aff 	vpmin.u32	q8, q12, <illegal reg q15.5>
    1880:	0002      	movs	r2, r0
    1882:	e1a0      	b.n	0x1bc6
    1884:	1003      	asrs	r3, r0, #32
    1886:	e1a0      	b.n	0x1bca
    1888:	ff80 eaff 			; <UNDEFINED> instruction: 0xff80eaff
    188c:	6081      	str	r1, [r0, #8]
    188e:	e190      	b.n	0x1bb2
    1890:	6083      	str	r3, [r0, #8]
    1892:	1192      	asrs	r2, r2, #6
    1894:	ff48 1aff 	vpmin.u8	<illegal reg q8.5>, q12, <illegal reg q15.5>
    1898:	4081      	lsls	r1, r0
    189a:	e190      	b.n	0x1bbe
    189c:	ff74 1aff 	vpmin.u<illegal width 64>	<illegal reg q8.5>, q10, <illegal reg q15.5>
    18a0:	5083      	str	r3, [r0, r2]
    18a2:	e192      	b.n	0x1bca
    18a4:	ff5e 1aff 	vpmin.u16	<illegal reg q8.5>, q15, <illegal reg q15.5>
    18a8:	ff78 eaff 	vpmin.u<illegal width 64>	q15, q12, <illegal reg q15.5>
    18ac:	c000      	stmia	r0!, {}
    18ae:	e3e0      	b.n	0x2072
    18b0:	0002      	movs	r2, r0
    18b2:	ea00 c001 			; <UNDEFINED> instruction: 0xea00c001
    18b6:	e3a0      	b.n	0x1ffa
    18b8:	0000      	movs	r0, r0
    18ba:	ea00 c001 			; <UNDEFINED> instruction: 0xea00c001
    18be:	e3a0      	b.n	0x2002
    18c0:	c004      	stmia	r0!, {r2}
    18c2:	e52d      	b.n	0x1320
    18c4:	c081      	stmia	r0!, {r0, r7}
    18c6:	e1a0      	b.n	0x1c0a
    18c8:	cacc      	ldmia	r2, {r2, r3, r6, r7}
    18ca:	e1f0      	b.n	0x1cae
    18cc:	c083      	stmia	r0!, {r0, r1, r7}
    18ce:	e1a0      	b.n	0x1c12
    18d0:	cacc      	ldmia	r2, {r2, r3, r6, r7}
    18d2:	11f0      	asrs	r0, r6, #7
    18d4:	000e      	movs	r6, r1
    18d6:	0a00      	lsrs	r0, r0, #8
    18d8:	d004      	beq.n	0x18e4
    18da:	e28d      	b.n	0x1df8
    18dc:	c081      	stmia	r0!, {r0, r7}
    18de:	e190      	b.n	0x1c02
    18e0:	c083      	stmia	r0!, {r0, r1, r7}
    18e2:	0192      	lsls	r2, r2, #6
    18e4:	0003      	movs	r3, r0
    18e6:	1131      	asrs	r1, r6, #4
    18e8:	0002      	movs	r2, r0
    18ea:	0130      	lsls	r0, r6, #4
    18ec:	0000      	movs	r0, r0
    18ee:	03a0      	lsls	r0, r4, #14
    18f0:	ff1e 012f 	vrhadd.u16	d0, d14, d31
    18f4:	0000      	movs	r0, r0
    18f6:	e370      	b.n	0x1fda
    18f8:	0003      	movs	r3, r0
    18fa:	e131      	b.n	0x1b60
    18fc:	0003      	movs	r3, r0
    18fe:	5151      	str	r1, [r2, r5]
    1900:	0002      	movs	r2, r0
    1902:	0150      	lsls	r0, r2, #5
    1904:	0fc3      	lsrs	r3, r0, #31
    1906:	21a0      	movs	r1, #160	; 0xa0
    1908:	0fc3      	lsrs	r3, r0, #31
    190a:	31e0      	adds	r1, #224	; 0xe0
    190c:	0001      	movs	r1, r0
    190e:	e380      	b.n	0x2012
    1910:	ff1e e12f 	vrhadd.u16	d14, d14, d31
    1914:	c081      	stmia	r0!, {r0, r7}
    1916:	e1a0      	b.n	0x1c5a
    1918:	cacc      	ldmia	r2, {r2, r3, r6, r7}
    191a:	e1f0      	b.n	0x1cfe
    191c:	0001      	movs	r1, r0
    191e:	1a00      	subs	r0, r0, r0
    1920:	c601      	stmia	r6!, {r0}
    1922:	e190      	b.n	0x1c46
    1924:	0004      	movs	r4, r0
    1926:	1a00      	subs	r0, r0, r0
    1928:	c083      	stmia	r0!, {r0, r1, r7}
    192a:	e1a0      	b.n	0x1c6e
    192c:	cacc      	ldmia	r2, {r2, r3, r6, r7}
    192e:	e1f0      	b.n	0x1d12
    1930:	ffe8 1aff 			; <UNDEFINED> instruction: 0xffe81aff
    1934:	c603      	stmia	r6!, {r0, r1}
    1936:	e192      	b.n	0x1c5e
    1938:	ffe6 0aff 			; <UNDEFINED> instruction: 0xffe60aff
    193c:	0004      	movs	r4, r0
    193e:	e49d      	b.n	0x127c
    1940:	ff1e e12f 	vrhadd.u16	d14, d14, d31
    1944:	c000      	stmia	r0!, {}
    1946:	e1a0      	b.n	0x1c8a
    1948:	0002      	movs	r2, r0
    194a:	e1a0      	b.n	0x1c8e
    194c:	200c      	movs	r0, #12
    194e:	e1a0      	b.n	0x1c92
    1950:	c001      	stmia	r0!, {r0}
    1952:	e1a0      	b.n	0x1c96
    1954:	1003      	asrs	r3, r0, #32
    1956:	e1a0      	b.n	0x1c9a
    1958:	300c      	adds	r0, #12
    195a:	e1a0      	b.n	0x1c9e
    195c:	ffff eaff 			; <UNDEFINED> instruction: 0xffffeaff
    1960:	4001      	ands	r1, r0
    1962:	e92d ffd4 	stmdb	sp!, {r2, r4, r6, r7, r8, r9, sl, fp, ip, sp, lr, pc}
    1966:	ebff 0000 			; <UNDEFINED> instruction: 0xebff0000
    196a:	e350      	b.n	0x200e
    196c:	0000      	movs	r0, r0
    196e:	4370      	muls	r0, r6
    1970:	4001      	ands	r1, r0
    1972:	e8bd ff1e 	ldmia.w	sp!, {r1, r2, r3, r4, r8, r9, sl, fp, ip, sp, lr, pc}
    1976:	e12f      	b.n	0x1bd8
    1978:	e008      	b.n	0x198c
    197a:	e52d      	b.n	0x13d8
    197c:	fff7 ebff 			; <UNDEFINED> instruction: 0xfff7ebff
    1980:	0001      	movs	r1, r0
    1982:	03a0      	lsls	r0, r4, #14
    1984:	0000      	movs	r0, r0
    1986:	13a0      	asrs	r0, r4, #14
    1988:	e008      	b.n	0x199c
    198a:	e49d      	b.n	0x12c8
    198c:	ff1e e12f 	vrhadd.u16	d14, d14, d31
    1990:	e008      	b.n	0x19a4
    1992:	e52d      	b.n	0x13f0
    1994:	fff1 ebff 			; <UNDEFINED> instruction: 0xfff1ebff
    1998:	0001      	movs	r1, r0
    199a:	33a0      	adds	r3, #160	; 0xa0
    199c:	0000      	movs	r0, r0
    199e:	23a0      	movs	r3, #160	; 0xa0
    19a0:	e008      	b.n	0x19b4
    19a2:	e49d      	b.n	0x12e0
    19a4:	ff1e e12f 	vrhadd.u16	d14, d14, d31
    19a8:	e008      	b.n	0x19bc
    19aa:	e52d      	b.n	0x1408
    19ac:	ffeb ebff 			; <UNDEFINED> instruction: 0xffebebff
    19b0:	0001      	movs	r1, r0
    19b2:	93a0      	str	r3, [sp, #640]	; 0x280
    19b4:	0000      	movs	r0, r0
    19b6:	83a0      	strh	r0, [r4, #28]
    19b8:	e008      	b.n	0x19cc
    19ba:	e49d      	b.n	0x12f8
    19bc:	ff1e e12f 	vrhadd.u16	d14, d14, d31
    19c0:	e008      	b.n	0x19d4
    19c2:	e52d      	b.n	0x1420
    19c4:	ffde ebff 			; <UNDEFINED> instruction: 0xffdeebff
    19c8:	0001      	movs	r1, r0
    19ca:	93a0      	str	r3, [sp, #640]	; 0x280
    19cc:	0000      	movs	r0, r0
    19ce:	83a0      	strh	r0, [r4, #28]
    19d0:	e008      	b.n	0x19e4
    19d2:	e49d      	b.n	0x1310
    19d4:	ff1e e12f 	vrhadd.u16	d14, d14, d31
    19d8:	e008      	b.n	0x19ec
    19da:	e52d      	b.n	0x1438
    19dc:	ffd8 ebff 			; <UNDEFINED> instruction: 0xffd8ebff
    19e0:	0001      	movs	r1, r0
    19e2:	33a0      	adds	r3, #160	; 0xa0
    19e4:	0000      	movs	r0, r0
    19e6:	23a0      	movs	r3, #160	; 0xa0
    19e8:	e008      	b.n	0x19fc
    19ea:	e49d      	b.n	0x1328
    19ec:	ff1e e12f 	vrhadd.u16	d14, d14, d31
    19f0:	c081      	stmia	r0!, {r0, r7}
    19f2:	e1a0      	b.n	0x1d36
    19f4:	cacc      	ldmia	r2, {r2, r3, r6, r7}
    19f6:	e1f0      	b.n	0x1dda
    19f8:	0001      	movs	r1, r0
    19fa:	1a00      	subs	r0, r0, r0
    19fc:	c601      	stmia	r6!, {r0}
    19fe:	e190      	b.n	0x1d22
    1a00:	0006      	movs	r6, r0
    1a02:	1a00      	subs	r0, r0, r0
    1a04:	c083      	stmia	r0!, {r0, r1, r7}
    1a06:	e1a0      	b.n	0x1d4a
    1a08:	cacc      	ldmia	r2, {r2, r3, r6, r7}
    1a0a:	e1f0      	b.n	0x1dee
    1a0c:	0001      	movs	r1, r0
    1a0e:	1a00      	subs	r0, r0, r0
    1a10:	c603      	stmia	r6!, {r0, r1}
    1a12:	e192      	b.n	0x1d3a
    1a14:	0001      	movs	r1, r0
    1a16:	1a00      	subs	r0, r0, r0
    1a18:	0000      	movs	r0, r0
    1a1a:	e3a0      	b.n	0x215e
    1a1c:	ff1e e12f 	vrhadd.u16	d14, d14, d31
    1a20:	0001      	movs	r1, r0
    1a22:	e3a0      	b.n	0x2166
    1a24:	ff1e e12f 	vrhadd.u16	d14, d14, d31
    1a28:	2081      	movs	r0, #129	; 0x81
    1a2a:	e1a0      	b.n	0x1d6e
    1a2c:	2602      	movs	r6, #2
    1a2e:	e292      	b.n	0x1f56
    1a30:	000c      	movs	r4, r1
    1a32:	2a00      	cmp	r2, #0
    1a34:	0009      	movs	r1, r1
    1a36:	5a00      	ldrh	r0, [r0, r0]
    1a38:	3e3e      	subs	r6, #62	; 0x3e
    1a3a:	e3e0      	b.n	0x21fe
    1a3c:	2ac2      	cmp	r2, #194	; 0xc2
    1a3e:	e053      	b.n	0x1ae8
    1a40:	000a      	movs	r2, r1
    1a42:	9a00      	ldr	r2, [sp, #0]
    1a44:	3581      	adds	r5, #129	; 0x81
    1a46:	e1a0      	b.n	0x1d8a
    1a48:	3102      	adds	r1, #2
    1a4a:	e383      	b.n	0x2154
    1a4c:	3aa0      	subs	r2, #160	; 0xa0
    1a4e:	e183      	b.n	0x1d58
    1a50:	0102      	lsls	r2, r0, #4
    1a52:	e311      	b.n	0x2078
    1a54:	0233      	lsls	r3, r6, #8
    1a56:	e1a0      	b.n	0x1d9a
    1a58:	0000      	movs	r0, r0
    1a5a:	1260      	asrs	r0, r4, #9
    1a5c:	ff1e e12f 	vrhadd.u16	d14, d14, d31
    1a60:	0000      	movs	r0, r0
    1a62:	e3a0      	b.n	0x21a6
    1a64:	ff1e e12f 	vrhadd.u16	d14, d14, d31
    1a68:	0601      	lsls	r1, r0, #24
    1a6a:	e190      	b.n	0x1d8e
    1a6c:	0002      	movs	r2, r0
    1a6e:	1a00      	subs	r0, r0, r0
    1a70:	0102      	lsls	r2, r0, #4
    1a72:	e211      	b.n	0x1e98
    1a74:	0102      	lsls	r2, r0, #4
    1a76:	03e0      	lsls	r0, r4, #15
    1a78:	ff1e e12f 	vrhadd.u16	d14, d14, d31
    1a7c:	0000      	movs	r0, r0
    1a7e:	e3a0      	b.n	0x21c2
    1a80:	ff1e e12f 	vrhadd.u16	d14, d14, d31
    1a84:	0000      	movs	r0, r0
    1a86:	e353      	b.n	0x2130
    1a88:	0000      	movs	r0, r0
    1a8a:	0352      	lsls	r2, r2, #13
    1a8c:	0004      	movs	r4, r0
    1a8e:	1a00      	subs	r0, r0, r0
    1a90:	0000      	movs	r0, r0
    1a92:	e351      	b.n	0x2138
    1a94:	0000      	movs	r0, r0
    1a96:	0350      	lsls	r0, r2, #13
    1a98:	1000      	asrs	r0, r0, #32
    1a9a:	13e0      	asrs	r0, r4, #15
    1a9c:	0000      	movs	r0, r0
    1a9e:	13e0      	asrs	r0, r4, #15
    1aa0:	fd50 eaff 			; <UNDEFINED> instruction: 0xfd50eaff
    1aa4:	d008      	beq.n	0x1ab8
    1aa6:	e24d      	b.n	0x1f44
    1aa8:	6000      	str	r0, [r0, #0]
    1aaa:	e92d 20ff 	stmdb	sp!, {r0, r1, r2, r3, r4, r5, r6, r7, sp}
    1aae:	eb00 e004 			; <UNDEFINED> instruction: 0xeb00e004
    1ab2:	e59d      	b.n	0x15f0
    1ab4:	d008      	beq.n	0x1ac8
    1ab6:	e28d      	b.n	0x1fd4
    1ab8:	000c      	movs	r4, r1
    1aba:	e8bd ff1e 	ldmia.w	sp!, {r1, r2, r3, r4, r8, r9, sl, fp, ip, sp, lr, pc}
    1abe:	e12f      	b.n	0x1d20
    1ac0:	4010      	ands	r0, r2
    1ac2:	e92d 0000 	stmdb	sp!, {}
    1ac6:	e351      	b.n	0x216c
    1ac8:	0002      	movs	r2, r0
    1aca:	1a00      	subs	r0, r0, r0
    1acc:	0005      	movs	r5, r0
    1ace:	eb00 0020 	add.w	r0, r0, r0, asr #32
    1ad2:	e280      	b.n	0x1fd6
    1ad4:	0001      	movs	r1, r0
    1ad6:	ea00 0001 	and.w	r0, r0, r1
    1ada:	e1a0      	b.n	0x1e1e
    1adc:	0001      	movs	r1, r0
    1ade:	eb00 4010 	add.w	r0, r0, r0, lsr #16
    1ae2:	e8bd ff1e 	ldmia.w	sp!, {r1, r2, r3, r4, r8, r9, sl, fp, ip, sp, lr, pc}
    1ae6:	e12f      	b.n	0x1d48
    1ae8:	101c      	asrs	r4, r3, #32
    1aea:	e3a0      	b.n	0x222e
    1aec:	0801      	lsrs	r1, r0, #32
    1aee:	e350      	b.n	0x2192
    1af0:	0820      	lsrs	r0, r4, #32
    1af2:	21a0      	movs	r1, #160	; 0xa0
    1af4:	1010      	asrs	r0, r2, #32
    1af6:	2241      	movs	r2, #65	; 0x41
    1af8:	0c01      	lsrs	r1, r0, #16
    1afa:	e350      	b.n	0x219e
    1afc:	0420      	lsls	r0, r4, #16
    1afe:	21a0      	movs	r1, #160	; 0xa0
    1b00:	1008      	asrs	r0, r1, #32
    1b02:	2241      	movs	r2, #65	; 0x41
    1b04:	0010      	movs	r0, r2
    1b06:	e350      	b.n	0x21aa
    1b08:	0220      	lsls	r0, r4, #8
    1b0a:	21a0      	movs	r1, #160	; 0xa0
    1b0c:	1004      	asrs	r4, r0, #32
    1b0e:	2241      	movs	r2, #65	; 0x41
    1b10:	2008      	movs	r0, #8
    1b12:	e28f      	b.n	0x2034
    1b14:	0000      	movs	r0, r0
    1b16:	e7d2      	b.n	0x1abe
    1b18:	0001      	movs	r1, r0
    1b1a:	e080      	b.n	0x1c1e
    1b1c:	ff1e e12f 	vrhadd.u16	d14, d14, d31
    1b20:	0304      	lsls	r4, r0, #12
    1b22:	0202      	lsls	r2, r0, #8
    1b24:	0101      	lsls	r1, r0, #4
    1b26:	0101      	lsls	r1, r0, #4
	...
    1b30:	0018      	movs	r0, r3
    1b32:	e59f      	b.n	0x1674
    1b34:	3018      	adds	r0, #24
    1b36:	e59f      	b.n	0x1678
    1b38:	0000      	movs	r0, r0
    1b3a:	e153      	b.n	0x1de4
    1b3c:	ff1e 012f 	vrhadd.u16	d0, d14, d31
    1b40:	3010      	adds	r0, #16
    1b42:	e59f      	b.n	0x1684
    1b44:	0000      	movs	r0, r0
    1b46:	e353      	b.n	0x21f0
    1b48:	ff1e 012f 	vrhadd.u16	d0, d14, d31
    1b4c:	ff13 e12f 	vrhadd.u16	d14, d3, d31
    1b50:	0bd8      	lsrs	r0, r3, #15
    1b52:	0300      	lsls	r0, r0, #12
    1b54:	0bd8      	lsrs	r0, r3, #15
    1b56:	0300      	lsls	r0, r0, #12
    1b58:	0000      	movs	r0, r0
    1b5a:	0000      	movs	r0, r0
    1b5c:	0024      	movs	r4, r4
    1b5e:	e59f      	b.n	0x16a0
    1b60:	1024      	asrs	r4, r4, #32
    1b62:	e59f      	b.n	0x16a4
    1b64:	1000      	asrs	r0, r0, #32
    1b66:	e041      	b.n	0x1bec
    1b68:	1141      	asrs	r1, r0, #5
    1b6a:	e1a0      	b.n	0x1eae
    1b6c:	1fa1      	subs	r1, r4, #6
    1b6e:	e081      	b.n	0x1c74
    1b70:	10c1      	asrs	r1, r0, #3
    1b72:	e1b0      	b.n	0x1ed6
    1b74:	ff1e 012f 	vrhadd.u16	d0, d14, d31
    1b78:	3010      	adds	r0, #16
    1b7a:	e59f      	b.n	0x16bc
    1b7c:	0000      	movs	r0, r0
    1b7e:	e353      	b.n	0x2228
    1b80:	ff1e 012f 	vrhadd.u16	d0, d14, d31
    1b84:	ff13 e12f 	vrhadd.u16	d14, d3, d31
    1b88:	0bd8      	lsrs	r0, r3, #15
    1b8a:	0300      	lsls	r0, r0, #12
    1b8c:	0bd8      	lsrs	r0, r3, #15
    1b8e:	0300      	lsls	r0, r0, #12
    1b90:	0000      	movs	r0, r0
    1b92:	0000      	movs	r0, r0
    1b94:	4010      	ands	r0, r2
    1b96:	e92d 402c 	stmdb	sp!, {r2, r3, r5, lr}
    1b9a:	e59f      	b.n	0x16dc
    1b9c:	3000      	adds	r0, #0
    1b9e:	e5d4      	b.n	0x174a
    1ba0:	0000      	movs	r0, r0
    1ba2:	e353      	b.n	0x224c
    1ba4:	0006      	movs	r6, r0
    1ba6:	1a00      	subs	r0, r0, r0
    1ba8:	ffe0 ebff 			; <UNDEFINED> instruction: 0xffe0ebff
    1bac:	301c      	adds	r0, #28
    1bae:	e59f      	b.n	0x16f0
    1bb0:	0000      	movs	r0, r0
    1bb2:	e353      	b.n	0x225c
    1bb4:	0018      	movs	r0, r3
    1bb6:	159f      	asrs	r7, r3, #22
    1bb8:	0000      	movs	r0, r0
    1bba:	11a0      	asrs	r0, r4, #6
    1bbc:	3001      	adds	r0, #1
    1bbe:	e3a0      	b.n	0x2302
    1bc0:	3000      	adds	r0, #0
    1bc2:	e5c4      	b.n	0x174e
    1bc4:	4010      	ands	r0, r2
    1bc6:	e8bd ff1e 	ldmia.w	sp!, {r1, r2, r3, r4, r8, r9, sl, fp, ip, sp, lr, pc}
    1bca:	e12f      	b.n	0x1e2c
    1bcc:	0000      	movs	r0, r0
    1bce:	0300      	lsls	r0, r0, #12
    1bd0:	0000      	movs	r0, r0
    1bd2:	0000      	movs	r0, r0
    1bd4:	a4c0      	add	r4, pc, #768	; (adr r4, 0x1ed8)
    1bd6:	0800      	lsrs	r0, r0, #32
    1bd8:	3020      	adds	r0, #32
    1bda:	e59f      	b.n	0x171c
    1bdc:	0000      	movs	r0, r0
    1bde:	e353      	b.n	0x2288
    1be0:	0005      	movs	r5, r0
    1be2:	0a00      	lsrs	r0, r0, #8
    1be4:	4010      	ands	r0, r2
    1be6:	e92d 1014 	stmdb	sp!, {r2, r4, ip}
    1bea:	e59f      	b.n	0x172c
    1bec:	0014      	movs	r4, r2
    1bee:	e59f      	b.n	0x1730
    1bf0:	0000      	movs	r0, r0
    1bf2:	e1a0      	b.n	0x1f36
    1bf4:	4010      	ands	r0, r2
    1bf6:	e8bd ffd7 	ldmia.w	sp!, {r0, r1, r2, r4, r6, r7, r8, r9, sl, fp, ip, sp, lr, pc}
    1bfa:	eaff ffd6 			; <UNDEFINED> instruction: 0xeaffffd6
    1bfe:	eaff 0000 			; <UNDEFINED> instruction: 0xeaff0000
    1c02:	0000      	movs	r0, r0
    1c04:	0004      	movs	r4, r0
    1c06:	0300      	lsls	r0, r0, #12
    1c08:	a4c0      	add	r4, pc, #768	; (adr r4, 0x1f0c)
    1c0a:	0800      	lsrs	r0, r0, #32
    1c0c:	e004      	b.n	0x1c18
    1c0e:	e52d      	b.n	0x166c
    1c10:	40a0      	lsls	r0, r4
    1c12:	e59f      	b.n	0x1754
    1c14:	50a0      	str	r0, [r4, r2]
    1c16:	e59f      	b.n	0x1758
    1c18:	d00c      	beq.n	0x1c34
    1c1a:	e24d      	b.n	0x20b8
    1c1c:	200e      	movs	r0, #14
    1c1e:	e3a0      	b.n	0x2362
    1c20:	1005      	asrs	r5, r0, #32
    1c22:	e1a0      	b.n	0x1f66
    1c24:	0004      	movs	r4, r0
    1c26:	e1a0      	b.n	0x1f6a
    1c28:	0049      	lsls	r1, r1, #1
    1c2a:	eb00 1005 	add.w	r0, r0, r5, lsl #4
    1c2e:	e1a0      	b.n	0x1f72
    1c30:	0004      	movs	r4, r0
    1c32:	e1a0      	b.n	0x1f76
    1c34:	fbcb ebff 			; <UNDEFINED> instruction: 0xfbcbebff
    1c38:	0001      	movs	r1, r0
    1c3a:	e270      	b.n	0x211e
    1c3c:	0000      	movs	r0, r0
    1c3e:	33a0      	adds	r3, #160	; 0xa0
    1c40:	fbc3 ebff 			; <UNDEFINED> instruction: 0xfbc3ebff
    1c44:	6002      	str	r2, [r0, #0]
    1c46:	e3a0      	b.n	0x238a
    1c48:	3001      	adds	r0, #1
    1c4a:	e3a0      	b.n	0x238e
    1c4c:	506c      	str	r4, [r5, r1]
    1c4e:	e59f      	b.n	0x1790
    1c50:	2003      	movs	r0, #3
    1c52:	e1a0      	b.n	0x1f96
    1c54:	1005      	asrs	r5, r0, #32
    1c56:	e1a0      	b.n	0x1f9a
    1c58:	0004      	movs	r4, r0
    1c5a:	e1a0      	b.n	0x1f9e
    1c5c:	6000      	str	r0, [r0, #0]
    1c5e:	e58d      	b.n	0x177c
    1c60:	0082      	lsls	r2, r0, #2
    1c62:	eb00 1058 	add.w	r0, r0, r8, lsr #5
    1c66:	e59f      	b.n	0x17a8
    1c68:	0004      	movs	r4, r0
    1c6a:	e1a0      	b.n	0x1fae
    1c6c:	fbbd ebff 			; <UNDEFINED> instruction: 0xfbbdebff
    1c70:	0001      	movs	r1, r0
    1c72:	e270      	b.n	0x2156
    1c74:	0000      	movs	r0, r0
    1c76:	33a0      	adds	r3, #160	; 0xa0
    1c78:	fbb5 ebff 			; <UNDEFINED> instruction: 0xfbb5ebff
    1c7c:	300c      	adds	r0, #12
    1c7e:	e3a0      	b.n	0x23c2
    1c80:	2006      	movs	r0, #6
    1c82:	e1a0      	b.n	0x1fc6
    1c84:	1005      	asrs	r5, r0, #32
    1c86:	e1a0      	b.n	0x1fca
    1c88:	3000      	adds	r0, #0
    1c8a:	e58d      	b.n	0x17a8
    1c8c:	0004      	movs	r4, r0
    1c8e:	e1a0      	b.n	0x1fd2
    1c90:	300a      	adds	r0, #10
    1c92:	e3a0      	b.n	0x23d6
    1c94:	0075      	lsls	r5, r6, #1
    1c96:	eb00 1028 	add.w	r0, r0, r8, asr #4
    1c9a:	e59f      	b.n	0x17dc
    1c9c:	0004      	movs	r4, r0
    1c9e:	e1a0      	b.n	0x1fe2
    1ca0:	fbb0 ebff 			; <UNDEFINED> instruction: 0xfbb0ebff
    1ca4:	0001      	movs	r1, r0
    1ca6:	e270      	b.n	0x218a
    1ca8:	0000      	movs	r0, r0
    1caa:	33a0      	adds	r3, #160	; 0xa0
    1cac:	fba8 ebff 			; <UNDEFINED> instruction: 0xfba8ebff
    1cb0:	0000      	movs	r0, r0
    1cb2:	e3a0      	b.n	0x23f6
    1cb4:	fa07 ebff 			; <UNDEFINED> instruction: 0xfa07ebff
    1cb8:	016c      	lsls	r4, r5, #5
    1cba:	0300      	lsls	r0, r0, #12
    1cbc:	9ff8      	ldr	r7, [sp, #992]	; 0x3e0
    1cbe:	0800      	lsrs	r0, r0, #32
    1cc0:	a008      	add	r0, pc, #32	; (adr r0, 0x1ce4)
    1cc2:	0800      	lsrs	r0, r0, #32
    1cc4:	a018      	add	r0, pc, #96	; (adr r0, 0x1d28)
    1cc6:	0800      	lsrs	r0, r0, #32
    1cc8:	a024      	add	r0, pc, #144	; (adr r0, 0x1d5c)
    1cca:	0800      	lsrs	r0, r0, #32
    1ccc:	4070      	eors	r0, r6
    1cce:	e92d 606c 	stmdb	sp!, {r2, r3, r5, r6, sp, lr}
    1cd2:	e59f      	b.n	0x1814
    1cd4:	506c      	str	r4, [r5, r1]
    1cd6:	e59f      	b.n	0x1818
    1cd8:	6005      	str	r5, [r0, #0]
    1cda:	e046      	b.n	0x1d6a
    1cdc:	6146      	str	r6, [r0, #20]
    1cde:	e1b0      	b.n	0x2042
    1ce0:	0007      	movs	r7, r0
    1ce2:	0a00      	lsrs	r0, r0, #8
    1ce4:	4000      	ands	r0, r0
    1ce6:	e3a0      	b.n	0x242a
    1ce8:	5004      	str	r4, [r0, r0]
    1cea:	e245      	b.n	0x2178
    1cec:	4001      	ands	r1, r0
    1cee:	e284      	b.n	0x21fa
    1cf0:	3004      	adds	r0, #4
    1cf2:	e5b5      	b.n	0x1860
    1cf4:	e00f      	b.n	0x1d16
    1cf6:	e1a0      	b.n	0x203a
    1cf8:	ff13 e12f 	vrhadd.u16	d14, d3, d31
    1cfc:	0004      	movs	r4, r0
    1cfe:	e156      	b.n	0x1fae
    1d00:	fff9 1aff 			; <UNDEFINED> instruction: 0xfff91aff
    1d04:	6040      	str	r0, [r0, #4]
    1d06:	e59f      	b.n	0x1848
    1d08:	5040      	str	r0, [r0, r1]
    1d0a:	e59f      	b.n	0x184c
    1d0c:	6005      	str	r5, [r0, #0]
    1d0e:	e046      	b.n	0x1d9e
    1d10:	f93e ebff 	ldrsh.w	lr, [lr], #255
    1d14:	6146      	str	r6, [r0, #20]
    1d16:	e1b0      	b.n	0x207a
    1d18:	0007      	movs	r7, r0
    1d1a:	0a00      	lsrs	r0, r0, #8
    1d1c:	4000      	ands	r0, r0
    1d1e:	e3a0      	b.n	0x2462
    1d20:	5004      	str	r4, [r0, r0]
    1d22:	e245      	b.n	0x21b0
    1d24:	4001      	ands	r1, r0
    1d26:	e284      	b.n	0x2232
    1d28:	3004      	adds	r0, #4
    1d2a:	e5b5      	b.n	0x1898
    1d2c:	e00f      	b.n	0x1d4e
    1d2e:	e1a0      	b.n	0x2072
    1d30:	ff13 e12f 	vrhadd.u16	d14, d3, d31
    1d34:	0004      	movs	r4, r0
    1d36:	e156      	b.n	0x1fe6
    1d38:	fff9 1aff 			; <UNDEFINED> instruction: 0xfff91aff
    1d3c:	4070      	eors	r0, r6
    1d3e:	e8bd ff1e 	ldmia.w	sp!, {r1, r2, r3, r4, r8, r9, sl, fp, ip, sp, lr, pc}
    1d42:	e12f      	b.n	0x1fa4
    1d44:	0bd8      	lsrs	r0, r3, #15
    1d46:	0300      	lsls	r0, r0, #12
    1d48:	0bd8      	lsrs	r0, r3, #15
    1d4a:	0300      	lsls	r0, r0, #12
    1d4c:	0bdc      	lsrs	r4, r3, #15
    1d4e:	0300      	lsls	r0, r0, #12
    1d50:	0bd8      	lsrs	r0, r3, #15
    1d52:	0300      	lsls	r0, r0, #12
    1d54:	000f      	movs	r7, r1
    1d56:	e352      	b.n	0x23fe
    1d58:	0035      	movs	r5, r6
    1d5a:	9a00      	ldr	r2, [sp, #0]
    1d5c:	3001      	adds	r0, #1
    1d5e:	e180      	b.n	0x2062
    1d60:	0003      	movs	r3, r0
    1d62:	e313      	b.n	0x238c
    1d64:	003e      	movs	r6, r7
    1d66:	1a00      	subs	r0, r0, r0
    1d68:	41f0      	rors	r0, r6
    1d6a:	e92d 8010 	stmdb	sp!, {r4, pc}
    1d6e:	e242      	b.n	0x21f6
    1d70:	8228      	strh	r0, [r5, #16]
    1d72:	e1a0      	b.n	0x20b6
    1d74:	7020      	strb	r0, [r4, #0]
    1d76:	e281      	b.n	0x227c
    1d78:	7208      	strb	r0, [r1, #8]
    1d7a:	e087      	b.n	0x1e8c
    1d7c:	3010      	adds	r0, #16
    1d7e:	e281      	b.n	0x2284
    1d80:	c010      	stmia	r0!, {r4}
    1d82:	e280      	b.n	0x2286
    1d84:	6010      	str	r0, [r2, #0]
    1d86:	e513      	b.n	0x17b0
    1d88:	500c      	str	r4, [r1, r0]
    1d8a:	e513      	b.n	0x17b4
    1d8c:	4010      	ands	r0, r2
    1d8e:	e913 3010 	ldmdb	r3, {r4, ip, sp}
    1d92:	e283      	b.n	0x229c
    1d94:	0007      	movs	r7, r0
    1d96:	e153      	b.n	0x2040
    1d98:	6010      	str	r0, [r2, #0]
    1d9a:	e50c      	b.n	0x17b6
    1d9c:	500c      	str	r4, [r1, r0]
    1d9e:	e50c      	b.n	0x17ba
    1da0:	4010      	ands	r0, r2
    1da2:	e90c c010 	stmdb	ip, {r4, lr, pc}
    1da6:	e28c      	b.n	0x22c2
    1da8:	fff5 1aff 			; <UNDEFINED> instruction: 0xfff51aff
    1dac:	c001      	stmia	r0!, {r0}
    1dae:	e288      	b.n	0x22c2
    1db0:	c20c      	stmia	r2!, {r2, r3}
    1db2:	e1a0      	b.n	0x20f6
    1db4:	000c      	movs	r4, r1
    1db6:	e312      	b.n	0x23de
    1db8:	e00f      	b.n	0x1dda
    1dba:	e202      	b.n	0x21c2
    1dbc:	100c      	asrs	r4, r1, #32
    1dbe:	e081      	b.n	0x1ec4
    1dc0:	200e      	movs	r0, #14
    1dc2:	01a0      	lsls	r0, r4, #6
    1dc4:	c00c      	stmia	r0!, {r2, r3}
    1dc6:	e080      	b.n	0x1eca
    1dc8:	000d      	movs	r5, r1
    1dca:	0a00      	lsrs	r0, r0, #8
    1dcc:	4001      	ands	r1, r0
    1dce:	e1a0      	b.n	0x2112
    1dd0:	e004      	b.n	0x1ddc
    1dd2:	e24e      	b.n	0x2272
    1dd4:	e12e      	b.n	0x2034
    1dd6:	e1a0      	b.n	0x211a
    1dd8:	610e      	str	r6, [r1, #16]
    1dda:	e08c      	b.n	0x1ef6
    1ddc:	3004      	adds	r0, #4
    1dde:	e24c      	b.n	0x227a
    1de0:	5004      	str	r4, [r0, r0]
    1de2:	e494      	b.n	0x170e
    1de4:	5004      	str	r4, [r0, r0]
    1de6:	e5a3      	b.n	0x1930
    1de8:	0006      	movs	r6, r0
    1dea:	e153      	b.n	0x2094
    1dec:	fffb 1aff 			; <UNDEFINED> instruction: 0xfffb1aff
    1df0:	e001      	b.n	0x1df6
    1df2:	e28e      	b.n	0x2312
    1df4:	e10e      	b.n	0x2014
    1df6:	e1a0      	b.n	0x213a
    1df8:	c00e      	stmia	r0!, {r1, r2, r3}
    1dfa:	e08c      	b.n	0x1f16
    1dfc:	100e      	asrs	r6, r1, #32
    1dfe:	e081      	b.n	0x1f04
    1e00:	2003      	movs	r0, #3
    1e02:	e202      	b.n	0x220a
    1e04:	0000      	movs	r0, r0
    1e06:	e352      	b.n	0x24ae
    1e08:	2001      	movs	r0, #1
    1e0a:	e242      	b.n	0x2292
    1e0c:	2001      	movs	r0, #1
    1e0e:	1282      	asrs	r2, r0, #10
    1e10:	3002      	adds	r0, #2
    1e12:	1081      	asrs	r1, r0, #2
    1e14:	2001      	movs	r0, #1
    1e16:	124c      	asrs	r4, r1, #9
    1e18:	0003      	movs	r3, r0
    1e1a:	0a00      	lsrs	r0, r0, #8
    1e1c:	c001      	stmia	r0!, {r0}
    1e1e:	e4d1      	b.n	0x17c4
    1e20:	0003      	movs	r3, r0
    1e22:	e151      	b.n	0x20c8
    1e24:	c001      	stmia	r0!, {r0}
    1e26:	e5e2      	b.n	0x19ee
    1e28:	fffb 1aff 			; <UNDEFINED> instruction: 0xfffb1aff
    1e2c:	41f0      	rors	r0, r6
    1e2e:	e8bd ff1e 	ldmia.w	sp!, {r1, r2, r3, r4, r8, r9, sl, fp, ip, sp, lr, pc}
    1e32:	e12f      	b.n	0x2094
    1e34:	0000      	movs	r0, r0
    1e36:	e352      	b.n	0x24de
    1e38:	c000      	stmia	r0!, {}
    1e3a:	e1a0      	b.n	0x217e
    1e3c:	2001      	movs	r0, #1
    1e3e:	e242      	b.n	0x22c6
    1e40:	ff1e 012f 	vrhadd.u16	d0, d14, d31
    1e44:	2001      	movs	r0, #1
    1e46:	e282      	b.n	0x234e
    1e48:	3002      	adds	r0, #2
    1e4a:	e081      	b.n	0x1f50
    1e4c:	2001      	movs	r0, #1
    1e4e:	e24c      	b.n	0x22ea
    1e50:	c001      	stmia	r0!, {r0}
    1e52:	e4d1      	b.n	0x17f8
    1e54:	0003      	movs	r3, r0
    1e56:	e151      	b.n	0x20fc
    1e58:	c001      	stmia	r0!, {r0}
    1e5a:	e5e2      	b.n	0x1a22
    1e5c:	fffb 1aff 			; <UNDEFINED> instruction: 0xfffb1aff
    1e60:	ff1e e12f 	vrhadd.u16	d14, d14, d31
    1e64:	2001      	movs	r0, #1
    1e66:	e242      	b.n	0x22ee
    1e68:	c000      	stmia	r0!, {}
    1e6a:	e1a0      	b.n	0x21ae
    1e6c:	fff4 eaff 			; <UNDEFINED> instruction: 0xfff4eaff
    1e70:	000e      	movs	r6, r1
    1e72:	e92d 3102 	stmdb	sp!, {r1, r8, ip, sp}
    1e76:	e3e0      	b.n	0x263a
    1e78:	e004      	b.n	0x1e84
    1e7a:	e52d      	b.n	0x18d8
    1e7c:	104c      	asrs	r4, r1, #1
    1e7e:	e59f      	b.n	0x19c0
    1e80:	d080      	beq.n	0x1d84
    1e82:	e24d      	b.n	0x2320
    1e84:	2088      	movs	r0, #136	; 0x88
    1e86:	e28d      	b.n	0x23a4
    1e88:	301c      	adds	r0, #28
    1e8a:	e58d      	b.n	0x19a8
    1e8c:	3010      	adds	r0, #16
    1e8e:	e58d      	b.n	0x19ac
    1e90:	1014      	asrs	r4, r2, #32
    1e92:	e58d      	b.n	0x19b0
    1e94:	2004      	movs	r0, #4
    1e96:	e58d      	b.n	0x19b4
    1e98:	0008      	movs	r0, r1
    1e9a:	e58d      	b.n	0x19b8
    1e9c:	0018      	movs	r0, r3
    1e9e:	e58d      	b.n	0x19bc
    1ea0:	1ff9      	subs	r1, r7, #7
    1ea2:	eb00 2084 	add.w	r0, r0, r4, lsl #10
    1ea6:	e59d      	b.n	0x19e4
    1ea8:	3004      	adds	r0, #4
    1eaa:	e59d      	b.n	0x19e8
    1eac:	1008      	asrs	r0, r1, #32
    1eae:	e28d      	b.n	0x23cc
    1eb0:	0195      	lsls	r5, r2, #6
    1eb2:	eb00 2000 	add.w	r0, r0, r0, lsl #8
    1eb6:	e3a0      	b.n	0x25fa
    1eb8:	3008      	adds	r0, #8
    1eba:	e59d      	b.n	0x19f8
    1ebc:	2000      	movs	r0, #0
    1ebe:	e5c3      	b.n	0x1a48
    1ec0:	d080      	beq.n	0x1dc4
    1ec2:	e28d      	b.n	0x23e0
    1ec4:	e004      	b.n	0x1ed0
    1ec6:	e49d      	b.n	0x1804
    1ec8:	d00c      	beq.n	0x1ee4
    1eca:	e28d      	b.n	0x23e8
    1ecc:	ff1e e12f 	vrhadd.u16	d14, d14, d31
    1ed0:	0208      	lsls	r0, r1, #8
    1ed2:	ffff 4ff0 			; <UNDEFINED> instruction: 0xffff4ff0
    1ed6:	e92d d02c 	stmdb	sp!, {r2, r3, r5, ip, lr, pc}
    1eda:	e24d      	b.n	0x2378
    1edc:	4003      	ands	r3, r0
    1ede:	e1a0      	b.n	0x2222
    1ee0:	3050      	adds	r0, #80	; 0x50
    1ee2:	e28d      	b.n	0x2400
    1ee4:	0208      	lsls	r0, r1, #8
    1ee6:	e893 a000 	ldmia.w	r3, {sp, pc}
    1eea:	e593      	b.n	0x1a14
    1eec:	305c      	adds	r0, #92	; 0x5c
    1eee:	e59d      	b.n	0x1a2c
    1ef0:	3000      	adds	r0, #0
    1ef2:	e593      	b.n	0x1a1c
    1ef4:	0000      	movs	r0, r0
    1ef6:	e353      	b.n	0x25a0
    1ef8:	0010      	movs	r0, r2
    1efa:	e58d      	b.n	0x1a18
    1efc:	100c      	asrs	r4, r1, #32
    1efe:	e58d      	b.n	0x1a1c
    1f00:	b002      	add	sp, #8
    1f02:	01a0      	lsls	r0, r4, #6
    1f04:	1000      	asrs	r0, r0, #32
    1f06:	e3a0      	b.n	0x264a
    1f08:	2008      	movs	r0, #8
    1f0a:	e3a0      	b.n	0x264e
    1f0c:	0020      	movs	r0, r4
    1f0e:	e28d      	b.n	0x242c
    1f10:	b003      	add	sp, #12
    1f12:	11a0      	asrs	r0, r4, #6
    1f14:	19b2      	adds	r2, r6, r6
    1f16:	eb00 300c 	add.w	r0, r0, ip, lsl #12
    1f1a:	e59d      	b.n	0x1a58
    1f1c:	3008      	adds	r0, #8
    1f1e:	e58d      	b.n	0x1a3c
    1f20:	300c      	adds	r0, #12
    1f22:	e59d      	b.n	0x1a60
    1f24:	2000      	movs	r0, #0
    1f26:	e5db      	b.n	0x1ae0
    1f28:	0003      	movs	r3, r0
    1f2a:	e15a      	b.n	0x21e2
    1f2c:	3000      	adds	r0, #0
    1f2e:	c3a0      	stmia	r3!, {r5, r7}
    1f30:	3001      	adds	r0, #1
    1f32:	d3a0      	bcc.n	0x1e76
    1f34:	0000      	movs	r0, r0
    1f36:	e352      	b.n	0x25de
    1f38:	3000      	adds	r0, #0
    1f3a:	03a0      	lsls	r0, r4, #14
    1f3c:	0000      	movs	r0, r0
    1f3e:	e353      	b.n	0x25e8
    1f40:	0137      	lsls	r7, r6, #4
    1f42:	0a00      	lsrs	r0, r0, #8
    1f44:	5020      	str	r0, [r4, r0]
    1f46:	e28d      	b.n	0x2464
    1f48:	1fcf      	subs	r7, r1, #7
    1f4a:	eb00 3034 	add.w	r0, r0, r4, ror #12
    1f4e:	e590      	b.n	0x1a72
    1f50:	25a4      	movs	r5, #164	; 0xa4
    1f52:	e59f      	b.n	0x1a94
    1f54:	0000      	movs	r0, r0
    1f56:	e353      	b.n	0x2600
    1f58:	3002      	adds	r0, #2
    1f5a:	01a0      	lsls	r0, r4, #6
    1f5c:	60e4      	str	r4, [r4, #12]
    1f5e:	e593      	b.n	0x1a88
    1f60:	16ad      	asrs	r5, r5, #26
    1f62:	eb00 5000 	add.w	r0, r0, r0, lsl #20
    1f66:	e58d      	b.n	0x1a84
    1f68:	3000      	adds	r0, #0
    1f6a:	e1a0      	b.n	0x22ae
    1f6c:	200b      	movs	r0, #11
    1f6e:	e1a0      	b.n	0x22b2
    1f70:	101c      	asrs	r4, r3, #32
    1f72:	e28d      	b.n	0x2490
    1f74:	0010      	movs	r0, r2
    1f76:	e59d      	b.n	0x1ab4
    1f78:	e00f      	b.n	0x1f9a
    1f7a:	e1a0      	b.n	0x22be
    1f7c:	ff16 e12f 	vrhadd.u16	d14, d6, d31
    1f80:	0000      	movs	r0, r0
    1f82:	e350      	b.n	0x2626
    1f84:	0126      	lsls	r6, r4, #4
    1f86:	da00      	bge.n	0x1f8a
    1f88:	301c      	adds	r0, #28
    1f8a:	e59d      	b.n	0x1ac8
    1f8c:	0025      	movs	r5, r4
    1f8e:	e353      	b.n	0x2638
    1f90:	b000      	add	sp, #0
    1f92:	e08b      	b.n	0x20ac
    1f94:	ffeb 1aff 			; <UNDEFINED> instruction: 0xffeb1aff
    1f98:	3000      	adds	r0, #0
    1f9a:	e3a0      	b.n	0x26de
    1f9c:	100b      	asrs	r3, r1, #32
    1f9e:	e1a0      	b.n	0x22e2
    1fa0:	5000      	str	r0, [r0, r0]
    1fa2:	e3e0      	b.n	0x2766
    1fa4:	6003      	str	r3, [r0, #0]
    1fa6:	e1a0      	b.n	0x22ea
    1fa8:	7003      	strb	r3, [r0, #0]
    1faa:	e1a0      	b.n	0x22ee
    1fac:	8003      	strh	r3, [r0, #0]
    1fae:	e1a0      	b.n	0x22f2
    1fb0:	0548      	lsls	r0, r1, #21
    1fb2:	e59f      	b.n	0x1af4
    1fb4:	2000      	movs	r0, #0
    1fb6:	e5d1      	b.n	0x1b5c
    1fb8:	e544      	b.n	0x1a44
    1fba:	e59f      	b.n	0x1afc
    1fbc:	c002      	stmia	r0!, {r1}
    1fbe:	e7d0      	b.n	0x1f62
    1fc0:	0183      	lsls	r3, r0, #6
    1fc2:	e083      	b.n	0x20cc
    1fc4:	353c      	adds	r5, #60	; 0x3c
    1fc6:	e59f      	b.n	0x1b08
    1fc8:	3000      	adds	r0, #0
    1fca:	e083      	b.n	0x20d4
    1fcc:	0000      	movs	r0, r0
    1fce:	e08e      	b.n	0x20ee
    1fd0:	000c      	movs	r4, r1
    1fd2:	e7d0      	b.n	0x1f76
    1fd4:	0001      	movs	r1, r0
    1fd6:	e240      	b.n	0x245a
    1fd8:	b001      	add	sp, #4
    1fda:	e28b      	b.n	0x24f4
    1fdc:	300c      	adds	r0, #12
    1fde:	e7d3      	b.n	0x1f88
    1fe0:	0007      	movs	r7, r0
    1fe2:	e350      	b.n	0x2686
    1fe4:	f100 979f 	b.w	0xd02f26
    1fe8:	0109      	lsls	r1, r1, #4
    1fea:	ea00 23c8 	and.w	r3, r0, r8, lsl #11
    1fee:	0800      	lsrs	r0, r0, #32
    1ff0:	200c      	movs	r0, #12
    1ff2:	0800      	lsrs	r0, r0, #32
    1ff4:	2014      	movs	r0, #20
    1ff6:	0800      	lsrs	r0, r0, #32
    1ff8:	2070      	movs	r0, #112	; 0x70
    1ffa:	0800      	lsrs	r0, r0, #32
    1ffc:	23ac      	movs	r3, #172	; 0xac
    1ffe:	0800      	lsrs	r0, r0, #32
    2000:	23a8      	movs	r3, #168	; 0xa8
    2002:	0800      	lsrs	r0, r0, #32
    2004:	2320      	movs	r3, #32
    2006:	0800      	lsrs	r0, r0, #32
    2008:	235c      	movs	r3, #92	; 0x5c
    200a:	0800      	lsrs	r0, r0, #32
    200c:	200b      	movs	r0, #11
    200e:	e1a0      	b.n	0x2352
    2010:	00f9      	lsls	r1, r7, #3
    2012:	ea00 006a 	and.w	r0, r0, sl, asr #1
    2016:	e352      	b.n	0x26be
    2018:	000c      	movs	r4, r1
    201a:	0a00      	lsrs	r0, r0, #8
    201c:	0005      	movs	r5, r0
    201e:	8a00      	ldrh	r0, [r0, #16]
    2020:	004c      	lsls	r4, r1, #1
    2022:	e352      	b.n	0x26ca
    2024:	7008      	strb	r0, [r1, #0]
    2026:	0387      	lsls	r7, r0, #14
    2028:	00f9      	lsls	r1, r7, #3
    202a:	0a00      	lsrs	r0, r0, #8
    202c:	0068      	lsls	r0, r5, #1
    202e:	e352      	b.n	0x26d6
    2030:	0008      	movs	r0, r1
    2032:	1a00      	subs	r0, r0, r0
    2034:	00f6      	lsls	r6, r6, #3
    2036:	ea00 0074 	and.w	r0, r0, r4, ror #1
    203a:	e352      	b.n	0x26e2
    203c:	00f4      	lsls	r4, r6, #3
    203e:	0a00      	lsrs	r0, r0, #8
    2040:	007a      	lsls	r2, r7, #1
    2042:	e352      	b.n	0x26ea
    2044:	00f2      	lsls	r2, r6, #3
    2046:	0a00      	lsrs	r0, r0, #8
    2048:	0071      	lsls	r1, r6, #1
    204a:	e352      	b.n	0x26f2
    204c:	0001      	movs	r1, r0
    204e:	1a00      	subs	r0, r0, r0
    2050:	7020      	strb	r0, [r4, #0]
    2052:	e387      	b.n	0x2764
    2054:	00ee      	lsls	r6, r5, #3
    2056:	ea00 2001 	and.w	r0, r0, r1, lsl #8
    205a:	e5d1      	b.n	0x1c00
    205c:	006c      	lsls	r4, r5, #1
    205e:	e352      	b.n	0x2706
    2060:	7020      	strb	r0, [r4, #0]
    2062:	0387      	lsls	r7, r0, #14
    2064:	b002      	add	sp, #8
    2066:	0281      	lsls	r1, r0, #10
    2068:	7010      	strb	r0, [r2, #0]
    206a:	1387      	asrs	r7, r0, #14
    206c:	00e8      	lsls	r0, r5, #3
    206e:	ea00 2041 	and.w	r0, r0, r1, lsl #9
    2072:	e242      	b.n	0x24fa
    2074:	a01f      	add	r0, pc, #124	; (adr r0, 0x20f4)
    2076:	e20a      	b.n	0x248e
    2078:	0037      	movs	r7, r6
    207a:	e352      	b.n	0x2722
    207c:	f102 979f 	b.w	0xd04fbe
    2080:	003f      	movs	r7, r7
    2082:	ea00 22c0 	and.w	r2, r0, r0, lsl #11
    2086:	0800      	lsrs	r0, r0, #32
    2088:	2184      	movs	r1, #132	; 0x84
    208a:	0800      	lsrs	r0, r0, #32
    208c:	2230      	movs	r2, #48	; 0x30
    208e:	0800      	lsrs	r0, r0, #32
    2090:	2190      	movs	r1, #144	; 0x90
    2092:	0800      	lsrs	r0, r0, #32
    2094:	22c0      	movs	r2, #192	; 0xc0
    2096:	0800      	lsrs	r0, r0, #32
    2098:	22c0      	movs	r2, #192	; 0xc0
    209a:	0800      	lsrs	r0, r0, #32
    209c:	22c0      	movs	r2, #192	; 0xc0
    209e:	0800      	lsrs	r0, r0, #32
    20a0:	2184      	movs	r1, #132	; 0x84
    20a2:	0800      	lsrs	r0, r0, #32
    20a4:	2184      	movs	r1, #132	; 0x84
    20a6:	0800      	lsrs	r0, r0, #32
    20a8:	2184      	movs	r1, #132	; 0x84
    20aa:	0800      	lsrs	r0, r0, #32
    20ac:	2184      	movs	r1, #132	; 0x84
    20ae:	0800      	lsrs	r0, r0, #32
    20b0:	2184      	movs	r1, #132	; 0x84
    20b2:	0800      	lsrs	r0, r0, #32
    20b4:	2184      	movs	r1, #132	; 0x84
    20b6:	0800      	lsrs	r0, r0, #32
    20b8:	2184      	movs	r1, #132	; 0x84
    20ba:	0800      	lsrs	r0, r0, #32
    20bc:	2190      	movs	r1, #144	; 0x90
    20be:	0800      	lsrs	r0, r0, #32
    20c0:	2184      	movs	r1, #132	; 0x84
    20c2:	0800      	lsrs	r0, r0, #32
    20c4:	2184      	movs	r1, #132	; 0x84
    20c6:	0800      	lsrs	r0, r0, #32
    20c8:	2184      	movs	r1, #132	; 0x84
    20ca:	0800      	lsrs	r0, r0, #32
    20cc:	2290      	movs	r2, #144	; 0x90
    20ce:	0800      	lsrs	r0, r0, #32
    20d0:	2184      	movs	r1, #132	; 0x84
    20d2:	0800      	lsrs	r0, r0, #32
    20d4:	2190      	movs	r1, #144	; 0x90
    20d6:	0800      	lsrs	r0, r0, #32
    20d8:	2184      	movs	r1, #132	; 0x84
    20da:	0800      	lsrs	r0, r0, #32
    20dc:	2184      	movs	r1, #132	; 0x84
    20de:	0800      	lsrs	r0, r0, #32
    20e0:	2164      	movs	r1, #100	; 0x64
    20e2:	0800      	lsrs	r0, r0, #32
    20e4:	2184      	movs	r1, #132	; 0x84
    20e6:	0800      	lsrs	r0, r0, #32
    20e8:	2184      	movs	r1, #132	; 0x84
    20ea:	0800      	lsrs	r0, r0, #32
    20ec:	2184      	movs	r1, #132	; 0x84
    20ee:	0800      	lsrs	r0, r0, #32
    20f0:	2184      	movs	r1, #132	; 0x84
    20f2:	0800      	lsrs	r0, r0, #32
    20f4:	2184      	movs	r1, #132	; 0x84
    20f6:	0800      	lsrs	r0, r0, #32
    20f8:	2184      	movs	r1, #132	; 0x84
    20fa:	0800      	lsrs	r0, r0, #32
    20fc:	2184      	movs	r1, #132	; 0x84
    20fe:	0800      	lsrs	r0, r0, #32
    2100:	2184      	movs	r1, #132	; 0x84
    2102:	0800      	lsrs	r0, r0, #32
    2104:	22c0      	movs	r2, #192	; 0xc0
    2106:	0800      	lsrs	r0, r0, #32
    2108:	2184      	movs	r1, #132	; 0x84
    210a:	0800      	lsrs	r0, r0, #32
    210c:	2178      	movs	r1, #120	; 0x78
    210e:	0800      	lsrs	r0, r0, #32
    2110:	2164      	movs	r1, #100	; 0x64
    2112:	0800      	lsrs	r0, r0, #32
    2114:	22c0      	movs	r2, #192	; 0xc0
    2116:	0800      	lsrs	r0, r0, #32
    2118:	22c0      	movs	r2, #192	; 0xc0
    211a:	0800      	lsrs	r0, r0, #32
    211c:	22c0      	movs	r2, #192	; 0xc0
    211e:	0800      	lsrs	r0, r0, #32
    2120:	2184      	movs	r1, #132	; 0x84
    2122:	0800      	lsrs	r0, r0, #32
    2124:	2164      	movs	r1, #100	; 0x64
    2126:	0800      	lsrs	r0, r0, #32
    2128:	2184      	movs	r1, #132	; 0x84
    212a:	0800      	lsrs	r0, r0, #32
    212c:	2184      	movs	r1, #132	; 0x84
    212e:	0800      	lsrs	r0, r0, #32
    2130:	2184      	movs	r1, #132	; 0x84
    2132:	0800      	lsrs	r0, r0, #32
    2134:	2184      	movs	r1, #132	; 0x84
    2136:	0800      	lsrs	r0, r0, #32
    2138:	2290      	movs	r2, #144	; 0x90
    213a:	0800      	lsrs	r0, r0, #32
    213c:	2164      	movs	r1, #100	; 0x64
    213e:	0800      	lsrs	r0, r0, #32
    2140:	2290      	movs	r2, #144	; 0x90
    2142:	0800      	lsrs	r0, r0, #32
    2144:	2184      	movs	r1, #132	; 0x84
    2146:	0800      	lsrs	r0, r0, #32
    2148:	2184      	movs	r1, #132	; 0x84
    214a:	0800      	lsrs	r0, r0, #32
    214c:	2290      	movs	r2, #144	; 0x90
    214e:	0800      	lsrs	r0, r0, #32
    2150:	2184      	movs	r1, #132	; 0x84
    2152:	0800      	lsrs	r0, r0, #32
    2154:	2164      	movs	r1, #100	; 0x64
    2156:	0800      	lsrs	r0, r0, #32
    2158:	2184      	movs	r1, #132	; 0x84
    215a:	0800      	lsrs	r0, r0, #32
    215c:	2184      	movs	r1, #132	; 0x84
    215e:	0800      	lsrs	r0, r0, #32
    2160:	2164      	movs	r1, #100	; 0x64
    2162:	0800      	lsrs	r0, r0, #32
    2164:	0010      	movs	r0, r2
    2166:	e317      	b.n	0x2798
    2168:	0008      	movs	r0, r1
    216a:	1a00      	subs	r0, r0, r0
    216c:	0020      	movs	r0, r4
    216e:	e317      	b.n	0x27a0
    2170:	001f      	movs	r7, r3
    2172:	1a00      	subs	r0, r0, r0
    2174:	0039      	movs	r1, r7
    2176:	ea00 0010 	and.w	r0, r0, r0, lsr #32
    217a:	e317      	b.n	0x27ac
    217c:	002b      	movs	r3, r5
    217e:	1a00      	subs	r0, r0, r0
    2180:	0036      	movs	r6, r6
    2182:	ea00 0001 	and.w	r0, r0, r1
    2186:	e375      	b.n	0x2874
    2188:	0006      	movs	r6, r0
    218a:	0a00      	lsrs	r0, r0, #8
    218c:	0002      	movs	r2, r0
    218e:	ea00 0001 	and.w	r0, r0, r1
    2192:	e375      	b.n	0x2880
    2194:	6001      	str	r1, [r0, #0]
    2196:	13a0      	asrs	r0, r4, #14
    2198:	000c      	movs	r4, r1
    219a:	0a00      	lsrs	r0, r0, #8
    219c:	2058      	movs	r0, #88	; 0x58
    219e:	e59d      	b.n	0x1cdc
    21a0:	6105      	str	r5, [r0, #16]
    21a2:	e782      	b.n	0x20aa
    21a4:	009a      	lsls	r2, r3, #2
    21a6:	ea00 2001 	and.w	r0, r0, r1, lsl #8
    21aa:	e246      	b.n	0x263a
    21ac:	0005      	movs	r5, r0
    21ae:	e352      	b.n	0x2856
    21b0:	f102 979f 	b.w	0xd050f2
    21b4:	002c      	movs	r4, r5
    21b6:	ea00 21d0 	and.w	r1, r0, r0, lsr #11
    21ba:	0800      	lsrs	r0, r0, #32
    21bc:	2200      	movs	r2, #0
    21be:	0800      	lsrs	r0, r0, #32
    21c0:	229c      	movs	r2, #156	; 0x9c
    21c2:	0800      	lsrs	r0, r0, #32
    21c4:	22cc      	movs	r2, #204	; 0xcc
    21c6:	0800      	lsrs	r0, r0, #32
    21c8:	22fc      	movs	r2, #252	; 0xfc
    21ca:	0800      	lsrs	r0, r0, #32
    21cc:	223c      	movs	r2, #60	; 0x3c
    21ce:	0800      	lsrs	r0, r0, #32
    21d0:	2000      	movs	r0, #0
    21d2:	e594      	b.n	0x1cfe
    21d4:	1004      	asrs	r4, r0, #32
    21d6:	e282      	b.n	0x26de
    21d8:	2000      	movs	r0, #0
    21da:	e592      	b.n	0x1d02
    21dc:	1000      	asrs	r0, r0, #32
    21de:	e584      	b.n	0x1cea
    21e0:	5000      	str	r0, [r0, r0]
    21e2:	e3e0      	b.n	0x29a6
    21e4:	218a      	movs	r1, #138	; 0x8a
    21e6:	e789      	b.n	0x20fc
    21e8:	6001      	str	r1, [r0, #0]
    21ea:	e3a0      	b.n	0x292e
    21ec:	a001      	add	r0, pc, #4	; (adr r0, 0x21f4)
    21ee:	e28a      	b.n	0x2706
    21f0:	0087      	lsls	r7, r0, #2
    21f2:	ea00 0001 	and.w	r0, r0, r1
    21f6:	e375      	b.n	0x28e4
    21f8:	6002      	str	r2, [r0, #0]
    21fa:	13a0      	asrs	r0, r4, #14
    21fc:	ffe6 1aff 			; <UNDEFINED> instruction: 0xffe61aff
    2200:	2000      	movs	r0, #0
    2202:	e594      	b.n	0x1d2e
    2204:	2007      	movs	r0, #7
    2206:	e282      	b.n	0x270e
    2208:	2007      	movs	r0, #7
    220a:	e3c2      	b.n	0x2992
    220c:	1008      	asrs	r0, r1, #32
    220e:	e282      	b.n	0x2716
    2210:	1000      	asrs	r0, r0, #32
    2212:	e584      	b.n	0x1d1e
    2214:	0003      	movs	r3, r0
    2216:	e892 218a 	ldmia.w	r2, {r1, r3, r7, r8, sp}
    221a:	e089      	b.n	0x2330
    221c:	0003      	movs	r3, r0
    221e:	e882 a001 	stmia.w	r2, {r0, sp, pc}
    2222:	e28a      	b.n	0x273a
    2224:	5000      	str	r0, [r0, r0]
    2226:	e3e0      	b.n	0x29ea
    2228:	6002      	str	r2, [r0, #0]
    222a:	e3a0      	b.n	0x296e
    222c:	0078      	lsls	r0, r7, #1
    222e:	ea00 0001 	and.w	r0, r0, r1
    2232:	e375      	b.n	0x2920
    2234:	6006      	str	r6, [r0, #0]
    2236:	13a0      	asrs	r0, r4, #14
    2238:	ffd7 1aff 			; <UNDEFINED> instruction: 0xffd71aff
    223c:	2000      	movs	r0, #0
    223e:	e594      	b.n	0x1d6a
    2240:	1004      	asrs	r4, r0, #32
    2242:	e282      	b.n	0x274a
    2244:	2000      	movs	r0, #0
    2246:	e592      	b.n	0x1d6e
    2248:	1000      	asrs	r0, r0, #32
    224a:	e584      	b.n	0x1d56
    224c:	5000      	str	r0, [r0, r0]
    224e:	e3e0      	b.n	0x2a12
    2250:	218a      	movs	r1, #138	; 0x8a
    2252:	e789      	b.n	0x2168
    2254:	6006      	str	r6, [r0, #0]
    2256:	e3a0      	b.n	0x299a
    2258:	a001      	add	r0, pc, #4	; (adr r0, 0x2260)
    225a:	e28a      	b.n	0x2772
    225c:	006c      	lsls	r4, r5, #1
    225e:	ea00 0001 	and.w	r0, r0, r1
    2262:	e375      	b.n	0x2950
    2264:	6000      	str	r0, [r0, #0]
    2266:	13a0      	asrs	r0, r4, #14
    2268:	ffcb 1aff 			; <UNDEFINED> instruction: 0xffcb1aff
    226c:	2000      	movs	r0, #0
    226e:	e594      	b.n	0x1d9a
    2270:	1004      	asrs	r4, r0, #32
    2272:	e282      	b.n	0x277a
    2274:	2000      	movs	r0, #0
    2276:	e592      	b.n	0x1d9e
    2278:	1000      	asrs	r0, r0, #32
    227a:	e584      	b.n	0x1d86
    227c:	5000      	str	r0, [r0, r0]
    227e:	e3e0      	b.n	0x2a42
    2280:	218a      	movs	r1, #138	; 0x8a
    2282:	e789      	b.n	0x2198
    2284:	6000      	str	r0, [r0, #0]
    2286:	e3a0      	b.n	0x29ca
    2288:	a001      	add	r0, pc, #4	; (adr r0, 0x2290)
    228a:	e28a      	b.n	0x27a2
    228c:	0060      	lsls	r0, r4, #1
    228e:	ea00 0001 	and.w	r0, r0, r1
    2292:	e375      	b.n	0x2980
    2294:	6003      	str	r3, [r0, #0]
    2296:	13a0      	asrs	r0, r4, #14
    2298:	ffbf 1aff 			; <UNDEFINED> instruction: 0xffbf1aff
    229c:	2000      	movs	r0, #0
    229e:	e594      	b.n	0x1dca
    22a0:	1004      	asrs	r4, r0, #32
    22a2:	e282      	b.n	0x27aa
    22a4:	1000      	asrs	r0, r0, #32
    22a6:	e584      	b.n	0x1db2
    22a8:	2000      	movs	r0, #0
    22aa:	e592      	b.n	0x1dd2
    22ac:	5000      	str	r0, [r0, r0]
    22ae:	e3e0      	b.n	0x2a72
    22b0:	218a      	movs	r1, #138	; 0x8a
    22b2:	e789      	b.n	0x21c8
    22b4:	6003      	str	r3, [r0, #0]
    22b6:	e3a0      	b.n	0x29fa
    22b8:	a001      	add	r0, pc, #4	; (adr r0, 0x22c0)
    22ba:	e28a      	b.n	0x27d2
    22bc:	0054      	lsls	r4, r2, #1
    22be:	ea00 0001 	and.w	r0, r0, r1
    22c2:	e375      	b.n	0x29b0
    22c4:	6004      	str	r4, [r0, #0]
    22c6:	13a0      	asrs	r0, r4, #14
    22c8:	ffb3 1aff 			; <UNDEFINED> instruction: 0xffb31aff
    22cc:	2000      	movs	r0, #0
    22ce:	e594      	b.n	0x1dfa
    22d0:	2007      	movs	r0, #7
    22d2:	e282      	b.n	0x27da
    22d4:	2007      	movs	r0, #7
    22d6:	e3c2      	b.n	0x2a5e
    22d8:	1008      	asrs	r0, r1, #32
    22da:	e282      	b.n	0x27e2
    22dc:	1000      	asrs	r0, r0, #32
    22de:	e584      	b.n	0x1dea
    22e0:	0003      	movs	r3, r0
    22e2:	e892 218a 	ldmia.w	r2, {r1, r3, r7, r8, sp}
    22e6:	e089      	b.n	0x23fc
    22e8:	0003      	movs	r3, r0
    22ea:	e882 a001 	stmia.w	r2, {r0, sp, pc}
    22ee:	e28a      	b.n	0x2806
    22f0:	5000      	str	r0, [r0, r0]
    22f2:	e3e0      	b.n	0x2ab6
    22f4:	6004      	str	r4, [r0, #0]
    22f6:	e3a0      	b.n	0x2a3a
    22f8:	0045      	lsls	r5, r0, #1
    22fa:	ea00 2000 	and.w	r0, r0, r0, lsl #8
    22fe:	e594      	b.n	0x1e2a
    2300:	2007      	movs	r0, #7
    2302:	e282      	b.n	0x280a
    2304:	2007      	movs	r0, #7
    2306:	e3c2      	b.n	0x2a8e
    2308:	1008      	asrs	r0, r1, #32
    230a:	e282      	b.n	0x2812
    230c:	1000      	asrs	r0, r0, #32
    230e:	e584      	b.n	0x1e1a
    2310:	0003      	movs	r3, r0
    2312:	e892 218a 	ldmia.w	r2, {r1, r3, r7, r8, sp}
    2316:	e089      	b.n	0x242c
    2318:	0003      	movs	r3, r0
    231a:	e882 0027 	stmia.w	r2, {r0, r1, r2, r5}
    231e:	ea00 2058 	and.w	r0, r0, r8, lsr #9
    2322:	e59d      	b.n	0x1e60
    2324:	2000      	movs	r0, #0
    2326:	e592      	b.n	0x1e4e
    2328:	0001      	movs	r1, r0
    232a:	e372      	b.n	0x2a12
    232c:	0005      	movs	r5, r0
    232e:	1a00      	subs	r0, r0, r0
    2330:	2080      	movs	r0, #128	; 0x80
    2332:	e3a0      	b.n	0x2a76
    2334:	1000      	asrs	r0, r0, #32
    2336:	e3a0      	b.n	0x2a7a
    2338:	0058      	lsls	r0, r3, #1
    233a:	e59d      	b.n	0x1e78
    233c:	3014      	adds	r0, #20
    233e:	e58d      	b.n	0x1e5c
    2340:	18a7      	adds	r7, r4, r2
    2342:	eb00 3014 	add.w	r0, r0, r4, lsr #12
    2346:	e59d      	b.n	0x1e84
    2348:	2008      	movs	r0, #8
    234a:	e59d      	b.n	0x1e88
    234c:	5001      	str	r1, [r0, r0]
    234e:	e248      	b.n	0x27e2
    2350:	0005      	movs	r5, r0
    2352:	e152      	b.n	0x25fa
    2354:	2005      	movs	r0, #5
    2356:	b1a0      	cbz	r0, 0x2382
    2358:	0010      	movs	r0, r2
    235a:	ea00 2058 	and.w	r0, r0, r8, lsr #9
    235e:	e59d      	b.n	0x1e9c
    2360:	2000      	movs	r0, #0
    2362:	e592      	b.n	0x1e8a
    2364:	0001      	movs	r1, r0
    2366:	e372      	b.n	0x2a4e
    2368:	0005      	movs	r5, r0
    236a:	1a00      	subs	r0, r0, r0
    236c:	2080      	movs	r0, #128	; 0x80
    236e:	e3a0      	b.n	0x2ab2
    2370:	1000      	asrs	r0, r0, #32
    2372:	e3a0      	b.n	0x2ab6
    2374:	0058      	lsls	r0, r3, #1
    2376:	e59d      	b.n	0x1eb4
    2378:	3014      	adds	r0, #20
    237a:	e58d      	b.n	0x1e98
    237c:	1898      	adds	r0, r3, r2
    237e:	eb00 3014 	add.w	r0, r0, r4, lsr #12
    2382:	e59d      	b.n	0x1ec0
    2384:	1000      	asrs	r0, r0, #32
    2386:	e3a0      	b.n	0x2aca
    2388:	2058      	movs	r0, #88	; 0x58
    238a:	e59d      	b.n	0x1ec8
    238c:	8001      	strh	r1, [r0, #0]
    238e:	e248      	b.n	0x2822
    2390:	1108      	asrs	r0, r1, #4
    2392:	e782      	b.n	0x229a
    2394:	2008      	movs	r0, #8
    2396:	e59d      	b.n	0x1ed4
    2398:	0008      	movs	r0, r1
    239a:	e152      	b.n	0x2642
    239c:	2008      	movs	r0, #8
    239e:	b1a0      	cbz	r0, 0x23ca
    23a0:	2008      	movs	r0, #8
    23a2:	e58d      	b.n	0x1ec0
    23a4:	001a      	movs	r2, r3
    23a6:	ea00 b001 			; <UNDEFINED> instruction: 0xea00b001
    23aa:	e1a0      	b.n	0x26ee
    23ac:	2000      	movs	r0, #0
    23ae:	e594      	b.n	0x1eda
    23b0:	1004      	asrs	r4, r0, #32
    23b2:	e282      	b.n	0x28ba
    23b4:	2000      	movs	r0, #0
    23b6:	e592      	b.n	0x1ede
    23b8:	1000      	asrs	r0, r0, #32
    23ba:	e584      	b.n	0x1ec6
    23bc:	218a      	movs	r1, #138	; 0x8a
    23be:	e789      	b.n	0x22d4
    23c0:	a001      	add	r0, pc, #4	; (adr r0, 0x23c8)
    23c2:	e28a      	b.n	0x28da
    23c4:	0012      	movs	r2, r2
    23c6:	ea00 100b 	and.w	r0, r0, fp, lsl #4
    23ca:	e1a0      	b.n	0x270e
    23cc:	000a      	movs	r2, r1
    23ce:	e3a0      	b.n	0x2b12
    23d0:	8030      	strh	r0, [r6, #0]
    23d2:	e242      	b.n	0x285a
    23d4:	b001      	add	sp, #4
    23d6:	e1a0      	b.n	0x271a
    23d8:	2000      	movs	r0, #0
    23da:	e5db      	b.n	0x1f94
    23dc:	0000      	movs	r0, r0
    23de:	e352      	b.n	0x2a86
    23e0:	1001      	asrs	r1, r0, #32
    23e2:	e281      	b.n	0x28e8
    23e4:	000a      	movs	r2, r1
    23e6:	0a00      	lsrs	r0, r0, #8
    23e8:	2030      	movs	r0, #48	; 0x30
    23ea:	e242      	b.n	0x2872
    23ec:	0009      	movs	r1, r1
    23ee:	e352      	b.n	0x2a96
    23f0:	0007      	movs	r7, r0
    23f2:	8a00      	ldrh	r0, [r0, #16]
    23f4:	2890      	cmp	r0, #144	; 0x90
    23f6:	e028      	b.n	0x244a
    23f8:	fff5 eaff 			; <UNDEFINED> instruction: 0xfff5eaff
    23fc:	b002      	add	sp, #8
    23fe:	e1a0      	b.n	0x2742
    2400:	1000      	asrs	r0, r0, #32
    2402:	e5db      	b.n	0x1fbc
    2404:	1030      	asrs	r0, r6, #32
    2406:	e241      	b.n	0x288c
    2408:	0009      	movs	r1, r1
    240a:	e351      	b.n	0x2ab0
    240c:	2001      	movs	r0, #1
    240e:	e282      	b.n	0x2916
    2410:	fff9 9aff 			; <UNDEFINED> instruction: 0xfff99aff
    2414:	000b      	movs	r3, r1
    2416:	e353      	b.n	0x2ac0
    2418:	fec0 0aff 			; <UNDEFINED> instruction: 0xfec00aff
    241c:	100b      	asrs	r3, r1, #32
    241e:	e1a0      	b.n	0x2762
    2420:	fee2 eaff 			; <UNDEFINED> instruction: 0xfee2eaff
    2424:	3000      	adds	r0, #0
    2426:	e5db      	b.n	0x1fe0
    2428:	100c      	asrs	r4, r1, #32
    242a:	e59d      	b.n	0x1f68
    242c:	0000      	movs	r0, r0
    242e:	e353      	b.n	0x2ad8
    2430:	2008      	movs	r0, #8
    2432:	e59d      	b.n	0x1f70
    2434:	2001      	movs	r0, #1
    2436:	11a0      	asrs	r0, r4, #6
    2438:	2008      	movs	r0, #8
    243a:	e58d      	b.n	0x1f58
    243c:	200a      	movs	r0, #10
    243e:	e1a0      	b.n	0x2782
    2440:	0058      	lsls	r0, r3, #1
    2442:	e59d      	b.n	0x1f80
    2444:	3008      	adds	r0, #8
    2446:	e59d      	b.n	0x1f84
    2448:	0003      	movs	r3, r0
    244a:	e152      	b.n	0x26f2
    244c:	0021      	movs	r1, r4
    244e:	ca00      	ldmia	r2!, {}
    2450:	1102      	asrs	r2, r0, #4
    2452:	e790      	b.n	0x2376
    2454:	1001      	asrs	r1, r0, #32
    2456:	e241      	b.n	0x28dc
    2458:	3000      	adds	r0, #0
    245a:	e594      	b.n	0x1f86
    245c:	0005      	movs	r5, r0
    245e:	e351      	b.n	0x2b04
    2460:	f101 979f 	b.w	0xd043a2
    2464:	0015      	movs	r5, r2
    2466:	ea00 24c0 	and.w	r4, r0, r0, lsl #11
    246a:	0800      	lsrs	r0, r0, #32
    246c:	2480      	movs	r4, #128	; 0x80
    246e:	0800      	lsrs	r0, r0, #32
    2470:	24c0      	movs	r4, #192	; 0xc0
    2472:	0800      	lsrs	r0, r0, #32
    2474:	24a0      	movs	r4, #160	; 0xa0
    2476:	0800      	lsrs	r0, r0, #32
    2478:	24a0      	movs	r4, #160	; 0xa0
    247a:	0800      	lsrs	r0, r0, #32
    247c:	24c0      	movs	r4, #192	; 0xc0
    247e:	0800      	lsrs	r0, r0, #32
    2480:	3007      	adds	r0, #7
    2482:	e283      	b.n	0x298c
    2484:	3007      	adds	r0, #7
    2486:	e3c3      	b.n	0x2c10
    2488:	00c0      	lsls	r0, r0, #3
    248a:	e893 1008 	ldmia.w	r3, {r3, ip}
    248e:	e283      	b.n	0x2998
    2490:	3182      	adds	r1, #130	; 0x82
    2492:	e089      	b.n	0x25a8
    2494:	1000      	asrs	r0, r0, #32
    2496:	e584      	b.n	0x1fa2
    2498:	00c0      	lsls	r0, r0, #3
    249a:	e883 000b 	stmia.w	r3, {r0, r1, r3}
    249e:	ea00 3007 	and.w	r0, r0, r7, lsl #12
    24a2:	e283      	b.n	0x29ac
    24a4:	3007      	adds	r0, #7
    24a6:	e3c3      	b.n	0x2c30
    24a8:	1008      	asrs	r0, r1, #32
    24aa:	e283      	b.n	0x29b4
    24ac:	1000      	asrs	r0, r0, #32
    24ae:	e584      	b.n	0x1fba
    24b0:	00c0      	lsls	r0, r0, #3
    24b2:	e893 3182 	ldmia.w	r3, {r1, r7, r8, ip, sp}
    24b6:	e089      	b.n	0x25cc
    24b8:	00c0      	lsls	r0, r0, #3
    24ba:	e883 0003 	stmia.w	r3, {r0, r1}
    24be:	ea00 1004 	and.w	r0, r0, r4, lsl #4
    24c2:	e283      	b.n	0x29cc
    24c4:	1000      	asrs	r0, r0, #32
    24c6:	e584      	b.n	0x1fd2
    24c8:	3000      	adds	r0, #0
    24ca:	e593      	b.n	0x1ff4
    24cc:	3182      	adds	r1, #130	; 0x82
    24ce:	e789      	b.n	0x23e4
    24d0:	2001      	movs	r0, #1
    24d2:	e282      	b.n	0x29da
    24d4:	ffda eaff 			; <UNDEFINED> instruction: 0xffdaeaff
    24d8:	3050      	adds	r0, #80	; 0x50
    24da:	e59d      	b.n	0x2018
    24dc:	2000      	movs	r0, #0
    24de:	e583      	b.n	0x1fe8
    24e0:	305c      	adds	r0, #92	; 0x5c
    24e2:	e59d      	b.n	0x2020
    24e4:	b000      	add	sp, #0
    24e6:	e583      	b.n	0x1ff0
    24e8:	300c      	adds	r0, #12
    24ea:	e59d      	b.n	0x2028
    24ec:	0183      	lsls	r3, r0, #6
    24ee:	e089      	b.n	0x2604
    24f0:	d02c      	beq.n	0x254c
    24f2:	e28d      	b.n	0x2a10
    24f4:	4ff0      	ldr	r7, [pc, #960]	; (0x28b8)
    24f6:	e8bd ff1e 	ldmia.w	sp!, {r1, r2, r3, r4, r8, r9, sl, fp, ip, sp, lr, pc}
    24fa:	e12f      	b.n	0x275c
    24fc:	01ec      	lsls	r4, r5, #7
    24fe:	0300      	lsls	r0, r0, #12
    2500:	a250      	add	r2, pc, #320	; (adr r2, 0x2644)
    2502:	0800      	lsrs	r0, r0, #32
    2504:	a1e4      	add	r1, pc, #912	; (adr r1, 0x2898)
    2506:	0800      	lsrs	r0, r0, #32
    2508:	a350      	add	r3, pc, #320	; (adr r3, 0x264c)
    250a:	0800      	lsrs	r0, r0, #32
    250c:	4ff0      	ldr	r7, [pc, #960]	; (0x28d0)
    250e:	e92d dfbb 	stmdb	sp!, {r0, r1, r3, r4, r5, r7, r8, r9, sl, fp, ip, lr, pc}
    2512:	e24d      	b.n	0x29b0
    2514:	1020      	asrs	r0, r4, #32
    2516:	e58d      	b.n	0x2034
    2518:	201c      	movs	r0, #28
    251a:	e58d      	b.n	0x2038
    251c:	307c      	adds	r0, #124	; 0x7c
    251e:	e58d      	b.n	0x203c
    2520:	b000      	add	sp, #0
    2522:	e1a0      	b.n	0x2866
    2524:	1532      	asrs	r2, r6, #20
    2526:	eb00 3000 	add.w	r0, r0, r0, lsl #12
    252a:	e590      	b.n	0x204e
    252c:	0003      	movs	r3, r0
    252e:	e1a0      	b.n	0x2872
    2530:	3064      	adds	r0, #100	; 0x64
    2532:	e58d      	b.n	0x2050
    2534:	1b08      	subs	r0, r1, r4
    2536:	eb00 2008 	add.w	r0, r0, r8, lsl #8
    253a:	e3a0      	b.n	0x2c7e
    253c:	0048      	lsls	r0, r1, #1
    253e:	e58d      	b.n	0x205c
    2540:	1000      	asrs	r0, r0, #32
    2542:	e3a0      	b.n	0x2c86
    2544:	00a8      	lsls	r0, r5, #2
    2546:	e28d      	b.n	0x2a64
    2548:	1825      	adds	r5, r4, r0
    254a:	eb00 3020 	add.w	r0, r0, r0, asr #12
    254e:	e59d      	b.n	0x208c
    2550:	30bc      	adds	r0, #188	; 0xbc
    2552:	e1d3      	b.n	0x28fc
    2554:	0080      	lsls	r0, r0, #2
    2556:	e313      	b.n	0x2b80
    2558:	0011      	movs	r1, r2
    255a:	0a00      	lsrs	r0, r0, #8
    255c:	3020      	adds	r0, #32
    255e:	e59d      	b.n	0x209c
    2560:	3010      	adds	r0, #16
    2562:	e593      	b.n	0x208c
    2564:	0000      	movs	r0, r0
    2566:	e353      	b.n	0x2c10
    2568:	000d      	movs	r5, r1
    256a:	1a00      	subs	r0, r0, r0
    256c:	1040      	asrs	r0, r0, #1
    256e:	e3a0      	b.n	0x2cb2
    2570:	000b      	movs	r3, r1
    2572:	e1a0      	b.n	0x28b6
    2574:	1532      	asrs	r2, r6, #20
    2576:	eb00 3020 	add.w	r0, r0, r0, asr #12
    257a:	e59d      	b.n	0x20b8
    257c:	0000      	movs	r0, r0
    257e:	e350      	b.n	0x2c22
    2580:	0000      	movs	r0, r0
    2582:	e583      	b.n	0x208c
    2584:	0010      	movs	r0, r2
    2586:	e583      	b.n	0x2090
    2588:	300c      	adds	r0, #12
    258a:	03a0      	lsls	r0, r4, #14
    258c:	3000      	adds	r0, #0
    258e:	058b      	lsls	r3, r1, #22
    2590:	3000      	adds	r0, #0
    2592:	03e0      	lsls	r0, r4, #15
    2594:	0dbc      	lsrs	r4, r7, #22
    2596:	0a00      	lsrs	r0, r0, #8
    2598:	3040      	adds	r0, #64	; 0x40
    259a:	e3a0      	b.n	0x2cde
    259c:	2020      	movs	r0, #32
    259e:	e59d      	b.n	0x20dc
    25a0:	3014      	adds	r0, #20
    25a2:	e582      	b.n	0x20aa
    25a4:	3000      	adds	r0, #0
    25a6:	e3a0      	b.n	0x2cea
    25a8:	1000      	asrs	r0, r0, #32
    25aa:	e3e0      	b.n	0x2d6e
    25ac:	20c4      	movs	r0, #196	; 0xc4
    25ae:	e28d      	b.n	0x2acc
    25b0:	9002      	str	r0, [sp, #8]
    25b2:	e1a0      	b.n	0x28f6
    25b4:	8003      	strh	r3, [r0, #0]
    25b6:	e1a0      	b.n	0x28fa
    25b8:	20b8      	movs	r0, #184	; 0xb8
    25ba:	e58d      	b.n	0x20d8
    25bc:	30c0      	adds	r0, #192	; 0xc0
    25be:	e58d      	b.n	0x20dc
    25c0:	30bc      	adds	r0, #188	; 0xbc
    25c2:	e58d      	b.n	0x20e0
    25c4:	3090      	adds	r0, #144	; 0x90
    25c6:	e58d      	b.n	0x20e4
    25c8:	1168      	asrs	r0, r5, #5
    25ca:	e58d      	b.n	0x20e8
    25cc:	308c      	adds	r0, #140	; 0x8c
    25ce:	e58d      	b.n	0x20ec
    25d0:	3028      	adds	r0, #40	; 0x28
    25d2:	e58d      	b.n	0x20f0
    25d4:	3040      	adds	r0, #64	; 0x40
    25d6:	e58d      	b.n	0x20f4
    25d8:	3038      	adds	r0, #56	; 0x38
    25da:	e58d      	b.n	0x20f8
    25dc:	3070      	adds	r0, #112	; 0x70
    25de:	e58d      	b.n	0x20fc
    25e0:	306c      	adds	r0, #108	; 0x6c
    25e2:	e58d      	b.n	0x2100
    25e4:	3050      	adds	r0, #80	; 0x50
    25e6:	e58d      	b.n	0x2104
    25e8:	3058      	adds	r0, #88	; 0x58
    25ea:	e58d      	b.n	0x2108
    25ec:	3068      	adds	r0, #104	; 0x68
    25ee:	e58d      	b.n	0x210c
    25f0:	304c      	adds	r0, #76	; 0x4c
    25f2:	e58d      	b.n	0x2110
    25f4:	305c      	adds	r0, #92	; 0x5c
    25f6:	e58d      	b.n	0x2114
    25f8:	3060      	adds	r0, #96	; 0x60
    25fa:	e58d      	b.n	0x2118
    25fc:	601c      	str	r4, [r3, #0]
    25fe:	e59d      	b.n	0x213c
    2600:	5e64      	ldrsh	r4, [r4, r1]
    2602:	e59f      	b.n	0x2144
    2604:	40a8      	lsls	r0, r5
    2606:	e28d      	b.n	0x2b24
    2608:	1e1f      	subs	r7, r3, #0
    260a:	eb00 3034 	add.w	r0, r0, r4, ror #12
    260e:	e590      	b.n	0x2132
    2610:	0000      	movs	r0, r0
    2612:	e353      	b.n	0x2cbc
    2614:	3005      	adds	r0, #5
    2616:	01a0      	lsls	r0, r4, #6
    2618:	70e4      	strb	r4, [r4, #3]
    261a:	e593      	b.n	0x2144
    261c:	14fe      	asrs	r6, r7, #19
    261e:	eb00 4000 	add.w	r0, r0, r0, lsl #16
    2622:	e58d      	b.n	0x2140
    2624:	3000      	adds	r0, #0
    2626:	e1a0      	b.n	0x296a
    2628:	2006      	movs	r0, #6
    262a:	e1a0      	b.n	0x296e
    262c:	1098      	asrs	r0, r3, #2
    262e:	e28d      	b.n	0x2b4c
    2630:	000b      	movs	r3, r1
    2632:	e1a0      	b.n	0x2976
    2634:	e00f      	b.n	0x2656
    2636:	e1a0      	b.n	0x297a
    2638:	ff17 e12f 	vrhadd.u16	d14, d7, d31
    263c:	0000      	movs	r0, r0
    263e:	e350      	b.n	0x2ce2
    2640:	000b      	movs	r3, r1
    2642:	0a00      	lsrs	r0, r0, #8
    2644:	0005      	movs	r5, r0
    2646:	aa00      	add	r2, sp, #0
    2648:	2008      	movs	r0, #8
    264a:	e3a0      	b.n	0x2d8e
    264c:	1000      	asrs	r0, r0, #32
    264e:	e3a0      	b.n	0x2d92
    2650:	0004      	movs	r4, r0
    2652:	e1a0      	b.n	0x2996
    2654:	17e2      	asrs	r2, r4, #31
    2656:	eb00 0001 	add.w	r0, r0, r1
    265a:	e3a0      	b.n	0x2d9e
    265c:	0002      	movs	r2, r0
    265e:	ea00 3098 	and.w	r0, r0, r8, lsr #14
    2662:	e59d      	b.n	0x21a0
    2664:	0025      	movs	r5, r4
    2666:	e353      	b.n	0x2d10
    2668:	0001      	movs	r1, r0
    266a:	0a00      	lsrs	r0, r0, #8
    266c:	6000      	str	r0, [r0, #0]
    266e:	e086      	b.n	0x277e
    2670:	ffe4 eaff 			; <UNDEFINED> instruction: 0xffe4eaff
    2674:	301c      	adds	r0, #28
    2676:	e59d      	b.n	0x21b4
    2678:	4003      	ands	r3, r0
    267a:	e056      	b.n	0x272a
    267c:	7000      	strb	r0, [r0, #0]
    267e:	e1a0      	b.n	0x29c2
    2680:	0013      	movs	r3, r2
    2682:	0a00      	lsrs	r0, r0, #8
    2684:	0018      	movs	r0, r3
    2686:	e889 30c0 	stmia.w	r9, {r6, r7, ip, sp}
    268a:	e59d      	b.n	0x21c8
    268c:	3004      	adds	r0, #4
    268e:	e083      	b.n	0x2798
    2690:	30c0      	adds	r0, #192	; 0xc0
    2692:	e58d      	b.n	0x21b0
    2694:	30bc      	adds	r0, #188	; 0xbc
    2696:	e59d      	b.n	0x21d4
    2698:	3001      	adds	r0, #1
    269a:	e283      	b.n	0x2ba4
    269c:	0007      	movs	r7, r0
    269e:	e353      	b.n	0x2d48
    26a0:	30bc      	adds	r0, #188	; 0xbc
    26a2:	e58d      	b.n	0x21c0
    26a4:	9008      	str	r0, [sp, #32]
    26a6:	d289      	bcs.n	0x25bc
    26a8:	0006      	movs	r6, r0
    26aa:	da00      	bge.n	0x26ae
    26ac:	20b8      	movs	r0, #184	; 0xb8
    26ae:	e28d      	b.n	0x2bcc
    26b0:	1020      	asrs	r0, r4, #32
    26b2:	e59d      	b.n	0x21f0
    26b4:	000b      	movs	r3, r1
    26b6:	e1a0      	b.n	0x29fa
    26b8:	1af9      	subs	r1, r7, r3
    26ba:	eb00 0000 	add.w	r0, r0, r0
    26be:	e350      	b.n	0x2d62
    26c0:	0d6c      	lsrs	r4, r5, #21
    26c2:	1a00      	subs	r0, r0, r0
    26c4:	90c4      	str	r0, [sp, #784]	; 0x310
    26c6:	e28d      	b.n	0x2be4
    26c8:	304c      	adds	r0, #76	; 0x4c
    26ca:	e59d      	b.n	0x2208
    26cc:	3004      	adds	r0, #4
    26ce:	e083      	b.n	0x27d8
    26d0:	304c      	adds	r0, #76	; 0x4c
    26d2:	e58d      	b.n	0x21f0
    26d4:	0000      	movs	r0, r0
    26d6:	e357      	b.n	0x2d88
    26d8:	0d57      	lsrs	r7, r2, #21
    26da:	0a00      	lsrs	r0, r0, #8
    26dc:	3000      	adds	r0, #0
    26de:	e3a0      	b.n	0x2e22
    26e0:	1000      	asrs	r0, r0, #32
    26e2:	e3e0      	b.n	0x2ea6
    26e4:	9030      	str	r0, [sp, #192]	; 0xc0
    26e6:	e58d      	b.n	0x2204
    26e8:	5008      	str	r0, [r1, r0]
    26ea:	e1a0      	b.n	0x2a2e
    26ec:	7003      	strb	r3, [r0, #0]
    26ee:	e1a0      	b.n	0x2a32
    26f0:	a003      	add	r0, pc, #12	; (adr r0, 0x2700)
    26f2:	e1a0      	b.n	0x2a36
    26f4:	9003      	str	r0, [sp, #12]
    26f6:	e1a0      	b.n	0x2a3a
    26f8:	3087      	adds	r0, #135	; 0x87
    26fa:	e5cd      	b.n	0x2298
    26fc:	1018      	asrs	r0, r3, #32
    26fe:	e58d      	b.n	0x221c
    2700:	303c      	adds	r0, #60	; 0x3c
    2702:	e58d      	b.n	0x2220
    2704:	2001      	movs	r0, #1
    2706:	e286      	b.n	0x2c16
    2708:	1001      	asrs	r1, r0, #32
    270a:	e4d2      	b.n	0x20b2
    270c:	0018      	movs	r0, r3
    270e:	e59d      	b.n	0x224c
    2710:	3020      	adds	r0, #32
    2712:	e241      	b.n	0x2b98
    2714:	005a      	lsls	r2, r3, #1
    2716:	e353      	b.n	0x2dc0
    2718:	f103 979f 	b.w	0xd0665a
    271c:	09a4      	lsrs	r4, r4, #6
    271e:	ea00 28f4 	and.w	r8, r0, r4, ror #11
    2722:	0800      	lsrs	r0, r0, #32
    2724:	4db4      	ldr	r5, [pc, #720]	; (0x29f8)
    2726:	0800      	lsrs	r0, r0, #32
    2728:	4db4      	ldr	r5, [pc, #720]	; (0x29fc)
    272a:	0800      	lsrs	r0, r0, #32
    272c:	290c      	cmp	r1, #12
    272e:	0800      	lsrs	r0, r0, #32
    2730:	4db4      	ldr	r5, [pc, #720]	; (0x2a04)
    2732:	0800      	lsrs	r0, r0, #32
    2734:	4db4      	ldr	r5, [pc, #720]	; (0x2a08)
    2736:	0800      	lsrs	r0, r0, #32
    2738:	4db4      	ldr	r5, [pc, #720]	; (0x2a0c)
    273a:	0800      	lsrs	r0, r0, #32
    273c:	2894      	cmp	r0, #148	; 0x94
    273e:	0800      	lsrs	r0, r0, #32
    2740:	4db4      	ldr	r5, [pc, #720]	; (0x2a14)
    2742:	0800      	lsrs	r0, r0, #32
    2744:	4db4      	ldr	r5, [pc, #720]	; (0x2a18)
    2746:	0800      	lsrs	r0, r0, #32
    2748:	2918      	cmp	r1, #24
    274a:	0800      	lsrs	r0, r0, #32
    274c:	2a38      	cmp	r2, #56	; 0x38
    274e:	0800      	lsrs	r0, r0, #32
    2750:	4db4      	ldr	r5, [pc, #720]	; (0x2a24)
    2752:	0800      	lsrs	r0, r0, #32
    2754:	2a2c      	cmp	r2, #44	; 0x2c
    2756:	0800      	lsrs	r0, r0, #32
    2758:	2a48      	cmp	r2, #72	; 0x48
    275a:	0800      	lsrs	r0, r0, #32
    275c:	4db4      	ldr	r5, [pc, #720]	; (0x2a30)
    275e:	0800      	lsrs	r0, r0, #32
    2760:	2b98      	cmp	r3, #152	; 0x98
    2762:	0800      	lsrs	r0, r0, #32
    2764:	2ba4      	cmp	r3, #164	; 0xa4
    2766:	0800      	lsrs	r0, r0, #32
    2768:	2ba4      	cmp	r3, #164	; 0xa4
    276a:	0800      	lsrs	r0, r0, #32
    276c:	2ba4      	cmp	r3, #164	; 0xa4
    276e:	0800      	lsrs	r0, r0, #32
    2770:	2ba4      	cmp	r3, #164	; 0xa4
    2772:	0800      	lsrs	r0, r0, #32
    2774:	2ba4      	cmp	r3, #164	; 0xa4
    2776:	0800      	lsrs	r0, r0, #32
    2778:	2ba4      	cmp	r3, #164	; 0xa4
    277a:	0800      	lsrs	r0, r0, #32
    277c:	2ba4      	cmp	r3, #164	; 0xa4
    277e:	0800      	lsrs	r0, r0, #32
    2780:	2ba4      	cmp	r3, #164	; 0xa4
    2782:	0800      	lsrs	r0, r0, #32
    2784:	2ba4      	cmp	r3, #164	; 0xa4
    2786:	0800      	lsrs	r0, r0, #32
    2788:	4db4      	ldr	r5, [pc, #720]	; (0x2a5c)
    278a:	0800      	lsrs	r0, r0, #32
    278c:	4db4      	ldr	r5, [pc, #720]	; (0x2a60)
    278e:	0800      	lsrs	r0, r0, #32
    2790:	4db4      	ldr	r5, [pc, #720]	; (0x2a64)
    2792:	0800      	lsrs	r0, r0, #32
    2794:	4db4      	ldr	r5, [pc, #720]	; (0x2a68)
    2796:	0800      	lsrs	r0, r0, #32
    2798:	4db4      	ldr	r5, [pc, #720]	; (0x2a6c)
    279a:	0800      	lsrs	r0, r0, #32
    279c:	4db4      	ldr	r5, [pc, #720]	; (0x2a70)
    279e:	0800      	lsrs	r0, r0, #32
    27a0:	4db4      	ldr	r5, [pc, #720]	; (0x2a74)
    27a2:	0800      	lsrs	r0, r0, #32
    27a4:	3228      	adds	r2, #40	; 0x28
    27a6:	0800      	lsrs	r0, r0, #32
    27a8:	4db4      	ldr	r5, [pc, #720]	; (0x2a7c)
    27aa:	0800      	lsrs	r0, r0, #32
    27ac:	2c40      	cmp	r4, #64	; 0x40
    27ae:	0800      	lsrs	r0, r0, #32
    27b0:	2e08      	cmp	r6, #8
    27b2:	0800      	lsrs	r0, r0, #32
    27b4:	3228      	adds	r2, #40	; 0x28
    27b6:	0800      	lsrs	r0, r0, #32
    27b8:	3228      	adds	r2, #40	; 0x28
    27ba:	0800      	lsrs	r0, r0, #32
    27bc:	3228      	adds	r2, #40	; 0x28
    27be:	0800      	lsrs	r0, r0, #32
    27c0:	4db4      	ldr	r5, [pc, #720]	; (0x2a94)
    27c2:	0800      	lsrs	r0, r0, #32
    27c4:	4db4      	ldr	r5, [pc, #720]	; (0x2a98)
    27c6:	0800      	lsrs	r0, r0, #32
    27c8:	4db4      	ldr	r5, [pc, #720]	; (0x2a9c)
    27ca:	0800      	lsrs	r0, r0, #32
    27cc:	4db4      	ldr	r5, [pc, #720]	; (0x2aa0)
    27ce:	0800      	lsrs	r0, r0, #32
    27d0:	2bf0      	cmp	r3, #240	; 0xf0
    27d2:	0800      	lsrs	r0, r0, #32
    27d4:	4db4      	ldr	r5, [pc, #720]	; (0x2aa8)
    27d6:	0800      	lsrs	r0, r0, #32
    27d8:	4db4      	ldr	r5, [pc, #720]	; (0x2aac)
    27da:	0800      	lsrs	r0, r0, #32
    27dc:	3d34      	subs	r5, #52	; 0x34
    27de:	0800      	lsrs	r0, r0, #32
    27e0:	4db4      	ldr	r5, [pc, #720]	; (0x2ab4)
    27e2:	0800      	lsrs	r0, r0, #32
    27e4:	4db4      	ldr	r5, [pc, #720]	; (0x2ab8)
    27e6:	0800      	lsrs	r0, r0, #32
    27e8:	4db4      	ldr	r5, [pc, #720]	; (0x2abc)
    27ea:	0800      	lsrs	r0, r0, #32
    27ec:	4180      	sbcs	r0, r0
    27ee:	0800      	lsrs	r0, r0, #32
    27f0:	4db4      	ldr	r5, [pc, #720]	; (0x2ac4)
    27f2:	0800      	lsrs	r0, r0, #32
    27f4:	4478      	add	r0, pc
    27f6:	0800      	lsrs	r0, r0, #32
    27f8:	4db4      	ldr	r5, [pc, #720]	; (0x2acc)
    27fa:	0800      	lsrs	r0, r0, #32
    27fc:	4db4      	ldr	r5, [pc, #720]	; (0x2ad0)
    27fe:	0800      	lsrs	r0, r0, #32
    2800:	47e0      	blx	ip
    2802:	0800      	lsrs	r0, r0, #32
    2804:	4db4      	ldr	r5, [pc, #720]	; (0x2ad8)
    2806:	0800      	lsrs	r0, r0, #32
    2808:	4db4      	ldr	r5, [pc, #720]	; (0x2adc)
    280a:	0800      	lsrs	r0, r0, #32
    280c:	4db4      	ldr	r5, [pc, #720]	; (0x2ae0)
    280e:	0800      	lsrs	r0, r0, #32
    2810:	4db4      	ldr	r5, [pc, #720]	; (0x2ae4)
    2812:	0800      	lsrs	r0, r0, #32
    2814:	4db4      	ldr	r5, [pc, #720]	; (0x2ae8)
    2816:	0800      	lsrs	r0, r0, #32
    2818:	4db4      	ldr	r5, [pc, #720]	; (0x2aec)
    281a:	0800      	lsrs	r0, r0, #32
    281c:	4db4      	ldr	r5, [pc, #720]	; (0x2af0)
    281e:	0800      	lsrs	r0, r0, #32
    2820:	4db4      	ldr	r5, [pc, #720]	; (0x2af4)
    2822:	0800      	lsrs	r0, r0, #32
    2824:	3228      	adds	r2, #40	; 0x28
    2826:	0800      	lsrs	r0, r0, #32
    2828:	4db4      	ldr	r5, [pc, #720]	; (0x2afc)
    282a:	0800      	lsrs	r0, r0, #32
    282c:	2c40      	cmp	r4, #64	; 0x40
    282e:	0800      	lsrs	r0, r0, #32
    2830:	2e24      	cmp	r6, #36	; 0x24
    2832:	0800      	lsrs	r0, r0, #32
    2834:	3228      	adds	r2, #40	; 0x28
    2836:	0800      	lsrs	r0, r0, #32
    2838:	3228      	adds	r2, #40	; 0x28
    283a:	0800      	lsrs	r0, r0, #32
    283c:	3228      	adds	r2, #40	; 0x28
    283e:	0800      	lsrs	r0, r0, #32
    2840:	2bfc      	cmp	r3, #252	; 0xfc
    2842:	0800      	lsrs	r0, r0, #32
    2844:	2e24      	cmp	r6, #36	; 0x24
    2846:	0800      	lsrs	r0, r0, #32
    2848:	2c34      	cmp	r4, #52	; 0x34
    284a:	0800      	lsrs	r0, r0, #32
    284c:	4db4      	ldr	r5, [pc, #720]	; (0x2b20)
    284e:	0800      	lsrs	r0, r0, #32
    2850:	2c18      	cmp	r4, #24
    2852:	0800      	lsrs	r0, r0, #32
    2854:	4db4      	ldr	r5, [pc, #720]	; (0x2b28)
    2856:	0800      	lsrs	r0, r0, #32
    2858:	3a34      	subs	r2, #52	; 0x34
    285a:	0800      	lsrs	r0, r0, #32
    285c:	3d50      	subs	r5, #80	; 0x50
    285e:	0800      	lsrs	r0, r0, #32
    2860:	40a0      	lsls	r0, r4
    2862:	0800      	lsrs	r0, r0, #32
    2864:	2c34      	cmp	r4, #52	; 0x34
    2866:	0800      	lsrs	r0, r0, #32
    2868:	4db4      	ldr	r5, [pc, #720]	; (0x2b3c)
    286a:	0800      	lsrs	r0, r0, #32
    286c:	4180      	sbcs	r0, r0
    286e:	0800      	lsrs	r0, r0, #32
    2870:	288c      	cmp	r0, #140	; 0x8c
    2872:	0800      	lsrs	r0, r0, #32
    2874:	4494      	add	ip, r2
    2876:	0800      	lsrs	r0, r0, #32
    2878:	4db4      	ldr	r5, [pc, #720]	; (0x2b4c)
    287a:	0800      	lsrs	r0, r0, #32
    287c:	4db4      	ldr	r5, [pc, #720]	; (0x2b50)
    287e:	0800      	lsrs	r0, r0, #32
    2880:	47fc      	blxns	pc
    2882:	0800      	lsrs	r0, r0, #32
    2884:	4db4      	ldr	r5, [pc, #720]	; (0x2b58)
    2886:	0800      	lsrs	r0, r0, #32
    2888:	288c      	cmp	r0, #140	; 0x8c
    288a:	0800      	lsrs	r0, r0, #32
    288c:	0018      	movs	r0, r3
    288e:	e58d      	b.n	0x23ac
    2890:	ff9c eaff 			; <UNDEFINED> instruction: 0xff9ceaff
    2894:	0018      	movs	r0, r3
    2896:	e58d      	b.n	0x23b4
    2898:	000b      	movs	r3, r1
    289a:	e1a0      	b.n	0x2bde
    289c:	2024      	movs	r0, #36	; 0x24
    289e:	e58d      	b.n	0x23bc
    28a0:	1453      	asrs	r3, r2, #17
    28a2:	eb00 3004 	add.w	r0, r0, r4, lsl #12
    28a6:	e590      	b.n	0x23ca
    28a8:	0003      	movs	r3, r0
    28aa:	e1a0      	b.n	0x2bee
    28ac:	3068      	adds	r0, #104	; 0x68
    28ae:	e58d      	b.n	0x23cc
    28b0:	1a29      	subs	r1, r5, r0
    28b2:	eb00 0058 	add.w	r0, r0, r8, lsr #1
    28b6:	e58d      	b.n	0x23d4
    28b8:	000b      	movs	r3, r1
    28ba:	e1a0      	b.n	0x2bfe
    28bc:	144c      	asrs	r4, r1, #17
    28be:	eb00 3008 	add.w	r0, r0, r8, lsl #12
    28c2:	e590      	b.n	0x23e6
    28c4:	3050      	adds	r0, #80	; 0x50
    28c6:	e58d      	b.n	0x23e4
    28c8:	2050      	movs	r0, #80	; 0x50
    28ca:	e59d      	b.n	0x2408
    28cc:	3058      	adds	r0, #88	; 0x58
    28ce:	e59d      	b.n	0x240c
    28d0:	0000      	movs	r0, r0
    28d2:	e353      	b.n	0x2f7c
    28d4:	0000      	movs	r0, r0
    28d6:	1352      	asrs	r2, r2, #13
    28d8:	2024      	movs	r0, #36	; 0x24
    28da:	e59d      	b.n	0x2418
    28dc:	ff89 0aff 			; <UNDEFINED> instruction: 0xff890aff
    28e0:	3050      	adds	r0, #80	; 0x50
    28e2:	e59d      	b.n	0x2420
    28e4:	3000      	adds	r0, #0
    28e6:	e5d3      	b.n	0x2490
    28e8:	0000      	movs	r0, r0
    28ea:	e353      	b.n	0x2f94
    28ec:	ab01      	add	r3, sp, #4
    28ee:	138a      	asrs	r2, r1, #14
    28f0:	ff84 eaff 			; <UNDEFINED> instruction: 0xff84eaff
    28f4:	3087      	adds	r0, #135	; 0x87
    28f6:	e5dd      	b.n	0x24b4
    28f8:	0000      	movs	r0, r0
    28fa:	e353      	b.n	0x2fa4
    28fc:	0018      	movs	r0, r3
    28fe:	e58d      	b.n	0x241c
    2900:	3020      	adds	r0, #32
    2902:	03a0      	lsls	r0, r4, #14
    2904:	004d      	lsls	r5, r1, #1
    2906:	0a00      	lsrs	r0, r0, #8
    2908:	ff7e eaff 	vpmin.u<illegal width 64>	q15, q15, <illegal reg q15.5>
    290c:	0018      	movs	r0, r3
    290e:	e58d      	b.n	0x242c
    2910:	a001      	add	r0, pc, #4	; (adr r0, 0x2918)
    2912:	e38a      	b.n	0x302a
    2914:	ff7b eaff 	vpmin.u<illegal width 64>	q15, <illegal reg q13.5>, <illegal reg q15.5>
    2918:	3000      	adds	r0, #0
    291a:	e5d2      	b.n	0x24c2
    291c:	1030      	asrs	r0, r6, #32
    291e:	e243      	b.n	0x2da8
    2920:	0009      	movs	r1, r1
    2922:	e351      	b.n	0x2fc8
    2924:	0018      	movs	r0, r3
    2926:	e58d      	b.n	0x2444
    2928:	0026      	movs	r6, r4
    292a:	8a00      	ldrh	r0, [r0, #16]
    292c:	1000      	asrs	r0, r0, #32
    292e:	e3a0      	b.n	0x3072
    2930:	4001      	ands	r1, r0
    2932:	e282      	b.n	0x2e3a
    2934:	000a      	movs	r2, r1
    2936:	e3a0      	b.n	0x307a
    2938:	3030      	adds	r0, #48	; 0x30
    293a:	e243      	b.n	0x2dc4
    293c:	3091      	adds	r0, #145	; 0x91
    293e:	e020      	b.n	0x2982
    2940:	3001      	adds	r0, #1
    2942:	e4d4      	b.n	0x22ee
    2944:	1000      	asrs	r0, r0, #32
    2946:	e1a0      	b.n	0x2c8a
    2948:	0030      	movs	r0, r6
    294a:	e243      	b.n	0x2dd4
    294c:	0009      	movs	r1, r1
    294e:	e350      	b.n	0x2ff2
    2950:	fff7 9aff 			; <UNDEFINED> instruction: 0xfff79aff
    2954:	0024      	movs	r4, r4
    2956:	e353      	b.n	0x3000
    2958:	0001      	movs	r1, r0
    295a:	0a00      	lsrs	r0, r0, #8
    295c:	7000      	strb	r0, [r0, #0]
    295e:	e3a0      	b.n	0x30a2
    2960:	ff68 eaff 	vpmin.u32	q15, q12, <illegal reg q15.5>
    2964:	0020      	movs	r0, r4
    2966:	e351      	b.n	0x300c
    2968:	0cc2      	lsrs	r2, r0, #19
    296a:	ca00      	ldmia	r2!, {}
    296c:	308c      	adds	r0, #140	; 0x8c
    296e:	e59d      	b.n	0x24ac
    2970:	1001      	asrs	r1, r0, #32
    2972:	e241      	b.n	0x2df8
    2974:	0001      	movs	r1, r0
    2976:	e153      	b.n	0x2c20
    2978:	3fba      	subs	r7, #186	; 0xba
    297a:	c28d      	stmia	r2!, {r0, r2, r3, r7}
    297c:	1181      	asrs	r1, r0, #6
    297e:	c083      	stmia	r0!, {r0, r1, r7}
    2980:	9100      	str	r1, [sp, #0]
    2982:	c511      	stmia	r5!, {r0, r4}
    2984:	000c      	movs	r4, r1
    2986:	ca00      	ldmia	r2!, {}
    2988:	3090      	adds	r0, #144	; 0x90
    298a:	e28d      	b.n	0x2ea8
    298c:	300c      	adds	r0, #12
    298e:	e58d      	b.n	0x24ac
    2990:	3f5a      	subs	r7, #90	; 0x5a
    2992:	e28d      	b.n	0x2eb0
    2994:	3008      	adds	r0, #8
    2996:	e58d      	b.n	0x24b4
    2998:	3f7a      	subs	r7, #122	; 0x7a
    299a:	e28d      	b.n	0x2eb8
    299c:	3004      	adds	r0, #4
    299e:	e58d      	b.n	0x24bc
    29a0:	308c      	adds	r0, #140	; 0x8c
    29a2:	e28d      	b.n	0x2ec0
    29a4:	3000      	adds	r0, #0
    29a6:	e58d      	b.n	0x24c4
    29a8:	2006      	movs	r0, #6
    29aa:	e1a0      	b.n	0x2cee
    29ac:	307c      	adds	r0, #124	; 0x7c
    29ae:	e28d      	b.n	0x2ecc
    29b0:	000b      	movs	r3, r1
    29b2:	e1a0      	b.n	0x2cf6
    29b4:	fd46 ebff 			; <UNDEFINED> instruction: 0xfd46ebff
    29b8:	9000      	str	r0, [sp, #0]
    29ba:	e590      	b.n	0x24de
    29bc:	2004      	movs	r0, #4
    29be:	e1a0      	b.n	0x2d02
    29c0:	1008      	asrs	r0, r1, #32
    29c2:	e1a0      	b.n	0x2d06
    29c4:	0012      	movs	r2, r2
    29c6:	ea00 308c 	and.w	r0, r0, ip, lsl #14
    29ca:	e59d      	b.n	0x2508
    29cc:	0008      	movs	r0, r1
    29ce:	e153      	b.n	0x2c78
    29d0:	3fba      	subs	r7, #186	; 0xba
    29d2:	c28d      	stmia	r2!, {r0, r2, r3, r7}
    29d4:	3185      	adds	r1, #133	; 0x85
    29d6:	c083      	stmia	r0!, {r0, r1, r7}
    29d8:	1001      	asrs	r1, r0, #32
    29da:	e288      	b.n	0x2eee
    29dc:	9100      	str	r1, [sp, #0]
    29de:	c513      	stmia	r5!, {r0, r1, r4}
    29e0:	000b      	movs	r3, r1
    29e2:	ca00      	ldmia	r2!, {}
    29e4:	001f      	movs	r7, r3
    29e6:	e353      	b.n	0x3090
    29e8:	e001      	b.n	0x29ee
    29ea:	d283      	bcs.n	0x28f4
    29ec:	007c      	lsls	r4, r7, #1
    29ee:	e59d      	b.n	0x252c
    29f0:	e08c      	b.n	0x2b0c
    29f2:	d58d      	bpl.n	0x2910
    29f4:	c004      	stmia	r0!, {r2}
    29f6:	e280      	b.n	0x2efa
    29f8:	9000      	str	r0, [sp, #0]
    29fa:	d590      	bpl.n	0x291e
    29fc:	0fba      	lsrs	r2, r7, #30
    29fe:	d28d      	bcs.n	0x291c
    2a00:	3183      	adds	r1, #131	; 0x83
    2a02:	d080      	beq.n	0x2906
    2a04:	c07c      	stmia	r0!, {r2, r3, r4, r5, r6}
    2a06:	d58d      	bpl.n	0x2924
    2a08:	9100      	str	r1, [sp, #0]
    2a0a:	d503      	bpl.n	0x2a14
    2a0c:	c07c      	stmia	r0!, {r2, r3, r4, r5, r6}
    2a0e:	c58d      	stmia	r5!, {r0, r2, r3, r7}
    2a10:	9000      	str	r0, [sp, #0]
    2a12:	c590      	stmia	r5!, {r4, r7}
    2a14:	0000      	movs	r0, r0
    2a16:	e359      	b.n	0x30cc
    2a18:	9000      	str	r0, [sp, #0]
    2a1a:	b269      	sxtb	r1, r5
    2a1c:	8001      	strh	r1, [r0, #0]
    2a1e:	b1a0      	cbz	r0, 0x2a4a
    2a20:	0002      	movs	r2, r0
    2a22:	ba00      	rev	r0, r0
    2a24:	8001      	strh	r1, [r0, #0]
    2a26:	e1a0      	b.n	0x2d6a
    2a28:	ff36 eaff 	vpmin.u<illegal width 64>	q7, q11, <illegal reg q15.5>
    2a2c:	0018      	movs	r0, r3
    2a2e:	e58d      	b.n	0x254c
    2a30:	a004      	add	r0, pc, #16	; (adr r0, 0x2a44)
    2a32:	e38a      	b.n	0x314a
    2a34:	ff33 eaff 	vpmin.u<illegal width 64>	q7, <illegal reg q9.5>, <illegal reg q15.5>
    2a38:	302b      	adds	r0, #43	; 0x2b
    2a3a:	e3a0      	b.n	0x317e
    2a3c:	0018      	movs	r0, r3
    2a3e:	e58d      	b.n	0x255c
    2a40:	3087      	adds	r0, #135	; 0x87
    2a42:	e5cd      	b.n	0x25e0
    2a44:	ff2f eaff 	vpmin.u32	q7, <illegal reg q15.5>, <illegal reg q15.5>
    2a48:	3002      	adds	r0, #2
    2a4a:	e1a0      	b.n	0x2d8e
    2a4c:	1001      	asrs	r1, r0, #32
    2a4e:	e4d3      	b.n	0x23f8
    2a50:	002a      	movs	r2, r5
    2a52:	e351      	b.n	0x30f8
    2a54:	0042      	lsls	r2, r0, #1
    2a56:	1a00      	subs	r0, r0, r0
    2a58:	0018      	movs	r0, r3
    2a5a:	e58d      	b.n	0x2578
    2a5c:	0001      	movs	r1, r0
    2a5e:	e5d2      	b.n	0x2606
    2a60:	1030      	asrs	r0, r6, #32
    2a62:	e240      	b.n	0x2ee6
    2a64:	0009      	movs	r1, r1
    2a66:	e351      	b.n	0x310c
    2a68:	0025      	movs	r5, r4
    2a6a:	8a00      	ldrh	r0, [r0, #16]
    2a6c:	1000      	asrs	r0, r0, #32
    2a6e:	e3a0      	b.n	0x31b2
    2a70:	4002      	ands	r2, r0
    2a72:	e282      	b.n	0x2f7a
    2a74:	200a      	movs	r0, #10
    2a76:	e3a0      	b.n	0x31ba
    2a78:	0030      	movs	r0, r6
    2a7a:	e240      	b.n	0x2efe
    2a7c:	0291      	lsls	r1, r2, #10
    2a7e:	e022      	b.n	0x2ac6
    2a80:	0001      	movs	r1, r0
    2a82:	e4d4      	b.n	0x242e
    2a84:	1002      	asrs	r2, r0, #32
    2a86:	e1a0      	b.n	0x2dca
    2a88:	2030      	movs	r0, #48	; 0x30
    2a8a:	e240      	b.n	0x2f0e
    2a8c:	0009      	movs	r1, r1
    2a8e:	e352      	b.n	0x3136
    2a90:	fff7 9aff 			; <UNDEFINED> instruction: 0xfff79aff
    2a94:	0024      	movs	r4, r4
    2a96:	e350      	b.n	0x313a
    2a98:	2003      	movs	r0, #3
    2a9a:	11a0      	asrs	r0, r4, #6
    2a9c:	ffae 1aff 			; <UNDEFINED> instruction: 0xffae1aff
    2aa0:	0020      	movs	r0, r4
    2aa2:	e351      	b.n	0x3148
    2aa4:	0c73      	lsrs	r3, r6, #17
    2aa6:	ca00      	ldmia	r2!, {}
    2aa8:	308c      	adds	r0, #140	; 0x8c
    2aaa:	e59d      	b.n	0x25e8
    2aac:	1001      	asrs	r1, r0, #32
    2aae:	e241      	b.n	0x2f34
    2ab0:	0001      	movs	r1, r0
    2ab2:	e153      	b.n	0x2d5c
    2ab4:	3fba      	subs	r7, #186	; 0xba
    2ab6:	c28d      	stmia	r2!, {r0, r2, r3, r7}
    2ab8:	1181      	asrs	r1, r0, #6
    2aba:	c083      	stmia	r0!, {r0, r1, r7}
    2abc:	2100      	movs	r1, #0
    2abe:	c511      	stmia	r5!, {r0, r4}
    2ac0:	000c      	movs	r4, r1
    2ac2:	ca00      	ldmia	r2!, {}
    2ac4:	3090      	adds	r0, #144	; 0x90
    2ac6:	e28d      	b.n	0x2fe4
    2ac8:	300c      	adds	r0, #12
    2aca:	e58d      	b.n	0x25e8
    2acc:	3f5a      	subs	r7, #90	; 0x5a
    2ace:	e28d      	b.n	0x2fec
    2ad0:	3008      	adds	r0, #8
    2ad2:	e58d      	b.n	0x25f0
    2ad4:	3f7a      	subs	r7, #122	; 0x7a
    2ad6:	e28d      	b.n	0x2ff4
    2ad8:	3004      	adds	r0, #4
    2ada:	e58d      	b.n	0x25f8
    2adc:	308c      	adds	r0, #140	; 0x8c
    2ade:	e28d      	b.n	0x2ffc
    2ae0:	3000      	adds	r0, #0
    2ae2:	e58d      	b.n	0x2600
    2ae4:	2006      	movs	r0, #6
    2ae6:	e1a0      	b.n	0x2e2a
    2ae8:	307c      	adds	r0, #124	; 0x7c
    2aea:	e28d      	b.n	0x3008
    2aec:	000b      	movs	r3, r1
    2aee:	e1a0      	b.n	0x2e32
    2af0:	fcf7 ebff 			; <UNDEFINED> instruction: 0xfcf7ebff
    2af4:	2000      	movs	r0, #0
    2af6:	e590      	b.n	0x261a
    2af8:	3004      	adds	r0, #4
    2afa:	e1a0      	b.n	0x2e3e
    2afc:	0008      	movs	r0, r1
    2afe:	e1a0      	b.n	0x2e42
    2b00:	0012      	movs	r2, r2
    2b02:	ea00 108c 	and.w	r0, r0, ip, lsl #6
    2b06:	e59d      	b.n	0x2644
    2b08:	0008      	movs	r0, r1
    2b0a:	e151      	b.n	0x2db0
    2b0c:	2fba      	cmp	r7, #186	; 0xba
    2b0e:	c28d      	stmia	r2!, {r0, r2, r3, r7}
    2b10:	2185      	movs	r1, #133	; 0x85
    2b12:	c082      	stmia	r0!, {r1, r7}
    2b14:	0001      	movs	r1, r0
    2b16:	e288      	b.n	0x302a
    2b18:	2100      	movs	r1, #0
    2b1a:	c512      	stmia	r5!, {r1, r4}
    2b1c:	000b      	movs	r3, r1
    2b1e:	ca00      	ldmia	r2!, {}
    2b20:	001f      	movs	r7, r3
    2b22:	e351      	b.n	0x31c8
    2b24:	207c      	movs	r0, #124	; 0x7c
    2b26:	e59d      	b.n	0x2664
    2b28:	e001      	b.n	0x2b2e
    2b2a:	d281      	bcs.n	0x2a30
    2b2c:	e08c      	b.n	0x2c48
    2b2e:	d58d      	bpl.n	0x2a4c
    2b30:	c004      	stmia	r0!, {r2}
    2b32:	e282      	b.n	0x303a
    2b34:	c07c      	stmia	r0!, {r2, r3, r4, r5, r6}
    2b36:	d58d      	bpl.n	0x2a54
    2b38:	2000      	movs	r0, #0
    2b3a:	d592      	bpl.n	0x2a62
    2b3c:	cfba      	ldmia	r7, {r1, r3, r4, r5, r7}
    2b3e:	d28d      	bcs.n	0x2a5c
    2b40:	1181      	asrs	r1, r0, #6
    2b42:	d08c      	beq.n	0x2a5e
    2b44:	2100      	movs	r1, #0
    2b46:	d501      	bpl.n	0x2b4c
    2b48:	c07c      	stmia	r0!, {r2, r3, r4, r5, r6}
    2b4a:	c58d      	stmia	r5!, {r0, r2, r3, r7}
    2b4c:	2000      	movs	r0, #0
    2b4e:	c592      	stmia	r5!, {r1, r4, r7}
    2b50:	2fc2      	cmp	r7, #194	; 0xc2
    2b52:	e182      	b.n	0x2e5a
    2b54:	2018      	movs	r0, #24
    2b56:	e58d      	b.n	0x2674
    2b58:	8000      	strh	r0, [r0, #0]
    2b5a:	e1a0      	b.n	0x2e9e
    2b5c:	2003      	movs	r0, #3
    2b5e:	e1a0      	b.n	0x2ea2
    2b60:	fee8 eaff 			; <UNDEFINED> instruction: 0xfee8eaff
    2b64:	0000      	movs	r0, r0
    2b66:	e3a0      	b.n	0x32aa
    2b68:	2030      	movs	r0, #48	; 0x30
    2b6a:	e241      	b.n	0x2ff0
    2b6c:	0009      	movs	r1, r1
    2b6e:	e352      	b.n	0x3216
    2b70:	0004      	movs	r4, r0
    2b72:	8a00      	ldrh	r0, [r0, #16]
    2b74:	100a      	asrs	r2, r1, #32
    2b76:	e3a0      	b.n	0x32ba
    2b78:	2190      	movs	r1, #144	; 0x90
    2b7a:	e021      	b.n	0x2bc0
    2b7c:	0001      	movs	r1, r0
    2b7e:	e1a0      	b.n	0x2ec2
    2b80:	1001      	asrs	r1, r0, #32
    2b82:	e4d3      	b.n	0x252c
    2b84:	fff7 eaff 			; <UNDEFINED> instruction: 0xfff7eaff
    2b88:	2009      	movs	r0, #9
    2b8a:	e1a0      	b.n	0x2ece
    2b8c:	9002      	str	r0, [sp, #8]
    2b8e:	e1a0      	b.n	0x2ed2
    2b90:	2003      	movs	r0, #3
    2b92:	e1a0      	b.n	0x2ed6
    2b94:	fedd eaff 			; <UNDEFINED> instruction: 0xfeddeaff
    2b98:	0018      	movs	r0, r3
    2b9a:	e58d      	b.n	0x26b8
    2b9c:	a080      	add	r0, pc, #512	; (adr r0, 0x2da0)
    2b9e:	e38a      	b.n	0x32b6
    2ba0:	fed8 eaff 			; <UNDEFINED> instruction: 0xfed8eaff
    2ba4:	3002      	adds	r0, #2
    2ba6:	e1a0      	b.n	0x2eea
    2ba8:	2000      	movs	r0, #0
    2baa:	e3a0      	b.n	0x32ee
    2bac:	c00a      	stmia	r0!, {r1, r3}
    2bae:	e3a0      	b.n	0x32f2
    2bb0:	1030      	asrs	r0, r6, #32
    2bb2:	e241      	b.n	0x3038
    2bb4:	1c92      	adds	r2, r2, #2
    2bb6:	e02c      	b.n	0x2c12
    2bb8:	1001      	asrs	r1, r0, #32
    2bba:	e4d3      	b.n	0x2564
    2bbc:	200c      	movs	r0, #12
    2bbe:	e1a0      	b.n	0x2f02
    2bc0:	c030      	stmia	r0!, {r4, r5}
    2bc2:	e241      	b.n	0x3048
    2bc4:	0009      	movs	r1, r1
    2bc6:	e35c      	b.n	0x3282
    2bc8:	fff7 9aff 			; <UNDEFINED> instruction: 0xfff79aff
    2bcc:	0024      	movs	r4, r4
    2bce:	e351      	b.n	0x3274
    2bd0:	ffed 1aff 			; <UNDEFINED> instruction: 0xffed1aff
    2bd4:	0020      	movs	r0, r4
    2bd6:	e352      	b.n	0x327e
    2bd8:	0018      	movs	r0, r3
    2bda:	e58d      	b.n	0x26f8
    2bdc:	0c25      	lsrs	r5, r4, #16
    2bde:	ca00      	ldmia	r2!, {}
    2be0:	5001      	str	r1, [r0, r0]
    2be2:	e242      	b.n	0x306a
    2be4:	7001      	strb	r1, [r0, #0]
    2be6:	e3a0      	b.n	0x332a
    2be8:	2003      	movs	r0, #3
    2bea:	e1a0      	b.n	0x2f2e
    2bec:	fec5 eaff 			; <UNDEFINED> instruction: 0xfec5eaff
    2bf0:	0018      	movs	r0, r3
    2bf2:	e58d      	b.n	0x2710
    2bf4:	a008      	add	r0, pc, #32	; (adr r0, 0x2c18)
    2bf6:	e38a      	b.n	0x330e
    2bf8:	fec2 eaff 			; <UNDEFINED> instruction: 0xfec2eaff
    2bfc:	3000      	adds	r0, #0
    2bfe:	e5d2      	b.n	0x27a6
    2c00:	0068      	lsls	r0, r5, #1
    2c02:	e353      	b.n	0x32ac
    2c04:	0018      	movs	r0, r3
    2c06:	e58d      	b.n	0x2724
    2c08:	2001      	movs	r0, #1
    2c0a:	0282      	lsls	r2, r0, #10
    2c0c:	ac02      	add	r4, sp, #8
    2c0e:	038a      	lsls	r2, r1, #14
    2c10:	a040      	add	r0, pc, #256	; (adr r0, 0x2d14)
    2c12:	138a      	asrs	r2, r1, #14
    2c14:	febb eaff 			; <UNDEFINED> instruction: 0xfebbeaff
    2c18:	3000      	adds	r0, #0
    2c1a:	e5d2      	b.n	0x27c2
    2c1c:	006c      	lsls	r4, r5, #1
    2c1e:	e353      	b.n	0x32c8
    2c20:	0018      	movs	r0, r3
    2c22:	e58d      	b.n	0x2740
    2c24:	2001      	movs	r0, #1
    2c26:	0282      	lsls	r2, r0, #10
    2c28:	a010      	add	r0, pc, #64	; (adr r0, 0x2c6c)
    2c2a:	138a      	asrs	r2, r1, #14
    2c2c:	feb5 1aff 			; <UNDEFINED> instruction: 0xfeb51aff
    2c30:	0000      	movs	r0, r0
    2c32:	ea00 0018 	and.w	r0, r0, r8, lsr #32
    2c36:	e58d      	b.n	0x2754
    2c38:	a020      	add	r0, pc, #128	; (adr r0, 0x2cbc)
    2c3a:	e38a      	b.n	0x3352
    2c3c:	feb1 eaff 			; <UNDEFINED> instruction: 0xfeb1eaff
    2c40:	0043      	lsls	r3, r0, #1
    2c42:	e351      	b.n	0x32e8
    2c44:	903c      	str	r0, [sp, #240]	; 0xf0
    2c46:	e58d      	b.n	0x2764
    2c48:	2044      	movs	r0, #68	; 0x44
    2c4a:	e58d      	b.n	0x2768
    2c4c:	1024      	asrs	r4, r4, #32
    2c4e:	e58d      	b.n	0x276c
    2c50:	9030      	str	r0, [sp, #192]	; 0xc0
    2c52:	e59d      	b.n	0x2790
    2c54:	3001      	adds	r0, #1
    2c56:	e1a0      	b.n	0x2f9a
    2c58:	0001      	movs	r1, r0
    2c5a:	0a00      	lsrs	r0, r0, #8
    2c5c:	0010      	movs	r0, r2
    2c5e:	e31a      	b.n	0x3296
    2c60:	0036      	movs	r6, r6
    2c62:	0a00      	lsrs	r0, r0, #8
    2c64:	2008      	movs	r0, #8
    2c66:	e3a0      	b.n	0x33aa
    2c68:	1000      	asrs	r0, r0, #32
    2c6a:	e3a0      	b.n	0x33ae
    2c6c:	00b0      	lsls	r0, r6, #2
    2c6e:	e28d      	b.n	0x318c
    2c70:	165b      	asrs	r3, r3, #25
    2c72:	eb00 0000 	add.w	r0, r0, r0
    2c76:	e357      	b.n	0x3328
    2c78:	308c      	adds	r0, #140	; 0x8c
    2c7a:	e59d      	b.n	0x27b8
    2c7c:	0014      	movs	r4, r2
    2c7e:	0a00      	lsrs	r0, r0, #8
    2c80:	0005      	movs	r5, r0
    2c82:	e153      	b.n	0x2f2c
    2c84:	3fba      	subs	r7, #186	; 0xba
    2c86:	c28d      	stmia	r2!, {r0, r2, r3, r7}
    2c88:	5185      	str	r5, [r0, r6]
    2c8a:	c083      	stmia	r0!, {r0, r1, r7}
    2c8c:	2100      	movs	r1, #0
    2c8e:	c515      	stmia	r5!, {r0, r2, r4}
    2c90:	000d      	movs	r5, r1
    2c92:	ca00      	ldmia	r2!, {}
    2c94:	3090      	adds	r0, #144	; 0x90
    2c96:	e28d      	b.n	0x31b4
    2c98:	300c      	adds	r0, #12
    2c9a:	e58d      	b.n	0x27b8
    2c9c:	3f5a      	subs	r7, #90	; 0x5a
    2c9e:	e28d      	b.n	0x31bc
    2ca0:	3008      	adds	r0, #8
    2ca2:	e58d      	b.n	0x27c0
    2ca4:	3f7a      	subs	r7, #122	; 0x7a
    2ca6:	e28d      	b.n	0x31c4
    2ca8:	3004      	adds	r0, #4
    2caa:	e58d      	b.n	0x27c8
    2cac:	308c      	adds	r0, #140	; 0x8c
    2cae:	e28d      	b.n	0x31cc
    2cb0:	3000      	adds	r0, #0
    2cb2:	e58d      	b.n	0x27d0
    2cb4:	2006      	movs	r0, #6
    2cb6:	e1a0      	b.n	0x2ffa
    2cb8:	307c      	adds	r0, #124	; 0x7c
    2cba:	e28d      	b.n	0x31d8
    2cbc:	1005      	asrs	r5, r0, #32
    2cbe:	e1a0      	b.n	0x3002
    2cc0:	000b      	movs	r3, r1
    2cc2:	e1a0      	b.n	0x3006
    2cc4:	fc82 ebff 			; <UNDEFINED> instruction: 0xfc82ebff
    2cc8:	2000      	movs	r0, #0
    2cca:	e590      	b.n	0x27ee
    2ccc:	4008      	ands	r0, r1
    2cce:	e1a0      	b.n	0x3012
    2cd0:	0011      	movs	r1, r2
    2cd2:	ea00 0008 	and.w	r0, r0, r8
    2cd6:	e153      	b.n	0x2f80
    2cd8:	3fba      	subs	r7, #186	; 0xba
    2cda:	c28d      	stmia	r2!, {r0, r2, r3, r7}
    2cdc:	5185      	str	r5, [r0, r6]
    2cde:	c083      	stmia	r0!, {r0, r1, r7}
    2ce0:	4001      	ands	r1, r0
    2ce2:	e288      	b.n	0x31f6
    2ce4:	2100      	movs	r1, #0
    2ce6:	c515      	stmia	r5!, {r0, r2, r4}
    2ce8:	000b      	movs	r3, r1
    2cea:	ca00      	ldmia	r2!, {}
    2cec:	001f      	movs	r7, r3
    2cee:	e353      	b.n	0x3398
    2cf0:	207c      	movs	r0, #124	; 0x7c
    2cf2:	e59d      	b.n	0x2830
    2cf4:	0001      	movs	r1, r0
    2cf6:	d283      	bcs.n	0x2c00
    2cf8:	008c      	lsls	r4, r1, #2
    2cfa:	d58d      	bpl.n	0x2c18
    2cfc:	1004      	asrs	r4, r0, #32
    2cfe:	e282      	b.n	0x3206
    2d00:	107c      	asrs	r4, r7, #1
    2d02:	d58d      	bpl.n	0x2c20
    2d04:	2000      	movs	r0, #0
    2d06:	d592      	bpl.n	0x2c2e
    2d08:	1fba      	subs	r2, r7, #6
    2d0a:	d28d      	bcs.n	0x2c28
    2d0c:	3183      	adds	r1, #131	; 0x83
    2d0e:	d081      	beq.n	0x2c14
    2d10:	2100      	movs	r1, #0
    2d12:	d503      	bpl.n	0x2d1c
    2d14:	107c      	asrs	r4, r7, #1
    2d16:	c58d      	stmia	r5!, {r0, r2, r3, r7}
    2d18:	2000      	movs	r0, #0
    2d1a:	c592      	stmia	r5!, {r1, r4, r7}
    2d1c:	30b0      	adds	r0, #176	; 0xb0
    2d1e:	e28d      	b.n	0x323c
    2d20:	1f41      	subs	r1, r0, #5
    2d22:	e28d      	b.n	0x3240
    2d24:	000b      	movs	r3, r1
    2d26:	e1a0      	b.n	0x306a
    2d28:	0bdc      	lsrs	r4, r3, #15
    2d2a:	eb00 0001 	add.w	r0, r0, r1
    2d2e:	e370      	b.n	0x3412
    2d30:	5000      	str	r0, [r0, r0]
    2d32:	e1a0      	b.n	0x3076
    2d34:	058e      	lsls	r6, r1, #22
    2d36:	0a00      	lsrs	r0, r0, #8
    2d38:	8004      	strh	r4, [r0, #0]
    2d3a:	e1a0      	b.n	0x307e
    2d3c:	002d      	movs	r5, r5
    2d3e:	ea00 0000 	and.w	r0, r0, r0
    2d42:	e357      	b.n	0x33f4
    2d44:	208c      	movs	r0, #140	; 0x8c
    2d46:	e59d      	b.n	0x2884
    2d48:	0014      	movs	r4, r2
    2d4a:	0a00      	lsrs	r0, r0, #8
    2d4c:	0005      	movs	r5, r0
    2d4e:	e152      	b.n	0x2ff6
    2d50:	3fba      	subs	r7, #186	; 0xba
    2d52:	c28d      	stmia	r2!, {r0, r2, r3, r7}
    2d54:	5185      	str	r5, [r0, r6]
    2d56:	c083      	stmia	r0!, {r0, r1, r7}
    2d58:	3100      	adds	r1, #0
    2d5a:	c555      	stmia	r5!, {r0, r2, r4, r6}
    2d5c:	000d      	movs	r5, r1
    2d5e:	ca00      	ldmia	r2!, {}
    2d60:	3090      	adds	r0, #144	; 0x90
    2d62:	e28d      	b.n	0x3280
    2d64:	300c      	adds	r0, #12
    2d66:	e58d      	b.n	0x2884
    2d68:	3f5a      	subs	r7, #90	; 0x5a
    2d6a:	e28d      	b.n	0x3288
    2d6c:	3008      	adds	r0, #8
    2d6e:	e58d      	b.n	0x288c
    2d70:	3f7a      	subs	r7, #122	; 0x7a
    2d72:	e28d      	b.n	0x3290
    2d74:	3004      	adds	r0, #4
    2d76:	e58d      	b.n	0x2894
    2d78:	308c      	adds	r0, #140	; 0x8c
    2d7a:	e28d      	b.n	0x3298
    2d7c:	3000      	adds	r0, #0
    2d7e:	e58d      	b.n	0x289c
    2d80:	2006      	movs	r0, #6
    2d82:	e1a0      	b.n	0x30c6
    2d84:	307c      	adds	r0, #124	; 0x7c
    2d86:	e28d      	b.n	0x32a4
    2d88:	1005      	asrs	r5, r0, #32
    2d8a:	e1a0      	b.n	0x30ce
    2d8c:	000b      	movs	r3, r1
    2d8e:	e1a0      	b.n	0x30d2
    2d90:	fc4f ebff 			; <UNDEFINED> instruction: 0xfc4febff
    2d94:	3000      	adds	r0, #0
    2d96:	e5d0      	b.n	0x293a
    2d98:	1008      	asrs	r0, r1, #32
    2d9a:	e1a0      	b.n	0x30de
    2d9c:	0012      	movs	r2, r2
    2d9e:	ea00 0008 	and.w	r0, r0, r8
    2da2:	e152      	b.n	0x304a
    2da4:	3fba      	subs	r7, #186	; 0xba
    2da6:	c28d      	stmia	r2!, {r0, r2, r3, r7}
    2da8:	5185      	str	r5, [r0, r6]
    2daa:	c083      	stmia	r0!, {r0, r1, r7}
    2dac:	1001      	asrs	r1, r0, #32
    2dae:	e288      	b.n	0x32c2
    2db0:	3100      	adds	r1, #0
    2db2:	c555      	stmia	r5!, {r0, r2, r4, r6}
    2db4:	000c      	movs	r4, r1
    2db6:	ca00      	ldmia	r2!, {}
    2db8:	001f      	movs	r7, r3
    2dba:	e352      	b.n	0x3462
    2dbc:	307c      	adds	r0, #124	; 0x7c
    2dbe:	e59d      	b.n	0x28fc
    2dc0:	c001      	stmia	r0!, {r0}
    2dc2:	d282      	bcs.n	0x2cca
    2dc4:	c08c      	stmia	r0!, {r2, r3, r7}
    2dc6:	d58d      	bpl.n	0x2ce4
    2dc8:	0004      	movs	r4, r0
    2dca:	e283      	b.n	0x32d4
    2dcc:	007c      	lsls	r4, r7, #1
    2dce:	d58d      	bpl.n	0x2cec
    2dd0:	3000      	adds	r0, #0
    2dd2:	d593      	bpl.n	0x2cfc
    2dd4:	0fba      	lsrs	r2, r7, #30
    2dd6:	d28d      	bcs.n	0x2cf4
    2dd8:	2182      	movs	r1, #130	; 0x82
    2dda:	d080      	beq.n	0x2cde
    2ddc:	007c      	lsls	r4, r7, #1
    2dde:	c58d      	stmia	r5!, {r0, r2, r3, r7}
    2de0:	3000      	adds	r0, #0
    2de2:	c5d3      	stmia	r5!, {r0, r1, r4, r6, r7}
    2de4:	3100      	adds	r1, #0
    2de6:	d502      	bpl.n	0x2dee
    2de8:	30ff      	adds	r0, #255	; 0xff
    2dea:	d203      	bcs.n	0x2df4
    2dec:	8001      	strh	r1, [r0, #0]
    2dee:	e1a0      	b.n	0x3132
    2df0:	5001      	str	r1, [r0, r0]
    2df2:	e3a0      	b.n	0x3536
    2df4:	3104      	adds	r1, #4
    2df6:	e5cd      	b.n	0x2994
    2df8:	0000      	movs	r0, r0
    2dfa:	e3a0      	b.n	0x353e
    2dfc:	0087      	lsls	r7, r0, #2
    2dfe:	e5cd      	b.n	0x299c
    2e00:	7000      	strb	r0, [r0, #0]
    2e02:	e1a0      	b.n	0x3146
    2e04:	07f5      	lsls	r5, r6, #31
    2e06:	ea00 903c 			; <UNDEFINED> instruction: 0xea00903c
    2e0a:	e58d      	b.n	0x2928
    2e0c:	2044      	movs	r0, #68	; 0x44
    2e0e:	e58d      	b.n	0x292c
    2e10:	1024      	asrs	r4, r4, #32
    2e12:	e58d      	b.n	0x2930
    2e14:	9030      	str	r0, [sp, #192]	; 0xc0
    2e16:	e59d      	b.n	0x2954
    2e18:	0018      	movs	r0, r3
    2e1a:	e58d      	b.n	0x2938
    2e1c:	a010      	add	r0, pc, #64	; (adr r0, 0x2e60)
    2e1e:	e38a      	b.n	0x3536
    2e20:	0004      	movs	r4, r0
    2e22:	ea00 903c 			; <UNDEFINED> instruction: 0xea00903c
    2e26:	e58d      	b.n	0x2944
    2e28:	2044      	movs	r0, #68	; 0x44
    2e2a:	e58d      	b.n	0x2948
    2e2c:	1024      	asrs	r4, r4, #32
    2e2e:	e58d      	b.n	0x294c
    2e30:	9030      	str	r0, [sp, #192]	; 0xc0
    2e32:	e59d      	b.n	0x2970
    2e34:	0018      	movs	r0, r3
    2e36:	e58d      	b.n	0x2954
    2e38:	0020      	movs	r0, r4
    2e3a:	e31a      	b.n	0x3472
    2e3c:	308c      	adds	r0, #140	; 0x8c
    2e3e:	e59d      	b.n	0x297c
    2e40:	0037      	movs	r7, r6
    2e42:	0a00      	lsrs	r0, r0, #8
    2e44:	0000      	movs	r0, r0
    2e46:	e357      	b.n	0x34f8
    2e48:	0017      	movs	r7, r2
    2e4a:	0a00      	lsrs	r0, r0, #8
    2e4c:	0003      	movs	r3, r0
    2e4e:	e155      	b.n	0x30fc
    2e50:	0004      	movs	r4, r0
    2e52:	aa00      	add	r2, sp, #0
    2e54:	3fba      	subs	r7, #186	; 0xba
    2e56:	e28d      	b.n	0x3374
    2e58:	5185      	str	r5, [r0, r6]
    2e5a:	e083      	b.n	0x2f64
    2e5c:	e100      	b.n	0x3060
    2e5e:	e515      	b.n	0x288c
    2e60:	20fc      	movs	r0, #252	; 0xfc
    2e62:	e515      	b.n	0x2890
    2e64:	000e      	movs	r6, r1
    2e66:	ea00 3090 	and.w	r0, r0, r0, lsr #14
    2e6a:	e28d      	b.n	0x3388
    2e6c:	300c      	adds	r0, #12
    2e6e:	e58d      	b.n	0x298c
    2e70:	3f5a      	subs	r7, #90	; 0x5a
    2e72:	e28d      	b.n	0x3390
    2e74:	3008      	adds	r0, #8
    2e76:	e58d      	b.n	0x2994
    2e78:	3f7a      	subs	r7, #122	; 0x7a
    2e7a:	e28d      	b.n	0x3398
    2e7c:	3004      	adds	r0, #4
    2e7e:	e58d      	b.n	0x299c
    2e80:	308c      	adds	r0, #140	; 0x8c
    2e82:	e28d      	b.n	0x33a0
    2e84:	3000      	adds	r0, #0
    2e86:	e58d      	b.n	0x29a4
    2e88:	2006      	movs	r0, #6
    2e8a:	e1a0      	b.n	0x31ce
    2e8c:	307c      	adds	r0, #124	; 0x7c
    2e8e:	e28d      	b.n	0x33ac
    2e90:	1005      	asrs	r5, r0, #32
    2e92:	e1a0      	b.n	0x31d6
    2e94:	000b      	movs	r3, r1
    2e96:	e1a0      	b.n	0x31da
    2e98:	fc0d ebff 			; <UNDEFINED> instruction: 0xfc0debff
    2e9c:	e000      	b.n	0x2ea0
    2e9e:	e590      	b.n	0x29c2
    2ea0:	2004      	movs	r0, #4
    2ea2:	e590      	b.n	0x29c6
    2ea4:	c008      	stmia	r0!, {r3}
    2ea6:	e1a0      	b.n	0x31ea
    2ea8:	0019      	movs	r1, r3
    2eaa:	ea00 0003 	and.w	r0, r0, r3
    2eae:	e158      	b.n	0x3162
    2eb0:	c001      	stmia	r0!, {r0}
    2eb2:	e288      	b.n	0x33c6
    2eb4:	0004      	movs	r4, r0
    2eb6:	aa00      	add	r2, sp, #0
    2eb8:	3fba      	subs	r7, #186	; 0xba
    2eba:	e28d      	b.n	0x33d8
    2ebc:	5185      	str	r5, [r0, r6]
    2ebe:	e083      	b.n	0x2fc8
    2ec0:	e100      	b.n	0x30c4
    2ec2:	e515      	b.n	0x28f0
    2ec4:	20fc      	movs	r0, #252	; 0xfc
    2ec6:	e515      	b.n	0x28f4
    2ec8:	0011      	movs	r1, r2
    2eca:	ea00 207c 	and.w	r0, r0, ip, ror #9
    2ece:	e59d      	b.n	0x2a0c
    2ed0:	2007      	movs	r0, #7
    2ed2:	e282      	b.n	0x33da
    2ed4:	2007      	movs	r0, #7
    2ed6:	e3c2      	b.n	0x365e
    2ed8:	0003      	movs	r3, r0
    2eda:	e8b2 001f 	ldmia.w	r2!, {r0, r1, r2, r3, r4}
    2ede:	e353      	b.n	0x3588
    2ee0:	207c      	movs	r0, #124	; 0x7c
    2ee2:	c58d      	stmia	r5!, {r0, r2, r3, r7}
    2ee4:	e000      	b.n	0x2ee8
    2ee6:	c1a0      	stmia	r1!, {r5, r7}
    2ee8:	2001      	movs	r0, #1
    2eea:	c1a0      	stmia	r1!, {r5, r7}
    2eec:	0008      	movs	r0, r1
    2eee:	ca00      	ldmia	r2!, {}
    2ef0:	e001      	b.n	0x2ef6
    2ef2:	e283      	b.n	0x33fc
    2ef4:	e08c      	b.n	0x3010
    2ef6:	e58d      	b.n	0x2a14
    2ef8:	207c      	movs	r0, #124	; 0x7c
    2efa:	e58d      	b.n	0x2a18
    2efc:	e000      	b.n	0x2f00
    2efe:	e1a0      	b.n	0x3242
    2f00:	2001      	movs	r0, #1
    2f02:	e1a0      	b.n	0x3246
    2f04:	1fba      	subs	r2, r7, #6
    2f06:	e28d      	b.n	0x3424
    2f08:	3183      	adds	r1, #131	; 0x83
    2f0a:	e081      	b.n	0x3010
    2f0c:	e100      	b.n	0x3110
    2f0e:	e503      	b.n	0x2918
    2f10:	20fc      	movs	r0, #252	; 0xfc
    2f12:	e503      	b.n	0x291c
    2f14:	400e      	ands	r6, r1
    2f16:	e1a0      	b.n	0x325a
    2f18:	5002      	str	r2, [r0, r0]
    2f1a:	e1a0      	b.n	0x325e
    2f1c:	800c      	strh	r4, [r1, #0]
    2f1e:	e1a0      	b.n	0x3262
    2f20:	00b8      	lsls	r0, r7, #2
    2f22:	ea00 0010 	and.w	r0, r0, r0, lsr #32
    2f26:	e31a      	b.n	0x355e
    2f28:	0029      	movs	r1, r5
    2f2a:	0a00      	lsrs	r0, r0, #8
    2f2c:	0000      	movs	r0, r0
    2f2e:	e357      	b.n	0x35e0
    2f30:	0014      	movs	r4, r2
    2f32:	0a00      	lsrs	r0, r0, #8
    2f34:	0003      	movs	r3, r0
    2f36:	e155      	b.n	0x31e4
    2f38:	3fba      	subs	r7, #186	; 0xba
    2f3a:	b28d      	uxth	r5, r1
    2f3c:	5185      	str	r5, [r0, r6]
    2f3e:	b083      	sub	sp, #12
    2f40:	4100      	asrs	r0, r0
    2f42:	b515      	push	{r0, r2, r4, lr}
    2f44:	000d      	movs	r5, r1
    2f46:	ba00      	rev	r0, r0
    2f48:	3090      	adds	r0, #144	; 0x90
    2f4a:	e28d      	b.n	0x3468
    2f4c:	300c      	adds	r0, #12
    2f4e:	e58d      	b.n	0x2a6c
    2f50:	3f5a      	subs	r7, #90	; 0x5a
    2f52:	e28d      	b.n	0x3470
    2f54:	3008      	adds	r0, #8
    2f56:	e58d      	b.n	0x2a74
    2f58:	3f7a      	subs	r7, #122	; 0x7a
    2f5a:	e28d      	b.n	0x3478
    2f5c:	3004      	adds	r0, #4
    2f5e:	e58d      	b.n	0x2a7c
    2f60:	308c      	adds	r0, #140	; 0x8c
    2f62:	e28d      	b.n	0x3480
    2f64:	3000      	adds	r0, #0
    2f66:	e58d      	b.n	0x2a84
    2f68:	2006      	movs	r0, #6
    2f6a:	e1a0      	b.n	0x32ae
    2f6c:	307c      	adds	r0, #124	; 0x7c
    2f6e:	e28d      	b.n	0x348c
    2f70:	1005      	asrs	r5, r0, #32
    2f72:	e1a0      	b.n	0x32b6
    2f74:	000b      	movs	r3, r1
    2f76:	e1a0      	b.n	0x32ba
    2f78:	fbd5 ebff 			; <UNDEFINED> instruction: 0xfbd5ebff
    2f7c:	4000      	ands	r0, r0
    2f7e:	e590      	b.n	0x2aa2
    2f80:	1008      	asrs	r0, r1, #32
    2f82:	e1a0      	b.n	0x32c6
    2f84:	000f      	movs	r7, r1
    2f86:	ea00 0003 	and.w	r0, r0, r3
    2f8a:	e158      	b.n	0x323e
    2f8c:	3fba      	subs	r7, #186	; 0xba
    2f8e:	b28d      	uxth	r5, r1
    2f90:	5185      	str	r5, [r0, r6]
    2f92:	b083      	sub	sp, #12
    2f94:	1001      	asrs	r1, r0, #32
    2f96:	e288      	b.n	0x34aa
    2f98:	4100      	asrs	r0, r0
    2f9a:	b515      	push	{r0, r2, r4, lr}
    2f9c:	0009      	movs	r1, r1
    2f9e:	ba00      	rev	r0, r0
    2fa0:	207c      	movs	r0, #124	; 0x7c
    2fa2:	e59d      	b.n	0x2ae0
    2fa4:	4004      	ands	r4, r0
    2fa6:	e492      	b.n	0x28ce
    2fa8:	001f      	movs	r7, r3
    2faa:	e353      	b.n	0x3654
    2fac:	207c      	movs	r0, #124	; 0x7c
    2fae:	d58d      	bpl.n	0x2ecc
    2fb0:	2fba      	cmp	r7, #186	; 0xba
    2fb2:	d28d      	bcs.n	0x2ed0
    2fb4:	0001      	movs	r1, r0
    2fb6:	d283      	bcs.n	0x2ec0
    2fb8:	3183      	adds	r1, #131	; 0x83
    2fba:	d082      	beq.n	0x2ec2
    2fbc:	008c      	lsls	r4, r1, #2
    2fbe:	d58d      	bpl.n	0x2edc
    2fc0:	4100      	asrs	r0, r0
    2fc2:	d503      	bpl.n	0x2fcc
    2fc4:	207c      	movs	r0, #124	; 0x7c
    2fc6:	c58d      	stmia	r5!, {r0, r2, r3, r7}
    2fc8:	5fc4      	ldrsh	r4, [r0, r7]
    2fca:	e1a0      	b.n	0x330e
    2fcc:	8001      	strh	r1, [r0, #0]
    2fce:	e1a0      	b.n	0x3312
    2fd0:	008c      	lsls	r4, r1, #2
    2fd2:	ea00 0040 	and.w	r0, r0, r0, lsl #1
    2fd6:	e31a      	b.n	0x360e
    2fd8:	002e      	movs	r6, r5
    2fda:	0a00      	lsrs	r0, r0, #8
    2fdc:	0000      	movs	r0, r0
    2fde:	e357      	b.n	0x3690
    2fe0:	0016      	movs	r6, r2
    2fe2:	0a00      	lsrs	r0, r0, #8
    2fe4:	0003      	movs	r3, r0
    2fe6:	e155      	b.n	0x3294
    2fe8:	0005      	movs	r5, r0
    2fea:	aa00      	add	r2, sp, #0
    2fec:	3fba      	subs	r7, #186	; 0xba
    2fee:	e28d      	b.n	0x350c
    2ff0:	5185      	str	r5, [r0, r6]
    2ff2:	e083      	b.n	0x30fc
    2ff4:	4100      	asrs	r0, r0
    2ff6:	e515      	b.n	0x2a24
    2ff8:	4804      	ldr	r0, [pc, #16]	; (0x300c)
    2ffa:	e1a0      	b.n	0x333e
    2ffc:	4844      	ldr	r0, [pc, #272]	; (0x3110)
    2ffe:	e1a0      	b.n	0x3342
    3000:	006a      	lsls	r2, r5, #1
    3002:	ea00 3090 	and.w	r0, r0, r0, lsr #14
    3006:	e28d      	b.n	0x3524
    3008:	300c      	adds	r0, #12
    300a:	e58d      	b.n	0x2b28
    300c:	3f5a      	subs	r7, #90	; 0x5a
    300e:	e28d      	b.n	0x352c
    3010:	3008      	adds	r0, #8
    3012:	e58d      	b.n	0x2b30
    3014:	3f7a      	subs	r7, #122	; 0x7a
    3016:	e28d      	b.n	0x3534
    3018:	3004      	adds	r0, #4
    301a:	e58d      	b.n	0x2b38
    301c:	308c      	adds	r0, #140	; 0x8c
    301e:	e28d      	b.n	0x353c
    3020:	3000      	adds	r0, #0
    3022:	e58d      	b.n	0x2b40
    3024:	2006      	movs	r0, #6
    3026:	e1a0      	b.n	0x336a
    3028:	307c      	adds	r0, #124	; 0x7c
    302a:	e28d      	b.n	0x3548
    302c:	1005      	asrs	r5, r0, #32
    302e:	e1a0      	b.n	0x3372
    3030:	000b      	movs	r3, r1
    3032:	e1a0      	b.n	0x3376
    3034:	fba6 ebff 			; <UNDEFINED> instruction: 0xfba6ebff
    3038:	40f0      	lsrs	r0, r6
    303a:	e1d0      	b.n	0x33de
    303c:	005b      	lsls	r3, r3, #1
    303e:	ea00 0003 	and.w	r0, r0, r3
    3042:	e158      	b.n	0x32f6
    3044:	3fba      	subs	r7, #186	; 0xba
    3046:	b28d      	uxth	r5, r1
    3048:	5185      	str	r5, [r0, r6]
    304a:	b083      	sub	sp, #12
    304c:	2001      	movs	r0, #1
    304e:	e288      	b.n	0x3562
    3050:	4100      	asrs	r0, r0
    3052:	b515      	push	{r0, r2, r4, lr}
    3054:	000c      	movs	r4, r1
    3056:	ba00      	rev	r0, r0
    3058:	107c      	asrs	r4, r7, #1
    305a:	e59d      	b.n	0x2b98
    305c:	001f      	movs	r7, r3
    305e:	e353      	b.n	0x3708
    3060:	0004      	movs	r4, r0
    3062:	e281      	b.n	0x3568
    3064:	007c      	lsls	r4, r7, #1
    3066:	c58d      	stmia	r5!, {r0, r2, r3, r7}
    3068:	40f0      	lsrs	r0, r6
    306a:	c1d1      	stmia	r1!, {r0, r4, r6, r7}
    306c:	0063      	lsls	r3, r4, #1
    306e:	ca00      	ldmia	r2!, {}
    3070:	c001      	stmia	r0!, {r0}
    3072:	e283      	b.n	0x357c
    3074:	c08c      	stmia	r0!, {r2, r3, r7}
    3076:	e58d      	b.n	0x2b94
    3078:	4000      	ands	r0, r0
    307a:	e591      	b.n	0x2ba0
    307c:	1fba      	subs	r2, r7, #6
    307e:	e28d      	b.n	0x359c
    3080:	3183      	adds	r1, #131	; 0x83
    3082:	e081      	b.n	0x3188
    3084:	007c      	lsls	r4, r7, #1
    3086:	e58d      	b.n	0x2ba4
    3088:	4100      	asrs	r0, r0
    308a:	e503      	b.n	0x2a94
    308c:	4804      	ldr	r0, [pc, #16]	; (0x30a0)
    308e:	e1a0      	b.n	0x33d2
    3090:	4844      	ldr	r0, [pc, #272]	; (0x31a4)
    3092:	e1a0      	b.n	0x33d6
    3094:	0059      	lsls	r1, r3, #1
    3096:	ea00 0c02 	and.w	ip, r0, r2
    309a:	e31a      	b.n	0x36d2
    309c:	002e      	movs	r6, r5
    309e:	0a00      	lsrs	r0, r0, #8
    30a0:	0000      	movs	r0, r0
    30a2:	e357      	b.n	0x3754
    30a4:	0016      	movs	r6, r2
    30a6:	0a00      	lsrs	r0, r0, #8
    30a8:	0003      	movs	r3, r0
    30aa:	e155      	b.n	0x3358
    30ac:	0005      	movs	r5, r0
    30ae:	aa00      	add	r2, sp, #0
    30b0:	3fba      	subs	r7, #186	; 0xba
    30b2:	e28d      	b.n	0x35d0
    30b4:	5185      	str	r5, [r0, r6]
    30b6:	e083      	b.n	0x31c0
    30b8:	4100      	asrs	r0, r0
    30ba:	e515      	b.n	0x2ae8
    30bc:	4c04      	ldr	r4, [pc, #16]	; (0x30d0)
    30be:	e1a0      	b.n	0x3402
    30c0:	4c44      	ldr	r4, [pc, #272]	; (0x31d4)
    30c2:	e1a0      	b.n	0x3406
    30c4:	0039      	movs	r1, r7
    30c6:	ea00 3090 	and.w	r0, r0, r0, lsr #14
    30ca:	e28d      	b.n	0x35e8
    30cc:	300c      	adds	r0, #12
    30ce:	e58d      	b.n	0x2bec
    30d0:	3f5a      	subs	r7, #90	; 0x5a
    30d2:	e28d      	b.n	0x35f0
    30d4:	3008      	adds	r0, #8
    30d6:	e58d      	b.n	0x2bf4
    30d8:	3f7a      	subs	r7, #122	; 0x7a
    30da:	e28d      	b.n	0x35f8
    30dc:	3004      	adds	r0, #4
    30de:	e58d      	b.n	0x2bfc
    30e0:	308c      	adds	r0, #140	; 0x8c
    30e2:	e28d      	b.n	0x3600
    30e4:	3000      	adds	r0, #0
    30e6:	e58d      	b.n	0x2c04
    30e8:	2006      	movs	r0, #6
    30ea:	e1a0      	b.n	0x342e
    30ec:	307c      	adds	r0, #124	; 0x7c
    30ee:	e28d      	b.n	0x360c
    30f0:	1005      	asrs	r5, r0, #32
    30f2:	e1a0      	b.n	0x3436
    30f4:	000b      	movs	r3, r1
    30f6:	e1a0      	b.n	0x343a
    30f8:	fb75 ebff 			; <UNDEFINED> instruction: 0xfb75ebff
    30fc:	40d0      	lsrs	r0, r2
    30fe:	e1d0      	b.n	0x34a2
    3100:	002a      	movs	r2, r5
    3102:	ea00 0003 	and.w	r0, r0, r3
    3106:	e158      	b.n	0x33ba
    3108:	3fba      	subs	r7, #186	; 0xba
    310a:	b28d      	uxth	r5, r1
    310c:	5185      	str	r5, [r0, r6]
    310e:	b083      	sub	sp, #12
    3110:	2001      	movs	r0, #1
    3112:	e288      	b.n	0x3626
    3114:	4100      	asrs	r0, r0
    3116:	b515      	push	{r0, r2, r4, lr}
    3118:	000c      	movs	r4, r1
    311a:	ba00      	rev	r0, r0
    311c:	107c      	asrs	r4, r7, #1
    311e:	e59d      	b.n	0x2c5c
    3120:	001f      	movs	r7, r3
    3122:	e353      	b.n	0x37cc
    3124:	0004      	movs	r4, r0
    3126:	e281      	b.n	0x362c
    3128:	007c      	lsls	r4, r7, #1
    312a:	c58d      	stmia	r5!, {r0, r2, r3, r7}
    312c:	40d0      	lsrs	r0, r2
    312e:	c1d1      	stmia	r1!, {r0, r4, r6, r7}
    3130:	0032      	movs	r2, r6
    3132:	ca00      	ldmia	r2!, {}
    3134:	c001      	stmia	r0!, {r0}
    3136:	e283      	b.n	0x3640
    3138:	c08c      	stmia	r0!, {r2, r3, r7}
    313a:	e58d      	b.n	0x2c58
    313c:	4000      	ands	r0, r0
    313e:	e591      	b.n	0x2c64
    3140:	1fba      	subs	r2, r7, #6
    3142:	e28d      	b.n	0x3660
    3144:	3183      	adds	r1, #131	; 0x83
    3146:	e081      	b.n	0x324c
    3148:	007c      	lsls	r4, r7, #1
    314a:	e58d      	b.n	0x2c68
    314c:	4100      	asrs	r0, r0
    314e:	e503      	b.n	0x2b58
    3150:	4c04      	ldr	r4, [pc, #16]	; (0x3164)
    3152:	e1a0      	b.n	0x3496
    3154:	4c44      	ldr	r4, [pc, #272]	; (0x3268)
    3156:	e1a0      	b.n	0x349a
    3158:	0028      	movs	r0, r5
    315a:	ea00 0000 	and.w	r0, r0, r0
    315e:	e357      	b.n	0x3810
    3160:	0014      	movs	r4, r2
    3162:	0a00      	lsrs	r0, r0, #8
    3164:	0003      	movs	r3, r0
    3166:	e155      	b.n	0x3414
    3168:	3fba      	subs	r7, #186	; 0xba
    316a:	b28d      	uxth	r5, r1
    316c:	5185      	str	r5, [r0, r6]
    316e:	b083      	sub	sp, #12
    3170:	4100      	asrs	r0, r0
    3172:	b515      	push	{r0, r2, r4, lr}
    3174:	000d      	movs	r5, r1
    3176:	ba00      	rev	r0, r0
    3178:	3090      	adds	r0, #144	; 0x90
    317a:	e28d      	b.n	0x3698
    317c:	300c      	adds	r0, #12
    317e:	e58d      	b.n	0x2c9c
    3180:	3f5a      	subs	r7, #90	; 0x5a
    3182:	e28d      	b.n	0x36a0
    3184:	3008      	adds	r0, #8
    3186:	e58d      	b.n	0x2ca4
    3188:	3f7a      	subs	r7, #122	; 0x7a
    318a:	e28d      	b.n	0x36a8
    318c:	3004      	adds	r0, #4
    318e:	e58d      	b.n	0x2cac
    3190:	308c      	adds	r0, #140	; 0x8c
    3192:	e28d      	b.n	0x36b0
    3194:	3000      	adds	r0, #0
    3196:	e58d      	b.n	0x2cb4
    3198:	2006      	movs	r0, #6
    319a:	e1a0      	b.n	0x34de
    319c:	307c      	adds	r0, #124	; 0x7c
    319e:	e28d      	b.n	0x36bc
    31a0:	1005      	asrs	r5, r0, #32
    31a2:	e1a0      	b.n	0x34e6
    31a4:	000b      	movs	r3, r1
    31a6:	e1a0      	b.n	0x34ea
    31a8:	fb49 ebff 			; <UNDEFINED> instruction: 0xfb49ebff
    31ac:	4000      	ands	r0, r0
    31ae:	e590      	b.n	0x2cd2
    31b0:	2008      	movs	r0, #8
    31b2:	e1a0      	b.n	0x34f6
    31b4:	0011      	movs	r1, r2
    31b6:	ea00 0003 	and.w	r0, r0, r3
    31ba:	e158      	b.n	0x346e
    31bc:	3fba      	subs	r7, #186	; 0xba
    31be:	b28d      	uxth	r5, r1
    31c0:	5185      	str	r5, [r0, r6]
    31c2:	b083      	sub	sp, #12
    31c4:	2001      	movs	r0, #1
    31c6:	e288      	b.n	0x36da
    31c8:	4100      	asrs	r0, r0
    31ca:	b515      	push	{r0, r2, r4, lr}
    31cc:	000b      	movs	r3, r1
    31ce:	ba00      	rev	r0, r0
    31d0:	001f      	movs	r7, r3
    31d2:	e353      	b.n	0x387c
    31d4:	c001      	stmia	r0!, {r0}
    31d6:	d283      	bcs.n	0x30e0
    31d8:	107c      	asrs	r4, r7, #1
    31da:	e59d      	b.n	0x2d18
    31dc:	c08c      	stmia	r0!, {r2, r3, r7}
    31de:	d58d      	bpl.n	0x30fc
    31e0:	0004      	movs	r4, r0
    31e2:	e281      	b.n	0x36e8
    31e4:	4000      	ands	r0, r0
    31e6:	d591      	bpl.n	0x310c
    31e8:	1fba      	subs	r2, r7, #6
    31ea:	d28d      	bcs.n	0x3108
    31ec:	3183      	adds	r1, #131	; 0x83
    31ee:	d081      	beq.n	0x30f4
    31f0:	007c      	lsls	r4, r7, #1
    31f2:	d58d      	bpl.n	0x3110
    31f4:	4100      	asrs	r0, r0
    31f6:	d503      	bpl.n	0x3200
    31f8:	007c      	lsls	r4, r7, #1
    31fa:	c58d      	stmia	r5!, {r0, r2, r3, r7}
    31fc:	4000      	ands	r0, r0
    31fe:	c591      	stmia	r5!, {r0, r4, r7}
    3200:	8002      	strh	r2, [r0, #0]
    3202:	e1a0      	b.n	0x3546
    3204:	5fc4      	ldrsh	r4, [r0, r7]
    3206:	e1a0      	b.n	0x354a
    3208:	0000      	movs	r0, r0
    320a:	e354      	b.n	0x38b6
    320c:	3000      	adds	r0, #0
    320e:	e2d5      	b.n	0x37bc
    3210:	065b      	lsls	r3, r3, #25
    3212:	aa00      	add	r2, sp, #0
    3214:	302d      	adds	r0, #45	; 0x2d
    3216:	e3a0      	b.n	0x395a
    3218:	4000      	ands	r0, r0
    321a:	e274      	b.n	0x3706
    321c:	5000      	str	r0, [r0, r0]
    321e:	e2e5      	b.n	0x37ec
    3220:	3087      	adds	r0, #135	; 0x87
    3222:	e5cd      	b.n	0x2dc0
    3224:	0656      	lsls	r6, r2, #25
    3226:	ea00 0000 	and.w	r0, r0, r0
    322a:	e357      	b.n	0x38dc
    322c:	903c      	str	r0, [sp, #240]	; 0xf0
    322e:	e58d      	b.n	0x2d4c
    3230:	2044      	movs	r0, #68	; 0x44
    3232:	e58d      	b.n	0x2d50
    3234:	1024      	asrs	r4, r4, #32
    3236:	e58d      	b.n	0x2d54
    3238:	9030      	str	r0, [sp, #192]	; 0xc0
    323a:	e59d      	b.n	0x2d78
    323c:	0018      	movs	r0, r3
    323e:	e58d      	b.n	0x2d5c
    3240:	308c      	adds	r0, #140	; 0x8c
    3242:	e59d      	b.n	0x2d80
    3244:	0019      	movs	r1, r3
    3246:	0a00      	lsrs	r0, r0, #8
    3248:	0003      	movs	r3, r0
    324a:	e155      	b.n	0x34f8
    324c:	0006      	movs	r6, r0
    324e:	aa00      	add	r2, sp, #0
    3250:	3fba      	subs	r7, #186	; 0xba
    3252:	e28d      	b.n	0x3770
    3254:	5185      	str	r5, [r0, r6]
    3256:	e083      	b.n	0x3360
    3258:	3100      	adds	r1, #0
    325a:	e515      	b.n	0x2c88
    325c:	3040      	adds	r0, #64	; 0x40
    325e:	e58d      	b.n	0x2d7c
    3260:	30fc      	adds	r0, #252	; 0xfc
    3262:	e515      	b.n	0x2c90
    3264:	3038      	adds	r0, #56	; 0x38
    3266:	e58d      	b.n	0x2d84
    3268:	002f      	movs	r7, r5
    326a:	ea00 3090 	and.w	r0, r0, r0, lsr #14
    326e:	e28d      	b.n	0x378c
    3270:	300c      	adds	r0, #12
    3272:	e58d      	b.n	0x2d90
    3274:	3f5a      	subs	r7, #90	; 0x5a
    3276:	e28d      	b.n	0x3794
    3278:	3008      	adds	r0, #8
    327a:	e58d      	b.n	0x2d98
    327c:	3f7a      	subs	r7, #122	; 0x7a
    327e:	e28d      	b.n	0x379c
    3280:	3004      	adds	r0, #4
    3282:	e58d      	b.n	0x2da0
    3284:	308c      	adds	r0, #140	; 0x8c
    3286:	e28d      	b.n	0x37a4
    3288:	3000      	adds	r0, #0
    328a:	e58d      	b.n	0x2da8
    328c:	2006      	movs	r0, #6
    328e:	e1a0      	b.n	0x35d2
    3290:	307c      	adds	r0, #124	; 0x7c
    3292:	e28d      	b.n	0x37b0
    3294:	1005      	asrs	r5, r0, #32
    3296:	e1a0      	b.n	0x35da
    3298:	000b      	movs	r3, r1
    329a:	e1a0      	b.n	0x35de
    329c:	fb0c ebff 			; <UNDEFINED> instruction: 0xfb0cebff
    32a0:	3000      	adds	r0, #0
    32a2:	e590      	b.n	0x2dc6
    32a4:	3040      	adds	r0, #64	; 0x40
    32a6:	e58d      	b.n	0x2dc4
    32a8:	3004      	adds	r0, #4
    32aa:	e590      	b.n	0x2dce
    32ac:	ffec eaff 			; <UNDEFINED> instruction: 0xffeceaff
    32b0:	0003      	movs	r3, r0
    32b2:	e158      	b.n	0x3566
    32b4:	c001      	stmia	r0!, {r0}
    32b6:	e288      	b.n	0x37ca
    32b8:	0006      	movs	r6, r0
    32ba:	aa00      	add	r2, sp, #0
    32bc:	3fba      	subs	r7, #186	; 0xba
    32be:	e28d      	b.n	0x37dc
    32c0:	5185      	str	r5, [r0, r6]
    32c2:	e083      	b.n	0x33cc
    32c4:	3100      	adds	r1, #0
    32c6:	e515      	b.n	0x2cf4
    32c8:	3040      	adds	r0, #64	; 0x40
    32ca:	e58d      	b.n	0x2de8
    32cc:	30fc      	adds	r0, #252	; 0xfc
    32ce:	e515      	b.n	0x2cfc
    32d0:	3038      	adds	r0, #56	; 0x38
    32d2:	e58d      	b.n	0x2df0
    32d4:	0013      	movs	r3, r2
    32d6:	ea00 207c 	and.w	r0, r0, ip, ror #9
    32da:	e59d      	b.n	0x2e18
    32dc:	2007      	movs	r0, #7
    32de:	e282      	b.n	0x37e6
    32e0:	2007      	movs	r0, #7
    32e2:	e3c2      	b.n	0x3a6a
    32e4:	0003      	movs	r3, r0
    32e6:	e8b2 001f 	ldmia.w	r2!, {r0, r1, r2, r3, r4}
    32ea:	e353      	b.n	0x3994
    32ec:	207c      	movs	r0, #124	; 0x7c
    32ee:	c58d      	stmia	r5!, {r0, r2, r3, r7}
    32f0:	0040      	lsls	r0, r0, #1
    32f2:	c58d      	stmia	r5!, {r0, r2, r3, r7}
    32f4:	1038      	asrs	r0, r7, #32
    32f6:	c58d      	stmia	r5!, {r0, r2, r3, r7}
    32f8:	000a      	movs	r2, r1
    32fa:	ca00      	ldmia	r2!, {}
    32fc:	207c      	movs	r0, #124	; 0x7c
    32fe:	e58d      	b.n	0x2e1c
    3300:	2fba      	cmp	r7, #186	; 0xba
    3302:	e28d      	b.n	0x3820
    3304:	1038      	asrs	r0, r7, #32
    3306:	e58d      	b.n	0x2e24
    3308:	1183      	asrs	r3, r0, #6
    330a:	e082      	b.n	0x3412
    330c:	2000      	movs	r0, #0
    330e:	e1a0      	b.n	0x3652
    3310:	e001      	b.n	0x3316
    3312:	e283      	b.n	0x381c
    3314:	3038      	adds	r0, #56	; 0x38
    3316:	e59d      	b.n	0x2e54
    3318:	e08c      	b.n	0x3434
    331a:	e58d      	b.n	0x2e38
    331c:	0040      	lsls	r0, r0, #1
    331e:	e58d      	b.n	0x2e3c
    3320:	2100      	movs	r1, #0
    3322:	e501      	b.n	0x2d28
    3324:	30fc      	adds	r0, #252	; 0xfc
    3326:	e501      	b.n	0x2d2c
    3328:	800c      	strh	r4, [r1, #0]
    332a:	e1a0      	b.n	0x366e
    332c:	3038      	adds	r0, #56	; 0x38
    332e:	e59d      	b.n	0x2e6c
    3330:	5040      	str	r0, [r0, r1]
    3332:	e59d      	b.n	0x2e70
    3334:	4102      	asrs	r2, r0
    3336:	e3c3      	b.n	0x3ac0
    3338:	2000      	movs	r0, #0
    333a:	e3e0      	b.n	0x3afe
    333c:	312c      	adds	r1, #44	; 0x2c
    333e:	e59f      	b.n	0x2e80
    3340:	0005      	movs	r5, r0
    3342:	e1a0      	b.n	0x3686
    3344:	1004      	asrs	r4, r0, #32
    3346:	e1a0      	b.n	0x368a
    3348:	f9a8 ebff 	vld4.32			; <UNDEFINED> instruction: 0xf9a8ebff
    334c:	0000      	movs	r0, r0
    334e:	e350      	b.n	0x39f2
    3350:	000f      	movs	r7, r1
    3352:	1a00      	subs	r0, r0, r0
    3354:	2000      	movs	r0, #0
    3356:	e3e0      	b.n	0x3b1a
    3358:	3110      	adds	r1, #16
    335a:	e59f      	b.n	0x2e9c
    335c:	0005      	movs	r5, r0
    335e:	e1a0      	b.n	0x36a2
    3360:	1004      	asrs	r4, r0, #32
    3362:	e1a0      	b.n	0x36a6
    3364:	f98f ebff 	vst4.32			; <UNDEFINED> instruction: 0xf98febff
    3368:	0000      	movs	r0, r0
    336a:	e350      	b.n	0x3a0e
    336c:	0008      	movs	r0, r1
    336e:	1a00      	subs	r0, r0, r0
    3370:	205c      	movs	r0, #92	; 0x5c
    3372:	e28d      	b.n	0x3890
    3374:	000c      	movs	r4, r1
    3376:	e892 0040 	ldmia.w	r2, {r6}
    337a:	e59d      	b.n	0x2eb8
    337c:	1038      	asrs	r0, r7, #32
    337e:	e59d      	b.n	0x2ebc
    3380:	f982 ebff 	vst4.32			; <UNDEFINED> instruction: 0xf982ebff
    3384:	0000      	movs	r0, r0
    3386:	e350      	b.n	0x3a2a
    3388:	302d      	adds	r0, #45	; 0x2d
    338a:	13a0      	asrs	r0, r4, #14
    338c:	3087      	adds	r0, #135	; 0x87
    338e:	15cd      	asrs	r5, r1, #23
    3390:	000d      	movs	r5, r1
    3392:	ea00 2040 	and.w	r0, r0, r0, lsl #9
    3396:	e59d      	b.n	0x2ed4
    3398:	3038      	adds	r0, #56	; 0x38
    339a:	e59d      	b.n	0x2ed8
    339c:	0040      	lsls	r0, r0, #1
    339e:	e59d      	b.n	0x2edc
    33a0:	1038      	asrs	r0, r7, #32
    33a2:	e59d      	b.n	0x2ee0
    33a4:	f991 ebff 	ldrsb.w	lr, [r1, #3071]	; 0xbff
    33a8:	7000      	strb	r0, [r0, #0]
    33aa:	e250      	b.n	0x384e
    33ac:	0014      	movs	r4, r2
    33ae:	0a00      	lsrs	r0, r0, #8
    33b0:	3038      	adds	r0, #56	; 0x38
    33b2:	e59d      	b.n	0x2ef0
    33b4:	0000      	movs	r0, r0
    33b6:	e353      	b.n	0x3a60
    33b8:	302d      	adds	r0, #45	; 0x2d
    33ba:	b3a0      	cbz	r0, 0x3426
    33bc:	20b0      	movs	r0, #176	; 0xb0
    33be:	e59f      	b.n	0x2f00
    33c0:	3087      	adds	r0, #135	; 0x87
    33c2:	b5cd      	push	{r0, r2, r3, r6, r7, lr}
    33c4:	30ac      	adds	r0, #172	; 0xac
    33c6:	e59f      	b.n	0x2f08
    33c8:	0001      	movs	r1, r0
    33ca:	ea00 20a8 	and.w	r0, r0, r8, asr #10
    33ce:	e59f      	b.n	0x2f10
    33d0:	30a8      	adds	r0, #168	; 0xa8
    33d2:	e59f      	b.n	0x2f14
    33d4:	1024      	asrs	r4, r4, #32
    33d6:	e59d      	b.n	0x2f14
    33d8:	0047      	lsls	r7, r0, #1
    33da:	e351      	b.n	0x3a80
    33dc:	2003      	movs	r0, #3
    33de:	c1a0      	stmia	r1!, {r5, r7}
    33e0:	7000      	strb	r0, [r0, #0]
    33e2:	e3a0      	b.n	0x3b26
    33e4:	5003      	str	r3, [r0, r0]
    33e6:	e3a0      	b.n	0x3b2a
    33e8:	201c      	movs	r0, #28
    33ea:	e58d      	b.n	0x2f08
    33ec:	7018      	strb	r0, [r3, #0]
    33ee:	e58d      	b.n	0x2f0c
    33f0:	a080      	add	r0, pc, #512	; (adr r0, 0x35f4)
    33f2:	e3ca      	b.n	0x3b8a
    33f4:	7030      	strb	r0, [r6, #0]
    33f6:	e58d      	b.n	0x2f14
    33f8:	7034      	strb	r4, [r6, #0]
    33fa:	e58d      	b.n	0x2f18
    33fc:	6007      	str	r7, [r0, #0]
    33fe:	e1a0      	b.n	0x3742
    3400:	0683      	lsls	r3, r0, #26
    3402:	ea00 3024 	and.w	r0, r0, r4, asr #12
    3406:	e59d      	b.n	0x2f44
    3408:	3020      	adds	r0, #32
    340a:	e3c3      	b.n	0x3b94
    340c:	0041      	lsls	r1, r0, #1
    340e:	e353      	b.n	0x3ab8
    3410:	3030      	adds	r0, #48	; 0x30
    3412:	e58d      	b.n	0x2f30
    3414:	0021      	movs	r1, r4
    3416:	1a00      	subs	r0, r0, r0
    3418:	3030      	adds	r0, #48	; 0x30
    341a:	e3a0      	b.n	0x3b5e
    341c:	3088      	adds	r0, #136	; 0x88
    341e:	e5cd      	b.n	0x2fbc
    3420:	3024      	adds	r0, #36	; 0x24
    3422:	e59d      	b.n	0x2f60
    3424:	0061      	lsls	r1, r4, #1
    3426:	e353      	b.n	0x3ad0
    3428:	3078      	adds	r0, #120	; 0x78
    342a:	03a0      	lsls	r0, r4, #14
    342c:	3058      	adds	r0, #88	; 0x58
    342e:	13a0      	asrs	r0, r4, #14
    3430:	3089      	adds	r0, #137	; 0x89
    3432:	e5cd      	b.n	0x2fd0
    3434:	3018      	adds	r0, #24
    3436:	e59d      	b.n	0x2f74
    3438:	0063      	lsls	r3, r4, #1
    343a:	e353      	b.n	0x3ae4
    343c:	3f41      	subs	r7, #65	; 0x41
    343e:	d28d      	bcs.n	0x335c
    3440:	a002      	add	r0, pc, #8	; (adr r0, 0x344c)
    3442:	e38a      	b.n	0x3b5a
    3444:	301c      	adds	r0, #28
    3446:	d58d      	bpl.n	0x3364
    3448:	001d      	movs	r5, r3
    344a:	da00      	bge.n	0x344e
    344c:	1001      	asrs	r1, r0, #32
    344e:	e283      	b.n	0x3958
    3450:	000b      	movs	r3, r1
    3452:	e1a0      	b.n	0x3796
    3454:	117a      	asrs	r2, r7, #5
    3456:	eb00 3000 	add.w	r0, r0, r0, lsl #12
    345a:	e250      	b.n	0x38fe
    345c:	301c      	adds	r0, #28
    345e:	e58d      	b.n	0x2f7c
    3460:	03c3      	lsls	r3, r0, #15
    3462:	0a00      	lsrs	r0, r0, #8
    3464:	701c      	strb	r4, [r3, #0]
    3466:	e59d      	b.n	0x2fa4
    3468:	0015      	movs	r5, r2
    346a:	ea00 01ec 	and.w	r1, r0, ip, asr #3
    346e:	0300      	lsls	r0, r0, #12
    3470:	ffff 7fef 	vqrdmlsh.s<illegal width 64>	<illegal reg q11.5>, <illegal reg q15.5>, d31[0]
    3474:	a039      	add	r0, pc, #228	; (adr r0, 0x355c)
    3476:	0800      	lsrs	r0, r0, #32
    3478:	a03d      	add	r0, pc, #244	; (adr r0, 0x3570)
    347a:	0800      	lsrs	r0, r0, #32
    347c:	a031      	add	r0, pc, #196	; (adr r0, 0x3544)
    347e:	0800      	lsrs	r0, r0, #32
    3480:	a035      	add	r0, pc, #212	; (adr r0, 0x3558)
    3482:	0800      	lsrs	r0, r0, #32
    3484:	a052      	add	r0, pc, #328	; (adr r0, 0x35d0)
    3486:	0800      	lsrs	r0, r0, #32
    3488:	0000      	movs	r0, r0
    348a:	4030      	ands	r0, r6
    348c:	0000      	movs	r0, r0
    348e:	3fe0      	subs	r7, #224	; 0xe0
    3490:	6667      	str	r7, [r4, #100]	; 0x64
    3492:	6666      	str	r6, [r4, #100]	; 0x64
    3494:	7830      	ldrb	r0, [r6, #0]
    3496:	0000      	movs	r0, r0
    3498:	a041      	add	r0, pc, #260	; (adr r0, 0x35a0)
    349a:	0800      	lsrs	r0, r0, #32
    349c:	a063      	add	r0, pc, #396	; (adr r0, 0x362c)
    349e:	0800      	lsrs	r0, r0, #32
    34a0:	3018      	adds	r0, #24
    34a2:	e59d      	b.n	0x2fe0
    34a4:	0001      	movs	r1, r0
    34a6:	e373      	b.n	0x3b90
    34a8:	3006      	adds	r0, #6
    34aa:	03a0      	lsls	r0, r4, #14
    34ac:	0003      	movs	r3, r0
    34ae:	0a00      	lsrs	r0, r0, #8
    34b0:	2030      	movs	r0, #48	; 0x30
    34b2:	e59d      	b.n	0x2ff0
    34b4:	0000      	movs	r0, r0
    34b6:	e353      	b.n	0x3b60
    34b8:	0047      	lsls	r7, r0, #1
    34ba:	0352      	lsls	r2, r2, #13
    34bc:	3001      	adds	r0, #1
    34be:	03a0      	lsls	r0, r4, #14
    34c0:	3018      	adds	r0, #24
    34c2:	e58d      	b.n	0x2fe0
    34c4:	3c01      	subs	r4, #1
    34c6:	e38a      	b.n	0x3bde
    34c8:	3054      	adds	r0, #84	; 0x54
    34ca:	e58d      	b.n	0x2fe8
    34cc:	3038      	adds	r0, #56	; 0x38
    34ce:	e59d      	b.n	0x300c
    34d0:	4000      	ands	r0, r0
    34d2:	e253      	b.n	0x397c
    34d4:	4102      	asrs	r2, r0
    34d6:	b283      	uxth	r3, r0
    34d8:	3000      	adds	r0, #0
    34da:	a3a0      	add	r3, pc, #640	; (adr r3, 0x375c)
    34dc:	302d      	adds	r0, #45	; 0x2d
    34de:	b3a0      	cbz	r0, 0x354a
    34e0:	3074      	adds	r0, #116	; 0x74
    34e2:	e58d      	b.n	0x3000
    34e4:	3030      	adds	r0, #48	; 0x30
    34e6:	e59d      	b.n	0x3024
    34e8:	0041      	lsls	r1, r0, #1
    34ea:	e353      	b.n	0x3b94
    34ec:	6040      	str	r0, [r0, #4]
    34ee:	e59d      	b.n	0x302c
    34f0:	005e      	lsls	r6, r3, #1
    34f2:	1a00      	subs	r0, r0, r0
    34f4:	2094      	movs	r0, #148	; 0x94
    34f6:	e28d      	b.n	0x3a14
    34f8:	0006      	movs	r6, r0
    34fa:	e1a0      	b.n	0x383e
    34fc:	1004      	asrs	r4, r0, #32
    34fe:	e1a0      	b.n	0x3842
    3500:	16ec      	asrs	r4, r5, #27
    3502:	eb00 2000 	add.w	r0, r0, r0, lsl #8
    3506:	e3a0      	b.n	0x3c4a
    3508:	35ff      	adds	r5, #255	; 0xff
    350a:	e3a0      	b.n	0x3c4e
    350c:	f7bf ebff 			; <UNDEFINED> instruction: 0xf7bfebff
    3510:	205c      	movs	r0, #92	; 0x5c
    3512:	e28d      	b.n	0x3a30
    3514:	000c      	movs	r4, r1
    3516:	e892 0028 	ldmia.w	r2, {r3, r5}
    351a:	e58d      	b.n	0x3038
    351c:	102c      	asrs	r4, r5, #32
    351e:	e58d      	b.n	0x303c
    3520:	f914 ebff 	ldrsb.w	lr, [r4], #255
    3524:	0000      	movs	r0, r0
    3526:	e350      	b.n	0x3bca
    3528:	3001      	adds	r0, #1
    352a:	13a0      	asrs	r0, r4, #14
    352c:	2024      	movs	r0, #36	; 0x24
    352e:	e59d      	b.n	0x306c
    3530:	3094      	adds	r0, #148	; 0x94
    3532:	158d      	asrs	r5, r1, #22
    3534:	30b8      	adds	r0, #184	; 0xb8
    3536:	e51f      	b.n	0x2f78
    3538:	0061      	lsls	r1, r4, #1
    353a:	e352      	b.n	0x3be2
    353c:	50ac      	str	r4, [r5, r2]
    353e:	e51f      	b.n	0x2f80
    3540:	5003      	str	r3, [r0, r0]
    3542:	11a0      	asrs	r0, r4, #6
    3544:	3018      	adds	r0, #24
    3546:	e59d      	b.n	0x3084
    3548:	401c      	ands	r4, r3
    354a:	e59d      	b.n	0x3088
    354c:	6001      	str	r1, [r0, #0]
    354e:	e243      	b.n	0x39d8
    3550:	2000      	movs	r0, #0
    3552:	e3a0      	b.n	0x3c96
    3554:	30d4      	adds	r0, #212	; 0xd4
    3556:	e51f      	b.n	0x2f98
    3558:	1028      	asrs	r0, r5, #32
    355a:	e28d      	b.n	0x3a78
    355c:	0003      	movs	r3, r0
    355e:	e891 f7aa 	ldmia.w	r1, {r1, r3, r5, r7, r8, r9, sl, ip, sp, lr, pc}
    3562:	ebff 0028 			; <UNDEFINED> instruction: 0xebff0028
    3566:	e58d      	b.n	0x3084
    3568:	102c      	asrs	r4, r5, #32
    356a:	e58d      	b.n	0x3088
    356c:	f92d ebff 			; <UNDEFINED> instruction: 0xf92debff
    3570:	0034      	movs	r4, r6
    3572:	e58d      	b.n	0x3090
    3574:	f76c ebff 			; <UNDEFINED> instruction: 0xf76cebff
    3578:	3001      	adds	r0, #1
    357a:	e1a0      	b.n	0x38be
    357c:	2000      	movs	r0, #0
    357e:	e1a0      	b.n	0x38c2
    3580:	1028      	asrs	r0, r5, #32
    3582:	e28d      	b.n	0x3aa0
    3584:	0003      	movs	r3, r0
    3586:	e891 f699 	ldmia.w	r1, {r0, r3, r4, r7, r9, sl, ip, sp, lr, pc}
    358a:	ebff 3034 			; <UNDEFINED> instruction: 0xebff3034
    358e:	e59d      	b.n	0x30cc
    3590:	3003      	adds	r0, #3
    3592:	e7d5      	b.n	0x3540
    3594:	0001      	movs	r1, r0
    3596:	e376      	b.n	0x3c86
    3598:	0028      	movs	r0, r5
    359a:	e58d      	b.n	0x30b8
    359c:	102c      	asrs	r4, r5, #32
    359e:	e58d      	b.n	0x30bc
    35a0:	3001      	adds	r0, #1
    35a2:	e4c4      	b.n	0x2f2e
    35a4:	6078      	str	r0, [r7, #4]
    35a6:	e58d      	b.n	0x30c4
    35a8:	0005      	movs	r5, r0
    35aa:	0a00      	lsrs	r0, r0, #8
    35ac:	205c      	movs	r0, #92	; 0x5c
    35ae:	e28d      	b.n	0x3acc
    35b0:	000c      	movs	r4, r1
    35b2:	e892 f8ef 	ldmia.w	r2, {r0, r1, r2, r3, r5, r6, r7, fp, ip, sp, lr, pc}
    35b6:	ebff 0000 			; <UNDEFINED> instruction: 0xebff0000
    35ba:	e350      	b.n	0x3c5e
    35bc:	6001      	str	r1, [r0, #0]
    35be:	e246      	b.n	0x3a4e
    35c0:	ffe2 0aff 			; <UNDEFINED> instruction: 0xffe20aff
    35c4:	2000      	movs	r0, #0
    35c6:	e3a0      	b.n	0x3d0a
    35c8:	3144      	adds	r1, #68	; 0x44
    35ca:	e51f      	b.n	0x300c
    35cc:	1028      	asrs	r0, r5, #32
    35ce:	e28d      	b.n	0x3aec
    35d0:	0003      	movs	r3, r0
    35d2:	e891 f8ff 	ldmia.w	r1, {r0, r1, r2, r3, r4, r5, r6, r7, fp, ip, sp, lr, pc}
    35d6:	ebff 0000 			; <UNDEFINED> instruction: 0xebff0000
    35da:	e350      	b.n	0x3c7e
    35dc:	0009      	movs	r1, r1
    35de:	1a00      	subs	r0, r0, r0
    35e0:	2000      	movs	r0, #0
    35e2:	e3a0      	b.n	0x3d26
    35e4:	3160      	adds	r1, #96	; 0x60
    35e6:	e51f      	b.n	0x3028
    35e8:	1028      	asrs	r0, r5, #32
    35ea:	e28d      	b.n	0x3b08
    35ec:	0003      	movs	r3, r0
    35ee:	e891 f8e0 	ldmia.w	r1, {r5, r6, r7, fp, ip, sp, lr, pc}
    35f2:	ebff 0000 			; <UNDEFINED> instruction: 0xebff0000
    35f6:	e350      	b.n	0x3c9a
    35f8:	0013      	movs	r3, r2
    35fa:	0a00      	lsrs	r0, r0, #8
    35fc:	3034      	adds	r0, #52	; 0x34
    35fe:	e59d      	b.n	0x313c
    3600:	0001      	movs	r1, r0
    3602:	e313      	b.n	0x3c2c
    3604:	0010      	movs	r0, r2
    3606:	0a00      	lsrs	r0, r0, #8
    3608:	1030      	asrs	r0, r6, #32
    360a:	e3a0      	b.n	0x3d4e
    360c:	40b0      	lsls	r0, r6
    360e:	e58d      	b.n	0x312c
    3610:	000f      	movs	r7, r1
    3612:	e5d5      	b.n	0x31c0
    3614:	20b0      	movs	r0, #176	; 0xb0
    3616:	e59d      	b.n	0x3154
    3618:	3001      	adds	r0, #1
    361a:	e242      	b.n	0x3aa2
    361c:	30b0      	adds	r0, #176	; 0xb0
    361e:	e58d      	b.n	0x313c
    3620:	3001      	adds	r0, #1
    3622:	e552      	b.n	0x30ca
    3624:	0000      	movs	r0, r0
    3626:	e153      	b.n	0x38d0
    3628:	1001      	asrs	r1, r0, #32
    362a:	0542      	lsls	r2, r0, #21
    362c:	fff8 0aff 			; <UNDEFINED> instruction: 0xfff80aff
    3630:	0039      	movs	r1, r7
    3632:	e353      	b.n	0x3cdc
    3634:	3001      	adds	r0, #1
    3636:	1283      	asrs	r3, r0, #10
    3638:	300a      	adds	r0, #10
    363a:	05d5      	lsls	r5, r2, #23
    363c:	30ff      	adds	r0, #255	; 0xff
    363e:	1203      	asrs	r3, r0, #8
    3640:	3001      	adds	r0, #1
    3642:	e542      	b.n	0x30ca
    3644:	3004      	adds	r0, #4
    3646:	e1a0      	b.n	0x398a
    3648:	0024      	movs	r4, r4
    364a:	ea00 2078 	and.w	r0, r0, r8, ror #9
    364e:	e59d      	b.n	0x318c
    3650:	3004      	adds	r0, #4
    3652:	e1a0      	b.n	0x3996
    3654:	4002      	ands	r2, r0
    3656:	e084      	b.n	0x3762
    3658:	2030      	movs	r0, #48	; 0x30
    365a:	e3a0      	b.n	0x3d9e
    365c:	1003      	asrs	r3, r0, #32
    365e:	e044      	b.n	0x36ea
    3660:	0000      	movs	r0, r0
    3662:	e351      	b.n	0x3d08
    3664:	001d      	movs	r5, r3
    3666:	ba00      	rev	r0, r0
    3668:	2001      	movs	r0, #1
    366a:	e4c3      	b.n	0x2ff4
    366c:	fffa eaff 			; <UNDEFINED> instruction: 0xfffaeaff
    3670:	3030      	adds	r0, #48	; 0x30
    3672:	e59d      	b.n	0x31b0
    3674:	0046      	lsls	r6, r0, #1
    3676:	e353      	b.n	0x3d20
    3678:	5018      	str	r0, [r3, r0]
    367a:	059d      	lsls	r5, r3, #22
    367c:	3003      	adds	r0, #3
    367e:	03a0      	lsls	r0, r4, #14
    3680:	0004      	movs	r4, r0
    3682:	0a00      	lsrs	r0, r0, #8
    3684:	0045      	lsls	r5, r0, #1
    3686:	e353      	b.n	0x3d30
    3688:	3018      	adds	r0, #24
    368a:	059d      	lsls	r5, r3, #22
    368c:	5001      	str	r1, [r0, r0]
    368e:	0283      	lsls	r3, r0, #10
    3690:	3002      	adds	r0, #2
    3692:	e3a0      	b.n	0x3dd6
    3694:	5018      	str	r0, [r3, r0]
    3696:	159d      	asrs	r5, r3, #22
    3698:	20b0      	movs	r0, #176	; 0xb0
    369a:	e28d      	b.n	0x3bb8
    369c:	2010      	movs	r0, #16
    369e:	e58d      	b.n	0x31bc
    36a0:	209c      	movs	r0, #156	; 0x9c
    36a2:	e28d      	b.n	0x3bc0
    36a4:	200c      	movs	r0, #12
    36a6:	e58d      	b.n	0x31c4
    36a8:	2094      	movs	r0, #148	; 0x94
    36aa:	e28d      	b.n	0x3bc8
    36ac:	2008      	movs	r0, #8
    36ae:	e58d      	b.n	0x31cc
    36b0:	0028      	movs	r0, r5
    36b2:	e88d 2006 	stmia.w	sp, {r1, r2, sp}
    36b6:	e1a0      	b.n	0x39fa
    36b8:	3004      	adds	r0, #4
    36ba:	e1a0      	b.n	0x39fe
    36bc:	000b      	movs	r3, r1
    36be:	e1a0      	b.n	0x3a02
    36c0:	0a28      	lsrs	r0, r5, #8
    36c2:	eb00 3030 	add.w	r0, r0, r0, ror #12
    36c6:	e59d      	b.n	0x3204
    36c8:	0047      	lsls	r7, r0, #1
    36ca:	e353      	b.n	0x3d74
    36cc:	001c      	movs	r4, r3
    36ce:	e58d      	b.n	0x31ec
    36d0:	000a      	movs	r2, r1
    36d2:	1a00      	subs	r0, r0, r0
    36d4:	0001      	movs	r1, r0
    36d6:	e31a      	b.n	0x3d0e
    36d8:	0008      	movs	r0, r1
    36da:	1a00      	subs	r0, r0, r0
    36dc:	30b0      	adds	r0, #176	; 0xb0
    36de:	e59d      	b.n	0x321c
    36e0:	201c      	movs	r0, #28
    36e2:	e59d      	b.n	0x3220
    36e4:	3002      	adds	r0, #2
    36e6:	e043      	b.n	0x3770
    36e8:	3028      	adds	r0, #40	; 0x28
    36ea:	e58d      	b.n	0x3208
    36ec:	3030      	adds	r0, #48	; 0x30
    36ee:	e59d      	b.n	0x322c
    36f0:	0047      	lsls	r7, r0, #1
    36f2:	e353      	b.n	0x3d9c
    36f4:	6094      	str	r4, [r2, #8]
    36f6:	e59d      	b.n	0x3234
    36f8:	0034      	movs	r4, r6
    36fa:	1a00      	subs	r0, r0, r0
    36fc:	002b      	movs	r3, r5
    36fe:	ea00 301c 	and.w	r0, r0, ip, lsr #12
    3702:	e59d      	b.n	0x3240
    3704:	3005      	adds	r0, #5
    3706:	e083      	b.n	0x3810
    3708:	3028      	adds	r0, #40	; 0x28
    370a:	e58d      	b.n	0x3228
    370c:	3030      	adds	r0, #48	; 0x30
    370e:	e59d      	b.n	0x324c
    3710:	0046      	lsls	r6, r0, #1
    3712:	e353      	b.n	0x3dbc
    3714:	0014      	movs	r4, r2
    3716:	1a00      	subs	r0, r0, r0
    3718:	301c      	adds	r0, #28
    371a:	e59d      	b.n	0x3258
    371c:	3000      	adds	r0, #0
    371e:	e5d3      	b.n	0x32c8
    3720:	2030      	movs	r0, #48	; 0x30
    3722:	e243      	b.n	0x3bac
    3724:	3000      	adds	r0, #0
    3726:	e272      	b.n	0x3c0e
    3728:	3002      	adds	r0, #2
    372a:	e0a3      	b.n	0x3874
    372c:	205c      	movs	r0, #92	; 0x5c
    372e:	e28d      	b.n	0x3c4c
    3730:	3034      	adds	r0, #52	; 0x34
    3732:	e58d      	b.n	0x3250
    3734:	0006      	movs	r6, r0
    3736:	e1a0      	b.n	0x3a7a
    3738:	000c      	movs	r4, r1
    373a:	e892 1004 	ldmia.w	r2, {r2, ip}
    373e:	e1a0      	b.n	0x3a82
    3740:	f88c ebff 	strb.w	lr, [ip, #3071]	; 0xbff
    3744:	0000      	movs	r0, r0
    3746:	e350      	b.n	0x3dea
    3748:	3034      	adds	r0, #52	; 0x34
    374a:	e59d      	b.n	0x3288
    374c:	3000      	adds	r0, #0
    374e:	13a0      	asrs	r0, r4, #14
    3750:	0000      	movs	r0, r0
    3752:	e353      	b.n	0x3dfc
    3754:	5001      	str	r1, [r0, r0]
    3756:	1265      	asrs	r5, r4, #9
    3758:	5094      	str	r4, [r2, r2]
    375a:	158d      	asrs	r5, r1, #22
    375c:	2028      	movs	r0, #40	; 0x28
    375e:	e59d      	b.n	0x329c
    3760:	3094      	adds	r0, #148	; 0x94
    3762:	e59d      	b.n	0x32a0
    3764:	3003      	adds	r0, #3
    3766:	e082      	b.n	0x386e
    3768:	3028      	adds	r0, #40	; 0x28
    376a:	e58d      	b.n	0x3288
    376c:	205c      	movs	r0, #92	; 0x5c
    376e:	e28d      	b.n	0x3c8c
    3770:	000c      	movs	r4, r1
    3772:	e892 0006 	ldmia.w	r2, {r1, r2}
    3776:	e1a0      	b.n	0x3aba
    3778:	1004      	asrs	r4, r0, #32
    377a:	e1a0      	b.n	0x3abe
    377c:	f87d ebff 	ldr??.w	lr, [sp], #255
    3780:	2030      	movs	r0, #48	; 0x30
    3782:	e3a0      	b.n	0x3ec6
    3784:	0000      	movs	r0, r0
    3786:	e350      	b.n	0x3e2a
    3788:	3028      	adds	r0, #40	; 0x28
    378a:	159d      	asrs	r5, r3, #22
    378c:	30b0      	adds	r0, #176	; 0xb0
    378e:	158d      	asrs	r5, r1, #22
    3790:	30b0      	adds	r0, #176	; 0xb0
    3792:	e59d      	b.n	0x32d0
    3794:	1028      	asrs	r0, r5, #32
    3796:	e59d      	b.n	0x32d4
    3798:	0003      	movs	r3, r0
    379a:	e151      	b.n	0x3a40
    379c:	ffce 9aff 			; <UNDEFINED> instruction: 0xffce9aff
    37a0:	1001      	asrs	r1, r0, #32
    37a2:	e283      	b.n	0x3cac
    37a4:	10b0      	asrs	r0, r6, #2
    37a6:	e58d      	b.n	0x32c4
    37a8:	2000      	movs	r0, #0
    37aa:	e5c3      	b.n	0x3334
    37ac:	fff7 eaff 			; <UNDEFINED> instruction: 0xfff7eaff
    37b0:	3018      	adds	r0, #24
    37b2:	e59d      	b.n	0x32f0
    37b4:	0003      	movs	r3, r0
    37b6:	e376      	b.n	0x3ea6
    37b8:	0006      	movs	r6, r0
    37ba:	a153      	add	r1, pc, #332	; (adr r1, 0x3908)
    37bc:	3024      	adds	r0, #36	; 0x24
    37be:	b59d      	push	{r0, r2, r3, r4, r7, lr}
    37c0:	3002      	adds	r0, #2
    37c2:	b243      	sxtb	r3, r0
    37c4:	3024      	adds	r0, #36	; 0x24
    37c6:	b58d      	push	{r0, r2, r3, r7, lr}
    37c8:	0003      	movs	r3, r0
    37ca:	ba00      	rev	r0, r0
    37cc:	005b      	lsls	r3, r3, #1
    37ce:	ea00 3030 	and.w	r0, r0, r0, ror #12
    37d2:	e59d      	b.n	0x3310
    37d4:	0046      	lsls	r6, r0, #1
    37d6:	e353      	b.n	0x3e80
    37d8:	0043      	lsls	r3, r0, #1
    37da:	0a00      	lsrs	r0, r0, #8
    37dc:	3024      	adds	r0, #36	; 0x24
    37de:	e59d      	b.n	0x331c
    37e0:	2020      	movs	r0, #32
    37e2:	e3c3      	b.n	0x3f6c
    37e4:	0041      	lsls	r1, r0, #1
    37e6:	e352      	b.n	0x3e8e
    37e8:	30ff      	adds	r0, #255	; 0xff
    37ea:	e203      	b.n	0x3bf4
    37ec:	300f      	adds	r0, #15
    37ee:	0283      	lsls	r3, r0, #10
    37f0:	4001      	ands	r1, r0
    37f2:	e246      	b.n	0x3c82
    37f4:	30ff      	adds	r0, #255	; 0xff
    37f6:	0203      	lsls	r3, r0, #8
    37f8:	0000      	movs	r0, r0
    37fa:	e354      	b.n	0x3ea6
    37fc:	30a0      	adds	r0, #160	; 0xa0
    37fe:	e5cd      	b.n	0x339c
    3800:	302d      	adds	r0, #45	; 0x2d
    3802:	b3a0      	cbz	r0, 0x386e
    3804:	302b      	adds	r0, #43	; 0x2b
    3806:	a3a0      	add	r3, pc, #640	; (adr r3, 0x3a88)
    3808:	4094      	lsls	r4, r2
    380a:	e58d      	b.n	0x3328
    380c:	4001      	ands	r1, r0
    380e:	b266      	sxtb	r6, r4
    3810:	0009      	movs	r1, r1
    3812:	e354      	b.n	0x3ebe
    3814:	30a1      	adds	r0, #161	; 0xa1
    3816:	e5cd      	b.n	0x33b4
    3818:	50b7      	str	r7, [r6, r2]
    381a:	c28d      	stmia	r2!, {r0, r2, r3, r7}
    381c:	0018      	movs	r0, r3
    381e:	da00      	bge.n	0x3822
    3820:	100a      	asrs	r2, r1, #32
    3822:	e3a0      	b.n	0x3f66
    3824:	0004      	movs	r4, r0
    3826:	e1a0      	b.n	0x3b6a
    3828:	f5e6 ebff 			; <UNDEFINED> instruction: 0xf5e6ebff
    382c:	33a4      	adds	r3, #164	; 0xa4
    382e:	e51f      	b.n	0x3270
    3830:	1030      	asrs	r0, r6, #32
    3832:	e281      	b.n	0x3d38
    3834:	1001      	asrs	r1, r0, #32
    3836:	e545      	b.n	0x32c4
    3838:	0394      	lsls	r4, r2, #14
    383a:	e0c1      	b.n	0x39c0
    383c:	0063      	lsls	r3, r4, #1
    383e:	e354      	b.n	0x3eea
    3840:	3fc4      	subs	r7, #196	; 0xc4
    3842:	e1a0      	b.n	0x3b86
    3844:	6001      	str	r1, [r0, #0]
    3846:	e245      	b.n	0x3cd4
    3848:	3141      	adds	r1, #65	; 0x41
    384a:	e063      	b.n	0x3914
    384c:	5006      	str	r6, [r0, r0]
    384e:	c1a0      	stmia	r1!, {r5, r7}
    3850:	4003      	ands	r3, r0
    3852:	c1a0      	stmia	r1!, {r5, r7}
    3854:	fff1 caff 			; <UNDEFINED> instruction: 0xfff1caff
    3858:	3030      	adds	r0, #48	; 0x30
    385a:	e283      	b.n	0x3d64
    385c:	3001      	adds	r0, #1
    385e:	e546      	b.n	0x32ee
    3860:	5002      	str	r2, [r0, r0]
    3862:	e245      	b.n	0x3cf0
    3864:	20a2      	movs	r0, #162	; 0xa2
    3866:	e28d      	b.n	0x3d84
    3868:	10b7      	asrs	r7, r6, #2
    386a:	e28d      	b.n	0x3d88
    386c:	0001      	movs	r1, r0
    386e:	e155      	b.n	0x3b1c
    3870:	3002      	adds	r0, #2
    3872:	e1a0      	b.n	0x3bb6
    3874:	0009      	movs	r1, r1
    3876:	2a00      	cmp	r2, #0
    3878:	3001      	adds	r0, #1
    387a:	e4d5      	b.n	0x3228
    387c:	3001      	adds	r0, #1
    387e:	e4c2      	b.n	0x3206
    3880:	fff9 eaff 			; <UNDEFINED> instruction: 0xfff9eaff
    3884:	0041      	lsls	r1, r0, #1
    3886:	e352      	b.n	0x3f2e
    3888:	3030      	adds	r0, #48	; 0x30
    388a:	13a0      	asrs	r0, r4, #14
    388c:	30a2      	adds	r0, #162	; 0xa2
    388e:	028d      	lsls	r5, r1, #10
    3890:	30a2      	adds	r0, #162	; 0xa2
    3892:	15cd      	asrs	r5, r1, #23
    3894:	4030      	ands	r0, r6
    3896:	e284      	b.n	0x3da2
    3898:	30a3      	adds	r0, #163	; 0xa3
    389a:	128d      	asrs	r5, r1, #10
    389c:	4001      	ands	r1, r0
    389e:	e4c3      	b.n	0x3228
    38a0:	20a0      	movs	r0, #160	; 0xa0
    38a2:	e28d      	b.n	0x3dc0
    38a4:	3002      	adds	r0, #2
    38a6:	e043      	b.n	0x3930
    38a8:	2028      	movs	r0, #40	; 0x28
    38aa:	e59d      	b.n	0x33e8
    38ac:	0001      	movs	r1, r0
    38ae:	e352      	b.n	0x3f56
    38b0:	306c      	adds	r0, #108	; 0x6c
    38b2:	e58d      	b.n	0x33d0
    38b4:	5002      	str	r2, [r0, r0]
    38b6:	e083      	b.n	0x39c0
    38b8:	0001      	movs	r1, r0
    38ba:	ca00      	ldmia	r2!, {}
    38bc:	0001      	movs	r1, r0
    38be:	e31a      	b.n	0x3ef6
    38c0:	0001      	movs	r1, r0
    38c2:	0a00      	lsrs	r0, r0, #8
    38c4:	3048      	adds	r0, #72	; 0x48
    38c6:	e59d      	b.n	0x3404
    38c8:	5003      	str	r3, [r0, r0]
    38ca:	e085      	b.n	0x39d8
    38cc:	3b01      	subs	r3, #1
    38ce:	e3ca      	b.n	0x4066
    38d0:	3c01      	subs	r4, #1
    38d2:	e383      	b.n	0x3fdc
    38d4:	3054      	adds	r0, #84	; 0x54
    38d6:	e58d      	b.n	0x33f4
    38d8:	3000      	adds	r0, #0
    38da:	e3a0      	b.n	0x401e
    38dc:	3030      	adds	r0, #48	; 0x30
    38de:	e58d      	b.n	0x33fc
    38e0:	3034      	adds	r0, #52	; 0x34
    38e2:	e58d      	b.n	0x3400
    38e4:	6003      	str	r3, [r0, #0]
    38e6:	e1a0      	b.n	0x3c2a
    38e8:	0048      	lsls	r0, r1, #1
    38ea:	ea00 2018 	and.w	r0, r0, r8, lsr #8
    38ee:	e59d      	b.n	0x342c
    38f0:	3001      	adds	r0, #1
    38f2:	e20a      	b.n	0x3d0a
    38f4:	0000      	movs	r0, r0
    38f6:	e356      	b.n	0x3fa6
    38f8:	3002      	adds	r0, #2
    38fa:	e183      	b.n	0x3c04
    38fc:	0005      	movs	r5, r0
    38fe:	da00      	bge.n	0x3902
    3900:	0000      	movs	r0, r0
    3902:	e353      	b.n	0x3fac
    3904:	3048      	adds	r0, #72	; 0x48
    3906:	159d      	asrs	r5, r3, #22
    3908:	5003      	str	r3, [r0, r0]
    390a:	1086      	asrs	r6, r0, #2
    390c:	3002      	adds	r0, #2
    390e:	11a0      	asrs	r0, r4, #6
    3910:	0008      	movs	r0, r1
    3912:	1a00      	subs	r0, r0, r0
    3914:	0018      	movs	r0, r3
    3916:	ea00 0000 	and.w	r0, r0, r0
    391a:	e353      	b.n	0x3fc4
    391c:	3066      	adds	r0, #102	; 0x66
    391e:	03a0      	lsls	r0, r4, #14
    3920:	5001      	str	r1, [r0, r0]
    3922:	03a0      	lsls	r0, r4, #14
    3924:	3024      	adds	r0, #36	; 0x24
    3926:	058d      	lsls	r5, r1, #22
    3928:	0018      	movs	r0, r3
    392a:	0a00      	lsrs	r0, r0, #8
    392c:	3048      	adds	r0, #72	; 0x48
    392e:	e59d      	b.n	0x346c
    3930:	5001      	str	r1, [r0, r0]
    3932:	e283      	b.n	0x3e3c
    3934:	3018      	adds	r0, #24
    3936:	e59d      	b.n	0x3474
    3938:	5003      	str	r3, [r0, r0]
    393a:	e085      	b.n	0x3a48
    393c:	000f      	movs	r7, r1
    393e:	ea00 3028 	and.w	r0, r0, r8, asr #12
    3942:	e59d      	b.n	0x3480
    3944:	0006      	movs	r6, r0
    3946:	e153      	b.n	0x3bf0
    3948:	0004      	movs	r4, r0
    394a:	ca00      	ldmia	r2!, {}
    394c:	0001      	movs	r1, r0
    394e:	e31a      	b.n	0x3f86
    3950:	3048      	adds	r0, #72	; 0x48
    3952:	159d      	asrs	r5, r3, #22
    3954:	5003      	str	r3, [r0, r0]
    3956:	1086      	asrs	r6, r0, #2
    3958:	5006      	str	r6, [r0, r0]
    395a:	01a0      	lsls	r0, r4, #6
    395c:	0009      	movs	r1, r1
    395e:	ea00 3028 	and.w	r0, r0, r8, asr #12
    3962:	e59d      	b.n	0x34a0
    3964:	2048      	movs	r0, #72	; 0x48
    3966:	e59d      	b.n	0x34a4
    3968:	0000      	movs	r0, r0
    396a:	e356      	b.n	0x401a
    396c:	5002      	str	r2, [r0, r0]
    396e:	e083      	b.n	0x3a78
    3970:	3001      	adds	r0, #1
    3972:	d266      	bcs.n	0x3a42
    3974:	5003      	str	r3, [r0, r0]
    3976:	d085      	beq.n	0x3884
    3978:	0002      	movs	r2, r0
    397a:	ea00 5006 	and.w	r0, r0, r6, lsl #20
    397e:	e1a0      	b.n	0x3cc2
    3980:	3066      	adds	r0, #102	; 0x66
    3982:	e3a0      	b.n	0x40c6
    3984:	0000      	movs	r0, r0
    3986:	ea00 3067 	and.w	r0, r0, r7, asr #13
    398a:	e3a0      	b.n	0x40ce
    398c:	3024      	adds	r0, #36	; 0x24
    398e:	e58d      	b.n	0x34ac
    3990:	3b01      	subs	r3, #1
    3992:	e21a      	b.n	0x3dca
    3994:	3034      	adds	r0, #52	; 0x34
    3996:	e58d      	b.n	0x34b4
    3998:	3034      	adds	r0, #52	; 0x34
    399a:	059d      	lsls	r5, r3, #22
    399c:	3030      	adds	r0, #48	; 0x30
    399e:	058d      	lsls	r5, r1, #22
    39a0:	001a      	movs	r2, r3
    39a2:	0a00      	lsrs	r0, r0, #8
    39a4:	3000      	adds	r0, #0
    39a6:	e3a0      	b.n	0x40ea
    39a8:	0000      	movs	r0, r0
    39aa:	e356      	b.n	0x405a
    39ac:	3030      	adds	r0, #48	; 0x30
    39ae:	e58d      	b.n	0x34cc
    39b0:	3034      	adds	r0, #52	; 0x34
    39b2:	e58d      	b.n	0x34d0
    39b4:	0015      	movs	r5, r2
    39b6:	da00      	bge.n	0x39ba
    39b8:	1000      	asrs	r0, r0, #32
    39ba:	e3a0      	b.n	0x40fe
    39bc:	0001      	movs	r1, r0
    39be:	e1a0      	b.n	0x3d02
    39c0:	3050      	adds	r0, #80	; 0x50
    39c2:	e59d      	b.n	0x3500
    39c4:	2000      	movs	r0, #0
    39c6:	e5d3      	b.n	0x3570
    39c8:	00ff      	lsls	r7, r7, #3
    39ca:	e352      	b.n	0x4072
    39cc:	0008      	movs	r0, r1
    39ce:	0a00      	lsrs	r0, r0, #8
    39d0:	0006      	movs	r6, r0
    39d2:	e152      	b.n	0x3c7a
    39d4:	0006      	movs	r6, r0
    39d6:	aa00      	add	r2, sp, #0
    39d8:	6002      	str	r2, [r0, #0]
    39da:	e046      	b.n	0x3a6a
    39dc:	2001      	movs	r0, #1
    39de:	e5d3      	b.n	0x3588
    39e0:	0000      	movs	r0, r0
    39e2:	e352      	b.n	0x408a
    39e4:	1001      	asrs	r1, r0, #32
    39e6:	1281      	asrs	r1, r0, #10
    39e8:	3001      	adds	r0, #1
    39ea:	1283      	asrs	r3, r0, #10
    39ec:	0001      	movs	r1, r0
    39ee:	0280      	lsls	r0, r0, #10
    39f0:	fff3 eaff 			; <UNDEFINED> instruction: 0xfff3eaff
    39f4:	2058      	movs	r0, #88	; 0x58
    39f6:	e59d      	b.n	0x3534
    39f8:	3050      	adds	r0, #80	; 0x50
    39fa:	e58d      	b.n	0x3518
    39fc:	3000      	adds	r0, #0
    39fe:	e081      	b.n	0x3b04
    3a00:	5293      	strh	r3, [r2, r2]
    3a02:	e022      	b.n	0x3a4a
    3a04:	5002      	str	r2, [r0, r0]
    3a06:	e1a0      	b.n	0x3d4a
    3a08:	1034      	asrs	r4, r6, #32
    3a0a:	e58d      	b.n	0x3528
    3a0c:	0030      	movs	r0, r6
    3a0e:	e58d      	b.n	0x352c
    3a10:	3074      	adds	r0, #116	; 0x74
    3a12:	e59d      	b.n	0x3550
    3a14:	0000      	movs	r0, r0
    3a16:	e353      	b.n	0x40c0
    3a18:	a054      	add	r0, pc, #336	; (adr r0, 0x3b6c)
    3a1a:	059d      	lsls	r5, r3, #22
    3a1c:	3074      	adds	r0, #116	; 0x74
    3a1e:	059d      	lsls	r5, r3, #22
    3a20:	302d      	adds	r0, #45	; 0x2d
    3a22:	13a0      	asrs	r0, r4, #14
    3a24:	a054      	add	r0, pc, #336	; (adr r0, 0x3b78)
    3a26:	159d      	asrs	r5, r3, #22
    3a28:	3087      	adds	r0, #135	; 0x87
    3a2a:	15cd      	asrs	r5, r1, #23
    3a2c:	3000      	adds	r0, #0
    3a2e:	13a0      	asrs	r0, r4, #14
    3a30:	04f1      	lsls	r1, r6, #19
    3a32:	ea00 0020 	and.w	r0, r0, r0, asr #32
    3a36:	e31a      	b.n	0x406e
    3a38:	2044      	movs	r0, #68	; 0x44
    3a3a:	e58d      	b.n	0x3558
    3a3c:	9030      	str	r0, [sp, #192]	; 0xc0
    3a3e:	e59d      	b.n	0x357c
    3a40:	308c      	adds	r0, #140	; 0x8c
    3a42:	e59d      	b.n	0x3580
    3a44:	002f      	movs	r7, r5
    3a46:	0a00      	lsrs	r0, r0, #8
    3a48:	0000      	movs	r0, r0
    3a4a:	e357      	b.n	0x40fc
    3a4c:	0014      	movs	r4, r2
    3a4e:	0a00      	lsrs	r0, r0, #8
    3a50:	0005      	movs	r5, r0
    3a52:	e153      	b.n	0x3cfc
    3a54:	3fba      	subs	r7, #186	; 0xba
    3a56:	c28d      	stmia	r2!, {r0, r2, r3, r7}
    3a58:	5185      	str	r5, [r0, r6]
    3a5a:	c083      	stmia	r0!, {r0, r1, r7}
    3a5c:	2100      	movs	r1, #0
    3a5e:	c515      	stmia	r5!, {r0, r2, r4}
    3a60:	000d      	movs	r5, r1
    3a62:	ca00      	ldmia	r2!, {}
    3a64:	3090      	adds	r0, #144	; 0x90
    3a66:	e28d      	b.n	0x3f84
    3a68:	300c      	adds	r0, #12
    3a6a:	e58d      	b.n	0x3588
    3a6c:	3f5a      	subs	r7, #90	; 0x5a
    3a6e:	e28d      	b.n	0x3f8c
    3a70:	3008      	adds	r0, #8
    3a72:	e58d      	b.n	0x3590
    3a74:	3f7a      	subs	r7, #122	; 0x7a
    3a76:	e28d      	b.n	0x3f94
    3a78:	3004      	adds	r0, #4
    3a7a:	e58d      	b.n	0x3598
    3a7c:	308c      	adds	r0, #140	; 0x8c
    3a7e:	e28d      	b.n	0x3f9c
    3a80:	3000      	adds	r0, #0
    3a82:	e58d      	b.n	0x35a0
    3a84:	2006      	movs	r0, #6
    3a86:	e1a0      	b.n	0x3dca
    3a88:	307c      	adds	r0, #124	; 0x7c
    3a8a:	e28d      	b.n	0x3fa8
    3a8c:	1005      	asrs	r5, r0, #32
    3a8e:	e1a0      	b.n	0x3dd2
    3a90:	000b      	movs	r3, r1
    3a92:	e1a0      	b.n	0x3dd6
    3a94:	f90e ebff 			; <UNDEFINED> instruction: 0xf90eebff
    3a98:	2000      	movs	r0, #0
    3a9a:	e590      	b.n	0x35be
    3a9c:	c008      	stmia	r0!, {r3}
    3a9e:	e1a0      	b.n	0x3de2
    3aa0:	0011      	movs	r1, r2
    3aa2:	ea00 0008 	and.w	r0, r0, r8
    3aa6:	e153      	b.n	0x3d50
    3aa8:	3fba      	subs	r7, #186	; 0xba
    3aaa:	c28d      	stmia	r2!, {r0, r2, r3, r7}
    3aac:	5185      	str	r5, [r0, r6]
    3aae:	c083      	stmia	r0!, {r0, r1, r7}
    3ab0:	c001      	stmia	r0!, {r0}
    3ab2:	e288      	b.n	0x3fc6
    3ab4:	2100      	movs	r1, #0
    3ab6:	c515      	stmia	r5!, {r0, r2, r4}
    3ab8:	000b      	movs	r3, r1
    3aba:	ca00      	ldmia	r2!, {}
    3abc:	207c      	movs	r0, #124	; 0x7c
    3abe:	e59d      	b.n	0x35fc
    3ac0:	001f      	movs	r7, r3
    3ac2:	e353      	b.n	0x416c
    3ac4:	1004      	asrs	r4, r0, #32
    3ac6:	e282      	b.n	0x3fce
    3ac8:	107c      	asrs	r4, r7, #1
    3aca:	d58d      	bpl.n	0x39e8
    3acc:	107c      	asrs	r4, r7, #1
    3ace:	c58d      	stmia	r5!, {r0, r2, r3, r7}
    3ad0:	2000      	movs	r0, #0
    3ad2:	d592      	bpl.n	0x39fa
    3ad4:	1fba      	subs	r2, r7, #6
    3ad6:	d28d      	bcs.n	0x39f4
    3ad8:	0001      	movs	r1, r0
    3ada:	d283      	bcs.n	0x39e4
    3adc:	3183      	adds	r1, #131	; 0x83
    3ade:	d081      	beq.n	0x39e4
    3ae0:	008c      	lsls	r4, r1, #2
    3ae2:	d58d      	bpl.n	0x3a00
    3ae4:	2100      	movs	r1, #0
    3ae6:	d503      	bpl.n	0x3af0
    3ae8:	2000      	movs	r0, #0
    3aea:	c592      	stmia	r5!, {r1, r4, r7}
    3aec:	800c      	strh	r4, [r1, #0]
    3aee:	e1a0      	b.n	0x3e32
    3af0:	004c      	lsls	r4, r1, #1
    3af2:	e59d      	b.n	0x3630
    3af4:	1fc0      	subs	r0, r0, #7
    3af6:	e1a0      	b.n	0x3e3a
    3af8:	0003      	movs	r3, r0
    3afa:	e882 3044 	stmia.w	r2, {r2, r6, ip, sp}
    3afe:	e59d      	b.n	0x363c
    3b00:	301c      	adds	r0, #28
    3b02:	e58d      	b.n	0x3620
    3b04:	fabc eaff 			; <UNDEFINED> instruction: 0xfabceaff
    3b08:	0010      	movs	r0, r2
    3b0a:	e31a      	b.n	0x4142
    3b0c:	005b      	lsls	r3, r3, #1
    3b0e:	1a00      	subs	r0, r0, r0
    3b10:	0040      	lsls	r0, r0, #1
    3b12:	e31a      	b.n	0x414a
    3b14:	002b      	movs	r3, r5
    3b16:	0a00      	lsrs	r0, r0, #8
    3b18:	0000      	movs	r0, r0
    3b1a:	e357      	b.n	0x41cc
    3b1c:	0014      	movs	r4, r2
    3b1e:	0a00      	lsrs	r0, r0, #8
    3b20:	0005      	movs	r5, r0
    3b22:	e153      	b.n	0x3dcc
    3b24:	3fba      	subs	r7, #186	; 0xba
    3b26:	c28d      	stmia	r2!, {r0, r2, r3, r7}
    3b28:	5185      	str	r5, [r0, r6]
    3b2a:	c083      	stmia	r0!, {r0, r1, r7}
    3b2c:	2100      	movs	r1, #0
    3b2e:	c515      	stmia	r5!, {r0, r2, r4}
    3b30:	000d      	movs	r5, r1
    3b32:	ca00      	ldmia	r2!, {}
    3b34:	3090      	adds	r0, #144	; 0x90
    3b36:	e28d      	b.n	0x4054
    3b38:	300c      	adds	r0, #12
    3b3a:	e58d      	b.n	0x3658
    3b3c:	3f5a      	subs	r7, #90	; 0x5a
    3b3e:	e28d      	b.n	0x405c
    3b40:	3008      	adds	r0, #8
    3b42:	e58d      	b.n	0x3660
    3b44:	3f7a      	subs	r7, #122	; 0x7a
    3b46:	e28d      	b.n	0x4064
    3b48:	3004      	adds	r0, #4
    3b4a:	e58d      	b.n	0x3668
    3b4c:	308c      	adds	r0, #140	; 0x8c
    3b4e:	e28d      	b.n	0x406c
    3b50:	3000      	adds	r0, #0
    3b52:	e58d      	b.n	0x3670
    3b54:	2006      	movs	r0, #6
    3b56:	e1a0      	b.n	0x3e9a
    3b58:	307c      	adds	r0, #124	; 0x7c
    3b5a:	e28d      	b.n	0x4078
    3b5c:	1005      	asrs	r5, r0, #32
    3b5e:	e1a0      	b.n	0x3ea2
    3b60:	000b      	movs	r3, r1
    3b62:	e1a0      	b.n	0x3ea6
    3b64:	f8da ebff 	ldr.w	lr, [sl, #3071]	; 0xbff
    3b68:	2000      	movs	r0, #0
    3b6a:	e590      	b.n	0x368e
    3b6c:	1008      	asrs	r0, r1, #32
    3b6e:	e1a0      	b.n	0x3eb2
    3b70:	0011      	movs	r1, r2
    3b72:	ea00 0008 	and.w	r0, r0, r8
    3b76:	e153      	b.n	0x3e20
    3b78:	3fba      	subs	r7, #186	; 0xba
    3b7a:	c28d      	stmia	r2!, {r0, r2, r3, r7}
    3b7c:	5185      	str	r5, [r0, r6]
    3b7e:	c083      	stmia	r0!, {r0, r1, r7}
    3b80:	1001      	asrs	r1, r0, #32
    3b82:	e288      	b.n	0x4096
    3b84:	2100      	movs	r1, #0
    3b86:	c515      	stmia	r5!, {r0, r2, r4}
    3b88:	000b      	movs	r3, r1
    3b8a:	ca00      	ldmia	r2!, {}
    3b8c:	207c      	movs	r0, #124	; 0x7c
    3b8e:	e59d      	b.n	0x36cc
    3b90:	001f      	movs	r7, r3
    3b92:	e353      	b.n	0x423c
    3b94:	0004      	movs	r4, r0
    3b96:	e282      	b.n	0x409e
    3b98:	007c      	lsls	r4, r7, #1
    3b9a:	d58d      	bpl.n	0x3ab8
    3b9c:	007c      	lsls	r4, r7, #1
    3b9e:	c58d      	stmia	r5!, {r0, r2, r3, r7}
    3ba0:	2000      	movs	r0, #0
    3ba2:	d592      	bpl.n	0x3aca
    3ba4:	0fba      	lsrs	r2, r7, #30
    3ba6:	d28d      	bcs.n	0x3ac4
    3ba8:	c001      	stmia	r0!, {r0}
    3baa:	d283      	bcs.n	0x3ab4
    3bac:	3183      	adds	r1, #131	; 0x83
    3bae:	d080      	beq.n	0x3ab2
    3bb0:	c08c      	stmia	r0!, {r2, r3, r7}
    3bb2:	d58d      	bpl.n	0x3ad0
    3bb4:	2100      	movs	r1, #0
    3bb6:	d503      	bpl.n	0x3bc0
    3bb8:	2000      	movs	r0, #0
    3bba:	c592      	stmia	r5!, {r1, r4, r7}
    3bbc:	304c      	adds	r0, #76	; 0x4c
    3bbe:	e59d      	b.n	0x36fc
    3bc0:	30b0      	adds	r0, #176	; 0xb0
    3bc2:	e1c2      	b.n	0x3f4a
    3bc4:	0058      	lsls	r0, r3, #1
    3bc6:	ea00 0c02 	and.w	ip, r0, r2
    3bca:	e31a      	b.n	0x4202
    3bcc:	002b      	movs	r3, r5
    3bce:	0a00      	lsrs	r0, r0, #8
    3bd0:	0000      	movs	r0, r0
    3bd2:	e357      	b.n	0x4284
    3bd4:	0014      	movs	r4, r2
    3bd6:	0a00      	lsrs	r0, r0, #8
    3bd8:	0005      	movs	r5, r0
    3bda:	e153      	b.n	0x3e84
    3bdc:	3fba      	subs	r7, #186	; 0xba
    3bde:	c28d      	stmia	r2!, {r0, r2, r3, r7}
    3be0:	5185      	str	r5, [r0, r6]
    3be2:	c083      	stmia	r0!, {r0, r1, r7}
    3be4:	2100      	movs	r1, #0
    3be6:	c515      	stmia	r5!, {r0, r2, r4}
    3be8:	000d      	movs	r5, r1
    3bea:	ca00      	ldmia	r2!, {}
    3bec:	3090      	adds	r0, #144	; 0x90
    3bee:	e28d      	b.n	0x410c
    3bf0:	300c      	adds	r0, #12
    3bf2:	e58d      	b.n	0x3710
    3bf4:	3f5a      	subs	r7, #90	; 0x5a
    3bf6:	e28d      	b.n	0x4114
    3bf8:	3008      	adds	r0, #8
    3bfa:	e58d      	b.n	0x3718
    3bfc:	3f7a      	subs	r7, #122	; 0x7a
    3bfe:	e28d      	b.n	0x411c
    3c00:	3004      	adds	r0, #4
    3c02:	e58d      	b.n	0x3720
    3c04:	308c      	adds	r0, #140	; 0x8c
    3c06:	e28d      	b.n	0x4124
    3c08:	3000      	adds	r0, #0
    3c0a:	e58d      	b.n	0x3728
    3c0c:	2006      	movs	r0, #6
    3c0e:	e1a0      	b.n	0x3f52
    3c10:	307c      	adds	r0, #124	; 0x7c
    3c12:	e28d      	b.n	0x4130
    3c14:	1005      	asrs	r5, r0, #32
    3c16:	e1a0      	b.n	0x3f5a
    3c18:	000b      	movs	r3, r1
    3c1a:	e1a0      	b.n	0x3f5e
    3c1c:	f8ac ebff 	strh.w	lr, [ip, #3071]	; 0xbff
    3c20:	2000      	movs	r0, #0
    3c22:	e590      	b.n	0x3746
    3c24:	1008      	asrs	r0, r1, #32
    3c26:	e1a0      	b.n	0x3f6a
    3c28:	0011      	movs	r1, r2
    3c2a:	ea00 0008 	and.w	r0, r0, r8
    3c2e:	e153      	b.n	0x3ed8
    3c30:	3fba      	subs	r7, #186	; 0xba
    3c32:	c28d      	stmia	r2!, {r0, r2, r3, r7}
    3c34:	5185      	str	r5, [r0, r6]
    3c36:	c083      	stmia	r0!, {r0, r1, r7}
    3c38:	1001      	asrs	r1, r0, #32
    3c3a:	e288      	b.n	0x414e
    3c3c:	2100      	movs	r1, #0
    3c3e:	c515      	stmia	r5!, {r0, r2, r4}
    3c40:	000b      	movs	r3, r1
    3c42:	ca00      	ldmia	r2!, {}
    3c44:	207c      	movs	r0, #124	; 0x7c
    3c46:	e59d      	b.n	0x3784
    3c48:	001f      	movs	r7, r3
    3c4a:	e353      	b.n	0x42f4
    3c4c:	0004      	movs	r4, r0
    3c4e:	e282      	b.n	0x4156
    3c50:	007c      	lsls	r4, r7, #1
    3c52:	d58d      	bpl.n	0x3b70
    3c54:	007c      	lsls	r4, r7, #1
    3c56:	c58d      	stmia	r5!, {r0, r2, r3, r7}
    3c58:	2000      	movs	r0, #0
    3c5a:	d592      	bpl.n	0x3b82
    3c5c:	0fba      	lsrs	r2, r7, #30
    3c5e:	d28d      	bcs.n	0x3b7c
    3c60:	c001      	stmia	r0!, {r0}
    3c62:	d283      	bcs.n	0x3b6c
    3c64:	3183      	adds	r1, #131	; 0x83
    3c66:	d080      	beq.n	0x3b6a
    3c68:	c08c      	stmia	r0!, {r2, r3, r7}
    3c6a:	d58d      	bpl.n	0x3b88
    3c6c:	2100      	movs	r1, #0
    3c6e:	d503      	bpl.n	0x3c78
    3c70:	2000      	movs	r0, #0
    3c72:	c592      	stmia	r5!, {r1, r4, r7}
    3c74:	304c      	adds	r0, #76	; 0x4c
    3c76:	e59d      	b.n	0x37b4
    3c78:	3000      	adds	r0, #0
    3c7a:	e5c2      	b.n	0x3802
    3c7c:	002a      	movs	r2, r5
    3c7e:	ea00 0000 	and.w	r0, r0, r0
    3c82:	e357      	b.n	0x4334
    3c84:	0014      	movs	r4, r2
    3c86:	0a00      	lsrs	r0, r0, #8
    3c88:	0005      	movs	r5, r0
    3c8a:	e153      	b.n	0x3f34
    3c8c:	3fba      	subs	r7, #186	; 0xba
    3c8e:	c28d      	stmia	r2!, {r0, r2, r3, r7}
    3c90:	5185      	str	r5, [r0, r6]
    3c92:	c083      	stmia	r0!, {r0, r1, r7}
    3c94:	2100      	movs	r1, #0
    3c96:	c515      	stmia	r5!, {r0, r2, r4}
    3c98:	000d      	movs	r5, r1
    3c9a:	ca00      	ldmia	r2!, {}
    3c9c:	3090      	adds	r0, #144	; 0x90
    3c9e:	e28d      	b.n	0x41bc
    3ca0:	300c      	adds	r0, #12
    3ca2:	e58d      	b.n	0x37c0
    3ca4:	3f5a      	subs	r7, #90	; 0x5a
    3ca6:	e28d      	b.n	0x41c4
    3ca8:	3008      	adds	r0, #8
    3caa:	e58d      	b.n	0x37c8
    3cac:	3f7a      	subs	r7, #122	; 0x7a
    3cae:	e28d      	b.n	0x41cc
    3cb0:	3004      	adds	r0, #4
    3cb2:	e58d      	b.n	0x37d0
    3cb4:	308c      	adds	r0, #140	; 0x8c
    3cb6:	e28d      	b.n	0x41d4
    3cb8:	3000      	adds	r0, #0
    3cba:	e58d      	b.n	0x37d8
    3cbc:	2006      	movs	r0, #6
    3cbe:	e1a0      	b.n	0x4002
    3cc0:	307c      	adds	r0, #124	; 0x7c
    3cc2:	e28d      	b.n	0x41e0
    3cc4:	1005      	asrs	r5, r0, #32
    3cc6:	e1a0      	b.n	0x400a
    3cc8:	000b      	movs	r3, r1
    3cca:	e1a0      	b.n	0x400e
    3ccc:	f880 ebff 	strb.w	lr, [r0, #3071]	; 0xbff
    3cd0:	2000      	movs	r0, #0
    3cd2:	e590      	b.n	0x37f6
    3cd4:	1008      	asrs	r0, r1, #32
    3cd6:	e1a0      	b.n	0x401a
    3cd8:	0011      	movs	r1, r2
    3cda:	ea00 0008 	and.w	r0, r0, r8
    3cde:	e153      	b.n	0x3f88
    3ce0:	3fba      	subs	r7, #186	; 0xba
    3ce2:	c28d      	stmia	r2!, {r0, r2, r3, r7}
    3ce4:	5185      	str	r5, [r0, r6]
    3ce6:	c083      	stmia	r0!, {r0, r1, r7}
    3ce8:	1001      	asrs	r1, r0, #32
    3cea:	e288      	b.n	0x41fe
    3cec:	2100      	movs	r1, #0
    3cee:	c515      	stmia	r5!, {r0, r2, r4}
    3cf0:	000b      	movs	r3, r1
    3cf2:	ca00      	ldmia	r2!, {}
    3cf4:	207c      	movs	r0, #124	; 0x7c
    3cf6:	e59d      	b.n	0x3834
    3cf8:	001f      	movs	r7, r3
    3cfa:	e353      	b.n	0x43a4
    3cfc:	0004      	movs	r4, r0
    3cfe:	e282      	b.n	0x4206
    3d00:	c001      	stmia	r0!, {r0}
    3d02:	d283      	bcs.n	0x3c0c
    3d04:	007c      	lsls	r4, r7, #1
    3d06:	d58d      	bpl.n	0x3c24
    3d08:	c08c      	stmia	r0!, {r2, r3, r7}
    3d0a:	d58d      	bpl.n	0x3c28
    3d0c:	0fba      	lsrs	r2, r7, #30
    3d0e:	d28d      	bcs.n	0x3c2c
    3d10:	2000      	movs	r0, #0
    3d12:	d592      	bpl.n	0x3c3a
    3d14:	007c      	lsls	r4, r7, #1
    3d16:	c58d      	stmia	r5!, {r0, r2, r3, r7}
    3d18:	3183      	adds	r1, #131	; 0x83
    3d1a:	d080      	beq.n	0x3c1e
    3d1c:	2100      	movs	r1, #0
    3d1e:	d503      	bpl.n	0x3d28
    3d20:	2000      	movs	r0, #0
    3d22:	c592      	stmia	r5!, {r1, r4, r7}
    3d24:	304c      	adds	r0, #76	; 0x4c
    3d26:	e59d      	b.n	0x3864
    3d28:	3000      	adds	r0, #0
    3d2a:	e582      	b.n	0x3832
    3d2c:	8001      	strh	r1, [r0, #0]
    3d2e:	e1a0      	b.n	0x4072
    3d30:	ff71 eaff 	vpmin.u<illegal width 64>	q15, <illegal reg q8.5>, <illegal reg q15.5>
    3d34:	903c      	str	r0, [sp, #240]	; 0xf0
    3d36:	e58d      	b.n	0x3854
    3d38:	2044      	movs	r0, #68	; 0x44
    3d3a:	e58d      	b.n	0x3858
    3d3c:	1024      	asrs	r4, r4, #32
    3d3e:	e58d      	b.n	0x385c
    3d40:	9030      	str	r0, [sp, #192]	; 0xc0
    3d42:	e59d      	b.n	0x3880
    3d44:	0018      	movs	r0, r3
    3d46:	e58d      	b.n	0x3864
    3d48:	a010      	add	r0, pc, #64	; (adr r0, 0x3d8c)
    3d4a:	e38a      	b.n	0x4462
    3d4c:	0004      	movs	r4, r0
    3d4e:	ea00 903c 			; <UNDEFINED> instruction: 0xea00903c
    3d52:	e58d      	b.n	0x3870
    3d54:	2044      	movs	r0, #68	; 0x44
    3d56:	e58d      	b.n	0x3874
    3d58:	1024      	asrs	r4, r4, #32
    3d5a:	e58d      	b.n	0x3878
    3d5c:	9030      	str	r0, [sp, #192]	; 0xc0
    3d5e:	e59d      	b.n	0x389c
    3d60:	0018      	movs	r0, r3
    3d62:	e58d      	b.n	0x3880
    3d64:	0020      	movs	r0, r4
    3d66:	e31a      	b.n	0x439e
    3d68:	208c      	movs	r0, #140	; 0x8c
    3d6a:	e59d      	b.n	0x38a8
    3d6c:	002d      	movs	r5, r5
    3d6e:	0a00      	lsrs	r0, r0, #8
    3d70:	0000      	movs	r0, r0
    3d72:	e357      	b.n	0x4424
    3d74:	0015      	movs	r5, r2
    3d76:	0a00      	lsrs	r0, r0, #8
    3d78:	0002      	movs	r2, r0
    3d7a:	e155      	b.n	0x4028
    3d7c:	3fba      	subs	r7, #186	; 0xba
    3d7e:	b28d      	uxth	r5, r1
    3d80:	5185      	str	r5, [r0, r6]
    3d82:	b083      	sub	sp, #12
    3d84:	5c01      	ldrb	r1, [r0, r0]
    3d86:	b245      	sxtb	r5, r0
    3d88:	0030      	movs	r0, r6
    3d8a:	b895      			; <UNDEFINED> instruction: 0xb895
    3d8c:	000d      	movs	r5, r1
    3d8e:	ba00      	rev	r0, r0
    3d90:	3090      	adds	r0, #144	; 0x90
    3d92:	e28d      	b.n	0x42b0
    3d94:	300c      	adds	r0, #12
    3d96:	e58d      	b.n	0x38b4
    3d98:	3f5a      	subs	r7, #90	; 0x5a
    3d9a:	e28d      	b.n	0x42b8
    3d9c:	3008      	adds	r0, #8
    3d9e:	e58d      	b.n	0x38bc
    3da0:	3f7a      	subs	r7, #122	; 0x7a
    3da2:	e28d      	b.n	0x42c0
    3da4:	3004      	adds	r0, #4
    3da6:	e58d      	b.n	0x38c4
    3da8:	308c      	adds	r0, #140	; 0x8c
    3daa:	e28d      	b.n	0x42c8
    3dac:	3000      	adds	r0, #0
    3dae:	e58d      	b.n	0x38cc
    3db0:	1005      	asrs	r5, r0, #32
    3db2:	e1a0      	b.n	0x40f6
    3db4:	307c      	adds	r0, #124	; 0x7c
    3db6:	e28d      	b.n	0x42d4
    3db8:	2006      	movs	r0, #6
    3dba:	e1a0      	b.n	0x40fe
    3dbc:	000b      	movs	r3, r1
    3dbe:	e1a0      	b.n	0x4102
    3dc0:	f843 ebff 	str.w	lr, [r3], #255
    3dc4:	0030      	movs	r0, r6
    3dc6:	e890 3008 	ldmia.w	r0, {r3, ip, sp}
    3dca:	e1a0      	b.n	0x410e
    3dcc:	00b0      	lsls	r0, r6, #2
    3dce:	ea00 0002 	and.w	r0, r0, r2
    3dd2:	e158      	b.n	0x4086
    3dd4:	3001      	adds	r0, #1
    3dd6:	e288      	b.n	0x42ea
    3dd8:	2fba      	cmp	r7, #186	; 0xba
    3dda:	b28d      	uxth	r5, r1
    3ddc:	5185      	str	r5, [r0, r6]
    3dde:	b082      	sub	sp, #8
    3de0:	5c01      	ldrb	r1, [r0, r0]
    3de2:	b245      	sxtb	r5, r0
    3de4:	0030      	movs	r0, r6
    3de6:	b895      			; <UNDEFINED> instruction: 0xb895
    3de8:	00a9      	lsls	r1, r5, #2
    3dea:	ba00      	rev	r0, r0
    3dec:	107c      	asrs	r4, r7, #1
    3dee:	e59d      	b.n	0x392c
    3df0:	1007      	asrs	r7, r0, #32
    3df2:	e281      	b.n	0x42f8
    3df4:	1007      	asrs	r7, r0, #32
    3df6:	e3c1      	b.n	0x457c
    3df8:	0030      	movs	r0, r6
    3dfa:	e8b1 001f 	ldmia.w	r1!, {r0, r1, r2, r3, r4}
    3dfe:	e352      	b.n	0x44a6
    3e00:	107c      	asrs	r4, r7, #1
    3e02:	c58d      	stmia	r5!, {r0, r2, r3, r7}
    3e04:	00a2      	lsls	r2, r4, #2
    3e06:	ca00      	ldmia	r2!, {}
    3e08:	107c      	asrs	r4, r7, #1
    3e0a:	e58d      	b.n	0x3928
    3e0c:	1fba      	subs	r2, r7, #6
    3e0e:	e28d      	b.n	0x432c
    3e10:	0001      	movs	r1, r0
    3e12:	e282      	b.n	0x431a
    3e14:	2182      	movs	r1, #130	; 0x82
    3e16:	e081      	b.n	0x3f1c
    3e18:	008c      	lsls	r4, r1, #2
    3e1a:	e58d      	b.n	0x3938
    3e1c:	4100      	asrs	r0, r0
    3e1e:	e502      	b.n	0x3826
    3e20:	50fc      	str	r4, [r7, r3]
    3e22:	e502      	b.n	0x382a
    3e24:	009a      	lsls	r2, r3, #2
    3e26:	ea00 0010 	and.w	r0, r0, r0, lsr #32
    3e2a:	e31a      	b.n	0x4462
    3e2c:	000d      	movs	r5, r1
    3e2e:	0a00      	lsrs	r0, r0, #8
    3e30:	0000      	movs	r0, r0
    3e32:	e357      	b.n	0x44e4
    3e34:	006c      	lsls	r4, r5, #1
    3e36:	1a00      	subs	r0, r0, r0
    3e38:	0002      	movs	r2, r0
    3e3a:	e158      	b.n	0x40ee
    3e3c:	3001      	adds	r0, #1
    3e3e:	e288      	b.n	0x4352
    3e40:	0081      	lsls	r1, r0, #2
    3e42:	ba00      	rev	r0, r0
    3e44:	107c      	asrs	r4, r7, #1
    3e46:	e59d      	b.n	0x3984
    3e48:	001f      	movs	r7, r3
    3e4a:	e352      	b.n	0x44f2
    3e4c:	4004      	ands	r4, r0
    3e4e:	e491      	b.n	0x3774
    3e50:	0001      	movs	r1, r0
    3e52:	d282      	bcs.n	0x3d5a
    3e54:	008c      	lsls	r4, r1, #2
    3e56:	d58d      	bpl.n	0x3d74
    3e58:	107c      	asrs	r4, r7, #1
    3e5a:	d58d      	bpl.n	0x3d78
    3e5c:	107c      	asrs	r4, r7, #1
    3e5e:	c58d      	stmia	r5!, {r0, r2, r3, r7}
    3e60:	008a      	lsls	r2, r1, #2
    3e62:	ca00      	ldmia	r2!, {}
    3e64:	0086      	lsls	r6, r0, #2
    3e66:	ea00 0040 	and.w	r0, r0, r0, lsl #1
    3e6a:	e31a      	b.n	0x44a2
    3e6c:	002e      	movs	r6, r5
    3e6e:	0a00      	lsrs	r0, r0, #8
    3e70:	0000      	movs	r0, r0
    3e72:	e357      	b.n	0x4524
    3e74:	0016      	movs	r6, r2
    3e76:	0a00      	lsrs	r0, r0, #8
    3e78:	0002      	movs	r2, r0
    3e7a:	e155      	b.n	0x4128
    3e7c:	0005      	movs	r5, r0
    3e7e:	aa00      	add	r2, sp, #0
    3e80:	3fba      	subs	r7, #186	; 0xba
    3e82:	e28d      	b.n	0x43a0
    3e84:	5185      	str	r5, [r0, r6]
    3e86:	e083      	b.n	0x3f90
    3e88:	4100      	asrs	r0, r0
    3e8a:	e515      	b.n	0x38b8
    3e8c:	4804      	ldr	r0, [pc, #16]	; (0x3ea0)
    3e8e:	e1a0      	b.n	0x41d2
    3e90:	4824      	ldr	r0, [pc, #144]	; (0x3f24)
    3e92:	e1a0      	b.n	0x41d6
    3e94:	0067      	lsls	r7, r4, #1
    3e96:	ea00 3090 	and.w	r0, r0, r0, lsr #14
    3e9a:	e28d      	b.n	0x43b8
    3e9c:	300c      	adds	r0, #12
    3e9e:	e58d      	b.n	0x39bc
    3ea0:	3f5a      	subs	r7, #90	; 0x5a
    3ea2:	e28d      	b.n	0x43c0
    3ea4:	3008      	adds	r0, #8
    3ea6:	e58d      	b.n	0x39c4
    3ea8:	3f7a      	subs	r7, #122	; 0x7a
    3eaa:	e28d      	b.n	0x43c8
    3eac:	3004      	adds	r0, #4
    3eae:	e58d      	b.n	0x39cc
    3eb0:	308c      	adds	r0, #140	; 0x8c
    3eb2:	e28d      	b.n	0x43d0
    3eb4:	3000      	adds	r0, #0
    3eb6:	e58d      	b.n	0x39d4
    3eb8:	2006      	movs	r0, #6
    3eba:	e1a0      	b.n	0x41fe
    3ebc:	307c      	adds	r0, #124	; 0x7c
    3ebe:	e28d      	b.n	0x43dc
    3ec0:	1005      	asrs	r5, r0, #32
    3ec2:	e1a0      	b.n	0x4206
    3ec4:	000b      	movs	r3, r1
    3ec6:	e1a0      	b.n	0x420a
    3ec8:	f801 ebff 	strb.w	lr, [r1], #255
    3ecc:	40b0      	lsls	r0, r6
    3ece:	e1d0      	b.n	0x4272
    3ed0:	0058      	lsls	r0, r3, #1
    3ed2:	ea00 0002 	and.w	r0, r0, r2
    3ed6:	e158      	b.n	0x418a
    3ed8:	2fba      	cmp	r7, #186	; 0xba
    3eda:	b28d      	uxth	r5, r1
    3edc:	5185      	str	r5, [r0, r6]
    3ede:	b082      	sub	sp, #8
    3ee0:	3001      	adds	r0, #1
    3ee2:	e288      	b.n	0x43f6
    3ee4:	4100      	asrs	r0, r0
    3ee6:	b515      	push	{r0, r2, r4, lr}
    3ee8:	000c      	movs	r4, r1
    3eea:	ba00      	rev	r0, r0
    3eec:	107c      	asrs	r4, r7, #1
    3eee:	e59d      	b.n	0x3a2c
    3ef0:	001f      	movs	r7, r3
    3ef2:	e352      	b.n	0x459a
    3ef4:	0004      	movs	r4, r0
    3ef6:	e281      	b.n	0x43fc
    3ef8:	007c      	lsls	r4, r7, #1
    3efa:	c58d      	stmia	r5!, {r0, r2, r3, r7}
    3efc:	40b0      	lsls	r0, r6
    3efe:	c1d1      	stmia	r1!, {r0, r4, r6, r7}
    3f00:	0062      	lsls	r2, r4, #1
    3f02:	ca00      	ldmia	r2!, {}
    3f04:	c001      	stmia	r0!, {r0}
    3f06:	e282      	b.n	0x440e
    3f08:	c08c      	stmia	r0!, {r2, r3, r7}
    3f0a:	e58d      	b.n	0x3a28
    3f0c:	4000      	ands	r0, r0
    3f0e:	e591      	b.n	0x3a34
    3f10:	1fba      	subs	r2, r7, #6
    3f12:	e28d      	b.n	0x4430
    3f14:	2182      	movs	r1, #130	; 0x82
    3f16:	e081      	b.n	0x401c
    3f18:	007c      	lsls	r4, r7, #1
    3f1a:	e58d      	b.n	0x3a38
    3f1c:	4100      	asrs	r0, r0
    3f1e:	e502      	b.n	0x3926
    3f20:	4804      	ldr	r0, [pc, #16]	; (0x3f34)
    3f22:	e1a0      	b.n	0x4266
    3f24:	4824      	ldr	r0, [pc, #144]	; (0x3fb8)
    3f26:	e1a0      	b.n	0x426a
    3f28:	0058      	lsls	r0, r3, #1
    3f2a:	ea00 0c02 	and.w	ip, r0, r2
    3f2e:	e31a      	b.n	0x4566
    3f30:	002b      	movs	r3, r5
    3f32:	0a00      	lsrs	r0, r0, #8
    3f34:	0000      	movs	r0, r0
    3f36:	e357      	b.n	0x45e8
    3f38:	0014      	movs	r4, r2
    3f3a:	0a00      	lsrs	r0, r0, #8
    3f3c:	0002      	movs	r2, r0
    3f3e:	e155      	b.n	0x41ec
    3f40:	3fba      	subs	r7, #186	; 0xba
    3f42:	b28d      	uxth	r5, r1
    3f44:	5185      	str	r5, [r0, r6]
    3f46:	b083      	sub	sp, #12
    3f48:	4100      	asrs	r0, r0
    3f4a:	b555      	push	{r0, r2, r4, r6, lr}
    3f4c:	000d      	movs	r5, r1
    3f4e:	ba00      	rev	r0, r0
    3f50:	3090      	adds	r0, #144	; 0x90
    3f52:	e28d      	b.n	0x4470
    3f54:	300c      	adds	r0, #12
    3f56:	e58d      	b.n	0x3a74
    3f58:	3f5a      	subs	r7, #90	; 0x5a
    3f5a:	e28d      	b.n	0x4478
    3f5c:	3008      	adds	r0, #8
    3f5e:	e58d      	b.n	0x3a7c
    3f60:	3f7a      	subs	r7, #122	; 0x7a
    3f62:	e28d      	b.n	0x4480
    3f64:	3004      	adds	r0, #4
    3f66:	e58d      	b.n	0x3a84
    3f68:	308c      	adds	r0, #140	; 0x8c
    3f6a:	e28d      	b.n	0x4488
    3f6c:	3000      	adds	r0, #0
    3f6e:	e58d      	b.n	0x3a8c
    3f70:	2006      	movs	r0, #6
    3f72:	e1a0      	b.n	0x42b6
    3f74:	307c      	adds	r0, #124	; 0x7c
    3f76:	e28d      	b.n	0x4494
    3f78:	1005      	asrs	r5, r0, #32
    3f7a:	e1a0      	b.n	0x42be
    3f7c:	000b      	movs	r3, r1
    3f7e:	e1a0      	b.n	0x42c2
    3f80:	f7d3 ebff 			; <UNDEFINED> instruction: 0xf7d3ebff
    3f84:	4000      	ands	r0, r0
    3f86:	e5d0      	b.n	0x3b2a
    3f88:	3008      	adds	r0, #8
    3f8a:	e1a0      	b.n	0x42ce
    3f8c:	0012      	movs	r2, r2
    3f8e:	ea00 0002 	and.w	r0, r0, r2
    3f92:	e158      	b.n	0x4246
    3f94:	2fba      	cmp	r7, #186	; 0xba
    3f96:	b28d      	uxth	r5, r1
    3f98:	5185      	str	r5, [r0, r6]
    3f9a:	b082      	sub	sp, #8
    3f9c:	3001      	adds	r0, #1
    3f9e:	e288      	b.n	0x44b2
    3fa0:	4100      	asrs	r0, r0
    3fa2:	b555      	push	{r0, r2, r4, r6, lr}
    3fa4:	000c      	movs	r4, r1
    3fa6:	ba00      	rev	r0, r0
    3fa8:	001f      	movs	r7, r3
    3faa:	e352      	b.n	0x4652
    3fac:	c001      	stmia	r0!, {r0}
    3fae:	d282      	bcs.n	0x3eb6
    3fb0:	107c      	asrs	r4, r7, #1
    3fb2:	e59d      	b.n	0x3af0
    3fb4:	c08c      	stmia	r0!, {r2, r3, r7}
    3fb6:	d58d      	bpl.n	0x3ed4
    3fb8:	0004      	movs	r4, r0
    3fba:	e281      	b.n	0x44c0
    3fbc:	4000      	ands	r0, r0
    3fbe:	d591      	bpl.n	0x3ee4
    3fc0:	1fba      	subs	r2, r7, #6
    3fc2:	d28d      	bcs.n	0x3ee0
    3fc4:	2182      	movs	r1, #130	; 0x82
    3fc6:	d081      	beq.n	0x3ecc
    3fc8:	007c      	lsls	r4, r7, #1
    3fca:	d58d      	bpl.n	0x3ee8
    3fcc:	007c      	lsls	r4, r7, #1
    3fce:	c58d      	stmia	r5!, {r0, r2, r3, r7}
    3fd0:	4000      	ands	r0, r0
    3fd2:	c5d1      	stmia	r5!, {r0, r4, r6, r7}
    3fd4:	4100      	asrs	r0, r0
    3fd6:	d502      	bpl.n	0x3fde
    3fd8:	40ff      	lsrs	r7, r7
    3fda:	d204      	bcs.n	0x3fe6
    3fdc:	40ff      	lsrs	r7, r7
    3fde:	e204      	b.n	0x43ea
    3fe0:	002a      	movs	r2, r5
    3fe2:	ea00 0000 	and.w	r0, r0, r0
    3fe6:	e357      	b.n	0x4698
    3fe8:	0014      	movs	r4, r2
    3fea:	0a00      	lsrs	r0, r0, #8
    3fec:	0002      	movs	r2, r0
    3fee:	e155      	b.n	0x429c
    3ff0:	3fba      	subs	r7, #186	; 0xba
    3ff2:	b28d      	uxth	r5, r1
    3ff4:	5185      	str	r5, [r0, r6]
    3ff6:	b083      	sub	sp, #12
    3ff8:	4100      	asrs	r0, r0
    3ffa:	b515      	push	{r0, r2, r4, lr}
    3ffc:	000d      	movs	r5, r1
    3ffe:	ba00      	rev	r0, r0
    4000:	3090      	adds	r0, #144	; 0x90
    4002:	e28d      	b.n	0x4520
    4004:	300c      	adds	r0, #12
    4006:	e58d      	b.n	0x3b24
    4008:	3f5a      	subs	r7, #90	; 0x5a
    400a:	e28d      	b.n	0x4528
    400c:	3008      	adds	r0, #8
    400e:	e58d      	b.n	0x3b2c
    4010:	3f7a      	subs	r7, #122	; 0x7a
    4012:	e28d      	b.n	0x4530
    4014:	3004      	adds	r0, #4
    4016:	e58d      	b.n	0x3b34
    4018:	308c      	adds	r0, #140	; 0x8c
    401a:	e28d      	b.n	0x4538
    401c:	3000      	adds	r0, #0
    401e:	e58d      	b.n	0x3b3c
    4020:	2006      	movs	r0, #6
    4022:	e1a0      	b.n	0x4366
    4024:	307c      	adds	r0, #124	; 0x7c
    4026:	e28d      	b.n	0x4544
    4028:	1005      	asrs	r5, r0, #32
    402a:	e1a0      	b.n	0x436e
    402c:	000b      	movs	r3, r1
    402e:	e1a0      	b.n	0x4372
    4030:	f7a7 ebff 			; <UNDEFINED> instruction: 0xf7a7ebff
    4034:	4000      	ands	r0, r0
    4036:	e590      	b.n	0x3b5a
    4038:	3008      	adds	r0, #8
    403a:	e1a0      	b.n	0x437e
    403c:	0013      	movs	r3, r2
    403e:	ea00 0002 	and.w	r0, r0, r2
    4042:	e158      	b.n	0x42f6
    4044:	3001      	adds	r0, #1
    4046:	e288      	b.n	0x455a
    4048:	0003      	movs	r3, r0
    404a:	aa00      	add	r2, sp, #0
    404c:	2fba      	cmp	r7, #186	; 0xba
    404e:	e28d      	b.n	0x456c
    4050:	5185      	str	r5, [r0, r6]
    4052:	e082      	b.n	0x415a
    4054:	4100      	asrs	r0, r0
    4056:	e515      	b.n	0x3a84
    4058:	000c      	movs	r4, r1
    405a:	ea00 107c 	and.w	r0, r0, ip, ror #5
    405e:	e59d      	b.n	0x3b9c
    4060:	001f      	movs	r7, r3
    4062:	e352      	b.n	0x470a
    4064:	0004      	movs	r4, r0
    4066:	e281      	b.n	0x456c
    4068:	007c      	lsls	r4, r7, #1
    406a:	c58d      	stmia	r5!, {r0, r2, r3, r7}
    406c:	4000      	ands	r0, r0
    406e:	c591      	stmia	r5!, {r0, r4, r7}
    4070:	0006      	movs	r6, r0
    4072:	ca00      	ldmia	r2!, {}
    4074:	c001      	stmia	r0!, {r0}
    4076:	e282      	b.n	0x457e
    4078:	c08c      	stmia	r0!, {r2, r3, r7}
    407a:	e58d      	b.n	0x3b98
    407c:	007c      	lsls	r4, r7, #1
    407e:	e58d      	b.n	0x3b9c
    4080:	4000      	ands	r0, r0
    4082:	e591      	b.n	0x3ba8
    4084:	1fba      	subs	r2, r7, #6
    4086:	e28d      	b.n	0x45a4
    4088:	2182      	movs	r1, #130	; 0x82
    408a:	e081      	b.n	0x4190
    408c:	4100      	asrs	r0, r0
    408e:	e502      	b.n	0x3a96
    4090:	5000      	str	r0, [r0, r0]
    4092:	e3a0      	b.n	0x47d6
    4094:	ab01      	add	r3, sp, #4
    4096:	e3ca      	b.n	0x482e
    4098:	2000      	movs	r0, #0
    409a:	e3a0      	b.n	0x47de
    409c:	02b4      	lsls	r4, r6, #10
    409e:	ea00 0000 	and.w	r0, r0, r0
    40a2:	e357      	b.n	0x4754
    40a4:	2044      	movs	r0, #68	; 0x44
    40a6:	e58d      	b.n	0x3bc4
    40a8:	903c      	str	r0, [sp, #240]	; 0xf0
    40aa:	e58d      	b.n	0x3bc8
    40ac:	0018      	movs	r0, r3
    40ae:	e58d      	b.n	0x3bcc
    40b0:	9030      	str	r0, [sp, #192]	; 0xc0
    40b2:	e59d      	b.n	0x3bf0
    40b4:	208c      	movs	r0, #140	; 0x8c
    40b6:	e59d      	b.n	0x3bf4
    40b8:	0014      	movs	r4, r2
    40ba:	0a00      	lsrs	r0, r0, #8
    40bc:	0002      	movs	r2, r0
    40be:	e155      	b.n	0x436c
    40c0:	3fba      	subs	r7, #186	; 0xba
    40c2:	b28d      	uxth	r5, r1
    40c4:	5185      	str	r5, [r0, r6]
    40c6:	b083      	sub	sp, #12
    40c8:	4100      	asrs	r0, r0
    40ca:	b515      	push	{r0, r2, r4, lr}
    40cc:	000d      	movs	r5, r1
    40ce:	ba00      	rev	r0, r0
    40d0:	3090      	adds	r0, #144	; 0x90
    40d2:	e28d      	b.n	0x45f0
    40d4:	300c      	adds	r0, #12
    40d6:	e58d      	b.n	0x3bf4
    40d8:	3f5a      	subs	r7, #90	; 0x5a
    40da:	e28d      	b.n	0x45f8
    40dc:	3008      	adds	r0, #8
    40de:	e58d      	b.n	0x3bfc
    40e0:	3f7a      	subs	r7, #122	; 0x7a
    40e2:	e28d      	b.n	0x4600
    40e4:	3004      	adds	r0, #4
    40e6:	e58d      	b.n	0x3c04
    40e8:	308c      	adds	r0, #140	; 0x8c
    40ea:	e28d      	b.n	0x4608
    40ec:	3000      	adds	r0, #0
    40ee:	e58d      	b.n	0x3c0c
    40f0:	2006      	movs	r0, #6
    40f2:	e1a0      	b.n	0x4436
    40f4:	307c      	adds	r0, #124	; 0x7c
    40f6:	e28d      	b.n	0x4614
    40f8:	1005      	asrs	r5, r0, #32
    40fa:	e1a0      	b.n	0x443e
    40fc:	000b      	movs	r3, r1
    40fe:	e1a0      	b.n	0x4442
    4100:	f773 ebff 			; <UNDEFINED> instruction: 0xf773ebff
    4104:	4000      	ands	r0, r0
    4106:	e590      	b.n	0x3c2a
    4108:	3008      	adds	r0, #8
    410a:	e1a0      	b.n	0x444e
    410c:	0011      	movs	r1, r2
    410e:	ea00 0002 	and.w	r0, r0, r2
    4112:	e158      	b.n	0x43c6
    4114:	2fba      	cmp	r7, #186	; 0xba
    4116:	b28d      	uxth	r5, r1
    4118:	5185      	str	r5, [r0, r6]
    411a:	b082      	sub	sp, #8
    411c:	3001      	adds	r0, #1
    411e:	e288      	b.n	0x4632
    4120:	4100      	asrs	r0, r0
    4122:	b515      	push	{r0, r2, r4, lr}
    4124:	000b      	movs	r3, r1
    4126:	ba00      	rev	r0, r0
    4128:	107c      	asrs	r4, r7, #1
    412a:	e59d      	b.n	0x3c68
    412c:	001f      	movs	r7, r3
    412e:	e352      	b.n	0x47d6
    4130:	0004      	movs	r4, r0
    4132:	e281      	b.n	0x4638
    4134:	007c      	lsls	r4, r7, #1
    4136:	d58d      	bpl.n	0x4054
    4138:	007c      	lsls	r4, r7, #1
    413a:	c58d      	stmia	r5!, {r0, r2, r3, r7}
    413c:	4000      	ands	r0, r0
    413e:	d591      	bpl.n	0x4064
    4140:	1fba      	subs	r2, r7, #6
    4142:	d28d      	bcs.n	0x4060
    4144:	c001      	stmia	r0!, {r0}
    4146:	d282      	bcs.n	0x404e
    4148:	2182      	movs	r1, #130	; 0x82
    414a:	d081      	beq.n	0x4050
    414c:	c08c      	stmia	r0!, {r2, r3, r7}
    414e:	d58d      	bpl.n	0x406c
    4150:	4100      	asrs	r0, r0
    4152:	d502      	bpl.n	0x415a
    4154:	4000      	ands	r0, r0
    4156:	c591      	stmia	r5!, {r0, r4, r7}
    4158:	1078      	asrs	r0, r7, #1
    415a:	e3a0      	b.n	0x489e
    415c:	2cd0      	cmp	r4, #208	; 0xd0
    415e:	e51f      	b.n	0x3ba0
    4160:	28b8      	cmp	r0, #184	; 0xb8
    4162:	e1cd      	b.n	0x4500
    4164:	2cd4      	cmp	r4, #212	; 0xd4
    4166:	e51f      	b.n	0x3ba8
    4168:	5000      	str	r0, [r0, r0]
    416a:	e3a0      	b.n	0x48ae
    416c:	2070      	movs	r0, #112	; 0x70
    416e:	e58d      	b.n	0x3c8c
    4170:	a002      	add	r0, pc, #8	; (adr r0, 0x417c)
    4172:	e38a      	b.n	0x488a
    4174:	2002      	movs	r0, #2
    4176:	e3a0      	b.n	0x48ba
    4178:	1024      	asrs	r4, r4, #32
    417a:	e58d      	b.n	0x3c98
    417c:	027c      	lsls	r4, r7, #9
    417e:	ea00 0000 	and.w	r0, r0, r0
    4182:	e357      	b.n	0x4834
    4184:	903c      	str	r0, [sp, #240]	; 0xf0
    4186:	e58d      	b.n	0x3ca4
    4188:	2044      	movs	r0, #68	; 0x44
    418a:	e58d      	b.n	0x3ca8
    418c:	1024      	asrs	r4, r4, #32
    418e:	e58d      	b.n	0x3cac
    4190:	9030      	str	r0, [sp, #192]	; 0xc0
    4192:	e59d      	b.n	0x3cd0
    4194:	0018      	movs	r0, r3
    4196:	e58d      	b.n	0x3cb4
    4198:	308c      	adds	r0, #140	; 0x8c
    419a:	e59d      	b.n	0x3cd8
    419c:	0014      	movs	r4, r2
    419e:	0a00      	lsrs	r0, r0, #8
    41a0:	0003      	movs	r3, r0
    41a2:	e155      	b.n	0x4450
    41a4:	3fba      	subs	r7, #186	; 0xba
    41a6:	b28d      	uxth	r5, r1
    41a8:	5185      	str	r5, [r0, r6]
    41aa:	b083      	sub	sp, #12
    41ac:	3100      	adds	r1, #0
    41ae:	b515      	push	{r0, r2, r4, lr}
    41b0:	000d      	movs	r5, r1
    41b2:	ba00      	rev	r0, r0
    41b4:	3090      	adds	r0, #144	; 0x90
    41b6:	e28d      	b.n	0x46d4
    41b8:	300c      	adds	r0, #12
    41ba:	e58d      	b.n	0x3cd8
    41bc:	3f5a      	subs	r7, #90	; 0x5a
    41be:	e28d      	b.n	0x46dc
    41c0:	3008      	adds	r0, #8
    41c2:	e58d      	b.n	0x3ce0
    41c4:	3f7a      	subs	r7, #122	; 0x7a
    41c6:	e28d      	b.n	0x46e4
    41c8:	3004      	adds	r0, #4
    41ca:	e58d      	b.n	0x3ce8
    41cc:	308c      	adds	r0, #140	; 0x8c
    41ce:	e28d      	b.n	0x46ec
    41d0:	3000      	adds	r0, #0
    41d2:	e58d      	b.n	0x3cf0
    41d4:	2006      	movs	r0, #6
    41d6:	e1a0      	b.n	0x451a
    41d8:	307c      	adds	r0, #124	; 0x7c
    41da:	e28d      	b.n	0x46f8
    41dc:	1005      	asrs	r5, r0, #32
    41de:	e1a0      	b.n	0x4522
    41e0:	000b      	movs	r3, r1
    41e2:	e1a0      	b.n	0x4526
    41e4:	f73a ebff 			; <UNDEFINED> instruction: 0xf73aebff
    41e8:	3000      	adds	r0, #0
    41ea:	e590      	b.n	0x3d0e
    41ec:	301c      	adds	r0, #28
    41ee:	e58d      	b.n	0x3d0c
    41f0:	0017      	movs	r7, r2
    41f2:	ea00 0003 	and.w	r0, r0, r3
    41f6:	e158      	b.n	0x44aa
    41f8:	3fba      	subs	r7, #186	; 0xba
    41fa:	b28d      	uxth	r5, r1
    41fc:	5185      	str	r5, [r0, r6]
    41fe:	b083      	sub	sp, #12
    4200:	2001      	movs	r0, #1
    4202:	e288      	b.n	0x4716
    4204:	3100      	adds	r1, #0
    4206:	b515      	push	{r0, r2, r4, lr}
    4208:	000f      	movs	r7, r1
    420a:	ba00      	rev	r0, r0
    420c:	107c      	asrs	r4, r7, #1
    420e:	e59d      	b.n	0x3d4c
    4210:	001f      	movs	r7, r3
    4212:	e353      	b.n	0x48bc
    4214:	0004      	movs	r4, r0
    4216:	e281      	b.n	0x471c
    4218:	0009      	movs	r1, r1
    421a:	ca00      	ldmia	r2!, {}
    421c:	007c      	lsls	r4, r7, #1
    421e:	e58d      	b.n	0x3d3c
    4220:	1000      	asrs	r0, r0, #32
    4222:	e591      	b.n	0x3d48
    4224:	101c      	asrs	r4, r3, #32
    4226:	e58d      	b.n	0x3d44
    4228:	1fba      	subs	r2, r7, #6
    422a:	e28d      	b.n	0x4748
    422c:	c001      	stmia	r0!, {r0}
    422e:	e283      	b.n	0x4738
    4230:	3183      	adds	r1, #131	; 0x83
    4232:	e081      	b.n	0x4338
    4234:	101c      	asrs	r4, r3, #32
    4236:	e59d      	b.n	0x3d74
    4238:	c08c      	stmia	r0!, {r2, r3, r7}
    423a:	e58d      	b.n	0x3d58
    423c:	1100      	asrs	r0, r0, #4
    423e:	e503      	b.n	0x3c48
    4240:	0002      	movs	r2, r0
    4242:	ea00 007c 	and.w	r0, r0, ip, ror #1
    4246:	e58d      	b.n	0x3d64
    4248:	3000      	adds	r0, #0
    424a:	e591      	b.n	0x3d70
    424c:	301c      	adds	r0, #28
    424e:	e58d      	b.n	0x3d6c
    4250:	8002      	strh	r2, [r0, #0]
    4252:	e1a0      	b.n	0x4596
    4254:	3000      	adds	r0, #0
    4256:	e3a0      	b.n	0x499a
    4258:	3087      	adds	r0, #135	; 0x87
    425a:	e5cd      	b.n	0x3df8
    425c:	301c      	adds	r0, #28
    425e:	e59d      	b.n	0x3d9c
    4260:	0000      	movs	r0, r0
    4262:	e353      	b.n	0x490c
    4264:	000a      	movs	r2, r1
    4266:	1a00      	subs	r0, r0, r0
    4268:	3018      	adds	r0, #24
    426a:	e59d      	b.n	0x3da8
    426c:	701c      	strb	r4, [r3, #0]
    426e:	e59d      	b.n	0x3dac
    4270:	0006      	movs	r6, r0
    4272:	e353      	b.n	0x491c
    4274:	5003      	str	r3, [r0, r0]
    4276:	31a0      	adds	r1, #160	; 0xa0
    4278:	5006      	str	r6, [r0, r0]
    427a:	23a0      	movs	r3, #160	; 0xa0
    427c:	7018      	strb	r0, [r3, #0]
    427e:	e58d      	b.n	0x3d9c
    4280:	7030      	strb	r0, [r6, #0]
    4282:	e58d      	b.n	0x3da0
    4284:	7034      	strb	r4, [r6, #0]
    4286:	e58d      	b.n	0x3da4
    4288:	6007      	str	r7, [r0, #0]
    428a:	e1a0      	b.n	0x45ce
    428c:	3df8      	subs	r5, #248	; 0xf8
    428e:	e51f      	b.n	0x3cd0
    4290:	02d7      	lsls	r7, r2, #11
    4292:	ea00 3024 	and.w	r0, r0, r4, asr #12
    4296:	e59d      	b.n	0x3dd4
    4298:	0053      	lsls	r3, r2, #1
    429a:	e353      	b.n	0x4944
    429c:	0001      	movs	r1, r0
    429e:	0a00      	lsrs	r0, r0, #8
    42a0:	6010      	str	r0, [r2, #0]
    42a2:	e21a      	b.n	0x46da
    42a4:	005f      	lsls	r7, r3, #1
    42a6:	0a00      	lsrs	r0, r0, #8
    42a8:	301c      	adds	r0, #28
    42aa:	e59d      	b.n	0x3de8
    42ac:	40b0      	lsls	r0, r6
    42ae:	e28d      	b.n	0x47cc
    42b0:	2008      	movs	r0, #8
    42b2:	e3a0      	b.n	0x49f6
    42b4:	1000      	asrs	r0, r0, #32
    42b6:	e3a0      	b.n	0x49fa
    42b8:	0004      	movs	r4, r0
    42ba:	e1a0      	b.n	0x45fe
    42bc:	309c      	adds	r0, #156	; 0x9c
    42be:	e58d      	b.n	0x3ddc
    42c0:	10c7      	asrs	r7, r0, #3
    42c2:	eb00 3018 	add.w	r0, r0, r8, lsr #12
    42c6:	e59d      	b.n	0x3e04
    42c8:	0001      	movs	r1, r0
    42ca:	e373      	b.n	0x49b4
    42cc:	0013      	movs	r3, r2
    42ce:	0a00      	lsrs	r0, r0, #8
    42d0:	6000      	str	r0, [r0, #0]
    42d2:	e3a0      	b.n	0x4a16
    42d4:	5006      	str	r6, [r0, r0]
    42d6:	e1a0      	b.n	0x461a
    42d8:	309c      	adds	r0, #156	; 0x9c
    42da:	e59d      	b.n	0x3e18
    42dc:	2006      	movs	r0, #6
    42de:	e793      	b.n	0x4208
    42e0:	0000      	movs	r0, r0
    42e2:	e352      	b.n	0x498a
    42e4:	0018      	movs	r0, r3
    42e6:	0a00      	lsrs	r0, r0, #8
    42e8:	3004      	adds	r0, #4
    42ea:	e1a0      	b.n	0x462e
    42ec:	1f41      	subs	r1, r0, #5
    42ee:	e28d      	b.n	0x480c
    42f0:	000b      	movs	r3, r1
    42f2:	e1a0      	b.n	0x4636
    42f4:	0669      	lsls	r1, r5, #25
    42f6:	eb00 0001 	add.w	r0, r0, r1
    42fa:	e370      	b.n	0x49de
    42fc:	001c      	movs	r4, r3
    42fe:	0a00      	lsrs	r0, r0, #8
    4300:	3018      	adds	r0, #24
    4302:	e59d      	b.n	0x3e40
    4304:	0000      	movs	r0, r0
    4306:	e085      	b.n	0x4414
    4308:	0003      	movs	r3, r0
    430a:	e150      	b.n	0x45ae
    430c:	000e      	movs	r6, r1
    430e:	ca00      	ldmia	r2!, {}
    4310:	6004      	str	r4, [r0, #0]
    4312:	e286      	b.n	0x4822
    4314:	5000      	str	r0, [r0, r0]
    4316:	e1a0      	b.n	0x465a
    4318:	ffee 1aff 			; <UNDEFINED> instruction: 0xffee1aff
    431c:	000a      	movs	r2, r1
    431e:	ea00 3000 	and.w	r0, r0, r0, lsl #12
    4322:	e3a0      	b.n	0x4a66
    4324:	4000      	ands	r0, r0
    4326:	e58d      	b.n	0x3e44
    4328:	209c      	movs	r0, #156	; 0x9c
    432a:	e28d      	b.n	0x4848
    432c:	1003      	asrs	r3, r0, #32
    432e:	e1a0      	b.n	0x4672
    4330:	000b      	movs	r3, r1
    4332:	e1a0      	b.n	0x4676
    4334:	0684      	lsls	r4, r0, #26
    4336:	eb00 0001 	add.w	r0, r0, r1
    433a:	e370      	b.n	0x4a1e
    433c:	5000      	str	r0, [r0, r0]
    433e:	e1a0      	b.n	0x4682
    4340:	000b      	movs	r3, r1
    4342:	0a00      	lsrs	r0, r0, #8
    4344:	301c      	adds	r0, #28
    4346:	e59d      	b.n	0x3e84
    4348:	309c      	adds	r0, #156	; 0x9c
    434a:	e58d      	b.n	0x3e68
    434c:	0000      	movs	r0, r0
    434e:	e355      	b.n	0x49fc
    4350:	002e      	movs	r6, r5
    4352:	0a00      	lsrs	r0, r0, #8
    4354:	0063      	lsls	r3, r4, #1
    4356:	e355      	b.n	0x4a04
    4358:	000b      	movs	r3, r1
    435a:	da00      	bge.n	0x435e
    435c:	1001      	asrs	r1, r0, #32
    435e:	e285      	b.n	0x486c
    4360:	000b      	movs	r3, r1
    4362:	e1a0      	b.n	0x46a6
    4364:	0db6      	lsrs	r6, r6, #22
    4366:	eb00 3000 	add.w	r0, r0, r0, lsl #12
    436a:	e250      	b.n	0x480e
    436c:	301c      	adds	r0, #28
    436e:	e58d      	b.n	0x3e8c
    4370:	0009      	movs	r1, r1
    4372:	1a00      	subs	r0, r0, r0
    4374:	3020      	adds	r0, #32
    4376:	e59d      	b.n	0x3eb4
    4378:	30bc      	adds	r0, #188	; 0xbc
    437a:	e1d3      	b.n	0x4724
    437c:	2020      	movs	r0, #32
    437e:	e59d      	b.n	0x3ebc
    4380:	3040      	adds	r0, #64	; 0x40
    4382:	e383      	b.n	0x4a8c
    4384:	30bc      	adds	r0, #188	; 0xbc
    4386:	e1c2      	b.n	0x470e
    4388:	063a      	lsls	r2, r7, #24
    438a:	ea00 3f41 	and.w	pc, r0, r1, lsl #13
    438e:	e28d      	b.n	0x48ac
    4390:	7000      	strb	r0, [r0, #0]
    4392:	e3a0      	b.n	0x4ad6
    4394:	301c      	adds	r0, #28
    4396:	e58d      	b.n	0x3eb4
    4398:	0000      	movs	r0, r0
    439a:	ea00 701c 	and.w	r0, r0, ip, lsr #28
    439e:	e59d      	b.n	0x3edc
    43a0:	40b0      	lsls	r0, r6
    43a2:	e28d      	b.n	0x48c0
    43a4:	2008      	movs	r0, #8
    43a6:	e3a0      	b.n	0x4aea
    43a8:	1000      	asrs	r0, r0, #32
    43aa:	e3a0      	b.n	0x4aee
    43ac:	0004      	movs	r4, r0
    43ae:	e1a0      	b.n	0x46f2
    43b0:	108b      	asrs	r3, r1, #2
    43b2:	eb00 4000 	add.w	r0, r0, r0, lsl #16
    43b6:	e58d      	b.n	0x3ed4
    43b8:	3005      	adds	r0, #5
    43ba:	e1a0      	b.n	0x46fe
    43bc:	209c      	movs	r0, #156	; 0x9c
    43be:	e28d      	b.n	0x48dc
    43c0:	101c      	asrs	r4, r3, #32
    43c2:	e59d      	b.n	0x3f00
    43c4:	000b      	movs	r3, r1
    43c6:	e1a0      	b.n	0x470a
    43c8:	065f      	lsls	r7, r3, #25
    43ca:	eb00 0000 	add.w	r0, r0, r0
    43ce:	e155      	b.n	0x467c
    43d0:	0006      	movs	r6, r0
    43d2:	0a00      	lsrs	r0, r0, #8
    43d4:	3020      	adds	r0, #32
    43d6:	e59d      	b.n	0x3f14
    43d8:	30bc      	adds	r0, #188	; 0xbc
    43da:	e1d3      	b.n	0x4784
    43dc:	2020      	movs	r0, #32
    43de:	e59d      	b.n	0x3f1c
    43e0:	3040      	adds	r0, #64	; 0x40
    43e2:	e383      	b.n	0x4aec
    43e4:	a007      	add	r0, pc, #28	; (adr r0, 0x4404)
    43e6:	e1a0      	b.n	0x472a
    43e8:	30bc      	adds	r0, #188	; 0xbc
    43ea:	e1c2      	b.n	0x4772
    43ec:	061d      	lsls	r5, r3, #24
    43ee:	ea00 4000 	and.w	r0, r0, r0, lsl #16
    43f2:	e3a0      	b.n	0x4b36
    43f4:	301c      	adds	r0, #28
    43f6:	e59d      	b.n	0x3f34
    43f8:	4018      	ands	r0, r3
    43fa:	e58d      	b.n	0x3f18
    43fc:	4005      	ands	r5, r0
    43fe:	e7c3      	b.n	0x4388
    4400:	4030      	ands	r0, r6
    4402:	e58d      	b.n	0x3f20
    4404:	4034      	ands	r4, r6
    4406:	e58d      	b.n	0x3f24
    4408:	6004      	str	r4, [r0, #0]
    440a:	e1a0      	b.n	0x474e
    440c:	0280      	lsls	r0, r0, #10
    440e:	ea00 5018 	and.w	r0, r0, r8, lsr #20
    4412:	e58d      	b.n	0x3f30
    4414:	5030      	str	r0, [r6, r0]
    4416:	e58d      	b.n	0x3f34
    4418:	5034      	str	r4, [r6, r0]
    441a:	e58d      	b.n	0x3f38
    441c:	6005      	str	r5, [r0, #0]
    441e:	e1a0      	b.n	0x4762
    4420:	7005      	strb	r5, [r0, #0]
    4422:	e1a0      	b.n	0x4766
    4424:	027a      	lsls	r2, r7, #9
    4426:	ea00 3018 	and.w	r0, r0, r8, lsr #12
    442a:	e59d      	b.n	0x3f68
    442c:	0001      	movs	r1, r0
    442e:	e373      	b.n	0x4b18
    4430:	0008      	movs	r0, r1
    4432:	0a00      	lsrs	r0, r0, #8
    4434:	2003      	movs	r0, #3
    4436:	e1a0      	b.n	0x477a
    4438:	1006      	asrs	r6, r0, #32
    443a:	e1a0      	b.n	0x477e
    443c:	001c      	movs	r4, r3
    443e:	e59d      	b.n	0x3f7c
    4440:	1023      	asrs	r3, r4, #32
    4442:	eb00 7000 	add.w	r0, r0, r0, lsl #28
    4446:	e250      	b.n	0x48ea
    4448:	301c      	adds	r0, #28
    444a:	159d      	asrs	r5, r3, #22
    444c:	5003      	str	r3, [r0, r0]
    444e:	1047      	asrs	r7, r0, #1
    4450:	0003      	movs	r3, r0
    4452:	1a00      	subs	r0, r0, r0
    4454:	026a      	lsls	r2, r5, #9
    4456:	ea00 001c 	and.w	r0, r0, ip, lsr #32
    445a:	e59d      	b.n	0x3f98
    445c:	133e      	asrs	r6, r7, #12
    445e:	eb00 5000 	add.w	r0, r0, r0, lsl #20
    4462:	e1a0      	b.n	0x47a6
    4464:	6018      	str	r0, [r3, #0]
    4466:	e58d      	b.n	0x3f84
    4468:	6030      	str	r0, [r6, #0]
    446a:	e58d      	b.n	0x3f88
    446c:	6034      	str	r4, [r6, #0]
    446e:	e58d      	b.n	0x3f8c
    4470:	7006      	strb	r6, [r0, #0]
    4472:	e1a0      	b.n	0x47b6
    4474:	0266      	lsls	r6, r4, #9
    4476:	ea00 903c 			; <UNDEFINED> instruction: 0xea00903c
    447a:	e58d      	b.n	0x3f98
    447c:	2044      	movs	r0, #68	; 0x44
    447e:	e58d      	b.n	0x3f9c
    4480:	1024      	asrs	r4, r4, #32
    4482:	e58d      	b.n	0x3fa0
    4484:	9030      	str	r0, [sp, #192]	; 0xc0
    4486:	e59d      	b.n	0x3fc4
    4488:	0018      	movs	r0, r3
    448a:	e58d      	b.n	0x3fa8
    448c:	a010      	add	r0, pc, #64	; (adr r0, 0x44d0)
    448e:	e38a      	b.n	0x4ba6
    4490:	0004      	movs	r4, r0
    4492:	ea00 903c 			; <UNDEFINED> instruction: 0xea00903c
    4496:	e58d      	b.n	0x3fb4
    4498:	2044      	movs	r0, #68	; 0x44
    449a:	e58d      	b.n	0x3fb8
    449c:	1024      	asrs	r4, r4, #32
    449e:	e58d      	b.n	0x3fbc
    44a0:	9030      	str	r0, [sp, #192]	; 0xc0
    44a2:	e59d      	b.n	0x3fe0
    44a4:	0018      	movs	r0, r3
    44a6:	e58d      	b.n	0x3fc4
    44a8:	0020      	movs	r0, r4
    44aa:	e31a      	b.n	0x4ae2
    44ac:	208c      	movs	r0, #140	; 0x8c
    44ae:	e59d      	b.n	0x3fec
    44b0:	002d      	movs	r5, r5
    44b2:	0a00      	lsrs	r0, r0, #8
    44b4:	0000      	movs	r0, r0
    44b6:	e357      	b.n	0x4b68
    44b8:	0015      	movs	r5, r2
    44ba:	0a00      	lsrs	r0, r0, #8
    44bc:	0002      	movs	r2, r0
    44be:	e155      	b.n	0x476c
    44c0:	3fba      	subs	r7, #186	; 0xba
    44c2:	b28d      	uxth	r5, r1
    44c4:	5185      	str	r5, [r0, r6]
    44c6:	b083      	sub	sp, #12
    44c8:	5c01      	ldrb	r1, [r0, r0]
    44ca:	b245      	sxtb	r5, r0
    44cc:	0030      	movs	r0, r6
    44ce:	b895      			; <UNDEFINED> instruction: 0xb895
    44d0:	000d      	movs	r5, r1
    44d2:	ba00      	rev	r0, r0
    44d4:	3090      	adds	r0, #144	; 0x90
    44d6:	e28d      	b.n	0x49f4
    44d8:	300c      	adds	r0, #12
    44da:	e58d      	b.n	0x3ff8
    44dc:	3f5a      	subs	r7, #90	; 0x5a
    44de:	e28d      	b.n	0x49fc
    44e0:	3008      	adds	r0, #8
    44e2:	e58d      	b.n	0x4000
    44e4:	3f7a      	subs	r7, #122	; 0x7a
    44e6:	e28d      	b.n	0x4a04
    44e8:	3004      	adds	r0, #4
    44ea:	e58d      	b.n	0x4008
    44ec:	308c      	adds	r0, #140	; 0x8c
    44ee:	e28d      	b.n	0x4a0c
    44f0:	3000      	adds	r0, #0
    44f2:	e58d      	b.n	0x4010
    44f4:	1005      	asrs	r5, r0, #32
    44f6:	e1a0      	b.n	0x483a
    44f8:	307c      	adds	r0, #124	; 0x7c
    44fa:	e28d      	b.n	0x4a18
    44fc:	2006      	movs	r0, #6
    44fe:	e1a0      	b.n	0x4842
    4500:	000b      	movs	r3, r1
    4502:	e1a0      	b.n	0x4846
    4504:	f672 ebff 			; <UNDEFINED> instruction: 0xf672ebff
    4508:	0030      	movs	r0, r6
    450a:	e890 3008 	ldmia.w	r0, {r3, ip, sp}
    450e:	e1a0      	b.n	0x4852
    4510:	0084      	lsls	r4, r0, #2
    4512:	ea00 0002 	and.w	r0, r0, r2
    4516:	e158      	b.n	0x47ca
    4518:	3001      	adds	r0, #1
    451a:	e288      	b.n	0x4a2e
    451c:	2fba      	cmp	r7, #186	; 0xba
    451e:	b28d      	uxth	r5, r1
    4520:	5185      	str	r5, [r0, r6]
    4522:	b082      	sub	sp, #8
    4524:	5c01      	ldrb	r1, [r0, r0]
    4526:	b245      	sxtb	r5, r0
    4528:	0030      	movs	r0, r6
    452a:	b895      			; <UNDEFINED> instruction: 0xb895
    452c:	007d      	lsls	r5, r7, #1
    452e:	ba00      	rev	r0, r0
    4530:	107c      	asrs	r4, r7, #1
    4532:	e59d      	b.n	0x4070
    4534:	1007      	asrs	r7, r0, #32
    4536:	e281      	b.n	0x4a3c
    4538:	1007      	asrs	r7, r0, #32
    453a:	e3c1      	b.n	0x4cc0
    453c:	0030      	movs	r0, r6
    453e:	e8b1 001f 	ldmia.w	r1!, {r0, r1, r2, r3, r4}
    4542:	e352      	b.n	0x4bea
    4544:	107c      	asrs	r4, r7, #1
    4546:	c58d      	stmia	r5!, {r0, r2, r3, r7}
    4548:	0076      	lsls	r6, r6, #1
    454a:	ca00      	ldmia	r2!, {}
    454c:	107c      	asrs	r4, r7, #1
    454e:	e58d      	b.n	0x406c
    4550:	1fba      	subs	r2, r7, #6
    4552:	e28d      	b.n	0x4a70
    4554:	0001      	movs	r1, r0
    4556:	e282      	b.n	0x4a5e
    4558:	2182      	movs	r1, #130	; 0x82
    455a:	e081      	b.n	0x4660
    455c:	008c      	lsls	r4, r1, #2
    455e:	e58d      	b.n	0x407c
    4560:	4100      	asrs	r0, r0
    4562:	e502      	b.n	0x3f6a
    4564:	50fc      	str	r4, [r7, r3]
    4566:	e502      	b.n	0x3f6e
    4568:	006e      	lsls	r6, r5, #1
    456a:	ea00 0010 	and.w	r0, r0, r0, lsr #32
    456e:	e31a      	b.n	0x4ba6
    4570:	000d      	movs	r5, r1
    4572:	0a00      	lsrs	r0, r0, #8
    4574:	0000      	movs	r0, r0
    4576:	e357      	b.n	0x4c28
    4578:	006e      	lsls	r6, r5, #1
    457a:	1a00      	subs	r0, r0, r0
    457c:	0002      	movs	r2, r0
    457e:	e158      	b.n	0x4832
    4580:	3001      	adds	r0, #1
    4582:	e288      	b.n	0x4a96
    4584:	0083      	lsls	r3, r0, #2
    4586:	ba00      	rev	r0, r0
    4588:	107c      	asrs	r4, r7, #1
    458a:	e59d      	b.n	0x40c8
    458c:	001f      	movs	r7, r3
    458e:	e352      	b.n	0x4c36
    4590:	4004      	ands	r4, r0
    4592:	e491      	b.n	0x3eb8
    4594:	0001      	movs	r1, r0
    4596:	d282      	bcs.n	0x449e
    4598:	008c      	lsls	r4, r1, #2
    459a:	d58d      	bpl.n	0x44b8
    459c:	107c      	asrs	r4, r7, #1
    459e:	d58d      	bpl.n	0x44bc
    45a0:	107c      	asrs	r4, r7, #1
    45a2:	c58d      	stmia	r5!, {r0, r2, r3, r7}
    45a4:	005e      	lsls	r6, r3, #1
    45a6:	ca00      	ldmia	r2!, {}
    45a8:	0088      	lsls	r0, r1, #2
    45aa:	ea00 0040 	and.w	r0, r0, r0, lsl #1
    45ae:	e31a      	b.n	0x4be6
    45b0:	002e      	movs	r6, r5
    45b2:	0a00      	lsrs	r0, r0, #8
    45b4:	0000      	movs	r0, r0
    45b6:	e357      	b.n	0x4c68
    45b8:	0016      	movs	r6, r2
    45ba:	0a00      	lsrs	r0, r0, #8
    45bc:	0002      	movs	r2, r0
    45be:	e155      	b.n	0x486c
    45c0:	0005      	movs	r5, r0
    45c2:	aa00      	add	r2, sp, #0
    45c4:	3fba      	subs	r7, #186	; 0xba
    45c6:	e28d      	b.n	0x4ae4
    45c8:	5185      	str	r5, [r0, r6]
    45ca:	e083      	b.n	0x46d4
    45cc:	4100      	asrs	r0, r0
    45ce:	e515      	b.n	0x3ffc
    45d0:	4804      	ldr	r0, [pc, #16]	; (0x45e4)
    45d2:	e1a0      	b.n	0x4916
    45d4:	4824      	ldr	r0, [pc, #144]	; (0x4668)
    45d6:	e1a0      	b.n	0x491a
    45d8:	0069      	lsls	r1, r5, #1
    45da:	ea00 3090 	and.w	r0, r0, r0, lsr #14
    45de:	e28d      	b.n	0x4afc
    45e0:	300c      	adds	r0, #12
    45e2:	e58d      	b.n	0x4100
    45e4:	3f5a      	subs	r7, #90	; 0x5a
    45e6:	e28d      	b.n	0x4b04
    45e8:	3008      	adds	r0, #8
    45ea:	e58d      	b.n	0x4108
    45ec:	3f7a      	subs	r7, #122	; 0x7a
    45ee:	e28d      	b.n	0x4b0c
    45f0:	3004      	adds	r0, #4
    45f2:	e58d      	b.n	0x4110
    45f4:	308c      	adds	r0, #140	; 0x8c
    45f6:	e28d      	b.n	0x4b14
    45f8:	3000      	adds	r0, #0
    45fa:	e58d      	b.n	0x4118
    45fc:	2006      	movs	r0, #6
    45fe:	e1a0      	b.n	0x4942
    4600:	307c      	adds	r0, #124	; 0x7c
    4602:	e28d      	b.n	0x4b20
    4604:	1005      	asrs	r5, r0, #32
    4606:	e1a0      	b.n	0x494a
    4608:	000b      	movs	r3, r1
    460a:	e1a0      	b.n	0x494e
    460c:	f630 ebff 			; <UNDEFINED> instruction: 0xf630ebff
    4610:	40b0      	lsls	r0, r6
    4612:	e1d0      	b.n	0x49b6
    4614:	005a      	lsls	r2, r3, #1
    4616:	ea00 0002 	and.w	r0, r0, r2
    461a:	e158      	b.n	0x48ce
    461c:	2fba      	cmp	r7, #186	; 0xba
    461e:	b28d      	uxth	r5, r1
    4620:	5185      	str	r5, [r0, r6]
    4622:	b082      	sub	sp, #8
    4624:	3001      	adds	r0, #1
    4626:	e288      	b.n	0x4b3a
    4628:	4100      	asrs	r0, r0
    462a:	b515      	push	{r0, r2, r4, lr}
    462c:	000c      	movs	r4, r1
    462e:	ba00      	rev	r0, r0
    4630:	107c      	asrs	r4, r7, #1
    4632:	e59d      	b.n	0x4170
    4634:	001f      	movs	r7, r3
    4636:	e352      	b.n	0x4cde
    4638:	0004      	movs	r4, r0
    463a:	e281      	b.n	0x4b40
    463c:	007c      	lsls	r4, r7, #1
    463e:	c58d      	stmia	r5!, {r0, r2, r3, r7}
    4640:	40b0      	lsls	r0, r6
    4642:	c1d1      	stmia	r1!, {r0, r4, r6, r7}
    4644:	0036      	movs	r6, r6
    4646:	ca00      	ldmia	r2!, {}
    4648:	c001      	stmia	r0!, {r0}
    464a:	e282      	b.n	0x4b52
    464c:	c08c      	stmia	r0!, {r2, r3, r7}
    464e:	e58d      	b.n	0x416c
    4650:	4000      	ands	r0, r0
    4652:	e591      	b.n	0x4178
    4654:	1fba      	subs	r2, r7, #6
    4656:	e28d      	b.n	0x4b74
    4658:	2182      	movs	r1, #130	; 0x82
    465a:	e081      	b.n	0x4760
    465c:	007c      	lsls	r4, r7, #1
    465e:	e58d      	b.n	0x417c
    4660:	4100      	asrs	r0, r0
    4662:	e502      	b.n	0x406a
    4664:	4804      	ldr	r0, [pc, #16]	; (0x4678)
    4666:	e1a0      	b.n	0x49aa
    4668:	4824      	ldr	r0, [pc, #144]	; (0x46fc)
    466a:	e1a0      	b.n	0x49ae
    466c:	002c      	movs	r4, r5
    466e:	ea00 0c02 	and.w	ip, r0, r2
    4672:	e31a      	b.n	0x4caa
    4674:	002d      	movs	r5, r5
    4676:	0a00      	lsrs	r0, r0, #8
    4678:	0000      	movs	r0, r0
    467a:	e357      	b.n	0x4d2c
    467c:	0014      	movs	r4, r2
    467e:	0a00      	lsrs	r0, r0, #8
    4680:	0002      	movs	r2, r0
    4682:	e155      	b.n	0x4930
    4684:	3fba      	subs	r7, #186	; 0xba
    4686:	b28d      	uxth	r5, r1
    4688:	5185      	str	r5, [r0, r6]
    468a:	b083      	sub	sp, #12
    468c:	4100      	asrs	r0, r0
    468e:	b555      	push	{r0, r2, r4, r6, lr}
    4690:	000d      	movs	r5, r1
    4692:	ba00      	rev	r0, r0
    4694:	3090      	adds	r0, #144	; 0x90
    4696:	e28d      	b.n	0x4bb4
    4698:	300c      	adds	r0, #12
    469a:	e58d      	b.n	0x41b8
    469c:	3f5a      	subs	r7, #90	; 0x5a
    469e:	e28d      	b.n	0x4bbc
    46a0:	3008      	adds	r0, #8
    46a2:	e58d      	b.n	0x41c0
    46a4:	3f7a      	subs	r7, #122	; 0x7a
    46a6:	e28d      	b.n	0x4bc4
    46a8:	3004      	adds	r0, #4
    46aa:	e58d      	b.n	0x41c8
    46ac:	308c      	adds	r0, #140	; 0x8c
    46ae:	e28d      	b.n	0x4bcc
    46b0:	3000      	adds	r0, #0
    46b2:	e58d      	b.n	0x41d0
    46b4:	2006      	movs	r0, #6
    46b6:	e1a0      	b.n	0x49fa
    46b8:	307c      	adds	r0, #124	; 0x7c
    46ba:	e28d      	b.n	0x4bd8
    46bc:	1005      	asrs	r5, r0, #32
    46be:	e1a0      	b.n	0x4a02
    46c0:	000b      	movs	r3, r1
    46c2:	e1a0      	b.n	0x4a06
    46c4:	f602 ebff 			; <UNDEFINED> instruction: 0xf602ebff
    46c8:	4000      	ands	r0, r0
    46ca:	e5d0      	b.n	0x426e
    46cc:	3008      	adds	r0, #8
    46ce:	e1a0      	b.n	0x4a12
    46d0:	0012      	movs	r2, r2
    46d2:	ea00 0002 	and.w	r0, r0, r2
    46d6:	e158      	b.n	0x498a
    46d8:	2fba      	cmp	r7, #186	; 0xba
    46da:	b28d      	uxth	r5, r1
    46dc:	5185      	str	r5, [r0, r6]
    46de:	b082      	sub	sp, #8
    46e0:	3001      	adds	r0, #1
    46e2:	e288      	b.n	0x4bf6
    46e4:	4100      	asrs	r0, r0
    46e6:	b555      	push	{r0, r2, r4, r6, lr}
    46e8:	000c      	movs	r4, r1
    46ea:	ba00      	rev	r0, r0
    46ec:	001f      	movs	r7, r3
    46ee:	e352      	b.n	0x4d96
    46f0:	c001      	stmia	r0!, {r0}
    46f2:	d282      	bcs.n	0x45fa
    46f4:	107c      	asrs	r4, r7, #1
    46f6:	e59d      	b.n	0x4234
    46f8:	c08c      	stmia	r0!, {r2, r3, r7}
    46fa:	d58d      	bpl.n	0x4618
    46fc:	0004      	movs	r4, r0
    46fe:	e281      	b.n	0x4c04
    4700:	4000      	ands	r0, r0
    4702:	d591      	bpl.n	0x4628
    4704:	1fba      	subs	r2, r7, #6
    4706:	d28d      	bcs.n	0x4624
    4708:	2182      	movs	r1, #130	; 0x82
    470a:	d081      	beq.n	0x4610
    470c:	007c      	lsls	r4, r7, #1
    470e:	d58d      	bpl.n	0x462c
    4710:	007c      	lsls	r4, r7, #1
    4712:	c58d      	stmia	r5!, {r0, r2, r3, r7}
    4714:	4000      	ands	r0, r0
    4716:	c5d1      	stmia	r5!, {r0, r4, r6, r7}
    4718:	4100      	asrs	r0, r0
    471a:	d502      	bpl.n	0x4722
    471c:	40ff      	lsrs	r7, r7
    471e:	d204      	bcs.n	0x472a
    4720:	40ff      	lsrs	r7, r7
    4722:	e204      	b.n	0x4b2e
    4724:	5000      	str	r0, [r0, r0]
    4726:	e3a0      	b.n	0x4e6a
    4728:	2001      	movs	r0, #1
    472a:	e3a0      	b.n	0x4e6e
    472c:	0110      	lsls	r0, r2, #4
    472e:	ea00 0000 	and.w	r0, r0, r0
    4732:	e357      	b.n	0x4de4
    4734:	0014      	movs	r4, r2
    4736:	0a00      	lsrs	r0, r0, #8
    4738:	0002      	movs	r2, r0
    473a:	e155      	b.n	0x49e8
    473c:	3fba      	subs	r7, #186	; 0xba
    473e:	b28d      	uxth	r5, r1
    4740:	5185      	str	r5, [r0, r6]
    4742:	b083      	sub	sp, #12
    4744:	4100      	asrs	r0, r0
    4746:	b515      	push	{r0, r2, r4, lr}
    4748:	000d      	movs	r5, r1
    474a:	ba00      	rev	r0, r0
    474c:	3090      	adds	r0, #144	; 0x90
    474e:	e28d      	b.n	0x4c6c
    4750:	300c      	adds	r0, #12
    4752:	e58d      	b.n	0x4270
    4754:	3f5a      	subs	r7, #90	; 0x5a
    4756:	e28d      	b.n	0x4c74
    4758:	3008      	adds	r0, #8
    475a:	e58d      	b.n	0x4278
    475c:	3f7a      	subs	r7, #122	; 0x7a
    475e:	e28d      	b.n	0x4c7c
    4760:	3004      	adds	r0, #4
    4762:	e58d      	b.n	0x4280
    4764:	308c      	adds	r0, #140	; 0x8c
    4766:	e28d      	b.n	0x4c84
    4768:	3000      	adds	r0, #0
    476a:	e58d      	b.n	0x4288
    476c:	2006      	movs	r0, #6
    476e:	e1a0      	b.n	0x4ab2
    4770:	307c      	adds	r0, #124	; 0x7c
    4772:	e28d      	b.n	0x4c90
    4774:	1005      	asrs	r5, r0, #32
    4776:	e1a0      	b.n	0x4aba
    4778:	000b      	movs	r3, r1
    477a:	e1a0      	b.n	0x4abe
    477c:	f5d4 ebff 			; <UNDEFINED> instruction: 0xf5d4ebff
    4780:	4000      	ands	r0, r0
    4782:	e590      	b.n	0x42a6
    4784:	3008      	adds	r0, #8
    4786:	e1a0      	b.n	0x4aca
    4788:	ffe5 eaff 			; <UNDEFINED> instruction: 0xffe5eaff
    478c:	0002      	movs	r2, r0
    478e:	e158      	b.n	0x4a42
    4790:	3001      	adds	r0, #1
    4792:	e288      	b.n	0x4ca6
    4794:	0003      	movs	r3, r0
    4796:	aa00      	add	r2, sp, #0
    4798:	2fba      	cmp	r7, #186	; 0xba
    479a:	e28d      	b.n	0x4cb8
    479c:	5185      	str	r5, [r0, r6]
    479e:	e082      	b.n	0x48a6
    47a0:	4100      	asrs	r0, r0
    47a2:	e515      	b.n	0x41d0
    47a4:	ffde eaff 			; <UNDEFINED> instruction: 0xffdeeaff
    47a8:	107c      	asrs	r4, r7, #1
    47aa:	e59d      	b.n	0x42e8
    47ac:	001f      	movs	r7, r3
    47ae:	e352      	b.n	0x4e56
    47b0:	0004      	movs	r4, r0
    47b2:	e281      	b.n	0x4cb8
    47b4:	007c      	lsls	r4, r7, #1
    47b6:	c58d      	stmia	r5!, {r0, r2, r3, r7}
    47b8:	4000      	ands	r0, r0
    47ba:	c591      	stmia	r5!, {r0, r4, r7}
    47bc:	ffd8 caff 			; <UNDEFINED> instruction: 0xffd8caff
    47c0:	c001      	stmia	r0!, {r0}
    47c2:	e282      	b.n	0x4cca
    47c4:	c08c      	stmia	r0!, {r2, r3, r7}
    47c6:	e58d      	b.n	0x42e4
    47c8:	007c      	lsls	r4, r7, #1
    47ca:	e58d      	b.n	0x42e8
    47cc:	4000      	ands	r0, r0
    47ce:	e591      	b.n	0x42f4
    47d0:	1fba      	subs	r2, r7, #6
    47d2:	e28d      	b.n	0x4cf0
    47d4:	2182      	movs	r1, #130	; 0x82
    47d6:	e081      	b.n	0x48dc
    47d8:	4100      	asrs	r0, r0
    47da:	e502      	b.n	0x41e2
    47dc:	ffd0 eaff 			; <UNDEFINED> instruction: 0xffd0eaff
    47e0:	903c      	str	r0, [sp, #240]	; 0xf0
    47e2:	e58d      	b.n	0x4300
    47e4:	2044      	movs	r0, #68	; 0x44
    47e6:	e58d      	b.n	0x4304
    47e8:	1024      	asrs	r4, r4, #32
    47ea:	e58d      	b.n	0x4308
    47ec:	9030      	str	r0, [sp, #192]	; 0xc0
    47ee:	e59d      	b.n	0x432c
    47f0:	0018      	movs	r0, r3
    47f2:	e58d      	b.n	0x4310
    47f4:	3f60      	subs	r7, #96	; 0x60
    47f6:	e59f      	b.n	0x4338
    47f8:	0005      	movs	r5, r0
    47fa:	ea00 903c 			; <UNDEFINED> instruction: 0xea00903c
    47fe:	e58d      	b.n	0x431c
    4800:	2044      	movs	r0, #68	; 0x44
    4802:	e58d      	b.n	0x4320
    4804:	1024      	asrs	r4, r4, #32
    4806:	e58d      	b.n	0x4324
    4808:	9030      	str	r0, [sp, #192]	; 0xc0
    480a:	e59d      	b.n	0x4348
    480c:	0018      	movs	r0, r3
    480e:	e58d      	b.n	0x432c
    4810:	3f48      	subs	r7, #72	; 0x48
    4812:	e59f      	b.n	0x4354
    4814:	0020      	movs	r0, r4
    4816:	e31a      	b.n	0x4e4e
    4818:	3070      	adds	r0, #112	; 0x70
    481a:	e58d      	b.n	0x4338
    481c:	208c      	movs	r0, #140	; 0x8c
    481e:	e59d      	b.n	0x435c
    4820:	002d      	movs	r5, r5
    4822:	0a00      	lsrs	r0, r0, #8
    4824:	0000      	movs	r0, r0
    4826:	e357      	b.n	0x4ed8
    4828:	0015      	movs	r5, r2
    482a:	0a00      	lsrs	r0, r0, #8
    482c:	0002      	movs	r2, r0
    482e:	e155      	b.n	0x4adc
    4830:	3fba      	subs	r7, #186	; 0xba
    4832:	b28d      	uxth	r5, r1
    4834:	5185      	str	r5, [r0, r6]
    4836:	b083      	sub	sp, #12
    4838:	5c01      	ldrb	r1, [r0, r0]
    483a:	b245      	sxtb	r5, r0
    483c:	0030      	movs	r0, r6
    483e:	b895      			; <UNDEFINED> instruction: 0xb895
    4840:	000d      	movs	r5, r1
    4842:	ba00      	rev	r0, r0
    4844:	3090      	adds	r0, #144	; 0x90
    4846:	e28d      	b.n	0x4d64
    4848:	300c      	adds	r0, #12
    484a:	e58d      	b.n	0x4368
    484c:	3f5a      	subs	r7, #90	; 0x5a
    484e:	e28d      	b.n	0x4d6c
    4850:	3008      	adds	r0, #8
    4852:	e58d      	b.n	0x4370
    4854:	3f7a      	subs	r7, #122	; 0x7a
    4856:	e28d      	b.n	0x4d74
    4858:	3004      	adds	r0, #4
    485a:	e58d      	b.n	0x4378
    485c:	308c      	adds	r0, #140	; 0x8c
    485e:	e28d      	b.n	0x4d7c
    4860:	3000      	adds	r0, #0
    4862:	e58d      	b.n	0x4380
    4864:	1005      	asrs	r5, r0, #32
    4866:	e1a0      	b.n	0x4baa
    4868:	307c      	adds	r0, #124	; 0x7c
    486a:	e28d      	b.n	0x4d88
    486c:	2006      	movs	r0, #6
    486e:	e1a0      	b.n	0x4bb2
    4870:	000b      	movs	r3, r1
    4872:	e1a0      	b.n	0x4bb6
    4874:	f596 ebff 			; <UNDEFINED> instruction: 0xf596ebff
    4878:	0030      	movs	r0, r6
    487a:	e890 3008 	ldmia.w	r0, {r3, ip, sp}
    487e:	e1a0      	b.n	0x4bc2
    4880:	00b0      	lsls	r0, r6, #2
    4882:	ea00 0002 	and.w	r0, r0, r2
    4886:	e158      	b.n	0x4b3a
    4888:	3001      	adds	r0, #1
    488a:	e288      	b.n	0x4d9e
    488c:	2fba      	cmp	r7, #186	; 0xba
    488e:	b28d      	uxth	r5, r1
    4890:	5185      	str	r5, [r0, r6]
    4892:	b082      	sub	sp, #8
    4894:	5c01      	ldrb	r1, [r0, r0]
    4896:	b245      	sxtb	r5, r0
    4898:	0030      	movs	r0, r6
    489a:	b895      			; <UNDEFINED> instruction: 0xb895
    489c:	00a9      	lsls	r1, r5, #2
    489e:	ba00      	rev	r0, r0
    48a0:	107c      	asrs	r4, r7, #1
    48a2:	e59d      	b.n	0x43e0
    48a4:	1007      	asrs	r7, r0, #32
    48a6:	e281      	b.n	0x4dac
    48a8:	1007      	asrs	r7, r0, #32
    48aa:	e3c1      	b.n	0x5030
    48ac:	0030      	movs	r0, r6
    48ae:	e8b1 001f 	ldmia.w	r1!, {r0, r1, r2, r3, r4}
    48b2:	e352      	b.n	0x4f5a
    48b4:	107c      	asrs	r4, r7, #1
    48b6:	c58d      	stmia	r5!, {r0, r2, r3, r7}
    48b8:	00a2      	lsls	r2, r4, #2
    48ba:	ca00      	ldmia	r2!, {}
    48bc:	107c      	asrs	r4, r7, #1
    48be:	e58d      	b.n	0x43dc
    48c0:	1fba      	subs	r2, r7, #6
    48c2:	e28d      	b.n	0x4de0
    48c4:	0001      	movs	r1, r0
    48c6:	e282      	b.n	0x4dce
    48c8:	2182      	movs	r1, #130	; 0x82
    48ca:	e081      	b.n	0x49d0
    48cc:	008c      	lsls	r4, r1, #2
    48ce:	e58d      	b.n	0x43ec
    48d0:	4100      	asrs	r0, r0
    48d2:	e502      	b.n	0x42da
    48d4:	50fc      	str	r4, [r7, r3]
    48d6:	e502      	b.n	0x42de
    48d8:	009a      	lsls	r2, r3, #2
    48da:	ea00 0010 	and.w	r0, r0, r0, lsr #32
    48de:	e31a      	b.n	0x4f16
    48e0:	000d      	movs	r5, r1
    48e2:	0a00      	lsrs	r0, r0, #8
    48e4:	0000      	movs	r0, r0
    48e6:	e357      	b.n	0x4f98
    48e8:	006c      	lsls	r4, r5, #1
    48ea:	1a00      	subs	r0, r0, r0
    48ec:	0002      	movs	r2, r0
    48ee:	e158      	b.n	0x4ba2
    48f0:	3001      	adds	r0, #1
    48f2:	e288      	b.n	0x4e06
    48f4:	0081      	lsls	r1, r0, #2
    48f6:	ba00      	rev	r0, r0
    48f8:	107c      	asrs	r4, r7, #1
    48fa:	e59d      	b.n	0x4438
    48fc:	001f      	movs	r7, r3
    48fe:	e352      	b.n	0x4fa6
    4900:	4004      	ands	r4, r0
    4902:	e491      	b.n	0x4228
    4904:	0001      	movs	r1, r0
    4906:	d282      	bcs.n	0x480e
    4908:	008c      	lsls	r4, r1, #2
    490a:	d58d      	bpl.n	0x4828
    490c:	107c      	asrs	r4, r7, #1
    490e:	d58d      	bpl.n	0x482c
    4910:	107c      	asrs	r4, r7, #1
    4912:	c58d      	stmia	r5!, {r0, r2, r3, r7}
    4914:	008a      	lsls	r2, r1, #2
    4916:	ca00      	ldmia	r2!, {}
    4918:	0086      	lsls	r6, r0, #2
    491a:	ea00 0040 	and.w	r0, r0, r0, lsl #1
    491e:	e31a      	b.n	0x4f56
    4920:	002e      	movs	r6, r5
    4922:	0a00      	lsrs	r0, r0, #8
    4924:	0000      	movs	r0, r0
    4926:	e357      	b.n	0x4fd8
    4928:	0016      	movs	r6, r2
    492a:	0a00      	lsrs	r0, r0, #8
    492c:	0002      	movs	r2, r0
    492e:	e155      	b.n	0x4bdc
    4930:	0005      	movs	r5, r0
    4932:	aa00      	add	r2, sp, #0
    4934:	3fba      	subs	r7, #186	; 0xba
    4936:	e28d      	b.n	0x4e54
    4938:	5185      	str	r5, [r0, r6]
    493a:	e083      	b.n	0x4a44
    493c:	4100      	asrs	r0, r0
    493e:	e515      	b.n	0x436c
    4940:	4804      	ldr	r0, [pc, #16]	; (0x4954)
    4942:	e1a0      	b.n	0x4c86
    4944:	4824      	ldr	r0, [pc, #144]	; (0x49d8)
    4946:	e1a0      	b.n	0x4c8a
    4948:	0067      	lsls	r7, r4, #1
    494a:	ea00 3090 	and.w	r0, r0, r0, lsr #14
    494e:	e28d      	b.n	0x4e6c
    4950:	300c      	adds	r0, #12
    4952:	e58d      	b.n	0x4470
    4954:	3f5a      	subs	r7, #90	; 0x5a
    4956:	e28d      	b.n	0x4e74
    4958:	3008      	adds	r0, #8
    495a:	e58d      	b.n	0x4478
    495c:	3f7a      	subs	r7, #122	; 0x7a
    495e:	e28d      	b.n	0x4e7c
    4960:	3004      	adds	r0, #4
    4962:	e58d      	b.n	0x4480
    4964:	308c      	adds	r0, #140	; 0x8c
    4966:	e28d      	b.n	0x4e84
    4968:	3000      	adds	r0, #0
    496a:	e58d      	b.n	0x4488
    496c:	2006      	movs	r0, #6
    496e:	e1a0      	b.n	0x4cb2
    4970:	307c      	adds	r0, #124	; 0x7c
    4972:	e28d      	b.n	0x4e90
    4974:	1005      	asrs	r5, r0, #32
    4976:	e1a0      	b.n	0x4cba
    4978:	000b      	movs	r3, r1
    497a:	e1a0      	b.n	0x4cbe
    497c:	f554 ebff 			; <UNDEFINED> instruction: 0xf554ebff
    4980:	40b0      	lsls	r0, r6
    4982:	e1d0      	b.n	0x4d26
    4984:	0058      	lsls	r0, r3, #1
    4986:	ea00 0002 	and.w	r0, r0, r2
    498a:	e158      	b.n	0x4c3e
    498c:	2fba      	cmp	r7, #186	; 0xba
    498e:	b28d      	uxth	r5, r1
    4990:	5185      	str	r5, [r0, r6]
    4992:	b082      	sub	sp, #8
    4994:	3001      	adds	r0, #1
    4996:	e288      	b.n	0x4eaa
    4998:	4100      	asrs	r0, r0
    499a:	b515      	push	{r0, r2, r4, lr}
    499c:	000c      	movs	r4, r1
    499e:	ba00      	rev	r0, r0
    49a0:	107c      	asrs	r4, r7, #1
    49a2:	e59d      	b.n	0x44e0
    49a4:	001f      	movs	r7, r3
    49a6:	e352      	b.n	0x504e
    49a8:	0004      	movs	r4, r0
    49aa:	e281      	b.n	0x4eb0
    49ac:	007c      	lsls	r4, r7, #1
    49ae:	c58d      	stmia	r5!, {r0, r2, r3, r7}
    49b0:	40b0      	lsls	r0, r6
    49b2:	c1d1      	stmia	r1!, {r0, r4, r6, r7}
    49b4:	0062      	lsls	r2, r4, #1
    49b6:	ca00      	ldmia	r2!, {}
    49b8:	c001      	stmia	r0!, {r0}
    49ba:	e282      	b.n	0x4ec2
    49bc:	c08c      	stmia	r0!, {r2, r3, r7}
    49be:	e58d      	b.n	0x44dc
    49c0:	4000      	ands	r0, r0
    49c2:	e591      	b.n	0x44e8
    49c4:	1fba      	subs	r2, r7, #6
    49c6:	e28d      	b.n	0x4ee4
    49c8:	2182      	movs	r1, #130	; 0x82
    49ca:	e081      	b.n	0x4ad0
    49cc:	007c      	lsls	r4, r7, #1
    49ce:	e58d      	b.n	0x44ec
    49d0:	4100      	asrs	r0, r0
    49d2:	e502      	b.n	0x43da
    49d4:	4804      	ldr	r0, [pc, #16]	; (0x49e8)
    49d6:	e1a0      	b.n	0x4d1a
    49d8:	4824      	ldr	r0, [pc, #144]	; (0x4a6c)
    49da:	e1a0      	b.n	0x4d1e
    49dc:	0058      	lsls	r0, r3, #1
    49de:	ea00 0c02 	and.w	ip, r0, r2
    49e2:	e31a      	b.n	0x501a
    49e4:	002b      	movs	r3, r5
    49e6:	0a00      	lsrs	r0, r0, #8
    49e8:	0000      	movs	r0, r0
    49ea:	e357      	b.n	0x509c
    49ec:	0014      	movs	r4, r2
    49ee:	0a00      	lsrs	r0, r0, #8
    49f0:	0002      	movs	r2, r0
    49f2:	e155      	b.n	0x4ca0
    49f4:	3fba      	subs	r7, #186	; 0xba
    49f6:	b28d      	uxth	r5, r1
    49f8:	5185      	str	r5, [r0, r6]
    49fa:	b083      	sub	sp, #12
    49fc:	4100      	asrs	r0, r0
    49fe:	b555      	push	{r0, r2, r4, r6, lr}
    4a00:	000d      	movs	r5, r1
    4a02:	ba00      	rev	r0, r0
    4a04:	3090      	adds	r0, #144	; 0x90
    4a06:	e28d      	b.n	0x4f24
    4a08:	300c      	adds	r0, #12
    4a0a:	e58d      	b.n	0x4528
    4a0c:	3f5a      	subs	r7, #90	; 0x5a
    4a0e:	e28d      	b.n	0x4f2c
    4a10:	3008      	adds	r0, #8
    4a12:	e58d      	b.n	0x4530
    4a14:	3f7a      	subs	r7, #122	; 0x7a
    4a16:	e28d      	b.n	0x4f34
    4a18:	3004      	adds	r0, #4
    4a1a:	e58d      	b.n	0x4538
    4a1c:	308c      	adds	r0, #140	; 0x8c
    4a1e:	e28d      	b.n	0x4f3c
    4a20:	3000      	adds	r0, #0
    4a22:	e58d      	b.n	0x4540
    4a24:	2006      	movs	r0, #6
    4a26:	e1a0      	b.n	0x4d6a
    4a28:	307c      	adds	r0, #124	; 0x7c
    4a2a:	e28d      	b.n	0x4f48
    4a2c:	1005      	asrs	r5, r0, #32
    4a2e:	e1a0      	b.n	0x4d72
    4a30:	000b      	movs	r3, r1
    4a32:	e1a0      	b.n	0x4d76
    4a34:	f526 ebff 			; <UNDEFINED> instruction: 0xf526ebff
    4a38:	4000      	ands	r0, r0
    4a3a:	e5d0      	b.n	0x45de
    4a3c:	3008      	adds	r0, #8
    4a3e:	e1a0      	b.n	0x4d82
    4a40:	0012      	movs	r2, r2
    4a42:	ea00 0002 	and.w	r0, r0, r2
    4a46:	e158      	b.n	0x4cfa
    4a48:	2fba      	cmp	r7, #186	; 0xba
    4a4a:	b28d      	uxth	r5, r1
    4a4c:	5185      	str	r5, [r0, r6]
    4a4e:	b082      	sub	sp, #8
    4a50:	3001      	adds	r0, #1
    4a52:	e288      	b.n	0x4f66
    4a54:	4100      	asrs	r0, r0
    4a56:	b555      	push	{r0, r2, r4, r6, lr}
    4a58:	000c      	movs	r4, r1
    4a5a:	ba00      	rev	r0, r0
    4a5c:	001f      	movs	r7, r3
    4a5e:	e352      	b.n	0x5106
    4a60:	c001      	stmia	r0!, {r0}
    4a62:	d282      	bcs.n	0x496a
    4a64:	107c      	asrs	r4, r7, #1
    4a66:	e59d      	b.n	0x45a4
    4a68:	c08c      	stmia	r0!, {r2, r3, r7}
    4a6a:	d58d      	bpl.n	0x4988
    4a6c:	0004      	movs	r4, r0
    4a6e:	e281      	b.n	0x4f74
    4a70:	4000      	ands	r0, r0
    4a72:	d591      	bpl.n	0x4998
    4a74:	1fba      	subs	r2, r7, #6
    4a76:	d28d      	bcs.n	0x4994
    4a78:	2182      	movs	r1, #130	; 0x82
    4a7a:	d081      	beq.n	0x4980
    4a7c:	007c      	lsls	r4, r7, #1
    4a7e:	d58d      	bpl.n	0x499c
    4a80:	007c      	lsls	r4, r7, #1
    4a82:	c58d      	stmia	r5!, {r0, r2, r3, r7}
    4a84:	4000      	ands	r0, r0
    4a86:	c5d1      	stmia	r5!, {r0, r4, r6, r7}
    4a88:	4100      	asrs	r0, r0
    4a8a:	d502      	bpl.n	0x4a92
    4a8c:	40ff      	lsrs	r7, r7
    4a8e:	d204      	bcs.n	0x4a9a
    4a90:	40ff      	lsrs	r7, r7
    4a92:	e204      	b.n	0x4e9e
    4a94:	002a      	movs	r2, r5
    4a96:	ea00 0000 	and.w	r0, r0, r0
    4a9a:	e357      	b.n	0x514c
    4a9c:	0014      	movs	r4, r2
    4a9e:	0a00      	lsrs	r0, r0, #8
    4aa0:	0002      	movs	r2, r0
    4aa2:	e155      	b.n	0x4d50
    4aa4:	3fba      	subs	r7, #186	; 0xba
    4aa6:	b28d      	uxth	r5, r1
    4aa8:	5185      	str	r5, [r0, r6]
    4aaa:	b083      	sub	sp, #12
    4aac:	4100      	asrs	r0, r0
    4aae:	b515      	push	{r0, r2, r4, lr}
    4ab0:	000d      	movs	r5, r1
    4ab2:	ba00      	rev	r0, r0
    4ab4:	3090      	adds	r0, #144	; 0x90
    4ab6:	e28d      	b.n	0x4fd4
    4ab8:	300c      	adds	r0, #12
    4aba:	e58d      	b.n	0x45d8
    4abc:	3f5a      	subs	r7, #90	; 0x5a
    4abe:	e28d      	b.n	0x4fdc
    4ac0:	3008      	adds	r0, #8
    4ac2:	e58d      	b.n	0x45e0
    4ac4:	3f7a      	subs	r7, #122	; 0x7a
    4ac6:	e28d      	b.n	0x4fe4
    4ac8:	3004      	adds	r0, #4
    4aca:	e58d      	b.n	0x45e8
    4acc:	308c      	adds	r0, #140	; 0x8c
    4ace:	e28d      	b.n	0x4fec
    4ad0:	3000      	adds	r0, #0
    4ad2:	e58d      	b.n	0x45f0
    4ad4:	2006      	movs	r0, #6
    4ad6:	e1a0      	b.n	0x4e1a
    4ad8:	307c      	adds	r0, #124	; 0x7c
    4ada:	e28d      	b.n	0x4ff8
    4adc:	1005      	asrs	r5, r0, #32
    4ade:	e1a0      	b.n	0x4e22
    4ae0:	000b      	movs	r3, r1
    4ae2:	e1a0      	b.n	0x4e26
    4ae4:	f4fa ebff 			; <UNDEFINED> instruction: 0xf4faebff
    4ae8:	4000      	ands	r0, r0
    4aea:	e590      	b.n	0x460e
    4aec:	3008      	adds	r0, #8
    4aee:	e1a0      	b.n	0x4e32
    4af0:	0013      	movs	r3, r2
    4af2:	ea00 0002 	and.w	r0, r0, r2
    4af6:	e158      	b.n	0x4daa
    4af8:	3001      	adds	r0, #1
    4afa:	e288      	b.n	0x500e
    4afc:	0003      	movs	r3, r0
    4afe:	aa00      	add	r2, sp, #0
    4b00:	2fba      	cmp	r7, #186	; 0xba
    4b02:	e28d      	b.n	0x5020
    4b04:	5185      	str	r5, [r0, r6]
    4b06:	e082      	b.n	0x4c0e
    4b08:	4100      	asrs	r0, r0
    4b0a:	e515      	b.n	0x4538
    4b0c:	000c      	movs	r4, r1
    4b0e:	ea00 107c 	and.w	r0, r0, ip, ror #5
    4b12:	e59d      	b.n	0x4650
    4b14:	001f      	movs	r7, r3
    4b16:	e352      	b.n	0x51be
    4b18:	0004      	movs	r4, r0
    4b1a:	e281      	b.n	0x5020
    4b1c:	007c      	lsls	r4, r7, #1
    4b1e:	c58d      	stmia	r5!, {r0, r2, r3, r7}
    4b20:	4000      	ands	r0, r0
    4b22:	c591      	stmia	r5!, {r0, r4, r7}
    4b24:	0006      	movs	r6, r0
    4b26:	ca00      	ldmia	r2!, {}
    4b28:	c001      	stmia	r0!, {r0}
    4b2a:	e282      	b.n	0x5032
    4b2c:	c08c      	stmia	r0!, {r2, r3, r7}
    4b2e:	e58d      	b.n	0x464c
    4b30:	007c      	lsls	r4, r7, #1
    4b32:	e58d      	b.n	0x4650
    4b34:	4000      	ands	r0, r0
    4b36:	e591      	b.n	0x465c
    4b38:	1fba      	subs	r2, r7, #6
    4b3a:	e28d      	b.n	0x5058
    4b3c:	2182      	movs	r1, #130	; 0x82
    4b3e:	e081      	b.n	0x4c44
    4b40:	4100      	asrs	r0, r0
    4b42:	e502      	b.n	0x454a
    4b44:	5000      	str	r0, [r0, r0]
    4b46:	e3a0      	b.n	0x528a
    4b48:	2005      	movs	r0, #5
    4b4a:	e194      	b.n	0x4e76
    4b4c:	2001      	movs	r0, #1
    4b4e:	120a      	asrs	r2, r1, #8
    4b50:	2000      	movs	r0, #0
    4b52:	03a0      	lsls	r0, r4, #14
    4b54:	0000      	movs	r0, r0
    4b56:	e352      	b.n	0x51fe
    4b58:	2030      	movs	r0, #48	; 0x30
    4b5a:	13a0      	asrs	r0, r4, #14
    4b5c:	2088      	movs	r0, #136	; 0x88
    4b5e:	15cd      	asrs	r5, r1, #23
    4b60:	2024      	movs	r0, #36	; 0x24
    4b62:	159d      	asrs	r5, r3, #22
    4b64:	2089      	movs	r0, #137	; 0x89
    4b66:	15cd      	asrs	r5, r1, #23
    4b68:	2002      	movs	r0, #2
    4b6a:	e3a0      	b.n	0x52ae
    4b6c:	a002      	add	r0, pc, #8	; (adr r0, 0x4b78)
    4b6e:	138a      	asrs	r2, r1, #14
    4b70:	ab01      	add	r3, sp, #4
    4b72:	e3ca      	b.n	0x530a
    4b74:	1000      	asrs	r0, r0, #32
    4b76:	e3a0      	b.n	0x52ba
    4b78:	8003      	strh	r3, [r0, #0]
    4b7a:	e1a0      	b.n	0x4ebe
    4b7c:	1087      	asrs	r7, r0, #2
    4b7e:	e5cd      	b.n	0x471c
    4b80:	0000      	movs	r0, r0
    4b82:	ea00 2001 	and.w	r0, r0, r1, lsl #8
    4b86:	e3a0      	b.n	0x52ca
    4b88:	3018      	adds	r0, #24
    4b8a:	e59d      	b.n	0x46c8
    4b8c:	0001      	movs	r1, r0
    4b8e:	e373      	b.n	0x5278
    4b90:	0009      	movs	r1, r1
    4b92:	0a00      	lsrs	r0, r0, #8
    4b94:	1018      	asrs	r0, r3, #32
    4b96:	e59d      	b.n	0x46d4
    4b98:	3005      	adds	r0, #5
    4b9a:	e194      	b.n	0x4ec6
    4b9c:	3001      	adds	r0, #1
    4b9e:	13a0      	asrs	r0, r4, #14
    4ba0:	3000      	adds	r0, #0
    4ba2:	03a0      	lsls	r0, r4, #14
    4ba4:	0000      	movs	r0, r0
    4ba6:	e351      	b.n	0x524c
    4ba8:	3001      	adds	r0, #1
    4baa:	13a0      	asrs	r0, r4, #14
    4bac:	0000      	movs	r0, r0
    4bae:	e353      	b.n	0x5258
    4bb0:	6080      	str	r0, [r0, #8]
    4bb2:	e3ca      	b.n	0x534a
    4bb4:	006d      	lsls	r5, r5, #1
    4bb6:	0a00      	lsrs	r0, r0, #8
    4bb8:	0000      	movs	r0, r0
    4bba:	ea00 600a 	and.w	r0, r0, sl, lsl #24
    4bbe:	e1a0      	b.n	0x4f02
    4bc0:	0001      	movs	r1, r0
    4bc2:	e352      	b.n	0x526a
    4bc4:	0018      	movs	r0, r3
    4bc6:	0a00      	lsrs	r0, r0, #8
    4bc8:	0002      	movs	r2, r0
    4bca:	e352      	b.n	0x5272
    4bcc:	2f5a      	cmp	r7, #90	; 0x5a
    4bce:	128d      	asrs	r5, r1, #10
    4bd0:	0056      	lsls	r6, r2, #1
    4bd2:	0a00      	lsrs	r0, r0, #8
    4bd4:	11a4      	asrs	r4, r4, #6
    4bd6:	e1a0      	b.n	0x4f1a
    4bd8:	1e85      	subs	r5, r0, #2
    4bda:	e181      	b.n	0x4ee0
    4bdc:	c1a5      	stmia	r1!, {r0, r2, r5, r7}
    4bde:	e1a0      	b.n	0x4f22
    4be0:	3007      	adds	r0, #7
    4be2:	e204      	b.n	0x4fee
    4be4:	500c      	str	r4, [r1, r0]
    4be6:	e1a0      	b.n	0x4f2a
    4be8:	4001      	ands	r1, r0
    4bea:	e1a0      	b.n	0x4f2e
    4bec:	3030      	adds	r0, #48	; 0x30
    4bee:	e283      	b.n	0x50f8
    4bf0:	1005      	asrs	r5, r0, #32
    4bf2:	e194      	b.n	0x4f1e
    4bf4:	0001      	movs	r1, r0
    4bf6:	e242      	b.n	0x507e
    4bf8:	3001      	adds	r0, #1
    4bfa:	e542      	b.n	0x4682
    4bfc:	2000      	movs	r0, #0
    4bfe:	11a0      	asrs	r0, r4, #6
    4c00:	fff3 1aff 			; <UNDEFINED> instruction: 0xfff31aff
    4c04:	0030      	movs	r0, r6
    4c06:	e353      	b.n	0x52b0
    4c08:	3000      	adds	r0, #0
    4c0a:	03a0      	lsls	r0, r4, #14
    4c0c:	3001      	adds	r0, #1
    4c0e:	1206      	asrs	r6, r0, #8
    4c10:	0000      	movs	r0, r0
    4c12:	e353      	b.n	0x52bc
    4c14:	001c      	movs	r4, r3
    4c16:	e58d      	b.n	0x4734
    4c18:	005f      	lsls	r7, r3, #1
    4c1a:	0a00      	lsrs	r0, r0, #8
    4c1c:	3030      	adds	r0, #48	; 0x30
    4c1e:	e3a0      	b.n	0x5362
    4c20:	3001      	adds	r0, #1
    4c22:	e540      	b.n	0x46a6
    4c24:	3002      	adds	r0, #2
    4c26:	e242      	b.n	0x50ae
    4c28:	005a      	lsls	r2, r3, #1
    4c2a:	ea00 0000 	and.w	r0, r0, r0
    4c2e:	e355      	b.n	0x52dc
    4c30:	0009      	movs	r1, r1
    4c32:	0354      	lsls	r4, r2, #13
    4c34:	4030      	ands	r0, r6
    4c36:	9284      	str	r2, [sp, #528]	; 0x210
    4c38:	4167      	adcs	r7, r4
    4c3a:	95cd      	str	r5, [sp, #820]	; 0x334
    4c3c:	0051      	lsls	r1, r2, #1
    4c3e:	9a00      	ldr	r2, [sp, #0]
    4c40:	ab01      	add	r3, sp, #4
    4c42:	e206      	b.n	0x5052
    4c44:	b01c      	add	sp, #112	; 0x70
    4c46:	e58d      	b.n	0x4764
    4c48:	b006      	add	sp, #24
    4c4a:	e1a0      	b.n	0x4f8e
    4c4c:	6000      	str	r0, [r0, #0]
    4c4e:	e3a0      	b.n	0x5392
    4c50:	8030      	strh	r0, [r6, #0]
    4c52:	e58d      	b.n	0x4770
    4c54:	7f5a      	ldrb	r2, [r3, #29]
    4c56:	e28d      	b.n	0x5174
    4c58:	200a      	movs	r0, #10
    4c5a:	e3a0      	b.n	0x539e
    4c5c:	3000      	adds	r0, #0
    4c5e:	e3a0      	b.n	0x53a2
    4c60:	0004      	movs	r4, r0
    4c62:	e1a0      	b.n	0x4fa6
    4c64:	1005      	asrs	r5, r0, #32
    4c66:	e1a0      	b.n	0x4faa
    4c68:	f385 ebff 			; <UNDEFINED> instruction: 0xf385ebff
    4c6c:	0000      	movs	r0, r0
    4c6e:	e35a      	b.n	0x5326
    4c70:	2030      	movs	r0, #48	; 0x30
    4c72:	e282      	b.n	0x517a
    4c74:	8001      	strh	r1, [r0, #0]
    4c76:	e247      	b.n	0x5108
    4c78:	2001      	movs	r0, #1
    4c7a:	e547      	b.n	0x470c
    4c7c:	6001      	str	r1, [r0, #0]
    4c7e:	e286      	b.n	0x518e
    4c80:	0019      	movs	r1, r3
    4c82:	0a00      	lsrs	r0, r0, #8
    4c84:	0000      	movs	r0, r0
    4c86:	e355      	b.n	0x5334
    4c88:	3050      	adds	r0, #80	; 0x50
    4c8a:	e59d      	b.n	0x47c8
    4c8c:	0009      	movs	r1, r1
    4c8e:	0354      	lsls	r4, r2, #13
    4c90:	2000      	movs	r0, #0
    4c92:	e5d3      	b.n	0x483c
    4c94:	3001      	adds	r0, #1
    4c96:	83a0      	strh	r0, [r4, #28]
    4c98:	3000      	adds	r0, #0
    4c9a:	93a0      	str	r3, [sp, #640]	; 0x280
    4c9c:	00ff      	lsls	r7, r7, #3
    4c9e:	e352      	b.n	0x5346
    4ca0:	3000      	adds	r0, #0
    4ca2:	03a0      	lsls	r0, r4, #14
    4ca4:	3001      	adds	r0, #1
    4ca6:	1203      	asrs	r3, r0, #8
    4ca8:	0006      	movs	r6, r0
    4caa:	e152      	b.n	0x4f52
    4cac:	3000      	adds	r0, #0
    4cae:	13a0      	asrs	r0, r4, #14
    4cb0:	3001      	adds	r0, #1
    4cb2:	0203      	lsls	r3, r0, #8
    4cb4:	0000      	movs	r0, r0
    4cb6:	e353      	b.n	0x5360
    4cb8:	000b      	movs	r3, r1
    4cba:	0a00      	lsrs	r0, r0, #8
    4cbc:	3058      	adds	r0, #88	; 0x58
    4cbe:	e59d      	b.n	0x47fc
    4cc0:	8003      	strh	r3, [r0, #0]
    4cc2:	e048      	b.n	0x4d56
    4cc4:	2003      	movs	r0, #3
    4cc6:	e1a0      	b.n	0x500a
    4cc8:	1068      	asrs	r0, r5, #1
    4cca:	e59d      	b.n	0x4808
    4ccc:	0008      	movs	r0, r1
    4cce:	e1a0      	b.n	0x5012
    4cd0:	1139      	asrs	r1, r7, #4
    4cd2:	eb00 3050 	add.w	r0, r0, r0, lsr #13
    4cd6:	e59d      	b.n	0x4814
    4cd8:	6001      	str	r1, [r0, #0]
    4cda:	e5d3      	b.n	0x4884
    4cdc:	0000      	movs	r0, r0
    4cde:	e356      	b.n	0x538e
    4ce0:	6000      	str	r0, [r0, #0]
    4ce2:	13a0      	asrs	r0, r4, #14
    4ce4:	3001      	adds	r0, #1
    4ce6:	1283      	asrs	r3, r0, #10
    4ce8:	3050      	adds	r0, #80	; 0x50
    4cea:	158d      	asrs	r5, r1, #22
    4cec:	200a      	movs	r0, #10
    4cee:	e3a0      	b.n	0x5432
    4cf0:	3000      	adds	r0, #0
    4cf2:	e3a0      	b.n	0x5436
    4cf4:	0004      	movs	r4, r0
    4cf6:	e1a0      	b.n	0x503a
    4cf8:	1005      	asrs	r5, r0, #32
    4cfa:	e1a0      	b.n	0x503e
    4cfc:	f360 ebff 			; <UNDEFINED> instruction: 0xf360ebff
    4d00:	0000      	movs	r0, r0
    4d02:	e355      	b.n	0x53b0
    4d04:	0009      	movs	r1, r1
    4d06:	0354      	lsls	r4, r2, #13
    4d08:	4000      	ands	r0, r0
    4d0a:	81a0      	strh	r0, [r4, #12]
    4d0c:	5001      	str	r1, [r0, r0]
    4d0e:	81a0      	strh	r0, [r4, #12]
    4d10:	7008      	strb	r0, [r1, #0]
    4d12:	81a0      	strh	r0, [r4, #12]
    4d14:	ffcf 8aff 			; <UNDEFINED> instruction: 0xffcf8aff
    4d18:	6028      	str	r0, [r5, #0]
    4d1a:	e58d      	b.n	0x4838
    4d1c:	600b      	str	r3, [r1, #0]
    4d1e:	e1a0      	b.n	0x5062
    4d20:	b01c      	add	sp, #112	; 0x70
    4d22:	e59d      	b.n	0x4860
    4d24:	801c      	strh	r4, [r3, #0]
    4d26:	e58d      	b.n	0x4844
    4d28:	8030      	strh	r0, [r6, #0]
    4d2a:	e59d      	b.n	0x4868
    4d2c:	001a      	movs	r2, r3
    4d2e:	ea00 3f5a 	and.w	pc, r0, sl, lsr #13
    4d32:	e28d      	b.n	0x5250
    4d34:	2003      	movs	r0, #3
    4d36:	e1a0      	b.n	0x507a
    4d38:	301c      	adds	r0, #28
    4d3a:	e58d      	b.n	0x4858
    4d3c:	1070      	asrs	r0, r6, #1
    4d3e:	e59d      	b.n	0x487c
    4d40:	300f      	adds	r0, #15
    4d42:	e204      	b.n	0x514e
    4d44:	3003      	adds	r0, #3
    4d46:	e7d1      	b.n	0x4cec
    4d48:	3001      	adds	r0, #1
    4d4a:	e562      	b.n	0x4812
    4d4c:	3224      	adds	r2, #36	; 0x24
    4d4e:	e1a0      	b.n	0x5092
    4d50:	3e05      	subs	r6, #5
    4d52:	e183      	b.n	0x505c
    4d54:	1225      	asrs	r5, r4, #8
    4d56:	e1a0      	b.n	0x509a
    4d58:	4003      	ands	r3, r0
    4d5a:	e1a0      	b.n	0x509e
    4d5c:	5001      	str	r1, [r0, r0]
    4d5e:	e1a0      	b.n	0x50a2
    4d60:	3005      	adds	r0, #5
    4d62:	e194      	b.n	0x508e
    4d64:	fff4 1aff 			; <UNDEFINED> instruction: 0xfff41aff
    4d68:	201c      	movs	r0, #28
    4d6a:	e58d      	b.n	0x4888
    4d6c:	000a      	movs	r2, r1
    4d6e:	ea00 0000 	and.w	r0, r0, r0
    4d72:	e352      	b.n	0x541a
    4d74:	0006      	movs	r6, r0
    4d76:	1a00      	subs	r0, r0, r0
    4d78:	0001      	movs	r1, r0
    4d7a:	e31a      	b.n	0x53b2
    4d7c:	0004      	movs	r4, r0
    4d7e:	0a00      	lsrs	r0, r0, #8
    4d80:	3030      	adds	r0, #48	; 0x30
    4d82:	e3a0      	b.n	0x54c6
    4d84:	3167      	adds	r1, #103	; 0x67
    4d86:	e5cd      	b.n	0x4924
    4d88:	3f59      	subs	r7, #89	; 0x59
    4d8a:	e28d      	b.n	0x52a8
    4d8c:	3003      	adds	r0, #3
    4d8e:	e283      	b.n	0x5298
    4d90:	0000      	movs	r0, r0
    4d92:	ea00 3f5a 	and.w	pc, r0, sl, lsr #13
    4d96:	e28d      	b.n	0x52b4
    4d98:	301c      	adds	r0, #28
    4d9a:	e58d      	b.n	0x48b8
    4d9c:	301c      	adds	r0, #28
    4d9e:	e59d      	b.n	0x48dc
    4da0:	5f5a      	ldrsh	r2, [r3, r5]
    4da2:	e28d      	b.n	0x52c0
    4da4:	5003      	str	r3, [r0, r0]
    4da6:	e045      	b.n	0x4e34
    4da8:	a006      	add	r0, pc, #24	; (adr r0, 0x4dc4)
    4daa:	e1a0      	b.n	0x50ee
    4dac:	7000      	strb	r0, [r0, #0]
    4dae:	e3a0      	b.n	0x54f2
    4db0:	f98f eaff 	vst3.32			; <UNDEFINED> instruction: 0xf98feaff
    4db4:	0000      	movs	r0, r0
    4db6:	e351      	b.n	0x545c
    4db8:	903c      	str	r0, [sp, #240]	; 0xf0
    4dba:	e58d      	b.n	0x48d8
    4dbc:	2044      	movs	r0, #68	; 0x44
    4dbe:	e58d      	b.n	0x48dc
    4dc0:	1024      	asrs	r4, r4, #32
    4dc2:	e58d      	b.n	0x48e0
    4dc4:	9030      	str	r0, [sp, #192]	; 0xc0
    4dc6:	e59d      	b.n	0x4904
    4dc8:	039b      	lsls	r3, r3, #14
    4dca:	0a00      	lsrs	r0, r0, #8
    4dcc:	0000      	movs	r0, r0
    4dce:	e3a0      	b.n	0x5512
    4dd0:	5001      	str	r1, [r0, r0]
    4dd2:	e3a0      	b.n	0x5516
    4dd4:	7000      	strb	r0, [r0, #0]
    4dd6:	e1a0      	b.n	0x511a
    4dd8:	1104      	asrs	r4, r0, #4
    4dda:	e5cd      	b.n	0x4978
    4ddc:	0087      	lsls	r7, r0, #2
    4dde:	e5cd      	b.n	0x497c
    4de0:	6007      	str	r7, [r0, #0]
    4de2:	e1a0      	b.n	0x5126
    4de4:	7018      	strb	r0, [r3, #0]
    4de6:	e58d      	b.n	0x4904
    4de8:	7030      	strb	r0, [r6, #0]
    4dea:	e58d      	b.n	0x4908
    4dec:	7034      	strb	r4, [r6, #0]
    4dee:	e58d      	b.n	0x490c
    4df0:	3f41      	subs	r7, #65	; 0x41
    4df2:	e28d      	b.n	0x5310
    4df4:	301c      	adds	r0, #28
    4df6:	e58d      	b.n	0x4914
    4df8:	0005      	movs	r5, r0
    4dfa:	ea00 3018 	and.w	r0, r0, r8, lsr #12
    4dfe:	e58d      	b.n	0x491c
    4e00:	0003      	movs	r3, r0
    4e02:	ea00 5018 	and.w	r0, r0, r8, lsr #20
    4e06:	e59d      	b.n	0x4944
    4e08:	7030      	strb	r0, [r6, #0]
    4e0a:	e58d      	b.n	0x4928
    4e0c:	7018      	strb	r0, [r3, #0]
    4e0e:	e58d      	b.n	0x492c
    4e10:	7034      	strb	r4, [r6, #0]
    4e12:	e58d      	b.n	0x4930
    4e14:	3018      	adds	r0, #24
    4e16:	e59d      	b.n	0x4954
    4e18:	0005      	movs	r5, r0
    4e1a:	e153      	b.n	0x50c4
    4e1c:	3005      	adds	r0, #5
    4e1e:	b1a0      	cbz	r0, 0x4e4a
    4e20:	3054      	adds	r0, #84	; 0x54
    4e22:	e58d      	b.n	0x4940
    4e24:	3087      	adds	r0, #135	; 0x87
    4e26:	e5dd      	b.n	0x49e4
    4e28:	0000      	movs	r0, r0
    4e2a:	e353      	b.n	0x54d4
    4e2c:	3054      	adds	r0, #84	; 0x54
    4e2e:	159d      	asrs	r5, r3, #22
    4e30:	3001      	adds	r0, #1
    4e32:	1283      	asrs	r3, r0, #10
    4e34:	3054      	adds	r0, #84	; 0x54
    4e36:	158d      	asrs	r5, r1, #22
    4e38:	3002      	adds	r0, #2
    4e3a:	e21a      	b.n	0x5272
    4e3c:	3074      	adds	r0, #116	; 0x74
    4e3e:	e58d      	b.n	0x495c
    4e40:	3054      	adds	r0, #84	; 0x54
    4e42:	159d      	asrs	r5, r3, #22
    4e44:	3002      	adds	r0, #2
    4e46:	1283      	asrs	r3, r0, #10
    4e48:	3054      	adds	r0, #84	; 0x54
    4e4a:	158d      	asrs	r5, r1, #22
    4e4c:	3084      	adds	r0, #132	; 0x84
    4e4e:	e21a      	b.n	0x5286
    4e50:	3078      	adds	r0, #120	; 0x78
    4e52:	e58d      	b.n	0x4970
    4e54:	002c      	movs	r4, r5
    4e56:	1a00      	subs	r0, r0, r0
    4e58:	303c      	adds	r0, #60	; 0x3c
    4e5a:	e59d      	b.n	0x4998
    4e5c:	2054      	movs	r0, #84	; 0x54
    4e5e:	e59d      	b.n	0x499c
    4e60:	4002      	ands	r2, r0
    4e62:	e043      	b.n	0x4eec
    4e64:	0000      	movs	r0, r0
    4e66:	e354      	b.n	0x5512
    4e68:	38fc      	subs	r0, #252	; 0xfc
    4e6a:	c59f      	stmia	r5!, {r0, r1, r2, r3, r4, r7}
    4e6c:	0026      	movs	r6, r4
    4e6e:	da00      	bge.n	0x4e72
    4e70:	20bc      	movs	r0, #188	; 0xbc
    4e72:	e59d      	b.n	0x49b0
    4e74:	0010      	movs	r0, r2
    4e76:	e354      	b.n	0x5522
    4e78:	10c0      	asrs	r0, r0, #3
    4e7a:	e59d      	b.n	0x49b8
    4e7c:	2001      	movs	r0, #1
    4e7e:	e282      	b.n	0x5386
    4e80:	0008      	movs	r0, r1
    4e82:	e289      	b.n	0x5398
    4e84:	3000      	adds	r0, #0
    4e86:	e589      	b.n	0x499c
    4e88:	0011      	movs	r1, r2
    4e8a:	da00      	bge.n	0x4e8e
    4e8c:	c010      	stmia	r0!, {r4}
    4e8e:	e3a0      	b.n	0x55d2
    4e90:	0007      	movs	r7, r0
    4e92:	e352      	b.n	0x553a
    4e94:	100c      	asrs	r4, r1, #32
    4e96:	e081      	b.n	0x4f9c
    4e98:	c004      	stmia	r0!, {r2}
    4e9a:	e589      	b.n	0x49b0
    4e9c:	10c0      	asrs	r0, r0, #3
    4e9e:	e58d      	b.n	0x49bc
    4ea0:	20bc      	movs	r0, #188	; 0xbc
    4ea2:	e58d      	b.n	0x49c0
    4ea4:	0007      	movs	r7, r0
    4ea6:	da00      	bge.n	0x4eaa
    4ea8:	20b8      	movs	r0, #184	; 0xb8
    4eaa:	e28d      	b.n	0x53c8
    4eac:	1020      	asrs	r0, r4, #32
    4eae:	e59d      	b.n	0x49ec
    4eb0:	000b      	movs	r3, r1
    4eb2:	e1a0      	b.n	0x51f6
    4eb4:	10fa      	asrs	r2, r7, #3
    4eb6:	eb00 0000 	add.w	r0, r0, r0
    4eba:	e350      	b.n	0x555e
    4ebc:	0368      	lsls	r0, r5, #13
    4ebe:	1a00      	subs	r0, r0, r0
    4ec0:	38a4      	subs	r0, #164	; 0xa4
    4ec2:	e59f      	b.n	0x4a04
    4ec4:	00c4      	lsls	r4, r0, #3
    4ec6:	e28d      	b.n	0x53e4
    4ec8:	4010      	ands	r0, r2
    4eca:	e244      	b.n	0x5356
    4ecc:	9000      	str	r0, [sp, #0]
    4ece:	e1a0      	b.n	0x5212
    4ed0:	ffe6 eaff 			; <UNDEFINED> instruction: 0xffe6eaff
    4ed4:	4004      	ands	r4, r0
    4ed6:	e589      	b.n	0x49ec
    4ed8:	0007      	movs	r7, r0
    4eda:	e352      	b.n	0x5582
    4edc:	4001      	ands	r1, r0
    4ede:	e084      	b.n	0x4fea
    4ee0:	40c0      	lsrs	r0, r0
    4ee2:	e58d      	b.n	0x4a00
    4ee4:	20bc      	movs	r0, #188	; 0xbc
    4ee6:	e58d      	b.n	0x4a04
    4ee8:	9000      	str	r0, [sp, #0]
    4eea:	d1a0      	bne.n	0x4e2e
    4eec:	0006      	movs	r6, r0
    4eee:	da00      	bge.n	0x4ef2
    4ef0:	20b8      	movs	r0, #184	; 0xb8
    4ef2:	e28d      	b.n	0x5410
    4ef4:	1020      	asrs	r0, r4, #32
    4ef6:	e59d      	b.n	0x4a34
    4ef8:	000b      	movs	r3, r1
    4efa:	e1a0      	b.n	0x523e
    4efc:	10e8      	asrs	r0, r5, #3
    4efe:	eb00 0000 	add.w	r0, r0, r0
    4f02:	e350      	b.n	0x55a6
    4f04:	0356      	lsls	r6, r2, #13
    4f06:	1a00      	subs	r0, r0, r0
    4f08:	90c4      	str	r0, [sp, #784]	; 0x310
    4f0a:	e28d      	b.n	0x5428
    4f0c:	3087      	adds	r0, #135	; 0x87
    4f0e:	e5dd      	b.n	0x4acc
    4f10:	0000      	movs	r0, r0
    4f12:	e353      	b.n	0x55bc
    4f14:	0013      	movs	r3, r2
    4f16:	0a00      	lsrs	r0, r0, #8
    4f18:	3087      	adds	r0, #135	; 0x87
    4f1a:	e28d      	b.n	0x5438
    4f1c:	3000      	adds	r0, #0
    4f1e:	e589      	b.n	0x4a34
    4f20:	3001      	adds	r0, #1
    4f22:	e3a0      	b.n	0x5666
    4f24:	3004      	adds	r0, #4
    4f26:	e589      	b.n	0x4a3c
    4f28:	30c0      	adds	r0, #192	; 0xc0
    4f2a:	e59d      	b.n	0x4a68
    4f2c:	3001      	adds	r0, #1
    4f2e:	e283      	b.n	0x5438
    4f30:	30c0      	adds	r0, #192	; 0xc0
    4f32:	e58d      	b.n	0x4a50
    4f34:	30bc      	adds	r0, #188	; 0xbc
    4f36:	e59d      	b.n	0x4a74
    4f38:	3001      	adds	r0, #1
    4f3a:	e283      	b.n	0x5444
    4f3c:	0007      	movs	r7, r0
    4f3e:	e353      	b.n	0x55e8
    4f40:	30bc      	adds	r0, #188	; 0xbc
    4f42:	e58d      	b.n	0x4a60
    4f44:	9008      	str	r0, [sp, #32]
    4f46:	d289      	bcs.n	0x4e5c
    4f48:	0006      	movs	r6, r0
    4f4a:	da00      	bge.n	0x4f4e
    4f4c:	20b8      	movs	r0, #184	; 0xb8
    4f4e:	e28d      	b.n	0x546c
    4f50:	1020      	asrs	r0, r4, #32
    4f52:	e59d      	b.n	0x4a90
    4f54:	000b      	movs	r3, r1
    4f56:	e1a0      	b.n	0x529a
    4f58:	10d1      	asrs	r1, r2, #3
    4f5a:	eb00 0000 	add.w	r0, r0, r0
    4f5e:	e350      	b.n	0x5602
    4f60:	033f      	lsls	r7, r7, #12
    4f62:	1a00      	subs	r0, r0, r0
    4f64:	90c4      	str	r0, [sp, #784]	; 0x310
    4f66:	e28d      	b.n	0x5484
    4f68:	3074      	adds	r0, #116	; 0x74
    4f6a:	e59d      	b.n	0x4aa8
    4f6c:	0000      	movs	r0, r0
    4f6e:	e353      	b.n	0x5618
    4f70:	0013      	movs	r3, r2
    4f72:	0a00      	lsrs	r0, r0, #8
    4f74:	3088      	adds	r0, #136	; 0x88
    4f76:	e28d      	b.n	0x5494
    4f78:	3000      	adds	r0, #0
    4f7a:	e589      	b.n	0x4a90
    4f7c:	3002      	adds	r0, #2
    4f7e:	e3a0      	b.n	0x56c2
    4f80:	3004      	adds	r0, #4
    4f82:	e589      	b.n	0x4a98
    4f84:	30c0      	adds	r0, #192	; 0xc0
    4f86:	e59d      	b.n	0x4ac4
    4f88:	3002      	adds	r0, #2
    4f8a:	e283      	b.n	0x5494
    4f8c:	30c0      	adds	r0, #192	; 0xc0
    4f8e:	e58d      	b.n	0x4aac
    4f90:	30bc      	adds	r0, #188	; 0xbc
    4f92:	e59d      	b.n	0x4ad0
    4f94:	3001      	adds	r0, #1
    4f96:	e283      	b.n	0x54a0
    4f98:	0007      	movs	r7, r0
    4f9a:	e353      	b.n	0x5644
    4f9c:	30bc      	adds	r0, #188	; 0xbc
    4f9e:	e58d      	b.n	0x4abc
    4fa0:	9008      	str	r0, [sp, #32]
    4fa2:	d289      	bcs.n	0x4eb8
    4fa4:	0006      	movs	r6, r0
    4fa6:	da00      	bge.n	0x4faa
    4fa8:	20b8      	movs	r0, #184	; 0xb8
    4faa:	e28d      	b.n	0x54c8
    4fac:	1020      	asrs	r0, r4, #32
    4fae:	e59d      	b.n	0x4aec
    4fb0:	000b      	movs	r3, r1
    4fb2:	e1a0      	b.n	0x52f6
    4fb4:	10ba      	asrs	r2, r7, #2
    4fb6:	eb00 0000 	add.w	r0, r0, r0
    4fba:	e350      	b.n	0x565e
    4fbc:	0328      	lsls	r0, r5, #12
    4fbe:	1a00      	subs	r0, r0, r0
    4fc0:	90c4      	str	r0, [sp, #784]	; 0x310
    4fc2:	e28d      	b.n	0x54e0
    4fc4:	3078      	adds	r0, #120	; 0x78
    4fc6:	e59d      	b.n	0x4b04
    4fc8:	0080      	lsls	r0, r0, #2
    4fca:	e353      	b.n	0x5674
    4fcc:	002c      	movs	r4, r5
    4fce:	1a00      	subs	r0, r0, r0
    4fd0:	303c      	adds	r0, #60	; 0x3c
    4fd2:	e59d      	b.n	0x4b10
    4fd4:	2054      	movs	r0, #84	; 0x54
    4fd6:	e59d      	b.n	0x4b14
    4fd8:	4002      	ands	r2, r0
    4fda:	e043      	b.n	0x5064
    4fdc:	0000      	movs	r0, r0
    4fde:	e354      	b.n	0x568a
    4fe0:	3780      	adds	r7, #128	; 0x80
    4fe2:	c59f      	stmia	r5!, {r0, r1, r2, r3, r4, r7}
    4fe4:	0026      	movs	r6, r4
    4fe6:	da00      	bge.n	0x4fea
    4fe8:	20bc      	movs	r0, #188	; 0xbc
    4fea:	e59d      	b.n	0x4b28
    4fec:	0010      	movs	r0, r2
    4fee:	e354      	b.n	0x569a
    4ff0:	10c0      	asrs	r0, r0, #3
    4ff2:	e59d      	b.n	0x4b30
    4ff4:	2001      	movs	r0, #1
    4ff6:	e282      	b.n	0x54fe
    4ff8:	0008      	movs	r0, r1
    4ffa:	e289      	b.n	0x5510
    4ffc:	3000      	adds	r0, #0
    4ffe:	e589      	b.n	0x4b14
    5000:	0011      	movs	r1, r2
    5002:	da00      	bge.n	0x5006
    5004:	c010      	stmia	r0!, {r4}
    5006:	e3a0      	b.n	0x574a
    5008:	0007      	movs	r7, r0
    500a:	e352      	b.n	0x56b2
    500c:	100c      	asrs	r4, r1, #32
    500e:	e081      	b.n	0x5114
    5010:	c004      	stmia	r0!, {r2}
    5012:	e589      	b.n	0x4b28
    5014:	10c0      	asrs	r0, r0, #3
    5016:	e58d      	b.n	0x4b34
    5018:	20bc      	movs	r0, #188	; 0xbc
    501a:	e58d      	b.n	0x4b38
    501c:	0007      	movs	r7, r0
    501e:	da00      	bge.n	0x5022
    5020:	20b8      	movs	r0, #184	; 0xb8
    5022:	e28d      	b.n	0x5540
    5024:	1020      	asrs	r0, r4, #32
    5026:	e59d      	b.n	0x4b64
    5028:	000b      	movs	r3, r1
    502a:	e1a0      	b.n	0x536e
    502c:	109c      	asrs	r4, r3, #2
    502e:	eb00 0000 	add.w	r0, r0, r0
    5032:	e350      	b.n	0x56d6
    5034:	030a      	lsls	r2, r1, #12
    5036:	1a00      	subs	r0, r0, r0
    5038:	3728      	adds	r7, #40	; 0x28
    503a:	e59f      	b.n	0x4b7c
    503c:	00c4      	lsls	r4, r0, #3
    503e:	e28d      	b.n	0x555c
    5040:	4010      	ands	r0, r2
    5042:	e244      	b.n	0x54ce
    5044:	9000      	str	r0, [sp, #0]
    5046:	e1a0      	b.n	0x538a
    5048:	ffe6 eaff 			; <UNDEFINED> instruction: 0xffe6eaff
    504c:	4004      	ands	r4, r0
    504e:	e589      	b.n	0x4b64
    5050:	0007      	movs	r7, r0
    5052:	e352      	b.n	0x56fa
    5054:	4001      	ands	r1, r0
    5056:	e084      	b.n	0x5162
    5058:	40c0      	lsrs	r0, r0
    505a:	e58d      	b.n	0x4b78
    505c:	20bc      	movs	r0, #188	; 0xbc
    505e:	e58d      	b.n	0x4b7c
    5060:	9000      	str	r0, [sp, #0]
    5062:	d1a0      	bne.n	0x4fa6
    5064:	0006      	movs	r6, r0
    5066:	da00      	bge.n	0x506a
    5068:	20b8      	movs	r0, #184	; 0xb8
    506a:	e28d      	b.n	0x5588
    506c:	1020      	asrs	r0, r4, #32
    506e:	e59d      	b.n	0x4bac
    5070:	000b      	movs	r3, r1
    5072:	e1a0      	b.n	0x53b6
    5074:	108a      	asrs	r2, r1, #2
    5076:	eb00 0000 	add.w	r0, r0, r0
    507a:	e350      	b.n	0x571e
    507c:	02f8      	lsls	r0, r7, #11
    507e:	1a00      	subs	r0, r0, r0
    5080:	90c4      	str	r0, [sp, #784]	; 0x310
    5082:	e28d      	b.n	0x55a0
    5084:	3018      	adds	r0, #24
    5086:	e59d      	b.n	0x4bc4
    5088:	4005      	ands	r5, r0
    508a:	e043      	b.n	0x5114
    508c:	0000      	movs	r0, r0
    508e:	e354      	b.n	0x573a
    5090:	36d0      	adds	r6, #208	; 0xd0
    5092:	c59f      	stmia	r5!, {r0, r1, r2, r3, r4, r7}
    5094:	0026      	movs	r6, r4
    5096:	da00      	bge.n	0x509a
    5098:	20bc      	movs	r0, #188	; 0xbc
    509a:	e59d      	b.n	0x4bd8
    509c:	0010      	movs	r0, r2
    509e:	e354      	b.n	0x574a
    50a0:	10c0      	asrs	r0, r0, #3
    50a2:	e59d      	b.n	0x4be0
    50a4:	2001      	movs	r0, #1
    50a6:	e282      	b.n	0x55ae
    50a8:	0008      	movs	r0, r1
    50aa:	e289      	b.n	0x55c0
    50ac:	3000      	adds	r0, #0
    50ae:	e589      	b.n	0x4bc4
    50b0:	0011      	movs	r1, r2
    50b2:	da00      	bge.n	0x50b6
    50b4:	c010      	stmia	r0!, {r4}
    50b6:	e3a0      	b.n	0x57fa
    50b8:	0007      	movs	r7, r0
    50ba:	e352      	b.n	0x5762
    50bc:	100c      	asrs	r4, r1, #32
    50be:	e081      	b.n	0x51c4
    50c0:	c004      	stmia	r0!, {r2}
    50c2:	e589      	b.n	0x4bd8
    50c4:	10c0      	asrs	r0, r0, #3
    50c6:	e58d      	b.n	0x4be4
    50c8:	20bc      	movs	r0, #188	; 0xbc
    50ca:	e58d      	b.n	0x4be8
    50cc:	0007      	movs	r7, r0
    50ce:	da00      	bge.n	0x50d2
    50d0:	20b8      	movs	r0, #184	; 0xb8
    50d2:	e28d      	b.n	0x55f0
    50d4:	1020      	asrs	r0, r4, #32
    50d6:	e59d      	b.n	0x4c14
    50d8:	000b      	movs	r3, r1
    50da:	e1a0      	b.n	0x541e
    50dc:	1070      	asrs	r0, r6, #1
    50de:	eb00 0000 	add.w	r0, r0, r0
    50e2:	e350      	b.n	0x5786
    50e4:	02de      	lsls	r6, r3, #11
    50e6:	1a00      	subs	r0, r0, r0
    50e8:	3678      	adds	r6, #120	; 0x78
    50ea:	e59f      	b.n	0x4c2c
    50ec:	00c4      	lsls	r4, r0, #3
    50ee:	e28d      	b.n	0x560c
    50f0:	4010      	ands	r0, r2
    50f2:	e244      	b.n	0x557e
    50f4:	9000      	str	r0, [sp, #0]
    50f6:	e1a0      	b.n	0x543a
    50f8:	ffe6 eaff 			; <UNDEFINED> instruction: 0xffe6eaff
    50fc:	4004      	ands	r4, r0
    50fe:	e589      	b.n	0x4c14
    5100:	0007      	movs	r7, r0
    5102:	e352      	b.n	0x57aa
    5104:	4001      	ands	r1, r0
    5106:	e084      	b.n	0x5212
    5108:	40c0      	lsrs	r0, r0
    510a:	e58d      	b.n	0x4c28
    510c:	20bc      	movs	r0, #188	; 0xbc
    510e:	e58d      	b.n	0x4c2c
    5110:	9000      	str	r0, [sp, #0]
    5112:	d1a0      	bne.n	0x5056
    5114:	0006      	movs	r6, r0
    5116:	da00      	bge.n	0x511a
    5118:	20b8      	movs	r0, #184	; 0xb8
    511a:	e28d      	b.n	0x5638
    511c:	1020      	asrs	r0, r4, #32
    511e:	e59d      	b.n	0x4c5c
    5120:	000b      	movs	r3, r1
    5122:	e1a0      	b.n	0x5466
    5124:	105e      	asrs	r6, r3, #1
    5126:	eb00 0000 	add.w	r0, r0, r0
    512a:	e350      	b.n	0x57ce
    512c:	02cc      	lsls	r4, r1, #11
    512e:	1a00      	subs	r0, r0, r0
    5130:	90c4      	str	r0, [sp, #784]	; 0x310
    5132:	e28d      	b.n	0x5650
    5134:	0c01      	lsrs	r1, r0, #16
    5136:	e31a      	b.n	0x576e
    5138:	40c0      	lsrs	r0, r0
    513a:	e59d      	b.n	0x4c78
    513c:	0004      	movs	r4, r0
    513e:	1a00      	subs	r0, r0, r0
    5140:	301c      	adds	r0, #28
    5142:	e59d      	b.n	0x4c80
    5144:	0028      	movs	r0, r5
    5146:	e889 5004 	stmia.w	r9, {r2, ip, lr}
    514a:	e085      	b.n	0x5258
    514c:	50c0      	str	r0, [r0, r3]
    514e:	e58d      	b.n	0x4c6c
    5150:	00b7      	lsls	r7, r6, #2
    5152:	ea00 3024 	and.w	r0, r0, r4, asr #12
    5156:	e59d      	b.n	0x4c94
    5158:	0065      	lsls	r5, r4, #1
    515a:	e353      	b.n	0x5804
    515c:	01eb      	lsls	r3, r5, #7
    515e:	da00      	bge.n	0x5162
    5160:	205c      	movs	r0, #92	; 0x5c
    5162:	e28d      	b.n	0x5680
    5164:	000c      	movs	r4, r1
    5166:	e892 0040 	ldmia.w	r2, {r6}
    516a:	e59d      	b.n	0x4ca8
    516c:	1038      	asrs	r0, r7, #32
    516e:	e59d      	b.n	0x4cac
    5170:	f200 ebff 			; <UNDEFINED> instruction: 0xf200ebff
    5174:	0000      	movs	r0, r0
    5176:	e350      	b.n	0x581a
    5178:	004a      	lsls	r2, r1, #1
    517a:	0a00      	lsrs	r0, r0, #8
    517c:	35e0      	adds	r5, #224	; 0xe0
    517e:	e59f      	b.n	0x4cc0
    5180:	3000      	adds	r0, #0
    5182:	e589      	b.n	0x4c98
    5184:	3001      	adds	r0, #1
    5186:	e3a0      	b.n	0x58ca
    5188:	3004      	adds	r0, #4
    518a:	e589      	b.n	0x4ca0
    518c:	4003      	ands	r3, r0
    518e:	e084      	b.n	0x529a
    5190:	30bc      	adds	r0, #188	; 0xbc
    5192:	e59d      	b.n	0x4cd0
    5194:	3001      	adds	r0, #1
    5196:	e283      	b.n	0x56a0
    5198:	0007      	movs	r7, r0
    519a:	e353      	b.n	0x5844
    519c:	40c0      	lsrs	r0, r0
    519e:	e58d      	b.n	0x4cbc
    51a0:	30bc      	adds	r0, #188	; 0xbc
    51a2:	e58d      	b.n	0x4cc0
    51a4:	9008      	str	r0, [sp, #32]
    51a6:	d289      	bcs.n	0x50bc
    51a8:	0006      	movs	r6, r0
    51aa:	da00      	bge.n	0x51ae
    51ac:	20b8      	movs	r0, #184	; 0xb8
    51ae:	e28d      	b.n	0x56cc
    51b0:	1020      	asrs	r0, r4, #32
    51b2:	e59d      	b.n	0x4cf0
    51b4:	000b      	movs	r3, r1
    51b6:	e1a0      	b.n	0x54fa
    51b8:	1039      	asrs	r1, r7, #32
    51ba:	eb00 0000 	add.w	r0, r0, r0
    51be:	e350      	b.n	0x5862
    51c0:	02a7      	lsls	r7, r4, #10
    51c2:	1a00      	subs	r0, r0, r0
    51c4:	90c4      	str	r0, [sp, #784]	; 0x310
    51c6:	e28d      	b.n	0x56e4
    51c8:	3094      	adds	r0, #148	; 0x94
    51ca:	e59d      	b.n	0x4d08
    51cc:	2028      	movs	r0, #40	; 0x28
    51ce:	e59d      	b.n	0x4d0c
    51d0:	0002      	movs	r2, r0
    51d2:	e153      	b.n	0x547c
    51d4:	0001      	movs	r1, r0
    51d6:	ba00      	rev	r0, r0
    51d8:	0001      	movs	r1, r0
    51da:	e31a      	b.n	0x5812
    51dc:	0251      	lsls	r1, r2, #9
    51de:	0a00      	lsrs	r0, r0, #8
    51e0:	3064      	adds	r0, #100	; 0x64
    51e2:	e59d      	b.n	0x4d20
    51e4:	3000      	adds	r0, #0
    51e6:	e589      	b.n	0x4cfc
    51e8:	3048      	adds	r0, #72	; 0x48
    51ea:	e59d      	b.n	0x4d28
    51ec:	2048      	movs	r0, #72	; 0x48
    51ee:	e59d      	b.n	0x4d2c
    51f0:	3004      	adds	r0, #4
    51f2:	e589      	b.n	0x4d08
    51f4:	30c0      	adds	r0, #192	; 0xc0
    51f6:	e59d      	b.n	0x4d34
    51f8:	3002      	adds	r0, #2
    51fa:	e083      	b.n	0x5304
    51fc:	30c0      	adds	r0, #192	; 0xc0
    51fe:	e58d      	b.n	0x4d1c
    5200:	30bc      	adds	r0, #188	; 0xbc
    5202:	e59d      	b.n	0x4d40
    5204:	3001      	adds	r0, #1
    5206:	e283      	b.n	0x5710
    5208:	0007      	movs	r7, r0
    520a:	e353      	b.n	0x58b4
    520c:	30bc      	adds	r0, #188	; 0xbc
    520e:	e58d      	b.n	0x4d2c
    5210:	9008      	str	r0, [sp, #32]
    5212:	d289      	bcs.n	0x5128
    5214:	0006      	movs	r6, r0
    5216:	da00      	bge.n	0x521a
    5218:	20b8      	movs	r0, #184	; 0xb8
    521a:	e28d      	b.n	0x5738
    521c:	1020      	asrs	r0, r4, #32
    521e:	e59d      	b.n	0x4d5c
    5220:	000b      	movs	r3, r1
    5222:	e1a0      	b.n	0x5566
    5224:	101e      	asrs	r6, r3, #32
    5226:	eb00 0000 	add.w	r0, r0, r0
    522a:	e350      	b.n	0x58ce
    522c:	028c      	lsls	r4, r1, #10
    522e:	1a00      	subs	r0, r0, r0
    5230:	90c4      	str	r0, [sp, #784]	; 0x310
    5232:	e28d      	b.n	0x5750
    5234:	3028      	adds	r0, #40	; 0x28
    5236:	e59d      	b.n	0x4d74
    5238:	4001      	ands	r1, r0
    523a:	e243      	b.n	0x56c4
    523c:	0000      	movs	r0, r0
    523e:	e354      	b.n	0x58ea
    5240:	5520      	strb	r0, [r4, r4]
    5242:	c59f      	stmia	r5!, {r0, r1, r2, r3, r4, r7}
    5244:	6010      	str	r0, [r2, #0]
    5246:	c3a0      	stmia	r3!, {r5, r7}
    5248:	0236      	lsls	r6, r6, #8
    524a:	da00      	bge.n	0x524e
    524c:	30bc      	adds	r0, #188	; 0xbc
    524e:	e59d      	b.n	0x4d8c
    5250:	0010      	movs	r0, r2
    5252:	e354      	b.n	0x58fe
    5254:	20c0      	movs	r0, #192	; 0xc0
    5256:	e59d      	b.n	0x4d94
    5258:	3001      	adds	r0, #1
    525a:	e283      	b.n	0x5764
    525c:	1008      	asrs	r0, r1, #32
    525e:	e289      	b.n	0x5774
    5260:	5000      	str	r0, [r0, r0]
    5262:	e589      	b.n	0x4d78
    5264:	01a1      	lsls	r1, r4, #6
    5266:	da00      	bge.n	0x526a
    5268:	2010      	movs	r0, #16
    526a:	e282      	b.n	0x5772
    526c:	0007      	movs	r7, r0
    526e:	e353      	b.n	0x5918
    5270:	6004      	str	r4, [r0, #0]
    5272:	e589      	b.n	0x4d88
    5274:	20c0      	movs	r0, #192	; 0xc0
    5276:	e58d      	b.n	0x4d94
    5278:	30bc      	adds	r0, #188	; 0xbc
    527a:	e58d      	b.n	0x4d98
    527c:	0006      	movs	r6, r0
    527e:	da00      	bge.n	0x5282
    5280:	20b8      	movs	r0, #184	; 0xb8
    5282:	e28d      	b.n	0x57a0
    5284:	1020      	asrs	r0, r4, #32
    5286:	e59d      	b.n	0x4dc4
    5288:	000b      	movs	r3, r1
    528a:	e1a0      	b.n	0x55ce
    528c:	1004      	asrs	r4, r0, #32
    528e:	eb00 0000 	add.w	r0, r0, r0
    5292:	e350      	b.n	0x5936
    5294:	0272      	lsls	r2, r6, #9
    5296:	1a00      	subs	r0, r0, r0
    5298:	10c4      	asrs	r4, r0, #3
    529a:	e28d      	b.n	0x57b8
    529c:	4010      	ands	r0, r2
    529e:	e244      	b.n	0x572a
    52a0:	9001      	str	r0, [sp, #4]
    52a2:	e1a0      	b.n	0x55e6
    52a4:	ffe8 eaff 			; <UNDEFINED> instruction: 0xffe8eaff
    52a8:	3094      	adds	r0, #148	; 0x94
    52aa:	e59d      	b.n	0x4de8
    52ac:	0000      	movs	r0, r0
    52ae:	e353      	b.n	0x5958
    52b0:	0066      	lsls	r6, r4, #1
    52b2:	ca00      	ldmia	r2!, {}
    52b4:	34a8      	adds	r4, #168	; 0xa8
    52b6:	e59f      	b.n	0x4df8
    52b8:	3000      	adds	r0, #0
    52ba:	e589      	b.n	0x4dd0
    52bc:	3001      	adds	r0, #1
    52be:	e3a0      	b.n	0x5a02
    52c0:	3004      	adds	r0, #4
    52c2:	e589      	b.n	0x4dd8
    52c4:	4003      	ands	r3, r0
    52c6:	e084      	b.n	0x53d2
    52c8:	30bc      	adds	r0, #188	; 0xbc
    52ca:	e59d      	b.n	0x4e08
    52cc:	3001      	adds	r0, #1
    52ce:	e283      	b.n	0x57d8
    52d0:	0007      	movs	r7, r0
    52d2:	e353      	b.n	0x597c
    52d4:	40c0      	lsrs	r0, r0
    52d6:	e58d      	b.n	0x4df4
    52d8:	30bc      	adds	r0, #188	; 0xbc
    52da:	e58d      	b.n	0x4df8
    52dc:	9008      	str	r0, [sp, #32]
    52de:	d289      	bcs.n	0x51f4
    52e0:	0006      	movs	r6, r0
    52e2:	da00      	bge.n	0x52e6
    52e4:	20b8      	movs	r0, #184	; 0xb8
    52e6:	e28d      	b.n	0x5804
    52e8:	1020      	asrs	r0, r4, #32
    52ea:	e59d      	b.n	0x4e28
    52ec:	000b      	movs	r3, r1
    52ee:	e1a0      	b.n	0x5632
    52f0:	0feb      	lsrs	r3, r5, #31
    52f2:	eb00 0000 	add.w	r0, r0, r0
    52f6:	e350      	b.n	0x599a
    52f8:	0259      	lsls	r1, r3, #9
    52fa:	1a00      	subs	r0, r0, r0
    52fc:	90c4      	str	r0, [sp, #784]	; 0x310
    52fe:	e28d      	b.n	0x581c
    5300:	1028      	asrs	r0, r5, #32
    5302:	e59d      	b.n	0x4e40
    5304:	2094      	movs	r0, #148	; 0x94
    5306:	e59d      	b.n	0x4e44
    5308:	2002      	movs	r0, #2
    530a:	e181      	b.n	0x5610
    530c:	1001      	asrs	r1, r0, #32
    530e:	e20a      	b.n	0x5726
    5310:	2001      	movs	r0, #1
    5312:	e192      	b.n	0x563a
    5314:	30c0      	adds	r0, #192	; 0xc0
    5316:	e59d      	b.n	0x4e54
    5318:	0202      	lsls	r2, r0, #8
    531a:	0a00      	lsrs	r0, r0, #8
    531c:	2064      	movs	r0, #100	; 0x64
    531e:	e59d      	b.n	0x4e5c
    5320:	2000      	movs	r0, #0
    5322:	e589      	b.n	0x4e38
    5324:	2048      	movs	r0, #72	; 0x48
    5326:	e59d      	b.n	0x4e64
    5328:	3003      	adds	r0, #3
    532a:	e082      	b.n	0x5432
    532c:	30c0      	adds	r0, #192	; 0xc0
    532e:	e58d      	b.n	0x4e4c
    5330:	30bc      	adds	r0, #188	; 0xbc
    5332:	e59d      	b.n	0x4e70
    5334:	3001      	adds	r0, #1
    5336:	e283      	b.n	0x5840
    5338:	0007      	movs	r7, r0
    533a:	e353      	b.n	0x59e4
    533c:	2004      	movs	r0, #4
    533e:	e589      	b.n	0x4e54
    5340:	30bc      	adds	r0, #188	; 0xbc
    5342:	e58d      	b.n	0x4e60
    5344:	9008      	str	r0, [sp, #32]
    5346:	d289      	bcs.n	0x525c
    5348:	0006      	movs	r6, r0
    534a:	da00      	bge.n	0x534e
    534c:	20b8      	movs	r0, #184	; 0xb8
    534e:	e28d      	b.n	0x586c
    5350:	1020      	asrs	r0, r4, #32
    5352:	e59d      	b.n	0x4e90
    5354:	000b      	movs	r3, r1
    5356:	e1a0      	b.n	0x569a
    5358:	0fd1      	lsrs	r1, r2, #31
    535a:	eb00 0000 	add.w	r0, r0, r0
    535e:	e350      	b.n	0x5a02
    5360:	023f      	lsls	r7, r7, #8
    5362:	1a00      	subs	r0, r0, r0
    5364:	90c4      	str	r0, [sp, #784]	; 0x310
    5366:	e28d      	b.n	0x5884
    5368:	4094      	lsls	r4, r2
    536a:	e59d      	b.n	0x4ea8
    536c:	0000      	movs	r0, r0
    536e:	e354      	b.n	0x5a1a
    5370:	0027      	movs	r7, r4
    5372:	aa00      	add	r2, sp, #0
    5374:	3009      	adds	r0, #9
    5376:	e1a0      	b.n	0x56ba
    5378:	6010      	str	r0, [r2, #0]
    537a:	e3a0      	b.n	0x5abe
    537c:	53e4      	strh	r4, [r4, r7]
    537e:	e59f      	b.n	0x4ec0
    5380:	4000      	ands	r0, r0
    5382:	e264      	b.n	0x584e
    5384:	20bc      	movs	r0, #188	; 0xbc
    5386:	e59d      	b.n	0x4ec4
    5388:	0010      	movs	r0, r2
    538a:	e354      	b.n	0x5a36
    538c:	10c0      	asrs	r0, r0, #3
    538e:	e59d      	b.n	0x4ecc
    5390:	2001      	movs	r0, #1
    5392:	e282      	b.n	0x589a
    5394:	9008      	str	r0, [sp, #32]
    5396:	e289      	b.n	0x58ac
    5398:	5000      	str	r0, [r0, r0]
    539a:	e583      	b.n	0x4ea4
    539c:	000f      	movs	r7, r1
    539e:	da00      	bge.n	0x53a2
    53a0:	1010      	asrs	r0, r2, #32
    53a2:	e281      	b.n	0x58a8
    53a4:	0007      	movs	r7, r0
    53a6:	e352      	b.n	0x5a4e
    53a8:	6004      	str	r4, [r0, #0]
    53aa:	e583      	b.n	0x4eb4
    53ac:	10c0      	asrs	r0, r0, #3
    53ae:	e58d      	b.n	0x4ecc
    53b0:	20bc      	movs	r0, #188	; 0xbc
    53b2:	e58d      	b.n	0x4ed0
    53b4:	0006      	movs	r6, r0
    53b6:	da00      	bge.n	0x53ba
    53b8:	20b8      	movs	r0, #184	; 0xb8
    53ba:	e28d      	b.n	0x58d8
    53bc:	1020      	asrs	r0, r4, #32
    53be:	e59d      	b.n	0x4efc
    53c0:	000b      	movs	r3, r1
    53c2:	e1a0      	b.n	0x5706
    53c4:	0fb6      	lsrs	r6, r6, #30
    53c6:	eb00 0000 	add.w	r0, r0, r0
    53ca:	e350      	b.n	0x5a6e
    53cc:	0224      	lsls	r4, r4, #8
    53ce:	1a00      	subs	r0, r0, r0
    53d0:	90c4      	str	r0, [sp, #784]	; 0x310
    53d2:	e28d      	b.n	0x58f0
    53d4:	4010      	ands	r0, r2
    53d6:	e244      	b.n	0x5862
    53d8:	3009      	adds	r0, #9
    53da:	e1a0      	b.n	0x571e
    53dc:	ffe8 eaff 			; <UNDEFINED> instruction: 0xffe8eaff
    53e0:	4004      	ands	r4, r0
    53e2:	e583      	b.n	0x4eec
    53e4:	0007      	movs	r7, r0
    53e6:	e352      	b.n	0x5a8e
    53e8:	4001      	ands	r1, r0
    53ea:	e084      	b.n	0x54f6
    53ec:	40c0      	lsrs	r0, r0
    53ee:	e58d      	b.n	0x4f0c
    53f0:	20bc      	movs	r0, #188	; 0xbc
    53f2:	e58d      	b.n	0x4f10
    53f4:	0006      	movs	r6, r0
    53f6:	da00      	bge.n	0x53fa
    53f8:	20b8      	movs	r0, #184	; 0xb8
    53fa:	e28d      	b.n	0x5918
    53fc:	1020      	asrs	r0, r4, #32
    53fe:	e59d      	b.n	0x4f3c
    5400:	000b      	movs	r3, r1
    5402:	e1a0      	b.n	0x5746
    5404:	0fa6      	lsrs	r6, r4, #30
    5406:	eb00 0000 	add.w	r0, r0, r0
    540a:	e350      	b.n	0x5aae
    540c:	0214      	lsls	r4, r2, #8
    540e:	1a00      	subs	r0, r0, r0
    5410:	90c4      	str	r0, [sp, #784]	; 0x310
    5412:	e28d      	b.n	0x5930
    5414:	301c      	adds	r0, #28
    5416:	e59d      	b.n	0x4f54
    5418:	3000      	adds	r0, #0
    541a:	e589      	b.n	0x4f30
    541c:	3028      	adds	r0, #40	; 0x28
    541e:	e59d      	b.n	0x4f5c
    5420:	2028      	movs	r0, #40	; 0x28
    5422:	e59d      	b.n	0x4f60
    5424:	3004      	adds	r0, #4
    5426:	e589      	b.n	0x4f3c
    5428:	30c0      	adds	r0, #192	; 0xc0
    542a:	e59d      	b.n	0x4f68
    542c:	3002      	adds	r0, #2
    542e:	e083      	b.n	0x5538
    5430:	30c0      	adds	r0, #192	; 0xc0
    5432:	e58d      	b.n	0x4f50
    5434:	30bc      	adds	r0, #188	; 0xbc
    5436:	e59d      	b.n	0x4f74
    5438:	3001      	adds	r0, #1
    543a:	e283      	b.n	0x5944
    543c:	0007      	movs	r7, r0
    543e:	e353      	b.n	0x5ae8
    5440:	30bc      	adds	r0, #188	; 0xbc
    5442:	e58d      	b.n	0x4f60
    5444:	9008      	str	r0, [sp, #32]
    5446:	d289      	bcs.n	0x535c
    5448:	01b6      	lsls	r6, r6, #6
    544a:	da00      	bge.n	0x544e
    544c:	01ae      	lsls	r6, r5, #6
    544e:	ea00 3028 	and.w	r0, r0, r8, asr #12
    5452:	e59d      	b.n	0x4f90
    5454:	0003      	movs	r3, r0
    5456:	e156      	b.n	0x5706
    5458:	5006      	str	r6, [r0, r0]
    545a:	b1a0      	cbz	r0, 0x5486
    545c:	5003      	str	r3, [r0, r0]
    545e:	a1a0      	add	r1, pc, #640	; (adr r1, 0x56e0)
    5460:	0000      	movs	r0, r0
    5462:	e355      	b.n	0x5b10
    5464:	0010      	movs	r0, r2
    5466:	da00      	bge.n	0x546a
    5468:	301c      	adds	r0, #28
    546a:	e59d      	b.n	0x4fa8
    546c:	0028      	movs	r0, r5
    546e:	e889 30bc 	stmia.w	r9, {r2, r3, r4, r5, r7, ip, sp}
    5472:	e59d      	b.n	0x4fb0
    5474:	3001      	adds	r0, #1
    5476:	e283      	b.n	0x5980
    5478:	4004      	ands	r4, r0
    547a:	e085      	b.n	0x5588
    547c:	0007      	movs	r7, r0
    547e:	e353      	b.n	0x5b28
    5480:	40c0      	lsrs	r0, r0
    5482:	e58d      	b.n	0x4fa0
    5484:	30bc      	adds	r0, #188	; 0xbc
    5486:	e58d      	b.n	0x4fa4
    5488:	9008      	str	r0, [sp, #32]
    548a:	d289      	bcs.n	0x53a0
    548c:	0006      	movs	r6, r0
    548e:	da00      	bge.n	0x5492
    5490:	20b8      	movs	r0, #184	; 0xb8
    5492:	e28d      	b.n	0x59b0
    5494:	1020      	asrs	r0, r4, #32
    5496:	e59d      	b.n	0x4fd4
    5498:	000b      	movs	r3, r1
    549a:	e1a0      	b.n	0x57de
    549c:	0f80      	lsrs	r0, r0, #30
    549e:	eb00 0000 	add.w	r0, r0, r0
    54a2:	e350      	b.n	0x5b46
    54a4:	01ee      	lsls	r6, r5, #7
    54a6:	1a00      	subs	r0, r0, r0
    54a8:	90c4      	str	r0, [sp, #784]	; 0x310
    54aa:	e28d      	b.n	0x59c8
    54ac:	0000      	movs	r0, r0
    54ae:	e355      	b.n	0x5b5c
    54b0:	4006      	ands	r6, r0
    54b2:	b1a0      	cbz	r0, 0x54de
    54b4:	4005      	ands	r5, r0
    54b6:	a046      	add	r0, pc, #280	; (adr r0, 0x55d0)
    54b8:	0000      	movs	r0, r0
    54ba:	e354      	b.n	0x5b66
    54bc:	52a4      	strh	r4, [r4, r2]
    54be:	c59f      	stmia	r5!, {r0, r1, r2, r3, r4, r7}
    54c0:	0025      	movs	r5, r4
    54c2:	da00      	bge.n	0x54c6
    54c4:	30bc      	adds	r0, #188	; 0xbc
    54c6:	e59d      	b.n	0x5004
    54c8:	0010      	movs	r0, r2
    54ca:	e354      	b.n	0x5b76
    54cc:	20c0      	movs	r0, #192	; 0xc0
    54ce:	e59d      	b.n	0x500c
    54d0:	3001      	adds	r0, #1
    54d2:	e283      	b.n	0x59dc
    54d4:	1008      	asrs	r0, r1, #32
    54d6:	e289      	b.n	0x59ec
    54d8:	5000      	str	r0, [r0, r0]
    54da:	e589      	b.n	0x4ff0
    54dc:	0010      	movs	r0, r2
    54de:	da00      	bge.n	0x54e2
    54e0:	0010      	movs	r0, r2
    54e2:	e3a0      	b.n	0x5c26
    54e4:	0007      	movs	r7, r0
    54e6:	e353      	b.n	0x5b90
    54e8:	2000      	movs	r0, #0
    54ea:	e082      	b.n	0x55f2
    54ec:	0004      	movs	r4, r0
    54ee:	e589      	b.n	0x5004
    54f0:	20c0      	movs	r0, #192	; 0xc0
    54f2:	e58d      	b.n	0x5010
    54f4:	30bc      	adds	r0, #188	; 0xbc
    54f6:	e58d      	b.n	0x5014
    54f8:	0006      	movs	r6, r0
    54fa:	da00      	bge.n	0x54fe
    54fc:	20b8      	movs	r0, #184	; 0xb8
    54fe:	e28d      	b.n	0x5a1c
    5500:	1020      	asrs	r0, r4, #32
    5502:	e59d      	b.n	0x5040
    5504:	000b      	movs	r3, r1
    5506:	e1a0      	b.n	0x584a
    5508:	0f65      	lsrs	r5, r4, #29
    550a:	eb00 0000 	add.w	r0, r0, r0
    550e:	e350      	b.n	0x5bb2
    5510:	01d3      	lsls	r3, r2, #7
    5512:	1a00      	subs	r0, r0, r0
    5514:	10c4      	asrs	r4, r0, #3
    5516:	e28d      	b.n	0x5a34
    5518:	4010      	ands	r0, r2
    551a:	e244      	b.n	0x59a6
    551c:	9001      	str	r0, [sp, #4]
    551e:	e1a0      	b.n	0x5862
    5520:	ffe7 eaff 			; <UNDEFINED> instruction: 0xffe7eaff
    5524:	4004      	ands	r4, r0
    5526:	e589      	b.n	0x503c
    5528:	0007      	movs	r7, r0
    552a:	e353      	b.n	0x5bd4
    552c:	4004      	ands	r4, r0
    552e:	e082      	b.n	0x5636
    5530:	40c0      	lsrs	r0, r0
    5532:	e58d      	b.n	0x5050
    5534:	30bc      	adds	r0, #188	; 0xbc
    5536:	e58d      	b.n	0x5054
    5538:	9001      	str	r0, [sp, #4]
    553a:	d1a0      	bne.n	0x547e
    553c:	0006      	movs	r6, r0
    553e:	da00      	bge.n	0x5542
    5540:	20b8      	movs	r0, #184	; 0xb8
    5542:	e28d      	b.n	0x5a60
    5544:	1020      	asrs	r0, r4, #32
    5546:	e59d      	b.n	0x5084
    5548:	000b      	movs	r3, r1
    554a:	e1a0      	b.n	0x588e
    554c:	0f54      	lsrs	r4, r2, #29
    554e:	eb00 0000 	add.w	r0, r0, r0
    5552:	e350      	b.n	0x5bf6
    5554:	01c2      	lsls	r2, r0, #7
    5556:	1a00      	subs	r0, r0, r0
    5558:	90c4      	str	r0, [sp, #784]	; 0x310
    555a:	e28d      	b.n	0x5a78
    555c:	301c      	adds	r0, #28
    555e:	e59d      	b.n	0x509c
    5560:	0b01      	lsrs	r1, r0, #12
    5562:	e31a      	b.n	0x5b9a
    5564:	6006      	str	r6, [r0, #0]
    5566:	e083      	b.n	0x5670
    5568:	0088      	lsls	r0, r1, #2
    556a:	0a00      	lsrs	r0, r0, #8
    556c:	2009      	movs	r0, #9
    556e:	e1a0      	b.n	0x58b2
    5570:	7018      	strb	r0, [r3, #0]
    5572:	e58d      	b.n	0x5090
    5574:	51ec      	str	r4, [r5, r7]
    5576:	e59f      	b.n	0x50b8
    5578:	4050      	eors	r0, r2
    557a:	e59d      	b.n	0x50b8
    557c:	7020      	strb	r0, [r4, #0]
    557e:	e59d      	b.n	0x50bc
    5580:	1030      	asrs	r0, r6, #32
    5582:	e28d      	b.n	0x5aa0
    5584:	000a      	movs	r2, r1
    5586:	e891 0000 	ldmia.w	r1, {}
    558a:	e351      	b.n	0x5c30
    558c:	0000      	movs	r0, r0
    558e:	d353      	bcc.n	0x5638
    5590:	0076      	lsls	r6, r6, #1
    5592:	da00      	bge.n	0x5596
    5594:	3030      	adds	r0, #48	; 0x30
    5596:	e59d      	b.n	0x50d4
    5598:	0000      	movs	r0, r0
    559a:	e353      	b.n	0x5c44
    559c:	3034      	adds	r0, #52	; 0x34
    559e:	059d      	lsls	r5, r3, #22
    55a0:	3001      	adds	r0, #1
    55a2:	1243      	asrs	r3, r0, #9
    55a4:	3001      	adds	r0, #1
    55a6:	0243      	lsls	r3, r0, #9
    55a8:	3030      	adds	r0, #48	; 0x30
    55aa:	158d      	asrs	r5, r1, #22
    55ac:	3034      	adds	r0, #52	; 0x34
    55ae:	058d      	lsls	r5, r1, #22
    55b0:	3068      	adds	r0, #104	; 0x68
    55b2:	e59d      	b.n	0x50f0
    55b4:	3000      	adds	r0, #0
    55b6:	e582      	b.n	0x50be
    55b8:	3058      	adds	r0, #88	; 0x58
    55ba:	e59d      	b.n	0x50f8
    55bc:	1058      	asrs	r0, r3, #1
    55be:	e59d      	b.n	0x50fc
    55c0:	3004      	adds	r0, #4
    55c2:	e582      	b.n	0x50ca
    55c4:	30c0      	adds	r0, #192	; 0xc0
    55c6:	e59d      	b.n	0x5104
    55c8:	3001      	adds	r0, #1
    55ca:	e083      	b.n	0x56d4
    55cc:	30c0      	adds	r0, #192	; 0xc0
    55ce:	e58d      	b.n	0x50ec
    55d0:	30bc      	adds	r0, #188	; 0xbc
    55d2:	e59d      	b.n	0x5110
    55d4:	3001      	adds	r0, #1
    55d6:	e283      	b.n	0x5ae0
    55d8:	4001      	ands	r1, r0
    55da:	0244      	lsls	r4, r0, #9
    55dc:	0007      	movs	r7, r0
    55de:	e353      	b.n	0x5c88
    55e0:	30bc      	adds	r0, #188	; 0xbc
    55e2:	e58d      	b.n	0x5100
    55e4:	2008      	movs	r0, #8
    55e6:	d282      	bcs.n	0x54ee
    55e8:	0006      	movs	r6, r0
    55ea:	da00      	bge.n	0x55ee
    55ec:	20b8      	movs	r0, #184	; 0xb8
    55ee:	e28d      	b.n	0x5b0c
    55f0:	1007      	asrs	r7, r0, #32
    55f2:	e1a0      	b.n	0x5936
    55f4:	000b      	movs	r3, r1
    55f6:	e1a0      	b.n	0x593a
    55f8:	0f29      	lsrs	r1, r5, #28
    55fa:	eb00 0000 	add.w	r0, r0, r0
    55fe:	e350      	b.n	0x5ca2
    5600:	0195      	lsls	r5, r2, #6
    5602:	1a00      	subs	r0, r0, r0
    5604:	20c4      	movs	r0, #196	; 0xc4
    5606:	e28d      	b.n	0x5b24
    5608:	1028      	asrs	r0, r5, #32
    560a:	e59d      	b.n	0x5148
    560c:	301c      	adds	r0, #28
    560e:	e59d      	b.n	0x514c
    5610:	3001      	adds	r0, #1
    5612:	e083      	b.n	0x571c
    5614:	1000      	asrs	r0, r0, #32
    5616:	e5d4      	b.n	0x51c2
    5618:	3006      	adds	r0, #6
    561a:	e043      	b.n	0x56a4
    561c:	0003      	movs	r3, r0
    561e:	e151      	b.n	0x58c4
    5620:	3001      	adds	r0, #1
    5622:	b1a0      	cbz	r0, 0x564e
    5624:	0000      	movs	r0, r0
    5626:	e353      	b.n	0x5cd0
    5628:	0013      	movs	r3, r2
    562a:	da00      	bge.n	0x562e
    562c:	10c0      	asrs	r0, r0, #3
    562e:	e59d      	b.n	0x516c
    5630:	1001      	asrs	r1, r0, #32
    5632:	e083      	b.n	0x573c
    5634:	10c0      	asrs	r0, r0, #3
    5636:	e58d      	b.n	0x5154
    5638:	10bc      	asrs	r4, r7, #2
    563a:	e59d      	b.n	0x5178
    563c:	1001      	asrs	r1, r0, #32
    563e:	e281      	b.n	0x5b44
    5640:	0007      	movs	r7, r0
    5642:	e351      	b.n	0x5ce8
    5644:	6000      	str	r0, [r0, #0]
    5646:	e582      	b.n	0x514e
    5648:	3004      	adds	r0, #4
    564a:	e582      	b.n	0x5152
    564c:	10bc      	asrs	r4, r7, #2
    564e:	e58d      	b.n	0x516c
    5650:	2008      	movs	r0, #8
    5652:	d282      	bcs.n	0x555a
    5654:	0008      	movs	r0, r1
    5656:	da00      	bge.n	0x565a
    5658:	20b8      	movs	r0, #184	; 0xb8
    565a:	e28d      	b.n	0x5b78
    565c:	1007      	asrs	r7, r0, #32
    565e:	e1a0      	b.n	0x59a2
    5660:	000b      	movs	r3, r1
    5662:	e1a0      	b.n	0x59a6
    5664:	3024      	adds	r0, #36	; 0x24
    5666:	e58d      	b.n	0x5184
    5668:	0f0d      	lsrs	r5, r1, #28
    566a:	eb00 0000 	add.w	r0, r0, r0
    566e:	e350      	b.n	0x5d12
    5670:	0179      	lsls	r1, r7, #5
    5672:	1a00      	subs	r0, r0, r0
    5674:	3024      	adds	r0, #36	; 0x24
    5676:	e59d      	b.n	0x51b4
    5678:	20c4      	movs	r0, #196	; 0xc4
    567a:	e28d      	b.n	0x5b98
    567c:	1000      	asrs	r0, r0, #32
    567e:	e5d4      	b.n	0x522a
    5680:	0000      	movs	r0, r0
    5682:	e353      	b.n	0x5d2c
    5684:	3001      	adds	r0, #1
    5686:	b1a0      	cbz	r0, 0x56b2
    5688:	3003      	adds	r0, #3
    568a:	a041      	add	r0, pc, #260	; (adr r0, 0x5790)
    568c:	0000      	movs	r0, r0
    568e:	e353      	b.n	0x5d38
    5690:	002e      	movs	r6, r5
    5692:	da00      	bge.n	0x5696
    5694:	9008      	str	r0, [sp, #32]
    5696:	e1a0      	b.n	0x59da
    5698:	8006      	strh	r6, [r0, #0]
    569a:	e1a0      	b.n	0x59de
    569c:	6004      	str	r4, [r0, #0]
    569e:	e1a0      	b.n	0x59e2
    56a0:	4003      	ands	r3, r0
    56a2:	e1a0      	b.n	0x59e6
    56a4:	10bc      	asrs	r4, r7, #2
    56a6:	e59d      	b.n	0x51e4
    56a8:	0010      	movs	r0, r2
    56aa:	e354      	b.n	0x5d56
    56ac:	00c0      	lsls	r0, r0, #3
    56ae:	e59d      	b.n	0x51ec
    56b0:	1001      	asrs	r1, r0, #32
    56b2:	e281      	b.n	0x5bb8
    56b4:	c008      	stmia	r0!, {r3}
    56b6:	e282      	b.n	0x5bbe
    56b8:	0011      	movs	r1, r2
    56ba:	da00      	bge.n	0x56be
    56bc:	3010      	adds	r0, #16
    56be:	e3a0      	b.n	0x5e02
    56c0:	0007      	movs	r7, r0
    56c2:	e351      	b.n	0x5d68
    56c4:	0003      	movs	r3, r0
    56c6:	e080      	b.n	0x57ca
    56c8:	5000      	str	r0, [r0, r0]
    56ca:	e582      	b.n	0x51d2
    56cc:	3004      	adds	r0, #4
    56ce:	e582      	b.n	0x51d6
    56d0:	00c0      	lsls	r0, r0, #3
    56d2:	e58d      	b.n	0x51f0
    56d4:	10bc      	asrs	r4, r7, #2
    56d6:	e58d      	b.n	0x51f4
    56d8:	0006      	movs	r6, r0
    56da:	da00      	bge.n	0x56de
    56dc:	20b8      	movs	r0, #184	; 0xb8
    56de:	e28d      	b.n	0x5bfc
    56e0:	1007      	asrs	r7, r0, #32
    56e2:	e1a0      	b.n	0x5a26
    56e4:	000b      	movs	r3, r1
    56e6:	e1a0      	b.n	0x5a2a
    56e8:	0eed      	lsrs	r5, r5, #27
    56ea:	eb00 0000 	add.w	r0, r0, r0
    56ee:	e350      	b.n	0x5d92
    56f0:	0159      	lsls	r1, r3, #5
    56f2:	1a00      	subs	r0, r0, r0
    56f4:	c0c4      	stmia	r0!, {r2, r6, r7}
    56f6:	e28d      	b.n	0x5c14
    56f8:	4010      	ands	r0, r2
    56fa:	e244      	b.n	0x5b86
    56fc:	200c      	movs	r0, #12
    56fe:	e1a0      	b.n	0x5a42
    5700:	ffe7 eaff 			; <UNDEFINED> instruction: 0xffe7eaff
    5704:	3004      	adds	r0, #4
    5706:	e1a0      	b.n	0x5a4a
    5708:	0007      	movs	r7, r0
    570a:	e351      	b.n	0x5db0
    570c:	3004      	adds	r0, #4
    570e:	e582      	b.n	0x5216
    5710:	3000      	adds	r0, #0
    5712:	e083      	b.n	0x581c
    5714:	4006      	ands	r6, r0
    5716:	e1a0      	b.n	0x5a5a
    5718:	5000      	str	r0, [r0, r0]
    571a:	e582      	b.n	0x5222
    571c:	6008      	str	r0, [r1, #0]
    571e:	e1a0      	b.n	0x5a62
    5720:	30c0      	adds	r0, #192	; 0xc0
    5722:	e58d      	b.n	0x5240
    5724:	8009      	strh	r1, [r1, #0]
    5726:	e1a0      	b.n	0x5a6a
    5728:	10bc      	asrs	r4, r7, #2
    572a:	e58d      	b.n	0x5248
    572c:	200c      	movs	r0, #12
    572e:	d1a0      	bne.n	0x5672
    5730:	0006      	movs	r6, r0
    5732:	da00      	bge.n	0x5736
    5734:	20b8      	movs	r0, #184	; 0xb8
    5736:	e28d      	b.n	0x5c54
    5738:	1007      	asrs	r7, r0, #32
    573a:	e1a0      	b.n	0x5a7e
    573c:	000b      	movs	r3, r1
    573e:	e1a0      	b.n	0x5a82
    5740:	0ed7      	lsrs	r7, r2, #27
    5742:	eb00 0000 	add.w	r0, r0, r0
    5746:	e350      	b.n	0x5dea
    5748:	0143      	lsls	r3, r0, #5
    574a:	1a00      	subs	r0, r0, r0
    574c:	20c4      	movs	r0, #196	; 0xc4
    574e:	e28d      	b.n	0x5c6c
    5750:	3000      	adds	r0, #0
    5752:	e5d4      	b.n	0x52fe
    5754:	6003      	str	r3, [r0, #0]
    5756:	e086      	b.n	0x5866
    5758:	ff88 eaff 			; <UNDEFINED> instruction: 0xff88eaff
    575c:	a052      	add	r0, pc, #328	; (adr r0, 0x58a8)
    575e:	0800      	lsrs	r0, r0, #32
    5760:	a041      	add	r0, pc, #260	; (adr r0, 0x5868)
    5762:	0800      	lsrs	r0, r0, #32
    5764:	a06a      	add	r0, pc, #424	; (adr r0, 0x5910)
    5766:	0800      	lsrs	r0, r0, #32
    5768:	a07c      	add	r0, pc, #496	; (adr r0, 0x595c)
    576a:	0800      	lsrs	r0, r0, #32
    576c:	a06c      	add	r0, pc, #432	; (adr r0, 0x5920)
    576e:	0800      	lsrs	r0, r0, #32
    5770:	9002      	str	r0, [sp, #8]
    5772:	e1a0      	b.n	0x5ab6
    5774:	301c      	adds	r0, #28
    5776:	e59d      	b.n	0x52b4
    5778:	2028      	movs	r0, #40	; 0x28
    577a:	e59d      	b.n	0x52b8
    577c:	3002      	adds	r0, #2
    577e:	e083      	b.n	0x5888
    5780:	0003      	movs	r3, r0
    5782:	e156      	b.n	0x5a32
    5784:	6003      	str	r3, [r0, #0]
    5786:	21a0      	movs	r1, #160	; 0xa0
    5788:	4050      	eors	r0, r2
    578a:	e58d      	b.n	0x52a8
    578c:	7018      	strb	r0, [r3, #0]
    578e:	e59d      	b.n	0x52cc
    5790:	3094      	adds	r0, #148	; 0x94
    5792:	e59d      	b.n	0x52d0
    5794:	2028      	movs	r0, #40	; 0x28
    5796:	e59d      	b.n	0x52d4
    5798:	0002      	movs	r2, r0
    579a:	e153      	b.n	0x5a44
    579c:	0001      	movs	r1, r0
    579e:	ba00      	rev	r0, r0
    57a0:	0001      	movs	r1, r0
    57a2:	e31a      	b.n	0x5dda
    57a4:	0014      	movs	r4, r2
    57a6:	0a00      	lsrs	r0, r0, #8
    57a8:	3064      	adds	r0, #100	; 0x64
    57aa:	e59d      	b.n	0x52e8
    57ac:	3000      	adds	r0, #0
    57ae:	e589      	b.n	0x52c4
    57b0:	3048      	adds	r0, #72	; 0x48
    57b2:	e59d      	b.n	0x52f0
    57b4:	2048      	movs	r0, #72	; 0x48
    57b6:	e59d      	b.n	0x52f4
    57b8:	3004      	adds	r0, #4
    57ba:	e589      	b.n	0x52d0
    57bc:	30c0      	adds	r0, #192	; 0xc0
    57be:	e59d      	b.n	0x52fc
    57c0:	3002      	adds	r0, #2
    57c2:	e083      	b.n	0x58cc
    57c4:	30c0      	adds	r0, #192	; 0xc0
    57c6:	e58d      	b.n	0x52e4
    57c8:	30bc      	adds	r0, #188	; 0xbc
    57ca:	e59d      	b.n	0x5308
    57cc:	3001      	adds	r0, #1
    57ce:	e283      	b.n	0x5cd8
    57d0:	0007      	movs	r7, r0
    57d2:	e353      	b.n	0x5e7c
    57d4:	30bc      	adds	r0, #188	; 0xbc
    57d6:	e58d      	b.n	0x52f4
    57d8:	9008      	str	r0, [sp, #32]
    57da:	d289      	bcs.n	0x56f0
    57dc:	0006      	movs	r6, r0
    57de:	da00      	bge.n	0x57e2
    57e0:	20b8      	movs	r0, #184	; 0xb8
    57e2:	e28d      	b.n	0x5d00
    57e4:	1020      	asrs	r0, r4, #32
    57e6:	e59d      	b.n	0x5324
    57e8:	000b      	movs	r3, r1
    57ea:	e1a0      	b.n	0x5b2e
    57ec:	0eac      	lsrs	r4, r5, #26
    57ee:	eb00 0000 	add.w	r0, r0, r0
    57f2:	e350      	b.n	0x5e96
    57f4:	011a      	lsls	r2, r3, #4
    57f6:	1a00      	subs	r0, r0, r0
    57f8:	90c4      	str	r0, [sp, #784]	; 0x310
    57fa:	e28d      	b.n	0x5d18
    57fc:	301c      	adds	r0, #28
    57fe:	e59d      	b.n	0x533c
    5800:	2028      	movs	r0, #40	; 0x28
    5802:	e59d      	b.n	0x5340
    5804:	4094      	lsls	r4, r2
    5806:	e59d      	b.n	0x5344
    5808:	5002      	str	r2, [r0, r0]
    580a:	e083      	b.n	0x5914
    580c:	3006      	adds	r0, #6
    580e:	e045      	b.n	0x589c
    5810:	4004      	ands	r4, r0
    5812:	e042      	b.n	0x589a
    5814:	0003      	movs	r3, r0
    5816:	e154      	b.n	0x5ac2
    5818:	5004      	str	r4, [r0, r0]
    581a:	b1a0      	cbz	r0, 0x5846
    581c:	5003      	str	r3, [r0, r0]
    581e:	a1a0      	add	r1, pc, #640	; (adr r1, 0x5aa0)
    5820:	0000      	movs	r0, r0
    5822:	e355      	b.n	0x5ed0
    5824:	0011      	movs	r1, r2
    5826:	da00      	bge.n	0x582a
    5828:	30c0      	adds	r0, #192	; 0xc0
    582a:	e59d      	b.n	0x5368
    582c:	3003      	adds	r0, #3
    582e:	e085      	b.n	0x593c
    5830:	30c0      	adds	r0, #192	; 0xc0
    5832:	e58d      	b.n	0x5350
    5834:	30bc      	adds	r0, #188	; 0xbc
    5836:	e59d      	b.n	0x5374
    5838:	3001      	adds	r0, #1
    583a:	e283      	b.n	0x5d44
    583c:	0007      	movs	r7, r0
    583e:	e353      	b.n	0x5ee8
    5840:	6000      	str	r0, [r0, #0]
    5842:	e589      	b.n	0x5358
    5844:	5004      	str	r4, [r0, r0]
    5846:	e589      	b.n	0x535c
    5848:	30bc      	adds	r0, #188	; 0xbc
    584a:	e58d      	b.n	0x5368
    584c:	9008      	str	r0, [sp, #32]
    584e:	d289      	bcs.n	0x5764
    5850:	0006      	movs	r6, r0
    5852:	da00      	bge.n	0x5856
    5854:	20b8      	movs	r0, #184	; 0xb8
    5856:	e28d      	b.n	0x5d74
    5858:	1020      	asrs	r0, r4, #32
    585a:	e59d      	b.n	0x5398
    585c:	000b      	movs	r3, r1
    585e:	e1a0      	b.n	0x5ba2
    5860:	0e8f      	lsrs	r7, r1, #26
    5862:	eb00 0000 	add.w	r0, r0, r0
    5866:	e350      	b.n	0x5f0a
    5868:	00fd      	lsls	r5, r7, #3
    586a:	1a00      	subs	r0, r0, r0
    586c:	90c4      	str	r0, [sp, #784]	; 0x310
    586e:	e28d      	b.n	0x5d8c
    5870:	4094      	lsls	r4, r2
    5872:	e59d      	b.n	0x53b0
    5874:	3028      	adds	r0, #40	; 0x28
    5876:	e59d      	b.n	0x53b4
    5878:	0000      	movs	r0, r0
    587a:	e355      	b.n	0x5f28
    587c:	4004      	ands	r4, r0
    587e:	e043      	b.n	0x5908
    5880:	4005      	ands	r5, r0
    5882:	a044      	add	r0, pc, #272	; (adr r0, 0x5994)
    5884:	0000      	movs	r0, r0
    5886:	e354      	b.n	0x5f32
    5888:	5128      	str	r0, [r5, r4]
    588a:	c51f      	stmia	r5!, {r0, r1, r2, r3, r4}
    588c:	6010      	str	r0, [r2, #0]
    588e:	c3a0      	stmia	r3!, {r5, r7}
    5890:	00a4      	lsls	r4, r4, #2
    5892:	da00      	bge.n	0x5896
    5894:	30bc      	adds	r0, #188	; 0xbc
    5896:	e59d      	b.n	0x53d4
    5898:	0010      	movs	r0, r2
    589a:	e354      	b.n	0x5f46
    589c:	20c0      	movs	r0, #192	; 0xc0
    589e:	e59d      	b.n	0x53dc
    58a0:	3001      	adds	r0, #1
    58a2:	e283      	b.n	0x5dac
    58a4:	1008      	asrs	r0, r1, #32
    58a6:	e289      	b.n	0x5dbc
    58a8:	5000      	str	r0, [r0, r0]
    58aa:	e589      	b.n	0x53c0
    58ac:	000f      	movs	r7, r1
    58ae:	da00      	bge.n	0x58b2
    58b0:	2010      	movs	r0, #16
    58b2:	e282      	b.n	0x5dba
    58b4:	0007      	movs	r7, r0
    58b6:	e353      	b.n	0x5f60
    58b8:	6004      	str	r4, [r0, #0]
    58ba:	e589      	b.n	0x53d0
    58bc:	20c0      	movs	r0, #192	; 0xc0
    58be:	e58d      	b.n	0x53dc
    58c0:	30bc      	adds	r0, #188	; 0xbc
    58c2:	e58d      	b.n	0x53e0
    58c4:	0006      	movs	r6, r0
    58c6:	da00      	bge.n	0x58ca
    58c8:	20b8      	movs	r0, #184	; 0xb8
    58ca:	e28d      	b.n	0x5de8
    58cc:	1020      	asrs	r0, r4, #32
    58ce:	e59d      	b.n	0x540c
    58d0:	000b      	movs	r3, r1
    58d2:	e1a0      	b.n	0x5c16
    58d4:	0e72      	lsrs	r2, r6, #25
    58d6:	eb00 0000 	add.w	r0, r0, r0
    58da:	e350      	b.n	0x5f7e
    58dc:	00e0      	lsls	r0, r4, #3
    58de:	1a00      	subs	r0, r0, r0
    58e0:	10c4      	asrs	r4, r0, #3
    58e2:	e28d      	b.n	0x5e00
    58e4:	4010      	ands	r0, r2
    58e6:	e244      	b.n	0x5d72
    58e8:	9001      	str	r0, [sp, #4]
    58ea:	e1a0      	b.n	0x5c2e
    58ec:	ffe8 eaff 			; <UNDEFINED> instruction: 0xffe8eaff
    58f0:	4004      	ands	r4, r0
    58f2:	e589      	b.n	0x5408
    58f4:	0007      	movs	r7, r0
    58f6:	e353      	b.n	0x5fa0
    58f8:	4002      	ands	r2, r0
    58fa:	e084      	b.n	0x5a06
    58fc:	40c0      	lsrs	r0, r0
    58fe:	e58d      	b.n	0x541c
    5900:	30bc      	adds	r0, #188	; 0xbc
    5902:	e58d      	b.n	0x5420
    5904:	9001      	str	r0, [sp, #4]
    5906:	d1a0      	bne.n	0x584a
    5908:	0086      	lsls	r6, r0, #2
    590a:	da00      	bge.n	0x590e
    590c:	007e      	lsls	r6, r7, #1
    590e:	ea00 2028 	and.w	r0, r0, r8, asr #8
    5912:	e59d      	b.n	0x5450
    5914:	0001      	movs	r1, r0
    5916:	e352      	b.n	0x5fbe
    5918:	201c      	movs	r0, #28
    591a:	e59d      	b.n	0x5458
    591c:	2000      	movs	r0, #0
    591e:	e589      	b.n	0x5434
    5920:	2001      	movs	r0, #1
    5922:	e3a0      	b.n	0x6066
    5924:	30bc      	adds	r0, #188	; 0xbc
    5926:	e59d      	b.n	0x5464
    5928:	4001      	ands	r1, r0
    592a:	e284      	b.n	0x5e36
    592c:	3001      	adds	r0, #1
    592e:	e283      	b.n	0x5e38
    5930:	6008      	str	r0, [r1, #0]
    5932:	e289      	b.n	0x5e48
    5934:	2004      	movs	r0, #4
    5936:	e589      	b.n	0x544c
    5938:	40c0      	lsrs	r0, r0
    593a:	e58d      	b.n	0x5458
    593c:	30bc      	adds	r0, #188	; 0xbc
    593e:	e58d      	b.n	0x545c
    5940:	0001      	movs	r1, r0
    5942:	ca00      	ldmia	r2!, {}
    5944:	0001      	movs	r1, r0
    5946:	e31a      	b.n	0x5f7e
    5948:	005f      	lsls	r7, r3, #1
    594a:	0a00      	lsrs	r0, r0, #8
    594c:	0007      	movs	r7, r0
    594e:	e353      	b.n	0x5ff8
    5950:	0006      	movs	r6, r0
    5952:	da00      	bge.n	0x5956
    5954:	20b8      	movs	r0, #184	; 0xb8
    5956:	e28d      	b.n	0x5e74
    5958:	1020      	asrs	r0, r4, #32
    595a:	e59d      	b.n	0x5498
    595c:	000b      	movs	r3, r1
    595e:	e1a0      	b.n	0x5ca2
    5960:	0e4f      	lsrs	r7, r1, #25
    5962:	eb00 0000 	add.w	r0, r0, r0
    5966:	e350      	b.n	0x600a
    5968:	00bd      	lsls	r5, r7, #2
    596a:	1a00      	subs	r0, r0, r0
    596c:	60c4      	str	r4, [r0, #12]
    596e:	e28d      	b.n	0x5e8c
    5970:	3064      	adds	r0, #100	; 0x64
    5972:	e59d      	b.n	0x54b0
    5974:	3000      	adds	r0, #0
    5976:	e586      	b.n	0x5486
    5978:	3048      	adds	r0, #72	; 0x48
    597a:	e59d      	b.n	0x54b8
    597c:	2048      	movs	r0, #72	; 0x48
    597e:	e59d      	b.n	0x54bc
    5980:	3004      	adds	r0, #4
    5982:	e586      	b.n	0x5492
    5984:	30c0      	adds	r0, #192	; 0xc0
    5986:	e59d      	b.n	0x54c4
    5988:	3002      	adds	r0, #2
    598a:	e083      	b.n	0x5a94
    598c:	30c0      	adds	r0, #192	; 0xc0
    598e:	e58d      	b.n	0x54ac
    5990:	30bc      	adds	r0, #188	; 0xbc
    5992:	e59d      	b.n	0x54d0
    5994:	3001      	adds	r0, #1
    5996:	e283      	b.n	0x5ea0
    5998:	0007      	movs	r7, r0
    599a:	e353      	b.n	0x6044
    599c:	30bc      	adds	r0, #188	; 0xbc
    599e:	e58d      	b.n	0x54bc
    59a0:	6008      	str	r0, [r1, #0]
    59a2:	d286      	bcs.n	0x58b2
    59a4:	0006      	movs	r6, r0
    59a6:	da00      	bge.n	0x59aa
    59a8:	20b8      	movs	r0, #184	; 0xb8
    59aa:	e28d      	b.n	0x5ec8
    59ac:	1020      	asrs	r0, r4, #32
    59ae:	e59d      	b.n	0x54ec
    59b0:	000b      	movs	r3, r1
    59b2:	e1a0      	b.n	0x5cf6
    59b4:	0e3a      	lsrs	r2, r7, #24
    59b6:	eb00 0000 	add.w	r0, r0, r0
    59ba:	e350      	b.n	0x605e
    59bc:	00a8      	lsls	r0, r5, #2
    59be:	1a00      	subs	r0, r0, r0
    59c0:	60c4      	str	r4, [r0, #12]
    59c2:	e28d      	b.n	0x5ee0
    59c4:	3028      	adds	r0, #40	; 0x28
    59c6:	e59d      	b.n	0x5504
    59c8:	205c      	movs	r0, #92	; 0x5c
    59ca:	e28d      	b.n	0x5ee8
    59cc:	4001      	ands	r1, r0
    59ce:	e243      	b.n	0x5e58
    59d0:	0040      	lsls	r0, r0, #1
    59d2:	e59d      	b.n	0x5510
    59d4:	000c      	movs	r4, r1
    59d6:	e892 1038 	ldmia.w	r2, {r3, r4, r5, ip}
    59da:	e59d      	b.n	0x5518
    59dc:	efe5 ebff 			; <UNDEFINED> instruction: 0xefe5ebff
    59e0:	0000      	movs	r0, r0
    59e2:	e350      	b.n	0x6086
    59e4:	0015      	movs	r5, r2
    59e6:	1a00      	subs	r0, r0, r0
    59e8:	301c      	adds	r0, #28
    59ea:	e59d      	b.n	0x5528
    59ec:	3001      	adds	r0, #1
    59ee:	e283      	b.n	0x5ef8
    59f0:	20bc      	movs	r0, #188	; 0xbc
    59f2:	e59d      	b.n	0x5530
    59f4:	0018      	movs	r0, r3
    59f6:	e886 30c0 	stmia.w	r6, {r6, r7, ip, sp}
    59fa:	e59d      	b.n	0x5538
    59fc:	1028      	asrs	r0, r5, #32
    59fe:	e59d      	b.n	0x553c
    5a00:	2001      	movs	r0, #1
    5a02:	e282      	b.n	0x5f0a
    5a04:	3001      	adds	r0, #1
    5a06:	e243      	b.n	0x5e90
    5a08:	3001      	adds	r0, #1
    5a0a:	e083      	b.n	0x5b14
    5a0c:	0007      	movs	r7, r0
    5a0e:	e352      	b.n	0x60b6
    5a10:	30c0      	adds	r0, #192	; 0xc0
    5a12:	e58d      	b.n	0x5530
    5a14:	20bc      	movs	r0, #188	; 0xbc
    5a16:	e58d      	b.n	0x5534
    5a18:	6008      	str	r0, [r1, #0]
    5a1a:	d286      	bcs.n	0x592a
    5a1c:	002c      	movs	r4, r5
    5a1e:	da00      	bge.n	0x5a22
    5a20:	20b8      	movs	r0, #184	; 0xb8
    5a22:	e28d      	b.n	0x5f40
    5a24:	1020      	asrs	r0, r4, #32
    5a26:	e59d      	b.n	0x5564
    5a28:	000b      	movs	r3, r1
    5a2a:	e1a0      	b.n	0x5d6e
    5a2c:	0e1c      	lsrs	r4, r3, #24
    5a2e:	eb00 0000 	add.w	r0, r0, r0
    5a32:	e350      	b.n	0x60d6
    5a34:	008a      	lsls	r2, r1, #2
    5a36:	1a00      	subs	r0, r0, r0
    5a38:	60c4      	str	r4, [r0, #12]
    5a3a:	e28d      	b.n	0x5f58
    5a3c:	0024      	movs	r4, r4
    5a3e:	ea00 0000 	and.w	r0, r0, r0
    5a42:	e354      	b.n	0x60ee
    5a44:	52e4      	strh	r4, [r4, r3]
    5a46:	c51f      	stmia	r5!, {r0, r1, r2, r3, r4}
    5a48:	9010      	str	r0, [sp, #64]	; 0x40
    5a4a:	c3a0      	stmia	r3!, {r5, r7}
    5a4c:	0020      	movs	r0, r4
    5a4e:	da00      	bge.n	0x5a52
    5a50:	30bc      	adds	r0, #188	; 0xbc
    5a52:	e59d      	b.n	0x5590
    5a54:	0010      	movs	r0, r2
    5a56:	e354      	b.n	0x6102
    5a58:	20c0      	movs	r0, #192	; 0xc0
    5a5a:	e59d      	b.n	0x5598
    5a5c:	3001      	adds	r0, #1
    5a5e:	e283      	b.n	0x5f68
    5a60:	1008      	asrs	r0, r1, #32
    5a62:	e286      	b.n	0x5f72
    5a64:	5000      	str	r0, [r0, r0]
    5a66:	e586      	b.n	0x5576
    5a68:	000f      	movs	r7, r1
    5a6a:	da00      	bge.n	0x5a6e
    5a6c:	2010      	movs	r0, #16
    5a6e:	e282      	b.n	0x5f76
    5a70:	0007      	movs	r7, r0
    5a72:	e353      	b.n	0x611c
    5a74:	9004      	str	r0, [sp, #16]
    5a76:	e586      	b.n	0x5586
    5a78:	20c0      	movs	r0, #192	; 0xc0
    5a7a:	e58d      	b.n	0x5598
    5a7c:	30bc      	adds	r0, #188	; 0xbc
    5a7e:	e58d      	b.n	0x559c
    5a80:	0006      	movs	r6, r0
    5a82:	da00      	bge.n	0x5a86
    5a84:	20b8      	movs	r0, #184	; 0xb8
    5a86:	e28d      	b.n	0x5fa4
    5a88:	1020      	asrs	r0, r4, #32
    5a8a:	e59d      	b.n	0x55c8
    5a8c:	000b      	movs	r3, r1
    5a8e:	e1a0      	b.n	0x5dd2
    5a90:	0e03      	lsrs	r3, r0, #24
    5a92:	eb00 0000 	add.w	r0, r0, r0
    5a96:	e350      	b.n	0x613a
    5a98:	0071      	lsls	r1, r6, #1
    5a9a:	1a00      	subs	r0, r0, r0
    5a9c:	10c4      	asrs	r4, r0, #3
    5a9e:	e28d      	b.n	0x5fbc
    5aa0:	4010      	ands	r0, r2
    5aa2:	e244      	b.n	0x5f2e
    5aa4:	6001      	str	r1, [r0, #0]
    5aa6:	e1a0      	b.n	0x5dea
    5aa8:	ffe8 eaff 			; <UNDEFINED> instruction: 0xffe8eaff
    5aac:	4004      	ands	r4, r0
    5aae:	e586      	b.n	0x55be
    5ab0:	0007      	movs	r7, r0
    5ab2:	e353      	b.n	0x615c
    5ab4:	4002      	ands	r2, r0
    5ab6:	e084      	b.n	0x5bc2
    5ab8:	40c0      	lsrs	r0, r0
    5aba:	e58d      	b.n	0x55d8
    5abc:	30bc      	adds	r0, #188	; 0xbc
    5abe:	e58d      	b.n	0x55dc
    5ac0:	6001      	str	r1, [r0, #0]
    5ac2:	d1a0      	bne.n	0x5a06
    5ac4:	0002      	movs	r2, r0
    5ac6:	da00      	bge.n	0x5aca
    5ac8:	ffd4 eaff 			; <UNDEFINED> instruction: 0xffd4eaff
    5acc:	0007      	movs	r7, r0
    5ace:	e353      	b.n	0x6178
    5ad0:	ffd2 caff 			; <UNDEFINED> instruction: 0xffd2caff
    5ad4:	30a0      	adds	r0, #160	; 0xa0
    5ad6:	e28d      	b.n	0x5ff4
    5ad8:	3000      	adds	r0, #0
    5ada:	e586      	b.n	0x55ea
    5adc:	306c      	adds	r0, #108	; 0x6c
    5ade:	e59d      	b.n	0x561c
    5ae0:	206c      	movs	r0, #108	; 0x6c
    5ae2:	e59d      	b.n	0x5620
    5ae4:	3004      	adds	r0, #4
    5ae6:	e586      	b.n	0x55f6
    5ae8:	30c0      	adds	r0, #192	; 0xc0
    5aea:	e59d      	b.n	0x5628
    5aec:	3002      	adds	r0, #2
    5aee:	e083      	b.n	0x5bf8
    5af0:	30c0      	adds	r0, #192	; 0xc0
    5af2:	e58d      	b.n	0x5610
    5af4:	30bc      	adds	r0, #188	; 0xbc
    5af6:	e59d      	b.n	0x5634
    5af8:	3001      	adds	r0, #1
    5afa:	e283      	b.n	0x6004
    5afc:	0007      	movs	r7, r0
    5afe:	e353      	b.n	0x61a8
    5b00:	30bc      	adds	r0, #188	; 0xbc
    5b02:	e58d      	b.n	0x5620
    5b04:	9008      	str	r0, [sp, #32]
    5b06:	d286      	bcs.n	0x5a16
    5b08:	0006      	movs	r6, r0
    5b0a:	da00      	bge.n	0x5b0e
    5b0c:	20b8      	movs	r0, #184	; 0xb8
    5b0e:	e28d      	b.n	0x602c
    5b10:	1020      	asrs	r0, r4, #32
    5b12:	e59d      	b.n	0x5650
    5b14:	000b      	movs	r3, r1
    5b16:	e1a0      	b.n	0x5e5a
    5b18:	0de1      	lsrs	r1, r4, #23
    5b1a:	eb00 0000 	add.w	r0, r0, r0
    5b1e:	e350      	b.n	0x61c2
    5b20:	004f      	lsls	r7, r1, #1
    5b22:	1a00      	subs	r0, r0, r0
    5b24:	90c4      	str	r0, [sp, #784]	; 0x310
    5b26:	e28d      	b.n	0x6044
    5b28:	0004      	movs	r4, r0
    5b2a:	e31a      	b.n	0x6162
    5b2c:	000a      	movs	r2, r1
    5b2e:	1a00      	subs	r0, r0, r0
    5b30:	304c      	adds	r0, #76	; 0x4c
    5b32:	e59d      	b.n	0x5670
    5b34:	203c      	movs	r0, #60	; 0x3c
    5b36:	e59d      	b.n	0x5674
    5b38:	1054      	asrs	r4, r2, #1
    5b3a:	e59d      	b.n	0x5678
    5b3c:	0001      	movs	r1, r0
    5b3e:	e152      	b.n	0x5de6
    5b40:	3002      	adds	r0, #2
    5b42:	a083      	add	r0, pc, #524	; (adr r0, 0x5d50)
    5b44:	3001      	adds	r0, #1
    5b46:	b083      	sub	sp, #12
    5b48:	304c      	adds	r0, #76	; 0x4c
    5b4a:	e58d      	b.n	0x5668
    5b4c:	30c0      	adds	r0, #192	; 0xc0
    5b4e:	e59d      	b.n	0x568c
    5b50:	0000      	movs	r0, r0
    5b52:	e353      	b.n	0x61fc
    5b54:	0030      	movs	r0, r6
    5b56:	0a00      	lsrs	r0, r0, #8
    5b58:	0029      	movs	r1, r5
    5b5a:	ea00 303c 	and.w	r0, r0, ip, ror #12
    5b5e:	e59d      	b.n	0x569c
    5b60:	2054      	movs	r0, #84	; 0x54
    5b62:	e59d      	b.n	0x56a0
    5b64:	4002      	ands	r2, r0
    5b66:	e043      	b.n	0x5bf0
    5b68:	0000      	movs	r0, r0
    5b6a:	e354      	b.n	0x6216
    5b6c:	5408      	strb	r0, [r1, r0]
    5b6e:	c51f      	stmia	r5!, {r0, r1, r2, r3, r4}
    5b70:	6010      	str	r0, [r2, #0]
    5b72:	c3a0      	stmia	r3!, {r5, r7}
    5b74:	ffed daff 			; <UNDEFINED> instruction: 0xffeddaff
    5b78:	30bc      	adds	r0, #188	; 0xbc
    5b7a:	e59d      	b.n	0x56b8
    5b7c:	0010      	movs	r0, r2
    5b7e:	e354      	b.n	0x622a
    5b80:	20c0      	movs	r0, #192	; 0xc0
    5b82:	e59d      	b.n	0x56c0
    5b84:	3001      	adds	r0, #1
    5b86:	e283      	b.n	0x6090
    5b88:	5000      	str	r0, [r0, r0]
    5b8a:	e589      	b.n	0x56a0
    5b8c:	000f      	movs	r7, r1
    5b8e:	da00      	bge.n	0x5b92
    5b90:	2010      	movs	r0, #16
    5b92:	e282      	b.n	0x609a
    5b94:	0007      	movs	r7, r0
    5b96:	e353      	b.n	0x6240
    5b98:	6004      	str	r4, [r0, #0]
    5b9a:	e589      	b.n	0x56b0
    5b9c:	20c0      	movs	r0, #192	; 0xc0
    5b9e:	e58d      	b.n	0x56bc
    5ba0:	30bc      	adds	r0, #188	; 0xbc
    5ba2:	e58d      	b.n	0x56c0
    5ba4:	9008      	str	r0, [sp, #32]
    5ba6:	d289      	bcs.n	0x5abc
    5ba8:	0006      	movs	r6, r0
    5baa:	da00      	bge.n	0x5bae
    5bac:	20b8      	movs	r0, #184	; 0xb8
    5bae:	e28d      	b.n	0x60cc
    5bb0:	1020      	asrs	r0, r4, #32
    5bb2:	e59d      	b.n	0x56f0
    5bb4:	000b      	movs	r3, r1
    5bb6:	e1a0      	b.n	0x5efa
    5bb8:	0db9      	lsrs	r1, r7, #22
    5bba:	eb00 0000 	add.w	r0, r0, r0
    5bbe:	e350      	b.n	0x6262
    5bc0:	0027      	movs	r7, r4
    5bc2:	1a00      	subs	r0, r0, r0
    5bc4:	90c4      	str	r0, [sp, #784]	; 0x310
    5bc6:	e28d      	b.n	0x60e4
    5bc8:	4010      	ands	r0, r2
    5bca:	e244      	b.n	0x6056
    5bcc:	ffe9 eaff 			; <UNDEFINED> instruction: 0xffe9eaff
    5bd0:	4004      	ands	r4, r0
    5bd2:	e589      	b.n	0x56e8
    5bd4:	0007      	movs	r7, r0
    5bd6:	e353      	b.n	0x6280
    5bd8:	4002      	ands	r2, r0
    5bda:	e084      	b.n	0x5ce6
    5bdc:	40c0      	lsrs	r0, r0
    5bde:	e58d      	b.n	0x56fc
    5be0:	30bc      	adds	r0, #188	; 0xbc
    5be2:	e58d      	b.n	0x5700
    5be4:	ffd1 daff 			; <UNDEFINED> instruction: 0xffd1daff
    5be8:	20b8      	movs	r0, #184	; 0xb8
    5bea:	e28d      	b.n	0x6108
    5bec:	1020      	asrs	r0, r4, #32
    5bee:	e59d      	b.n	0x572c
    5bf0:	000b      	movs	r3, r1
    5bf2:	e1a0      	b.n	0x5f36
    5bf4:	0daa      	lsrs	r2, r5, #22
    5bf6:	eb00 0000 	add.w	r0, r0, r0
    5bfa:	e350      	b.n	0x629e
    5bfc:	ffcb 0aff 			; <UNDEFINED> instruction: 0xffcb0aff
    5c00:	0017      	movs	r7, r2
    5c02:	ea00 20b8 	and.w	r0, r0, r8, ror #10
    5c06:	e28d      	b.n	0x6124
    5c08:	1020      	asrs	r0, r4, #32
    5c0a:	e59d      	b.n	0x5748
    5c0c:	000b      	movs	r3, r1
    5c0e:	e1a0      	b.n	0x5f52
    5c10:	0da3      	lsrs	r3, r4, #22
    5c12:	eb00 0000 	add.w	r0, r0, r0
    5c16:	e350      	b.n	0x62ba
    5c18:	0011      	movs	r1, r2
    5c1a:	1a00      	subs	r0, r0, r0
    5c1c:	3000      	adds	r0, #0
    5c1e:	e3a0      	b.n	0x6362
    5c20:	0003      	movs	r3, r0
    5c22:	e157      	b.n	0x5ed4
    5c24:	30bc      	adds	r0, #188	; 0xbc
    5c26:	e58d      	b.n	0x5744
    5c28:	1007      	asrs	r7, r0, #32
    5c2a:	11a0      	asrs	r0, r4, #6
    5c2c:	000b      	movs	r3, r1
    5c2e:	11a0      	asrs	r0, r4, #6
    5c30:	06b7      	lsls	r7, r6, #26
    5c32:	1b00      	subs	r0, r0, r4
    5c34:	90c4      	str	r0, [sp, #784]	; 0x310
    5c36:	e28d      	b.n	0x6154
    5c38:	f7af eaff 			; <UNDEFINED> instruction: 0xf7afeaff
    5c3c:	30c0      	adds	r0, #192	; 0xc0
    5c3e:	e59d      	b.n	0x577c
    5c40:	0000      	movs	r0, r0
    5c42:	e353      	b.n	0x62ec
    5c44:	000b      	movs	r3, r1
    5c46:	0a00      	lsrs	r0, r0, #8
    5c48:	20b8      	movs	r0, #184	; 0xb8
    5c4a:	e28d      	b.n	0x6168
    5c4c:	1020      	asrs	r0, r4, #32
    5c4e:	e59d      	b.n	0x578c
    5c50:	000b      	movs	r3, r1
    5c52:	e1a0      	b.n	0x5f96
    5c54:	0d92      	lsrs	r2, r2, #22
    5c56:	eb00 0006 	add.w	r0, r0, r6
    5c5a:	ea00 a018 			; <UNDEFINED> instruction: 0xea00a018
    5c5e:	e59d      	b.n	0x579c
    5c60:	0000      	movs	r0, r0
    5c62:	ea00 a007 			; <UNDEFINED> instruction: 0xea00a007
    5c66:	e1a0      	b.n	0x5faa
    5c68:	0000      	movs	r0, r0
    5c6a:	e35a      	b.n	0x6322
    5c6c:	100a      	asrs	r2, r1, #32
    5c6e:	11a0      	asrs	r0, r4, #6
    5c70:	000b      	movs	r3, r1
    5c72:	11a0      	asrs	r0, r4, #6
    5c74:	06a6      	lsls	r6, r4, #26
    5c76:	1b00      	subs	r0, r0, r4
    5c78:	3020      	adds	r0, #32
    5c7a:	e59d      	b.n	0x57b8
    5c7c:	30bc      	adds	r0, #188	; 0xbc
    5c7e:	e1d3      	b.n	0x6028
    5c80:	0040      	lsls	r0, r0, #1
    5c82:	e313      	b.n	0x62ac
    5c84:	304c      	adds	r0, #76	; 0x4c
    5c86:	e59d      	b.n	0x57c4
    5c88:	3000      	adds	r0, #0
    5c8a:	13e0      	asrs	r0, r4, #15
    5c8c:	304c      	adds	r0, #76	; 0x4c
    5c8e:	e58d      	b.n	0x57ac
    5c90:	004c      	lsls	r4, r1, #1
    5c92:	e59d      	b.n	0x57d0
    5c94:	dfbb      	svc	187	; 0xbb
    5c96:	e28d      	b.n	0x61b4
    5c98:	4ff0      	ldr	r7, [pc, #960]	; (0x605c)
    5c9a:	e8bd ff1e 	ldmia.w	sp!, {r1, r2, r3, r4, r8, r9, sl, fp, ip, sp, lr, pc}
    5c9e:	e12f      	b.n	0x5f00
    5ca0:	40f0      	lsrs	r0, r6
    5ca2:	e92d 6000 	stmdb	sp!, {sp, lr}
    5ca6:	e253      	b.n	0x6150
    5ca8:	6f45      	ldr	r5, [r0, #116]	; 0x74
    5caa:	0280      	lsls	r0, r0, #10
    5cac:	0000      	movs	r0, r0
    5cae:	e351      	b.n	0x6354
    5cb0:	d014      	beq.n	0x5cdc
    5cb2:	e24d      	b.n	0x6150
    5cb4:	5000      	str	r0, [r0, r0]
    5cb6:	e1a0      	b.n	0x5ffa
    5cb8:	4001      	ands	r1, r0
    5cba:	e1a0      	b.n	0x5ffe
    5cbc:	7002      	strb	r2, [r0, #0]
    5cbe:	e1a0      	b.n	0x6002
    5cc0:	0013      	movs	r3, r2
    5cc2:	0a00      	lsrs	r0, r0, #8
    5cc4:	1070      	asrs	r0, r6, #1
    5cc6:	eb00 3034 	add.w	r0, r0, r4, ror #12
    5cca:	e590      	b.n	0x57ee
    5ccc:	2074      	movs	r0, #116	; 0x74
    5cce:	e59f      	b.n	0x5810
    5cd0:	0000      	movs	r0, r0
    5cd2:	e353      	b.n	0x637c
    5cd4:	3002      	adds	r0, #2
    5cd6:	01a0      	lsls	r0, r4, #6
    5cd8:	1004      	asrs	r4, r0, #32
    5cda:	e1a0      	b.n	0x601e
    5cdc:	2007      	movs	r0, #7
    5cde:	e1a0      	b.n	0x6022
    5ce0:	40e0      	lsrs	r0, r4
    5ce2:	e593      	b.n	0x580c
    5ce4:	0005      	movs	r5, r0
    5ce6:	e1a0      	b.n	0x602a
    5ce8:	3006      	adds	r0, #6
    5cea:	e1a0      	b.n	0x602e
    5cec:	e00f      	b.n	0x5d0e
    5cee:	e1a0      	b.n	0x6032
    5cf0:	ff14 e12f 	vrhadd.u16	d14, d4, d31
    5cf4:	0001      	movs	r1, r0
    5cf6:	e370      	b.n	0x63da
    5cf8:	2000      	movs	r0, #0
    5cfa:	03a0      	lsls	r0, r4, #14
    5cfc:	308a      	adds	r0, #138	; 0x8a
    5cfe:	03a0      	lsls	r0, r4, #14
    5d00:	2000      	movs	r0, #0
    5d02:	0586      	lsls	r6, r0, #22
    5d04:	3000      	adds	r0, #0
    5d06:	0585      	lsls	r5, r0, #22
    5d08:	d014      	beq.n	0x5d34
    5d0a:	e28d      	b.n	0x6228
    5d0c:	40f0      	lsrs	r0, r6
    5d0e:	e8bd ff1e 	ldmia.w	sp!, {r1, r2, r3, r4, r8, r9, sl, fp, ip, sp, lr, pc}
    5d12:	e12f      	b.n	0x5f74
    5d14:	105c      	asrs	r4, r3, #1
    5d16:	eb00 3034 	add.w	r0, r0, r4, ror #12
    5d1a:	e590      	b.n	0x583e
    5d1c:	2024      	movs	r0, #36	; 0x24
    5d1e:	e59f      	b.n	0x5860
    5d20:	0000      	movs	r0, r0
    5d22:	e353      	b.n	0x63cc
    5d24:	3002      	adds	r0, #2
    5d26:	01a0      	lsls	r0, r4, #6
    5d28:	1004      	asrs	r4, r0, #32
    5d2a:	e28d      	b.n	0x6248
    5d2c:	2004      	movs	r0, #4
    5d2e:	e1a0      	b.n	0x6072
    5d30:	0005      	movs	r5, r0
    5d32:	e1a0      	b.n	0x6076
    5d34:	40e0      	lsrs	r0, r4
    5d36:	e593      	b.n	0x5860
    5d38:	3006      	adds	r0, #6
    5d3a:	e1a0      	b.n	0x607e
    5d3c:	e00f      	b.n	0x5d5e
    5d3e:	e1a0      	b.n	0x6082
    5d40:	ff14 e12f 	vrhadd.u16	d14, d4, d31
    5d44:	ffea eaff 			; <UNDEFINED> instruction: 0xffeaeaff
    5d48:	01ec      	lsls	r4, r5, #7
    5d4a:	0300      	lsls	r0, r0, #12
    5d4c:	e004      	b.n	0x5d58
    5d4e:	e52d      	b.n	0x57ac
    5d50:	d00c      	beq.n	0x5d6c
    5d52:	e24d      	b.n	0x61f0
    5d54:	c010      	stmia	r0!, {r4}
    5d56:	e59d      	b.n	0x5894
    5d58:	1008      	asrs	r0, r1, #32
    5d5a:	e88d 3000 	stmia.w	sp, {ip, sp}
    5d5e:	e3e0      	b.n	0x6522
    5d60:	0e17      	lsrs	r7, r2, #24
    5d62:	eb00 d00c 			; <UNDEFINED> instruction: 0xeb00d00c
    5d66:	e28d      	b.n	0x6284
    5d68:	e004      	b.n	0x5d74
    5d6a:	e49d      	b.n	0x56a8
    5d6c:	ff1e e12f 	vrhadd.u16	d14, d14, d31
    5d70:	4ff0      	ldr	r7, [pc, #960]	; (0x6134)
    5d72:	e92d 3010 	stmdb	sp!, {r4, ip, sp}
    5d76:	e590      	b.n	0x589a
    5d78:	5010      	str	r0, [r2, r0]
    5d7a:	e591      	b.n	0x58a0
    5d7c:	0005      	movs	r5, r0
    5d7e:	e153      	b.n	0x6028
    5d80:	d014      	beq.n	0x5dac
    5d82:	e24d      	b.n	0x6220
    5d84:	0000      	movs	r0, r0
    5d86:	b3a0      	cbz	r0, 0x5df2
    5d88:	0071      	lsls	r1, r6, #1
    5d8a:	ba00      	rev	r0, r0
    5d8c:	5001      	str	r1, [r0, r0]
    5d8e:	e245      	b.n	0x621c
    5d90:	4014      	ands	r4, r2
    5d92:	e281      	b.n	0x6298
    5d94:	9014      	str	r0, [sp, #80]	; 0x50
    5d96:	e280      	b.n	0x629a
    5d98:	8105      	strh	r5, [r0, #8]
    5d9a:	e794      	b.n	0x5cc6
    5d9c:	a105      	add	r1, pc, #20	; (adr r1, 0x5db4)
    5d9e:	e799      	b.n	0x5cd4
    5da0:	8001      	strh	r1, [r0, #0]
    5da2:	e288      	b.n	0x62b6
    5da4:	1004      	asrs	r4, r0, #32
    5da6:	e58d      	b.n	0x58c4
    5da8:	7000      	strb	r0, [r0, #0]
    5daa:	e1a0      	b.n	0x60ee
    5dac:	1008      	asrs	r0, r1, #32
    5dae:	e1a0      	b.n	0x60f2
    5db0:	000a      	movs	r2, r1
    5db2:	e1a0      	b.n	0x60f6
    5db4:	ebf4 ebff 			; <UNDEFINED> instruction: 0xebf4ebff
    5db8:	3105      	adds	r1, #5
    5dba:	e1a0      	b.n	0x60fe
    5dbc:	0008      	movs	r0, r1
    5dbe:	e15a      	b.n	0x6076
    5dc0:	3008      	adds	r0, #8
    5dc2:	e58d      	b.n	0x58e0
    5dc4:	8003      	strh	r3, [r0, #0]
    5dc6:	e084      	b.n	0x5ed2
    5dc8:	3003      	adds	r0, #3
    5dca:	e089      	b.n	0x5ee0
    5dcc:	6000      	str	r0, [r0, #0]
    5dce:	e1a0      	b.n	0x6112
    5dd0:	300c      	adds	r0, #12
    5dd2:	e58d      	b.n	0x58f0
    5dd4:	0031      	movs	r1, r6
    5dd6:	3a00      	subs	r2, #0
    5dd8:	1000      	asrs	r0, r0, #32
    5dda:	e3a0      	b.n	0x651e
    5ddc:	e004      	b.n	0x5de8
    5dde:	e1a0      	b.n	0x6122
    5de0:	2001      	movs	r0, #1
    5de2:	e1a0      	b.n	0x6126
    5de4:	0009      	movs	r1, r1
    5de6:	e1a0      	b.n	0x612a
    5de8:	c170      	stmia	r1!, {r4, r5, r6}
    5dea:	e59f      	b.n	0x592c
    5dec:	a004      	add	r0, pc, #16	; (adr r0, 0x5e00)
    5dee:	e49e      	b.n	0x572e
    5df0:	300c      	adds	r0, #12
    5df2:	e00a      	b.n	0x5e0a
    5df4:	1396      	asrs	r6, r2, #14
    5df6:	e02b      	b.n	0x5e50
    5df8:	100b      	asrs	r3, r1, #32
    5dfa:	e1a0      	b.n	0x613e
    5dfc:	a82a      	add	r0, sp, #168	; 0xa8
    5dfe:	e1a0      	b.n	0x6142
    5e00:	382b      	subs	r0, #43	; 0x2b
    5e02:	e1a0      	b.n	0x6146
    5e04:	3a96      	subs	r2, #150	; 0x96
    5e06:	e02b      	b.n	0x5e60
    5e08:	3001      	adds	r0, #1
    5e0a:	e1a0      	b.n	0x614e
    5e0c:	a00b      	add	r0, pc, #44	; (adr r0, 0x5e3c)
    5e0e:	e1a0      	b.n	0x6152
    5e10:	b000      	add	sp, #0
    5e12:	e590      	b.n	0x5936
    5e14:	300c      	adds	r0, #12
    5e16:	e003      	b.n	0x5e20
    5e18:	3003      	adds	r0, #3
    5e1a:	e042      	b.n	0x5ea2
    5e1c:	100c      	asrs	r4, r1, #32
    5e1e:	e00b      	b.n	0x5e38
    5e20:	200c      	movs	r0, #12
    5e22:	e00a      	b.n	0x5e3a
    5e24:	3001      	adds	r0, #1
    5e26:	e083      	b.n	0x5f30
    5e28:	282b      	cmp	r0, #43	; 0x2b
    5e2a:	e062      	b.n	0x5ef2
    5e2c:	2843      	cmp	r0, #67	; 0x43
    5e2e:	e082      	b.n	0x5f36
    5e30:	300c      	adds	r0, #12
    5e32:	e003      	b.n	0x5e3c
    5e34:	3802      	subs	r0, #2
    5e36:	e183      	b.n	0x6140
    5e38:	000e      	movs	r6, r1
    5e3a:	e158      	b.n	0x60ee
    5e3c:	3004      	adds	r0, #4
    5e3e:	e480      	b.n	0x5742
    5e40:	2842      	cmp	r0, #66	; 0x42
    5e42:	e1a0      	b.n	0x6186
    5e44:	182a      	adds	r2, r5, r0
    5e46:	e1a0      	b.n	0x618a
    5e48:	ffe7 2aff 			; <UNDEFINED> instruction: 0xffe72aff
    5e4c:	3008      	adds	r0, #8
    5e4e:	e59d      	b.n	0x598c
    5e50:	3003      	adds	r0, #3
    5e52:	e799      	b.n	0x5d88
    5e54:	0000      	movs	r0, r0
    5e56:	e353      	b.n	0x6500
    5e58:	0010      	movs	r0, r2
    5e5a:	1a00      	subs	r0, r0, r0
    5e5c:	200c      	movs	r0, #12
    5e5e:	e59d      	b.n	0x599c
    5e60:	3004      	adds	r0, #4
    5e62:	e242      	b.n	0x62ea
    5e64:	0003      	movs	r3, r0
    5e66:	e159      	b.n	0x611c
    5e68:	000b      	movs	r3, r1
    5e6a:	2a00      	cmp	r2, #0
    5e6c:	3004      	adds	r0, #4
    5e6e:	e512      	b.n	0x5896
    5e70:	0000      	movs	r0, r0
    5e72:	e353      	b.n	0x651c
    5e74:	0008      	movs	r0, r1
    5e76:	1a00      	subs	r0, r0, r0
    5e78:	3008      	adds	r0, #8
    5e7a:	e242      	b.n	0x6302
    5e7c:	0003      	movs	r3, r0
    5e7e:	ea00 2000 	and.w	r0, r0, r0, lsl #8
    5e82:	e593      	b.n	0x59ac
    5e84:	0000      	movs	r0, r0
    5e86:	e352      	b.n	0x652e
    5e88:	3004      	adds	r0, #4
    5e8a:	e243      	b.n	0x6314
    5e8c:	0002      	movs	r2, r0
    5e8e:	1a00      	subs	r0, r0, r0
    5e90:	0003      	movs	r3, r0
    5e92:	e159      	b.n	0x6148
    5e94:	5001      	str	r1, [r0, r0]
    5e96:	e245      	b.n	0x6324
    5e98:	fff8 3aff 			; <UNDEFINED> instruction: 0xfff83aff
    5e9c:	5010      	str	r0, [r2, r0]
    5e9e:	e587      	b.n	0x59b0
    5ea0:	1004      	asrs	r4, r0, #32
    5ea2:	e59d      	b.n	0x59e0
    5ea4:	0007      	movs	r7, r0
    5ea6:	e1a0      	b.n	0x61ea
    5ea8:	0bc2      	lsrs	r2, r0, #15
    5eaa:	eb00 0000 	add.w	r0, r0, r0
    5eae:	e350      	b.n	0x6552
    5eb0:	0026      	movs	r6, r4
    5eb2:	ba00      	rev	r0, r0
    5eb4:	0009      	movs	r1, r1
    5eb6:	e1a0      	b.n	0x61fa
    5eb8:	3000      	adds	r0, #0
    5eba:	e3a0      	b.n	0x65fe
    5ebc:	109c      	asrs	r4, r3, #2
    5ebe:	e59f      	b.n	0x5a00
    5ec0:	6001      	str	r1, [r0, #0]
    5ec2:	e286      	b.n	0x63d2
    5ec4:	c004      	stmia	r0!, {r2}
    5ec6:	e494      	b.n	0x57f2
    5ec8:	e000      	b.n	0x5ecc
    5eca:	e590      	b.n	0x59ee
    5ecc:	2001      	movs	r0, #1
    5ece:	e00c      	b.n	0x5eea
    5ed0:	2002      	movs	r0, #2
    5ed2:	e043      	b.n	0x5f5c
    5ed4:	382c      	subs	r0, #44	; 0x2c
    5ed6:	e1a0      	b.n	0x621a
    5ed8:	c001      	stmia	r0!, {r0}
    5eda:	e00e      	b.n	0x5efa
    5edc:	200c      	movs	r0, #12
    5ede:	e082      	b.n	0x5fe6
    5ee0:	382e      	subs	r0, #46	; 0x2e
    5ee2:	e063      	b.n	0x5fac
    5ee4:	3842      	subs	r0, #66	; 0x42
    5ee6:	e083      	b.n	0x5ff0
    5ee8:	2001      	movs	r0, #1
    5eea:	e002      	b.n	0x5ef2
    5eec:	2803      	cmp	r0, #3
    5eee:	e182      	b.n	0x61f6
    5ef0:	0004      	movs	r4, r0
    5ef2:	e158      	b.n	0x61a6
    5ef4:	2004      	movs	r0, #4
    5ef6:	e480      	b.n	0x57fa
    5ef8:	3843      	subs	r0, #67	; 0x43
    5efa:	e1a0      	b.n	0x623e
    5efc:	fff0 2aff 			; <UNDEFINED> instruction: 0xfff02aff
    5f00:	3105      	adds	r1, #5
    5f02:	e799      	b.n	0x5e38
    5f04:	0000      	movs	r0, r0
    5f06:	e353      	b.n	0x65b0
    5f08:	3105      	adds	r1, #5
    5f0a:	e089      	b.n	0x6020
    5f0c:	000f      	movs	r7, r1
    5f0e:	1a00      	subs	r0, r0, r0
    5f10:	2004      	movs	r0, #4
    5f12:	e243      	b.n	0x639c
    5f14:	0002      	movs	r2, r0
    5f16:	e159      	b.n	0x61cc
    5f18:	000b      	movs	r3, r1
    5f1a:	2a00      	cmp	r2, #0
    5f1c:	2004      	movs	r0, #4
    5f1e:	e513      	b.n	0x5948
    5f20:	0000      	movs	r0, r0
    5f22:	e352      	b.n	0x65ca
    5f24:	0008      	movs	r0, r1
    5f26:	1a00      	subs	r0, r0, r0
    5f28:	3008      	adds	r0, #8
    5f2a:	e243      	b.n	0x63b4
    5f2c:	0003      	movs	r3, r0
    5f2e:	ea00 2000 	and.w	r0, r0, r0, lsl #8
    5f32:	e593      	b.n	0x5a5c
    5f34:	0000      	movs	r0, r0
    5f36:	e352      	b.n	0x65de
    5f38:	3004      	adds	r0, #4
    5f3a:	e243      	b.n	0x63c4
    5f3c:	0002      	movs	r2, r0
    5f3e:	1a00      	subs	r0, r0, r0
    5f40:	0003      	movs	r3, r0
    5f42:	e159      	b.n	0x61f8
    5f44:	5001      	str	r1, [r0, r0]
    5f46:	e245      	b.n	0x63d4
    5f48:	fff8 3aff 			; <UNDEFINED> instruction: 0xfff83aff
    5f4c:	5010      	str	r0, [r2, r0]
    5f4e:	e587      	b.n	0x5a60
    5f50:	0006      	movs	r6, r0
    5f52:	e1a0      	b.n	0x6296
    5f54:	d014      	beq.n	0x5f80
    5f56:	e28d      	b.n	0x6474
    5f58:	4ff0      	ldr	r7, [pc, #960]	; (0x631c)
    5f5a:	e8bd ff1e 	ldmia.w	sp!, {r1, r2, r3, r4, r8, r9, sl, fp, ip, sp, lr, pc}
    5f5e:	e12f      	b.n	0x61c0
    5f60:	ffff 0000 	vaddl.u<illegal width 64>	q8, d15, d0
    5f64:	ffff ffff 			; <UNDEFINED> instruction: 0xffffffff
    5f68:	4ff0      	ldr	r7, [pc, #960]	; (0x632c)
    5f6a:	e92d 6002 	stmdb	sp!, {r1, sp, lr}
    5f6e:	e1a0      	b.n	0x62b2
    5f70:	7003      	strb	r3, [r0, #0]
    5f72:	e1a0      	b.n	0x62b6
    5f74:	1040      	asrs	r0, r0, #1
    5f76:	e590      	b.n	0x5a9a
    5f78:	d06c      	beq.n	0x6054
    5f7a:	e24d      	b.n	0x6418
    5f7c:	0000      	movs	r0, r0
    5f7e:	e351      	b.n	0x6624
    5f80:	b000      	add	sp, #0
    5f82:	e1a0      	b.n	0x62c6
    5f84:	6008      	str	r0, [r1, #0]
    5f86:	e58d      	b.n	0x5aa4
    5f88:	700c      	strb	r4, [r1, #0]
    5f8a:	e58d      	b.n	0x5aa8
    5f8c:	409c      	lsls	r4, r3
    5f8e:	e59d      	b.n	0x5acc
    5f90:	0006      	movs	r6, r0
    5f92:	0a00      	lsrs	r0, r0, #8
    5f94:	3001      	adds	r0, #1
    5f96:	e3a0      	b.n	0x66da
    5f98:	2044      	movs	r0, #68	; 0x44
    5f9a:	e590      	b.n	0x5abe
    5f9c:	3213      	adds	r2, #19
    5f9e:	e1a0      	b.n	0x62e2
    5fa0:	000c      	movs	r4, r1
    5fa2:	e981 0a03 			; <UNDEFINED> instruction: 0xe9810a03
    5fa6:	eb00 3000 	add.w	r0, r0, r0, lsl #12
    5faa:	e3a0      	b.n	0x66ee
    5fac:	3040      	adds	r0, #64	; 0x40
    5fae:	e58b      	b.n	0x5ac8
    5fb0:	6000      	str	r0, [r0, #0]
    5fb2:	e257      	b.n	0x6464
    5fb4:	3001      	adds	r0, #1
    5fb6:	b3a0      	cbz	r0, 0x6022
    5fb8:	3000      	adds	r0, #0
    5fba:	a3a0      	add	r3, pc, #640	; (adr r3, 0x623c)
    5fbc:	3000      	adds	r0, #0
    5fbe:	e584      	b.n	0x5aca
    5fc0:	3348      	adds	r3, #72	; 0x48
    5fc2:	e59f      	b.n	0x5b04
    5fc4:	6102      	str	r2, [r0, #16]
    5fc6:	b3c6      	cbz	r6, 0x603a
    5fc8:	600c      	str	r4, [r1, #0]
    5fca:	b58d      	push	{r0, r2, r3, r7, lr}
    5fcc:	3006      	adds	r0, #6
    5fce:	e1d3      	b.n	0x6378
    5fd0:	009a      	lsls	r2, r3, #2
    5fd2:	0a00      	lsrs	r0, r0, #8
    5fd4:	4008      	ands	r0, r1
    5fd6:	e28d      	b.n	0x64f4
    5fd8:	0018      	movs	r0, r3
    5fda:	e894 0003 	ldmia.w	r4, {r0, r1}
    5fde:	e1a0      	b.n	0x6322
    5fe0:	1004      	asrs	r4, r0, #32
    5fe2:	e1a0      	b.n	0x6326
    5fe4:	2000      	movs	r0, #0
    5fe6:	e3a0      	b.n	0x672a
    5fe8:	3000      	adds	r0, #0
    5fea:	e3a0      	b.n	0x672e
    5fec:	0028      	movs	r0, r5
    5fee:	e58d      	b.n	0x5b0c
    5ff0:	102c      	asrs	r4, r5, #32
    5ff2:	e58d      	b.n	0x5b10
    5ff4:	ee5f ebff 			; <UNDEFINED> instruction: 0xee5febff
    5ff8:	5000      	str	r0, [r0, r0]
    5ffa:	e250      	b.n	0x649e
    5ffc:	000d      	movs	r5, r1
    5ffe:	0a00      	lsrs	r0, r0, #8
    6000:	3001      	adds	r0, #1
    6002:	e3a0      	b.n	0x6746
    6004:	20a0      	movs	r0, #160	; 0xa0
    6006:	e59d      	b.n	0x5b44
    6008:	0000      	movs	r0, r0
    600a:	e352      	b.n	0x66b2
    600c:	2098      	movs	r0, #152	; 0x98
    600e:	e59d      	b.n	0x5b4c
    6010:	3000      	adds	r0, #0
    6012:	e582      	b.n	0x5b1a
    6014:	027d      	lsls	r5, r7, #9
    6016:	0a00      	lsrs	r0, r0, #8
    6018:	72c8      	strb	r0, [r1, #11]
    601a:	e59f      	b.n	0x5b5c
    601c:	30a0      	adds	r0, #160	; 0xa0
    601e:	e59d      	b.n	0x5b5c
    6020:	7000      	strb	r0, [r0, #0]
    6022:	e583      	b.n	0x5b2c
    6024:	7001      	strb	r1, [r0, #0]
    6026:	e247      	b.n	0x64b8
    6028:	0007      	movs	r7, r0
    602a:	e1a0      	b.n	0x636e
    602c:	d06c      	beq.n	0x6108
    602e:	e28d      	b.n	0x654c
    6030:	4ff0      	ldr	r7, [pc, #960]	; (0x63f4)
    6032:	e8bd ff1e 	ldmia.w	sp!, {r1, r2, r3, r4, r8, r9, sl, fp, ip, sp, lr, pc}
    6036:	e12f      	b.n	0x6298
    6038:	8028      	strh	r0, [r5, #0]
    603a:	e28d      	b.n	0x6558
    603c:	0180      	lsls	r0, r0, #6
    603e:	e898 2060 	ldmia.w	r8, {r5, r6, sp}
    6042:	e28d      	b.n	0x6560
    6044:	3064      	adds	r0, #100	; 0x64
    6046:	e28d      	b.n	0x6564
    6048:	2004      	movs	r0, #4
    604a:	e58d      	b.n	0x5b68
    604c:	3000      	adds	r0, #0
    604e:	e58d      	b.n	0x5b6c
    6050:	2007      	movs	r0, #7
    6052:	e1a0      	b.n	0x6396
    6054:	3008      	adds	r0, #8
    6056:	e1a0      	b.n	0x639a
    6058:	000b      	movs	r3, r1
    605a:	e1a0      	b.n	0x639e
    605c:	0bd0      	lsrs	r0, r2, #15
    605e:	eb00 4a26 	add.w	sl, r0, r6, asr #16
    6062:	e1b0      	b.n	0x63c6
    6064:	a000      	add	r0, pc, #0	; (adr r0, 0x6068)
    6066:	e1a0      	b.n	0x63aa
    6068:	0087      	lsls	r7, r0, #2
    606a:	1a00      	subs	r0, r0, r0
    606c:	5060      	str	r0, [r4, r1]
    606e:	e59d      	b.n	0x5bac
    6070:	4064      	eors	r4, r4
    6072:	e59d      	b.n	0x5bb0
    6074:	4004      	ands	r4, r0
    6076:	e085      	b.n	0x6184
    6078:	3e43      	subs	r6, #67	; 0x43
    607a:	e284      	b.n	0x6586
    607c:	3002      	adds	r0, #2
    607e:	e283      	b.n	0x6588
    6080:	0020      	movs	r0, r4
    6082:	e353      	b.n	0x672c
    6084:	0e41      	lsrs	r1, r0, #25
    6086:	c284      	stmia	r2!, {r2, r7}
    6088:	2008      	movs	r0, #8
    608a:	c59d      	stmia	r5!, {r0, r2, r3, r4, r7}
    608c:	0002      	movs	r2, r0
    608e:	c280      	stmia	r2!, {r7}
    6090:	2008      	movs	r0, #8
    6092:	d59d      	bpl.n	0x5fd0
    6094:	3040      	adds	r0, #64	; 0x40
    6096:	c263      	stmia	r2!, {r0, r1, r5, r6}
    6098:	0032      	movs	r2, r6
    609a:	c1a0      	stmia	r1!, {r5, r7}
    609c:	3020      	adds	r0, #32
    609e:	d263      	bcs.n	0x6168
    60a0:	0312      	lsls	r2, r2, #12
    60a2:	d1a0      	bne.n	0x5fe6
    60a4:	0316      	lsls	r6, r2, #12
    60a6:	c180      	stmia	r1!, {r7}
    60a8:	ec96 ebff 			; <UNDEFINED> instruction: 0xec96ebff
    60ac:	2000      	movs	r0, #0
    60ae:	e1a0      	b.n	0x63f2
    60b0:	0001      	movs	r1, r0
    60b2:	e3a0      	b.n	0x67f6
    60b4:	0048      	lsls	r0, r1, #1
    60b6:	e58d      	b.n	0x5bd4
    60b8:	4001      	ands	r1, r0
    60ba:	e244      	b.n	0x6546
    60bc:	361f      	adds	r6, #31
    60be:	e241      	b.n	0x6544
    60c0:	0002      	movs	r2, r0
    60c2:	e1a0      	b.n	0x6406
    60c4:	1003      	asrs	r3, r0, #32
    60c6:	e1a0      	b.n	0x640a
    60c8:	2000      	movs	r0, #0
    60ca:	e3a0      	b.n	0x680e
    60cc:	3218      	adds	r2, #24
    60ce:	e59f      	b.n	0x5c10
    60d0:	ebc7 ebff 			; <UNDEFINED> instruction: 0xebc7ebff
    60d4:	3f7d      	subs	r7, #125	; 0x7d
    60d6:	e28f      	b.n	0x65f8
    60d8:	000c      	movs	r4, r1
    60da:	e893 eccb 	ldmia.w	r3, {r0, r1, r3, r6, r7, sl, fp, sp, lr, pc}
    60de:	ebff 3e1f 			; <UNDEFINED> instruction: 0xebff3e1f
    60e2:	e28f      	b.n	0x6604
    60e4:	000c      	movs	r4, r1
    60e6:	e893 ebc2 	ldmia.w	r3, {r1, r6, r7, r8, r9, fp, sp, lr, pc}
    60ea:	ebff 6000 			; <UNDEFINED> instruction: 0xebff6000
    60ee:	e1a0      	b.n	0x6432
    60f0:	0004      	movs	r4, r0
    60f2:	e1a0      	b.n	0x6436
    60f4:	7001      	strb	r1, [r0, #0]
    60f6:	e1a0      	b.n	0x643a
    60f8:	ec8b ebff 			; <UNDEFINED> instruction: 0xec8bebff
    60fc:	3f77      	subs	r7, #119	; 0x77
    60fe:	e28f      	b.n	0x6620
    6100:	000c      	movs	r4, r1
    6102:	e893 ecc1 	ldmia.w	r3, {r0, r6, r7, sl, fp, sp, lr, pc}
    6106:	ebff 2000 			; <UNDEFINED> instruction: 0xebff2000
    610a:	e1a0      	b.n	0x644e
    610c:	3001      	adds	r0, #1
    610e:	e1a0      	b.n	0x6452
    6110:	0006      	movs	r6, r0
    6112:	e1a0      	b.n	0x6456
    6114:	1007      	asrs	r7, r0, #32
    6116:	e1a0      	b.n	0x645a
    6118:	ebb6 ebff 			; <UNDEFINED> instruction: 0xebb6ebff
    611c:	6000      	str	r0, [r0, #0]
    611e:	e1a0      	b.n	0x6462
    6120:	7001      	strb	r1, [r0, #0]
    6122:	e1a0      	b.n	0x6466
    6124:	ee3f ebff 			; <UNDEFINED> instruction: 0xee3febff
    6128:	2000      	movs	r0, #0
    612a:	e3a0      	b.n	0x686e
    612c:	0010      	movs	r0, r2
    612e:	e58d      	b.n	0x5c4c
    6130:	8000      	strh	r0, [r0, #0]
    6132:	e1a0      	b.n	0x6476
    6134:	3000      	adds	r0, #0
    6136:	e3a0      	b.n	0x687a
    6138:	0006      	movs	r6, r0
    613a:	e1a0      	b.n	0x647e
    613c:	1007      	asrs	r7, r0, #32
    613e:	e1a0      	b.n	0x6482
    6140:	ee12 ebff 			; <UNDEFINED> instruction: 0xee12ebff
    6144:	0000      	movs	r0, r0
    6146:	e350      	b.n	0x67ea
    6148:	0008      	movs	r0, r1
    614a:	0a00      	lsrs	r0, r0, #8
    614c:	0008      	movs	r0, r1
    614e:	e1a0      	b.n	0x6492
    6150:	ec75 ebff 			; <UNDEFINED> instruction: 0xec75ebff
    6154:	3007      	adds	r0, #7
    6156:	e1a0      	b.n	0x649a
    6158:	2006      	movs	r0, #6
    615a:	e1a0      	b.n	0x649e
    615c:	ee05 ebff 			; <UNDEFINED> instruction: 0xee05ebff
    6160:	0000      	movs	r0, r0
    6162:	e350      	b.n	0x6806
    6164:	3008      	adds	r0, #8
    6166:	01a0      	lsls	r0, r4, #6
    6168:	3001      	adds	r0, #1
    616a:	0243      	lsls	r3, r0, #9
    616c:	3010      	adds	r0, #16
    616e:	058d      	lsls	r5, r1, #22
    6170:	4004      	ands	r4, r0
    6172:	e045      	b.n	0x6200
    6174:	5010      	str	r0, [r2, r0]
    6176:	e59d      	b.n	0x5cb4
    6178:	3001      	adds	r0, #1
    617a:	e244      	b.n	0x6606
    617c:	0016      	movs	r6, r2
    617e:	e355      	b.n	0x682c
    6180:	301c      	adds	r0, #28
    6182:	e58d      	b.n	0x5ca0
    6184:	0219      	lsls	r1, r3, #8
    6186:	8a00      	ldrh	r0, [r0, #16]
    6188:	3188      	adds	r1, #136	; 0x88
    618a:	e59f      	b.n	0x5ccc
    618c:	3185      	adds	r1, #133	; 0x85
    618e:	e083      	b.n	0x6298
    6190:	000c      	movs	r4, r1
    6192:	e893 1028 	ldmia.w	r3, {r3, r5, ip}
    6196:	e28d      	b.n	0x66b4
    6198:	0003      	movs	r3, r0
    619a:	e891 edfb 	ldmia.w	r1, {r0, r1, r3, r4, r5, r6, r7, r8, sl, fp, sp, lr, pc}
    619e:	ebff 0000 			; <UNDEFINED> instruction: 0xebff0000
    61a2:	e350      	b.n	0x6846
    61a4:	005d      	lsls	r5, r3, #1
    61a6:	0a00      	lsrs	r0, r0, #8
    61a8:	3001      	adds	r0, #1
    61aa:	e245      	b.n	0x6638
    61ac:	3010      	adds	r0, #16
    61ae:	e58d      	b.n	0x5ccc
    61b0:	3000      	adds	r0, #0
    61b2:	e3a0      	b.n	0x68f6
    61b4:	303c      	adds	r0, #60	; 0x3c
    61b6:	e58d      	b.n	0x5cd4
    61b8:	3001      	adds	r0, #1
    61ba:	e244      	b.n	0x6646
    61bc:	0000      	movs	r0, r0
    61be:	e353      	b.n	0x6868
    61c0:	3000      	adds	r0, #0
    61c2:	a3a0      	add	r3, pc, #640	; (adr r3, 0x6444)
    61c4:	3030      	adds	r0, #48	; 0x30
    61c6:	a58d      	add	r5, pc, #564	; (adr r5, 0x63fc)
    61c8:	020b      	lsls	r3, r1, #8
    61ca:	ba00      	rev	r0, r0
    61cc:	3010      	adds	r0, #16
    61ce:	e59d      	b.n	0x5d0c
    61d0:	0000      	movs	r0, r0
    61d2:	e353      	b.n	0x687c
    61d4:	0057      	lsls	r7, r2, #1
    61d6:	aa00      	add	r2, sp, #0
    61d8:	3010      	adds	r0, #16
    61da:	e59d      	b.n	0x5d18
    61dc:	2030      	movs	r0, #48	; 0x30
    61de:	e59d      	b.n	0x5d1c
    61e0:	2003      	movs	r0, #3
    61e2:	e042      	b.n	0x626a
    61e4:	2030      	movs	r0, #48	; 0x30
    61e6:	e58d      	b.n	0x5d04
    61e8:	3018      	adds	r0, #24
    61ea:	e58d      	b.n	0x5d08
    61ec:	2000      	movs	r0, #0
    61ee:	e263      	b.n	0x66b8
    61f0:	3000      	adds	r0, #0
    61f2:	e3a0      	b.n	0x6936
    61f4:	3010      	adds	r0, #16
    61f6:	e58d      	b.n	0x5d14
    61f8:	3090      	adds	r0, #144	; 0x90
    61fa:	e59d      	b.n	0x5d38
    61fc:	0009      	movs	r1, r1
    61fe:	e353      	b.n	0x68a8
    6200:	2038      	movs	r0, #56	; 0x38
    6202:	e58d      	b.n	0x5d20
    6204:	0055      	lsls	r5, r2, #1
    6206:	8a00      	ldrh	r0, [r0, #16]
    6208:	0005      	movs	r5, r0
    620a:	e353      	b.n	0x68b4
    620c:	4001      	ands	r1, r0
    620e:	d3a0      	bcc.n	0x6152
    6210:	4000      	ands	r0, r0
    6212:	c3a0      	stmia	r3!, {r5, r7}
    6214:	3004      	adds	r0, #4
    6216:	c243      	stmia	r2!, {r0, r1, r6}
    6218:	3090      	adds	r0, #144	; 0x90
    621a:	c58d      	stmia	r5!, {r0, r2, r3, r7}
    621c:	3090      	adds	r0, #144	; 0x90
    621e:	e59d      	b.n	0x5d5c
    6220:	3002      	adds	r0, #2
    6222:	e243      	b.n	0x66ac
    6224:	0003      	movs	r3, r0
    6226:	e353      	b.n	0x68d0
    6228:	f103 979f 	b.w	0xd0a16a
    622c:	03e0      	lsls	r0, r4, #15
    622e:	ea00 6f08 	and.w	pc, r0, r8, lsl #24
    6232:	0800      	lsrs	r0, r0, #32
    6234:	6efc      	ldr	r4, [r7, #108]	; 0x6c
    6236:	0800      	lsrs	r0, r0, #32
    6238:	6e6c      	ldr	r4, [r5, #100]	; 0x64
    623a:	0800      	lsrs	r0, r0, #32
    623c:	6ecc      	ldr	r4, [r1, #108]	; 0x6c
    623e:	0800      	lsrs	r0, r0, #32
    6240:	2008      	movs	r0, #8
    6242:	e59d      	b.n	0x5d80
    6244:	64ff      	str	r7, [r7, #76]	; 0x4c
    6246:	e3c6      	b.n	0x69d6
    6248:	660f      	str	r7, [r1, #96]	; 0x60
    624a:	e3c6      	b.n	0x69da
    624c:	309c      	adds	r0, #156	; 0x9c
    624e:	e59f      	b.n	0x5d90
    6250:	2002      	movs	r0, #2
    6252:	e196      	b.n	0x6582
    6254:	2098      	movs	r0, #152	; 0x98
    6256:	e59d      	b.n	0x5d94
    6258:	3000      	adds	r0, #0
    625a:	e582      	b.n	0x5d62
    625c:	0014      	movs	r4, r2
    625e:	0a00      	lsrs	r0, r0, #8
    6260:	30a0      	adds	r0, #160	; 0xa0
    6262:	e59d      	b.n	0x5da0
    6264:	0000      	movs	r0, r0
    6266:	e353      	b.n	0x6910
    6268:	7084      	strb	r4, [r0, #2]
    626a:	e59f      	b.n	0x5dac
    626c:	ff6d 0aff 	vpmin.u32	q8, <illegal reg q14.5>, <illegal reg q15.5>
    6270:	3003      	adds	r0, #3
    6272:	e287      	b.n	0x6784
    6274:	0007      	movs	r7, r0
    6276:	e1a0      	b.n	0x65ba
    6278:	20a0      	movs	r0, #160	; 0xa0
    627a:	e59d      	b.n	0x5db8
    627c:	3000      	adds	r0, #0
    627e:	e582      	b.n	0x5d86
    6280:	d06c      	beq.n	0x635c
    6282:	e28d      	b.n	0x67a0
    6284:	4ff0      	ldr	r7, [pc, #960]	; (0x6648)
    6286:	e8bd ff1e 	ldmia.w	sp!, {r1, r2, r3, r4, r8, r9, sl, fp, ip, sp, lr, pc}
    628a:	e12f      	b.n	0x64ec
    628c:	14ff      	asrs	r7, r7, #19
    628e:	e3c8      	b.n	0x6a22
    6290:	160f      	asrs	r7, r1, #24
    6292:	e3c1      	b.n	0x6a18
    6294:	4fff      	ldr	r7, [pc, #1020]	; (0x6694)
    6296:	e244      	b.n	0x6722
    6298:	35ff      	adds	r5, #255	; 0xff
    629a:	e381      	b.n	0x69a0
    629c:	5048      	str	r0, [r1, r1]
    629e:	e58d      	b.n	0x5dbc
    62a0:	2007      	movs	r0, #7
    62a2:	e1a0      	b.n	0x65e6
    62a4:	4003      	ands	r3, r0
    62a6:	e244      	b.n	0x6732
    62a8:	3603      	adds	r6, #3
    62aa:	e383      	b.n	0x69b4
    62ac:	5060      	str	r0, [r4, r1]
    62ae:	e59d      	b.n	0x5dec
    62b0:	ff82 eaff 			; <UNDEFINED> instruction: 0xff82eaff
    62b4:	30a0      	adds	r0, #160	; 0xa0
    62b6:	e59d      	b.n	0x5df4
    62b8:	7038      	strb	r0, [r7, #0]
    62ba:	e59f      	b.n	0x5dfc
    62bc:	0000      	movs	r0, r0
    62be:	e353      	b.n	0x6968
    62c0:	3008      	adds	r0, #8
    62c2:	1287      	asrs	r7, r0, #10
    62c4:	ffea 1aff 			; <UNDEFINED> instruction: 0xffea1aff
    62c8:	ff56 eaff 	vpmin.u16	q15, q11, <illegal reg q15.5>
    62cc:	0000      	movs	r0, r0
    62ce:	e1a0      	b.n	0x6612
    62d0:	4361      	muls	r1, r4
    62d2:	636f      	str	r7, [r5, #52]	; 0x34
    62d4:	87a7      	strh	r7, [r4, #60]	; 0x3c
    62d6:	3fd2      	subs	r7, #210	; 0xd2
    62d8:	c8b3      	ldmia	r0, {r0, r1, r4, r5, r7}
    62da:	8b60      	ldrh	r0, [r4, #26]
    62dc:	8a28      	ldrh	r0, [r5, #16]
    62de:	3fc6      	subs	r7, #198	; 0xc6
    62e0:	79fb      	ldrb	r3, [r7, #7]
    62e2:	509f      	str	r7, [r3, r2]
    62e4:	4413      	add	r3, r2
    62e6:	3fd3      	subs	r7, #211	; 0xd3
    62e8:	a09d      	add	r0, pc, #628	; (adr r0, 0x6560)
    62ea:	0800      	lsrs	r0, r0, #32
    62ec:	0000      	movs	r0, r0
    62ee:	3ff8      	subs	r7, #248	; 0xf8
    62f0:	270f      	movs	r7, #15
    62f2:	0000      	movs	r0, r0
    62f4:	a08c      	add	r0, pc, #560	; (adr r0, 0x6528)
    62f6:	0800      	lsrs	r0, r0, #32
    62f8:	a090      	add	r0, pc, #576	; (adr r0, 0x653c)
    62fa:	0800      	lsrs	r0, r0, #32
    62fc:	0000      	movs	r0, r0
    62fe:	3ff0      	subs	r7, #240	; 0xf0
    6300:	a09c      	add	r0, pc, #624	; (adr r0, 0x6574)
    6302:	0800      	lsrs	r0, r0, #32
    6304:	0000      	movs	r0, r0
    6306:	4014      	ands	r4, r2
    6308:	a0e8      	add	r0, pc, #928	; (adr r0, 0x66ac)
    630a:	0800      	lsrs	r0, r0, #32
    630c:	0000      	movs	r0, r0
    630e:	3fe0      	subs	r7, #224	; 0xe0
    6310:	0000      	movs	r0, r0
    6312:	7ff0      	ldrb	r0, [r6, #31]
    6314:	0000      	movs	r0, r0
    6316:	401c      	ands	r4, r3
    6318:	a110      	add	r1, pc, #64	; (adr r1, 0x635c)
    631a:	0800      	lsrs	r0, r0, #32
    631c:	0000      	movs	r0, r0
    631e:	4024      	ands	r4, r4
    6320:	3001      	adds	r0, #1
    6322:	e244      	b.n	0x67ae
    6324:	0000      	movs	r0, r0
    6326:	e353      	b.n	0x69d0
    6328:	003c      	movs	r4, r7
    632a:	b58d      	push	{r0, r2, r3, r7, lr}
    632c:	01b2      	lsls	r2, r6, #6
    632e:	ba00      	rev	r0, r0
    6330:	003c      	movs	r4, r7
    6332:	e58d      	b.n	0x5e50
    6334:	0030      	movs	r0, r6
    6336:	e58d      	b.n	0x5e54
    6338:	3010      	adds	r0, #16
    633a:	e59d      	b.n	0x5e78
    633c:	201c      	movs	r0, #28
    633e:	e59d      	b.n	0x5e7c
    6340:	3018      	adds	r0, #24
    6342:	e58d      	b.n	0x5e60
    6344:	2003      	movs	r0, #3
    6346:	e082      	b.n	0x644e
    6348:	3000      	adds	r0, #0
    634a:	e3a0      	b.n	0x6a8e
    634c:	3038      	adds	r0, #56	; 0x38
    634e:	e58d      	b.n	0x5e6c
    6350:	3090      	adds	r0, #144	; 0x90
    6352:	e59d      	b.n	0x5e90
    6354:	0009      	movs	r1, r1
    6356:	e353      	b.n	0x6a00
    6358:	201c      	movs	r0, #28
    635a:	e58d      	b.n	0x5e78
    635c:	ffa9 9aff 			; <UNDEFINED> instruction: 0xffa99aff
    6360:	3000      	adds	r0, #0
    6362:	e3a0      	b.n	0x6aa6
    6364:	3090      	adds	r0, #144	; 0x90
    6366:	e58d      	b.n	0x5e84
    6368:	3001      	adds	r0, #1
    636a:	e3a0      	b.n	0x6aae
    636c:	3034      	adds	r0, #52	; 0x34
    636e:	e58d      	b.n	0x5e8c
    6370:	3000      	adds	r0, #0
    6372:	e3a0      	b.n	0x6ab6
    6374:	3094      	adds	r0, #148	; 0x94
    6376:	e58d      	b.n	0x5e94
    6378:	4003      	ands	r3, r0
    637a:	e1a0      	b.n	0x66be
    637c:	3000      	adds	r0, #0
    637e:	e3e0      	b.n	0x6b42
    6380:	3024      	adds	r0, #36	; 0x24
    6382:	e58d      	b.n	0x5ea0
    6384:	1000      	asrs	r0, r0, #32
    6386:	e3a0      	b.n	0x6aca
    6388:	3024      	adds	r0, #36	; 0x24
    638a:	e59d      	b.n	0x5ec8
    638c:	1044      	asrs	r4, r0, #1
    638e:	e58b      	b.n	0x5ea8
    6390:	304c      	adds	r0, #76	; 0x4c
    6392:	e58d      	b.n	0x5eb0
    6394:	000b      	movs	r3, r1
    6396:	e1a0      	b.n	0x66da
    6398:	08e3      	lsrs	r3, r4, #3
    639a:	eb00 0000 	add.w	r0, r0, r0
    639e:	e354      	b.n	0x6a4a
    63a0:	0020      	movs	r0, r4
    63a2:	e58d      	b.n	0x5ec0
    63a4:	0040      	lsls	r0, r0, #1
    63a6:	e58b      	b.n	0x5ec0
    63a8:	00c0      	lsls	r0, r0, #3
    63aa:	0a00      	lsrs	r0, r0, #8
    63ac:	1018      	asrs	r0, r3, #32
    63ae:	e59d      	b.n	0x5eec
    63b0:	0000      	movs	r0, r0
    63b2:	e351      	b.n	0x6a58
    63b4:	022c      	lsls	r4, r5, #8
    63b6:	da00      	bge.n	0x63ba
    63b8:	20a8      	movs	r0, #168	; 0xa8
    63ba:	e51f      	b.n	0x5dfc
    63bc:	300f      	adds	r0, #15
    63be:	e201      	b.n	0x67c4
    63c0:	6241      	str	r1, [r0, #36]	; 0x24
    63c2:	e1a0      	b.n	0x6706
    63c4:	3183      	adds	r1, #131	; 0x83
    63c6:	e082      	b.n	0x64ce
    63c8:	0010      	movs	r0, r2
    63ca:	e316      	b.n	0x69fa
    63cc:	0030      	movs	r0, r6
    63ce:	e893 8002 	ldmia.w	r3, {r1, pc}
    63d2:	03a0      	lsls	r0, r4, #14
    63d4:	0009      	movs	r1, r1
    63d6:	0a00      	lsrs	r0, r0, #8
    63d8:	30d8      	adds	r0, #216	; 0xd8
    63da:	e51f      	b.n	0x5e1c
    63dc:	1028      	asrs	r0, r5, #32
    63de:	e28d      	b.n	0x68fc
    63e0:	0003      	movs	r3, r0
    63e2:	e891 3020 	ldmia.w	r1, {r5, ip, sp}
    63e6:	e283      	b.n	0x68f0
    63e8:	000c      	movs	r4, r1
    63ea:	e893 ecab 	ldmia.w	r3, {r0, r1, r3, r5, r7, sl, fp, sp, lr, pc}
    63ee:	ebff 8003 			; <UNDEFINED> instruction: 0xebff8003
    63f2:	e3a0      	b.n	0x6b36
    63f4:	0008      	movs	r0, r1
    63f6:	e58d      	b.n	0x5f14
    63f8:	100c      	asrs	r4, r1, #32
    63fa:	e58d      	b.n	0x5f18
    63fc:	600f      	str	r7, [r1, #0]
    63fe:	e206      	b.n	0x680e
    6400:	0000      	movs	r0, r0
    6402:	e356      	b.n	0x6ab2
    6404:	7104      	strb	r4, [r0, #4]
    6406:	151f      	asrs	r7, r3, #20
    6408:	000b      	movs	r3, r1
    640a:	0a00      	lsrs	r0, r0, #8
    640c:	0001      	movs	r1, r0
    640e:	e316      	b.n	0x6a3e
    6410:	0006      	movs	r6, r0
    6412:	0a00      	lsrs	r0, r0, #8
    6414:	0004      	movs	r4, r0
    6416:	e1a0      	b.n	0x675a
    6418:	1005      	asrs	r5, r0, #32
    641a:	e1a0      	b.n	0x675e
    641c:	000c      	movs	r4, r1
    641e:	e897 ebfa 	ldmia.w	r7, {r1, r3, r4, r5, r6, r7, r8, r9, fp, sp, lr, pc}
    6422:	ebff 4000 			; <UNDEFINED> instruction: 0xebff4000
    6426:	e1a0      	b.n	0x676a
    6428:	5001      	str	r1, [r0, r0]
    642a:	e1a0      	b.n	0x676e
    642c:	8001      	strh	r1, [r0, #0]
    642e:	e288      	b.n	0x6942
    6430:	60c6      	str	r6, [r0, #12]
    6432:	e1b0      	b.n	0x6796
    6434:	7008      	strb	r0, [r1, #0]
    6436:	e287      	b.n	0x6948
    6438:	fff3 1aff 			; <UNDEFINED> instruction: 0xfff31aff
    643c:	1008      	asrs	r0, r1, #32
    643e:	e28d      	b.n	0x695c
    6440:	0003      	movs	r3, r0
    6442:	e891 2004 	ldmia.w	r1, {r2, sp}
    6446:	e1a0      	b.n	0x678a
    6448:	3005      	adds	r0, #5
    644a:	e1a0      	b.n	0x678e
    644c:	ec93 ebff 			; <UNDEFINED> instruction: 0xec93ebff
    6450:	0008      	movs	r0, r1
    6452:	e58d      	b.n	0x5f70
    6454:	100c      	asrs	r4, r1, #32
    6456:	e58d      	b.n	0x5f74
    6458:	303c      	adds	r0, #60	; 0x3c
    645a:	e59d      	b.n	0x5f98
    645c:	0000      	movs	r0, r0
    645e:	e353      	b.n	0x6b08
    6460:	0008      	movs	r0, r1
    6462:	0a00      	lsrs	r0, r0, #8
    6464:	5008      	str	r0, [r1, r0]
    6466:	e28d      	b.n	0x6984
    6468:	0030      	movs	r0, r6
    646a:	e895 2000 	ldmia.w	r5, {sp}
    646e:	e3a0      	b.n	0x6bb2
    6470:	317c      	adds	r1, #124	; 0x7c
    6472:	e51f      	b.n	0x5eb4
    6474:	0004      	movs	r4, r0
    6476:	e1a0      	b.n	0x67ba
    6478:	1005      	asrs	r5, r0, #32
    647a:	e1a0      	b.n	0x67be
    647c:	ed43 ebff 			; <UNDEFINED> instruction: 0xed43ebff
    6480:	0000      	movs	r0, r0
    6482:	e350      	b.n	0x6b26
    6484:	031e      	lsls	r6, r3, #12
    6486:	1a00      	subs	r0, r0, r0
    6488:	0008      	movs	r0, r1
    648a:	e1a0      	b.n	0x67ce
    648c:	eba6 ebff 			; <UNDEFINED> instruction: 0xeba6ebff
    6490:	3008      	adds	r0, #8
    6492:	e28d      	b.n	0x69b0
    6494:	000c      	movs	r4, r1
    6496:	e893 ebdc 	ldmia.w	r3, {r2, r3, r4, r6, r7, r8, r9, fp, sp, lr, pc}
    649a:	ebff 2000 			; <UNDEFINED> instruction: 0xebff2000
    649e:	e3a0      	b.n	0x6be2
    64a0:	3194      	adds	r1, #148	; 0x94
    64a2:	e51f      	b.n	0x5ee4
    64a4:	ead3 ebff 			; <UNDEFINED> instruction: 0xead3ebff
    64a8:	2024      	movs	r0, #36	; 0x24
    64aa:	e59d      	b.n	0x5fe8
    64ac:	0000      	movs	r0, r0
    64ae:	e352      	b.n	0x6b56
    64b0:	4000      	ands	r0, r0
    64b2:	e1a0      	b.n	0x67f6
    64b4:	550d      	strb	r5, [r1, r4]
    64b6:	e241      	b.n	0x693c
    64b8:	0170      	lsls	r0, r6, #5
    64ba:	0a00      	lsrs	r0, r0, #8
    64bc:	3018      	adds	r0, #24
    64be:	e59d      	b.n	0x5ffc
    64c0:	7024      	strb	r4, [r4, #0]
    64c2:	e59d      	b.n	0x6000
    64c4:	3058      	adds	r0, #88	; 0x58
    64c6:	e58d      	b.n	0x5fe4
    64c8:	1008      	asrs	r0, r1, #32
    64ca:	e28d      	b.n	0x69e8
    64cc:	0003      	movs	r3, r0
    64ce:	e891 ed54 	ldmia.w	r1, {r2, r4, r6, r8, sl, fp, sp, lr, pc}
    64d2:	ebff 31c4 			; <UNDEFINED> instruction: 0xebff31c4
    64d6:	e51f      	b.n	0x5f18
    64d8:	3187      	adds	r1, #135	; 0x87
    64da:	e083      	b.n	0x65e4
    64dc:	000c      	movs	r4, r1
    64de:	e913 9030 	ldmdb	r3, {r4, r5, ip, pc}
    64e2:	e280      	b.n	0x69e6
    64e4:	2050      	movs	r0, #80	; 0x50
    64e6:	e58d      	b.n	0x6004
    64e8:	3054      	adds	r0, #84	; 0x54
    64ea:	e58d      	b.n	0x6008
    64ec:	eb8e ebff 			; <UNDEFINED> instruction: 0xeb8eebff
    64f0:	2000      	movs	r0, #0
    64f2:	e1a0      	b.n	0x6836
    64f4:	3001      	adds	r0, #1
    64f6:	e1a0      	b.n	0x683a
    64f8:	1008      	asrs	r0, r1, #32
    64fa:	e28d      	b.n	0x6a18
    64fc:	0003      	movs	r3, r0
    64fe:	e891 eabb 	ldmia.w	r1, {r0, r1, r3, r4, r5, r7, r9, fp, sp, lr, pc}
    6502:	ebff 3034 			; <UNDEFINED> instruction: 0xebff3034
    6506:	e59d      	b.n	0x6044
    6508:	6020      	str	r0, [r4, #0]
    650a:	e59d      	b.n	0x6048
    650c:	0000      	movs	r0, r0
    650e:	e353      	b.n	0x6bb8
    6510:	90ff      	str	r0, [sp, #1020]	; 0x3fc
    6512:	e209      	b.n	0x6928
    6514:	0040      	lsls	r0, r0, #1
    6516:	e58d      	b.n	0x6034
    6518:	1044      	asrs	r4, r0, #1
    651a:	e58d      	b.n	0x6038
    651c:	8001      	strh	r1, [r0, #0]
    651e:	e286      	b.n	0x6a2e
    6520:	3050      	adds	r0, #80	; 0x50
    6522:	e28d      	b.n	0x6a40
    6524:	000c      	movs	r4, r1
    6526:	e893 0279 	ldmia.w	r3, {r0, r3, r4, r5, r6, r9}
    652a:	0a00      	lsrs	r0, r0, #8
    652c:	0000      	movs	r0, r0
    652e:	e3a0      	b.n	0x6c72
    6530:	122c      	asrs	r4, r5, #8
    6532:	e51f      	b.n	0x5f74
    6534:	ec59 ebff 			; <UNDEFINED> instruction: 0xec59ebff
    6538:	2004      	movs	r0, #4
    653a:	e1a0      	b.n	0x687e
    653c:	3005      	adds	r0, #5
    653e:	e1a0      	b.n	0x6882
    6540:	eaab ebff 			; <UNDEFINED> instruction: 0xeaabebff
    6544:	9000      	str	r0, [sp, #0]
    6546:	e5c6      	b.n	0x60d6
    6548:	3040      	adds	r0, #64	; 0x40
    654a:	e28d      	b.n	0x6a68
    654c:	000c      	movs	r4, r1
    654e:	e893 4000 	ldmia.w	r3, {lr}
    6552:	e1a0      	b.n	0x6896
    6554:	5001      	str	r1, [r0, r0]
    6556:	e1a0      	b.n	0x689a
    6558:	ed1e ebff 			; <UNDEFINED> instruction: 0xed1eebff
    655c:	0000      	movs	r0, r0
    655e:	e350      	b.n	0x6c02
    6560:	0046      	lsls	r6, r0, #1
    6562:	1a00      	subs	r0, r0, r0
    6564:	3040      	adds	r0, #64	; 0x40
    6566:	e28d      	b.n	0x6a84
    6568:	000c      	movs	r4, r1
    656a:	e893 0000 	ldmia.w	r3, {}
    656e:	e3a0      	b.n	0x6cb2
    6570:	127c      	asrs	r4, r7, #9
    6572:	e51f      	b.n	0x5fb4
    6574:	ea9e ebff 			; <UNDEFINED> instruction: 0xea9eebff
    6578:	2000      	movs	r0, #0
    657a:	e1a0      	b.n	0x68be
    657c:	3001      	adds	r0, #1
    657e:	e1a0      	b.n	0x68c2
    6580:	0004      	movs	r4, r0
    6582:	e1a0      	b.n	0x68c6
    6584:	1005      	asrs	r5, r0, #32
    6586:	e1a0      	b.n	0x68ca
    6588:	ed12 ebff 			; <UNDEFINED> instruction: 0xed12ebff
    658c:	0000      	movs	r0, r0
    658e:	e350      	b.n	0x6c32
    6590:	040d      	lsls	r5, r1, #16
    6592:	1a00      	subs	r0, r0, r0
    6594:	0001      	movs	r1, r0
    6596:	e357      	b.n	0x6c48
    6598:	0040      	lsls	r0, r0, #1
    659a:	0a00      	lsrs	r0, r0, #8
    659c:	3020      	adds	r0, #32
    659e:	e59d      	b.n	0x60dc
    65a0:	3007      	adds	r0, #7
    65a2:	e083      	b.n	0x66ac
    65a4:	a050      	add	r0, pc, #320	; (adr r0, 0x66e8)
    65a6:	e58d      	b.n	0x60c4
    65a8:	b05c      	add	sp, #368	; 0x170
    65aa:	e58d      	b.n	0x60c8
    65ac:	3008      	adds	r0, #8
    65ae:	e58d      	b.n	0x60cc
    65b0:	6000      	str	r0, [r0, #0]
    65b2:	e3a0      	b.n	0x6cf6
    65b4:	72a0      	strb	r0, [r4, #10]
    65b6:	e51f      	b.n	0x5ff8
    65b8:	b040      	add	sp, #256	; 0x100
    65ba:	e28d      	b.n	0x6ad8
    65bc:	0c00      	lsrs	r0, r0, #16
    65be:	e89b 000c 	ldmia.w	fp, {r2, r3}
    65c2:	ea00 200a 	and.w	r0, r0, sl, lsl #8
    65c6:	e1a0      	b.n	0x690a
    65c8:	300b      	adds	r0, #11
    65ca:	e1a0      	b.n	0x690e
    65cc:	0000      	movs	r0, r0
    65ce:	e3a0      	b.n	0x6d12
    65d0:	12dc      	asrs	r4, r3, #11
    65d2:	e51f      	b.n	0x6014
    65d4:	ea86 ebff 			; <UNDEFINED> instruction: 0xea86ebff
    65d8:	2004      	movs	r0, #4
    65da:	e1a0      	b.n	0x691e
    65dc:	3005      	adds	r0, #5
    65de:	e1a0      	b.n	0x6922
    65e0:	ecea ebff 			; <UNDEFINED> instruction: 0xeceaebff
    65e4:	0000      	movs	r0, r0
    65e6:	e350      	b.n	0x6c8a
    65e8:	03bc      	lsls	r4, r7, #14
    65ea:	1a00      	subs	r0, r0, r0
    65ec:	3008      	adds	r0, #8
    65ee:	e59d      	b.n	0x612c
    65f0:	0003      	movs	r3, r0
    65f2:	e158      	b.n	0x68a6
    65f4:	0027      	movs	r7, r4
    65f6:	0a00      	lsrs	r0, r0, #8
    65f8:	0004      	movs	r4, r0
    65fa:	e1a0      	b.n	0x693e
    65fc:	1005      	asrs	r5, r0, #32
    65fe:	e1a0      	b.n	0x6942
    6600:	2006      	movs	r0, #6
    6602:	e1a0      	b.n	0x6946
    6604:	3007      	adds	r0, #7
    6606:	e1a0      	b.n	0x694a
    6608:	eb80 ebff 			; <UNDEFINED> instruction: 0xeb80ebff
    660c:	2006      	movs	r0, #6
    660e:	e1a0      	b.n	0x6952
    6610:	3007      	adds	r0, #7
    6612:	e1a0      	b.n	0x6956
    6614:	4000      	ands	r0, r0
    6616:	e1a0      	b.n	0x695a
    6618:	5001      	str	r1, [r0, r0]
    661a:	e1a0      	b.n	0x695e
    661c:	000a      	movs	r2, r1
    661e:	e1a0      	b.n	0x6962
    6620:	100b      	asrs	r3, r1, #32
    6622:	e1a0      	b.n	0x6966
    6624:	eb79 ebff 			; <UNDEFINED> instruction: 0xeb79ebff
    6628:	b001      	add	sp, #4
    662a:	e1a0      	b.n	0x696e
    662c:	a000      	add	r0, pc, #0	; (adr r0, 0x6630)
    662e:	e1a0      	b.n	0x6972
    6630:	ecfc ebff 			; <UNDEFINED> instruction: 0xecfcebff
    6634:	9000      	str	r0, [sp, #0]
    6636:	e1a0      	b.n	0x697a
    6638:	eb3b ebff 			; <UNDEFINED> instruction: 0xeb3bebff
    663c:	2000      	movs	r0, #0
    663e:	e1a0      	b.n	0x6982
    6640:	3001      	adds	r0, #1
    6642:	e1a0      	b.n	0x6986
    6644:	000a      	movs	r2, r1
    6646:	e1a0      	b.n	0x698a
    6648:	100b      	asrs	r3, r1, #32
    664a:	e1a0      	b.n	0x698e
    664c:	ea68 ebff 			; <UNDEFINED> instruction: 0xea68ebff
    6650:	9030      	str	r0, [sp, #192]	; 0xc0
    6652:	e289      	b.n	0x6b68
    6654:	90ff      	str	r0, [sp, #1020]	; 0x3fc
    6656:	e209      	b.n	0x6a6c
    6658:	9001      	str	r0, [sp, #4]
    665a:	e4c8      	b.n	0x5fee
    665c:	2004      	movs	r0, #4
    665e:	e1a0      	b.n	0x69a2
    6660:	3005      	adds	r0, #5
    6662:	e1a0      	b.n	0x69a6
    6664:	a000      	add	r0, pc, #0	; (adr r0, 0x6668)
    6666:	e1a0      	b.n	0x69aa
    6668:	b001      	add	sp, #4
    666a:	e1a0      	b.n	0x69ae
    666c:	ecc7 ebff 			; <UNDEFINED> instruction: 0xecc7ebff
    6670:	0000      	movs	r0, r0
    6672:	e350      	b.n	0x6d16
    6674:	ffd2 0aff 			; <UNDEFINED> instruction: 0xffd20aff
    6678:	a050      	add	r0, pc, #320	; (adr r0, 0x67bc)
    667a:	e59d      	b.n	0x61b8
    667c:	b05c      	add	sp, #368	; 0x170
    667e:	e59d      	b.n	0x61bc
    6680:	3058      	adds	r0, #88	; 0x58
    6682:	e59d      	b.n	0x61c0
    6684:	3001      	adds	r0, #1
    6686:	e283      	b.n	0x6b90
    6688:	7020      	strb	r0, [r4, #0]
    668a:	e59d      	b.n	0x61c8
    668c:	3018      	adds	r0, #24
    668e:	e58d      	b.n	0x61ac
    6690:	8020      	strh	r0, [r4, #0]
    6692:	e58d      	b.n	0x61b0
    6694:	00a0      	lsls	r0, r4, #2
    6696:	ea00 a050 			; <UNDEFINED> instruction: 0xea00a050
    669a:	e59d      	b.n	0x61d8
    669c:	b05c      	add	sp, #368	; 0x170
    669e:	e59d      	b.n	0x61dc
    66a0:	4028      	ands	r0, r5
    66a2:	e28d      	b.n	0x6bc0
    66a4:	0018      	movs	r0, r3
    66a6:	e894 3008 	ldmia.w	r4, {r3, ip, sp}
    66aa:	e58d      	b.n	0x61c8
    66ac:	400c      	ands	r4, r1
    66ae:	e58d      	b.n	0x61cc
    66b0:	2018      	movs	r0, #24
    66b2:	e59d      	b.n	0x61f0
    66b4:	3064      	adds	r0, #100	; 0x64
    66b6:	e59d      	b.n	0x61f4
    66b8:	000e      	movs	r6, r1
    66ba:	e352      	b.n	0x6d62
    66bc:	2000      	movs	r0, #0
    66be:	c3a0      	stmia	r3!, {r5, r7}
    66c0:	2001      	movs	r0, #1
    66c2:	d3a0      	bcc.n	0x6606
    66c4:	0000      	movs	r0, r0
    66c6:	e353      	b.n	0x6d70
    66c8:	2000      	movs	r0, #0
    66ca:	b3a0      	cbz	r0, 0x6736
    66cc:	0000      	movs	r0, r0
    66ce:	e352      	b.n	0x6d76
    66d0:	00a9      	lsls	r1, r5, #2
    66d2:	1a00      	subs	r0, r0, r0
    66d4:	2034      	movs	r0, #52	; 0x34
    66d6:	e59d      	b.n	0x6214
    66d8:	0000      	movs	r0, r0
    66da:	e352      	b.n	0x6d82
    66dc:	00d9      	lsls	r1, r3, #3
    66de:	0a00      	lsrs	r0, r0, #8
    66e0:	2090      	movs	r0, #144	; 0x90
    66e2:	e59d      	b.n	0x6220
    66e4:	0001      	movs	r1, r0
    66e6:	e352      	b.n	0x6d8e
    66e8:	02a2      	lsls	r2, r4, #10
    66ea:	da00      	bge.n	0x66ee
    66ec:	3024      	adds	r0, #36	; 0x24
    66ee:	e59d      	b.n	0x622c
    66f0:	5001      	str	r1, [r0, r0]
    66f2:	e243      	b.n	0x6b7c
    66f4:	3038      	adds	r0, #56	; 0x38
    66f6:	e59d      	b.n	0x6234
    66f8:	0005      	movs	r5, r0
    66fa:	e153      	b.n	0x69a4
    66fc:	3038      	adds	r0, #56	; 0x38
    66fe:	b59d      	push	{r0, r2, r3, r4, r7, lr}
    6700:	2010      	movs	r0, #16
    6702:	b59d      	push	{r0, r2, r3, r4, r7, lr}
    6704:	3003      	adds	r0, #3
    6706:	b045      	add	sp, #276	; 0x114
    6708:	3003      	adds	r0, #3
    670a:	b082      	sub	sp, #8
    670c:	5005      	str	r5, [r0, r0]
    670e:	a043      	add	r0, pc, #268	; (adr r0, 0x681c)
    6710:	3010      	adds	r0, #16
    6712:	b58d      	push	{r0, r2, r3, r7, lr}
    6714:	3024      	adds	r0, #36	; 0x24
    6716:	e59d      	b.n	0x6254
    6718:	5038      	str	r0, [r7, r0]
    671a:	b58d      	push	{r0, r2, r3, r7, lr}
    671c:	5000      	str	r0, [r0, r0]
    671e:	b3a0      	cbz	r0, 0x678a
    6720:	0000      	movs	r0, r0
    6722:	e353      	b.n	0x6dcc
    6724:	201c      	movs	r0, #28
    6726:	a59d      	add	r5, pc, #628	; (adr r5, 0x699c)
    6728:	2003      	movs	r0, #3
    672a:	a082      	add	r0, pc, #520	; (adr r0, 0x6934)
    672c:	201c      	movs	r0, #28
    672e:	a58d      	add	r5, pc, #564	; (adr r5, 0x6964)
    6730:	2030      	movs	r0, #48	; 0x30
    6732:	a59d      	add	r5, pc, #628	; (adr r5, 0x69a8)
    6734:	6002      	str	r2, [r0, #0]
    6736:	a1a0      	add	r1, pc, #640	; (adr r1, 0x69b8)
    6738:	3003      	adds	r0, #3
    673a:	a082      	add	r0, pc, #520	; (adr r0, 0x6944)
    673c:	3030      	adds	r0, #48	; 0x30
    673e:	b59d      	push	{r0, r2, r3, r4, r7, lr}
    6740:	2024      	movs	r0, #36	; 0x24
    6742:	b59d      	push	{r0, r2, r3, r4, r7, lr}
    6744:	3030      	adds	r0, #48	; 0x30
    6746:	a58d      	add	r5, pc, #564	; (adr r5, 0x697c)
    6748:	6002      	str	r2, [r0, #0]
    674a:	b043      	add	sp, #268	; 0x10c
    674c:	1001      	asrs	r1, r0, #32
    674e:	e3a0      	b.n	0x6e92
    6750:	000b      	movs	r3, r1
    6752:	e1a0      	b.n	0x6a96
    6754:	0897      	lsrs	r7, r2, #2
    6756:	eb00 4000 	add.w	r0, r0, r0, lsl #16
    675a:	e1a0      	b.n	0x6a9e
    675c:	201c      	movs	r0, #28
    675e:	e59d      	b.n	0x629c
    6760:	0000      	movs	r0, r0
    6762:	e356      	b.n	0x6e12
    6764:	0000      	movs	r0, r0
    6766:	c352      	stmia	r3!, {r1, r4, r6}
    6768:	0008      	movs	r0, r1
    676a:	da00      	bge.n	0x676e
    676c:	0002      	movs	r2, r0
    676e:	e156      	b.n	0x6a1e
    6770:	3006      	adds	r0, #6
    6772:	b1a0      	cbz	r0, 0x679e
    6774:	3002      	adds	r0, #2
    6776:	a1a0      	add	r1, pc, #640	; (adr r1, 0x69f8)
    6778:	1030      	asrs	r0, r6, #32
    677a:	e59d      	b.n	0x62b8
    677c:	6003      	str	r3, [r0, #0]
    677e:	e046      	b.n	0x680e
    6780:	1003      	asrs	r3, r0, #32
    6782:	e041      	b.n	0x6808
    6784:	3003      	adds	r0, #3
    6786:	e042      	b.n	0x680e
    6788:	1030      	asrs	r0, r6, #32
    678a:	e58d      	b.n	0x62a8
    678c:	301c      	adds	r0, #28
    678e:	e58d      	b.n	0x62ac
    6790:	3038      	adds	r0, #56	; 0x38
    6792:	e59d      	b.n	0x62d0
    6794:	0000      	movs	r0, r0
    6796:	e353      	b.n	0x6e40
    6798:	0007      	movs	r7, r0
    679a:	0a00      	lsrs	r0, r0, #8
    679c:	3034      	adds	r0, #52	; 0x34
    679e:	e59d      	b.n	0x62dc
    67a0:	0000      	movs	r0, r0
    67a2:	e353      	b.n	0x6e4c
    67a4:	006e      	lsls	r6, r5, #1
    67a6:	0a00      	lsrs	r0, r0, #8
    67a8:	0000      	movs	r0, r0
    67aa:	e355      	b.n	0x6e58
    67ac:	022f      	lsls	r7, r5, #8
    67ae:	ca00      	ldmia	r2!, {}
    67b0:	3038      	adds	r0, #56	; 0x38
    67b2:	e59d      	b.n	0x62f0
    67b4:	2005      	movs	r0, #5
    67b6:	e053      	b.n	0x6860
    67b8:	006a      	lsls	r2, r5, #1
    67ba:	1a00      	subs	r0, r0, r0
    67bc:	1001      	asrs	r1, r0, #32
    67be:	e3a0      	b.n	0x6f02
    67c0:	000b      	movs	r3, r1
    67c2:	e1a0      	b.n	0x6b06
    67c4:	087b      	lsrs	r3, r7, #1
    67c6:	eb00 2010 	add.w	r0, r0, r0, lsr #8
    67ca:	e59d      	b.n	0x6308
    67cc:	0000      	movs	r0, r0
    67ce:	e352      	b.n	0x6e76
    67d0:	5000      	str	r0, [r0, r0]
    67d2:	e1a0      	b.n	0x6b16
    67d4:	0146      	lsls	r6, r0, #5
    67d6:	ca00      	ldmia	r2!, {}
    67d8:	3090      	adds	r0, #144	; 0x90
    67da:	e59d      	b.n	0x6318
    67dc:	0001      	movs	r1, r0
    67de:	e353      	b.n	0x6e88
    67e0:	023c      	lsls	r4, r7, #8
    67e2:	da00      	bge.n	0x67e6
    67e4:	8000      	strh	r0, [r0, #0]
    67e6:	e3a0      	b.n	0x6f2a
    67e8:	3010      	adds	r0, #16
    67ea:	e59d      	b.n	0x6328
    67ec:	0000      	movs	r0, r0
    67ee:	e353      	b.n	0x6e98
    67f0:	0001      	movs	r1, r0
    67f2:	03a0      	lsls	r0, r4, #14
    67f4:	0146      	lsls	r6, r0, #5
    67f6:	1a00      	subs	r0, r0, r0
    67f8:	201c      	movs	r0, #28
    67fa:	e59d      	b.n	0x6338
    67fc:	0002      	movs	r2, r0
    67fe:	e080      	b.n	0x6902
    6800:	001f      	movs	r7, r3
    6802:	e210      	b.n	0x6c26
    6804:	0086      	lsls	r6, r0, #2
    6806:	0a00      	lsrs	r0, r0, #8
    6808:	3020      	adds	r0, #32
    680a:	e260      	b.n	0x6cce
    680c:	0004      	movs	r4, r0
    680e:	e353      	b.n	0x6eb8
    6810:	0372      	lsls	r2, r6, #13
    6812:	da00      	bge.n	0x6816
    6814:	3030      	adds	r0, #48	; 0x30
    6816:	e59d      	b.n	0x6354
    6818:	001c      	movs	r4, r3
    681a:	e260      	b.n	0x6cde
    681c:	3000      	adds	r0, #0
    681e:	e083      	b.n	0x6928
    6820:	3030      	adds	r0, #48	; 0x30
    6822:	e58d      	b.n	0x6340
    6824:	3000      	adds	r0, #0
    6826:	e082      	b.n	0x692e
    6828:	301c      	adds	r0, #28
    682a:	e58d      	b.n	0x6348
    682c:	6000      	str	r0, [r0, #0]
    682e:	e086      	b.n	0x693e
    6830:	3030      	adds	r0, #48	; 0x30
    6832:	e59d      	b.n	0x6370
    6834:	0000      	movs	r0, r0
    6836:	e353      	b.n	0x6ee0
    6838:	0004      	movs	r4, r0
    683a:	da00      	bge.n	0x683e
    683c:	100a      	asrs	r2, r1, #32
    683e:	e1a0      	b.n	0x6b82
    6840:	2003      	movs	r0, #3
    6842:	e1a0      	b.n	0x6b86
    6844:	000b      	movs	r3, r1
    6846:	e1a0      	b.n	0x6b8a
    6848:	091c      	lsrs	r4, r3, #4
    684a:	eb00 a000 			; <UNDEFINED> instruction: 0xeb00a000
    684e:	e1a0      	b.n	0x6b92
    6850:	301c      	adds	r0, #28
    6852:	e59d      	b.n	0x6390
    6854:	0000      	movs	r0, r0
    6856:	e353      	b.n	0x6f00
    6858:	0004      	movs	r4, r0
    685a:	da00      	bge.n	0x685e
    685c:	1005      	asrs	r5, r0, #32
    685e:	e1a0      	b.n	0x6ba2
    6860:	2003      	movs	r0, #3
    6862:	e1a0      	b.n	0x6ba6
    6864:	000b      	movs	r3, r1
    6866:	e1a0      	b.n	0x6baa
    6868:	0914      	lsrs	r4, r2, #4
    686a:	eb00 5000 	add.w	r0, r0, r0, lsl #20
    686e:	e1a0      	b.n	0x6bb2
    6870:	3090      	adds	r0, #144	; 0x90
    6872:	e59d      	b.n	0x63b0
    6874:	0002      	movs	r2, r0
    6876:	e353      	b.n	0x6f20
    6878:	303c      	adds	r0, #60	; 0x3c
    687a:	e59d      	b.n	0x63b8
    687c:	7000      	strb	r0, [r0, #0]
    687e:	d3a0      	bcc.n	0x67c2
    6880:	7001      	strb	r1, [r0, #0]
    6882:	c3a0      	stmia	r3!, {r5, r7}
    6884:	0000      	movs	r0, r0
    6886:	e353      	b.n	0x6f30
    6888:	0127      	lsls	r7, r4, #4
    688a:	1a00      	subs	r0, r0, r0
    688c:	3024      	adds	r0, #36	; 0x24
    688e:	e59d      	b.n	0x63cc
    6890:	0000      	movs	r0, r0
    6892:	e353      	b.n	0x6f3c
    6894:	7000      	strb	r0, [r0, #0]
    6896:	c3a0      	stmia	r3!, {r5, r7}
    6898:	7001      	strb	r1, [r0, #0]
    689a:	d207      	bcs.n	0x68ac
    689c:	0000      	movs	r0, r0
    689e:	e357      	b.n	0x6f50
    68a0:	008c      	lsls	r4, r1, #2
    68a2:	0a00      	lsrs	r0, r0, #8
    68a4:	3024      	adds	r0, #36	; 0x24
    68a6:	e59d      	b.n	0x63e4
    68a8:	0000      	movs	r0, r0
    68aa:	e353      	b.n	0x6f54
    68ac:	004b      	lsls	r3, r1, #1
    68ae:	1a00      	subs	r0, r0, r0
    68b0:	1005      	asrs	r5, r0, #32
    68b2:	e1a0      	b.n	0x6bf6
    68b4:	2005      	movs	r0, #5
    68b6:	e3a0      	b.n	0x6ffa
    68b8:	000b      	movs	r3, r1
    68ba:	e1a0      	b.n	0x6bfe
    68bc:	07c4      	lsls	r4, r0, #31
    68be:	eb00 1000 	add.w	r0, r0, r0, lsl #4
    68c2:	e1a0      	b.n	0x6c06
    68c4:	5000      	str	r0, [r0, r0]
    68c6:	e1a0      	b.n	0x6c0a
    68c8:	000a      	movs	r2, r1
    68ca:	e1a0      	b.n	0x6c0e
    68cc:	0939      	lsrs	r1, r7, #4
    68ce:	eb00 0000 	add.w	r0, r0, r0
    68d2:	e350      	b.n	0x6f76
    68d4:	0041      	lsls	r1, r0, #1
    68d6:	da00      	bge.n	0x68da
    68d8:	7020      	strb	r0, [r4, #0]
    68da:	e59d      	b.n	0x6418
    68dc:	2031      	movs	r0, #49	; 0x31
    68de:	e3a0      	b.n	0x7022
    68e0:	3007      	adds	r0, #7
    68e2:	e1a0      	b.n	0x6c26
    68e4:	2001      	movs	r0, #1
    68e6:	e4c3      	b.n	0x6270
    68e8:	2018      	movs	r0, #24
    68ea:	e59d      	b.n	0x6428
    68ec:	3020      	adds	r0, #32
    68ee:	e58d      	b.n	0x640c
    68f0:	6001      	str	r1, [r0, #0]
    68f2:	e282      	b.n	0x6dfa
    68f4:	1005      	asrs	r5, r0, #32
    68f6:	e1a0      	b.n	0x6c3a
    68f8:	000b      	movs	r3, r1
    68fa:	e1a0      	b.n	0x6c3e
    68fc:	07ad      	lsls	r5, r5, #30
    68fe:	eb00 3001 	add.w	r0, r0, r1, lsl #12
    6902:	e286      	b.n	0x6e12
    6904:	0000      	movs	r0, r0
    6906:	e354      	b.n	0x6fb2
    6908:	3018      	adds	r0, #24
    690a:	e58d      	b.n	0x6428
    690c:	0002      	movs	r2, r0
    690e:	0a00      	lsrs	r0, r0, #8
    6910:	1004      	asrs	r4, r0, #32
    6912:	e1a0      	b.n	0x6c56
    6914:	000b      	movs	r3, r1
    6916:	e1a0      	b.n	0x6c5a
    6918:	07a6      	lsls	r6, r4, #30
    691a:	eb00 100a 	add.w	r0, r0, sl, lsl #4
    691e:	e1a0      	b.n	0x6c62
    6920:	000b      	movs	r3, r1
    6922:	e1a0      	b.n	0x6c66
    6924:	07a3      	lsls	r3, r4, #30
    6926:	eb00 3000 	add.w	r0, r0, r0, lsl #12
    692a:	e3a0      	b.n	0x706e
    692c:	20a0      	movs	r0, #160	; 0xa0
    692e:	e59d      	b.n	0x646c
    6930:	0003      	movs	r3, r0
    6932:	e152      	b.n	0x6bda
    6934:	2020      	movs	r0, #32
    6936:	e59d      	b.n	0x6474
    6938:	1018      	asrs	r0, r3, #32
    693a:	e59d      	b.n	0x6478
    693c:	3000      	adds	r0, #0
    693e:	e5c2      	b.n	0x64c6
    6940:	3098      	adds	r0, #152	; 0x98
    6942:	e59d      	b.n	0x6480
    6944:	1000      	asrs	r0, r0, #32
    6946:	e583      	b.n	0x6450
    6948:	fdb6 0aff 			; <UNDEFINED> instruction: 0xfdb60aff
    694c:	0007      	movs	r7, r0
    694e:	e1a0      	b.n	0x6c92
    6950:	30a0      	adds	r0, #160	; 0xa0
    6952:	e59d      	b.n	0x6490
    6954:	2000      	movs	r0, #0
    6956:	e583      	b.n	0x6460
    6958:	d06c      	beq.n	0x6a34
    695a:	e28d      	b.n	0x6e78
    695c:	4ff0      	ldr	r7, [pc, #960]	; (0x6d20)
    695e:	e8bd ff1e 	ldmia.w	sp!, {r1, r2, r3, r4, r8, r9, sl, fp, ip, sp, lr, pc}
    6962:	e12f      	b.n	0x6bc4
    6964:	2038      	movs	r0, #56	; 0x38
    6966:	e59d      	b.n	0x64a4
    6968:	100a      	asrs	r2, r1, #32
    696a:	e1a0      	b.n	0x6cae
    696c:	000b      	movs	r3, r1
    696e:	e1a0      	b.n	0x6cb2
    6970:	0891      	lsrs	r1, r2, #2
    6972:	eb00 a000 			; <UNDEFINED> instruction: 0xeb00a000
    6976:	e1a0      	b.n	0x6cba
    6978:	ff8f eaff 			; <UNDEFINED> instruction: 0xff8feaff
    697c:	5024      	str	r4, [r4, r0]
    697e:	e59d      	b.n	0x64bc
    6980:	0000      	movs	r0, r0
    6982:	e355      	b.n	0x7030
    6984:	2000      	movs	r0, #0
    6986:	c3a0      	stmia	r3!, {r5, r7}
    6988:	2001      	movs	r0, #1
    698a:	d3a0      	bcc.n	0x68ce
    698c:	1094      	asrs	r4, r2, #2
    698e:	e59d      	b.n	0x64cc
    6990:	3680      	adds	r6, #128	; 0x80
    6992:	e51f      	b.n	0x63d4
    6994:	2fa1      	cmp	r7, #161	; 0xa1
    6996:	e012      	b.n	0x69be
    6998:	2018      	movs	r0, #24
    699a:	e59d      	b.n	0x64d8
    699c:	3182      	adds	r1, #130	; 0x82
    699e:	e083      	b.n	0x6aa8
    69a0:	0003      	movs	r3, r0
    69a2:	e893 0010 	ldmia.w	r3, {r4}
    69a6:	e58d      	b.n	0x64c4
    69a8:	1014      	asrs	r4, r2, #32
    69aa:	e58d      	b.n	0x64c8
    69ac:	0217      	lsls	r7, r2, #8
    69ae:	0a00      	lsrs	r0, r0, #8
    69b0:	0000      	movs	r0, r0
    69b2:	e355      	b.n	0x7060
    69b4:	0044      	lsls	r4, r0, #1
    69b6:	1a00      	subs	r0, r0, r0
    69b8:	2000      	movs	r0, #0
    69ba:	e3a0      	b.n	0x70fe
    69bc:	36c0      	adds	r6, #192	; 0xc0
    69be:	e51f      	b.n	0x6400
    69c0:	ea92 ebff 			; <UNDEFINED> instruction: 0xea92ebff
    69c4:	3008      	adds	r0, #8
    69c6:	e28d      	b.n	0x6ee4
    69c8:	000c      	movs	r4, r1
    69ca:	e893 ebfb 	ldmia.w	r3, {r0, r1, r3, r4, r5, r6, r7, r8, r9, fp, sp, lr, pc}
    69ce:	ebff 0000 			; <UNDEFINED> instruction: 0xebff0000
    69d2:	e350      	b.n	0x7076
    69d4:	01bd      	lsls	r5, r7, #6
    69d6:	0a00      	lsrs	r0, r0, #8
    69d8:	5024      	str	r4, [r4, r0]
    69da:	e59d      	b.n	0x6518
    69dc:	4005      	ands	r5, r0
    69de:	e1a0      	b.n	0x6d22
    69e0:	3094      	adds	r0, #148	; 0x94
    69e2:	e59d      	b.n	0x6520
    69e4:	7020      	strb	r0, [r4, #0]
    69e6:	e59d      	b.n	0x6524
    69e8:	6003      	str	r3, [r0, #0]
    69ea:	e1e0      	b.n	0x6dae
    69ec:	ffc0 eaff 			; <UNDEFINED> instruction: 0xffc0eaff
    69f0:	3001      	adds	r0, #1
    69f2:	e3a0      	b.n	0x7136
    69f4:	303c      	adds	r0, #60	; 0x3c
    69f6:	e58d      	b.n	0x6514
    69f8:	fdee eaff 			; <UNDEFINED> instruction: 0xfdeeeaff
    69fc:	3001      	adds	r0, #1
    69fe:	e264      	b.n	0x6eca
    6a00:	3030      	adds	r0, #48	; 0x30
    6a02:	e58d      	b.n	0x6520
    6a04:	3000      	adds	r0, #0
    6a06:	e3a0      	b.n	0x714a
    6a08:	301c      	adds	r0, #28
    6a0a:	e58d      	b.n	0x6528
    6a0c:	fdee eaff 			; <UNDEFINED> instruction: 0xfdeeeaff
    6a10:	7718      	strb	r0, [r3, #28]
    6a12:	e51f      	b.n	0x6454
    6a14:	0007      	movs	r7, r0
    6a16:	e1a0      	b.n	0x6d5a
    6a18:	d06c      	beq.n	0x6af4
    6a1a:	e28d      	b.n	0x6f38
    6a1c:	4ff0      	ldr	r7, [pc, #960]	; (0x6de0)
    6a1e:	e8bd ff1e 	ldmia.w	sp!, {r1, r2, r3, r4, r8, r9, sl, fp, ip, sp, lr, pc}
    6a22:	e12f      	b.n	0x6c84
    6a24:	001c      	movs	r4, r3
    6a26:	e3a0      	b.n	0x716a
    6a28:	3030      	adds	r0, #48	; 0x30
    6a2a:	e59d      	b.n	0x6568
    6a2c:	3000      	adds	r0, #0
    6a2e:	e083      	b.n	0x6b38
    6a30:	3030      	adds	r0, #48	; 0x30
    6a32:	e58d      	b.n	0x6550
    6a34:	301c      	adds	r0, #28
    6a36:	e59d      	b.n	0x6574
    6a38:	3000      	adds	r0, #0
    6a3a:	e083      	b.n	0x6b44
    6a3c:	6000      	str	r0, [r0, #0]
    6a3e:	e086      	b.n	0x6b4e
    6a40:	301c      	adds	r0, #28
    6a42:	e58d      	b.n	0x6560
    6a44:	ff79 eaff 	vpmin.u<illegal width 64>	q15, <illegal reg q12.5>, <illegal reg q15.5>
    6a48:	5038      	str	r0, [r7, r0]
    6a4a:	e59d      	b.n	0x6588
    6a4c:	6030      	str	r0, [r6, #0]
    6a4e:	e59d      	b.n	0x658c
    6a50:	4034      	ands	r4, r6
    6a52:	e59d      	b.n	0x6590
    6a54:	ff40 eaff 	vpmin.u8	q15, q8, <illegal reg q15.5>
    6a58:	0008      	movs	r0, r1
    6a5a:	e1a0      	b.n	0x6d9e
    6a5c:	ea32 ebff 			; <UNDEFINED> instruction: 0xea32ebff
    6a60:	3008      	adds	r0, #8
    6a62:	e28d      	b.n	0x6f80
    6a64:	000c      	movs	r4, r1
    6a66:	e893 ea68 	ldmia.w	r3, {r3, r5, r6, r9, fp, sp, lr, pc}
    6a6a:	ebff 2000 			; <UNDEFINED> instruction: 0xebff2000
    6a6e:	e3a0      	b.n	0x71b2
    6a70:	3764      	adds	r7, #100	; 0x64
    6a72:	e51f      	b.n	0x64b4
    6a74:	e95f ebff 	ldrd	lr, fp, [pc, #-1020]	; 0x667c	; 0x3fc
    6a78:	4000      	ands	r0, r0
    6a7a:	e1a0      	b.n	0x6dbe
    6a7c:	550d      	strb	r5, [r1, r4]
    6a7e:	e241      	b.n	0x6f04
    6a80:	2000      	movs	r0, #0
    6a82:	e3a0      	b.n	0x71c6
    6a84:	3788      	adds	r7, #136	; 0x88
    6a86:	e51f      	b.n	0x64c8
    6a88:	1008      	asrs	r0, r1, #32
    6a8a:	e28d      	b.n	0x6fa8
    6a8c:	0003      	movs	r3, r0
    6a8e:	e891 e957 	ldmia.w	r1, {r0, r1, r2, r4, r6, r8, fp, sp, lr, pc}
    6a92:	ebff 2004 			; <UNDEFINED> instruction: 0xebff2004
    6a96:	e1a0      	b.n	0x6dda
    6a98:	3005      	adds	r0, #5
    6a9a:	e1a0      	b.n	0x6dde
    6a9c:	6000      	str	r0, [r0, #0]
    6a9e:	e1a0      	b.n	0x6de2
    6aa0:	7001      	strb	r1, [r0, #0]
    6aa2:	e1a0      	b.n	0x6de6
    6aa4:	ebcb ebff 			; <UNDEFINED> instruction: 0xebcbebff
    6aa8:	8000      	strh	r0, [r0, #0]
    6aaa:	e250      	b.n	0x6f4e
    6aac:	0186      	lsls	r6, r0, #6
    6aae:	1a00      	subs	r0, r0, r0
    6ab0:	2004      	movs	r0, #4
    6ab2:	e1a0      	b.n	0x6df6
    6ab4:	3102      	adds	r1, #2
    6ab6:	e285      	b.n	0x6fc4
    6ab8:	0006      	movs	r6, r0
    6aba:	e1a0      	b.n	0x6dfe
    6abc:	1007      	asrs	r7, r0, #32
    6abe:	e1a0      	b.n	0x6e02
    6ac0:	ebb2 ebff 			; <UNDEFINED> instruction: 0xebb2ebff
    6ac4:	0000      	movs	r0, r0
    6ac6:	e350      	b.n	0x716a
    6ac8:	fef4 0aff 			; <UNDEFINED> instruction: 0xfef40aff
    6acc:	5000      	str	r0, [r0, r0]
    6ace:	e3a0      	b.n	0x7212
    6ad0:	4005      	ands	r5, r0
    6ad2:	e1a0      	b.n	0x6e16
    6ad4:	ffc1 eaff 			; <UNDEFINED> instruction: 0xffc1eaff
    6ad8:	3034      	adds	r0, #52	; 0x34
    6ada:	e59d      	b.n	0x6618
    6adc:	0000      	movs	r0, r0
    6ade:	e353      	b.n	0x7188
    6ae0:	3018      	adds	r0, #24
    6ae2:	e59d      	b.n	0x6620
    6ae4:	3001      	adds	r0, #1
    6ae6:	e283      	b.n	0x6ff0
    6ae8:	3018      	adds	r0, #24
    6aea:	e58d      	b.n	0x6608
    6aec:	00a6      	lsls	r6, r4, #2
    6aee:	0a00      	lsrs	r0, r0, #8
    6af0:	0000      	movs	r0, r0
    6af2:	e356      	b.n	0x71a2
    6af4:	0004      	movs	r4, r0
    6af6:	da00      	bge.n	0x6afa
    6af8:	1004      	asrs	r4, r0, #32
    6afa:	e1a0      	b.n	0x6e3e
    6afc:	2006      	movs	r0, #6
    6afe:	e1a0      	b.n	0x6e42
    6b00:	000b      	movs	r3, r1
    6b02:	e1a0      	b.n	0x6e46
    6b04:	086d      	lsrs	r5, r5, #1
    6b06:	eb00 4000 	add.w	r0, r0, r0, lsl #16
    6b0a:	e1a0      	b.n	0x6e4e
    6b0c:	0000      	movs	r0, r0
    6b0e:	e358      	b.n	0x71c2
    6b10:	9004      	str	r0, [sp, #16]
    6b12:	01a0      	lsls	r0, r4, #6
    6b14:	0261      	lsls	r1, r4, #9
    6b16:	1a00      	subs	r0, r0, r0
    6b18:	2008      	movs	r0, #8
    6b1a:	e59d      	b.n	0x6658
    6b1c:	3020      	adds	r0, #32
    6b1e:	e59d      	b.n	0x665c
    6b20:	2001      	movs	r0, #1
    6b22:	e202      	b.n	0x6f2a
    6b24:	2010      	movs	r0, #16
    6b26:	e58d      	b.n	0x6644
    6b28:	2024      	movs	r0, #36	; 0x24
    6b2a:	e59d      	b.n	0x6668
    6b2c:	8003      	strh	r3, [r0, #0]
    6b2e:	e1a0      	b.n	0x6e72
    6b30:	3001      	adds	r0, #1
    6b32:	e243      	b.n	0x6fbc
    6b34:	3002      	adds	r0, #2
    6b36:	e083      	b.n	0x6c40
    6b38:	3030      	adds	r0, #48	; 0x30
    6b3a:	e58d      	b.n	0x6658
    6b3c:	0031      	movs	r1, r6
    6b3e:	ea00 1000 	and.w	r0, r0, r0, lsl #4
    6b42:	e1a0      	b.n	0x6e86
    6b44:	000a      	movs	r2, r1
    6b46:	e1a0      	b.n	0x6e8a
    6b48:	3024      	adds	r0, #36	; 0x24
    6b4a:	e58d      	b.n	0x6668
    6b4c:	0899      	lsrs	r1, r3, #2
    6b4e:	eb00 1006 	add.w	r0, r0, r6, lsl #4
    6b52:	e1a0      	b.n	0x6e96
    6b54:	001c      	movs	r4, r3
    6b56:	e58d      	b.n	0x6674
    6b58:	000b      	movs	r3, r1
    6b5a:	e1a0      	b.n	0x6e9e
    6b5c:	0715      	lsls	r5, r2, #28
    6b5e:	eb00 3090 	add.w	r0, r0, r0, lsr #14
    6b62:	e59d      	b.n	0x66a0
    6b64:	201c      	movs	r0, #28
    6b66:	e59d      	b.n	0x66a4
    6b68:	1003      	asrs	r3, r0, #32
    6b6a:	e182      	b.n	0x6e72
    6b6c:	3010      	adds	r0, #16
    6b6e:	e59d      	b.n	0x66ac
    6b70:	3001      	adds	r0, #1
    6b72:	e193      	b.n	0x6e9c
    6b74:	3024      	adds	r0, #36	; 0x24
    6b76:	e59d      	b.n	0x66b4
    6b78:	027e      	lsls	r6, r7, #9
    6b7a:	0a00      	lsrs	r0, r0, #8
    6b7c:	0000      	movs	r0, r0
    6b7e:	e357      	b.n	0x7230
    6b80:	6001      	str	r1, [r0, #0]
    6b82:	e288      	b.n	0x7096
    6b84:	0225      	lsls	r5, r4, #8
    6b86:	ba00      	rev	r0, r0
    6b88:	1090      	asrs	r0, r2, #2
    6b8a:	e59d      	b.n	0x66c8
    6b8c:	7001      	strb	r1, [r0, #0]
    6b8e:	e187      	b.n	0x6ea0
    6b90:	1010      	asrs	r0, r2, #32
    6b92:	e59d      	b.n	0x66d0
    6b94:	1007      	asrs	r7, r0, #32
    6b96:	e191      	b.n	0x6ebc
    6b98:	0220      	lsls	r0, r4, #8
    6b9a:	0a00      	lsrs	r0, r0, #8
    6b9c:	0000      	movs	r0, r0
    6b9e:	e352      	b.n	0x7246
    6ba0:	0255      	lsls	r5, r2, #9
    6ba2:	ca00      	ldmia	r2!, {}
    6ba4:	2030      	movs	r0, #48	; 0x30
    6ba6:	e59d      	b.n	0x66e4
    6ba8:	0008      	movs	r0, r1
    6baa:	e152      	b.n	0x6e52
    6bac:	3000      	adds	r0, #0
    6bae:	e5c8      	b.n	0x6742
    6bb0:	0258      	lsls	r0, r3, #9
    6bb2:	0a00      	lsrs	r0, r0, #8
    6bb4:	100a      	asrs	r2, r1, #32
    6bb6:	e1a0      	b.n	0x6efa
    6bb8:	3000      	adds	r0, #0
    6bba:	e3a0      	b.n	0x72fe
    6bbc:	200a      	movs	r0, #10
    6bbe:	e3a0      	b.n	0x7302
    6bc0:	000b      	movs	r3, r1
    6bc2:	e1a0      	b.n	0x6f06
    6bc4:	0702      	lsls	r2, r0, #28
    6bc6:	eb00 0009 	add.w	r0, r0, r9
    6bca:	e154      	b.n	0x6e76
    6bcc:	a000      	add	r0, pc, #0	; (adr r0, 0x6bd0)
    6bce:	e1a0      	b.n	0x6f12
    6bd0:	1004      	asrs	r4, r0, #32
    6bd2:	e1a0      	b.n	0x6f16
    6bd4:	3000      	adds	r0, #0
    6bd6:	e3a0      	b.n	0x731a
    6bd8:	200a      	movs	r0, #10
    6bda:	e3a0      	b.n	0x731e
    6bdc:	000b      	movs	r3, r1
    6bde:	e1a0      	b.n	0x6f22
    6be0:	0131      	lsls	r1, r6, #4
    6be2:	0a00      	lsrs	r0, r0, #8
    6be4:	06fa      	lsls	r2, r7, #27
    6be6:	eb00 1009 	add.w	r0, r0, r9, lsl #4
    6bea:	e1a0      	b.n	0x6f2e
    6bec:	4000      	ands	r0, r0
    6bee:	e1a0      	b.n	0x6f32
    6bf0:	3000      	adds	r0, #0
    6bf2:	e3a0      	b.n	0x7336
    6bf4:	200a      	movs	r0, #10
    6bf6:	e3a0      	b.n	0x733a
    6bf8:	000b      	movs	r3, r1
    6bfa:	e1a0      	b.n	0x6f3e
    6bfc:	06f4      	lsls	r4, r6, #27
    6bfe:	eb00 9000 			; <UNDEFINED> instruction: 0xeb009000
    6c02:	e1a0      	b.n	0x6f46
    6c04:	8006      	strh	r6, [r0, #0]
    6c06:	e1a0      	b.n	0x6f4a
    6c08:	1005      	asrs	r5, r0, #32
    6c0a:	e1a0      	b.n	0x6f4e
    6c0c:	000a      	movs	r2, r1
    6c0e:	e1a0      	b.n	0x6f52
    6c10:	fc56 ebff 			; <UNDEFINED> instruction: 0xfc56ebff
    6c14:	1004      	asrs	r4, r0, #32
    6c16:	e1a0      	b.n	0x6f5a
    6c18:	0008      	movs	r0, r1
    6c1a:	e58d      	b.n	0x6738
    6c1c:	000a      	movs	r2, r1
    6c1e:	e1a0      	b.n	0x6f62
    6c20:	0864      	lsrs	r4, r4, #1
    6c22:	eb00 2009 	add.w	r0, r0, r9, lsl #8
    6c26:	e1a0      	b.n	0x6f6a
    6c28:	7000      	strb	r0, [r0, #0]
    6c2a:	e1a0      	b.n	0x6f6e
    6c2c:	1005      	asrs	r5, r0, #32
    6c2e:	e1a0      	b.n	0x6f72
    6c30:	000b      	movs	r3, r1
    6c32:	e1a0      	b.n	0x6f76
    6c34:	0878      	lsrs	r0, r7, #1
    6c36:	eb00 300c 	add.w	r0, r0, ip, lsl #12
    6c3a:	e590      	b.n	0x675e
    6c3c:	0000      	movs	r0, r0
    6c3e:	e353      	b.n	0x72e8
    6c40:	3008      	adds	r0, #8
    6c42:	e59d      	b.n	0x6780
    6c44:	6000      	str	r0, [r0, #0]
    6c46:	e1a0      	b.n	0x6f8a
    6c48:	3030      	adds	r0, #48	; 0x30
    6c4a:	e283      	b.n	0x7154
    6c4c:	ffbb 0aff 			; <UNDEFINED> instruction: 0xffbb0aff
    6c50:	1000      	asrs	r0, r0, #32
    6c52:	e1a0      	b.n	0x6f96
    6c54:	000b      	movs	r3, r1
    6c56:	e1a0      	b.n	0x6f9a
    6c58:	301c      	adds	r0, #28
    6c5a:	e58d      	b.n	0x6778
    6c5c:	06d5      	lsls	r5, r2, #27
    6c5e:	eb00 2001 	add.w	r0, r0, r1, lsl #8
    6c62:	e3a0      	b.n	0x73a6
    6c64:	301c      	adds	r0, #28
    6c66:	e59d      	b.n	0x67a4
    6c68:	ffc3 eaff 			; <UNDEFINED> instruction: 0xffc3eaff
    6c6c:	00e8      	lsls	r0, r5, #3
    6c6e:	0a00      	lsrs	r0, r0, #8
    6c70:	3018      	adds	r0, #24
    6c72:	e59d      	b.n	0x67b0
    6c74:	5000      	str	r0, [r0, r0]
    6c76:	e263      	b.n	0x7140
    6c78:	3968      	subs	r1, #104	; 0x68
    6c7a:	e51f      	b.n	0x66bc
    6c7c:	200f      	movs	r0, #15
    6c7e:	e205      	b.n	0x708c
    6c80:	3182      	adds	r1, #130	; 0x82
    6c82:	e083      	b.n	0x6d8c
    6c84:	000c      	movs	r4, r1
    6c86:	e893 1028 	ldmia.w	r3, {r3, r5, ip}
    6c8a:	e28d      	b.n	0x71a8
    6c8c:	0003      	movs	r3, r0
    6c8e:	e891 e9de 	ldmia.w	r1, {r1, r2, r3, r4, r6, r7, r8, fp, sp, lr, pc}
    6c92:	ebff 5245 			; <UNDEFINED> instruction: 0xebff5245
    6c96:	e1b0      	b.n	0x6ffa
    6c98:	0040      	lsls	r0, r0, #1
    6c9a:	e58d      	b.n	0x67b8
    6c9c:	1044      	asrs	r4, r0, #1
    6c9e:	e58d      	b.n	0x67bc
    6ca0:	00d7      	lsls	r7, r2, #3
    6ca2:	0a00      	lsrs	r0, r0, #8
    6ca4:	3000      	adds	r0, #0
    6ca6:	e3a0      	b.n	0x73ea
    6ca8:	8002      	strh	r2, [r0, #0]
    6caa:	e3a0      	b.n	0x73ee
    6cac:	69ac      	ldr	r4, [r5, #24]
    6cae:	e51f      	b.n	0x66f0
    6cb0:	0001      	movs	r1, r0
    6cb2:	e315      	b.n	0x72e0
    6cb4:	0003      	movs	r3, r0
    6cb6:	0a00      	lsrs	r0, r0, #8
    6cb8:	000c      	movs	r4, r1
    6cba:	e896 e9d3 	ldmia.w	r6, {r0, r1, r4, r6, r7, r8, fp, sp, lr, pc}
    6cbe:	ebff 3004 			; <UNDEFINED> instruction: 0xebff3004
    6cc2:	e1a0      	b.n	0x7006
    6cc4:	8001      	strh	r1, [r0, #0]
    6cc6:	e288      	b.n	0x71da
    6cc8:	50c5      	str	r5, [r0, r3]
    6cca:	e1b0      	b.n	0x702e
    6ccc:	6008      	str	r0, [r1, #0]
    6cce:	e286      	b.n	0x71de
    6cd0:	fff6 1aff 			; <UNDEFINED> instruction: 0xfff61aff
    6cd4:	0000      	movs	r0, r0
    6cd6:	e353      	b.n	0x7380
    6cd8:	0008      	movs	r0, r1
    6cda:	e58d      	b.n	0x67f8
    6cdc:	100c      	asrs	r4, r1, #32
    6cde:	e58d      	b.n	0x67fc
    6ce0:	4040      	eors	r0, r0
    6ce2:	028d      	lsls	r5, r1, #10
    6ce4:	0018      	movs	r0, r3
    6ce6:	0894      	lsrs	r4, r2, #2
    6ce8:	3008      	adds	r0, #8
    6cea:	058d      	lsls	r5, r1, #22
    6cec:	400c      	ands	r4, r1
    6cee:	058d      	lsls	r5, r1, #22
    6cf0:	fdd8 eaff 			; <UNDEFINED> instruction: 0xfdd8eaff
    6cf4:	1000      	asrs	r0, r0, #32
    6cf6:	e1a0      	b.n	0x703a
    6cf8:	000b      	movs	r3, r1
    6cfa:	e1a0      	b.n	0x703e
    6cfc:	07ae      	lsls	r6, r5, #30
    6cfe:	eb00 3090 	add.w	r0, r0, r0, lsr #14
    6d02:	e59d      	b.n	0x6840
    6d04:	0001      	movs	r1, r0
    6d06:	e353      	b.n	0x73b0
    6d08:	5000      	str	r0, [r0, r0]
    6d0a:	e1a0      	b.n	0x704e
    6d0c:	00c2      	lsls	r2, r0, #3
    6d0e:	da00      	bge.n	0x6d12
    6d10:	8000      	strh	r0, [r0, #0]
    6d12:	e3a0      	b.n	0x7456
    6d14:	3010      	adds	r0, #16
    6d16:	e595      	b.n	0x6844
    6d18:	3103      	adds	r1, #3
    6d1a:	e085      	b.n	0x6e28
    6d1c:	0010      	movs	r0, r2
    6d1e:	e593      	b.n	0x6848
    6d20:	06e6      	lsls	r6, r4, #27
    6d22:	eb00 0020 	add.w	r0, r0, r0, asr #32
    6d26:	e260      	b.n	0x71ea
    6d28:	feb2 eaff 			; <UNDEFINED> instruction: 0xfeb2eaff
    6d2c:	1005      	asrs	r5, r0, #32
    6d2e:	e1a0      	b.n	0x7072
    6d30:	000a      	movs	r2, r1
    6d32:	e1a0      	b.n	0x7076
    6d34:	081f      	lsrs	r7, r3, #32
    6d36:	eb00 0000 	add.w	r0, r0, r0
    6d3a:	e350      	b.n	0x73de
    6d3c:	fed2 aaff 			; <UNDEFINED> instruction: 0xfed2aaff
    6d40:	3000      	adds	r0, #0
    6d42:	e3a0      	b.n	0x7486
    6d44:	c04c      	stmia	r0!, {r2, r3, r6}
    6d46:	e59d      	b.n	0x6884
    6d48:	100a      	asrs	r2, r1, #32
    6d4a:	e1a0      	b.n	0x708e
    6d4c:	200a      	movs	r0, #10
    6d4e:	e3a0      	b.n	0x7492
    6d50:	000b      	movs	r3, r1
    6d52:	e1a0      	b.n	0x7096
    6d54:	0003      	movs	r3, r0
    6d56:	e15c      	b.n	0x7012
    6d58:	9000      	str	r0, [sp, #0]
    6d5a:	c3a0      	stmia	r3!, {r5, r7}
    6d5c:	9001      	str	r0, [sp, #4]
    6d5e:	d207      	bcs.n	0x6d70
    6d60:	069b      	lsls	r3, r3, #26
    6d62:	eb00 3034 	add.w	r0, r0, r4, ror #12
    6d66:	e59d      	b.n	0x68a4
    6d68:	0000      	movs	r0, r0
    6d6a:	e353      	b.n	0x7414
    6d6c:	3018      	adds	r0, #24
    6d6e:	e59d      	b.n	0x68ac
    6d70:	a000      	add	r0, pc, #0	; (adr r0, 0x6d74)
    6d72:	e1a0      	b.n	0x70b6
    6d74:	7001      	strb	r1, [r0, #0]
    6d76:	e243      	b.n	0x7200
    6d78:	0204      	lsls	r4, r0, #8
    6d7a:	1a00      	subs	r0, r0, r0
    6d7c:	0000      	movs	r0, r0
    6d7e:	e359      	b.n	0x7434
    6d80:	01ec      	lsls	r4, r5, #7
    6d82:	1a00      	subs	r0, r0, r0
    6d84:	304c      	adds	r0, #76	; 0x4c
    6d86:	e59d      	b.n	0x68c4
    6d88:	3024      	adds	r0, #36	; 0x24
    6d8a:	e58d      	b.n	0x68a8
    6d8c:	6020      	str	r0, [r4, #0]
    6d8e:	e59d      	b.n	0x68cc
    6d90:	7001      	strb	r1, [r0, #0]
    6d92:	e3a0      	b.n	0x74d6
    6d94:	8024      	strh	r4, [r4, #0]
    6d96:	e59d      	b.n	0x68d4
    6d98:	0006      	movs	r6, r0
    6d9a:	ea00 100a 	and.w	r0, r0, sl, lsl #4
    6d9e:	e1a0      	b.n	0x70e2
    6da0:	3000      	adds	r0, #0
    6da2:	e3a0      	b.n	0x74e6
    6da4:	200a      	movs	r0, #10
    6da6:	e3a0      	b.n	0x74ea
    6da8:	000b      	movs	r3, r1
    6daa:	e1a0      	b.n	0x70ee
    6dac:	0688      	lsls	r0, r1, #26
    6dae:	eb00 a000 			; <UNDEFINED> instruction: 0xeb00a000
    6db2:	e1a0      	b.n	0x70f6
    6db4:	7001      	strb	r1, [r0, #0]
    6db6:	e287      	b.n	0x72c8
    6db8:	1005      	asrs	r5, r0, #32
    6dba:	e1a0      	b.n	0x70fe
    6dbc:	000a      	movs	r2, r1
    6dbe:	e1a0      	b.n	0x7102
    6dc0:	fbea ebff 			; <UNDEFINED> instruction: 0xfbeaebff
    6dc4:	0008      	movs	r0, r1
    6dc6:	e157      	b.n	0x7078
    6dc8:	0030      	movs	r0, r6
    6dca:	e280      	b.n	0x72ce
    6dcc:	0001      	movs	r1, r0
    6dce:	e4c6      	b.n	0x675e
    6dd0:	fff1 baff 			; <UNDEFINED> instruction: 0xfff1baff
    6dd4:	3000      	adds	r0, #0
    6dd6:	e1a0      	b.n	0x711a
    6dd8:	7000      	strb	r0, [r0, #0]
    6dda:	e3a0      	b.n	0x751e
    6ddc:	100a      	asrs	r2, r1, #32
    6dde:	e1a0      	b.n	0x7122
    6de0:	2001      	movs	r0, #1
    6de2:	e3a0      	b.n	0x7526
    6de4:	000b      	movs	r3, r1
    6de6:	e1a0      	b.n	0x712a
    6de8:	3008      	adds	r0, #8
    6dea:	e58d      	b.n	0x6908
    6dec:	07b3      	lsls	r3, r6, #30
    6dee:	eb00 1005 	add.w	r0, r0, r5, lsl #4
    6df2:	e1a0      	b.n	0x7136
    6df4:	a000      	add	r0, pc, #0	; (adr r0, 0x6df8)
    6df6:	e1a0      	b.n	0x713a
    6df8:	07ee      	lsls	r6, r5, #31
    6dfa:	eb00 0000 	add.w	r0, r0, r0
    6dfe:	e350      	b.n	0x74a2
    6e00:	2001      	movs	r0, #1
    6e02:	e556      	b.n	0x68b2
    6e04:	016a      	lsls	r2, r5, #5
    6e06:	da00      	bge.n	0x6e0a
    6e08:	3001      	adds	r0, #1
    6e0a:	e246      	b.n	0x729a
    6e0c:	1020      	asrs	r0, r4, #32
    6e0e:	e59d      	b.n	0x694c
    6e10:	0002      	movs	r2, r0
    6e12:	ea00 0003 	and.w	r0, r0, r3
    6e16:	e151      	b.n	0x70bc
    6e18:	0173      	lsls	r3, r6, #5
    6e1a:	0a00      	lsrs	r0, r0, #8
    6e1c:	2001      	movs	r0, #1
    6e1e:	e573      	b.n	0x6908
    6e20:	0039      	movs	r1, r7
    6e22:	e352      	b.n	0x74ca
    6e24:	6001      	str	r1, [r0, #0]
    6e26:	e283      	b.n	0x7330
    6e28:	fff9 0aff 			; <UNDEFINED> instruction: 0xfff90aff
    6e2c:	2001      	movs	r0, #1
    6e2e:	e282      	b.n	0x7336
    6e30:	2000      	movs	r0, #0
    6e32:	e5c3      	b.n	0x69bc
    6e34:	1005      	asrs	r5, r0, #32
    6e36:	e1a0      	b.n	0x717a
    6e38:	000b      	movs	r3, r1
    6e3a:	e1a0      	b.n	0x717e
    6e3c:	065d      	lsls	r5, r3, #25
    6e3e:	eb00 0000 	add.w	r0, r0, r0
    6e42:	e354      	b.n	0x74ee
    6e44:	0165      	lsls	r5, r4, #5
    6e46:	0a00      	lsrs	r0, r0, #8
    6e48:	0000      	movs	r0, r0
    6e4a:	e357      	b.n	0x74fc
    6e4c:	0004      	movs	r4, r0
    6e4e:	1157      	asrs	r7, r2, #5
    6e50:	01e5      	lsls	r5, r4, #7
    6e52:	0a00      	lsrs	r0, r0, #8
    6e54:	1007      	asrs	r7, r0, #32
    6e56:	e1a0      	b.n	0x719a
    6e58:	000b      	movs	r3, r1
    6e5a:	e1a0      	b.n	0x719e
    6e5c:	7020      	strb	r0, [r4, #0]
    6e5e:	e59d      	b.n	0x699c
    6e60:	0654      	lsls	r4, r2, #25
    6e62:	eb00 6020 	add.w	r0, r0, r0, asr #24
    6e66:	e58d      	b.n	0x6984
    6e68:	fea8 eaff 			; <UNDEFINED> instruction: 0xfea8eaff
    6e6c:	3001      	adds	r0, #1
    6e6e:	e3a0      	b.n	0x75b2
    6e70:	3034      	adds	r0, #52	; 0x34
    6e72:	e58d      	b.n	0x6990
    6e74:	3094      	adds	r0, #148	; 0x94
    6e76:	e59d      	b.n	0x69b4
    6e78:	0000      	movs	r0, r0
    6e7a:	e353      	b.n	0x7524
    6e7c:	008e      	lsls	r6, r1, #2
    6e7e:	da00      	bge.n	0x6e82
    6e80:	0003      	movs	r3, r0
    6e82:	e1a0      	b.n	0x71c6
    6e84:	304c      	adds	r0, #76	; 0x4c
    6e86:	e58d      	b.n	0x69a4
    6e88:	3024      	adds	r0, #36	; 0x24
    6e8a:	e58d      	b.n	0x69a8
    6e8c:	1000      	asrs	r0, r0, #32
    6e8e:	e3a0      	b.n	0x75d2
    6e90:	3024      	adds	r0, #36	; 0x24
    6e92:	e59d      	b.n	0x69d0
    6e94:	000e      	movs	r6, r1
    6e96:	e353      	b.n	0x7540
    6e98:	4000      	ands	r0, r0
    6e9a:	83a0      	strh	r0, [r4, #28]
    6e9c:	4001      	ands	r1, r0
    6e9e:	9204      	str	r2, [sp, #16]
    6ea0:	0017      	movs	r7, r2
    6ea2:	e350      	b.n	0x7546
    6ea4:	1044      	asrs	r4, r0, #1
    6ea6:	e58b      	b.n	0x69c0
    6ea8:	fd39 daff 			; <UNDEFINED> instruction: 0xfd39daff
    6eac:	3004      	adds	r0, #4
    6eae:	e3a0      	b.n	0x75f2
    6eb0:	3083      	adds	r0, #131	; 0x83
    6eb2:	e1a0      	b.n	0x71f6
    6eb4:	2014      	movs	r0, #20
    6eb6:	e283      	b.n	0x73c0
    6eb8:	0000      	movs	r0, r0
    6eba:	e152      	b.n	0x7162
    6ebc:	1001      	asrs	r1, r0, #32
    6ebe:	e281      	b.n	0x73c4
    6ec0:	fffa 9aff 			; <UNDEFINED> instruction: 0xfffa9aff
    6ec4:	1044      	asrs	r4, r0, #1
    6ec6:	e58b      	b.n	0x69e0
    6ec8:	fd31 eaff 			; <UNDEFINED> instruction: 0xfd31eaff
    6ecc:	3001      	adds	r0, #1
    6ece:	e3a0      	b.n	0x7612
    6ed0:	3034      	adds	r0, #52	; 0x34
    6ed2:	e58d      	b.n	0x69f0
    6ed4:	3094      	adds	r0, #148	; 0x94
    6ed6:	e59d      	b.n	0x6a14
    6ed8:	2018      	movs	r0, #24
    6eda:	e59d      	b.n	0x6a18
    6edc:	3002      	adds	r0, #2
    6ede:	e083      	b.n	0x6fe8
    6ee0:	304c      	adds	r0, #76	; 0x4c
    6ee2:	e58d      	b.n	0x6a00
    6ee4:	3001      	adds	r0, #1
    6ee6:	e283      	b.n	0x73f0
    6ee8:	0001      	movs	r1, r0
    6eea:	e353      	b.n	0x7594
    6eec:	3024      	adds	r0, #36	; 0x24
    6eee:	e58d      	b.n	0x6a0c
    6ef0:	0003      	movs	r3, r0
    6ef2:	a1a0      	add	r1, pc, #640	; (adr r1, 0x7174)
    6ef4:	0001      	movs	r1, r0
    6ef6:	b3a0      	cbz	r0, 0x6f62
    6ef8:	ffe3 eaff 			; <UNDEFINED> instruction: 0xffe3eaff
    6efc:	3000      	adds	r0, #0
    6efe:	e3a0      	b.n	0x7642
    6f00:	3034      	adds	r0, #52	; 0x34
    6f02:	e58d      	b.n	0x6a20
    6f04:	fff2 eaff 			; <UNDEFINED> instruction: 0xfff2eaff
    6f08:	3000      	adds	r0, #0
    6f0a:	e3a0      	b.n	0x764e
    6f0c:	3034      	adds	r0, #52	; 0x34
    6f0e:	e58d      	b.n	0x6a2c
    6f10:	ffd7 eaff 			; <UNDEFINED> instruction: 0xffd7eaff
    6f14:	0004      	movs	r4, r0
    6f16:	e1a0      	b.n	0x725a
    6f18:	1005      	asrs	r5, r0, #32
    6f1a:	e1a0      	b.n	0x725e
    6f1c:	e93b ebff 	ldmdb	fp!, {r0, r1, r2, r3, r4, r5, r6, r7, r8, r9, fp, sp, lr, pc}
    6f20:	3020      	adds	r0, #32
    6f22:	e59d      	b.n	0x6a60
    6f24:	0001      	movs	r1, r0
    6f26:	e357      	b.n	0x75d8
    6f28:	0008      	movs	r0, r1
    6f2a:	e58d      	b.n	0x6a48
    6f2c:	100c      	asrs	r4, r1, #32
    6f2e:	e58d      	b.n	0x6a4c
    6f30:	9000      	str	r0, [sp, #0]
    6f32:	e5c3      	b.n	0x6abc
    6f34:	0017      	movs	r7, r2
    6f36:	0a00      	lsrs	r0, r0, #8
    6f38:	3020      	adds	r0, #32
    6f3a:	e59d      	b.n	0x6a78
    6f3c:	7007      	strb	r7, [r0, #0]
    6f3e:	e083      	b.n	0x7048
    6f40:	5007      	str	r7, [r0, r0]
    6f42:	e1a0      	b.n	0x7286
    6f44:	1040      	asrs	r0, r0, #1
    6f46:	e28d      	b.n	0x7464
    6f48:	0003      	movs	r3, r0
    6f4a:	e891 2000 	ldmia.w	r1, {sp}
    6f4e:	e3a0      	b.n	0x7692
    6f50:	3c3c      	subs	r4, #60	; 0x3c
    6f52:	e51f      	b.n	0x6994
    6f54:	e92d ebff 	stmdb	sp!, {r0, r1, r2, r3, r4, r5, r6, r7, r8, r9, fp, sp, lr, pc}
    6f58:	7001      	strb	r1, [r0, #0]
    6f5a:	e1a0      	b.n	0x729e
    6f5c:	6000      	str	r0, [r0, #0]
    6f5e:	e1a0      	b.n	0x72a2
    6f60:	eab0 ebff 			; <UNDEFINED> instruction: 0xeab0ebff
    6f64:	4000      	ands	r0, r0
    6f66:	e1a0      	b.n	0x72aa
    6f68:	e8ef ebff 	strd	lr, fp, [pc], #1020	; 0x7368	; 0x3fc
    6f6c:	4030      	ands	r0, r6
    6f6e:	e284      	b.n	0x747a
    6f70:	2000      	movs	r0, #0
    6f72:	e1a0      	b.n	0x72b6
    6f74:	3001      	adds	r0, #1
    6f76:	e1a0      	b.n	0x72ba
    6f78:	0006      	movs	r6, r0
    6f7a:	e1a0      	b.n	0x72be
    6f7c:	1007      	asrs	r7, r0, #32
    6f7e:	e1a0      	b.n	0x72c2
    6f80:	e81b ebff 			; <UNDEFINED> instruction: 0xe81bebff
    6f84:	4001      	ands	r1, r0
    6f86:	e4c8      	b.n	0x691a
    6f88:	0005      	movs	r5, r0
    6f8a:	e158      	b.n	0x723e
    6f8c:	ffee 1aff 			; <UNDEFINED> instruction: 0xffee1aff
    6f90:	0040      	lsls	r0, r0, #1
    6f92:	e58d      	b.n	0x6ab0
    6f94:	1044      	asrs	r4, r0, #1
    6f96:	e58d      	b.n	0x6ab4
    6f98:	2000      	movs	r0, #0
    6f9a:	e3a0      	b.n	0x76de
    6f9c:	3c98      	subs	r4, #152	; 0x98
    6f9e:	e51f      	b.n	0x69e0
    6fa0:	1008      	asrs	r0, r1, #32
    6fa2:	e28d      	b.n	0x74c0
    6fa4:	0003      	movs	r3, r0
    6fa6:	e891 e812 	ldmia.w	r1, {r1, r4, fp, sp, lr, pc}
    6faa:	ebff 3040 			; <UNDEFINED> instruction: 0xebff3040
    6fae:	e28d      	b.n	0x74cc
    6fb0:	000c      	movs	r4, r1
    6fb2:	e893 ea75 	ldmia.w	r3, {r0, r2, r4, r5, r6, r9, fp, sp, lr, pc}
    6fb6:	ebff 0000 			; <UNDEFINED> instruction: 0xebff0000
    6fba:	e350      	b.n	0x765e
    6fbc:	0131      	lsls	r1, r6, #4
    6fbe:	1a00      	subs	r0, r0, r0
    6fc0:	3008      	adds	r0, #8
    6fc2:	e28d      	b.n	0x74e0
    6fc4:	000c      	movs	r4, r1
    6fc6:	e893 0000 	ldmia.w	r3, {}
    6fca:	e3a0      	b.n	0x770e
    6fcc:	1cc8      	adds	r0, r1, #3
    6fce:	e51f      	b.n	0x6a10
    6fd0:	e807 ebff 			; <UNDEFINED> instruction: 0xe807ebff
    6fd4:	3040      	adds	r0, #64	; 0x40
    6fd6:	e28d      	b.n	0x74f4
    6fd8:	000c      	movs	r4, r1
    6fda:	e893 ea7d 	ldmia.w	r3, {r0, r2, r3, r4, r5, r6, r9, fp, sp, lr, pc}
    6fde:	ebff 0000 			; <UNDEFINED> instruction: 0xebff0000
    6fe2:	e350      	b.n	0x7686
    6fe4:	fdad 0aff 			; <UNDEFINED> instruction: 0xfdad0aff
    6fe8:	0000      	movs	r0, r0
    6fea:	ea00 8003 			; <UNDEFINED> instruction: 0xea008003
    6fee:	e1a0      	b.n	0x7332
    6ff0:	3001      	adds	r0, #1
    6ff2:	e558      	b.n	0x6aa6
    6ff4:	0030      	movs	r0, r6
    6ff6:	e353      	b.n	0x76a0
    6ff8:	3001      	adds	r0, #1
    6ffa:	e248      	b.n	0x748e
    6ffc:	fffa 0aff 			; <UNDEFINED> instruction: 0xfffa0aff
    7000:	fd9e eaff 			; <UNDEFINED> instruction: 0xfd9eeaff
    7004:	4040      	eors	r0, r0
    7006:	e28d      	b.n	0x7524
    7008:	0018      	movs	r0, r3
    700a:	e894 3008 	ldmia.w	r4, {r3, ip, sp}
    700e:	e58d      	b.n	0x6b2c
    7010:	400c      	ands	r4, r1
    7012:	e58d      	b.n	0x6b30
    7014:	8002      	strh	r2, [r0, #0]
    7016:	e3a0      	b.n	0x775a
    7018:	fd0e eaff 			; <UNDEFINED> instruction: 0xfd0eeaff
    701c:	2008      	movs	r0, #8
    701e:	e28d      	b.n	0x753c
    7020:	0006      	movs	r6, r0
    7022:	e892 0000 	ldmia.w	r2, {}
    7026:	e351      	b.n	0x76cc
    7028:	ff38 1aff 	vpmin.u<illegal width 64>	<illegal reg q0.5>, q12, <illegal reg q15.5>
    702c:	34ff      	adds	r4, #255	; 0xff
    702e:	e3c2      	b.n	0x77b6
    7030:	360f      	adds	r6, #15
    7032:	e3c3      	b.n	0x77bc
    7034:	0000      	movs	r0, r0
    7036:	e353      	b.n	0x76e0
    7038:	3002      	adds	r0, #2
    703a:	e1a0      	b.n	0x737e
    703c:	ff33 1aff 	vpmin.u<illegal width 64>	<illegal reg q0.5>, <illegal reg q9.5>, <illegal reg q15.5>
    7040:	8d38      	ldrh	r0, [r7, #40]	; 0x28
    7042:	e51f      	b.n	0x6a84
    7044:	8003      	strh	r3, [r0, #0]
    7046:	e008      	b.n	0x705a
    7048:	0000      	movs	r0, r0
    704a:	e358      	b.n	0x76fe
    704c:	fde5 0aff 			; <UNDEFINED> instruction: 0xfde50aff
    7050:	3030      	adds	r0, #48	; 0x30
    7052:	e59d      	b.n	0x6b90
    7054:	3001      	adds	r0, #1
    7056:	e283      	b.n	0x7560
    7058:	3030      	adds	r0, #48	; 0x30
    705a:	e58d      	b.n	0x6b78
    705c:	301c      	adds	r0, #28
    705e:	e59d      	b.n	0x6b9c
    7060:	3001      	adds	r0, #1
    7062:	e283      	b.n	0x756c
    7064:	301c      	adds	r0, #28
    7066:	e58d      	b.n	0x6b84
    7068:	8001      	strh	r1, [r0, #0]
    706a:	e3a0      	b.n	0x77ae
    706c:	fddd eaff 			; <UNDEFINED> instruction: 0xfdddeaff
    7070:	1004      	asrs	r4, r0, #32
    7072:	e1a0      	b.n	0x73b6
    7074:	2005      	movs	r0, #5
    7076:	e1a0      	b.n	0x73ba
    7078:	000b      	movs	r3, r1
    707a:	e1a0      	b.n	0x73be
    707c:	06ce      	lsls	r6, r1, #27
    707e:	eb00 200a 	add.w	r0, r0, sl, lsl #8
    7082:	e1a0      	b.n	0x73c6
    7084:	1000      	asrs	r0, r0, #32
    7086:	e1a0      	b.n	0x73ca
    7088:	4000      	ands	r0, r0
    708a:	e1a0      	b.n	0x73ce
    708c:	000b      	movs	r3, r1
    708e:	e1a0      	b.n	0x73d2
    7090:	0651      	lsls	r1, r2, #25
    7092:	eb00 3000 	add.w	r0, r0, r0, lsl #12
    7096:	e1a0      	b.n	0x73da
    7098:	100a      	asrs	r2, r1, #32
    709a:	e1a0      	b.n	0x73de
    709c:	000b      	movs	r3, r1
    709e:	e1a0      	b.n	0x73e2
    70a0:	a003      	add	r0, pc, #12	; (adr r0, 0x70b0)
    70a2:	e1a0      	b.n	0x73e6
    70a4:	05c3      	lsls	r3, r0, #23
    70a6:	eb00 fdc0 			; <UNDEFINED> instruction: 0xeb00fdc0
    70aa:	eaff 05c8 			; <UNDEFINED> instruction: 0xeaff05c8
    70ae:	eb00 4000 	add.w	r0, r0, r0, lsl #16
    70b2:	e1a0      	b.n	0x73f6
    70b4:	9000      	str	r0, [sp, #0]
    70b6:	e1a0      	b.n	0x73fa
    70b8:	fed1 eaff 			; <UNDEFINED> instruction: 0xfed1eaff
    70bc:	3001      	adds	r0, #1
    70be:	e3a0      	b.n	0x7802
    70c0:	3094      	adds	r0, #148	; 0x94
    70c2:	e58d      	b.n	0x6be0
    70c4:	3024      	adds	r0, #36	; 0x24
    70c6:	e58d      	b.n	0x6be4
    70c8:	fcad eaff 			; <UNDEFINED> instruction: 0xfcadeaff
    70cc:	5000      	str	r0, [r0, r0]
    70ce:	e3a0      	b.n	0x7812
    70d0:	4005      	ands	r5, r0
    70d2:	e1a0      	b.n	0x7416
    70d4:	fdff eaff 			; <UNDEFINED> instruction: 0xfdffeaff
    70d8:	2008      	movs	r0, #8
    70da:	e28d      	b.n	0x75f8
    70dc:	0006      	movs	r6, r0
    70de:	e892 0000 	ldmia.w	r2, {}
    70e2:	e351      	b.n	0x7788
    70e4:	fdbe 1aff 			; <UNDEFINED> instruction: 0xfdbe1aff
    70e8:	34ff      	adds	r4, #255	; 0xff
    70ea:	e3c2      	b.n	0x7872
    70ec:	360f      	adds	r6, #15
    70ee:	e3c3      	b.n	0x7878
    70f0:	0000      	movs	r0, r0
    70f2:	e353      	b.n	0x779c
    70f4:	8008      	strh	r0, [r1, #0]
    70f6:	159d      	asrs	r5, r3, #22
    70f8:	3002      	adds	r0, #2
    70fa:	e1a0      	b.n	0x743e
    70fc:	fdb9 1aff 			; <UNDEFINED> instruction: 0xfdb91aff
    7100:	ffce eaff 			; <UNDEFINED> instruction: 0xffceeaff
    7104:	3024      	adds	r0, #36	; 0x24
    7106:	e59d      	b.n	0x6c44
    7108:	0000      	movs	r0, r0
    710a:	e353      	b.n	0x77b4
    710c:	fe51 0aff 			; <UNDEFINED> instruction: 0xfe510aff
    7110:	704c      	strb	r4, [r1, #1]
    7112:	e59d      	b.n	0x6c50
    7114:	0000      	movs	r0, r0
    7116:	e357      	b.n	0x77c8
    7118:	fd60 daff 			; <UNDEFINED> instruction: 0xfd60daff
    711c:	2000      	movs	r0, #0
    711e:	e3a0      	b.n	0x7862
    7120:	3e0c      	subs	r6, #12
    7122:	e51f      	b.n	0x6b64
    7124:	0004      	movs	r4, r0
    7126:	e1a0      	b.n	0x746a
    7128:	1005      	asrs	r5, r0, #32
    712a:	e1a0      	b.n	0x746e
    712c:	e8b7 ebff 	ldmia.w	r7!, {r0, r1, r2, r3, r4, r5, r6, r7, r8, r9, fp, sp, lr, pc}
    7130:	4000      	ands	r0, r0
    7132:	e1a0      	b.n	0x7476
    7134:	5001      	str	r1, [r0, r0]
    7136:	e1a0      	b.n	0x747a
    7138:	0001      	movs	r1, r0
    713a:	e288      	b.n	0x764e
    713c:	4008      	ands	r0, r1
    713e:	e58d      	b.n	0x6c5c
    7140:	500c      	str	r4, [r1, r0]
    7142:	e58d      	b.n	0x6c60
    7144:	e878 ebff 	ldrd	lr, fp, [r8], #-1020	; 0x3fc
    7148:	2004      	movs	r0, #4
    714a:	e1a0      	b.n	0x748e
    714c:	3005      	adds	r0, #5
    714e:	e1a0      	b.n	0x7492
    7150:	e8ae ebff 	stmia.w	lr!, {r0, r1, r2, r3, r4, r5, r6, r7, r8, r9, fp, sp, lr, pc}
    7154:	2000      	movs	r0, #0
    7156:	e3a0      	b.n	0x789a
    7158:	3e4c      	subs	r6, #76	; 0x4c
    715a:	e51f      	b.n	0x6b9c
    715c:	e7a5      	b.n	0x70aa
    715e:	ebff 2018 			; <UNDEFINED> instruction: 0xebff2018
    7162:	e59d      	b.n	0x6ca0
    7164:	2001      	movs	r0, #1
    7166:	e242      	b.n	0x75ee
    7168:	4000      	ands	r0, r0
    716a:	e1a0      	b.n	0x74ae
    716c:	2058      	movs	r0, #88	; 0x58
    716e:	e58d      	b.n	0x6c8c
    7170:	550d      	strb	r5, [r1, r4]
    7172:	e241      	b.n	0x75f8
    7174:	fcd3 eaff 			; <UNDEFINED> instruction: 0xfcd3eaff
    7178:	2048      	movs	r0, #72	; 0x48
    717a:	e59d      	b.n	0x6cb8
    717c:	0000      	movs	r0, r0
    717e:	e352      	b.n	0x7826
    7180:	3060      	adds	r0, #96	; 0x60
    7182:	059d      	lsls	r5, r3, #22
    7184:	3e43      	subs	r6, #67	; 0x43
    7186:	1283      	asrs	r3, r0, #10
    7188:	201c      	movs	r0, #28
    718a:	e59d      	b.n	0x6cc8
    718c:	3003      	adds	r0, #3
    718e:	1283      	asrs	r3, r0, #10
    7190:	3036      	adds	r0, #54	; 0x36
    7192:	0263      	lsls	r3, r4, #9
    7194:	2003      	movs	r0, #3
    7196:	e082      	b.n	0x729e
    7198:	201c      	movs	r0, #28
    719a:	e58d      	b.n	0x6cb8
    719c:	2030      	movs	r0, #48	; 0x30
    719e:	e59d      	b.n	0x6cdc
    71a0:	3003      	adds	r0, #3
    71a2:	e082      	b.n	0x72aa
    71a4:	6002      	str	r2, [r0, #0]
    71a6:	e1a0      	b.n	0x74ea
    71a8:	3030      	adds	r0, #48	; 0x30
    71aa:	e58d      	b.n	0x6cc8
    71ac:	5038      	str	r0, [r7, r0]
    71ae:	e59d      	b.n	0x6cec
    71b0:	fd65 eaff 			; <UNDEFINED> instruction: 0xfd65eaff
    71b4:	1000      	asrs	r0, r0, #32
    71b6:	e3a0      	b.n	0x78fa
    71b8:	000b      	movs	r3, r1
    71ba:	e1a0      	b.n	0x74fe
    71bc:	1044      	asrs	r4, r0, #1
    71be:	e58b      	b.n	0x6cd8
    71c0:	0559      	lsls	r1, r3, #21
    71c2:	eb00 2018 	add.w	r0, r0, r8, lsr #8
    71c6:	e59d      	b.n	0x6d04
    71c8:	3064      	adds	r0, #100	; 0x64
    71ca:	e59d      	b.n	0x6d08
    71cc:	000e      	movs	r6, r1
    71ce:	e352      	b.n	0x7876
    71d0:	2000      	movs	r0, #0
    71d2:	c3a0      	stmia	r3!, {r5, r7}
    71d4:	2001      	movs	r0, #1
    71d6:	d3a0      	bcc.n	0x711a
    71d8:	0000      	movs	r0, r0
    71da:	e353      	b.n	0x7884
    71dc:	2000      	movs	r0, #0
    71de:	b3a0      	cbz	r0, 0x724a
    71e0:	0000      	movs	r0, r0
    71e2:	e352      	b.n	0x788a
    71e4:	0020      	movs	r0, r4
    71e6:	e58d      	b.n	0x6d04
    71e8:	0040      	lsls	r0, r0, #1
    71ea:	e58b      	b.n	0x6d04
    71ec:	0101      	lsls	r1, r0, #4
    71ee:	0a00      	lsrs	r0, r0, #8
    71f0:	3ee0      	subs	r6, #224	; 0xe0
    71f2:	e51f      	b.n	0x6c34
    71f4:	2018      	movs	r0, #24
    71f6:	e59d      	b.n	0x6d34
    71f8:	3182      	adds	r1, #130	; 0x82
    71fa:	e083      	b.n	0x7304
    71fc:	0018      	movs	r0, r3
    71fe:	e893 3010 	ldmia.w	r3, {r4, ip, sp}
    7202:	e58d      	b.n	0x6d20
    7204:	4014      	ands	r4, r2
    7206:	e58d      	b.n	0x6d24
    7208:	3000      	adds	r0, #0
    720a:	e3e0      	b.n	0x79ce
    720c:	3024      	adds	r0, #36	; 0x24
    720e:	e58d      	b.n	0x6d2c
    7210:	5008      	str	r0, [r1, r0]
    7212:	e28d      	b.n	0x7730
    7214:	0030      	movs	r0, r6
    7216:	e895 3010 	ldmia.w	r5, {r4, ip, sp}
    721a:	e28d      	b.n	0x7738
    721c:	000c      	movs	r4, r1
    721e:	e893 0004 	ldmia.w	r3, {r2}
    7222:	e1a0      	b.n	0x7566
    7224:	1005      	asrs	r5, r0, #32
    7226:	e1a0      	b.n	0x756a
    7228:	e91c ebff 	ldmdb	ip, {r0, r1, r2, r3, r4, r5, r6, r7, r8, r9, fp, sp, lr, pc}
    722c:	e9fd ebff 	ldrd	lr, fp, [sp, #1020]!	; 0x3fc
    7230:	7000      	strb	r0, [r0, #0]
    7232:	e1a0      	b.n	0x7576
    7234:	e83c ebff 			; <UNDEFINED> instruction: 0xe83cebff
    7238:	3010      	adds	r0, #16
    723a:	e28d      	b.n	0x7758
    723c:	000c      	movs	r4, r1
    723e:	e893 e872 	ldmia.w	r3, {r1, r4, r5, r6, fp, sp, lr, pc}
    7242:	ebff 2000 			; <UNDEFINED> instruction: 0xebff2000
    7246:	e1a0      	b.n	0x758a
    7248:	3001      	adds	r0, #1
    724a:	e1a0      	b.n	0x758e
    724c:	0004      	movs	r4, r0
    724e:	e1a0      	b.n	0x7592
    7250:	1005      	asrs	r5, r0, #32
    7252:	e1a0      	b.n	0x7596
    7254:	e766      	b.n	0x7124
    7256:	ebff e018 			; <UNDEFINED> instruction: 0xebffe018
    725a:	e59d      	b.n	0x6d98
    725c:	9024      	str	r0, [sp, #144]	; 0x90
    725e:	e59d      	b.n	0x6d9c
    7260:	8020      	strh	r0, [r4, #0]
    7262:	e59d      	b.n	0x6da0
    7264:	c030      	stmia	r0!, {r4, r5}
    7266:	e287      	b.n	0x7778
    7268:	e001      	b.n	0x726e
    726a:	e28e      	b.n	0x778a
    726c:	0001      	movs	r1, r0
    726e:	e359      	b.n	0x7924
    7270:	2000      	movs	r0, #0
    7272:	e1a0      	b.n	0x75b6
    7274:	3001      	adds	r0, #1
    7276:	e1a0      	b.n	0x75ba
    7278:	e018      	b.n	0x72ac
    727a:	e58d      	b.n	0x6d98
    727c:	c001      	stmia	r0!, {r0}
    727e:	e4c8      	b.n	0x6c12
    7280:	0032      	movs	r2, r6
    7282:	0a00      	lsrs	r0, r0, #8
    7284:	2000      	movs	r0, #0
    7286:	e3a0      	b.n	0x79ca
    7288:	3f74      	subs	r7, #116	; 0x74
    728a:	e51f      	b.n	0x6ccc
    728c:	e85f ebff 			; <UNDEFINED> instruction: 0xe85febff
    7290:	2000      	movs	r0, #0
    7292:	e3a0      	b.n	0x79d6
    7294:	3000      	adds	r0, #0
    7296:	e3a0      	b.n	0x79da
    7298:	4000      	ands	r0, r0
    729a:	e1a0      	b.n	0x75de
    729c:	5001      	str	r1, [r0, r0]
    729e:	e1a0      	b.n	0x75e2
    72a0:	e9b4 ebff 			; <UNDEFINED> instruction: 0xe9b4ebff
    72a4:	0000      	movs	r0, r0
    72a6:	e350      	b.n	0x794a
    72a8:	0073      	lsls	r3, r6, #1
    72aa:	1a00      	subs	r0, r0, r0
    72ac:	a008      	add	r0, pc, #32	; (adr r0, 0x72d0)
    72ae:	e58d      	b.n	0x6dcc
    72b0:	b01c      	add	sp, #112	; 0x70
    72b2:	e58d      	b.n	0x6dd0
    72b4:	6001      	str	r1, [r0, #0]
    72b6:	e3a0      	b.n	0x79fa
    72b8:	b010      	add	sp, #64	; 0x40
    72ba:	e28d      	b.n	0x77d8
    72bc:	0c00      	lsrs	r0, r0, #16
    72be:	e89b 0009 	ldmia.w	fp, {r0, r3}
    72c2:	ea00 2000 	and.w	r0, r0, r0, lsl #8
    72c6:	e3a0      	b.n	0x7a0a
    72c8:	3fb4      	subs	r7, #180	; 0xb4
    72ca:	e51f      	b.n	0x6d0c
    72cc:	e84f ebff 	strex	fp, lr, [pc, #1020]	; 0x3fc
    72d0:	2000      	movs	r0, #0
    72d2:	e3a0      	b.n	0x7a16
    72d4:	3000      	adds	r0, #0
    72d6:	e3a0      	b.n	0x7a1a
    72d8:	4000      	ands	r0, r0
    72da:	e1a0      	b.n	0x761e
    72dc:	5001      	str	r1, [r0, r0]
    72de:	e1a0      	b.n	0x7622
    72e0:	e9a4 ebff 			; <UNDEFINED> instruction: 0xe9a4ebff
    72e4:	0000      	movs	r0, r0
    72e6:	e350      	b.n	0x798a
    72e8:	0061      	lsls	r1, r4, #1
    72ea:	1a00      	subs	r0, r0, r0
    72ec:	200a      	movs	r0, #10
    72ee:	e1a0      	b.n	0x7632
    72f0:	300b      	adds	r0, #11
    72f2:	e1a0      	b.n	0x7636
    72f4:	0004      	movs	r4, r0
    72f6:	e1a0      	b.n	0x763a
    72f8:	1005      	asrs	r5, r0, #32
    72fa:	e1a0      	b.n	0x763e
    72fc:	e8e7 ebff 	strd	lr, fp, [r7], #1020	; 0x3fc
    7300:	e9c8 ebff 	strd	lr, fp, [r8, #1020]	; 0x3fc
    7304:	7000      	strb	r0, [r0, #0]
    7306:	e1a0      	b.n	0x764a
    7308:	e807 ebff 			; <UNDEFINED> instruction: 0xe807ebff
    730c:	200a      	movs	r0, #10
    730e:	e1a0      	b.n	0x7652
    7310:	300b      	adds	r0, #11
    7312:	e1a0      	b.n	0x7656
    7314:	e83d ebff 			; <UNDEFINED> instruction: 0xe83debff
    7318:	2000      	movs	r0, #0
    731a:	e1a0      	b.n	0x765e
    731c:	3001      	adds	r0, #1
    731e:	e1a0      	b.n	0x7662
    7320:	0004      	movs	r4, r0
    7322:	e1a0      	b.n	0x7666
    7324:	1005      	asrs	r5, r0, #32
    7326:	e1a0      	b.n	0x766a
    7328:	e731      	b.n	0x718e
    732a:	ebff 6001 			; <UNDEFINED> instruction: 0xebff6001
    732e:	e286      	b.n	0x783e
    7330:	c030      	stmia	r0!, {r4, r5}
    7332:	e287      	b.n	0x7844
    7334:	0009      	movs	r1, r1
    7336:	e156      	b.n	0x75e6
    7338:	2000      	movs	r0, #0
    733a:	e1a0      	b.n	0x767e
    733c:	3001      	adds	r0, #1
    733e:	e1a0      	b.n	0x7682
    7340:	c001      	stmia	r0!, {r0}
    7342:	e4c8      	b.n	0x6cd6
    7344:	ffde 1aff 			; <UNDEFINED> instruction: 0xffde1aff
    7348:	a008      	add	r0, pc, #32	; (adr r0, 0x736c)
    734a:	e59d      	b.n	0x6e88
    734c:	b01c      	add	sp, #112	; 0x70
    734e:	e59d      	b.n	0x6e8c
    7350:	0002      	movs	r2, r0
    7352:	e1a0      	b.n	0x7696
    7354:	1003      	asrs	r3, r0, #32
    7356:	e1a0      	b.n	0x769a
    7358:	e726      	b.n	0x71a8
    735a:	ebff 3010 			; <UNDEFINED> instruction: 0xebff3010
    735e:	e28d      	b.n	0x787c
    7360:	000c      	movs	r4, r1
    7362:	e893 4000 	ldmia.w	r3, {lr}
    7366:	e1a0      	b.n	0x76aa
    7368:	5001      	str	r1, [r0, r0]
    736a:	e1a0      	b.n	0x76ae
    736c:	e999 ebff 			; <UNDEFINED> instruction: 0xe999ebff
    7370:	0000      	movs	r0, r0
    7372:	e350      	b.n	0x7a16
    7374:	0073      	lsls	r3, r6, #1
    7376:	0a00      	lsrs	r0, r0, #8
    7378:	7020      	strb	r0, [r4, #0]
    737a:	e59d      	b.n	0x6eb8
    737c:	9001      	str	r0, [sp, #4]
    737e:	e558      	b.n	0x6e32
    7380:	8001      	strh	r1, [r0, #0]
    7382:	e248      	b.n	0x7816
    7384:	0002      	movs	r2, r0
    7386:	ea00 0008 	and.w	r0, r0, r8
    738a:	e157      	b.n	0x763c
    738c:	001d      	movs	r5, r3
    738e:	0a00      	lsrs	r0, r0, #8
    7390:	9001      	str	r0, [sp, #4]
    7392:	e578      	b.n	0x6e86
    7394:	0039      	movs	r1, r7
    7396:	e359      	b.n	0x7a4c
    7398:	3001      	adds	r0, #1
    739a:	e288      	b.n	0x78ae
    739c:	fff9 0aff 			; <UNDEFINED> instruction: 0xfff90aff
    73a0:	3020      	adds	r0, #32
    73a2:	e58d      	b.n	0x6ec0
    73a4:	3001      	adds	r0, #1
    73a6:	e289      	b.n	0x78bc
    73a8:	30ff      	adds	r0, #255	; 0xff
    73aa:	e203      	b.n	0x77b4
    73ac:	3000      	adds	r0, #0
    73ae:	e5c8      	b.n	0x6f42
    73b0:	fd59 eaff 			; <UNDEFINED> instruction: 0xfd59eaff
    73b4:	0002      	movs	r2, r0
    73b6:	1a00      	subs	r0, r0, r0
    73b8:	3008      	adds	r0, #8
    73ba:	e59d      	b.n	0x6ef8
    73bc:	0001      	movs	r1, r0
    73be:	e313      	b.n	0x79e8
    73c0:	fe90 1aff 			; <UNDEFINED> instruction: 0xfe901aff
    73c4:	3001      	adds	r0, #1
    73c6:	e246      	b.n	0x7856
    73c8:	0000      	movs	r0, r0
    73ca:	ea00 2001 	and.w	r0, r0, r1, lsl #8
    73ce:	e573      	b.n	0x6eb8
    73d0:	0030      	movs	r0, r6
    73d2:	e352      	b.n	0x7a7a
    73d4:	6001      	str	r1, [r0, #0]
    73d6:	e283      	b.n	0x78e0
    73d8:	fffb 0aff 			; <UNDEFINED> instruction: 0xfffb0aff
    73dc:	fe94 eaff 			; <UNDEFINED> instruction: 0xfe94eaff
    73e0:	7020      	strb	r0, [r4, #0]
    73e2:	e59d      	b.n	0x6f20
    73e4:	6020      	str	r0, [r4, #0]
    73e6:	e58d      	b.n	0x6f04
    73e8:	fd4b eaff 			; <UNDEFINED> instruction: 0xfd4beaff
    73ec:	3031      	adds	r0, #49	; 0x31
    73ee:	e3a0      	b.n	0x7b32
    73f0:	2018      	movs	r0, #24
    73f2:	e59d      	b.n	0x6f30
    73f4:	2001      	movs	r0, #1
    73f6:	e282      	b.n	0x78fe
    73f8:	2018      	movs	r0, #24
    73fa:	e58d      	b.n	0x6f18
    73fc:	2020      	movs	r0, #32
    73fe:	e59d      	b.n	0x6f3c
    7400:	3000      	adds	r0, #0
    7402:	e5c2      	b.n	0x6f8a
    7404:	fe8a eaff 			; <UNDEFINED> instruction: 0xfe8aeaff
    7408:	3020      	adds	r0, #32
    740a:	e58d      	b.n	0x6f28
    740c:	3018      	adds	r0, #24
    740e:	e59d      	b.n	0x6f4c
    7410:	3001      	adds	r0, #1
    7412:	e283      	b.n	0x791c
    7414:	3018      	adds	r0, #24
    7416:	e58d      	b.n	0x6f34
    7418:	3031      	adds	r0, #49	; 0x31
    741a:	e3a0      	b.n	0x7b5e
    741c:	ffe2 eaff 			; <UNDEFINED> instruction: 0xffe2eaff
    7420:	0000      	movs	r0, r0
    7422:	e352      	b.n	0x7aca
    7424:	000e      	movs	r6, r1
    7426:	da00      	bge.n	0x742a
    7428:	100a      	asrs	r2, r1, #32
    742a:	e1a0      	b.n	0x776e
    742c:	2001      	movs	r0, #1
    742e:	e3a0      	b.n	0x7b72
    7430:	000b      	movs	r3, r1
    7432:	e1a0      	b.n	0x7776
    7434:	3010      	adds	r0, #16
    7436:	e58d      	b.n	0x6f54
    7438:	0620      	lsls	r0, r4, #24
    743a:	eb00 1005 	add.w	r0, r0, r5, lsl #4
    743e:	e1a0      	b.n	0x7782
    7440:	a000      	add	r0, pc, #0	; (adr r0, 0x7444)
    7442:	e1a0      	b.n	0x7786
    7444:	065b      	lsls	r3, r3, #25
    7446:	eb00 0000 	add.w	r0, r0, r0
    744a:	e350      	b.n	0x7aee
    744c:	3010      	adds	r0, #16
    744e:	e59d      	b.n	0x6f8c
    7450:	0059      	lsls	r1, r3, #1
    7452:	da00      	bge.n	0x7456
    7454:	0039      	movs	r1, r7
    7456:	e353      	b.n	0x7b00
    7458:	0031      	movs	r1, r6
    745a:	0a00      	lsrs	r0, r0, #8
    745c:	3008      	adds	r0, #8
    745e:	e59d      	b.n	0x6f9c
    7460:	3031      	adds	r0, #49	; 0x31
    7462:	e283      	b.n	0x796c
    7464:	7004      	strb	r4, [r0, #0]
    7466:	e1a0      	b.n	0x77aa
    7468:	3000      	adds	r0, #0
    746a:	e5c8      	b.n	0x6ffe
    746c:	4009      	ands	r1, r1
    746e:	e1a0      	b.n	0x77b2
    7470:	fe6f eaff 			; <UNDEFINED> instruction: 0xfe6feaff
    7474:	a008      	add	r0, pc, #32	; (adr r0, 0x7498)
    7476:	e59d      	b.n	0x6fb4
    7478:	b01c      	add	sp, #112	; 0x70
    747a:	e59d      	b.n	0x6fb8
    747c:	7020      	strb	r0, [r4, #0]
    747e:	e59d      	b.n	0x6fbc
    7480:	8020      	strh	r0, [r4, #0]
    7482:	e58d      	b.n	0x6fa0
    7484:	fd24 eaff 			; <UNDEFINED> instruction: 0xfd24eaff
    7488:	3058      	adds	r0, #88	; 0x58
    748a:	e59d      	b.n	0x6fc8
    748c:	3001      	adds	r0, #1
    748e:	e283      	b.n	0x7998
    7490:	3018      	adds	r0, #24
    7492:	e58d      	b.n	0x6fb0
    7494:	7020      	strb	r0, [r4, #0]
    7496:	e59d      	b.n	0x6fd4
    7498:	9001      	str	r0, [sp, #4]
    749a:	e558      	b.n	0x6f4e
    749c:	ffb7 eaff 			; <UNDEFINED> instruction: 0xffb7eaff
    74a0:	1004      	asrs	r4, r0, #32
    74a2:	e594      	b.n	0x6fce
    74a4:	000b      	movs	r3, r1
    74a6:	e1a0      	b.n	0x77ea
    74a8:	049f      	lsls	r7, r3, #18
    74aa:	eb00 6000 	add.w	r0, r0, r0, lsl #24
    74ae:	e1a0      	b.n	0x77f2
    74b0:	2010      	movs	r0, #16
    74b2:	e594      	b.n	0x6fde
    74b4:	2002      	movs	r0, #2
    74b6:	e282      	b.n	0x79be
    74b8:	2102      	movs	r1, #2
    74ba:	e1a0      	b.n	0x77fe
    74bc:	100c      	asrs	r4, r1, #32
    74be:	e284      	b.n	0x79ca
    74c0:	000c      	movs	r4, r1
    74c2:	e280      	b.n	0x79c6
    74c4:	ea22 ebff 			; <UNDEFINED> instruction: 0xea22ebff
    74c8:	1006      	asrs	r6, r0, #32
    74ca:	e1a0      	b.n	0x780e
    74cc:	2001      	movs	r0, #1
    74ce:	e3a0      	b.n	0x7c12
    74d0:	000b      	movs	r3, r1
    74d2:	e1a0      	b.n	0x7816
    74d4:	05f9      	lsls	r1, r7, #23
    74d6:	eb00 9000 			; <UNDEFINED> instruction: 0xeb009000
    74da:	e1a0      	b.n	0x781e
    74dc:	fd8d eaff 			; <UNDEFINED> instruction: 0xfd8deaff
    74e0:	3058      	adds	r0, #88	; 0x58
    74e2:	e28d      	b.n	0x7a00
    74e4:	0808      	lsrs	r0, r1, #32
    74e6:	e893 3001 	ldmia.w	r3, {r0, ip, sp}
    74ea:	e283      	b.n	0x79f4
    74ec:	a050      	add	r0, pc, #320	; (adr r0, 0x7630)
    74ee:	e59d      	b.n	0x702c
    74f0:	3018      	adds	r0, #24
    74f2:	e58d      	b.n	0x7010
    74f4:	7020      	strb	r0, [r4, #0]
    74f6:	e59d      	b.n	0x7034
    74f8:	ffa0 eaff 			; <UNDEFINED> instruction: 0xffa0eaff
    74fc:	0039      	movs	r1, r7
    74fe:	e353      	b.n	0x7ba8
    7500:	0007      	movs	r7, r0
    7502:	0a00      	lsrs	r0, r0, #8
    7504:	3001      	adds	r0, #1
    7506:	e283      	b.n	0x7a10
    7508:	7004      	strb	r4, [r0, #0]
    750a:	e1a0      	b.n	0x784e
    750c:	3000      	adds	r0, #0
    750e:	e5c8      	b.n	0x70a2
    7510:	4009      	ands	r1, r1
    7512:	e1a0      	b.n	0x7856
    7514:	fe46 eaff 			; <UNDEFINED> instruction: 0xfe46eaff
    7518:	7004      	strb	r4, [r0, #0]
    751a:	e1a0      	b.n	0x785e
    751c:	4009      	ands	r1, r1
    751e:	e1a0      	b.n	0x7862
    7520:	fe2d eaff 			; <UNDEFINED> instruction: 0xfe2deaff
    7524:	2039      	movs	r0, #57	; 0x39
    7526:	e3a0      	b.n	0x7c6a
    7528:	7004      	strb	r4, [r0, #0]
    752a:	e1a0      	b.n	0x786e
    752c:	2000      	movs	r0, #0
    752e:	e5c8      	b.n	0x70c2
    7530:	4009      	ands	r1, r1
    7532:	e1a0      	b.n	0x7876
    7534:	fe33 eaff 			; <UNDEFINED> instruction: 0xfe33eaff
    7538:	304c      	adds	r0, #76	; 0x4c
    753a:	e59d      	b.n	0x7078
    753c:	7018      	strb	r0, [r3, #0]
    753e:	e58d      	b.n	0x705c
    7540:	3024      	adds	r0, #36	; 0x24
    7542:	e58d      	b.n	0x7060
    7544:	fcd6 eaff 			; <UNDEFINED> instruction: 0xfcd6eaff
    7548:	3010      	adds	r0, #16
    754a:	e28d      	b.n	0x7a68
    754c:	000c      	movs	r4, r1
    754e:	e893 0004 	ldmia.w	r3, {r2}
    7552:	e1a0      	b.n	0x7896
    7554:	1005      	asrs	r5, r0, #32
    7556:	e1a0      	b.n	0x789a
    7558:	e906 ebff 	stmdb	r6, {r0, r1, r2, r3, r4, r5, r6, r7, r8, r9, fp, sp, lr, pc}
    755c:	0000      	movs	r0, r0
    755e:	e350      	b.n	0x7c02
    7560:	ffc5 0aff 			; <UNDEFINED> instruction: 0xffc50aff
    7564:	0001      	movs	r1, r0
    7566:	e317      	b.n	0x7b98
    7568:	7020      	strb	r0, [r4, #0]
    756a:	e59d      	b.n	0x70a8
    756c:	ffc3 0aff 			; <UNDEFINED> instruction: 0xffc30aff
    7570:	9001      	str	r0, [sp, #4]
    7572:	e558      	b.n	0x7026
    7574:	ff81 eaff 			; <UNDEFINED> instruction: 0xff81eaff
    7578:	0039      	movs	r1, r7
    757a:	e353      	b.n	0x7c24
    757c:	6001      	str	r1, [r0, #0]
    757e:	e288      	b.n	0x7a92
    7580:	ffe7 0aff 			; <UNDEFINED> instruction: 0xffe70aff
    7584:	0000      	movs	r0, r0
    7586:	e357      	b.n	0x7c38
    7588:	ffb3 caff 			; <UNDEFINED> instruction: 0xffb3caff
    758c:	ffb4 eaff 			; <UNDEFINED> instruction: 0xffb4eaff
    7590:	1004      	asrs	r4, r0, #32
    7592:	e1a0      	b.n	0x78d6
    7594:	3000      	adds	r0, #0
    7596:	e3a0      	b.n	0x7cda
    7598:	200a      	movs	r0, #10
    759a:	e3a0      	b.n	0x7cde
    759c:	000b      	movs	r3, r1
    759e:	e1a0      	b.n	0x78e2
    75a0:	048b      	lsls	r3, r1, #18
    75a2:	eb00 0000 	add.w	r0, r0, r0
    75a6:	e359      	b.n	0x7c5c
    75a8:	4000      	ands	r0, r0
    75aa:	e1a0      	b.n	0x78ee
    75ac:	ffe1 1aff 			; <UNDEFINED> instruction: 0xffe11aff
    75b0:	304c      	adds	r0, #76	; 0x4c
    75b2:	e59d      	b.n	0x70f0
    75b4:	3024      	adds	r0, #36	; 0x24
    75b6:	e58d      	b.n	0x70d4
    75b8:	fd4c eaff 			; <UNDEFINED> instruction: 0xfd4ceaff
    75bc:	ffa8 1aff 			; <UNDEFINED> instruction: 0xffa81aff
    75c0:	0001      	movs	r1, r0
    75c2:	e313      	b.n	0x7bec
    75c4:	ffa2 1aff 			; <UNDEFINED> instruction: 0xffa21aff
    75c8:	ffa5 eaff 			; <UNDEFINED> instruction: 0xffa5eaff
    75cc:	3058      	adds	r0, #88	; 0x58
    75ce:	e59d      	b.n	0x710c
    75d0:	3001      	adds	r0, #1
    75d2:	e283      	b.n	0x7adc
    75d4:	7020      	strb	r0, [r4, #0]
    75d6:	e59d      	b.n	0x7114
    75d8:	3018      	adds	r0, #24
    75da:	e58d      	b.n	0x70f8
    75dc:	ff67 eaff 	vpmin.u32	q15, <illegal reg q11.5>, <illegal reg q15.5>
    75e0:	003c      	movs	r4, r7
    75e2:	1260      	asrs	r0, r4, #9
    75e4:	fd0f 1aff 			; <UNDEFINED> instruction: 0xfd0f1aff
    75e8:	fc90 eaff 			; <UNDEFINED> instruction: 0xfc90eaff
    75ec:	7020      	strb	r0, [r4, #0]
    75ee:	e59d      	b.n	0x712c
    75f0:	6020      	str	r0, [r4, #0]
    75f2:	e58d      	b.n	0x7110
    75f4:	fcc5 eaff 			; <UNDEFINED> instruction: 0xfcc5eaff
    75f8:	1000      	asrs	r0, r0, #32
    75fa:	e3e0      	b.n	0x7dbe
    75fc:	2094      	movs	r0, #148	; 0x94
    75fe:	e58d      	b.n	0x711c
    7600:	2001      	movs	r0, #1
    7602:	e3a0      	b.n	0x7d46
    7604:	1024      	asrs	r4, r4, #32
    7606:	e58d      	b.n	0x7124
    7608:	104c      	asrs	r4, r1, #1
    760a:	e58d      	b.n	0x7128
    760c:	2034      	movs	r0, #52	; 0x34
    760e:	e58d      	b.n	0x712c
    7610:	fc32 eaff 			; <UNDEFINED> instruction: 0xfc32eaff
    7614:	41f0      	rors	r0, r6
    7616:	e92d 4001 	stmdb	sp!, {r0, lr}
    761a:	e1a0      	b.n	0x795e
    761c:	70e4      	strb	r4, [r4, #3]
    761e:	e59f      	b.n	0x7160
    7620:	6000      	str	r0, [r0, #0]
    7622:	e1a0      	b.n	0x7966
    7624:	0434      	lsls	r4, r6, #16
    7626:	eb00 3008 	add.w	r0, r0, r8, lsl #12
    762a:	e597      	b.n	0x715c
    762c:	5004      	str	r4, [r0, r0]
    762e:	e593      	b.n	0x7158
    7630:	1efe      	subs	r6, r7, #3
    7632:	e264      	b.n	0x7afe
    7634:	100f      	asrs	r7, r1, #32
    7636:	e281      	b.n	0x7b3c
    7638:	5003      	str	r3, [r0, r0]
    763a:	e3c5      	b.n	0x7dc8
    763c:	1005      	asrs	r5, r0, #32
    763e:	e081      	b.n	0x7744
    7640:	1eff      	subs	r7, r7, #3
    7642:	e3c1      	b.n	0x7dc8
    7644:	100f      	asrs	r7, r1, #32
    7646:	e3c1      	b.n	0x7dcc
    7648:	4a01      	ldr	r2, [pc, #4]	; (0x7650)
    764a:	e241      	b.n	0x7ad0
    764c:	0a01      	lsrs	r1, r0, #8
    764e:	e354      	b.n	0x7cfa
    7650:	0006      	movs	r6, r0
    7652:	ba00      	rev	r0, r0
    7654:	1000      	asrs	r0, r0, #32
    7656:	e3a0      	b.n	0x7d9a
    7658:	0006      	movs	r6, r0
    765a:	e1a0      	b.n	0x799e
    765c:	09e1      	lsrs	r1, r4, #7
    765e:	eb00 3008 	add.w	r0, r0, r8, lsl #12
    7662:	e597      	b.n	0x7194
    7664:	3005      	adds	r0, #5
    7666:	e083      	b.n	0x7770
    7668:	0003      	movs	r3, r0
    766a:	e150      	b.n	0x790e
    766c:	0004      	movs	r4, r0
    766e:	0a00      	lsrs	r0, r0, #8
    7670:	0006      	movs	r6, r0
    7672:	e1a0      	b.n	0x79b6
    7674:	0426      	lsls	r6, r4, #16
    7676:	eb00 0000 	add.w	r0, r0, r0
    767a:	e3a0      	b.n	0x7dbe
    767c:	41f0      	rors	r0, r6
    767e:	e8bd ff1e 	ldmia.w	sp!, {r1, r2, r3, r4, r8, r9, sl, fp, ip, sp, lr, pc}
    7682:	e12f      	b.n	0x78e4
    7684:	1000      	asrs	r0, r0, #32
    7686:	e264      	b.n	0x7b52
    7688:	0006      	movs	r6, r0
    768a:	e1a0      	b.n	0x79ce
    768c:	09d5      	lsrs	r5, r2, #7
    768e:	eb00 0001 	add.w	r0, r0, r1
    7692:	e370      	b.n	0x7d76
    7694:	000c      	movs	r4, r1
    7696:	0a00      	lsrs	r0, r0, #8
    7698:	306c      	adds	r0, #108	; 0x6c
    769a:	e59f      	b.n	0x71dc
    769c:	2008      	movs	r0, #8
    769e:	e597      	b.n	0x71d0
    76a0:	1000      	asrs	r0, r0, #32
    76a2:	e593      	b.n	0x71cc
    76a4:	5004      	str	r4, [r0, r0]
    76a6:	e045      	b.n	0x7734
    76a8:	5001      	str	r1, [r0, r0]
    76aa:	e385      	b.n	0x7db8
    76ac:	0006      	movs	r6, r0
    76ae:	e1a0      	b.n	0x79f2
    76b0:	1004      	asrs	r4, r0, #32
    76b2:	e041      	b.n	0x7738
    76b4:	5004      	str	r4, [r0, r0]
    76b6:	e582      	b.n	0x71be
    76b8:	1000      	asrs	r0, r0, #32
    76ba:	e583      	b.n	0x71c4
    76bc:	0414      	lsls	r4, r2, #16
    76be:	eb00 0001 	add.w	r0, r0, r1
    76c2:	e3a0      	b.n	0x7e06
    76c4:	41f0      	rors	r0, r6
    76c6:	e8bd ff1e 	ldmia.w	sp!, {r1, r2, r3, r4, r8, r9, sl, fp, ip, sp, lr, pc}
    76ca:	e12f      	b.n	0x792c
    76cc:	1000      	asrs	r0, r0, #32
    76ce:	e3a0      	b.n	0x7e12
    76d0:	0006      	movs	r6, r0
    76d2:	e1a0      	b.n	0x7a16
    76d4:	09c3      	lsrs	r3, r0, #7
    76d6:	eb00 2008 	add.w	r0, r0, r8, lsl #8
    76da:	e597      	b.n	0x720c
    76dc:	3002      	adds	r0, #2
    76de:	e040      	b.n	0x7762
    76e0:	000f      	movs	r7, r1
    76e2:	e353      	b.n	0x7d8c
    76e4:	ffe1 daff 			; <UNDEFINED> instruction: 0xffe1daff
    76e8:	1020      	asrs	r0, r4, #32
    76ea:	e59f      	b.n	0x722c
    76ec:	c000      	stmia	r0!, {}
    76ee:	e591      	b.n	0x7214
    76f0:	1014      	asrs	r4, r2, #32
    76f2:	e59f      	b.n	0x7234
    76f4:	3001      	adds	r0, #1
    76f6:	e383      	b.n	0x7e00
    76f8:	000c      	movs	r4, r1
    76fa:	e040      	b.n	0x777e
    76fc:	3004      	adds	r0, #4
    76fe:	e582      	b.n	0x7206
    7700:	0000      	movs	r0, r0
    7702:	e581      	b.n	0x7208
    7704:	ffd9 eaff 			; <UNDEFINED> instruction: 0xffd9eaff
    7708:	0358      	lsls	r0, r3, #13
    770a:	0300      	lsls	r0, r0, #12
    770c:	00e4      	lsls	r4, r4, #3
    770e:	0300      	lsls	r0, r0, #12
    7710:	0760      	lsls	r0, r4, #29
    7712:	0300      	lsls	r0, r0, #12
    7714:	41f0      	rors	r0, r6
    7716:	e92d 5000 	stmdb	sp!, {ip, lr}
    771a:	e251      	b.n	0x7bc0
    771c:	0032      	movs	r2, r6
    771e:	0a00      	lsrs	r0, r0, #8
    7720:	4000      	ands	r0, r0
    7722:	e1a0      	b.n	0x7a66
    7724:	03f4      	lsls	r4, r6, #15
    7726:	eb00 0004 	add.w	r0, r0, r4
    772a:	e515      	b.n	0x7158
    772c:	e2b0      	b.n	0x7c90
    772e:	e59f      	b.n	0x7270
    7730:	3001      	adds	r0, #1
    7732:	e3c0      	b.n	0x7eb6
    7734:	c008      	stmia	r0!, {r3}
    7736:	e245      	b.n	0x7bc4
    7738:	1003      	asrs	r3, r0, #32
    773a:	e08c      	b.n	0x7856
    773c:	6008      	str	r0, [r1, #0]
    773e:	e59e      	b.n	0x727e
    7740:	2004      	movs	r0, #4
    7742:	e591      	b.n	0x7268
    7744:	0001      	movs	r1, r0
    7746:	e156      	b.n	0x79f6
    7748:	2003      	movs	r0, #3
    774a:	e3c2      	b.n	0x7ed2
    774c:	0063      	lsls	r3, r4, #1
    774e:	0a00      	lsrs	r0, r0, #8
    7750:	0001      	movs	r1, r0
    7752:	e310      	b.n	0x7d76
    7754:	2004      	movs	r0, #4
    7756:	e581      	b.n	0x725c
    7758:	0002      	movs	r2, r0
    775a:	e081      	b.n	0x7860
    775c:	0024      	movs	r4, r4
    775e:	1a00      	subs	r0, r0, r0
    7760:	7008      	strb	r0, [r1, #0]
    7762:	e515      	b.n	0x7190
    7764:	c007      	stmia	r0!, {r0, r1, r2}
    7766:	e04c      	b.n	0x7802
    7768:	5008      	str	r0, [r1, r0]
    776a:	e59c      	b.n	0x72a6
    776c:	0004      	movs	r4, r0
    776e:	e590      	b.n	0x7292
    7770:	6008      	str	r0, [r1, #0]
    7772:	e28e      	b.n	0x7c92
    7774:	0006      	movs	r6, r0
    7776:	e155      	b.n	0x7a24
    7778:	3007      	adds	r0, #7
    777a:	e083      	b.n	0x7884
    777c:	0001      	movs	r1, r0
    777e:	e200      	b.n	0x7b82
    7780:	0048      	lsls	r0, r1, #1
    7782:	0a00      	lsrs	r0, r0, #8
    7784:	700c      	strb	r4, [r1, #0]
    7786:	e59c      	b.n	0x72c2
    7788:	0000      	movs	r0, r0
    778a:	e350      	b.n	0x7e2e
    778c:	700c      	strb	r4, [r1, #0]
    778e:	e585      	b.n	0x729c
    7790:	5008      	str	r0, [r1, r0]
    7792:	e587      	b.n	0x72a4
    7794:	0070      	lsls	r0, r6, #1
    7796:	0a00      	lsrs	r0, r0, #8
    7798:	2001      	movs	r0, #1
    779a:	e383      	b.n	0x7ea4
    779c:	2004      	movs	r0, #4
    779e:	e58c      	b.n	0x72ba
    77a0:	3000      	adds	r0, #0
    77a2:	e581      	b.n	0x72a8
    77a4:	0c02      	lsrs	r2, r0, #16
    77a6:	e353      	b.n	0x7e50
    77a8:	0025      	movs	r5, r4
    77aa:	2a00      	cmp	r2, #0
    77ac:	5001      	str	r1, [r0, r0]
    77ae:	e3a0      	b.n	0x7ef2
    77b0:	0004      	movs	r4, r0
    77b2:	e59e      	b.n	0x72f2
    77b4:	31a3      	adds	r1, #163	; 0xa3
    77b6:	e1a0      	b.n	0x7afa
    77b8:	2005      	movs	r0, #5
    77ba:	e083      	b.n	0x78c4
    77bc:	3143      	adds	r1, #67	; 0x43
    77be:	e1a0      	b.n	0x7b02
    77c0:	3315      	adds	r3, #21
    77c2:	e180      	b.n	0x7ac6
    77c4:	1182      	asrs	r2, r0, #6
    77c6:	e08e      	b.n	0x78e6
    77c8:	0182      	lsls	r2, r0, #6
    77ca:	e79e      	b.n	0x770a
    77cc:	1008      	asrs	r0, r1, #32
    77ce:	e241      	b.n	0x7c54
    77d0:	100c      	asrs	r4, r1, #32
    77d2:	e58c      	b.n	0x72ee
    77d4:	0008      	movs	r0, r1
    77d6:	e58c      	b.n	0x72f2
    77d8:	3004      	adds	r0, #4
    77da:	e58e      	b.n	0x72fa
    77dc:	c182      	stmia	r1!, {r1, r7}
    77de:	e78e      	b.n	0x76fe
    77e0:	c00c      	stmia	r0!, {r2, r3}
    77e2:	e580      	b.n	0x72e6
    77e4:	0004      	movs	r4, r0
    77e6:	e1a0      	b.n	0x7b2a
    77e8:	03c9      	lsls	r1, r1, #15
    77ea:	eb00 41f0 	add.w	r1, r0, r0, ror #19
    77ee:	e8bd ff1e 	ldmia.w	sp!, {r1, r2, r3, r4, r8, r9, sl, fp, ip, sp, lr, pc}
    77f2:	e12f      	b.n	0x7a54
    77f4:	0004      	movs	r4, r0
    77f6:	e590      	b.n	0x731a
    77f8:	0001      	movs	r1, r0
    77fa:	e310      	b.n	0x7e1e
    77fc:	000b      	movs	r3, r1
    77fe:	1a00      	subs	r0, r0, r0
    7800:	3002      	adds	r0, #2
    7802:	e083      	b.n	0x790c
    7804:	6008      	str	r0, [r1, #0]
    7806:	e28e      	b.n	0x7d26
    7808:	2008      	movs	r0, #8
    780a:	e591      	b.n	0x7330
    780c:	0006      	movs	r6, r0
    780e:	e152      	b.n	0x7ab6
    7810:	0001      	movs	r1, r0
    7812:	e383      	b.n	0x7f1c
    7814:	005c      	lsls	r4, r3, #1
    7816:	0a00      	lsrs	r0, r0, #8
    7818:	100c      	asrs	r4, r1, #32
    781a:	e591      	b.n	0x7340
    781c:	100c      	asrs	r4, r1, #32
    781e:	e582      	b.n	0x7326
    7820:	2008      	movs	r0, #8
    7822:	e581      	b.n	0x7328
    7824:	0004      	movs	r4, r0
    7826:	e58c      	b.n	0x7342
    7828:	3003      	adds	r0, #3
    782a:	e78c      	b.n	0x7746
    782c:	ffdc eaff 			; <UNDEFINED> instruction: 0xffdceaff
    7830:	2001      	movs	r0, #1
    7832:	e383      	b.n	0x7f3c
    7834:	0c02      	lsrs	r2, r0, #16
    7836:	e353      	b.n	0x7ee0
    7838:	2004      	movs	r0, #4
    783a:	e505      	b.n	0x7248
    783c:	3000      	adds	r0, #0
    783e:	e581      	b.n	0x7344
    7840:	ffd9 3aff 			; <UNDEFINED> instruction: 0xffd93aff
    7844:	24a3      	movs	r4, #163	; 0xa3
    7846:	e1a0      	b.n	0x7b8a
    7848:	0004      	movs	r4, r0
    784a:	e352      	b.n	0x7ef2
    784c:	0039      	movs	r1, r7
    784e:	8a00      	ldrh	r0, [r0, #16]
    7850:	2323      	movs	r3, #35	; 0x23
    7852:	e1a0      	b.n	0x7b96
    7854:	5039      	str	r1, [r7, r0]
    7856:	e282      	b.n	0x7d5e
    7858:	5185      	str	r5, [r0, r6]
    785a:	e1a0      	b.n	0x7b9e
    785c:	1038      	asrs	r0, r7, #32
    785e:	e282      	b.n	0x7d66
    7860:	0005      	movs	r5, r0
    7862:	e08e      	b.n	0x7982
    7864:	2005      	movs	r0, #5
    7866:	e79e      	b.n	0x77a6
    7868:	0008      	movs	r0, r1
    786a:	e240      	b.n	0x7cee
    786c:	0002      	movs	r2, r0
    786e:	e150      	b.n	0x7b12
    7870:	003f      	movs	r7, r7
    7872:	0a00      	lsrs	r0, r0, #8
    7874:	1004      	asrs	r4, r0, #32
    7876:	e592      	b.n	0x739e
    7878:	1003      	asrs	r3, r0, #32
    787a:	e3c1      	b.n	0x8000
    787c:	0003      	movs	r3, r0
    787e:	e151      	b.n	0x7b24
    7880:	0002      	movs	r2, r0
    7882:	9a00      	ldr	r2, [sp, #0]
    7884:	2008      	movs	r0, #8
    7886:	e592      	b.n	0x73ae
    7888:	0002      	movs	r2, r0
    788a:	e150      	b.n	0x7b2e
    788c:	fff8 1aff 			; <UNDEFINED> instruction: 0xfff81aff
    7890:	000c      	movs	r4, r1
    7892:	e592      	b.n	0x73ba
    7894:	000c      	movs	r4, r1
    7896:	e58c      	b.n	0x73b2
    7898:	2008      	movs	r0, #8
    789a:	e58c      	b.n	0x73b6
    789c:	c008      	stmia	r0!, {r3}
    789e:	e580      	b.n	0x73a2
    78a0:	c00c      	stmia	r0!, {r2, r3}
    78a2:	e582      	b.n	0x73aa
    78a4:	ffce eaff 			; <UNDEFINED> instruction: 0xffceeaff
    78a8:	0000      	movs	r0, r0
    78aa:	e350      	b.n	0x7f4e
    78ac:	2001      	movs	r0, #1
    78ae:	1383      	asrs	r3, r0, #14
    78b0:	2004      	movs	r0, #4
    78b2:	158c      	asrs	r4, r1, #22
    78b4:	3000      	adds	r0, #0
    78b6:	1581      	asrs	r1, r0, #22
    78b8:	ffc9 1aff 			; <UNDEFINED> instruction: 0xffc91aff
    78bc:	0008      	movs	r0, r1
    78be:	e281      	b.n	0x7dc4
    78c0:	3003      	adds	r0, #3
    78c2:	e082      	b.n	0x79ca
    78c4:	0005      	movs	r5, r0
    78c6:	e890 1001 	ldmia.w	r0, {r0, ip}
    78ca:	e383      	b.n	0x7fd4
    78cc:	200c      	movs	r0, #12
    78ce:	e580      	b.n	0x73d2
    78d0:	0008      	movs	r0, r1
    78d2:	e582      	b.n	0x73da
    78d4:	1004      	asrs	r4, r0, #32
    78d6:	e58c      	b.n	0x73f2
    78d8:	3003      	adds	r0, #3
    78da:	e78c      	b.n	0x77f6
    78dc:	ffc0 eaff 			; <UNDEFINED> instruction: 0xffc0eaff
    78e0:	0001      	movs	r1, r0
    78e2:	e310      	b.n	0x7f06
    78e4:	3002      	adds	r0, #2
    78e6:	e083      	b.n	0x79f0
    78e8:	0006      	movs	r6, r0
    78ea:	1a00      	subs	r0, r0, r0
    78ec:	2008      	movs	r0, #8
    78ee:	e515      	b.n	0x731c
    78f0:	c002      	stmia	r0!, {r1}
    78f2:	e04c      	b.n	0x798e
    78f4:	0008      	movs	r0, r1
    78f6:	e28c      	b.n	0x7e12
    78f8:	0003      	movs	r3, r0
    78fa:	e890 100c 	ldmia.w	r0, {r2, r3, ip}
    78fe:	e580      	b.n	0x7402
    7900:	0008      	movs	r0, r1
    7902:	e581      	b.n	0x7408
    7904:	3002      	adds	r0, #2
    7906:	e083      	b.n	0x7a10
    7908:	20d8      	movs	r0, #216	; 0xd8
    790a:	e59f      	b.n	0x744c
    790c:	2000      	movs	r0, #0
    790e:	e592      	b.n	0x7436
    7910:	0003      	movs	r3, r0
    7912:	e152      	b.n	0x7bba
    7914:	3001      	adds	r0, #1
    7916:	e383      	b.n	0x8020
    7918:	3004      	adds	r0, #4
    791a:	e58c      	b.n	0x7436
    791c:	c008      	stmia	r0!, {r3}
    791e:	e58e      	b.n	0x743e
    7920:	ffaf 8aff 			; <UNDEFINED> instruction: 0xffaf8aff
    7924:	30c0      	adds	r0, #192	; 0xc0
    7926:	e59f      	b.n	0x7468
    7928:	0004      	movs	r4, r0
    792a:	e1a0      	b.n	0x7c6e
    792c:	1000      	asrs	r0, r0, #32
    792e:	e593      	b.n	0x7458
    7930:	ff37 ebff 	vqrdmlah.s<illegal width 64>	q7, <illegal reg q11.5>, <illegal reg q15.5>
    7934:	ffaa eaff 			; <UNDEFINED> instruction: 0xffaaeaff
    7938:	0014      	movs	r4, r2
    793a:	e352      	b.n	0x7fe2
    793c:	0008      	movs	r0, r1
    793e:	9a00      	ldr	r2, [sp, #0]
    7940:	0054      	lsls	r4, r2, #1
    7942:	e352      	b.n	0x7fea
    7944:	0016      	movs	r6, r2
    7946:	8a00      	ldrh	r0, [r0, #16]
    7948:	2623      	movs	r6, #35	; 0x23
    794a:	e1a0      	b.n	0x7c8e
    794c:	506f      	str	r7, [r5, r1]
    794e:	e282      	b.n	0x7e56
    7950:	5185      	str	r5, [r0, r6]
    7952:	e1a0      	b.n	0x7c96
    7954:	106e      	asrs	r6, r5, #1
    7956:	e282      	b.n	0x7e5e
    7958:	ffc0 eaff 			; <UNDEFINED> instruction: 0xffc0eaff
    795c:	3002      	adds	r0, #2
    795e:	e083      	b.n	0x7a68
    7960:	ffa8 eaff 			; <UNDEFINED> instruction: 0xffa8eaff
    7964:	505c      	str	r4, [r3, r1]
    7966:	e282      	b.n	0x7e6e
    7968:	5185      	str	r5, [r0, r6]
    796a:	e1a0      	b.n	0x7cae
    796c:	105b      	asrs	r3, r3, #1
    796e:	e282      	b.n	0x7e76
    7970:	ffba eaff 			; <UNDEFINED> instruction: 0xffbaeaff
    7974:	5001      	str	r1, [r0, r0]
    7976:	e3a0      	b.n	0x80ba
    7978:	3004      	adds	r0, #4
    797a:	e59e      	b.n	0x74ba
    797c:	1141      	asrs	r1, r0, #5
    797e:	e1a0      	b.n	0x7cc2
    7980:	1115      	asrs	r5, r2, #4
    7982:	e183      	b.n	0x7c8c
    7984:	1004      	asrs	r4, r0, #32
    7986:	e58e      	b.n	0x74a6
    7988:	ffc1 eaff 			; <UNDEFINED> instruction: 0xffc1eaff
    798c:	c014      	stmia	r0!, {r2, r4}
    798e:	e58e      	b.n	0x74ae
    7990:	c010      	stmia	r0!, {r4}
    7992:	e58e      	b.n	0x74b2
    7994:	600c      	str	r4, [r1, #0]
    7996:	e58c      	b.n	0x74b2
    7998:	0041      	lsls	r1, r0, #1
    799a:	e98c 3003 			; <UNDEFINED> instruction: 0xe98c3003
    799e:	e78c      	b.n	0x78ba
    79a0:	ff8f eaff 			; <UNDEFINED> instruction: 0xff8feaff
    79a4:	0f55      	lsrs	r5, r2, #29
    79a6:	e352      	b.n	0x804e
    79a8:	0004      	movs	r4, r0
    79aa:	8a00      	ldrh	r0, [r0, #16]
    79ac:	27a3      	movs	r7, #163	; 0xa3
    79ae:	e1a0      	b.n	0x7cf2
    79b0:	5078      	str	r0, [r7, r1]
    79b2:	e282      	b.n	0x7eba
    79b4:	5185      	str	r5, [r0, r6]
    79b6:	e1a0      	b.n	0x7cfa
    79b8:	1077      	asrs	r7, r6, #1
    79ba:	e282      	b.n	0x7ec2
    79bc:	ffa7 eaff 			; <UNDEFINED> instruction: 0xffa7eaff
    79c0:	1028      	asrs	r0, r5, #32
    79c2:	e59f      	b.n	0x7504
    79c4:	0001      	movs	r1, r0
    79c6:	e152      	b.n	0x7c6e
    79c8:	2923      	cmp	r1, #35	; 0x23
    79ca:	91a0      	str	r1, [sp, #640]	; 0x280
    79cc:	507d      	str	r5, [r7, r1]
    79ce:	9282      	str	r2, [sp, #520]	; 0x208
    79d0:	5185      	str	r5, [r0, r6]
    79d2:	91a0      	str	r1, [sp, #640]	; 0x280
    79d4:	107c      	asrs	r4, r7, #1
    79d6:	9282      	str	r2, [sp, #520]	; 0x208
    79d8:	5ffe      	ldrsh	r6, [r7, r7]
    79da:	83a0      	strh	r0, [r4, #28]
    79dc:	107e      	asrs	r6, r7, #1
    79de:	83a0      	strh	r0, [r4, #28]
    79e0:	ff9e eaff 			; <UNDEFINED> instruction: 0xff9eeaff
    79e4:	0358      	lsls	r0, r3, #13
    79e6:	0300      	lsls	r0, r0, #12
    79e8:	0764      	lsls	r4, r4, #29
    79ea:	0300      	lsls	r0, r0, #12
    79ec:	0114      	lsls	r4, r2, #4
    79ee:	0300      	lsls	r0, r0, #12
    79f0:	0554      	lsls	r4, r2, #21
    79f2:	0000      	movs	r0, r0
    79f4:	4010      	ands	r0, r2
    79f6:	e92d 0923 	stmdb	sp!, {r0, r1, r5, r8, fp}
    79fa:	eb00 0034 	add.w	r0, r0, r4, rrx
    79fe:	e590      	b.n	0x7522
    7a00:	3010      	adds	r0, #16
    7a02:	e59f      	b.n	0x7544
    7a04:	0000      	movs	r0, r0
    7a06:	e350      	b.n	0x80aa
    7a08:	0003      	movs	r3, r0
    7a0a:	01a0      	lsls	r0, r4, #6
    7a0c:	4010      	ands	r0, r2
    7a0e:	e8bd 00f0 	ldmia.w	sp!, {r4, r5, r6, r7}
    7a12:	e280      	b.n	0x7f16
    7a14:	ff1e e12f 	vrhadd.u16	d14, d14, d31
    7a18:	01ec      	lsls	r4, r5, #7
    7a1a:	0300      	lsls	r0, r0, #12
    7a1c:	4010      	ands	r0, r2
    7a1e:	e92d 0919 	stmdb	sp!, {r0, r3, r4, r8, fp}
    7a22:	eb00 3034 	add.w	r0, r0, r4, ror #12
    7a26:	e590      	b.n	0x754a
    7a28:	2010      	movs	r0, #16
    7a2a:	e59f      	b.n	0x756c
    7a2c:	0000      	movs	r0, r0
    7a2e:	e353      	b.n	0x80d8
    7a30:	3002      	adds	r0, #2
    7a32:	01a0      	lsls	r0, r4, #6
    7a34:	4010      	ands	r0, r2
    7a36:	e8bd 0128 	ldmia.w	sp!, {r3, r5, r8}
    7a3a:	e5d3      	b.n	0x75e4
    7a3c:	ff1e e12f 	vrhadd.u16	d14, d14, d31
    7a40:	01ec      	lsls	r4, r5, #7
    7a42:	0300      	lsls	r0, r0, #12
    7a44:	4ff0      	ldr	r7, [pc, #960]	; (0x7e08)
    7a46:	e92d 500b 	stmdb	sp!, {r0, r1, r3, ip, lr}
    7a4a:	e281      	b.n	0x7f50
    7a4c:	0016      	movs	r6, r2
    7a4e:	e355      	b.n	0x80fc
    7a50:	d00c      	beq.n	0x7a6c
    7a52:	e24d      	b.n	0x7ef0
    7a54:	6000      	str	r0, [r0, #0]
    7a56:	e1a0      	b.n	0x7d9a
    7a58:	0023      	movs	r3, r4
    7a5a:	8a00      	ldrh	r0, [r0, #16]
    7a5c:	0010      	movs	r0, r2
    7a5e:	e351      	b.n	0x8104
    7a60:	001a      	movs	r2, r3
    7a62:	8a00      	ldrh	r0, [r0, #16]
    7a64:	0324      	lsls	r4, r4, #12
    7a66:	eb00 5010 	add.w	r0, r0, r0, lsr #20
    7a6a:	e3a0      	b.n	0x81ae
    7a6c:	0002      	movs	r2, r0
    7a6e:	e3a0      	b.n	0x81b2
    7a70:	3018      	adds	r0, #24
    7a72:	e3a0      	b.n	0x81b6
    7a74:	7730      	strb	r0, [r6, #28]
    7a76:	e59f      	b.n	0x75b8
    7a78:	3003      	adds	r0, #3
    7a7a:	e087      	b.n	0x7b8c
    7a7c:	4004      	ands	r4, r0
    7a7e:	e593      	b.n	0x75a8
    7a80:	2008      	movs	r0, #8
    7a82:	e243      	b.n	0x7f0c
    7a84:	0002      	movs	r2, r0
    7a86:	e154      	b.n	0x7d32
    7a88:	003b      	movs	r3, r7
    7a8a:	0a00      	lsrs	r0, r0, #8
    7a8c:	3004      	adds	r0, #4
    7a8e:	e594      	b.n	0x75ba
    7a90:	3003      	adds	r0, #3
    7a92:	e3c3      	b.n	0x821c
    7a94:	3003      	adds	r0, #3
    7a96:	e084      	b.n	0x7ba2
    7a98:	2004      	movs	r0, #4
    7a9a:	e593      	b.n	0x75c4
    7a9c:	100c      	asrs	r4, r1, #32
    7a9e:	e594      	b.n	0x75ca
    7aa0:	c008      	stmia	r0!, {r3}
    7aa2:	e594      	b.n	0x75ce
    7aa4:	2001      	movs	r0, #1
    7aa6:	e382      	b.n	0x81ae
    7aa8:	100c      	asrs	r4, r1, #32
    7aaa:	e58c      	b.n	0x75c6
    7aac:	0006      	movs	r6, r0
    7aae:	e1a0      	b.n	0x7df2
    7ab0:	c008      	stmia	r0!, {r3}
    7ab2:	e581      	b.n	0x75b8
    7ab4:	4008      	ands	r0, r1
    7ab6:	e284      	b.n	0x7fc2
    7ab8:	2004      	movs	r0, #4
    7aba:	e583      	b.n	0x75c4
    7abc:	0314      	lsls	r4, r2, #12
    7abe:	eb00 0004 	add.w	r0, r0, r4
    7ac2:	e1a0      	b.n	0x7e06
    7ac4:	d00c      	beq.n	0x7ae0
    7ac6:	e28d      	b.n	0x7fe4
    7ac8:	4ff0      	ldr	r7, [pc, #960]	; (0x7e8c)
    7aca:	e8bd ff1e 	ldmia.w	sp!, {r1, r2, r3, r4, r8, r9, sl, fp, ip, sp, lr, pc}
    7ace:	e12f      	b.n	0x7d30
    7ad0:	300c      	adds	r0, #12
    7ad2:	e3a0      	b.n	0x8216
    7ad4:	4000      	ands	r0, r0
    7ad6:	e3a0      	b.n	0x821a
    7ad8:	3000      	adds	r0, #0
    7ada:	e586      	b.n	0x75ea
    7adc:	0004      	movs	r4, r0
    7ade:	e1a0      	b.n	0x7e22
    7ae0:	d00c      	beq.n	0x7afc
    7ae2:	e28d      	b.n	0x8000
    7ae4:	4ff0      	ldr	r7, [pc, #960]	; (0x7ea8)
    7ae6:	e8bd ff1e 	ldmia.w	sp!, {r1, r2, r3, r4, r8, r9, sl, fp, ip, sp, lr, pc}
    7aea:	e12f      	b.n	0x7d4c
    7aec:	5007      	str	r7, [r0, r0]
    7aee:	e3c5      	b.n	0x827c
    7af0:	0005      	movs	r5, r0
    7af2:	e151      	b.n	0x7d98
    7af4:	1000      	asrs	r0, r0, #32
    7af6:	93a0      	str	r3, [sp, #640]	; 0x280
    7af8:	1001      	asrs	r1, r0, #32
    7afa:	83a0      	strh	r0, [r4, #28]
    7afc:	3fa5      	subs	r7, #165	; 0xa5
    7afe:	e191      	b.n	0x7e24
    7b00:	fff2 1aff 			; <UNDEFINED> instruction: 0xfff21aff
    7b04:	02fc      	lsls	r4, r7, #11
    7b06:	eb00 0f7e 	add.w	pc, r0, lr, ror #1
    7b0a:	e355      	b.n	0x81b8
    7b0c:	012d      	lsls	r5, r5, #4
    7b0e:	3a00      	subs	r2, #0
    7b10:	34a5      	adds	r4, #165	; 0xa5
    7b12:	e1b0      	b.n	0x7e76
    7b14:	00b0      	lsls	r0, r6, #2
    7b16:	0a00      	lsrs	r0, r0, #8
    7b18:	0004      	movs	r4, r0
    7b1a:	e353      	b.n	0x81c4
    7b1c:	010f      	lsls	r7, r1, #4
    7b1e:	8a00      	ldrh	r0, [r0, #16]
    7b20:	3325      	adds	r3, #37	; 0x25
    7b22:	e1a0      	b.n	0x7e66
    7b24:	0039      	movs	r1, r7
    7b26:	e283      	b.n	0x8030
    7b28:	c038      	stmia	r0!, {r3, r4, r5}
    7b2a:	e283      	b.n	0x8034
    7b2c:	1180      	asrs	r0, r0, #6
    7b2e:	e1a0      	b.n	0x7e72
    7b30:	7674      	strb	r4, [r6, #25]
    7b32:	e59f      	b.n	0x7674
    7b34:	1001      	asrs	r1, r0, #32
    7b36:	e087      	b.n	0x7c48
    7b38:	4004      	ands	r4, r0
    7b3a:	e591      	b.n	0x7660
    7b3c:	1008      	asrs	r0, r1, #32
    7b3e:	e241      	b.n	0x7fc4
    7b40:	0004      	movs	r4, r0
    7b42:	e151      	b.n	0x7de8
    7b44:	0005      	movs	r5, r0
    7b46:	1a00      	subs	r0, r0, r0
    7b48:	000f      	movs	r7, r1
    7b4a:	ea00 0000 	and.w	r0, r0, r0
    7b4e:	e352      	b.n	0x81f6
    7b50:	ffcf aaff 			; <UNDEFINED> instruction: 0xffcfaaff
    7b54:	400c      	ands	r4, r1
    7b56:	e594      	b.n	0x7682
    7b58:	0004      	movs	r4, r0
    7b5a:	e151      	b.n	0x7e00
    7b5c:	000a      	movs	r2, r1
    7b5e:	0a00      	lsrs	r0, r0, #8
    7b60:	3004      	adds	r0, #4
    7b62:	e594      	b.n	0x768e
    7b64:	3003      	adds	r0, #3
    7b66:	e3c3      	b.n	0x82f0
    7b68:	2005      	movs	r0, #5
    7b6a:	e043      	b.n	0x7bf4
    7b6c:	000f      	movs	r7, r1
    7b6e:	e352      	b.n	0x8216
    7b70:	fff5 daff 			; <UNDEFINED> instruction: 0xfff5daff
    7b74:	000c      	movs	r4, r1
    7b76:	e1a0      	b.n	0x7eba
    7b78:	0003      	movs	r3, r0
    7b7a:	ea00 400c 	and.w	r0, r0, ip, lsl #16
    7b7e:	e593      	b.n	0x76a8
    7b80:	0004      	movs	r4, r0
    7b82:	e153      	b.n	0x7e2c
    7b84:	0002      	movs	r2, r0
    7b86:	0280      	lsls	r0, r0, #10
    7b88:	ffbf 1aff 			; <UNDEFINED> instruction: 0xffbf1aff
    7b8c:	4010      	ands	r0, r2
    7b8e:	e597      	b.n	0x76c0
    7b90:	c618      	stmia	r6!, {r3, r4}
    7b92:	e59f      	b.n	0x76d4
    7b94:	000c      	movs	r4, r1
    7b96:	e154      	b.n	0x7e42
    7b98:	3004      	adds	r0, #4
    7b9a:	0597      	lsls	r7, r2, #22
    7b9c:	0018      	movs	r0, r3
    7b9e:	0a00      	lsrs	r0, r0, #8
    7ba0:	3004      	adds	r0, #4
    7ba2:	e594      	b.n	0x76ce
    7ba4:	3003      	adds	r0, #3
    7ba6:	e3c3      	b.n	0x8330
    7ba8:	2005      	movs	r0, #5
    7baa:	e043      	b.n	0x7c34
    7bac:	000f      	movs	r7, r1
    7bae:	e352      	b.n	0x8256
    7bb0:	0107      	lsls	r7, r0, #4
    7bb2:	ca00      	ldmia	r2!, {}
    7bb4:	0000      	movs	r0, r0
    7bb6:	e352      	b.n	0x825e
    7bb8:	c014      	stmia	r0!, {r2, r4}
    7bba:	e587      	b.n	0x76cc
    7bbc:	c010      	stmia	r0!, {r4}
    7bbe:	e587      	b.n	0x76d0
    7bc0:	00b6      	lsls	r6, r6, #2
    7bc2:	aa00      	add	r2, sp, #0
    7bc4:	0c02      	lsrs	r2, r0, #16
    7bc6:	e353      	b.n	0x8270
    7bc8:	00c9      	lsls	r1, r1, #3
    7bca:	2a00      	cmp	r2, #0
    7bcc:	8001      	strh	r1, [r0, #0]
    7bce:	e3a0      	b.n	0x8312
    7bd0:	1004      	asrs	r4, r0, #32
    7bd2:	e597      	b.n	0x7704
    7bd4:	31a3      	adds	r1, #163	; 0xa3
    7bd6:	e1a0      	b.n	0x7f1a
    7bd8:	e008      	b.n	0x7bec
    7bda:	e083      	b.n	0x7ce4
    7bdc:	3143      	adds	r1, #67	; 0x43
    7bde:	e1a0      	b.n	0x7f22
    7be0:	3318      	adds	r3, #24
    7be2:	e181      	b.n	0x7ee8
    7be4:	218e      	movs	r1, #142	; 0x8e
    7be6:	e087      	b.n	0x7cf8
    7be8:	118e      	asrs	r6, r1, #6
    7bea:	e797      	b.n	0x7b1c
    7bec:	2008      	movs	r0, #8
    7bee:	e242      	b.n	0x8076
    7bf0:	200c      	movs	r0, #12
    7bf2:	e584      	b.n	0x76fe
    7bf4:	1008      	asrs	r0, r1, #32
    7bf6:	e584      	b.n	0x7702
    7bf8:	3004      	adds	r0, #4
    7bfa:	e587      	b.n	0x770c
    7bfc:	418e      	sbcs	r6, r1
    7bfe:	e787      	b.n	0x7b10
    7c00:	400c      	ands	r4, r1
    7c02:	e581      	b.n	0x7708
    7c04:	1001      	asrs	r1, r0, #32
    7c06:	e3a0      	b.n	0x834a
    7c08:	2140      	movs	r1, #64	; 0x40
    7c0a:	e1a0      	b.n	0x7f4e
    7c0c:	e211      	b.n	0x8032
    7c0e:	e1a0      	b.n	0x7f52
    7c10:	0003      	movs	r3, r0
    7c12:	e15e      	b.n	0x7ed2
    7c14:	0074      	lsls	r4, r6, #1
    7c16:	9a00      	ldr	r2, [sp, #0]
    7c18:	4008      	ands	r0, r1
    7c1a:	e597      	b.n	0x774c
    7c1c:	3004      	adds	r0, #4
    7c1e:	e594      	b.n	0x774a
    7c20:	a003      	add	r0, pc, #12	; (adr r0, 0x7c30)
    7c22:	e3c3      	b.n	0x83ac
    7c24:	0005      	movs	r5, r0
    7c26:	e15a      	b.n	0x7ede
    7c28:	2000      	movs	r0, #0
    7c2a:	23a0      	movs	r3, #160	; 0xa0
    7c2c:	2001      	movs	r0, #1
    7c2e:	33a0      	adds	r3, #160	; 0xa0
    7c30:	3005      	adds	r0, #5
    7c32:	e04a      	b.n	0x7cca
    7c34:	000f      	movs	r7, r1
    7c36:	e353      	b.n	0x82e0
    7c38:	2001      	movs	r0, #1
    7c3a:	d382      	bcc.n	0x7b42
    7c3c:	0000      	movs	r0, r0
    7c3e:	e352      	b.n	0x82e6
    7c40:	009e      	lsls	r6, r3, #2
    7c42:	0a00      	lsrs	r0, r0, #8
    7c44:	b568      	push	{r3, r5, r6, lr}
    7c46:	e59f      	b.n	0x7788
    7c48:	2568      	movs	r5, #104	; 0x68
    7c4a:	e59f      	b.n	0x778c
    7c4c:	3000      	adds	r0, #0
    7c4e:	e59b      	b.n	0x7788
    7c50:	2000      	movs	r0, #0
    7c52:	e592      	b.n	0x777a
    7c54:	0001      	movs	r1, r0
    7c56:	e373      	b.n	0x8340
    7c58:	2002      	movs	r0, #2
    7c5a:	e085      	b.n	0x7d68
    7c5c:	2a01      	cmp	r2, #1
    7c5e:	1282      	asrs	r2, r0, #10
    7c60:	200f      	movs	r0, #15
    7c62:	1282      	asrs	r2, r0, #10
    7c64:	2eff      	cmp	r6, #255	; 0xff
    7c66:	13c2      	asrs	r2, r0, #15
    7c68:	2010      	movs	r0, #16
    7c6a:	0282      	lsls	r2, r0, #10
    7c6c:	200f      	movs	r0, #15
    7c6e:	13c2      	asrs	r2, r0, #15
    7c70:	300a      	adds	r0, #10
    7c72:	e084      	b.n	0x7d7e
    7c74:	1002      	asrs	r2, r0, #32
    7c76:	e1a0      	b.n	0x7fba
    7c78:	0006      	movs	r6, r0
    7c7a:	e1a0      	b.n	0x7fbe
    7c7c:	3004      	adds	r0, #4
    7c7e:	e58d      	b.n	0x779c
    7c80:	2000      	movs	r0, #0
    7c82:	e58d      	b.n	0x77a0
    7c84:	0857      	lsrs	r7, r2, #1
    7c86:	eb00 0001 	add.w	r0, r0, r1
    7c8a:	e370      	b.n	0x836e
    7c8c:	8000      	strh	r0, [r0, #0]
    7c8e:	e1a0      	b.n	0x7fd2
    7c90:	000c      	movs	r4, r1
    7c92:	e89d 0108 	ldmia.w	sp, {r3, r8}
    7c96:	0a00      	lsrs	r0, r0, #8
    7c98:	0007      	movs	r7, r0
    7c9a:	e154      	b.n	0x7f46
    7c9c:	0000      	movs	r0, r0
    7c9e:	1153      	asrs	r3, r2, #5
    7ca0:	0105      	lsls	r5, r0, #4
    7ca2:	8a00      	ldrh	r0, [r0, #16]
    7ca4:	9510      	str	r5, [sp, #64]	; 0x40
    7ca6:	e59f      	b.n	0x77e8
    7ca8:	1000      	asrs	r0, r0, #32
    7caa:	e599      	b.n	0x77e0
    7cac:	0000      	movs	r0, r0
    7cae:	e153      	b.n	0x7f58
    7cb0:	1001      	asrs	r1, r0, #32
    7cb2:	e082      	b.n	0x7dba
    7cb4:	1000      	asrs	r0, r0, #32
    7cb6:	e589      	b.n	0x77cc
    7cb8:	00f4      	lsls	r4, r6, #3
    7cba:	0a00      	lsrs	r0, r0, #8
    7cbc:	0000      	movs	r0, r0
    7cbe:	e59b      	b.n	0x77f8
    7cc0:	0001      	movs	r1, r0
    7cc2:	e370      	b.n	0x83a6
    7cc4:	3003      	adds	r0, #3
    7cc6:	1048      	asrs	r0, r1, #1
    7cc8:	1001      	asrs	r1, r0, #32
    7cca:	1083      	asrs	r3, r0, #2
    7ccc:	8000      	strh	r0, [r0, #0]
    7cce:	058b      	lsls	r3, r1, #22
    7cd0:	1000      	asrs	r0, r0, #32
    7cd2:	1589      	asrs	r1, r1, #22
    7cd4:	1007      	asrs	r7, r0, #32
    7cd6:	e218      	b.n	0x810a
    7cd8:	1a01      	subs	r1, r0, r0
    7cda:	03a0      	lsls	r0, r4, #14
    7cdc:	3008      	adds	r0, #8
    7cde:	1261      	asrs	r1, r4, #9
    7ce0:	8003      	strh	r3, [r0, #0]
    7ce2:	1088      	asrs	r0, r1, #2
    7ce4:	2002      	movs	r0, #2
    7ce6:	e088      	b.n	0x7dfa
    7ce8:	1a01      	subs	r1, r0, r0
    7cea:	1261      	asrs	r1, r4, #9
    7cec:	2a02      	cmp	r2, #2
    7cee:	e1a0      	b.n	0x8032
    7cf0:	2a22      	cmp	r2, #34	; 0x22
    7cf2:	e1a0      	b.n	0x8036
    7cf4:	1008      	asrs	r0, r1, #32
    7cf6:	1281      	asrs	r1, r0, #10
    7cf8:	b002      	add	sp, #8
    7cfa:	e041      	b.n	0x7d80
    7cfc:	100b      	asrs	r3, r1, #32
    7cfe:	e1a0      	b.n	0x8042
    7d00:	0006      	movs	r6, r0
    7d02:	e1a0      	b.n	0x8046
    7d04:	0837      	lsrs	r7, r6, #32
    7d06:	eb00 0001 	add.w	r0, r0, r1
    7d0a:	e370      	b.n	0x83ee
    7d0c:	b000      	add	sp, #0
    7d0e:	03a0      	lsls	r0, r4, #14
    7d10:	2001      	movs	r0, #1
    7d12:	03a0      	lsls	r0, r4, #14
    7d14:	3008      	adds	r0, #8
    7d16:	1040      	asrs	r0, r0, #1
    7d18:	1000      	asrs	r0, r0, #32
    7d1a:	e599      	b.n	0x7850
    7d1c:	300b      	adds	r0, #11
    7d1e:	1083      	asrs	r3, r0, #2
    7d20:	2001      	movs	r0, #1
    7d22:	1383      	asrs	r3, r0, #14
    7d24:	1001      	asrs	r1, r0, #32
    7d26:	e08b      	b.n	0x7e40
    7d28:	0007      	movs	r7, r0
    7d2a:	e154      	b.n	0x7fd6
    7d2c:	8008      	strh	r0, [r1, #0]
    7d2e:	e587      	b.n	0x7840
    7d30:	1000      	asrs	r0, r0, #32
    7d32:	e589      	b.n	0x7848
    7d34:	2004      	movs	r0, #4
    7d36:	e588      	b.n	0x784a
    7d38:	00dd      	lsls	r5, r3, #3
    7d3a:	0a00      	lsrs	r0, r0, #8
    7d3c:	000f      	movs	r7, r1
    7d3e:	e35a      	b.n	0x83f6
    7d40:	3001      	adds	r0, #1
    7d42:	93a0      	str	r3, [sp, #640]	; 0x280
    7d44:	3004      	adds	r0, #4
    7d46:	9588      	str	r5, [sp, #544]	; 0x220
    7d48:	001f      	movs	r7, r3
    7d4a:	9a00      	ldr	r2, [sp, #0]
    7d4c:	0005      	movs	r5, r0
    7d4e:	e3a0      	b.n	0x8492
    7d50:	2004      	movs	r0, #4
    7d52:	e594      	b.n	0x787e
    7d54:	300c      	adds	r0, #12
    7d56:	e24a      	b.n	0x81ee
    7d58:	3007      	adds	r0, #7
    7d5a:	e3c3      	b.n	0x84e4
    7d5c:	2001      	movs	r0, #1
    7d5e:	e202      	b.n	0x8166
    7d60:	2003      	movs	r0, #3
    7d62:	e182      	b.n	0x806a
    7d64:	000f      	movs	r7, r1
    7d66:	e353      	b.n	0x8410
    7d68:	3003      	adds	r0, #3
    7d6a:	e084      	b.n	0x7e76
    7d6c:	2004      	movs	r0, #4
    7d6e:	e584      	b.n	0x787a
    7d70:	0004      	movs	r4, r0
    7d72:	e583      	b.n	0x787c
    7d74:	0008      	movs	r0, r1
    7d76:	e583      	b.n	0x7880
    7d78:	00f5      	lsls	r5, r6, #3
    7d7a:	8a00      	ldrh	r0, [r0, #16]
    7d7c:	4008      	ands	r0, r1
    7d7e:	e1a0      	b.n	0x80c2
    7d80:	2004      	movs	r0, #4
    7d82:	e598      	b.n	0x78b6
    7d84:	3434      	adds	r4, #52	; 0x34
    7d86:	e59f      	b.n	0x78c8
    7d88:	0000      	movs	r0, r0
    7d8a:	e593      	b.n	0x78b4
    7d8c:	0001      	movs	r1, r0
    7d8e:	e150      	b.n	0x8032
    7d90:	1000      	asrs	r0, r0, #32
    7d92:	3583      	adds	r5, #131	; 0x83
    7d94:	3428      	adds	r4, #40	; 0x28
    7d96:	e59f      	b.n	0x78d8
    7d98:	0000      	movs	r0, r0
    7d9a:	e593      	b.n	0x78c4
    7d9c:	0001      	movs	r1, r0
    7d9e:	e150      	b.n	0x8042
    7da0:	1000      	asrs	r0, r0, #32
    7da2:	3583      	adds	r5, #131	; 0x83
    7da4:	2003      	movs	r0, #3
    7da6:	e3c2      	b.n	0x852e
    7da8:	3005      	adds	r0, #5
    7daa:	e042      	b.n	0x7e32
    7dac:	000f      	movs	r7, r1
    7dae:	e353      	b.n	0x8458
    7db0:	1000      	asrs	r0, r0, #32
    7db2:	c3a0      	stmia	r3!, {r5, r7}
    7db4:	1001      	asrs	r1, r0, #32
    7db6:	d3a0      	bcc.n	0x7cfa
    7db8:	0005      	movs	r5, r0
    7dba:	e152      	b.n	0x8062
    7dbc:	2001      	movs	r0, #1
    7dbe:	21a0      	movs	r1, #160	; 0xa0
    7dc0:	2001      	movs	r0, #1
    7dc2:	3381      	adds	r3, #129	; 0x81
    7dc4:	0000      	movs	r0, r0
    7dc6:	e352      	b.n	0x846e
    7dc8:	003c      	movs	r4, r7
    7dca:	0a00      	lsrs	r0, r0, #8
    7dcc:	0006      	movs	r6, r0
    7dce:	e1a0      	b.n	0x8112
    7dd0:	024f      	lsls	r7, r1, #9
    7dd2:	eb00 4000 	add.w	r0, r0, r0, lsl #16
    7dd6:	e3a0      	b.n	0x851a
    7dd8:	ff3f eaff 	vpmin.u<illegal width 64>	q7, <illegal reg q15.5>, <illegal reg q15.5>
    7ddc:	1c02      	adds	r2, r0, #0
    7dde:	e3a0      	b.n	0x8522
    7de0:	0040      	lsls	r0, r0, #1
    7de2:	e3a0      	b.n	0x8526
    7de4:	c03f      	stmia	r0!, {r0, r1, r2, r3, r4, r5}
    7de6:	e3a0      	b.n	0x852a
    7de8:	ff50 eaff 	vpmin.u16	q15, q8, <illegal reg q15.5>
    7dec:	0003      	movs	r3, r0
    7dee:	e11e      	b.n	0x802e
    7df0:	0008      	movs	r0, r1
    7df2:	1a00      	subs	r0, r0, r0
    7df4:	e11e      	b.n	0x8034
    7df6:	e1a0      	b.n	0x813a
    7df8:	0003      	movs	r3, r0
    7dfa:	e3c0      	b.n	0x857e
    7dfc:	0003      	movs	r3, r0
    7dfe:	e11e      	b.n	0x803e
    7e00:	0004      	movs	r4, r0
    7e02:	e280      	b.n	0x8306
    7e04:	0003      	movs	r3, r0
    7e06:	1a00      	subs	r0, r0, r0
    7e08:	e08e      	b.n	0x7f28
    7e0a:	e1a0      	b.n	0x814e
    7e0c:	0003      	movs	r3, r0
    7e0e:	e11e      	b.n	0x804e
    7e10:	0004      	movs	r4, r0
    7e12:	e280      	b.n	0x8316
    7e14:	fffb 0aff 			; <UNDEFINED> instruction: 0xfffb0aff
    7e18:	9180      	str	r1, [sp, #512]	; 0x200
    7e1a:	e087      	b.n	0x7f2c
    7e1c:	1009      	asrs	r1, r1, #32
    7e1e:	e1a0      	b.n	0x8162
    7e20:	4000      	ands	r0, r0
    7e22:	e1a0      	b.n	0x8166
    7e24:	800c      	strh	r4, [r1, #0]
    7e26:	e591      	b.n	0x794c
    7e28:	0008      	movs	r0, r1
    7e2a:	e151      	b.n	0x80d0
    7e2c:	0005      	movs	r5, r0
    7e2e:	1a00      	subs	r0, r0, r0
    7e30:	0053      	lsls	r3, r2, #1
    7e32:	ea00 0000 	and.w	r0, r0, r0
    7e36:	e352      	b.n	0x84de
    7e38:	0056      	lsls	r6, r2, #1
    7e3a:	aa00      	add	r2, sp, #0
    7e3c:	800c      	strh	r4, [r1, #0]
    7e3e:	e598      	b.n	0x7972
    7e40:	0008      	movs	r0, r1
    7e42:	e151      	b.n	0x80e8
    7e44:	004e      	lsls	r6, r1, #1
    7e46:	0a00      	lsrs	r0, r0, #8
    7e48:	3004      	adds	r0, #4
    7e4a:	e598      	b.n	0x797e
    7e4c:	3003      	adds	r0, #3
    7e4e:	e3c3      	b.n	0x85d8
    7e50:	2005      	movs	r0, #5
    7e52:	e043      	b.n	0x7edc
    7e54:	000f      	movs	r7, r1
    7e56:	e352      	b.n	0x84fe
    7e58:	fff5 daff 			; <UNDEFINED> instruction: 0xfff5daff
    7e5c:	100c      	asrs	r4, r1, #32
    7e5e:	e598      	b.n	0x7992
    7e60:	e008      	b.n	0x7e74
    7e62:	e598      	b.n	0x7996
    7e64:	4001      	ands	r1, r0
    7e66:	e385      	b.n	0x8574
    7e68:	4004      	ands	r4, r0
    7e6a:	e588      	b.n	0x797e
    7e6c:	5005      	str	r5, [r0, r0]
    7e6e:	e088      	b.n	0x7f82
    7e70:	4001      	ands	r1, r0
    7e72:	e382      	b.n	0x857a
    7e74:	100c      	asrs	r4, r1, #32
    7e76:	e58e      	b.n	0x7996
    7e78:	0006      	movs	r6, r0
    7e7a:	e1a0      	b.n	0x81be
    7e7c:	e008      	b.n	0x7e90
    7e7e:	e581      	b.n	0x7984
    7e80:	5014      	str	r4, [r2, r0]
    7e82:	e587      	b.n	0x7994
    7e84:	5010      	str	r0, [r2, r0]
    7e86:	e587      	b.n	0x7998
    7e88:	1010      	asrs	r0, r2, #32
    7e8a:	e985 c00c 	srsia	r5, #12
    7e8e:	e585      	b.n	0x799c
    7e90:	2003      	movs	r0, #3
    7e92:	e788      	b.n	0x7da6
    7e94:	021e      	lsls	r6, r3, #8
    7e96:	eb00 4008 	add.w	r0, r0, r8, lsl #16
    7e9a:	e288      	b.n	0x83ae
    7e9c:	ff0e eaff 	vpmin.u8	q7, q15, <illegal reg q15.5>
    7ea0:	3003      	adds	r0, #3
    7ea2:	e084      	b.n	0x7fae
    7ea4:	2004      	movs	r0, #4
    7ea6:	e593      	b.n	0x79d0
    7ea8:	2001      	movs	r0, #1
    7eaa:	e382      	b.n	0x85b2
    7eac:	0006      	movs	r6, r0
    7eae:	e1a0      	b.n	0x81f2
    7eb0:	2004      	movs	r0, #4
    7eb2:	e583      	b.n	0x79bc
    7eb4:	4008      	ands	r0, r1
    7eb6:	e284      	b.n	0x83c2
    7eb8:	0215      	lsls	r5, r2, #8
    7eba:	eb00 ff06 			; <UNDEFINED> instruction: 0xeb00ff06
    7ebe:	eaff 2001 			; <UNDEFINED> instruction: 0xeaff2001
    7ec2:	e385      	b.n	0x85d0
    7ec4:	3001      	adds	r0, #1
    7ec6:	e383      	b.n	0x85d0
    7ec8:	5005      	str	r5, [r0, r0]
    7eca:	e084      	b.n	0x7fd6
    7ecc:	2004      	movs	r0, #4
    7ece:	e584      	b.n	0x79da
    7ed0:	0006      	movs	r6, r0
    7ed2:	e1a0      	b.n	0x8216
    7ed4:	5008      	str	r0, [r1, r0]
    7ed6:	e587      	b.n	0x79e8
    7ed8:	4008      	ands	r0, r1
    7eda:	e284      	b.n	0x83e6
    7edc:	3004      	adds	r0, #4
    7ede:	e585      	b.n	0x79ec
    7ee0:	020b      	lsls	r3, r1, #8
    7ee2:	eb00 0004 	add.w	r0, r0, r4
    7ee6:	e1a0      	b.n	0x822a
    7ee8:	d00c      	beq.n	0x7f04
    7eea:	e28d      	b.n	0x8408
    7eec:	4ff0      	ldr	r7, [pc, #960]	; (0x82b0)
    7eee:	e8bd ff1e 	ldmia.w	sp!, {r1, r2, r3, r4, r8, r9, sl, fp, ip, sp, lr, pc}
    7ef2:	e12f      	b.n	0x8154
    7ef4:	24a3      	movs	r4, #163	; 0xa3
    7ef6:	e1a0      	b.n	0x823a
    7ef8:	0004      	movs	r4, r0
    7efa:	e352      	b.n	0x85a2
    7efc:	0041      	lsls	r1, r0, #1
    7efe:	9a00      	ldr	r2, [sp, #0]
    7f00:	0014      	movs	r4, r2
    7f02:	e352      	b.n	0x85aa
    7f04:	0075      	lsls	r5, r6, #1
    7f06:	8a00      	ldrh	r0, [r0, #16]
    7f08:	805c      	strh	r4, [r3, #2]
    7f0a:	e282      	b.n	0x8412
    7f0c:	8188      	strh	r0, [r1, #12]
    7f0e:	e1a0      	b.n	0x8252
    7f10:	105b      	asrs	r3, r3, #1
    7f12:	e282      	b.n	0x841a
    7f14:	e008      	b.n	0x7f28
    7f16:	e087      	b.n	0x8028
    7f18:	2008      	movs	r0, #8
    7f1a:	e797      	b.n	0x7e4c
    7f1c:	e008      	b.n	0x7f30
    7f1e:	e24e      	b.n	0x83be
    7f20:	0002      	movs	r2, r0
    7f22:	e15e      	b.n	0x81e2
    7f24:	0067      	lsls	r7, r4, #1
    7f26:	0a00      	lsrs	r0, r0, #8
    7f28:	1004      	asrs	r4, r0, #32
    7f2a:	e592      	b.n	0x7a52
    7f2c:	1003      	asrs	r3, r0, #32
    7f2e:	e3c1      	b.n	0x86b4
    7f30:	0003      	movs	r3, r0
    7f32:	e151      	b.n	0x81d8
    7f34:	0002      	movs	r2, r0
    7f36:	9a00      	ldr	r2, [sp, #0]
    7f38:	2008      	movs	r0, #8
    7f3a:	e592      	b.n	0x7a62
    7f3c:	0002      	movs	r2, r0
    7f3e:	e15e      	b.n	0x81fe
    7f40:	fff8 1aff 			; <UNDEFINED> instruction: 0xfff81aff
    7f44:	e00c      	b.n	0x7f60
    7f46:	e592      	b.n	0x7a6e
    7f48:	3004      	adds	r0, #4
    7f4a:	e597      	b.n	0x7a7c
    7f4c:	e00c      	b.n	0x7f68
    7f4e:	e584      	b.n	0x7a5a
    7f50:	2008      	movs	r0, #8
    7f52:	e584      	b.n	0x7a5e
    7f54:	4008      	ands	r0, r1
    7f56:	e58e      	b.n	0x7a76
    7f58:	400c      	ands	r4, r1
    7f5a:	e582      	b.n	0x7a62
    7f5c:	ff28 eaff 	vpmin.u32	q7, q12, <illegal reg q15.5>
    7f60:	0014      	movs	r4, r2
    7f62:	e353      	b.n	0x860c
    7f64:	002c      	movs	r4, r5
    7f66:	9a00      	ldr	r2, [sp, #0]
    7f68:	0054      	lsls	r4, r2, #1
    7f6a:	e353      	b.n	0x8614
    7f6c:	0062      	lsls	r2, r4, #1
    7f6e:	8a00      	ldrh	r0, [r0, #16]
    7f70:	3625      	adds	r6, #37	; 0x25
    7f72:	e1a0      	b.n	0x82b6
    7f74:	006f      	lsls	r7, r5, #1
    7f76:	e283      	b.n	0x8480
    7f78:	c06e      	stmia	r0!, {r1, r2, r3, r5, r6}
    7f7a:	e283      	b.n	0x8484
    7f7c:	1180      	asrs	r0, r0, #6
    7f7e:	e1a0      	b.n	0x82c2
    7f80:	feea eaff 			; <UNDEFINED> instruction: 0xfeeaeaff
    7f84:	4001      	ands	r1, r0
    7f86:	e284      	b.n	0x8492
    7f88:	0003      	movs	r3, r0
    7f8a:	e314      	b.n	0x85b6
    7f8c:	1008      	asrs	r0, r1, #32
    7f8e:	e281      	b.n	0x8494
    7f90:	ffa3 1aff 			; <UNDEFINED> instruction: 0xffa31aff
    7f94:	0028      	movs	r0, r5
    7f96:	ea00 4008 	and.w	r0, r0, r8, lsl #16
    7f9a:	e1a0      	b.n	0x82de
    7f9c:	3003      	adds	r0, #3
    7f9e:	e088      	b.n	0x80b2
    7fa0:	2004      	movs	r0, #4
    7fa2:	e593      	b.n	0x7acc
    7fa4:	100c      	asrs	r4, r1, #32
    7fa6:	e598      	b.n	0x7ada
    7fa8:	c008      	stmia	r0!, {r3}
    7faa:	e5b4      	b.n	0x7b16
    7fac:	2001      	movs	r0, #1
    7fae:	e382      	b.n	0x86b6
    7fb0:	2004      	movs	r0, #4
    7fb2:	e583      	b.n	0x7abc
    7fb4:	0006      	movs	r6, r0
    7fb6:	e1a0      	b.n	0x82fa
    7fb8:	100c      	asrs	r4, r1, #32
    7fba:	e58c      	b.n	0x7ad6
    7fbc:	c008      	stmia	r0!, {r3}
    7fbe:	e581      	b.n	0x7ac4
    7fc0:	01d3      	lsls	r3, r2, #7
    7fc2:	eb00 fec4 			; <UNDEFINED> instruction: 0xeb00fec4
    7fc6:	eaff 01a5 			; <UNDEFINED> instruction: 0xeaff01a5
    7fca:	e1a0      	b.n	0x830e
    7fcc:	3008      	adds	r0, #8
    7fce:	e285      	b.n	0x84dc
    7fd0:	fea7 eaff 			; <UNDEFINED> instruction: 0xfea7eaff
    7fd4:	e001      	b.n	0x7fda
    7fd6:	e385      	b.n	0x86e4
    7fd8:	1001      	asrs	r1, r0, #32
    7fda:	e382      	b.n	0x86e2
    7fdc:	5005      	str	r5, [r0, r0]
    7fde:	e084      	b.n	0x80ea
    7fe0:	e004      	b.n	0x7fec
    7fe2:	e584      	b.n	0x7aee
    7fe4:	0006      	movs	r6, r0
    7fe6:	e1a0      	b.n	0x832a
    7fe8:	5014      	str	r4, [r2, r0]
    7fea:	e587      	b.n	0x7afc
    7fec:	5010      	str	r0, [r2, r0]
    7fee:	e587      	b.n	0x7b00
    7ff0:	c00c      	stmia	r0!, {r2, r3}
    7ff2:	e585      	b.n	0x7b00
    7ff4:	1002      	asrs	r2, r0, #32
    7ff6:	e985 2003 			; <UNDEFINED> instruction: 0xe9852003
    7ffa:	e784      	b.n	0x7f06
    7ffc:	01c4      	lsls	r4, r0, #7
    7ffe:	eb00 4008 	add.w	r0, r0, r8, lsl #16
    8002:	e284      	b.n	0x850e
    8004:	feb4 eaff 			; <UNDEFINED> instruction: 0xfeb4eaff
    8008:	2323      	movs	r3, #35	; 0x23
    800a:	e1a0      	b.n	0x834e
    800c:	8039      	strh	r1, [r7, #0]
    800e:	e282      	b.n	0x8516
    8010:	8188      	strh	r0, [r1, #12]
    8012:	e1a0      	b.n	0x8356
    8014:	1038      	asrs	r0, r7, #32
    8016:	e282      	b.n	0x851e
    8018:	ffbd eaff 			; <UNDEFINED> instruction: 0xffbdeaff
    801c:	005c      	lsls	r4, r3, #1
    801e:	e283      	b.n	0x8528
    8020:	c05b      	stmia	r0!, {r0, r1, r3, r4, r6}
    8022:	e283      	b.n	0x852c
    8024:	1180      	asrs	r0, r0, #6
    8026:	e1a0      	b.n	0x836a
    8028:	fec0 eaff 			; <UNDEFINED> instruction: 0xfec0eaff
    802c:	3008      	adds	r0, #8
    802e:	e419      	b.n	0x7864
    8030:	0009      	movs	r1, r1
    8032:	e153      	b.n	0x82dc
    8034:	0001      	movs	r1, r0
    8036:	e240      	b.n	0x84ba
    8038:	0059      	lsls	r1, r3, #1
    803a:	1a00      	subs	r0, r0, r0
    803c:	0003      	movs	r3, r0
    803e:	e310      	b.n	0x8662
    8040:	fff9 1aff 			; <UNDEFINED> instruction: 0xfff91aff
    8044:	3004      	adds	r0, #4
    8046:	e597      	b.n	0x7b78
    8048:	300e      	adds	r0, #14
    804a:	e1c3      	b.n	0x83d4
    804c:	3004      	adds	r0, #4
    804e:	e587      	b.n	0x7b60
    8050:	e08e      	b.n	0x8170
    8052:	e1a0      	b.n	0x8396
    8054:	0003      	movs	r3, r0
    8056:	e15e      	b.n	0x8316
    8058:	2000      	movs	r0, #0
    805a:	83a0      	strh	r0, [r4, #28]
    805c:	2001      	movs	r0, #1
    805e:	93a0      	str	r3, [sp, #640]	; 0x280
    8060:	0000      	movs	r0, r0
    8062:	e35e      	b.n	0x8722
    8064:	2000      	movs	r0, #0
    8066:	03a0      	lsls	r0, r4, #14
    8068:	0000      	movs	r0, r0
    806a:	e352      	b.n	0x8712
    806c:	fee9 0aff 			; <UNDEFINED> instruction: 0xfee90aff
    8070:	0003      	movs	r3, r0
    8072:	e11e      	b.n	0x82b2
    8074:	0003      	movs	r3, r0
    8076:	1a00      	subs	r0, r0, r0
    8078:	e08e      	b.n	0x8198
    807a:	e1a0      	b.n	0x83be
    807c:	0003      	movs	r3, r0
    807e:	e11e      	b.n	0x82be
    8080:	4004      	ands	r4, r0
    8082:	e284      	b.n	0x858e
    8084:	fffb 0aff 			; <UNDEFINED> instruction: 0xfffb0aff
    8088:	0004      	movs	r4, r0
    808a:	e1a0      	b.n	0x83ce
    808c:	ff61 eaff 	vpmin.u32	q15, <illegal reg q8.5>, <illegal reg q15.5>
    8090:	0a03      	lsrs	r3, r0, #8
    8092:	e1a0      	b.n	0x83d6
    8094:	0a20      	lsrs	r0, r4, #8
    8096:	e1a0      	b.n	0x83da
    8098:	0000      	movs	r0, r0
    809a:	e350      	b.n	0x873e
    809c:	ff06 1aff 	vpmin.u8	<illegal reg q0.5>, q11, <illegal reg q15.5>
    80a0:	2002      	movs	r0, #2
    80a2:	e08a      	b.n	0x81ba
    80a4:	4008      	ands	r0, r1
    80a6:	e597      	b.n	0x7bd8
    80a8:	2001      	movs	r0, #1
    80aa:	e382      	b.n	0x87b2
    80ac:	2004      	movs	r0, #4
    80ae:	e584      	b.n	0x7bba
    80b0:	ff33 eaff 	vpmin.u<illegal width 64>	q7, <illegal reg q9.5>, <illegal reg q15.5>
    80b4:	4008      	ands	r0, r1
    80b6:	e1a0      	b.n	0x83fa
    80b8:	ff31 eaff 	vpmin.u<illegal width 64>	q7, <illegal reg q8.5>, <illegal reg q15.5>
    80bc:	4008      	ands	r0, r1
    80be:	e597      	b.n	0x7bf0
    80c0:	2004      	movs	r0, #4
    80c2:	e594      	b.n	0x7bee
    80c4:	ff36 eaff 	vpmin.u<illegal width 64>	q7, q11, <illegal reg q15.5>
    80c8:	8001      	strh	r1, [r0, #0]
    80ca:	e3a0      	b.n	0x880e
    80cc:	3004      	adds	r0, #4
    80ce:	e597      	b.n	0x7c00
    80d0:	1141      	asrs	r1, r0, #5
    80d2:	e1a0      	b.n	0x8416
    80d4:	3118      	adds	r1, #24
    80d6:	e183      	b.n	0x83e0
    80d8:	3004      	adds	r0, #4
    80da:	e587      	b.n	0x7bec
    80dc:	ff9a eaff 			; <UNDEFINED> instruction: 0xff9aeaff
    80e0:	0054      	lsls	r4, r2, #1
    80e2:	e352      	b.n	0x878a
    80e4:	000b      	movs	r3, r1
    80e6:	8a00      	ldrh	r0, [r0, #16]
    80e8:	2623      	movs	r6, #35	; 0x23
    80ea:	e1a0      	b.n	0x842e
    80ec:	806f      	strh	r7, [r5, #2]
    80ee:	e282      	b.n	0x85f6
    80f0:	8188      	strh	r0, [r1, #12]
    80f2:	e1a0      	b.n	0x8436
    80f4:	106e      	asrs	r6, r5, #1
    80f6:	e282      	b.n	0x85fe
    80f8:	ff85 eaff 			; <UNDEFINED> instruction: 0xff85eaff
    80fc:	0f55      	lsrs	r5, r2, #29
    80fe:	e353      	b.n	0x87a8
    8100:	000b      	movs	r3, r1
    8102:	8a00      	ldrh	r0, [r0, #16]
    8104:	37a5      	adds	r7, #165	; 0xa5
    8106:	e1a0      	b.n	0x844a
    8108:	0078      	lsls	r0, r7, #1
    810a:	e283      	b.n	0x8614
    810c:	c077      	stmia	r0!, {r0, r1, r2, r4, r5, r6}
    810e:	e283      	b.n	0x8618
    8110:	1180      	asrs	r0, r0, #6
    8112:	e1a0      	b.n	0x8456
    8114:	fe85 eaff 			; <UNDEFINED> instruction: 0xfe85eaff
    8118:	0f55      	lsrs	r5, r2, #29
    811a:	e352      	b.n	0x87c2
    811c:	0013      	movs	r3, r2
    811e:	8a00      	ldrh	r0, [r0, #16]
    8120:	27a3      	movs	r7, #163	; 0xa3
    8122:	e1a0      	b.n	0x8466
    8124:	8078      	strh	r0, [r7, #2]
    8126:	e282      	b.n	0x862e
    8128:	8188      	strh	r0, [r1, #12]
    812a:	e1a0      	b.n	0x846e
    812c:	1077      	asrs	r7, r6, #1
    812e:	e282      	b.n	0x8636
    8130:	ff77 eaff 	vpmin.u<illegal width 64>	q15, <illegal reg q11.5>, <illegal reg q15.5>
    8134:	208c      	movs	r0, #140	; 0x8c
    8136:	e59f      	b.n	0x7c78
    8138:	0002      	movs	r2, r0
    813a:	e153      	b.n	0x83e4
    813c:	0014      	movs	r4, r2
    813e:	8a00      	ldrh	r0, [r0, #16]
    8140:	3925      	subs	r1, #37	; 0x25
    8142:	e1a0      	b.n	0x8486
    8144:	007d      	lsls	r5, r7, #1
    8146:	e283      	b.n	0x8650
    8148:	c07c      	stmia	r0!, {r2, r3, r4, r5, r6}
    814a:	e283      	b.n	0x8654
    814c:	1180      	asrs	r0, r0, #6
    814e:	e1a0      	b.n	0x8492
    8150:	fe76 eaff 			; <UNDEFINED> instruction: 0xfe76eaff
    8154:	1008      	asrs	r0, r1, #32
    8156:	e284      	b.n	0x8662
    8158:	0006      	movs	r6, r0
    815a:	e1a0      	b.n	0x849e
    815c:	fd6c ebff 			; <UNDEFINED> instruction: 0xfd6cebff
    8160:	4008      	ands	r0, r1
    8162:	e597      	b.n	0x7c94
    8164:	1000      	asrs	r0, r0, #32
    8166:	e599      	b.n	0x7c9c
    8168:	2004      	movs	r0, #4
    816a:	e594      	b.n	0x7c96
    816c:	ff04 eaff 	vpmin.u8	q7, q10, <illegal reg q15.5>
    8170:	1050      	asrs	r0, r2, #1
    8172:	e59f      	b.n	0x7cb4
    8174:	0001      	movs	r1, r0
    8176:	e152      	b.n	0x841e
    8178:	2923      	cmp	r1, #35	; 0x23
    817a:	91a0      	str	r1, [sp, #640]	; 0x280
    817c:	807d      	strh	r5, [r7, #2]
    817e:	9282      	str	r2, [sp, #520]	; 0x208
    8180:	8188      	strh	r0, [r1, #12]
    8182:	91a0      	str	r1, [sp, #640]	; 0x280
    8184:	107c      	asrs	r4, r7, #1
    8186:	9282      	str	r2, [sp, #520]	; 0x208
    8188:	8ffe      	ldrh	r6, [r7, #62]	; 0x3e
    818a:	83a0      	strh	r0, [r4, #28]
    818c:	107e      	asrs	r6, r7, #1
    818e:	83a0      	strh	r0, [r4, #28]
    8190:	ff5f eaff 	vpmin.u16	q15, <illegal reg q15.5>, <illegal reg q15.5>
    8194:	1ffe      	subs	r6, r7, #7
    8196:	e3a0      	b.n	0x88da
    8198:	007f      	lsls	r7, r7, #1
    819a:	e3a0      	b.n	0x88de
    819c:	c07e      	stmia	r0!, {r1, r2, r3, r4, r5, r6}
    819e:	e3a0      	b.n	0x88e2
    81a0:	fe62 eaff 			; <UNDEFINED> instruction: 0xfe62eaff
    81a4:	3004      	adds	r0, #4
    81a6:	e597      	b.n	0x7cd8
    81a8:	ffa8 eaff 			; <UNDEFINED> instruction: 0xffa8eaff
    81ac:	0358      	lsls	r0, r3, #13
    81ae:	0300      	lsls	r0, r0, #12
    81b0:	0360      	lsls	r0, r4, #13
    81b2:	0300      	lsls	r0, r0, #12
    81b4:	0760      	lsls	r0, r4, #29
    81b6:	0300      	lsls	r0, r0, #12
    81b8:	0114      	lsls	r4, r2, #4
    81ba:	0300      	lsls	r0, r0, #12
    81bc:	00e4      	lsls	r4, r4, #3
    81be:	0300      	lsls	r0, r0, #12
    81c0:	010c      	lsls	r4, r1, #4
    81c2:	0300      	lsls	r0, r0, #12
    81c4:	0110      	lsls	r0, r2, #4
    81c6:	0300      	lsls	r0, r0, #12
    81c8:	0554      	lsls	r4, r2, #21
    81ca:	0000      	movs	r0, r0
    81cc:	40f0      	lsrs	r0, r6
    81ce:	e92d 0000 	stmdb	sp!, {}
    81d2:	e351      	b.n	0x8878
    81d4:	d00c      	beq.n	0x81f0
    81d6:	e24d      	b.n	0x8674
    81d8:	1004      	asrs	r4, r0, #32
    81da:	028d      	lsls	r5, r1, #10
    81dc:	0000      	movs	r0, r0
    81de:	e352      	b.n	0x8886
    81e0:	4000      	ands	r0, r0
    81e2:	e1a0      	b.n	0x8526
    81e4:	5020      	str	r0, [r4, r0]
    81e6:	e59d      	b.n	0x7d24
    81e8:	0002      	movs	r2, r0
    81ea:	01a0      	lsls	r0, r4, #6
    81ec:	0026      	movs	r6, r4
    81ee:	0a00      	lsrs	r0, r0, #8
    81f0:	0000      	movs	r0, r0
    81f2:	e353      	b.n	0x889c
    81f4:	009e      	lsls	r6, r3, #2
    81f6:	0a00      	lsrs	r0, r0, #8
    81f8:	e000      	b.n	0x81fc
    81fa:	e595      	b.n	0x7d28
    81fc:	0000      	movs	r0, r0
    81fe:	e35e      	b.n	0x88be
    8200:	0000      	movs	r0, r0
    8202:	05d2      	lsls	r2, r2, #23
    8204:	0004      	movs	r4, r0
    8206:	15d5      	asrs	r5, r2, #23
    8208:	c001      	stmia	r0!, {r0}
    820a:	03a0      	lsls	r0, r4, #14
    820c:	c000      	stmia	r0!, {}
    820e:	13a0      	asrs	r0, r4, #14
    8210:	0000      	movs	r0, r0
    8212:	e350      	b.n	0x88b6
    8214:	0000      	movs	r0, r0
    8216:	0581      	lsls	r1, r0, #22
    8218:	0000      	movs	r0, r0
    821a:	0585      	lsls	r5, r0, #22
    821c:	001a      	movs	r2, r3
    821e:	0a00      	lsrs	r0, r0, #8
    8220:	007f      	lsls	r7, r7, #1
    8222:	e350      	b.n	0x88c6
    8224:	001b      	movs	r3, r3
    8226:	da00      	bge.n	0x822a
    8228:	60c0      	str	r0, [r0, #12]
    822a:	e240      	b.n	0x86ae
    822c:	001f      	movs	r7, r3
    822e:	e356      	b.n	0x88de
    8230:	001f      	movs	r7, r3
    8232:	8a00      	ldrh	r0, [r0, #16]
    8234:	0000      	movs	r0, r0
    8236:	e35e      	b.n	0x88f6
    8238:	0004      	movs	r4, r0
    823a:	e5c5      	b.n	0x7dc8
    823c:	0003      	movs	r3, r0
    823e:	1a00      	subs	r0, r0, r0
    8240:	e001      	b.n	0x8246
    8242:	e3a0      	b.n	0x8986
    8244:	000e      	movs	r6, r1
    8246:	e153      	b.n	0x84f0
    8248:	e000      	b.n	0x824c
    824a:	e585      	b.n	0x7d58
    824c:	0088      	lsls	r0, r1, #2
    824e:	9a00      	ldr	r2, [sp, #0]
    8250:	200c      	movs	r0, #12
    8252:	e7d2      	b.n	0x81fa
    8254:	3080      	adds	r0, #128	; 0x80
    8256:	e242      	b.n	0x86de
    8258:	003f      	movs	r7, r7
    825a:	e353      	b.n	0x8904
    825c:	c001      	stmia	r0!, {r0}
    825e:	e28c      	b.n	0x877a
    8260:	0087      	lsls	r7, r0, #2
    8262:	8a00      	ldrh	r0, [r0, #16]
    8264:	00c1      	lsls	r1, r0, #3
    8266:	e350      	b.n	0x890a
    8268:	0085      	lsls	r5, r0, #2
    826a:	da00      	bge.n	0x826e
    826c:	e000      	b.n	0x8270
    826e:	e3a0      	b.n	0x89b2
    8270:	3300      	adds	r3, #0
    8272:	e1a0      	b.n	0x85b6
    8274:	000c      	movs	r4, r1
    8276:	e1a0      	b.n	0x85ba
    8278:	3d1f      	subs	r5, #31
    827a:	e203      	b.n	0x8684
    827c:	203f      	movs	r0, #63	; 0x3f
    827e:	e202      	b.n	0x8686
    8280:	3002      	adds	r0, #2
    8282:	e183      	b.n	0x858c
    8284:	e000      	b.n	0x8288
    8286:	e585      	b.n	0x7d94
    8288:	3000      	adds	r0, #0
    828a:	e581      	b.n	0x7d90
    828c:	d00c      	beq.n	0x82a8
    828e:	e28d      	b.n	0x87ac
    8290:	40f0      	lsrs	r0, r6
    8292:	e8bd ff1e 	ldmia.w	sp!, {r1, r2, r3, r4, r8, r9, sl, fp, ip, sp, lr, pc}
    8296:	e12f      	b.n	0x84f8
    8298:	3000      	adds	r0, #0
    829a:	e3a0      	b.n	0x89de
    829c:	3000      	adds	r0, #0
    829e:	e585      	b.n	0x7dac
    82a0:	0000      	movs	r0, r0
    82a2:	e581      	b.n	0x7da8
    82a4:	0001      	movs	r1, r0
    82a6:	e3a0      	b.n	0x89ea
    82a8:	d00c      	beq.n	0x82c4
    82aa:	e28d      	b.n	0x87c8
    82ac:	40f0      	lsrs	r0, r6
    82ae:	e8bd ff1e 	ldmia.w	sp!, {r1, r2, r3, r4, r8, r9, sl, fp, ip, sp, lr, pc}
    82b2:	e12f      	b.n	0x8514
    82b4:	60e0      	str	r0, [r4, #12]
    82b6:	e240      	b.n	0x873a
    82b8:	000f      	movs	r7, r1
    82ba:	e356      	b.n	0x896a
    82bc:	0021      	movs	r1, r4
    82be:	8a00      	ldrh	r0, [r0, #16]
    82c0:	0000      	movs	r0, r0
    82c2:	e35e      	b.n	0x8982
    82c4:	0004      	movs	r4, r0
    82c6:	e5c5      	b.n	0x7e54
    82c8:	0055      	lsls	r5, r2, #1
    82ca:	0a00      	lsrs	r0, r0, #8
    82cc:	0001      	movs	r1, r0
    82ce:	e373      	b.n	0x89b8
    82d0:	3001      	adds	r0, #1
    82d2:	1283      	asrs	r3, r0, #10
    82d4:	0001      	movs	r1, r0
    82d6:	e35e      	b.n	0x8996
    82d8:	6005      	str	r5, [r0, #0]
    82da:	15d5      	asrs	r5, r2, #23
    82dc:	0054      	lsls	r4, r2, #1
    82de:	0a00      	lsrs	r0, r0, #8
    82e0:	009f      	lsls	r7, r3, #2
    82e2:	e356      	b.n	0x8992
    82e4:	00e0      	lsls	r0, r4, #3
    82e6:	d350      	bcc.n	0x838a
    82e8:	0065      	lsls	r5, r4, #1
    82ea:	0a00      	lsrs	r0, r0, #8
    82ec:	7080      	strb	r0, [r0, #2]
    82ee:	e246      	b.n	0x877e
    82f0:	003f      	movs	r7, r7
    82f2:	e357      	b.n	0x89a4
    82f4:	0062      	lsls	r2, r4, #1
    82f6:	8a00      	ldrh	r0, [r0, #16]
    82f8:	0001      	movs	r1, r0
    82fa:	e35e      	b.n	0x89ba
    82fc:	6005      	str	r5, [r0, #0]
    82fe:	e5c5      	b.n	0x7e8c
    8300:	0057      	lsls	r7, r2, #1
    8302:	0a00      	lsrs	r0, r0, #8
    8304:	200c      	movs	r0, #12
    8306:	e7d2      	b.n	0x82ae
    8308:	3080      	adds	r0, #128	; 0x80
    830a:	e242      	b.n	0x8792
    830c:	003f      	movs	r7, r7
    830e:	e353      	b.n	0x89b8
    8310:	c001      	stmia	r0!, {r0}
    8312:	e28c      	b.n	0x882e
    8314:	005a      	lsls	r2, r3, #1
    8316:	8a00      	ldrh	r0, [r0, #16]
    8318:	e000      	b.n	0x831c
    831a:	e3a0      	b.n	0x8a5e
    831c:	31ac      	adds	r1, #172	; 0xac
    831e:	e59f      	b.n	0x7e60
    8320:	6306      	str	r6, [r0, #48]	; 0x30
    8322:	e1a0      	b.n	0x8666
    8324:	0600      	lsls	r0, r0, #24
    8326:	e003      	b.n	0x8330
    8328:	6d3f      	ldr	r7, [r7, #80]	; 0x50
    832a:	e206      	b.n	0x873a
    832c:	6006      	str	r6, [r0, #0]
    832e:	e180      	b.n	0x8632
    8330:	203f      	movs	r0, #63	; 0x3f
    8332:	e202      	b.n	0x873a
    8334:	6002      	str	r2, [r0, #0]
    8336:	e186      	b.n	0x8646
    8338:	e000      	b.n	0x833c
    833a:	e585      	b.n	0x7e48
    833c:	000c      	movs	r4, r1
    833e:	e1a0      	b.n	0x8682
    8340:	6000      	str	r0, [r0, #0]
    8342:	e581      	b.n	0x7e48
    8344:	ffd0 eaff 			; <UNDEFINED> instruction: 0xffd0eaff
    8348:	60f0      	str	r0, [r6, #12]
    834a:	e240      	b.n	0x87ce
    834c:	0004      	movs	r4, r0
    834e:	e356      	b.n	0x89fe
    8350:	004b      	lsls	r3, r1, #1
    8352:	8a00      	ldrh	r0, [r0, #16]
    8354:	0000      	movs	r0, r0
    8356:	e35e      	b.n	0x8a16
    8358:	0004      	movs	r4, r0
    835a:	e5c5      	b.n	0x7ee8
    835c:	0038      	movs	r0, r7
    835e:	0a00      	lsrs	r0, r0, #8
    8360:	0001      	movs	r1, r0
    8362:	e373      	b.n	0x8a4c
    8364:	3001      	adds	r0, #1
    8366:	1283      	asrs	r3, r0, #10
    8368:	0001      	movs	r1, r0
    836a:	e35e      	b.n	0x8a2a
    836c:	6005      	str	r5, [r0, #0]
    836e:	15d5      	asrs	r5, r2, #23
    8370:	0037      	movs	r7, r6
    8372:	0a00      	lsrs	r0, r0, #8
    8374:	00f0      	lsls	r0, r6, #3
    8376:	e350      	b.n	0x8a1a
    8378:	003f      	movs	r7, r7
    837a:	0a00      	lsrs	r0, r0, #8
    837c:	00f4      	lsls	r4, r6, #3
    837e:	e350      	b.n	0x8a22
    8380:	7000      	strb	r0, [r0, #0]
    8382:	13a0      	asrs	r0, r4, #14
    8384:	7001      	strb	r1, [r0, #0]
    8386:	03a0      	lsls	r0, r4, #14
    8388:	008f      	lsls	r7, r1, #2
    838a:	e356      	b.n	0x8a3a
    838c:	7000      	strb	r0, [r0, #0]
    838e:	d3a0      	bcc.n	0x82d2
    8390:	0000      	movs	r0, r0
    8392:	e357      	b.n	0x8a44
    8394:	003a      	movs	r2, r7
    8396:	1a00      	subs	r0, r0, r0
    8398:	7080      	strb	r0, [r0, #2]
    839a:	e246      	b.n	0x882a
    839c:	003f      	movs	r7, r7
    839e:	e357      	b.n	0x8a50
    83a0:	0037      	movs	r7, r6
    83a2:	8a00      	ldrh	r0, [r0, #16]
    83a4:	0001      	movs	r1, r0
    83a6:	e35e      	b.n	0x8a66
    83a8:	6005      	str	r5, [r0, #0]
    83aa:	e5c5      	b.n	0x7f38
    83ac:	0038      	movs	r0, r7
    83ae:	0a00      	lsrs	r0, r0, #8
    83b0:	e000      	b.n	0x83b4
    83b2:	e595      	b.n	0x7ee0
    83b4:	0001      	movs	r1, r0
    83b6:	e373      	b.n	0x8aa0
    83b8:	3001      	adds	r0, #1
    83ba:	1283      	asrs	r3, r0, #10
    83bc:	0002      	movs	r2, r0
    83be:	e35e      	b.n	0x8a7e
    83c0:	0037      	movs	r7, r6
    83c2:	0a00      	lsrs	r0, r0, #8
    83c4:	e006      	b.n	0x83d4
    83c6:	e5d5      	b.n	0x7f74
    83c8:	3080      	adds	r0, #128	; 0x80
    83ca:	e24e      	b.n	0x886a
    83cc:	003f      	movs	r7, r7
    83ce:	e353      	b.n	0x8a78
    83d0:	002b      	movs	r3, r5
    83d2:	8a00      	ldrh	r0, [r0, #16]
    83d4:	200c      	movs	r0, #12
    83d6:	e7d2      	b.n	0x837e
    83d8:	3080      	adds	r0, #128	; 0x80
    83da:	e242      	b.n	0x8862
    83dc:	003f      	movs	r7, r7
    83de:	e353      	b.n	0x8a88
    83e0:	c001      	stmia	r0!, {r0}
    83e2:	e28c      	b.n	0x88fe
    83e4:	0026      	movs	r6, r4
    83e6:	8a00      	ldrh	r0, [r0, #16]
    83e8:	4000      	ands	r0, r0
    83ea:	e3a0      	b.n	0x8b2e
    83ec:	3900      	subs	r1, #0
    83ee:	e1a0      	b.n	0x8732
    83f0:	6606      	str	r6, [r0, #96]	; 0x60
    83f2:	e1a0      	b.n	0x8736
    83f4:	3707      	adds	r7, #7
    83f6:	e203      	b.n	0x8800
    83f8:	6a3f      	ldr	r7, [r7, #32]
    83fa:	e206      	b.n	0x880a
    83fc:	e30e      	b.n	0x8a1c
    83fe:	e1a0      	b.n	0x8742
    8400:	3006      	adds	r0, #6
    8402:	e183      	b.n	0x870c
    8404:	ed3f e20e 	lfm	f6, 1, [pc, #-56]!	; 0x83d0
    8408:	300e      	adds	r0, #14
    840a:	e183      	b.n	0x8714
    840c:	203f      	movs	r0, #63	; 0x3f
    840e:	e202      	b.n	0x8816
    8410:	3002      	adds	r0, #2
    8412:	e183      	b.n	0x871c
    8414:	3000      	adds	r0, #0
    8416:	e581      	b.n	0x7f1c
    8418:	000c      	movs	r4, r1
    841a:	e1a0      	b.n	0x875e
    841c:	4000      	ands	r0, r0
    841e:	e585      	b.n	0x7f2c
    8420:	ff99 eaff 			; <UNDEFINED> instruction: 0xff99eaff
    8424:	e001      	b.n	0x842a
    8426:	e3a0      	b.n	0x8b6a
    8428:	000e      	movs	r6, r1
    842a:	e153      	b.n	0x86d4
    842c:	e000      	b.n	0x8430
    842e:	e585      	b.n	0x7f3c
    8430:	000f      	movs	r7, r1
    8432:	9a00      	ldr	r2, [sp, #0]
    8434:	e001      	b.n	0x843a
    8436:	e3a0      	b.n	0x8b7a
    8438:	600c      	str	r4, [r1, #0]
    843a:	e7d2      	b.n	0x83e2
    843c:	c00e      	stmia	r0!, {r1, r2, r3}
    843e:	e08c      	b.n	0x855a
    8440:	ffa6 eaff 			; <UNDEFINED> instruction: 0xffa6eaff
    8444:	e001      	b.n	0x844a
    8446:	e3a0      	b.n	0x8b8a
    8448:	000e      	movs	r6, r1
    844a:	e153      	b.n	0x86f4
    844c:	e000      	b.n	0x8450
    844e:	e585      	b.n	0x7f5c
    8450:	0007      	movs	r7, r0
    8452:	9a00      	ldr	r2, [sp, #0]
    8454:	e001      	b.n	0x845a
    8456:	e3a0      	b.n	0x8b9a
    8458:	600c      	str	r4, [r1, #0]
    845a:	e7d2      	b.n	0x8402
    845c:	c00e      	stmia	r0!, {r1, r2, r3}
    845e:	e08c      	b.n	0x857a
    8460:	ffc3 eaff 			; <UNDEFINED> instruction: 0xffc3eaff
    8464:	e002      	b.n	0x846c
    8466:	e3a0      	b.n	0x8baa
    8468:	000e      	movs	r6, r1
    846a:	e153      	b.n	0x8714
    846c:	e000      	b.n	0x8470
    846e:	e585      	b.n	0x7f7c
    8470:	ffa3 1aff 			; <UNDEFINED> instruction: 0xffa31aff
    8474:	0001      	movs	r1, r0
    8476:	e3e0      	b.n	0x8c3a
    8478:	ff83 eaff 			; <UNDEFINED> instruction: 0xff83eaff
    847c:	008f      	lsls	r7, r1, #2
    847e:	e356      	b.n	0x8b2e
    8480:	ffc4 caff 			; <UNDEFINED> instruction: 0xffc4caff
    8484:	308a      	adds	r0, #138	; 0x8a
    8486:	e3a0      	b.n	0x8bca
    8488:	0000      	movs	r0, r0
    848a:	e3e0      	b.n	0x8c4e
    848c:	3000      	adds	r0, #0
    848e:	e584      	b.n	0x7f9a
    8490:	ff7d eaff 	vpmin.u<illegal width 64>	q15, <illegal reg q14.5>, <illegal reg q15.5>
    8494:	e002      	b.n	0x849c
    8496:	e3a0      	b.n	0x8bda
    8498:	000e      	movs	r6, r1
    849a:	e153      	b.n	0x8744
    849c:	e000      	b.n	0x84a0
    849e:	e585      	b.n	0x7fac
    84a0:	fff3 0aff 			; <UNDEFINED> instruction: 0xfff30aff
    84a4:	e00c      	b.n	0x84c0
    84a6:	e7d2      	b.n	0x844e
    84a8:	7080      	strb	r0, [r0, #2]
    84aa:	e24e      	b.n	0x894a
    84ac:	003f      	movs	r7, r7
    84ae:	e357      	b.n	0x8b60
    84b0:	c001      	stmia	r0!, {r0}
    84b2:	e28c      	b.n	0x89ce
    84b4:	fff2 8aff 			; <UNDEFINED> instruction: 0xfff28aff
    84b8:	7003      	strb	r3, [r0, #0]
    84ba:	e3a0      	b.n	0x8bfe
    84bc:	0007      	movs	r7, r0
    84be:	e153      	b.n	0x8768
    84c0:	e006      	b.n	0x84d0
    84c2:	e5c5      	b.n	0x8050
    84c4:	7000      	strb	r0, [r0, #0]
    84c6:	e585      	b.n	0x7fd4
    84c8:	ffc1 1aff 			; <UNDEFINED> instruction: 0xffc11aff
    84cc:	ffe8 eaff 			; <UNDEFINED> instruction: 0xffe8eaff
    84d0:	ffff 0000 	vaddl.u<illegal width 64>	q8, d15, d0
    84d4:	0003      	movs	r3, r0
    84d6:	e310      	b.n	0x8afa
    84d8:	4070      	eors	r0, r6
    84da:	e92d 40ff 	stmdb	sp!, {r0, r1, r2, r3, r4, r5, r6, r7, lr}
    84de:	e201      	b.n	0x88e4
    84e0:	0038      	movs	r0, r7
    84e2:	0a00      	lsrs	r0, r0, #8
    84e4:	0000      	movs	r0, r0
    84e6:	e352      	b.n	0x8b8e
    84e8:	c001      	stmia	r0!, {r0}
    84ea:	e242      	b.n	0x8972
    84ec:	001e      	movs	r6, r3
    84ee:	0a00      	lsrs	r0, r0, #8
    84f0:	3000      	adds	r0, #0
    84f2:	e5d0      	b.n	0x8096
    84f4:	0004      	movs	r4, r0
    84f6:	e153      	b.n	0x87a0
    84f8:	001c      	movs	r4, r3
    84fa:	0a00      	lsrs	r0, r0, #8
    84fc:	3001      	adds	r0, #1
    84fe:	e280      	b.n	0x8a02
    8500:	0005      	movs	r5, r0
    8502:	ea00 c001 			; <UNDEFINED> instruction: 0xea00c001
    8506:	e25c      	b.n	0x89c2
    8508:	0017      	movs	r7, r2
    850a:	3a00      	subs	r2, #0
    850c:	2000      	movs	r0, #0
    850e:	e5d0      	b.n	0x80b2
    8510:	0004      	movs	r4, r0
    8512:	e152      	b.n	0x87ba
    8514:	3001      	adds	r0, #1
    8516:	e283      	b.n	0x8a20
    8518:	0014      	movs	r4, r2
    851a:	0a00      	lsrs	r0, r0, #8
    851c:	0003      	movs	r3, r0
    851e:	e313      	b.n	0x8b48
    8520:	0003      	movs	r3, r0
    8522:	e1a0      	b.n	0x8866
    8524:	fff6 1aff 			; <UNDEFINED> instruction: 0xfff61aff
    8528:	0003      	movs	r3, r0
    852a:	e35c      	b.n	0x8be6
    852c:	0011      	movs	r1, r2
    852e:	8a00      	ldrh	r0, [r0, #16]
    8530:	0000      	movs	r0, r0
    8532:	e35c      	b.n	0x8bee
    8534:	0025      	movs	r5, r4
    8536:	0a00      	lsrs	r0, r0, #8
    8538:	3000      	adds	r0, #0
    853a:	e5d0      	b.n	0x80de
    853c:	0004      	movs	r4, r0
    853e:	e153      	b.n	0x87e8
    8540:	000a      	movs	r2, r1
    8542:	0a00      	lsrs	r0, r0, #8
    8544:	c00c      	stmia	r0!, {r2, r3}
    8546:	e080      	b.n	0x864a
    8548:	2001      	movs	r0, #1
    854a:	e280      	b.n	0x8a4e
    854c:	0003      	movs	r3, r0
    854e:	ea00 1000 	and.w	r0, r0, r0, lsl #4
    8552:	e5d0      	b.n	0x80f6
    8554:	0004      	movs	r4, r0
    8556:	e151      	b.n	0x87fc
    8558:	2001      	movs	r0, #1
    855a:	e282      	b.n	0x8a62
    855c:	0003      	movs	r3, r0
    855e:	0a00      	lsrs	r0, r0, #8
    8560:	0002      	movs	r2, r0
    8562:	e15c      	b.n	0x881e
    8564:	0002      	movs	r2, r0
    8566:	e1a0      	b.n	0x88aa
    8568:	fff8 1aff 			; <UNDEFINED> instruction: 0xfff81aff
    856c:	0000      	movs	r0, r0
    856e:	e3a0      	b.n	0x8cb2
    8570:	4070      	eors	r0, r6
    8572:	e8bd ff1e 	ldmia.w	sp!, {r1, r2, r3, r4, r8, r9, sl, fp, ip, sp, lr, pc}
    8576:	e12f      	b.n	0x87d8
    8578:	e000      	b.n	0x857c
    857a:	e1a0      	b.n	0x88be
    857c:	3054      	adds	r0, #84	; 0x54
    857e:	e59f      	b.n	0x80c0
    8580:	3401      	adds	r4, #1
    8582:	e003      	b.n	0x858c
    8584:	3004      	adds	r0, #4
    8586:	e183      	b.n	0x8890
    8588:	604c      	str	r4, [r1, #4]
    858a:	e59f      	b.n	0x80cc
    858c:	504c      	str	r4, [r1, r1]
    858e:	e59f      	b.n	0x80d0
    8590:	3803      	subs	r0, #3
    8592:	e183      	b.n	0x889c
    8594:	2000      	movs	r0, #0
    8596:	e59e      	b.n	0x80d6
    8598:	2003      	movs	r0, #3
    859a:	e022      	b.n	0x85e2
    859c:	1006      	asrs	r6, r0, #32
    859e:	e082      	b.n	0x86a6
    85a0:	2002      	movs	r0, #2
    85a2:	e1c1      	b.n	0x8928
    85a4:	0005      	movs	r5, r0
    85a6:	e112      	b.n	0x87ce
    85a8:	000e      	movs	r6, r1
    85aa:	e1a0      	b.n	0x88ee
    85ac:	e004      	b.n	0x85b8
    85ae:	e28e      	b.n	0x8ace
    85b0:	ffe0 1aff 			; <UNDEFINED> instruction: 0xffe01aff
    85b4:	c004      	stmia	r0!, {r2}
    85b6:	e24c      	b.n	0x8a52
    85b8:	0003      	movs	r3, r0
    85ba:	e35c      	b.n	0x8c76
    85bc:	000e      	movs	r6, r1
    85be:	e1a0      	b.n	0x8902
    85c0:	fff3 8aff 			; <UNDEFINED> instruction: 0xfff38aff
    85c4:	ffd9 eaff 			; <UNDEFINED> instruction: 0xffd9eaff
    85c8:	c002      	stmia	r0!, {r1}
    85ca:	e1a0      	b.n	0x890e
    85cc:	ffd5 eaff 			; <UNDEFINED> instruction: 0xffd5eaff
    85d0:	000c      	movs	r4, r1
    85d2:	e1a0      	b.n	0x8916
    85d4:	ffe5 eaff 			; <UNDEFINED> instruction: 0xffe5eaff
    85d8:	ffff 0000 	vaddl.u<illegal width 64>	q8, d15, d0
    85dc:	feff fefe 			; <UNDEFINED> instruction: 0xfefffefe
    85e0:	8080      	strh	r0, [r0, #4]
    85e2:	8080      	strh	r0, [r0, #4]
    85e4:	0003      	movs	r3, r0
    85e6:	e310      	b.n	0x8c0a
    85e8:	003f      	movs	r7, r7
    85ea:	0a00      	lsrs	r0, r0, #8
    85ec:	0000      	movs	r0, r0
    85ee:	e352      	b.n	0x8c96
    85f0:	2001      	movs	r0, #1
    85f2:	e242      	b.n	0x8a7a
    85f4:	ff1e 012f 	vrhadd.u16	d0, d14, d31
    85f8:	c0ff      	stmia	r0!, {r0, r1, r2, r3, r4, r5, r6, r7}
    85fa:	e201      	b.n	0x8a00
    85fc:	3000      	adds	r0, #0
    85fe:	e1a0      	b.n	0x8942
    8600:	0002      	movs	r2, r0
    8602:	ea00 2001 	and.w	r0, r0, r1, lsl #8
    8606:	e242      	b.n	0x8a8e
    8608:	0001      	movs	r1, r0
    860a:	e372      	b.n	0x8cf2
    860c:	ff1e 012f 	vrhadd.u16	d0, d14, d31
    8610:	c001      	stmia	r0!, {r0}
    8612:	e4c3      	b.n	0x7f9c
    8614:	0003      	movs	r3, r0
    8616:	e313      	b.n	0x8c40
    8618:	fff9 1aff 			; <UNDEFINED> instruction: 0xfff91aff
    861c:	0003      	movs	r3, r0
    861e:	e352      	b.n	0x8cc6
    8620:	0027      	movs	r7, r4
    8622:	9a00      	ldr	r2, [sp, #0]
    8624:	4030      	ands	r0, r6
    8626:	e92d e0ff 	stmdb	sp!, {r0, r1, r2, r3, r4, r5, r6, r7, sp, lr, pc}
    862a:	e201      	b.n	0x8a30
    862c:	e40e      	b.n	0x7e4c
    862e:	e18e      	b.n	0x894e
    8630:	000f      	movs	r7, r1
    8632:	e352      	b.n	0x8cda
    8634:	e80e e18e 			; <UNDEFINED> instruction: 0xe80ee18e
    8638:	002d      	movs	r5, r5
    863a:	9a00      	ldr	r2, [sp, #0]
    863c:	4010      	ands	r0, r2
    863e:	e242      	b.n	0x8ac6
    8640:	4224      	tst	r4, r4
    8642:	e1a0      	b.n	0x8986
    8644:	5020      	str	r0, [r4, r0]
    8646:	e283      	b.n	0x8b50
    8648:	5204      	strh	r4, [r0, r0]
    864a:	e085      	b.n	0x8758
    864c:	c010      	stmia	r0!, {r4}
    864e:	e283      	b.n	0x8b58
    8650:	e010      	b.n	0x8674
    8652:	e50c      	b.n	0x806e
    8654:	e00c      	b.n	0x8670
    8656:	e50c      	b.n	0x8072
    8658:	e008      	b.n	0x866c
    865a:	e50c      	b.n	0x8076
    865c:	e004      	b.n	0x8668
    865e:	e50c      	b.n	0x807a
    8660:	c010      	stmia	r0!, {r4}
    8662:	e28c      	b.n	0x8b7e
    8664:	0005      	movs	r5, r0
    8666:	e15c      	b.n	0x8922
    8668:	fff8 1aff 			; <UNDEFINED> instruction: 0xfff81aff
    866c:	c001      	stmia	r0!, {r0}
    866e:	e284      	b.n	0x8b7a
    8670:	000c      	movs	r4, r1
    8672:	e312      	b.n	0x8c9a
    8674:	c20c      	stmia	r2!, {r2, r3}
    8676:	e083      	b.n	0x8780
    8678:	200f      	movs	r0, #15
    867a:	e202      	b.n	0x8a82
    867c:	0018      	movs	r0, r3
    867e:	0a00      	lsrs	r0, r0, #8
    8680:	3004      	adds	r0, #4
    8682:	e242      	b.n	0x8b0a
    8684:	3003      	adds	r0, #3
    8686:	e3c3      	b.n	0x8e10
    8688:	3004      	adds	r0, #4
    868a:	e283      	b.n	0x8b94
    868c:	3003      	adds	r0, #3
    868e:	e08c      	b.n	0x87aa
    8690:	e004      	b.n	0x869c
    8692:	e48c      	b.n	0x7fae
    8694:	000c      	movs	r4, r1
    8696:	e153      	b.n	0x8940
    8698:	fffc 1aff 			; <UNDEFINED> instruction: 0xfffc1aff
    869c:	2003      	movs	r0, #3
    869e:	e202      	b.n	0x8aa6
    86a0:	0000      	movs	r0, r0
    86a2:	e352      	b.n	0x8d4a
    86a4:	0004      	movs	r4, r0
    86a6:	0a00      	lsrs	r0, r0, #8
    86a8:	10ff      	asrs	r7, r7, #3
    86aa:	e201      	b.n	0x8ab0
    86ac:	2002      	movs	r0, #2
    86ae:	e083      	b.n	0x87b8
    86b0:	1001      	asrs	r1, r0, #32
    86b2:	e4c3      	b.n	0x803c
    86b4:	0003      	movs	r3, r0
    86b6:	e152      	b.n	0x895e
    86b8:	fffc 1aff 			; <UNDEFINED> instruction: 0xfffc1aff
    86bc:	4030      	ands	r0, r6
    86be:	e8bd ff1e 	ldmia.w	sp!, {r1, r2, r3, r4, r8, r9, sl, fp, ip, sp, lr, pc}
    86c2:	e12f      	b.n	0x8924
    86c4:	0000      	movs	r0, r0
    86c6:	e352      	b.n	0x8d6e
    86c8:	ff1e 012f 	vrhadd.u16	d0, d14, d31
    86cc:	10ff      	asrs	r7, r7, #3
    86ce:	e201      	b.n	0x8ad4
    86d0:	2002      	movs	r0, #2
    86d2:	e083      	b.n	0x87dc
    86d4:	1001      	asrs	r1, r0, #32
    86d6:	e4c3      	b.n	0x8060
    86d8:	0003      	movs	r3, r0
    86da:	e152      	b.n	0x8982
    86dc:	fffc 1aff 			; <UNDEFINED> instruction: 0xfffc1aff
    86e0:	ff1e e12f 	vrhadd.u16	d14, d14, d31
    86e4:	300c      	adds	r0, #12
    86e6:	e1a0      	b.n	0x8a2a
    86e8:	ffec eaff 			; <UNDEFINED> instruction: 0xffeceaff
    86ec:	3000      	adds	r0, #0
    86ee:	e1a0      	b.n	0x8a32
    86f0:	ffc9 eaff 			; <UNDEFINED> instruction: 0xffc9eaff
    86f4:	c003      	stmia	r0!, {r0, r1}
    86f6:	e1a0      	b.n	0x8a3a
    86f8:	ffe0 eaff 			; <UNDEFINED> instruction: 0xffe0eaff
    86fc:	4010      	ands	r0, r2
    86fe:	e92d 0008 	stmdb	sp!, {r3}
    8702:	e59f      	b.n	0x8244
    8704:	05d4      	lsls	r4, r2, #23
    8706:	eb00 4010 	add.w	r0, r0, r0, lsr #16
    870a:	e8bd ff1e 	ldmia.w	sp!, {r1, r2, r3, r4, r8, r9, sl, fp, ip, sp, lr, pc}
    870e:	e12f      	b.n	0x8970
    8710:	0768      	lsls	r0, r5, #29
    8712:	0300      	lsls	r0, r0, #12
    8714:	4010      	ands	r0, r2
    8716:	e92d 0008 	stmdb	sp!, {r3}
    871a:	e59f      	b.n	0x825c
    871c:	05d4      	lsls	r4, r2, #23
    871e:	eb00 4010 	add.w	r0, r0, r0, lsr #16
    8722:	e8bd ff1e 	ldmia.w	sp!, {r1, r2, r3, r4, r8, r9, sl, fp, ip, sp, lr, pc}
    8726:	e12f      	b.n	0x8988
    8728:	0768      	lsls	r0, r5, #29
    872a:	0300      	lsls	r0, r0, #12
    872c:	304c      	adds	r0, #76	; 0x4c
    872e:	e590      	b.n	0x8252
    8730:	0000      	movs	r0, r0
    8732:	e353      	b.n	0x8ddc
    8734:	4070      	eors	r0, r6
    8736:	e92d 5000 	stmdb	sp!, {ip, lr}
    873a:	e1a0      	b.n	0x8a7e
    873c:	4001      	ands	r1, r0
    873e:	e1a0      	b.n	0x8a82
    8740:	0009      	movs	r1, r1
    8742:	0a00      	lsrs	r0, r0, #8
    8744:	0104      	lsls	r4, r0, #4
    8746:	e793      	b.n	0x8670
    8748:	0000      	movs	r0, r0
    874a:	e350      	b.n	0x8dee
    874c:	000f      	movs	r7, r1
    874e:	0a00      	lsrs	r0, r0, #8
    8750:	2000      	movs	r0, #0
    8752:	e590      	b.n	0x8276
    8754:	2104      	movs	r1, #4
    8756:	e783      	b.n	0x8660
    8758:	3000      	adds	r0, #0
    875a:	e3a0      	b.n	0x8e9e
    875c:	3010      	adds	r0, #16
    875e:	e580      	b.n	0x8262
    8760:	300c      	adds	r0, #12
    8762:	e580      	b.n	0x8266
    8764:	4070      	eors	r0, r6
    8766:	e8bd ff1e 	ldmia.w	sp!, {r1, r2, r3, r4, r8, r9, sl, fp, ip, sp, lr, pc}
    876a:	e12f      	b.n	0x89cc
    876c:	2021      	movs	r0, #33	; 0x21
    876e:	e3a0      	b.n	0x8eb2
    8770:	1004      	asrs	r4, r0, #32
    8772:	e3a0      	b.n	0x8eb6
    8774:	03e7      	lsls	r7, r4, #15
    8776:	eb00 0000 	add.w	r0, r0, r0
    877a:	e350      	b.n	0x8e1e
    877c:	3000      	adds	r0, #0
    877e:	e1a0      	b.n	0x8ac2
    8780:	004c      	lsls	r4, r1, #1
    8782:	e585      	b.n	0x8290
    8784:	ffee 1aff 			; <UNDEFINED> instruction: 0xffee1aff
    8788:	0000      	movs	r0, r0
    878a:	e3a0      	b.n	0x8ece
    878c:	fff4 eaff 			; <UNDEFINED> instruction: 0xfff4eaff
    8790:	1001      	asrs	r1, r0, #32
    8792:	e3a0      	b.n	0x8ed6
    8794:	6411      	str	r1, [r2, #64]	; 0x40
    8796:	e1a0      	b.n	0x8ada
    8798:	2005      	movs	r0, #5
    879a:	e286      	b.n	0x8caa
    879c:	0005      	movs	r5, r0
    879e:	e1a0      	b.n	0x8ae2
    87a0:	2102      	movs	r1, #2
    87a2:	e1a0      	b.n	0x8ae6
    87a4:	03db      	lsls	r3, r3, #15
    87a6:	eb00 0000 	add.w	r0, r0, r0
    87aa:	e350      	b.n	0x8e4e
    87ac:	fff5 0aff 			; <UNDEFINED> instruction: 0xfff50aff
    87b0:	0050      	lsls	r0, r2, #1
    87b2:	e980 ffe7 			; <UNDEFINED> instruction: 0xe980ffe7
    87b6:	eaff 0000 			; <UNDEFINED> instruction: 0xeaff0000
    87ba:	e351      	b.n	0x8e60
    87bc:	304c      	adds	r0, #76	; 0x4c
    87be:	1590      	asrs	r0, r2, #22
    87c0:	2004      	movs	r0, #4
    87c2:	1591      	asrs	r1, r2, #22
    87c4:	0102      	lsls	r2, r0, #4
    87c6:	1793      	asrs	r3, r2, #30
    87c8:	0000      	movs	r0, r0
    87ca:	1581      	asrs	r1, r0, #22
    87cc:	1102      	asrs	r2, r0, #4
    87ce:	1783      	asrs	r3, r0, #30
    87d0:	ff1e e12f 	vrhadd.u16	d14, d14, d31
    87d4:	43f0      	mvns	r0, r6
    87d6:	e92d 4001 	stmdb	sp!, {r0, lr}
    87da:	e1a0      	b.n	0x8b1e
    87dc:	5000      	str	r0, [r0, r0]
    87de:	e1a0      	b.n	0x8b22
    87e0:	e000      	b.n	0x87e4
    87e2:	e3a0      	b.n	0x8f26
    87e4:	6010      	str	r0, [r2, #0]
    87e6:	e591      	b.n	0x830c
    87e8:	70cc      	strb	r4, [r1, #3]
    87ea:	e59f      	b.n	0x832c
    87ec:	d00c      	beq.n	0x8808
    87ee:	e24d      	b.n	0x8c8c
    87f0:	c014      	stmia	r0!, {r2, r4}
    87f2:	e281      	b.n	0x8cf8
    87f4:	0000      	movs	r0, r0
    87f6:	e59c      	b.n	0x8332
    87f8:	1007      	asrs	r7, r0, #32
    87fa:	e000      	b.n	0x87fe
    87fc:	3192      	adds	r1, #146	; 0x92
    87fe:	e028      	b.n	0x8852
    8800:	0820      	lsrs	r0, r4, #32
    8802:	e1a0      	b.n	0x8b46
    8804:	1828      	adds	r0, r5, r0
    8806:	e1a0      	b.n	0x8b4a
    8808:	1092      	asrs	r2, r2, #2
    880a:	e029      	b.n	0x8860
    880c:	e001      	b.n	0x8812
    880e:	e28e      	b.n	0x8d2e
    8810:	3007      	adds	r0, #7
    8812:	e008      	b.n	0x8826
    8814:	3809      	subs	r0, #9
    8816:	e083      	b.n	0x8920
    8818:	000e      	movs	r6, r1
    881a:	e156      	b.n	0x8aca
    881c:	3004      	adds	r0, #4
    881e:	e48c      	b.n	0x813a
    8820:	3829      	subs	r0, #41	; 0x29
    8822:	e1a0      	b.n	0x8b66
    8824:	fff2 caff 			; <UNDEFINED> instruction: 0xfff2caff
    8828:	0000      	movs	r0, r0
    882a:	e353      	b.n	0x8ed4
    882c:	0006      	movs	r6, r0
    882e:	0a00      	lsrs	r0, r0, #8
    8830:	2008      	movs	r0, #8
    8832:	e594      	b.n	0x835e
    8834:	0006      	movs	r6, r0
    8836:	e152      	b.n	0x8ade
    8838:	0007      	movs	r7, r0
    883a:	da00      	bge.n	0x883e
    883c:	2106      	movs	r1, #6
    883e:	e084      	b.n	0x894a
    8840:	6001      	str	r1, [r0, #0]
    8842:	e286      	b.n	0x8d52
    8844:	3014      	adds	r0, #20
    8846:	e582      	b.n	0x834e
    8848:	6010      	str	r0, [r2, #0]
    884a:	e584      	b.n	0x8356
    884c:	0004      	movs	r4, r0
    884e:	e1a0      	b.n	0x8b92
    8850:	d00c      	beq.n	0x886c
    8852:	e28d      	b.n	0x8d70
    8854:	43f0      	mvns	r0, r6
    8856:	e8bd ff1e 	ldmia.w	sp!, {r1, r2, r3, r4, r8, r9, sl, fp, ip, sp, lr, pc}
    885a:	e12f      	b.n	0x8abc
    885c:	1004      	asrs	r4, r0, #32
    885e:	e594      	b.n	0x838a
    8860:	0005      	movs	r5, r0
    8862:	e1a0      	b.n	0x8ba6
    8864:	1001      	asrs	r1, r0, #32
    8866:	e281      	b.n	0x8d6c
    8868:	3004      	adds	r0, #4
    886a:	e58d      	b.n	0x8388
    886c:	ffae ebff 			; <UNDEFINED> instruction: 0xffaeebff
    8870:	7000      	strb	r0, [r0, #0]
    8872:	e1a0      	b.n	0x8bb6
    8874:	2010      	movs	r0, #16
    8876:	e594      	b.n	0x83a2
    8878:	2002      	movs	r0, #2
    887a:	e282      	b.n	0x8d82
    887c:	100c      	asrs	r4, r1, #32
    887e:	e284      	b.n	0x8d8a
    8880:	2102      	movs	r1, #2
    8882:	e1a0      	b.n	0x8bc6
    8884:	000c      	movs	r4, r1
    8886:	e280      	b.n	0x8d8a
    8888:	e531      	b.n	0x82ee
    888a:	ebff 204c 			; <UNDEFINED> instruction: 0xebff204c
    888e:	e595      	b.n	0x83bc
    8890:	1004      	asrs	r4, r0, #32
    8892:	e594      	b.n	0x83be
    8894:	0101      	lsls	r1, r0, #4
    8896:	e792      	b.n	0x87be
    8898:	0000      	movs	r0, r0
    889a:	e584      	b.n	0x83a6
    889c:	4101      	asrs	r1, r0
    889e:	e782      	b.n	0x87a6
    88a0:	4007      	ands	r7, r0
    88a2:	e1a0      	b.n	0x8be6
    88a4:	3004      	adds	r0, #4
    88a6:	e59d      	b.n	0x83e4
    88a8:	2106      	movs	r1, #6
    88aa:	e084      	b.n	0x89b6
    88ac:	6001      	str	r1, [r0, #0]
    88ae:	e286      	b.n	0x8dbe
    88b0:	3014      	adds	r0, #20
    88b2:	e582      	b.n	0x83ba
    88b4:	6010      	str	r0, [r2, #0]
    88b6:	e584      	b.n	0x83c2
    88b8:	ffe3 eaff 			; <UNDEFINED> instruction: 0xffe3eaff
    88bc:	ffff 0000 	vaddl.u<illegal width 64>	q8, d15, d0
    88c0:	2820      	cmp	r0, #32
    88c2:	e1a0      	b.n	0x8c06
    88c4:	3000      	adds	r0, #0
    88c6:	e1a0      	b.n	0x8c0a
    88c8:	2802      	cmp	r0, #2
    88ca:	e1a0      	b.n	0x8c0e
    88cc:	0000      	movs	r0, r0
    88ce:	e352      	b.n	0x8f76
    88d0:	3800      	subs	r0, #0
    88d2:	01a0      	lsls	r0, r4, #6
    88d4:	0000      	movs	r0, r0
    88d6:	13a0      	asrs	r0, r4, #14
    88d8:	0010      	movs	r0, r2
    88da:	03a0      	lsls	r0, r4, #14
    88dc:	04ff      	lsls	r7, r7, #19
    88de:	e313      	b.n	0x8f08
    88e0:	3403      	adds	r4, #3
    88e2:	01a0      	lsls	r0, r4, #6
    88e4:	0008      	movs	r0, r1
    88e6:	0280      	lsls	r0, r0, #10
    88e8:	020f      	lsls	r7, r1, #8
    88ea:	e313      	b.n	0x8f14
    88ec:	3203      	adds	r2, #3
    88ee:	01a0      	lsls	r0, r4, #6
    88f0:	0004      	movs	r4, r0
    88f2:	0280      	lsls	r0, r0, #10
    88f4:	0103      	lsls	r3, r0, #4
    88f6:	e313      	b.n	0x8f20
    88f8:	3103      	adds	r1, #3
    88fa:	01a0      	lsls	r0, r4, #6
    88fc:	0002      	movs	r2, r0
    88fe:	0280      	lsls	r0, r0, #10
    8900:	0000      	movs	r0, r0
    8902:	e353      	b.n	0x8fac
    8904:	ff1e b12f 	vrhadd.u16	d11, d14, d31
    8908:	0101      	lsls	r1, r0, #4
    890a:	e313      	b.n	0x8f34
    890c:	0001      	movs	r1, r0
    890e:	1280      	asrs	r0, r0, #10
    8910:	0020      	movs	r0, r4
    8912:	03a0      	lsls	r0, r4, #14
    8914:	ff1e e12f 	vrhadd.u16	d14, d14, d31
    8918:	3000      	adds	r0, #0
    891a:	e590      	b.n	0x843e
    891c:	2007      	movs	r0, #7
    891e:	e213      	b.n	0x8d48
    8920:	1000      	asrs	r0, r0, #32
    8922:	e1a0      	b.n	0x8c66
    8924:	0009      	movs	r1, r1
    8926:	0a00      	lsrs	r0, r0, #8
    8928:	0001      	movs	r1, r0
    892a:	e313      	b.n	0x8f54
    892c:	001d      	movs	r5, r3
    892e:	1a00      	subs	r0, r0, r0
    8930:	0002      	movs	r2, r0
    8932:	e313      	b.n	0x8f5c
    8934:	30a3      	adds	r0, #163	; 0xa3
    8936:	11a0      	asrs	r0, r4, #6
    8938:	3123      	adds	r1, #35	; 0x23
    893a:	01a0      	lsls	r0, r4, #6
    893c:	3000      	adds	r0, #0
    893e:	1580      	asrs	r0, r0, #22
    8940:	3000      	adds	r0, #0
    8942:	0581      	lsls	r1, r0, #22
    8944:	0001      	movs	r1, r0
    8946:	13a0      	asrs	r0, r4, #14
    8948:	0002      	movs	r2, r0
    894a:	03a0      	lsls	r0, r4, #14
    894c:	ff1e e12f 	vrhadd.u16	d14, d14, d31
    8950:	0803      	lsrs	r3, r0, #32
    8952:	e1a0      	b.n	0x8c96
    8954:	0820      	lsrs	r0, r4, #32
    8956:	e1a0      	b.n	0x8c9a
    8958:	0000      	movs	r0, r0
    895a:	e350      	b.n	0x8ffe
    895c:	0010      	movs	r0, r2
    895e:	03a0      	lsls	r0, r4, #14
    8960:	0002      	movs	r2, r0
    8962:	11a0      	asrs	r0, r4, #6
    8964:	3823      	subs	r0, #35	; 0x23
    8966:	01a0      	lsls	r0, r4, #6
    8968:	00ff      	lsls	r7, r7, #3
    896a:	e313      	b.n	0x8f94
    896c:	3423      	adds	r4, #35	; 0x23
    896e:	01a0      	lsls	r0, r4, #6
    8970:	0008      	movs	r0, r1
    8972:	0280      	lsls	r0, r0, #10
    8974:	000f      	movs	r7, r1
    8976:	e313      	b.n	0x8fa0
    8978:	3223      	adds	r2, #35	; 0x23
    897a:	01a0      	lsls	r0, r4, #6
    897c:	0004      	movs	r4, r0
    897e:	0280      	lsls	r0, r0, #10
    8980:	0003      	movs	r3, r0
    8982:	e313      	b.n	0x8fac
    8984:	3123      	adds	r1, #35	; 0x23
    8986:	01a0      	lsls	r0, r4, #6
    8988:	0002      	movs	r2, r0
    898a:	0280      	lsls	r0, r0, #10
    898c:	0001      	movs	r1, r0
    898e:	e313      	b.n	0x8fb8
    8990:	0002      	movs	r2, r0
    8992:	1a00      	subs	r0, r0, r0
    8994:	30a3      	adds	r0, #163	; 0xa3
    8996:	e1b0      	b.n	0x8cfa
    8998:	0001      	movs	r1, r0
    899a:	e280      	b.n	0x8e9e
    899c:	0003      	movs	r3, r0
    899e:	0a00      	lsrs	r0, r0, #8
    89a0:	3000      	adds	r0, #0
    89a2:	e581      	b.n	0x84a8
    89a4:	ff1e e12f 	vrhadd.u16	d14, d14, d31
    89a8:	0000      	movs	r0, r0
    89aa:	e3a0      	b.n	0x90ee
    89ac:	ff1e e12f 	vrhadd.u16	d14, d14, d31
    89b0:	0020      	movs	r0, r4
    89b2:	e3a0      	b.n	0x90f6
    89b4:	ff1e e12f 	vrhadd.u16	d14, d14, d31
    89b8:	4010      	ands	r0, r2
    89ba:	e92d 4001 	stmdb	sp!, {r0, lr}
    89be:	e1a0      	b.n	0x8d02
    89c0:	1001      	asrs	r1, r0, #32
    89c2:	e3a0      	b.n	0x9106
    89c4:	ff58 ebff 	vqrdmlah.s16	q15, q12, <illegal reg q15.5>
    89c8:	2001      	movs	r0, #1
    89ca:	e3a0      	b.n	0x910e
    89cc:	4014      	ands	r4, r2
    89ce:	e580      	b.n	0x84d2
    89d0:	2010      	movs	r0, #16
    89d2:	e580      	b.n	0x84d6
    89d4:	4010      	ands	r0, r2
    89d6:	e8bd ff1e 	ldmia.w	sp!, {r1, r2, r3, r4, r8, r9, sl, fp, ip, sp, lr, pc}
    89da:	e12f      	b.n	0x8c3c
    89dc:	4ff0      	ldr	r7, [pc, #960]	; (0x8da0)
    89de:	e92d 3010 	stmdb	sp!, {r4, ip, sp}
    89e2:	e592      	b.n	0x850a
    89e4:	5010      	str	r0, [r2, r0]
    89e6:	e591      	b.n	0x850c
    89e8:	0003      	movs	r3, r0
    89ea:	e155      	b.n	0x8c98
    89ec:	4002      	ands	r2, r0
    89ee:	b1a0      	cbz	r0, 0x8a1a
    89f0:	4001      	ands	r1, r0
    89f2:	a1a0      	add	r1, pc, #640	; (adr r1, 0x8c74)
    89f4:	6003      	str	r3, [r0, #0]
    89f6:	b1a0      	cbz	r0, 0x8a22
    89f8:	6005      	str	r5, [r0, #0]
    89fa:	a1a0      	add	r1, pc, #640	; (adr r1, 0x8c7c)
    89fc:	5003      	str	r3, [r0, r0]
    89fe:	a1a0      	add	r1, pc, #640	; (adr r1, 0x8c80)
    8a00:	3008      	adds	r0, #8
    8a02:	e594      	b.n	0x852e
    8a04:	7005      	strb	r5, [r0, #0]
    8a06:	e086      	b.n	0x8b16
    8a08:	9001      	str	r0, [sp, #4]
    8a0a:	b1a0      	cbz	r0, 0x8a36
    8a0c:	1004      	asrs	r4, r0, #32
    8a0e:	e594      	b.n	0x853a
    8a10:	9002      	str	r0, [sp, #8]
    8a12:	a1a0      	add	r1, pc, #640	; (adr r1, 0x8c94)
    8a14:	0007      	movs	r7, r0
    8a16:	e153      	b.n	0x8cc0
    8a18:	d014      	beq.n	0x8a44
    8a1a:	e24d      	b.n	0x8eb8
    8a1c:	1001      	asrs	r1, r0, #32
    8a1e:	b281      	uxth	r1, r0
    8a20:	ff41 ebff 	vqrdmlah.s<illegal width 8>	q15, <illegal reg q8.5>, <illegal reg q15.5>
    8a24:	b014      	add	sp, #80	; 0x50
    8a26:	e280      	b.n	0x8f2a
    8a28:	a107      	add	r1, pc, #28	; (adr r1, 0x8a48)
    8a2a:	e08b      	b.n	0x8b44
    8a2c:	000a      	movs	r2, r1
    8a2e:	e15b      	b.n	0x8ce8
    8a30:	3000      	adds	r0, #0
    8a32:	e1a0      	b.n	0x8d76
    8a34:	0004      	movs	r4, r0
    8a36:	e58d      	b.n	0x8554
    8a38:	300b      	adds	r0, #11
    8a3a:	31a0      	adds	r1, #160	; 0xa0
    8a3c:	0000      	movs	r0, r0
    8a3e:	33a0      	adds	r3, #160	; 0xa0
    8a40:	0002      	movs	r2, r0
    8a42:	2a00      	cmp	r2, #0
    8a44:	0004      	movs	r4, r0
    8a46:	e483      	b.n	0x8350
    8a48:	0003      	movs	r3, r0
    8a4a:	e15a      	b.n	0x8d02
    8a4c:	fffc 8aff 			; <UNDEFINED> instruction: 0xfffc8aff
    8a50:	9014      	str	r0, [sp, #80]	; 0x50
    8a52:	e289      	b.n	0x8f68
    8a54:	3105      	adds	r1, #5
    8a56:	e089      	b.n	0x8b6c
    8a58:	2003      	movs	r0, #3
    8a5a:	e1a0      	b.n	0x8d9e
    8a5c:	0003      	movs	r3, r0
    8a5e:	e159      	b.n	0x8d14
    8a60:	3014      	adds	r0, #20
    8a62:	e284      	b.n	0x8f6e
    8a64:	6106      	str	r6, [r0, #16]
    8a66:	e083      	b.n	0x8b70
    8a68:	0040      	lsls	r0, r0, #1
    8a6a:	2a00      	cmp	r2, #0
    8a6c:	a008      	add	r0, pc, #32	; (adr r0, 0x8a90)
    8a6e:	e58d      	b.n	0x858c
    8a70:	700c      	strb	r4, [r1, #0]
    8a72:	e58d      	b.n	0x8590
    8a74:	013c      	lsls	r4, r7, #4
    8a76:	e59f      	b.n	0x85b8
    8a78:	a002      	add	r0, pc, #8	; (adr r0, 0x8a84)
    8a7a:	e1a0      	b.n	0x8dbe
    8a7c:	7003      	strb	r3, [r0, #0]
    8a7e:	e1a0      	b.n	0x8dc2
    8a80:	0004      	movs	r4, r0
    8a82:	ea00 e82e 			; <UNDEFINED> instruction: 0xea00e82e
    8a86:	e1b0      	b.n	0x8dea
    8a88:	001c      	movs	r4, r3
    8a8a:	1a00      	subs	r0, r0, r0
    8a8c:	0009      	movs	r1, r1
    8a8e:	e15a      	b.n	0x8d46
    8a90:	b004      	add	sp, #16
    8a92:	e28b      	b.n	0x8fac
    8a94:	0033      	movs	r3, r6
    8a96:	9a00      	ldr	r2, [sp, #0]
    8a98:	e004      	b.n	0x8aa4
    8a9a:	e499      	b.n	0x83d0
    8a9c:	5000      	str	r0, [r0, r0]
    8a9e:	e01e      	b.n	0x8ade
    8aa0:	fff7 0aff 			; <UNDEFINED> instruction: 0xfff70aff
    8aa4:	4007      	ands	r7, r0
    8aa6:	e1a0      	b.n	0x8dea
    8aa8:	e00b      	b.n	0x8ac2
    8aaa:	e1a0      	b.n	0x8dee
    8aac:	3000      	adds	r0, #0
    8aae:	e3a0      	b.n	0x91f2
    8ab0:	1004      	asrs	r4, r0, #32
    8ab2:	e494      	b.n	0x83de
    8ab4:	c000      	stmia	r0!, {}
    8ab6:	e59e      	b.n	0x85f6
    8ab8:	2000      	movs	r0, #0
    8aba:	e001      	b.n	0x8ac0
    8abc:	8000      	strh	r0, [r0, #0]
    8abe:	e00c      	b.n	0x8ada
    8ac0:	8295      	strh	r5, [r2, #20]
    8ac2:	e022      	b.n	0x8b0a
    8ac4:	1821      	adds	r1, r4, r0
    8ac6:	e1a0      	b.n	0x8e0a
    8ac8:	c82c      	ldmia	r0!, {r2, r3, r5}
    8aca:	e1a0      	b.n	0x8e0e
    8acc:	c195      	stmia	r1!, {r0, r2, r4, r7}
    8ace:	e021      	b.n	0x8b14
    8ad0:	3003      	adds	r0, #3
    8ad2:	e082      	b.n	0x8bda
    8ad4:	2823      	cmp	r0, #35	; 0x23
    8ad6:	e081      	b.n	0x8bdc
    8ad8:	3000      	adds	r0, #0
    8ada:	e003      	b.n	0x8ae4
    8adc:	3802      	subs	r0, #2
    8ade:	e183      	b.n	0x8de8
    8ae0:	0004      	movs	r4, r0
    8ae2:	e156      	b.n	0x8d92
    8ae4:	3004      	adds	r0, #4
    8ae6:	e48e      	b.n	0x8406
    8ae8:	3822      	subs	r0, #34	; 0x22
    8aea:	e1a0      	b.n	0x8e2e
    8aec:	ffef 8aff 			; <UNDEFINED> instruction: 0xffef8aff
    8af0:	3000      	adds	r0, #0
    8af2:	e58e      	b.n	0x8612
    8af4:	e004      	b.n	0x8b00
    8af6:	e519      	b.n	0x852c
    8af8:	e82e e1b0 			; <UNDEFINED> instruction: 0xe82ee1b0
    8afc:	ffe2 0aff 			; <UNDEFINED> instruction: 0xffe20aff
    8b00:	3000      	adds	r0, #0
    8b02:	e59b      	b.n	0x863c
    8b04:	4007      	ands	r7, r0
    8b06:	e1a0      	b.n	0x8e4a
    8b08:	c003      	stmia	r0!, {r0, r1}
    8b0a:	e1a0      	b.n	0x8e4e
    8b0c:	500b      	str	r3, [r1, r0]
    8b0e:	e1a0      	b.n	0x8e52
    8b10:	2000      	movs	r0, #0
    8b12:	e3a0      	b.n	0x9256
    8b14:	1000      	asrs	r0, r0, #32
    8b16:	e594      	b.n	0x8642
    8b18:	882c      	ldrh	r4, [r5, #0]
    8b1a:	e1a0      	b.n	0x8e5e
    8b1c:	1000      	asrs	r0, r0, #32
    8b1e:	e001      	b.n	0x8b24
    8b20:	819e      	strh	r6, [r3, #12]
    8b22:	e02c      	b.n	0x8b7e
    8b24:	3000      	adds	r0, #0
    8b26:	e003      	b.n	0x8b30
    8b28:	2002      	movs	r0, #2
    8b2a:	e08c      	b.n	0x8c46
    8b2c:	3802      	subs	r0, #2
    8b2e:	e183      	b.n	0x8e38
    8b30:	3004      	adds	r0, #4
    8b32:	e485      	b.n	0x8440
    8b34:	3004      	adds	r0, #4
    8b36:	e494      	b.n	0x8462
    8b38:	c000      	stmia	r0!, {}
    8b3a:	e595      	b.n	0x8668
    8b3c:	8823      	ldrh	r3, [r4, #0]
    8b3e:	e1a0      	b.n	0x8e82
    8b40:	1000      	asrs	r0, r0, #32
    8b42:	e00c      	b.n	0x8b5e
    8b44:	189e      	adds	r6, r3, r2
    8b46:	e023      	b.n	0x8b90
    8b48:	0004      	movs	r4, r0
    8b4a:	e156      	b.n	0x8dfa
    8b4c:	3822      	subs	r0, #34	; 0x22
    8b4e:	e083      	b.n	0x8c58
    8b50:	2823      	cmp	r0, #35	; 0x23
    8b52:	e1a0      	b.n	0x8e96
    8b54:	ffee 8aff 			; <UNDEFINED> instruction: 0xffee8aff
    8b58:	0009      	movs	r1, r1
    8b5a:	e15a      	b.n	0x8e12
    8b5c:	3000      	adds	r0, #0
    8b5e:	e585      	b.n	0x866c
    8b60:	b004      	add	sp, #16
    8b62:	e28b      	b.n	0x907c
    8b64:	ffcb 8aff 			; <UNDEFINED> instruction: 0xffcb8aff
    8b68:	a008      	add	r0, pc, #32	; (adr r0, 0x8b8c)
    8b6a:	e59d      	b.n	0x86a8
    8b6c:	700c      	strb	r4, [r1, #0]
    8b6e:	e59d      	b.n	0x86ac
    8b70:	0000      	movs	r0, r0
    8b72:	e357      	b.n	0x9224
    8b74:	0009      	movs	r1, r1
    8b76:	da00      	bge.n	0x8b7a
    8b78:	3004      	adds	r0, #4
    8b7a:	e51a      	b.n	0x85b2
    8b7c:	0000      	movs	r0, r0
    8b7e:	e353      	b.n	0x9228
    8b80:	a004      	add	r0, pc, #16	; (adr r0, 0x8b94)
    8b82:	e24a      	b.n	0x901a
    8b84:	0003      	movs	r3, r0
    8b86:	0a00      	lsrs	r0, r0, #8
    8b88:	0004      	movs	r4, r0
    8b8a:	ea00 3004 	and.w	r0, r0, r4, lsl #12
    8b8e:	e53a      	b.n	0x8606
    8b90:	0000      	movs	r0, r0
    8b92:	e353      	b.n	0x923c
    8b94:	0001      	movs	r1, r0
    8b96:	1a00      	subs	r0, r0, r0
    8b98:	7001      	strb	r1, [r0, #0]
    8b9a:	e257      	b.n	0x904c
    8b9c:	fffa 1aff 			; <UNDEFINED> instruction: 0xfffa1aff
    8ba0:	3004      	adds	r0, #4
    8ba2:	e59d      	b.n	0x86e0
    8ba4:	0003      	movs	r3, r0
    8ba6:	e1a0      	b.n	0x8eea
    8ba8:	7010      	strb	r0, [r2, #0]
    8baa:	e583      	b.n	0x86b4
    8bac:	d014      	beq.n	0x8bd8
    8bae:	e28d      	b.n	0x90cc
    8bb0:	4ff0      	ldr	r7, [pc, #960]	; (0x8f74)
    8bb2:	e8bd ff1e 	ldmia.w	sp!, {r1, r2, r3, r4, r8, r9, sl, fp, ip, sp, lr, pc}
    8bb6:	e12f      	b.n	0x8e18
    8bb8:	ffff 0000 	vaddl.u<illegal width 64>	q8, d15, d0
    8bbc:	3003      	adds	r0, #3
    8bbe:	e212      	b.n	0x8fe6
    8bc0:	41f0      	rors	r0, r6
    8bc2:	e92d 4002 	stmdb	sp!, {r1, lr}
    8bc6:	e1a0      	b.n	0x8f0a
    8bc8:	7000      	strb	r0, [r0, #0]
    8bca:	e1a0      	b.n	0x8f0e
    8bcc:	5001      	str	r1, [r0, r0]
    8bce:	01a0      	lsls	r0, r4, #6
    8bd0:	0025      	movs	r5, r4
    8bd2:	1a00      	subs	r0, r0, r0
    8bd4:	4144      	adcs	r4, r0
    8bd6:	e1b0      	b.n	0x8f3a
    8bd8:	0019      	movs	r1, r3
    8bda:	0a00      	lsrs	r0, r0, #8
    8bdc:	6048      	str	r0, [r1, #4]
    8bde:	e597      	b.n	0x8710
    8be0:	0000      	movs	r0, r0
    8be2:	e356      	b.n	0x9292
    8be4:	0027      	movs	r7, r4
    8be6:	0a00      	lsrs	r0, r0, #8
    8be8:	8000      	strh	r0, [r0, #0]
    8bea:	e3a0      	b.n	0x932e
    8bec:	0005      	movs	r5, r0
    8bee:	ea00 40c4 	and.w	r0, r0, r4, lsl #19
    8bf2:	e1b0      	b.n	0x8f56
    8bf4:	0012      	movs	r2, r2
    8bf6:	0a00      	lsrs	r0, r0, #8
    8bf8:	0000      	movs	r0, r0
    8bfa:	e596      	b.n	0x872a
    8bfc:	0000      	movs	r0, r0
    8bfe:	e350      	b.n	0x92a2
    8c00:	0012      	movs	r2, r2
    8c02:	0a00      	lsrs	r0, r0, #8
    8c04:	6000      	str	r0, [r0, #0]
    8c06:	e1a0      	b.n	0x8f4a
    8c08:	0001      	movs	r1, r0
    8c0a:	e314      	b.n	0x9236
    8c0c:	fff7 0aff 			; <UNDEFINED> instruction: 0xfff70aff
    8c10:	2006      	movs	r0, #6
    8c12:	e1a0      	b.n	0x8f56
    8c14:	1005      	asrs	r5, r0, #32
    8c16:	e1a0      	b.n	0x8f5a
    8c18:	0007      	movs	r7, r0
    8c1a:	e1a0      	b.n	0x8f5e
    8c1c:	ff6e ebff 	vqrdmlah.s32	q15, q15, <illegal reg q15.5>
    8c20:	0000      	movs	r0, r0
    8c22:	e355      	b.n	0x92d0
    8c24:	2004      	movs	r0, #4
    8c26:	1595      	asrs	r5, r2, #22
    8c28:	304c      	adds	r0, #76	; 0x4c
    8c2a:	1597      	asrs	r7, r2, #22
    8c2c:	1102      	asrs	r2, r0, #4
    8c2e:	1793      	asrs	r3, r2, #30
    8c30:	1000      	asrs	r0, r0, #32
    8c32:	1585      	asrs	r5, r0, #22
    8c34:	5102      	str	r2, [r0, r4]
    8c36:	1783      	asrs	r3, r0, #30
    8c38:	40c4      	lsrs	r4, r0
    8c3a:	e1b0      	b.n	0x8f9e
    8c3c:	5000      	str	r0, [r0, r0]
    8c3e:	e1a0      	b.n	0x8f82
    8c40:	ffec 1aff 			; <UNDEFINED> instruction: 0xffec1aff
    8c44:	0005      	movs	r5, r0
    8c46:	e1a0      	b.n	0x8f8a
    8c48:	41f0      	rors	r0, r6
    8c4a:	e8bd ff1e 	ldmia.w	sp!, {r1, r2, r3, r4, r8, r9, sl, fp, ip, sp, lr, pc}
    8c4e:	e12f      	b.n	0x8eb0
    8c50:	2006      	movs	r0, #6
    8c52:	e1a0      	b.n	0x8f96
    8c54:	1006      	asrs	r6, r0, #32
    8c56:	e1a0      	b.n	0x8f9a
    8c58:	0007      	movs	r7, r0
    8c5a:	e1a0      	b.n	0x8f9e
    8c5c:	ff5e ebff 	vqrdmlah.s16	q15, q15, <illegal reg q15.5>
    8c60:	0000      	movs	r0, r0
    8c62:	e586      	b.n	0x8772
    8c64:	8000      	strh	r0, [r0, #0]
    8c66:	e580      	b.n	0x876a
    8c68:	ffe5 eaff 			; <UNDEFINED> instruction: 0xffe5eaff
    8c6c:	2044      	movs	r0, #68	; 0x44
    8c6e:	e59f      	b.n	0x87b0
    8c70:	3001      	adds	r0, #1
    8c72:	e243      	b.n	0x90fc
    8c74:	2103      	movs	r1, #3
    8c76:	e792      	b.n	0x8b9e
    8c78:	3000      	adds	r0, #0
    8c7a:	e3a0      	b.n	0x93be
    8c7c:	fed4 ebff 			; <UNDEFINED> instruction: 0xfed4ebff
    8c80:	5000      	str	r0, [r0, r0]
    8c82:	e1a0      	b.n	0x8fc6
    8c84:	ffd2 eaff 			; <UNDEFINED> instruction: 0xffd2eaff
    8c88:	1001      	asrs	r1, r0, #32
    8c8a:	e3a0      	b.n	0x93ce
    8c8c:	0007      	movs	r7, r0
    8c8e:	e1a0      	b.n	0x8fd2
    8c90:	fea5 ebff 			; <UNDEFINED> instruction: 0xfea5ebff
    8c94:	1001      	asrs	r1, r0, #32
    8c96:	e3a0      	b.n	0x93da
    8c98:	3000      	adds	r0, #0
    8c9a:	e3a0      	b.n	0x93de
    8c9c:	2018      	movs	r0, #24
    8c9e:	e59f      	b.n	0x87e0
    8ca0:	1010      	asrs	r0, r2, #32
    8ca2:	e580      	b.n	0x87a6
    8ca4:	2014      	movs	r0, #20
    8ca6:	e580      	b.n	0x87aa
    8ca8:	6000      	str	r0, [r0, #0]
    8caa:	e1a0      	b.n	0x8fee
    8cac:	0048      	lsls	r0, r1, #1
    8cae:	e587      	b.n	0x87c0
    8cb0:	3000      	adds	r0, #0
    8cb2:	e580      	b.n	0x87b6
    8cb4:	ffcb eaff 			; <UNDEFINED> instruction: 0xffcbeaff
    8cb8:	a1d8      	add	r1, pc, #864	; (adr r1, 0x901c)
    8cba:	0800      	lsrs	r0, r0, #32
    8cbc:	0271      	lsls	r1, r6, #9
    8cbe:	0000      	movs	r0, r0
    8cc0:	47f0      	blx	lr
    8cc2:	e92d 6010 	stmdb	sp!, {r4, sp, lr}
    8cc6:	e591      	b.n	0x87ec
    8cc8:	82c2      	strh	r2, [r0, #22]
    8cca:	e1a0      	b.n	0x900e
    8ccc:	3008      	adds	r0, #8
    8cce:	e591      	b.n	0x87f4
    8cd0:	6006      	str	r6, [r0, #0]
    8cd2:	e088      	b.n	0x8de6
    8cd4:	4001      	ands	r1, r0
    8cd6:	e286      	b.n	0x91e6
    8cd8:	0003      	movs	r3, r0
    8cda:	e154      	b.n	0x8f86
    8cdc:	5001      	str	r1, [r0, r0]
    8cde:	e1a0      	b.n	0x9022
    8ce0:	9002      	str	r0, [sp, #8]
    8ce2:	e1a0      	b.n	0x9026
    8ce4:	7000      	strb	r0, [r0, #0]
    8ce6:	e1a0      	b.n	0x902a
    8ce8:	1004      	asrs	r4, r0, #32
    8cea:	e591      	b.n	0x8810
    8cec:	0003      	movs	r3, r0
    8cee:	da00      	bge.n	0x8cf2
    8cf0:	3083      	adds	r0, #131	; 0x83
    8cf2:	e1a0      	b.n	0x9036
    8cf4:	0003      	movs	r3, r0
    8cf6:	e154      	b.n	0x8fa2
    8cf8:	1001      	asrs	r1, r0, #32
    8cfa:	e281      	b.n	0x9200
    8cfc:	fffb caff 			; <UNDEFINED> instruction: 0xfffbcaff
    8d00:	0007      	movs	r7, r0
    8d02:	e1a0      	b.n	0x9046
    8d04:	fe88 ebff 			; <UNDEFINED> instruction: 0xfe88ebff
    8d08:	0000      	movs	r0, r0
    8d0a:	e358      	b.n	0x93be
    8d0c:	c014      	stmia	r0!, {r2, r4}
    8d0e:	e280      	b.n	0x9212
    8d10:	0009      	movs	r1, r1
    8d12:	da00      	bge.n	0x8d16
    8d14:	300c      	adds	r0, #12
    8d16:	e1a0      	b.n	0x905a
    8d18:	1000      	asrs	r0, r0, #32
    8d1a:	e3a0      	b.n	0x945e
    8d1c:	8005      	strh	r5, [r0, #0]
    8d1e:	e288      	b.n	0x9232
    8d20:	8108      	strh	r0, [r1, #8]
    8d22:	e1a0      	b.n	0x9066
    8d24:	2008      	movs	r0, #8
    8d26:	e080      	b.n	0x8e2a
    8d28:	1004      	asrs	r4, r0, #32
    8d2a:	e483      	b.n	0x8634
    8d2c:	0002      	movs	r2, r0
    8d2e:	e153      	b.n	0x8fd8
    8d30:	fffc 1aff 			; <UNDEFINED> instruction: 0xfffc1aff
    8d34:	8014      	strh	r4, [r2, #0]
    8d36:	e248      	b.n	0x91ca
    8d38:	c008      	stmia	r0!, {r3}
    8d3a:	e08c      	b.n	0x8e56
    8d3c:	e010      	b.n	0x8d60
    8d3e:	e595      	b.n	0x886c
    8d40:	3014      	adds	r0, #20
    8d42:	e285      	b.n	0x9250
    8d44:	901f      	str	r0, [sp, #124]	; 0x7c
    8d46:	e219      	b.n	0x917c
    8d48:	e10e      	b.n	0x8f68
    8d4a:	e083      	b.n	0x8e54
    8d4c:	0013      	movs	r3, r2
    8d4e:	0a00      	lsrs	r0, r0, #8
    8d50:	1000      	asrs	r0, r0, #32
    8d52:	e3a0      	b.n	0x9496
    8d54:	2020      	movs	r0, #32
    8d56:	e269      	b.n	0x922c
    8d58:	8000      	strh	r0, [r0, #0]
    8d5a:	e593      	b.n	0x8884
    8d5c:	1918      	adds	r0, r3, r4
    8d5e:	e181      	b.n	0x9064
    8d60:	1004      	asrs	r4, r0, #32
    8d62:	e48c      	b.n	0x867e
    8d64:	1004      	asrs	r4, r0, #32
    8d66:	e493      	b.n	0x8690
    8d68:	000e      	movs	r6, r1
    8d6a:	e153      	b.n	0x9014
    8d6c:	1231      	asrs	r1, r6, #8
    8d6e:	e1a0      	b.n	0x90b2
    8d70:	fff8 3aff 			; <UNDEFINED> instruction: 0xfff83aff
    8d74:	0000      	movs	r0, r0
    8d76:	e351      	b.n	0x941c
    8d78:	6004      	str	r4, [r0, #0]
    8d7a:	11a0      	asrs	r0, r4, #6
    8d7c:	1000      	asrs	r0, r0, #32
    8d7e:	e58c      	b.n	0x889a
    8d80:	304c      	adds	r0, #76	; 0x4c
    8d82:	e597      	b.n	0x88b4
    8d84:	2004      	movs	r0, #4
    8d86:	e595      	b.n	0x88b4
    8d88:	1102      	asrs	r2, r0, #4
    8d8a:	e793      	b.n	0x8cb4
    8d8c:	6010      	str	r0, [r2, #0]
    8d8e:	e580      	b.n	0x8892
    8d90:	1000      	asrs	r0, r0, #32
    8d92:	e585      	b.n	0x88a0
    8d94:	5102      	str	r2, [r0, r4]
    8d96:	e783      	b.n	0x8ca0
    8d98:	47f0      	blx	lr
    8d9a:	e8bd ff1e 	ldmia.w	sp!, {r1, r2, r3, r4, r8, r9, sl, fp, ip, sp, lr, pc}
    8d9e:	e12f      	b.n	0x9000
    8da0:	c004      	stmia	r0!, {r2}
    8da2:	e24c      	b.n	0x923e
    8da4:	2004      	movs	r0, #4
    8da6:	e493      	b.n	0x86d0
    8da8:	0003      	movs	r3, r0
    8daa:	e15e      	b.n	0x906a
    8dac:	2004      	movs	r0, #4
    8dae:	e5ac      	b.n	0x890a
    8db0:	fffb 8aff 			; <UNDEFINED> instruction: 0xfffb8aff
    8db4:	fff1 eaff 			; <UNDEFINED> instruction: 0xfff1eaff
    8db8:	e004      	b.n	0x8dc4
    8dba:	e52d      	b.n	0x8818
    8dbc:	3010      	adds	r0, #16
    8dbe:	e591      	b.n	0x88e4
    8dc0:	e000      	b.n	0x8dc4
    8dc2:	e1a0      	b.n	0x9106
    8dc4:	0010      	movs	r0, r2
    8dc6:	e590      	b.n	0x88ea
    8dc8:	0003      	movs	r3, r0
    8dca:	e050      	b.n	0x8e6e
    8dcc:	000d      	movs	r5, r1
    8dce:	1a00      	subs	r0, r0, r0
    8dd0:	3103      	adds	r1, #3
    8dd2:	e1a0      	b.n	0x9116
    8dd4:	e014      	b.n	0x8e00
    8dd6:	e28e      	b.n	0x92f6
    8dd8:	1014      	asrs	r4, r2, #32
    8dda:	e281      	b.n	0x92e0
    8ddc:	1003      	asrs	r3, r0, #32
    8dde:	e081      	b.n	0x8ee4
    8de0:	3003      	adds	r0, #3
    8de2:	e08e      	b.n	0x8f02
    8de4:	0001      	movs	r1, r0
    8de6:	ea00 0003 	and.w	r0, r0, r3
    8dea:	e15e      	b.n	0x90aa
    8dec:	0005      	movs	r5, r0
    8dee:	2a00      	cmp	r2, #0
    8df0:	c004      	stmia	r0!, {r2}
    8df2:	e533      	b.n	0x885c
    8df4:	2004      	movs	r0, #4
    8df6:	e531      	b.n	0x885c
    8df8:	0002      	movs	r2, r0
    8dfa:	e15c      	b.n	0x90b6
    8dfc:	fff9 0aff 			; <UNDEFINED> instruction: 0xfff90aff
    8e00:	0001      	movs	r1, r0
    8e02:	23a0      	movs	r3, #160	; 0xa0
    8e04:	0001      	movs	r1, r0
    8e06:	3a00      	subs	r2, #0
    8e08:	e004      	b.n	0x8e14
    8e0a:	e49d      	b.n	0x8748
    8e0c:	ff1e e12f 	vrhadd.u16	d14, d14, d31
    8e10:	0000      	movs	r0, r0
    8e12:	e3e0      	b.n	0x95d6
    8e14:	e004      	b.n	0x8e20
    8e16:	e49d      	b.n	0x8754
    8e18:	ff1e e12f 	vrhadd.u16	d14, d14, d31
    8e1c:	4ff8      	ldr	r7, [pc, #992]	; (0x9200)
    8e1e:	e92d 7001 	stmdb	sp!, {r0, ip, sp, lr}
    8e22:	e1a0      	b.n	0x9166
    8e24:	6010      	str	r0, [r2, #0]
    8e26:	e591      	b.n	0x894c
    8e28:	1010      	asrs	r0, r2, #32
    8e2a:	e592      	b.n	0x8952
    8e2c:	6001      	str	r1, [r0, #0]
    8e2e:	e046      	b.n	0x8ebe
    8e30:	0000      	movs	r0, r0
    8e32:	e356      	b.n	0x94e2
    8e34:	8002      	strh	r2, [r0, #0]
    8e36:	e1a0      	b.n	0x917a
    8e38:	4014      	ands	r4, r2
    8e3a:	e287      	b.n	0x934c
    8e3c:	5014      	str	r4, [r2, r0]
    8e3e:	e282      	b.n	0x9346
    8e40:	0044      	lsls	r4, r0, #1
    8e42:	1a00      	subs	r0, r0, r0
    8e44:	1101      	asrs	r1, r0, #4
    8e46:	e1a0      	b.n	0x918a
    8e48:	3001      	adds	r0, #1
    8e4a:	e084      	b.n	0x8f56
    8e4c:	1001      	asrs	r1, r0, #32
    8e4e:	e085      	b.n	0x8f5c
    8e50:	0001      	movs	r1, r0
    8e52:	ea00 0004 	and.w	r0, r0, r4
    8e56:	e153      	b.n	0x9100
    8e58:	0048      	lsls	r0, r1, #1
    8e5a:	9a00      	ldr	r2, [sp, #0]
    8e5c:	c004      	stmia	r0!, {r2}
    8e5e:	e533      	b.n	0x88c8
    8e60:	2004      	movs	r0, #4
    8e62:	e531      	b.n	0x88c8
    8e64:	0002      	movs	r2, r0
    8e66:	e15c      	b.n	0x9122
    8e68:	fff9 0aff 			; <UNDEFINED> instruction: 0xfff90aff
    8e6c:	003b      	movs	r3, r7
    8e6e:	3a00      	subs	r2, #0
    8e70:	1004      	asrs	r4, r0, #32
    8e72:	e597      	b.n	0x89a4
    8e74:	fe2c ebff 			; <UNDEFINED> instruction: 0xfe2cebff
    8e78:	9010      	str	r0, [sp, #64]	; 0x40
    8e7a:	e598      	b.n	0x89ae
    8e7c:	7010      	strb	r0, [r2, #0]
    8e7e:	e597      	b.n	0x89b0
    8e80:	c004      	stmia	r0!, {r2}
    8e82:	e1a0      	b.n	0x91c6
    8e84:	600c      	str	r4, [r1, #0]
    8e86:	e580      	b.n	0x898a
    8e88:	8107      	strh	r7, [r0, #8]
    8e8a:	e084      	b.n	0x8f96
    8e8c:	9109      	str	r1, [sp, #36]	; 0x24
    8e8e:	e085      	b.n	0x8f9c
    8e90:	4014      	ands	r4, r2
    8e92:	e280      	b.n	0x9396
    8e94:	2000      	movs	r0, #0
    8e96:	e3a0      	b.n	0x95da
    8e98:	6100      	str	r0, [r0, #16]
    8e9a:	e59f      	b.n	0x89dc
    8e9c:	0000      	movs	r0, r0
    8e9e:	ea00 400e 	and.w	r0, r0, lr, lsl #16
    8ea2:	e1a0      	b.n	0x91e6
    8ea4:	e004      	b.n	0x8eb0
    8ea6:	e1a0      	b.n	0x91ea
    8ea8:	a004      	add	r0, pc, #16	; (adr r0, 0x8ebc)
    8eaa:	e49c      	b.n	0x87e6
    8eac:	1004      	asrs	r4, r0, #32
    8eae:	e495      	b.n	0x87dc
    8eb0:	3006      	adds	r0, #6
    8eb2:	e00a      	b.n	0x8eca
    8eb4:	3002      	adds	r0, #2
    8eb6:	e083      	b.n	0x8fc0
    8eb8:	b006      	add	sp, #24
    8eba:	e001      	b.n	0x8ec0
    8ebc:	2821      	cmp	r0, #33	; 0x21
    8ebe:	e1a0      	b.n	0x9202
    8ec0:	300b      	adds	r0, #11
    8ec2:	e043      	b.n	0x8f4c
    8ec4:	282a      	cmp	r0, #42	; 0x2a
    8ec6:	e062      	b.n	0x8f8e
    8ec8:	2843      	cmp	r0, #67	; 0x43
    8eca:	e082      	b.n	0x8fd2
    8ecc:	3006      	adds	r0, #6
    8ece:	e003      	b.n	0x8ed8
    8ed0:	3802      	subs	r0, #2
    8ed2:	e183      	b.n	0x91dc
    8ed4:	0005      	movs	r5, r0
    8ed6:	e159      	b.n	0x918c
    8ed8:	2842      	cmp	r0, #66	; 0x42
    8eda:	e1a0      	b.n	0x921e
    8edc:	3004      	adds	r0, #4
    8ede:	e48e      	b.n	0x87fe
    8ee0:	100c      	asrs	r4, r1, #32
    8ee2:	e1a0      	b.n	0x9226
    8ee4:	ffed 8aff 			; <UNDEFINED> instruction: 0xffed8aff
    8ee8:	000c      	movs	r4, r1
    8eea:	e158      	b.n	0x919e
    8eec:	0010      	movs	r0, r2
    8eee:	9a00      	ldr	r2, [sp, #0]
    8ef0:	500e      	str	r6, [r1, r0]
    8ef2:	e1a0      	b.n	0x9236
    8ef4:	40a4      	lsls	r4, r4
    8ef6:	e59f      	b.n	0x8a38
    8ef8:	6004      	str	r4, [r0, #0]
    8efa:	e491      	b.n	0x8820
    8efc:	3004      	adds	r0, #4
    8efe:	e006      	b.n	0x8f0e
    8f00:	3002      	adds	r0, #2
    8f02:	e083      	b.n	0x900c
    8f04:	2843      	cmp	r0, #67	; 0x43
    8f06:	e1a0      	b.n	0x924a
    8f08:	2826      	cmp	r0, #38	; 0x26
    8f0a:	e082      	b.n	0x9012
    8f0c:	3004      	adds	r0, #4
    8f0e:	e003      	b.n	0x8f18
    8f10:	3802      	subs	r0, #2
    8f12:	e183      	b.n	0x921c
    8f14:	0001      	movs	r1, r0
    8f16:	e158      	b.n	0x91ca
    8f18:	3004      	adds	r0, #4
    8f1a:	e485      	b.n	0x8828
    8f1c:	2842      	cmp	r0, #66	; 0x42
    8f1e:	e1a0      	b.n	0x9262
    8f20:	fff4 8aff 			; <UNDEFINED> instruction: 0xfff48aff
    8f24:	4001      	ands	r1, r0
    8f26:	e248      	b.n	0x93ba
    8f28:	400c      	ands	r4, r1
    8f2a:	e044      	b.n	0x8fb6
    8f2c:	4003      	ands	r3, r0
    8f2e:	e3c4      	b.n	0x96ba
    8f30:	4004      	ands	r4, r0
    8f32:	e08e      	b.n	0x9052
    8f34:	0000      	movs	r0, r0
    8f36:	e353      	b.n	0x95e0
    8f38:	0003      	movs	r3, r0
    8f3a:	1a00      	subs	r0, r0, r0
    8f3c:	3004      	adds	r0, #4
    8f3e:	e534      	b.n	0x89aa
    8f40:	0000      	movs	r0, r0
    8f42:	e353      	b.n	0x95ec
    8f44:	7001      	strb	r1, [r0, #0]
    8f46:	e247      	b.n	0x93d8
    8f48:	fffb 0aff 			; <UNDEFINED> instruction: 0xfffb0aff
    8f4c:	7010      	strb	r0, [r2, #0]
    8f4e:	e580      	b.n	0x8a52
    8f50:	4ff8      	ldr	r7, [pc, #992]	; (0x9334)
    8f52:	e8bd ff1e 	ldmia.w	sp!, {r1, r2, r3, r4, r8, r9, sl, fp, ip, sp, lr, pc}
    8f56:	e12f      	b.n	0x91b8
    8f58:	6000      	str	r0, [r0, #0]
    8f5a:	a3a0      	add	r3, pc, #640	; (adr r3, 0x91dc)
    8f5c:	ffc3 aaff 			; <UNDEFINED> instruction: 0xffc3aaff
    8f60:	2004      	movs	r0, #4
    8f62:	e1a0      	b.n	0x92a6
    8f64:	3007      	adds	r0, #7
    8f66:	e1a0      	b.n	0x92aa
    8f68:	4005      	ands	r5, r0
    8f6a:	e1a0      	b.n	0x92ae
    8f6c:	7008      	strb	r0, [r1, #0]
    8f6e:	e1a0      	b.n	0x92b2
    8f70:	5002      	str	r2, [r0, r0]
    8f72:	e1a0      	b.n	0x92b6
    8f74:	8003      	strh	r3, [r0, #0]
    8f76:	e1a0      	b.n	0x92ba
    8f78:	6001      	str	r1, [r0, #0]
    8f7a:	e3a0      	b.n	0x96be
    8f7c:	ffbb eaff 			; <UNDEFINED> instruction: 0xffbbeaff
    8f80:	1000      	asrs	r0, r0, #32
    8f82:	e3a0      	b.n	0x96c6
    8f84:	fde8 ebff 			; <UNDEFINED> instruction: 0xfde8ebff
    8f88:	3000      	adds	r0, #0
    8f8a:	e3a0      	b.n	0x96ce
    8f8c:	2001      	movs	r0, #1
    8f8e:	e3a0      	b.n	0x96d2
    8f90:	3014      	adds	r0, #20
    8f92:	e580      	b.n	0x8a96
    8f94:	2010      	movs	r0, #16
    8f96:	e580      	b.n	0x8a9a
    8f98:	4ff8      	ldr	r7, [pc, #992]	; (0x937c)
    8f9a:	e8bd ff1e 	ldmia.w	sp!, {r1, r2, r3, r4, r8, r9, sl, fp, ip, sp, lr, pc}
    8f9e:	e12f      	b.n	0x9200
    8fa0:	ffff 0000 	vaddl.u<illegal width 64>	q8, d15, d0
    8fa4:	41f0      	rors	r0, r6
    8fa6:	e92d 4003 	stmdb	sp!, {r0, r1, lr}
    8faa:	e1a0      	b.n	0x92ee
    8fac:	d008      	beq.n	0x8fc0
    8fae:	e24d      	b.n	0x944c
    8fb0:	8002      	strh	r2, [r0, #0]
    8fb2:	e1a0      	b.n	0x92f6
    8fb4:	1001      	asrs	r1, r0, #32
    8fb6:	e3a0      	b.n	0x96fa
    8fb8:	6020      	str	r0, [r4, #0]
    8fba:	e59d      	b.n	0x8af8
    8fbc:	5024      	str	r4, [r4, r0]
    8fbe:	e59d      	b.n	0x8afc
    8fc0:	fdd9 ebff 			; <UNDEFINED> instruction: 0xfdd9ebff
    8fc4:	20e8      	movs	r0, #232	; 0xe8
    8fc6:	e59f      	b.n	0x8b08
    8fc8:	14ff      	asrs	r7, r7, #19
    8fca:	e3c4      	b.n	0x9756
    8fcc:	160f      	asrs	r7, r1, #24
    8fce:	e3c1      	b.n	0x9754
    8fd0:	4a24      	ldr	r2, [pc, #144]	; (0x9064)
    8fd2:	e012      	b.n	0x8ffa
    8fd4:	1601      	asrs	r1, r0, #24
    8fd6:	1381      	asrs	r1, r0, #14
    8fd8:	0000      	movs	r0, r0
    8fda:	e358      	b.n	0x968e
    8fdc:	7000      	strb	r0, [r0, #0]
    8fde:	e1a0      	b.n	0x9322
    8fe0:	1004      	asrs	r4, r0, #32
    8fe2:	e58d      	b.n	0x8b00
    8fe4:	0029      	movs	r1, r5
    8fe6:	0a00      	lsrs	r0, r0, #8
    8fe8:	000d      	movs	r5, r1
    8fea:	e1a0      	b.n	0x932e
    8fec:	8000      	strh	r0, [r0, #0]
    8fee:	e58d      	b.n	0x8b0c
    8ff0:	fe48 ebff 			; <UNDEFINED> instruction: 0xfe48ebff
    8ff4:	0000      	movs	r0, r0
    8ff6:	e350      	b.n	0x969a
    8ff8:	3000      	adds	r0, #0
    8ffa:	059d      	lsls	r5, r3, #22
    8ffc:	000c      	movs	r4, r1
    8ffe:	189d      	adds	r5, r3, r2
    9000:	1020      	asrs	r0, r4, #32
    9002:	1260      	asrs	r0, r4, #9
    9004:	3014      	adds	r0, #20
    9006:	0587      	lsls	r7, r0, #22
    9008:	3004      	adds	r0, #4
    900a:	059d      	lsls	r5, r3, #22
    900c:	2113      	movs	r1, #19
    900e:	1182      	asrs	r2, r0, #6
    9010:	3033      	adds	r0, #51	; 0x33
    9012:	11a0      	asrs	r0, r4, #6
    9014:	2014      	movs	r0, #20
    9016:	1587      	asrs	r7, r0, #22
    9018:	3004      	adds	r0, #4
    901a:	158d      	asrs	r5, r1, #22
    901c:	0000      	movs	r0, r0
    901e:	e353      	b.n	0x96c8
    9020:	1002      	asrs	r2, r0, #32
    9022:	13a0      	asrs	r0, r4, #14
    9024:	1001      	asrs	r1, r0, #32
    9026:	03a0      	lsls	r0, r4, #14
    9028:	3018      	adds	r0, #24
    902a:	e587      	b.n	0x8b3c
    902c:	1010      	asrs	r0, r2, #32
    902e:	e587      	b.n	0x8b40
    9030:	0000      	movs	r0, r0
    9032:	e354      	b.n	0x96de
    9034:	0009      	movs	r1, r1
    9036:	0a00      	lsrs	r0, r0, #8
    9038:	3e43      	subs	r6, #67	; 0x43
    903a:	e244      	b.n	0x94c6
    903c:	3003      	adds	r0, #3
    903e:	e243      	b.n	0x94c8
    9040:	3000      	adds	r0, #0
    9042:	e083      	b.n	0x914c
    9044:	0035      	movs	r5, r6
    9046:	e260      	b.n	0x950a
    9048:	3000      	adds	r0, #0
    904a:	e586      	b.n	0x8b5a
    904c:	0000      	movs	r0, r0
    904e:	e585      	b.n	0x8b5c
    9050:	0007      	movs	r7, r0
    9052:	e1a0      	b.n	0x9396
    9054:	d008      	beq.n	0x9068
    9056:	e28d      	b.n	0x9574
    9058:	41f0      	rors	r0, r6
    905a:	e8bd ff1e 	ldmia.w	sp!, {r1, r2, r3, r4, r8, r9, sl, fp, ip, sp, lr, pc}
    905e:	e12f      	b.n	0x92c0
    9060:	0e43      	lsrs	r3, r0, #25
    9062:	e240      	b.n	0x94e6
    9064:	3101      	adds	r1, #1
    9066:	e087      	b.n	0x9178
    9068:	0002      	movs	r2, r0
    906a:	e240      	b.n	0x94ee
    906c:	0000      	movs	r0, r0
    906e:	e586      	b.n	0x8b7e
    9070:	0010      	movs	r0, r2
    9072:	e593      	b.n	0x8b9c
    9074:	fe11 ebff 			; <UNDEFINED> instruction: 0xfe11ebff
    9078:	0281      	lsls	r1, r0, #10
    907a:	e060      	b.n	0x913e
    907c:	0000      	movs	r0, r0
    907e:	e585      	b.n	0x8b8c
    9080:	0007      	movs	r7, r0
    9082:	e1a0      	b.n	0x93c6
    9084:	d008      	beq.n	0x9098
    9086:	e28d      	b.n	0x95a4
    9088:	41f0      	rors	r0, r6
    908a:	e8bd ff1e 	ldmia.w	sp!, {r1, r2, r3, r4, r8, r9, sl, fp, ip, sp, lr, pc}
    908e:	e12f      	b.n	0x92f0
    9090:	0004      	movs	r4, r0
    9092:	e28d      	b.n	0x95b0
    9094:	fe1f ebff 			; <UNDEFINED> instruction: 0xfe1febff
    9098:	3001      	adds	r0, #1
    909a:	e3a0      	b.n	0x97de
    909c:	2004      	movs	r0, #4
    909e:	e59d      	b.n	0x8bdc
    90a0:	1003      	asrs	r3, r0, #32
    90a2:	e1a0      	b.n	0x93e6
    90a4:	3010      	adds	r0, #16
    90a6:	e587      	b.n	0x8bb8
    90a8:	2014      	movs	r0, #20
    90aa:	e587      	b.n	0x8bbc
    90ac:	0020      	movs	r0, r4
    90ae:	e280      	b.n	0x95b2
    90b0:	ffde eaff 			; <UNDEFINED> instruction: 0xffdeeaff
    90b4:	07ff      	lsls	r7, r7, #31
    90b6:	0000      	movs	r0, r0
    90b8:	4070      	eors	r0, r6
    90ba:	e92d 6002 	stmdb	sp!, {r1, sp, lr}
    90be:	e1a0      	b.n	0x9402
    90c0:	2000      	movs	r0, #0
    90c2:	e3a0      	b.n	0x9806
    90c4:	e084      	b.n	0x91d0
    90c6:	e59f      	b.n	0x8c08
    90c8:	3102      	adds	r1, #2
    90ca:	e3c1      	b.n	0x9850
    90cc:	000e      	movs	r6, r1
    90ce:	e153      	b.n	0x9378
    90d0:	4000      	ands	r0, r0
    90d2:	e1a0      	b.n	0x9416
    90d4:	5001      	str	r1, [r0, r0]
    90d6:	e1a0      	b.n	0x941a
    90d8:	2000      	movs	r0, #0
    90da:	e586      	b.n	0x8bea
    90dc:	0017      	movs	r7, r2
    90de:	ca00      	ldmia	r2!, {}
    90e0:	e000      	b.n	0x90e4
    90e2:	e1a0      	b.n	0x9426
    90e4:	e00e      	b.n	0x9104
    90e6:	e193      	b.n	0x9410
    90e8:	0014      	movs	r4, r2
    90ea:	0a00      	lsrs	r0, r0, #8
    90ec:	e060      	b.n	0x91b0
    90ee:	e59f      	b.n	0x8c30
    90f0:	e001      	b.n	0x90f6
    90f2:	e00e      	b.n	0x9112
    90f4:	0002      	movs	r2, r0
    90f6:	e15e      	b.n	0x93b6
    90f8:	c001      	stmia	r0!, {r0}
    90fa:	e1a0      	b.n	0x943e
    90fc:	0006      	movs	r6, r0
    90fe:	1a00      	subs	r0, r0, r0
    9100:	2000      	movs	r0, #0
    9102:	e3a0      	b.n	0x9846
    9104:	304c      	adds	r0, #76	; 0x4c
    9106:	e59f      	b.n	0x8c48
    9108:	e0c0      	b.n	0x928c
    910a:	ebff 2035 			; <UNDEFINED> instruction: 0xebff2035
    910e:	e3e0      	b.n	0x98d2
    9110:	4000      	ands	r0, r0
    9112:	e1a0      	b.n	0x9456
    9114:	c001      	stmia	r0!, {r0}
    9116:	e1a0      	b.n	0x945a
    9118:	3102      	adds	r1, #2
    911a:	e3c1      	b.n	0x98a0
    911c:	3a43      	subs	r2, #67	; 0x43
    911e:	e1a0      	b.n	0x9462
    9120:	3fff      	subs	r7, #255	; 0xff
    9122:	e243      	b.n	0x95ac
    9124:	c47f      	stmia	r4!, {r0, r1, r2, r3, r4, r5, r6}
    9126:	e3cc      	b.n	0x98c2
    9128:	3002      	adds	r0, #2
    912a:	e243      	b.n	0x95b4
    912c:	c60f      	stmia	r6!, {r0, r1, r2, r3}
    912e:	e3cc      	b.n	0x98ca
    9130:	3002      	adds	r0, #2
    9132:	e083      	b.n	0x923c
    9134:	55ff      	strb	r7, [r7, r7]
    9136:	e38c      	b.n	0x9852
    9138:	3000      	adds	r0, #0
    913a:	e586      	b.n	0x8c4a
    913c:	5602      	ldrsb	r2, [r0, r0]
    913e:	e385      	b.n	0x984c
    9140:	0004      	movs	r4, r0
    9142:	e1a0      	b.n	0x9486
    9144:	1005      	asrs	r5, r0, #32
    9146:	e1a0      	b.n	0x948a
    9148:	4070      	eors	r0, r6
    914a:	e8bd ff1e 	ldmia.w	sp!, {r1, r2, r3, r4, r8, r9, sl, fp, ip, sp, lr, pc}
    914e:	e12f      	b.n	0x93b0
    9150:	ffff 7fef 	vqrdmlsh.s<illegal width 64>	<illegal reg q11.5>, <illegal reg q15.5>, d31[0]
    9154:	0000      	movs	r0, r0
    9156:	7ff0      	ldrb	r0, [r6, #31]
    9158:	0000      	movs	r0, r0
    915a:	4350      	muls	r0, r2
    915c:	1003      	asrs	r3, r0, #32
    915e:	e3c0      	b.n	0x98e2
    9160:	0003      	movs	r3, r0
    9162:	e210      	b.n	0x9586
    9164:	0000      	movs	r0, r0
    9166:	e260      	b.n	0x962a
    9168:	3004      	adds	r0, #4
    916a:	e491      	b.n	0x8a90
    916c:	c004      	stmia	r0!, {r2}
    916e:	e280      	b.n	0x9672
    9170:	c18c      	stmia	r1!, {r2, r3, r7}
    9172:	e1a0      	b.n	0x94b6
    9174:	2000      	movs	r0, #0
    9176:	e3e0      	b.n	0x993a
    9178:	3c32      	subs	r4, #50	; 0x32
    917a:	1183      	asrs	r3, r0, #6
    917c:	c001      	stmia	r0!, {r0}
    917e:	e3a0      	b.n	0x98c2
    9180:	c40c      	stmia	r4!, {r2, r3}
    9182:	e18c      	b.n	0x949e
    9184:	c80c      	ldmia	r0!, {r2, r3}
    9186:	e18c      	b.n	0x94a2
    9188:	200c      	movs	r0, #12
    918a:	e043      	b.n	0x9214
    918c:	2003      	movs	r0, #3
    918e:	e1c2      	b.n	0x9516
    9190:	238c      	movs	r3, #140	; 0x8c
    9192:	e012      	b.n	0x91ba
    9194:	3004      	adds	r0, #4
    9196:	0491      	lsls	r1, r2, #18
    9198:	0004      	movs	r4, r0
    919a:	0280      	lsls	r0, r0, #10
    919c:	fff9 0aff 			; <UNDEFINED> instruction: 0xfff90aff
    91a0:	00ff      	lsls	r7, r7, #3
    91a2:	e313      	b.n	0x97cc
    91a4:	0001      	movs	r1, r0
    91a6:	1280      	asrs	r0, r0, #10
    91a8:	0cff      	lsrs	r7, r7, #19
    91aa:	1313      	asrs	r3, r2, #12
    91ac:	0001      	movs	r1, r0
    91ae:	1280      	asrs	r0, r0, #10
    91b0:	08ff      	lsrs	r7, r7, #3
    91b2:	1313      	asrs	r3, r2, #12
    91b4:	0001      	movs	r1, r0
    91b6:	1280      	asrs	r0, r0, #10
    91b8:	ff1e e12f 	vrhadd.u16	d14, d14, d31
    91bc:	3001      	adds	r0, #1
    91be:	e180      	b.n	0x94c2
    91c0:	0003      	movs	r3, r0
    91c2:	e352      	b.n	0x986a
    91c4:	3003      	adds	r0, #3
    91c6:	e203      	b.n	0x95d0
    91c8:	c000      	stmia	r0!, {}
    91ca:	93a0      	str	r3, [sp, #640]	; 0x280
    91cc:	c001      	stmia	r0!, {r0}
    91ce:	83a0      	strh	r0, [r4, #28]
    91d0:	0000      	movs	r0, r0
    91d2:	e353      	b.n	0x987c
    91d4:	c000      	stmia	r0!, {}
    91d6:	13a0      	asrs	r0, r4, #14
    91d8:	0000      	movs	r0, r0
    91da:	e35c      	b.n	0x9896
    91dc:	4070      	eors	r0, r6
    91de:	e92d 4000 	stmdb	sp!, {lr}
    91e2:	01a0      	lsls	r0, r4, #6
    91e4:	001c      	movs	r4, r3
    91e6:	1a00      	subs	r0, r0, r0
    91e8:	0000      	movs	r0, r0
    91ea:	e352      	b.n	0x9892
    91ec:	000f      	movs	r7, r1
    91ee:	0a00      	lsrs	r0, r0, #8
    91f0:	3004      	adds	r0, #4
    91f2:	e1a0      	b.n	0x9536
    91f4:	c000      	stmia	r0!, {}
    91f6:	e5d1      	b.n	0x8d9c
    91f8:	0000      	movs	r0, r0
    91fa:	e35c      	b.n	0x98b6
    91fc:	c001      	stmia	r0!, {r0}
    91fe:	e4c3      	b.n	0x8b88
    9200:	e001      	b.n	0x9206
    9202:	e242      	b.n	0x968a
    9204:	000b      	movs	r3, r1
    9206:	0a00      	lsrs	r0, r0, #8
    9208:	2002      	movs	r0, #2
    920a:	e084      	b.n	0x9316
    920c:	400e      	ands	r6, r1
    920e:	e084      	b.n	0x931a
    9210:	0004      	movs	r4, r0
    9212:	ea00 c001 			; <UNDEFINED> instruction: 0xea00c001
    9216:	e5f1      	b.n	0x8dfc
    9218:	0000      	movs	r0, r0
    921a:	e35c      	b.n	0x98d6
    921c:	e003      	b.n	0x9226
    921e:	e044      	b.n	0x92aa
    9220:	c001      	stmia	r0!, {r0}
    9222:	e4c3      	b.n	0x8bac
    9224:	0003      	movs	r3, r0
    9226:	0a00      	lsrs	r0, r0, #8
    9228:	0003      	movs	r3, r0
    922a:	e152      	b.n	0x94d2
    922c:	fff8 1aff 			; <UNDEFINED> instruction: 0xfff81aff
    9230:	4070      	eors	r0, r6
    9232:	e8bd ff1e 	ldmia.w	sp!, {r1, r2, r3, r4, r8, r9, sl, fp, ip, sp, lr, pc}
    9236:	e12f      	b.n	0x9498
    9238:	0000      	movs	r0, r0
    923a:	e35e      	b.n	0x98fa
    923c:	2000      	movs	r0, #0
    923e:	13a0      	asrs	r0, r4, #14
    9240:	e00e      	b.n	0x9260
    9242:	1083      	asrs	r3, r0, #2
    9244:	fff9 0aff 			; <UNDEFINED> instruction: 0xfff90aff
    9248:	2001      	movs	r0, #1
    924a:	e4c3      	b.n	0x8bd4
    924c:	000e      	movs	r6, r1
    924e:	e153      	b.n	0x94f8
    9250:	fffc 1aff 			; <UNDEFINED> instruction: 0xfffc1aff
    9254:	4070      	eors	r0, r6
    9256:	e8bd ff1e 	ldmia.w	sp!, {r1, r2, r3, r4, r8, r9, sl, fp, ip, sp, lr, pc}
    925a:	e12f      	b.n	0x94bc
    925c:	3001      	adds	r0, #1
    925e:	e1a0      	b.n	0x95a2
    9260:	4000      	ands	r0, r0
    9262:	e1a0      	b.n	0x95a6
    9264:	6030      	str	r0, [r6, #0]
    9266:	e59f      	b.n	0x8da8
    9268:	5030      	str	r0, [r6, r0]
    926a:	e59f      	b.n	0x8dac
    926c:	1003      	asrs	r3, r0, #32
    926e:	e1a0      	b.n	0x95b2
    9270:	e004      	b.n	0x927c
    9272:	e493      	b.n	0x8b9c
    9274:	c006      	stmia	r0!, {r1, r2}
    9276:	e08e      	b.n	0x9396
    9278:	c00e      	stmia	r0!, {r1, r2, r3}
    927a:	e1cc      	b.n	0x9616
    927c:	0005      	movs	r5, r0
    927e:	e11c      	b.n	0x94ba
    9280:	ffda 1aff 			; <UNDEFINED> instruction: 0xffda1aff
    9284:	2004      	movs	r0, #4
    9286:	e242      	b.n	0x970e
    9288:	0003      	movs	r3, r0
    928a:	e352      	b.n	0x9932
    928c:	e004      	b.n	0x9298
    928e:	e484      	b.n	0x8b9a
    9290:	1003      	asrs	r3, r0, #32
    9292:	e1a0      	b.n	0x95d6
    9294:	fff4 8aff 			; <UNDEFINED> instruction: 0xfff48aff
    9298:	ffd2 eaff 			; <UNDEFINED> instruction: 0xffd2eaff
    929c:	feff fefe 			; <UNDEFINED> instruction: 0xfefffefe
    92a0:	8080      	strh	r0, [r0, #4]
    92a2:	8080      	strh	r0, [r0, #4]
    92a4:	4ff7      	ldr	r7, [pc, #988]	; (0x9684)
    92a6:	e92d b002 	stmdb	sp!, {r1, ip, sp, pc}
    92aa:	e1a0      	b.n	0x95ee
    92ac:	2008      	movs	r0, #8
    92ae:	e592      	b.n	0x8dd6
    92b0:	0000      	movs	r0, r0
    92b2:	e352      	b.n	0x995a
    92b4:	0020      	movs	r0, r4
    92b6:	0a00      	lsrs	r0, r0, #8
    92b8:	3000      	adds	r0, #0
    92ba:	e3a0      	b.n	0x99fe
    92bc:	9000      	str	r0, [sp, #0]
    92be:	e1a0      	b.n	0x9602
    92c0:	4001      	ands	r1, r0
    92c2:	e1a0      	b.n	0x9606
    92c4:	a000      	add	r0, pc, #0	; (adr r0, 0x92c8)
    92c6:	e59b      	b.n	0x8e00
    92c8:	3004      	adds	r0, #4
    92ca:	e58d      	b.n	0x8de8
    92cc:	6003      	str	r3, [r0, #0]
    92ce:	e1a0      	b.n	0x9612
    92d0:	0003      	movs	r3, r0
    92d2:	ea00 3000 	and.w	r0, r0, r0, lsl #12
    92d6:	e59a      	b.n	0x8e0e
    92d8:	3004      	adds	r0, #4
    92da:	e58d      	b.n	0x8df8
    92dc:	6004      	str	r4, [r0, #0]
    92de:	e59a      	b.n	0x8e16
    92e0:	a008      	add	r0, pc, #32	; (adr r0, 0x9304)
    92e2:	e28a      	b.n	0x97fa
    92e4:	0000      	movs	r0, r0
    92e6:	e356      	b.n	0x9996
    92e8:	fff9 0aff 			; <UNDEFINED> instruction: 0xfff90aff
    92ec:	7008      	strb	r0, [r1, #0]
    92ee:	e594      	b.n	0x8e1a
    92f0:	0007      	movs	r7, r0
    92f2:	e156      	b.n	0x95a2
    92f4:	0013      	movs	r3, r2
    92f6:	2a00      	cmp	r2, #0
    92f8:	0006      	movs	r6, r0
    92fa:	e157      	b.n	0x95ac
    92fc:	7006      	strb	r6, [r0, #0]
    92fe:	21a0      	movs	r1, #160	; 0xa0
    9300:	1004      	asrs	r4, r0, #32
    9302:	e59d      	b.n	0x8e40
    9304:	2007      	movs	r0, #7
    9306:	e1a0      	b.n	0x964a
    9308:	0000      	movs	r0, r0
    930a:	e594      	b.n	0x8e36
    930c:	0128      	lsls	r0, r5, #4
    930e:	eb00 2008 	add.w	r0, r0, r8, lsl #8
    9312:	e594      	b.n	0x8e3e
    9314:	2007      	movs	r0, #7
    9316:	e042      	b.n	0x939e
    9318:	2008      	movs	r0, #8
    931a:	e584      	b.n	0x8e26
    931c:	2000      	movs	r0, #0
    931e:	e594      	b.n	0x8e4a
    9320:	7007      	strb	r7, [r0, #0]
    9322:	e082      	b.n	0x942a
    9324:	2008      	movs	r0, #8
    9326:	e59b      	b.n	0x8e60
    9328:	6006      	str	r6, [r0, #0]
    932a:	e042      	b.n	0x93b2
    932c:	0000      	movs	r0, r0
    932e:	e356      	b.n	0x99de
    9330:	7000      	strb	r0, [r0, #0]
    9332:	e584      	b.n	0x8e3e
    9334:	6008      	str	r0, [r1, #0]
    9336:	e58b      	b.n	0x8e50
    9338:	ffe5 1aff 			; <UNDEFINED> instruction: 0xffe51aff
    933c:	0000      	movs	r0, r0
    933e:	e3a0      	b.n	0x9a82
    9340:	0004      	movs	r4, r0
    9342:	e58b      	b.n	0x8e5c
    9344:	0036      	movs	r6, r6
    9346:	ea00 20bc 	and.w	r0, r0, ip, ror #10
    934a:	e1d4      	b.n	0x96f6
    934c:	0d12      	lsrs	r2, r2, #20
    934e:	e312      	b.n	0x9976
    9350:	ffe8 0aff 			; <UNDEFINED> instruction: 0xffe80aff
    9354:	1010      	asrs	r0, r2, #32
    9356:	e594      	b.n	0x8e82
    9358:	8000      	strh	r0, [r0, #0]
    935a:	e594      	b.n	0x8e86
    935c:	5014      	str	r4, [r2, r0]
    935e:	e594      	b.n	0x8e8a
    9360:	8001      	strh	r1, [r0, #0]
    9362:	e048      	b.n	0x93f6
    9364:	5085      	str	r5, [r0, r2]
    9366:	e085      	b.n	0x9474
    9368:	5fa5      	ldrsh	r5, [r4, r6]
    936a:	e085      	b.n	0x9478
    936c:	0001      	movs	r1, r0
    936e:	e288      	b.n	0x9882
    9370:	50c5      	str	r5, [r0, r3]
    9372:	e1a0      	b.n	0x96b6
    9374:	0006      	movs	r6, r0
    9376:	e080      	b.n	0x947a
    9378:	0000      	movs	r0, r0
    937a:	e155      	b.n	0x9628
    937c:	5000      	str	r0, [r0, r0]
    937e:	31a0      	adds	r1, #160	; 0xa0
    9380:	0b01      	lsrs	r1, r0, #12
    9382:	e312      	b.n	0x99aa
    9384:	000c      	movs	r4, r1
    9386:	0a00      	lsrs	r0, r0, #8
    9388:	1005      	asrs	r5, r0, #32
    938a:	e1a0      	b.n	0x96ce
    938c:	0009      	movs	r1, r1
    938e:	e1a0      	b.n	0x96d2
    9390:	f9ab ebff 	vld4.32			; <UNDEFINED> instruction: 0xf9abebff
    9394:	7000      	strb	r0, [r0, #0]
    9396:	e250      	b.n	0x983a
    9398:	000f      	movs	r7, r1
    939a:	0a00      	lsrs	r0, r0, #8
    939c:	2008      	movs	r0, #8
    939e:	e1a0      	b.n	0x96e2
    93a0:	1010      	asrs	r0, r2, #32
    93a2:	e594      	b.n	0x8ece
    93a4:	e26a      	b.n	0x987c
    93a6:	ebff 20bc 			; <UNDEFINED> instruction: 0xebff20bc
    93aa:	e1d4      	b.n	0x9756
    93ac:	2d12      	cmp	r5, #18
    93ae:	e3c2      	b.n	0x9b36
    93b0:	2080      	movs	r0, #128	; 0x80
    93b2:	e382      	b.n	0x9aba
    93b4:	20bc      	movs	r0, #188	; 0xbc
    93b6:	e1c4      	b.n	0x9742
    93b8:	0011      	movs	r1, r2
    93ba:	ea00 2005 	and.w	r0, r0, r5, lsl #8
    93be:	e1a0      	b.n	0x9702
    93c0:	0009      	movs	r1, r1
    93c2:	e1a0      	b.n	0x9706
    93c4:	0150      	lsls	r0, r2, #5
    93c6:	eb00 7000 	add.w	r0, r0, r0, lsl #28
    93ca:	e250      	b.n	0x986e
    93cc:	000c      	movs	r4, r1
    93ce:	1a00      	subs	r0, r0, r0
    93d0:	1010      	asrs	r0, r2, #32
    93d2:	e594      	b.n	0x8efe
    93d4:	0009      	movs	r1, r1
    93d6:	e1a0      	b.n	0x971a
    93d8:	f8cd ebff 	str.w	lr, [sp, #3071]	; 0xbff
    93dc:	200c      	movs	r0, #12
    93de:	e3a0      	b.n	0x9b22
    93e0:	2000      	movs	r0, #0
    93e2:	e589      	b.n	0x8ef8
    93e4:	20bc      	movs	r0, #188	; 0xbc
    93e6:	e1d4      	b.n	0x9792
    93e8:	2040      	movs	r0, #64	; 0x40
    93ea:	e382      	b.n	0x9af2
    93ec:	20bc      	movs	r0, #188	; 0xbc
    93ee:	e1c4      	b.n	0x977a
    93f0:	2000      	movs	r0, #0
    93f2:	e3a0      	b.n	0x9b36
    93f4:	0000      	movs	r0, r0
    93f6:	e3e0      	b.n	0x9bba
    93f8:	2008      	movs	r0, #8
    93fa:	e58b      	b.n	0x8f14
    93fc:	2004      	movs	r0, #4
    93fe:	e58b      	b.n	0x8f18
    9400:	0007      	movs	r7, r0
    9402:	ea00 7010 	and.w	r0, r0, r0, lsr #28
    9406:	e584      	b.n	0x8f12
    9408:	5014      	str	r4, [r2, r0]
    940a:	e584      	b.n	0x8f16
    940c:	7008      	strb	r0, [r1, #0]
    940e:	e087      	b.n	0x9520
    9410:	5008      	str	r0, [r1, r0]
    9412:	e045      	b.n	0x94a0
    9414:	7000      	strb	r0, [r0, #0]
    9416:	e584      	b.n	0x8f22
    9418:	5008      	str	r0, [r1, r0]
    941a:	e584      	b.n	0x8f26
    941c:	7006      	strb	r6, [r0, #0]
    941e:	e1a0      	b.n	0x9762
    9420:	ffb4 eaff 			; <UNDEFINED> instruction: 0xffb4eaff
    9424:	d00c      	beq.n	0x9440
    9426:	e28d      	b.n	0x9944
    9428:	4ff0      	ldr	r7, [pc, #960]	; (0x97ec)
    942a:	e8bd ff1e 	ldmia.w	sp!, {r1, r2, r3, r4, r8, r9, sl, fp, ip, sp, lr, pc}
    942e:	e12f      	b.n	0x9690
    9430:	4ff0      	ldr	r7, [pc, #960]	; (0x97f4)
    9432:	e92d d024 	stmdb	sp!, {r2, r5, ip, lr, pc}
    9436:	e24d      	b.n	0x98d4
    9438:	404c      	eors	r4, r1
    943a:	e59d      	b.n	0x8f78
    943c:	0000      	movs	r0, r0
    943e:	e354      	b.n	0x9aea
    9440:	4f47      	ldr	r7, [pc, #284]	; (0x9560)
    9442:	0280      	lsls	r0, r0, #10
    9444:	0000      	movs	r0, r0
    9446:	e351      	b.n	0x9aec
    9448:	8048      	strh	r0, [r1, #2]
    944a:	e59d      	b.n	0x8f88
    944c:	9050      	str	r0, [sp, #320]	; 0x140
    944e:	e59d      	b.n	0x8f8c
    9450:	6000      	str	r0, [r0, #0]
    9452:	e592      	b.n	0x8f7a
    9454:	0048      	lsls	r0, r1, #1
    9456:	0a00      	lsrs	r0, r0, #8
    9458:	0000      	movs	r0, r0
    945a:	e358      	b.n	0x9b0e
    945c:	0052      	lsls	r2, r2, #1
    945e:	0a00      	lsrs	r0, r0, #8
    9460:	0000      	movs	r0, r0
    9462:	e353      	b.n	0x9b0c
    9464:	5001      	str	r1, [r0, r0]
    9466:	e243      	b.n	0x98f0
    9468:	0051      	lsls	r1, r2, #1
    946a:	0a00      	lsrs	r0, r0, #8
    946c:	200c      	movs	r0, #12
    946e:	e58d      	b.n	0x8f8c
    9470:	0003      	movs	r3, r0
    9472:	e88d 1008 	stmia.w	sp, {r3, ip}
    9476:	e58d      	b.n	0x8f94
    9478:	7000      	strb	r0, [r0, #0]
    947a:	e3a0      	b.n	0x9bbe
    947c:	6004      	str	r4, [r0, #0]
    947e:	e246      	b.n	0x990e
    9480:	000b      	movs	r3, r1
    9482:	ea00 3004 	and.w	r0, r0, r4, lsl #12
    9486:	e59d      	b.n	0x8fc4
    9488:	0000      	movs	r0, r0
    948a:	e353      	b.n	0x9b34
    948c:	001c      	movs	r4, r3
    948e:	1a00      	subs	r0, r0, r0
    9490:	3000      	adds	r0, #0
    9492:	e596      	b.n	0x8fc2
    9494:	0000      	movs	r0, r0
    9496:	e353      	b.n	0x9b40
    9498:	002c      	movs	r4, r5
    949a:	0a00      	lsrs	r0, r0, #8
    949c:	0008      	movs	r0, r1
    949e:	e151      	b.n	0x9744
    94a0:	0045      	lsls	r5, r0, #1
    94a2:	2a00      	cmp	r2, #0
    94a4:	5001      	str	r1, [r0, r0]
    94a6:	e245      	b.n	0x9934
    94a8:	0001      	movs	r1, r0
    94aa:	e375      	b.n	0x9b98
    94ac:	7001      	strb	r1, [r0, #0]
    94ae:	e1a0      	b.n	0x97f2
    94b0:	000f      	movs	r7, r1
    94b2:	0a00      	lsrs	r0, r0, #8
    94b4:	3004      	adds	r0, #4
    94b6:	e1a0      	b.n	0x97fa
    94b8:	2004      	movs	r0, #4
    94ba:	e5b6      	b.n	0x902a
    94bc:	1014      	asrs	r4, r2, #32
    94be:	e28d      	b.n	0x99dc
    94c0:	0000      	movs	r0, r0
    94c2:	e59d      	b.n	0x9000
    94c4:	c0e0      	stmia	r0!, {r5, r6, r7}
    94c6:	e599      	b.n	0x8ffc
    94c8:	b000      	add	sp, #0
    94ca:	e594      	b.n	0x8ff6
    94cc:	a004      	add	r0, pc, #16	; (adr r0, 0x94e0)
    94ce:	e594      	b.n	0x8ffa
    94d0:	e00f      	b.n	0x94f2
    94d2:	e1a0      	b.n	0x9816
    94d4:	ff1c e12f 	vrhadd.u16	d14, d12, d31
    94d8:	0001      	movs	r1, r0
    94da:	e370      	b.n	0x9bbe
    94dc:	0028      	movs	r0, r5
    94de:	0a00      	lsrs	r0, r0, #8
    94e0:	1007      	asrs	r7, r0, #32
    94e2:	e080      	b.n	0x95e6
    94e4:	0008      	movs	r0, r1
    94e6:	e151      	b.n	0x978c
    94e8:	ffe5 9aff 			; <UNDEFINED> instruction: 0xffe59aff
    94ec:	b000      	add	sp, #0
    94ee:	e584      	b.n	0x8ffa
    94f0:	a004      	add	r0, pc, #16	; (adr r0, 0x9504)
    94f2:	e584      	b.n	0x8ffe
    94f4:	0007      	movs	r7, r0
    94f6:	e1a0      	b.n	0x983a
    94f8:	d024      	beq.n	0x9544
    94fa:	e28d      	b.n	0x9a18
    94fc:	4ff0      	ldr	r7, [pc, #960]	; (0x98c0)
    94fe:	e8bd ff1e 	ldmia.w	sp!, {r1, r2, r3, r4, r8, r9, sl, fp, ip, sp, lr, pc}
    9502:	e12f      	b.n	0x9764
    9504:	0000      	movs	r0, r0
    9506:	e350      	b.n	0x9baa
    9508:	0009      	movs	r1, r1
    950a:	da00      	bge.n	0x950e
    950c:	3008      	adds	r0, #8
    950e:	e59d      	b.n	0x904c
    9510:	0000      	movs	r0, r0
    9512:	e083      	b.n	0x961c
    9514:	e001      	b.n	0x951a
    9516:	e240      	b.n	0x999a
    9518:	3001      	adds	r0, #1
    951a:	e243      	b.n	0x99a4
    951c:	2013      	movs	r0, #19
    951e:	e28d      	b.n	0x9a3c
    9520:	c001      	stmia	r0!, {r0}
    9522:	e5f2      	b.n	0x910a
    9524:	c001      	stmia	r0!, {r0}
    9526:	e5e3      	b.n	0x90f0
    9528:	000e      	movs	r6, r1
    952a:	e153      	b.n	0x97d4
    952c:	fffb 1aff 			; <UNDEFINED> instruction: 0xfffb1aff
    9530:	0008      	movs	r0, r1
    9532:	e58d      	b.n	0x9050
    9534:	200c      	movs	r0, #12
    9536:	e59d      	b.n	0x9074
    9538:	3000      	adds	r0, #0
    953a:	e592      	b.n	0x9062
    953c:	3004      	adds	r0, #4
    953e:	e283      	b.n	0x9a48
    9540:	3000      	adds	r0, #0
    9542:	e582      	b.n	0x904a
    9544:	3000      	adds	r0, #0
    9546:	e596      	b.n	0x9076
    9548:	0000      	movs	r0, r0
    954a:	e353      	b.n	0x9bf4
    954c:	ffd2 1aff 			; <UNDEFINED> instruction: 0xffd21aff
    9550:	2004      	movs	r0, #4
    9552:	e59d      	b.n	0x9090
    9554:	0000      	movs	r0, r0
    9556:	e352      	b.n	0x9bfe
    9558:	200c      	movs	r0, #12
    955a:	159d      	asrs	r5, r3, #22
    955c:	7001      	strb	r1, [r0, #0]
    955e:	e241      	b.n	0x99e4
    9560:	3000      	adds	r0, #0
    9562:	1582      	asrs	r2, r0, #22
    9564:	0007      	movs	r7, r0
    9566:	e1a0      	b.n	0x98aa
    9568:	3000      	adds	r0, #0
    956a:	e3a0      	b.n	0x9cae
    956c:	3000      	adds	r0, #0
    956e:	e584      	b.n	0x907a
    9570:	d024      	beq.n	0x95bc
    9572:	e28d      	b.n	0x9a90
    9574:	4ff0      	ldr	r7, [pc, #960]	; (0x9938)
    9576:	e8bd ff1e 	ldmia.w	sp!, {r1, r2, r3, r4, r8, r9, sl, fp, ip, sp, lr, pc}
    957a:	e12f      	b.n	0x97dc
    957c:	8000      	strh	r0, [r0, #0]
    957e:	e3e0      	b.n	0x9d42
    9580:	ffb6 eaff 			; <UNDEFINED> instruction: 0xffb6eaff
    9584:	7000      	strb	r0, [r0, #0]
    9586:	e1a0      	b.n	0x98ca
    9588:	208a      	movs	r0, #138	; 0x8a
    958a:	e3a0      	b.n	0x9cce
    958c:	3000      	adds	r0, #0
    958e:	e3a0      	b.n	0x9cd2
    9590:	0007      	movs	r7, r0
    9592:	e1a0      	b.n	0x98d6
    9594:	1000      	asrs	r0, r0, #32
    9596:	e59d      	b.n	0x90d4
    9598:	2000      	movs	r0, #0
    959a:	e581      	b.n	0x90a0
    959c:	3000      	adds	r0, #0
    959e:	e584      	b.n	0x90aa
    95a0:	d024      	beq.n	0x95ec
    95a2:	e28d      	b.n	0x9ac0
    95a4:	4ff0      	ldr	r7, [pc, #960]	; (0x9968)
    95a6:	e8bd ff1e 	ldmia.w	sp!, {r1, r2, r3, r4, r8, r9, sl, fp, ip, sp, lr, pc}
    95aa:	e12f      	b.n	0x980c
    95ac:	7008      	strb	r0, [r1, #0]
    95ae:	e1a0      	b.n	0x98f2
    95b0:	ffcf eaff 			; <UNDEFINED> instruction: 0xffcfeaff
    95b4:	7003      	strb	r3, [r0, #0]
    95b6:	e1a0      	b.n	0x98fa
    95b8:	ffcd eaff 			; <UNDEFINED> instruction: 0xffcdeaff
    95bc:	7001      	strb	r1, [r0, #0]
    95be:	e1a0      	b.n	0x9902
    95c0:	ffcb eaff 			; <UNDEFINED> instruction: 0xffcbeaff
    95c4:	43f0      	mvns	r0, r6
    95c6:	e92d d014 	stmdb	sp!, {r2, r4, ip, lr, pc}
    95ca:	e24d      	b.n	0x9a68
    95cc:	7003      	strb	r3, [r0, #0]
    95ce:	e1a0      	b.n	0x9912
    95d0:	5001      	str	r1, [r0, r0]
    95d2:	e1a0      	b.n	0x9916
    95d4:	6002      	str	r2, [r0, #0]
    95d6:	e1a0      	b.n	0x991a
    95d8:	9030      	str	r0, [sp, #192]	; 0xc0
    95da:	e59d      	b.n	0x9118
    95dc:	8034      	strh	r4, [r6, #0]
    95de:	e59d      	b.n	0x911c
    95e0:	0229      	lsls	r1, r5, #8
    95e2:	eb00 4000 	add.w	r0, r0, r0, lsl #16
    95e6:	e1a0      	b.n	0x992a
    95e8:	0227      	lsls	r7, r4, #8
    95ea:	eb00 c034 			; <UNDEFINED> instruction: 0xeb00c034
    95ee:	e590      	b.n	0x9112
    95f0:	3030      	adds	r0, #48	; 0x30
    95f2:	e59f      	b.n	0x9134
    95f4:	0000      	movs	r0, r0
    95f6:	e35c      	b.n	0x9cb2
    95f8:	c003      	stmia	r0!, {r0, r1}
    95fa:	01a0      	lsls	r0, r4, #6
    95fc:	9000      	str	r0, [sp, #0]
    95fe:	e58d      	b.n	0x911c
    9600:	8004      	strh	r4, [r0, #0]
    9602:	e58d      	b.n	0x9120
    9604:	3007      	adds	r0, #7
    9606:	e1a0      	b.n	0x994a
    9608:	2006      	movs	r0, #6
    960a:	e1a0      	b.n	0x994e
    960c:	1005      	asrs	r5, r0, #32
    960e:	e1a0      	b.n	0x9952
    9610:	0004      	movs	r4, r0
    9612:	e1a0      	b.n	0x9956
    9614:	c008      	stmia	r0!, {r3}
    9616:	e58d      	b.n	0x9134
    9618:	ff84 ebff 			; <UNDEFINED> instruction: 0xff84ebff
    961c:	d014      	beq.n	0x9648
    961e:	e28d      	b.n	0x9b3c
    9620:	43f0      	mvns	r0, r6
    9622:	e8bd ff1e 	ldmia.w	sp!, {r1, r2, r3, r4, r8, r9, sl, fp, ip, sp, lr, pc}
    9626:	e12f      	b.n	0x9888
    9628:	01ec      	lsls	r4, r5, #7
    962a:	0300      	lsls	r0, r0, #12
    962c:	0000      	movs	r0, r0
    962e:	e351      	b.n	0x9cd4
    9630:	0026      	movs	r6, r4
    9632:	0a00      	lsrs	r0, r0, #8
    9634:	007f      	lsls	r7, r7, #1
    9636:	e352      	b.n	0x9cde
    9638:	2000      	movs	r0, #0
    963a:	95c1      	str	r5, [sp, #772]	; 0x304
    963c:	1001      	asrs	r1, r0, #32
    963e:	93a0      	str	r3, [sp, #640]	; 0x280
    9640:	0022      	movs	r2, r4
    9642:	9a00      	ldr	r2, [sp, #0]
    9644:	3080      	adds	r0, #128	; 0x80
    9646:	e242      	b.n	0x9ace
    9648:	0d1e      	lsrs	r6, r3, #20
    964a:	e353      	b.n	0x9cf4
    964c:	0017      	movs	r7, r2
    964e:	3a00      	subs	r2, #0
    9650:	3b02      	subs	r3, #2
    9652:	e242      	b.n	0x9ada
    9654:	0b3e      	lsrs	r6, r7, #12
    9656:	e353      	b.n	0x9d00
    9658:	e004      	b.n	0x9664
    965a:	e52d      	b.n	0x90b8
    965c:	001d      	movs	r5, r3
    965e:	3a00      	subs	r2, #0
    9660:	3801      	subs	r0, #1
    9662:	e242      	b.n	0x9aea
    9664:	0601      	lsls	r1, r0, #24
    9666:	e353      	b.n	0x9d10
    9668:	0026      	movs	r6, r4
    966a:	2a00      	cmp	r2, #0
    966c:	e00f      	b.n	0x968e
    966e:	e3e0      	b.n	0x9e32
    9670:	307f      	adds	r0, #127	; 0x7f
    9672:	e3e0      	b.n	0x9e36
    9674:	c702      	stmia	r7!, {r1}
    9676:	e1a0      	b.n	0x99ba
    9678:	0a02      	lsrs	r2, r0, #8
    967a:	e1a0      	b.n	0x99be
    967c:	e922 e18e 	stmdb	r2!, {r1, r2, r3, r7, r8, sp, lr, pc}
    9680:	203f      	movs	r0, #63	; 0x3f
    9682:	e202      	b.n	0x9a8a
    9684:	cd2c      	ldmia	r5, {r2, r3, r5}
    9686:	e183      	b.n	0x9990
    9688:	0d20      	lsrs	r0, r4, #20
    968a:	e183      	b.n	0x9994
    968c:	2002      	movs	r0, #2
    968e:	e183      	b.n	0x9998
    9690:	e000      	b.n	0x9694
    9692:	e5c1      	b.n	0x9218
    9694:	c001      	stmia	r0!, {r0}
    9696:	e5c1      	b.n	0x921c
    9698:	0002      	movs	r2, r0
    969a:	e5c1      	b.n	0x9220
    969c:	2003      	movs	r0, #3
    969e:	e5c1      	b.n	0x9224
    96a0:	1004      	asrs	r4, r0, #32
    96a2:	e3a0      	b.n	0x9de6
    96a4:	0001      	movs	r1, r0
    96a6:	e1a0      	b.n	0x99ea
    96a8:	e004      	b.n	0x96b4
    96aa:	e49d      	b.n	0x8fe8
    96ac:	ff1e e12f 	vrhadd.u16	d14, d14, d31
    96b0:	303f      	adds	r0, #63	; 0x3f
    96b2:	e202      	b.n	0x9aba
    96b4:	3c83      	subs	r4, #131	; 0x83
    96b6:	e1e0      	b.n	0x9a7a
    96b8:	003f      	movs	r7, r7
    96ba:	e3e0      	b.n	0x9e7e
    96bc:	3ca3      	subs	r4, #163	; 0xa3
    96be:	e1e0      	b.n	0x9a82
    96c0:	2322      	movs	r3, #34	; 0x22
    96c2:	e180      	b.n	0x99c6
    96c4:	3001      	adds	r0, #1
    96c6:	e5c1      	b.n	0x924c
    96c8:	2000      	movs	r0, #0
    96ca:	e5c1      	b.n	0x9250
    96cc:	1002      	asrs	r2, r0, #32
    96ce:	e3a0      	b.n	0x9e12
    96d0:	0001      	movs	r1, r0
    96d2:	e1a0      	b.n	0x9a16
    96d4:	ff1e e12f 	vrhadd.u16	d14, d14, d31
    96d8:	307f      	adds	r0, #127	; 0x7f
    96da:	e3e0      	b.n	0x9e9e
    96dc:	c01f      	stmia	r0!, {r0, r1, r2, r3, r4}
    96de:	e3e0      	b.n	0x9ea2
    96e0:	0a02      	lsrs	r2, r0, #8
    96e2:	e1a0      	b.n	0x9a26
    96e4:	e03f      	b.n	0x9766
    96e6:	e202      	b.n	0x9aee
    96e8:	0d20      	lsrs	r0, r4, #20
    96ea:	e183      	b.n	0x99f4
    96ec:	2622      	movs	r6, #34	; 0x22
    96ee:	e18c      	b.n	0x9a0a
    96f0:	300e      	adds	r0, #14
    96f2:	e183      	b.n	0x99fc
    96f4:	2000      	movs	r0, #0
    96f6:	e5c1      	b.n	0x927c
    96f8:	0001      	movs	r1, r0
    96fa:	e5c1      	b.n	0x9280
    96fc:	3002      	adds	r0, #2
    96fe:	e5c1      	b.n	0x9284
    9700:	1003      	asrs	r3, r0, #32
    9702:	e3a0      	b.n	0x9e46
    9704:	ffe6 eaff 			; <UNDEFINED> instruction: 0xffe6eaff
    9708:	308a      	adds	r0, #138	; 0x8a
    970a:	e3a0      	b.n	0x9e4e
    970c:	1000      	asrs	r0, r0, #32
    970e:	e3e0      	b.n	0x9ed2
    9710:	3000      	adds	r0, #0
    9712:	e580      	b.n	0x9216
    9714:	ffe2 eaff 			; <UNDEFINED> instruction: 0xffe2eaff
    9718:	4010      	ands	r0, r2
    971a:	e92d 0192 	stmdb	sp!, {r1, r4, r7, r8}
    971e:	e001      	b.n	0x9724
    9720:	f8c7 ebff 	str.w	lr, [r7, #3071]	; 0xbff
    9724:	4000      	ands	r0, r0
    9726:	e250      	b.n	0x9bca
    9728:	000b      	movs	r3, r1
    972a:	0a00      	lsrs	r0, r0, #8
    972c:	2004      	movs	r0, #4
    972e:	e514      	b.n	0x915a
    9730:	2003      	movs	r0, #3
    9732:	e3c2      	b.n	0x9eba
    9734:	2004      	movs	r0, #4
    9736:	e242      	b.n	0x9bbe
    9738:	0024      	movs	r4, r4
    973a:	e352      	b.n	0x9de2
    973c:	0017      	movs	r7, r2
    973e:	8a00      	ldrh	r0, [r0, #16]
    9740:	0013      	movs	r3, r2
    9742:	e352      	b.n	0x9dea
    9744:	2004      	movs	r0, #4
    9746:	91a0      	str	r1, [sp, #640]	; 0x280
    9748:	0006      	movs	r6, r0
    974a:	8a00      	ldrh	r0, [r0, #16]
    974c:	3000      	adds	r0, #0
    974e:	e3a0      	b.n	0x9e92
    9750:	3000      	adds	r0, #0
    9752:	e582      	b.n	0x925a
    9754:	3004      	adds	r0, #4
    9756:	e582      	b.n	0x925e
    9758:	3008      	adds	r0, #8
    975a:	e582      	b.n	0x9262
    975c:	0004      	movs	r4, r0
    975e:	e1a0      	b.n	0x9aa2
    9760:	4010      	ands	r0, r2
    9762:	e8bd ff1e 	ldmia.w	sp!, {r1, r2, r3, r4, r8, r9, sl, fp, ip, sp, lr, pc}
    9766:	e12f      	b.n	0x99c8
    9768:	3000      	adds	r0, #0
    976a:	e3a0      	b.n	0x9eae
    976c:	001b      	movs	r3, r3
    976e:	e352      	b.n	0x9e16
    9770:	3000      	adds	r0, #0
    9772:	e584      	b.n	0x927e
    9774:	3004      	adds	r0, #4
    9776:	e584      	b.n	0x9282
    9778:	2008      	movs	r0, #8
    977a:	9284      	str	r2, [sp, #528]	; 0x210
    977c:	fff2 9aff 			; <UNDEFINED> instruction: 0xfff29aff
    9780:	0024      	movs	r4, r4
    9782:	e352      	b.n	0x9e2a
    9784:	3008      	adds	r0, #8
    9786:	e584      	b.n	0x9292
    9788:	300c      	adds	r0, #12
    978a:	e584      	b.n	0x9296
    978c:	2010      	movs	r0, #16
    978e:	1284      	asrs	r4, r0, #10
    9790:	3010      	adds	r0, #16
    9792:	0584      	lsls	r4, r0, #22
    9794:	3014      	adds	r0, #20
    9796:	0584      	lsls	r4, r0, #22
    9798:	2018      	movs	r0, #24
    979a:	0284      	lsls	r4, r0, #10
    979c:	ffea eaff 			; <UNDEFINED> instruction: 0xffeaeaff
    97a0:	1000      	asrs	r0, r0, #32
    97a2:	e3a0      	b.n	0x9ee6
    97a4:	fb8e ebff 			; <UNDEFINED> instruction: 0xfb8eebff
    97a8:	0004      	movs	r4, r0
    97aa:	e1a0      	b.n	0x9aee
    97ac:	4010      	ands	r0, r2
    97ae:	e8bd ff1e 	ldmia.w	sp!, {r1, r2, r3, r4, r8, r9, sl, fp, ip, sp, lr, pc}
    97b2:	e12f      	b.n	0x9a14
    97b4:	0001      	movs	r1, r0
    97b6:	e150      	b.n	0x9a5a
    97b8:	000a      	movs	r2, r1
    97ba:	9a00      	ldr	r2, [sp, #0]
    97bc:	3002      	adds	r0, #2
    97be:	e081      	b.n	0x98c4
    97c0:	0000      	movs	r0, r0
    97c2:	e153      	b.n	0x9a6c
    97c4:	0007      	movs	r7, r0
    97c6:	9a00      	ldr	r2, [sp, #0]
    97c8:	0000      	movs	r0, r0
    97ca:	e352      	b.n	0x9e72
    97cc:	2002      	movs	r0, #2
    97ce:	e080      	b.n	0x98d2
    97d0:	ff1e 012f 	vrhadd.u16	d0, d14, d31
    97d4:	c001      	stmia	r0!, {r0}
    97d6:	e573      	b.n	0x92c0
    97d8:	0003      	movs	r3, r0
    97da:	e151      	b.n	0x9a80
    97dc:	c001      	stmia	r0!, {r0}
    97de:	e562      	b.n	0x92a6
    97e0:	fffb 1aff 			; <UNDEFINED> instruction: 0xfffb1aff
    97e4:	ff1e e12f 	vrhadd.u16	d14, d14, d31
    97e8:	000f      	movs	r7, r1
    97ea:	e352      	b.n	0x9e92
    97ec:	000b      	movs	r3, r1
    97ee:	8a00      	ldrh	r0, [r0, #16]
    97f0:	0000      	movs	r0, r0
    97f2:	e352      	b.n	0x9e9a
    97f4:	c000      	stmia	r0!, {}
    97f6:	e1a0      	b.n	0x9b3a
    97f8:	2001      	movs	r0, #1
    97fa:	e242      	b.n	0x9c82
    97fc:	ff1e 012f 	vrhadd.u16	d0, d14, d31
    9800:	2001      	movs	r0, #1
    9802:	e282      	b.n	0x9d0a
    9804:	3002      	adds	r0, #2
    9806:	e081      	b.n	0x990c
    9808:	2001      	movs	r0, #1
    980a:	e24c      	b.n	0x9ca6
    980c:	c001      	stmia	r0!, {r0}
    980e:	e4d1      	b.n	0x91b4
    9810:	0003      	movs	r3, r0
    9812:	e151      	b.n	0x9ab8
    9814:	c001      	stmia	r0!, {r0}
    9816:	e5e2      	b.n	0x93de
    9818:	fffb 1aff 			; <UNDEFINED> instruction: 0xfffb1aff
    981c:	ff1e e12f 	vrhadd.u16	d14, d14, d31
    9820:	3001      	adds	r0, #1
    9822:	e180      	b.n	0x9b26
    9824:	0003      	movs	r3, r0
    9826:	e313      	b.n	0x9e50
    9828:	0034      	movs	r4, r6
    982a:	1a00      	subs	r0, r0, r0
    982c:	4070      	eors	r0, r6
    982e:	e92d 5010 	stmdb	sp!, {r4, ip, lr}
    9832:	e242      	b.n	0x9cba
    9834:	5225      	strh	r5, [r4, r0]
    9836:	e1a0      	b.n	0x9b7a
    9838:	4020      	ands	r0, r4
    983a:	e281      	b.n	0x9d40
    983c:	4205      	tst	r5, r0
    983e:	e084      	b.n	0x994a
    9840:	3010      	adds	r0, #16
    9842:	e281      	b.n	0x9d48
    9844:	c010      	stmia	r0!, {r4}
    9846:	e280      	b.n	0x9d4a
    9848:	e010      	b.n	0x986c
    984a:	e513      	b.n	0x9274
    984c:	e010      	b.n	0x9870
    984e:	e50c      	b.n	0x926a
    9850:	e00c      	b.n	0x986c
    9852:	e513      	b.n	0x927c
    9854:	e00c      	b.n	0x9870
    9856:	e50c      	b.n	0x9272
    9858:	e008      	b.n	0x986c
    985a:	e513      	b.n	0x9284
    985c:	e008      	b.n	0x9870
    985e:	e50c      	b.n	0x927a
    9860:	3010      	adds	r0, #16
    9862:	e283      	b.n	0x9d6c
    9864:	e014      	b.n	0x9890
    9866:	e513      	b.n	0x9290
    9868:	0004      	movs	r4, r0
    986a:	e153      	b.n	0x9b14
    986c:	e004      	b.n	0x9878
    986e:	e50c      	b.n	0x928a
    9870:	c010      	stmia	r0!, {r4}
    9872:	e28c      	b.n	0x9d8e
    9874:	fff3 1aff 			; <UNDEFINED> instruction: 0xfff31aff
    9878:	c001      	stmia	r0!, {r0}
    987a:	e285      	b.n	0x9d88
    987c:	c20c      	stmia	r2!, {r2, r3}
    987e:	e1a0      	b.n	0x9bc2
    9880:	000c      	movs	r4, r1
    9882:	e312      	b.n	0x9eaa
    9884:	e00f      	b.n	0x98a6
    9886:	e202      	b.n	0x9c8e
    9888:	100c      	asrs	r4, r1, #32
    988a:	e081      	b.n	0x9990
    988c:	200e      	movs	r0, #14
    988e:	01a0      	lsls	r0, r4, #6
    9890:	c00c      	stmia	r0!, {r2, r3}
    9892:	e080      	b.n	0x9996
    9894:	000d      	movs	r5, r1
    9896:	0a00      	lsrs	r0, r0, #8
    9898:	4001      	ands	r1, r0
    989a:	e1a0      	b.n	0x9bde
    989c:	e004      	b.n	0x98a8
    989e:	e24e      	b.n	0x9d3e
    98a0:	e12e      	b.n	0x9b00
    98a2:	e1a0      	b.n	0x9be6
    98a4:	610e      	str	r6, [r1, #16]
    98a6:	e08c      	b.n	0x99c2
    98a8:	3004      	adds	r0, #4
    98aa:	e24c      	b.n	0x9d46
    98ac:	5004      	str	r4, [r0, r0]
    98ae:	e494      	b.n	0x91da
    98b0:	5004      	str	r4, [r0, r0]
    98b2:	e5a3      	b.n	0x93fc
    98b4:	0006      	movs	r6, r0
    98b6:	e153      	b.n	0x9b60
    98b8:	fffb 1aff 			; <UNDEFINED> instruction: 0xfffb1aff
    98bc:	e001      	b.n	0x98c2
    98be:	e28e      	b.n	0x9dde
    98c0:	e10e      	b.n	0x9ae0
    98c2:	e1a0      	b.n	0x9c06
    98c4:	c00e      	stmia	r0!, {r1, r2, r3}
    98c6:	e08c      	b.n	0x99e2
    98c8:	100e      	asrs	r6, r1, #32
    98ca:	e081      	b.n	0x99d0
    98cc:	2003      	movs	r0, #3
    98ce:	e202      	b.n	0x9cd6
    98d0:	0000      	movs	r0, r0
    98d2:	e352      	b.n	0x9f7a
    98d4:	2001      	movs	r0, #1
    98d6:	e242      	b.n	0x9d5e
    98d8:	2001      	movs	r0, #1
    98da:	1282      	asrs	r2, r0, #10
    98dc:	3002      	adds	r0, #2
    98de:	1081      	asrs	r1, r0, #2
    98e0:	2001      	movs	r0, #1
    98e2:	124c      	asrs	r4, r1, #9
    98e4:	0003      	movs	r3, r0
    98e6:	0a00      	lsrs	r0, r0, #8
    98e8:	c001      	stmia	r0!, {r0}
    98ea:	e4d1      	b.n	0x9290
    98ec:	0003      	movs	r3, r0
    98ee:	e151      	b.n	0x9b94
    98f0:	c001      	stmia	r0!, {r0}
    98f2:	e5e2      	b.n	0x94ba
    98f4:	fffb 1aff 			; <UNDEFINED> instruction: 0xfffb1aff
    98f8:	4070      	eors	r0, r6
    98fa:	e8bd ff1e 	ldmia.w	sp!, {r1, r2, r3, r4, r8, r9, sl, fp, ip, sp, lr, pc}
    98fe:	e12f      	b.n	0x9b60
    9900:	2001      	movs	r0, #1
    9902:	e242      	b.n	0x9d8a
    9904:	c000      	stmia	r0!, {}
    9906:	e1a0      	b.n	0x9c4a
    9908:	ffbc eaff 			; <UNDEFINED> instruction: 0xffbceaff
    990c:	4ff8      	ldr	r7, [pc, #992]	; (0x9cf0)
    990e:	e92d 6000 	stmdb	sp!, {sp, lr}
    9912:	e251      	b.n	0x9db8
    9914:	a002      	add	r0, pc, #8	; (adr r0, 0x9920)
    9916:	e1a0      	b.n	0x9c5a
    9918:	009f      	lsls	r7, r3, #2
    991a:	0a00      	lsrs	r0, r0, #8
    991c:	400b      	ands	r3, r1
    991e:	e28a      	b.n	0x9e36
    9920:	8000      	strh	r0, [r0, #0]
    9922:	e1a0      	b.n	0x9c66
    9924:	fb74 ebff 			; <UNDEFINED> instruction: 0xfb74ebff
    9928:	0016      	movs	r6, r2
    992a:	e354      	b.n	0x9fd6
    992c:	2010      	movs	r0, #16
    992e:	93a0      	str	r3, [sp, #640]	; 0x280
    9930:	3000      	adds	r0, #0
    9932:	93a0      	str	r3, [sp, #640]	; 0x280
    9934:	4002      	ands	r2, r0
    9936:	91a0      	str	r1, [sp, #640]	; 0x280
    9938:	4007      	ands	r7, r0
    993a:	83c4      	strh	r4, [r0, #30]
    993c:	3fa4      	subs	r7, #164	; 0xa4
    993e:	81a0      	strh	r0, [r4, #12]
    9940:	2004      	movs	r0, #4
    9942:	81a0      	strh	r0, [r4, #12]
    9944:	000a      	movs	r2, r1
    9946:	e154      	b.n	0x9bf2
    9948:	3001      	adds	r0, #1
    994a:	3383      	adds	r3, #131	; 0x83
    994c:	0000      	movs	r0, r0
    994e:	e353      	b.n	0x9ff8
    9950:	300c      	adds	r0, #12
    9952:	13a0      	asrs	r0, r4, #14
    9954:	1004      	asrs	r4, r0, #32
    9956:	e516      	b.n	0x9386
    9958:	7008      	strb	r0, [r1, #0]
    995a:	e246      	b.n	0x9dea
    995c:	5003      	str	r3, [r0, r0]
    995e:	e3c1      	b.n	0xa0e4
    9960:	a000      	add	r0, pc, #0	; (adr r0, 0x9964)
    9962:	13a0      	asrs	r0, r4, #14
    9964:	3000      	adds	r0, #0
    9966:	1588      	asrs	r0, r1, #22
    9968:	003a      	movs	r2, r7
    996a:	1a00      	subs	r0, r0, r0
    996c:	0002      	movs	r2, r0
    996e:	e155      	b.n	0x9c1c
    9970:	9005      	str	r0, [sp, #20]
    9972:	e087      	b.n	0x9a84
    9974:	0065      	lsls	r5, r4, #1
    9976:	aa00      	add	r2, sp, #0
    9978:	3464      	adds	r4, #100	; 0x64
    997a:	e59f      	b.n	0x94bc
    997c:	0008      	movs	r0, r1
    997e:	e593      	b.n	0x94a8
    9980:	0009      	movs	r1, r1
    9982:	e150      	b.n	0x9c26
    9984:	0004      	movs	r4, r0
    9986:	e599      	b.n	0x94bc
    9988:	0089      	lsls	r1, r1, #2
    998a:	0a00      	lsrs	r0, r0, #8
    998c:	3001      	adds	r0, #1
    998e:	e3c0      	b.n	0xa112
    9990:	3003      	adds	r0, #3
    9992:	e089      	b.n	0x9aa8
    9994:	3004      	adds	r0, #4
    9996:	e593      	b.n	0x94c0
    9998:	0001      	movs	r1, r0
    999a:	e313      	b.n	0x9fc4
    999c:	0077      	lsls	r7, r6, #1
    999e:	1a00      	subs	r0, r0, r0
    99a0:	0003      	movs	r3, r0
    99a2:	e3c0      	b.n	0xa126
    99a4:	3000      	adds	r0, #0
    99a6:	e085      	b.n	0x9ab4
    99a8:	0002      	movs	r2, r0
    99aa:	e153      	b.n	0x9c54
    99ac:	00c2      	lsls	r2, r0, #3
    99ae:	aa00      	add	r2, sp, #0
    99b0:	0001      	movs	r1, r0
    99b2:	e311      	b.n	0x9fd8
    99b4:	000a      	movs	r2, r1
    99b6:	1a00      	subs	r0, r0, r0
    99b8:	b008      	add	sp, #32
    99ba:	e516      	b.n	0x93ea
    99bc:	b00b      	add	sp, #44	; 0x2c
    99be:	e047      	b.n	0x9a50
    99c0:	1004      	asrs	r4, r0, #32
    99c2:	e59b      	b.n	0x94fc
    99c4:	1003      	asrs	r3, r0, #32
    99c6:	e3c1      	b.n	0xa14c
    99c8:	0000      	movs	r0, r0
    99ca:	e081      	b.n	0x9ad0
    99cc:	3005      	adds	r0, #5
    99ce:	e080      	b.n	0x9ad2
    99d0:	0002      	movs	r2, r0
    99d2:	e153      	b.n	0x9c7c
    99d4:	00d0      	lsls	r0, r2, #3
    99d6:	aa00      	add	r2, sp, #0
    99d8:	3001      	adds	r0, #1
    99da:	e085      	b.n	0x9ae8
    99dc:	0002      	movs	r2, r0
    99de:	e153      	b.n	0x9c88
    99e0:	001f      	movs	r7, r3
    99e2:	aa00      	add	r2, sp, #0
    99e4:	100a      	asrs	r2, r1, #32
    99e6:	e1a0      	b.n	0x9d2a
    99e8:	0008      	movs	r0, r1
    99ea:	e1a0      	b.n	0x9d2e
    99ec:	f814 ebff 	ldrb.w	lr, [r4], #255
    99f0:	a000      	add	r0, pc, #0	; (adr r0, 0x99f4)
    99f2:	e250      	b.n	0x9e96
    99f4:	0015      	movs	r5, r2
    99f6:	0a00      	lsrs	r0, r0, #8
    99f8:	3004      	adds	r0, #4
    99fa:	e516      	b.n	0x942a
    99fc:	3001      	adds	r0, #1
    99fe:	e3c3      	b.n	0xa188
    9a00:	3003      	adds	r0, #3
    9a02:	e087      	b.n	0x9b14
    9a04:	2008      	movs	r0, #8
    9a06:	e24a      	b.n	0x9e9e
    9a08:	0002      	movs	r2, r0
    9a0a:	e153      	b.n	0x9cb4
    9a0c:	00b1      	lsls	r1, r6, #2
    9a0e:	0a00      	lsrs	r0, r0, #8
    9a10:	2004      	movs	r0, #4
    9a12:	e245      	b.n	0x9ea0
    9a14:	0024      	movs	r4, r4
    9a16:	e352      	b.n	0xa0be
    9a18:	00bc      	lsls	r4, r7, #2
    9a1a:	8a00      	ldrh	r0, [r0, #16]
    9a1c:	0013      	movs	r3, r2
    9a1e:	e352      	b.n	0xa0c6
    9a20:	1000      	asrs	r0, r0, #32
    9a22:	e596      	b.n	0x9552
    9a24:	300a      	adds	r0, #10
    9a26:	91a0      	str	r1, [sp, #640]	; 0x280
    9a28:	2006      	movs	r0, #6
    9a2a:	91a0      	str	r1, [sp, #640]	; 0x280
    9a2c:	00ae      	lsls	r6, r5, #2
    9a2e:	8a00      	ldrh	r0, [r0, #16]
    9a30:	1000      	asrs	r0, r0, #32
    9a32:	e583      	b.n	0x953c
    9a34:	1004      	asrs	r4, r0, #32
    9a36:	e592      	b.n	0x955e
    9a38:	1004      	asrs	r4, r0, #32
    9a3a:	e583      	b.n	0x9544
    9a3c:	2008      	movs	r0, #8
    9a3e:	e592      	b.n	0x9566
    9a40:	2008      	movs	r0, #8
    9a42:	e583      	b.n	0x954c
    9a44:	1006      	asrs	r6, r0, #32
    9a46:	e1a0      	b.n	0x9d8a
    9a48:	0008      	movs	r0, r1
    9a4a:	e1a0      	b.n	0x9d8e
    9a4c:	f730 ebff 			; <UNDEFINED> instruction: 0xf730ebff
    9a50:	0008      	movs	r0, r1
    9a52:	e1a0      	b.n	0x9d96
    9a54:	fb2e ebff 			; <UNDEFINED> instruction: 0xfb2eebff
    9a58:	000a      	movs	r2, r1
    9a5a:	e1a0      	b.n	0x9d9e
    9a5c:	4ff8      	ldr	r7, [pc, #992]	; (0x9e40)
    9a5e:	e8bd ff1e 	ldmia.w	sp!, {r1, r2, r3, r4, r8, r9, sl, fp, ip, sp, lr, pc}
    9a62:	e12f      	b.n	0x9cc4
    9a64:	a00b      	add	r0, pc, #44	; (adr r0, 0x9a94)
    9a66:	e1a0      	b.n	0x9daa
    9a68:	100c      	asrs	r4, r1, #32
    9a6a:	e59b      	b.n	0x95a4
    9a6c:	0008      	movs	r0, r1
    9a6e:	e5ba      	b.n	0x95e6
    9a70:	2004      	movs	r0, #4
    9a72:	e245      	b.n	0x9f00
    9a74:	0024      	movs	r4, r4
    9a76:	e352      	b.n	0xa11e
    9a78:	100c      	asrs	r4, r1, #32
    9a7a:	e580      	b.n	0x957e
    9a7c:	9003      	str	r0, [sp, #12]
    9a7e:	e08b      	b.n	0x9b98
    9a80:	0008      	movs	r0, r1
    9a82:	e581      	b.n	0x9588
    9a84:	00ad      	lsls	r5, r5, #2
    9a86:	8a00      	ldrh	r0, [r0, #16]
    9a88:	0013      	movs	r3, r2
    9a8a:	e352      	b.n	0xa132
    9a8c:	1000      	asrs	r0, r0, #32
    9a8e:	e596      	b.n	0x95be
    9a90:	200a      	movs	r0, #10
    9a92:	91a0      	str	r1, [sp, #640]	; 0x280
    9a94:	0015      	movs	r5, r2
    9a96:	9a00      	ldr	r2, [sp, #0]
    9a98:	1008      	asrs	r0, r1, #32
    9a9a:	e58b      	b.n	0x95b4
    9a9c:	1004      	asrs	r4, r0, #32
    9a9e:	e596      	b.n	0x95ce
    9aa0:	100c      	asrs	r4, r1, #32
    9aa2:	e58b      	b.n	0x95bc
    9aa4:	001b      	movs	r3, r3
    9aa6:	e352      	b.n	0xa14e
    9aa8:	1008      	asrs	r0, r1, #32
    9aaa:	e596      	b.n	0x95da
    9aac:	2010      	movs	r0, #16
    9aae:	928b      	str	r2, [sp, #556]	; 0x22c
    9ab0:	6008      	str	r0, [r1, #0]
    9ab2:	9286      	str	r2, [sp, #536]	; 0x218
    9ab4:	000d      	movs	r5, r1
    9ab6:	9a00      	ldr	r2, [sp, #0]
    9ab8:	1010      	asrs	r0, r2, #32
    9aba:	e58b      	b.n	0x95d4
    9abc:	100c      	asrs	r4, r1, #32
    9abe:	e596      	b.n	0x95ee
    9ac0:	1014      	asrs	r4, r2, #32
    9ac2:	e58b      	b.n	0x95dc
    9ac4:	0024      	movs	r4, r4
    9ac6:	e352      	b.n	0xa16e
    9ac8:	2010      	movs	r0, #16
    9aca:	0596      	lsls	r6, r2, #22
    9acc:	2018      	movs	r0, #24
    9ace:	058b      	lsls	r3, r1, #22
    9ad0:	2014      	movs	r0, #20
    9ad2:	0596      	lsls	r6, r2, #22
    9ad4:	201c      	movs	r0, #28
    9ad6:	058b      	lsls	r3, r1, #22
    9ad8:	1010      	asrs	r0, r2, #32
    9ada:	1596      	asrs	r6, r2, #22
    9adc:	1018      	asrs	r0, r3, #32
    9ade:	0596      	lsls	r6, r2, #22
    9ae0:	2018      	movs	r0, #24
    9ae2:	128b      	asrs	r3, r1, #10
    9ae4:	6010      	str	r0, [r2, #0]
    9ae6:	1286      	asrs	r6, r0, #10
    9ae8:	2020      	movs	r0, #32
    9aea:	028b      	lsls	r3, r1, #10
    9aec:	6018      	str	r0, [r3, #0]
    9aee:	0286      	lsls	r6, r0, #10
    9af0:	1000      	asrs	r0, r0, #32
    9af2:	e582      	b.n	0x95fa
    9af4:	1004      	asrs	r4, r0, #32
    9af6:	e596      	b.n	0x9626
    9af8:	1004      	asrs	r4, r0, #32
    9afa:	e582      	b.n	0x9602
    9afc:	5003      	str	r3, [r0, r0]
    9afe:	e1a0      	b.n	0x9e42
    9b00:	1008      	asrs	r0, r1, #32
    9b02:	e596      	b.n	0x9632
    9b04:	700b      	strb	r3, [r1, #0]
    9b06:	e1a0      	b.n	0x9e4a
    9b08:	600a      	str	r2, [r1, #0]
    9b0a:	e1a0      	b.n	0x9e4e
    9b0c:	1008      	asrs	r0, r1, #32
    9b0e:	e582      	b.n	0x9616
    9b10:	3004      	adds	r0, #4
    9b12:	e045      	b.n	0x9ba0
    9b14:	2004      	movs	r0, #4
    9b16:	e597      	b.n	0x9648
    9b18:	000f      	movs	r7, r1
    9b1a:	e353      	b.n	0xa1c4
    9b1c:	2001      	movs	r0, #1
    9b1e:	e202      	b.n	0x9f26
    9b20:	000a      	movs	r2, r1
    9b22:	8a00      	ldrh	r0, [r0, #16]
    9b24:	2002      	movs	r0, #2
    9b26:	e185      	b.n	0x9e34
    9b28:	2004      	movs	r0, #4
    9b2a:	e587      	b.n	0x963c
    9b2c:	3004      	adds	r0, #4
    9b2e:	e599      	b.n	0x9664
    9b30:	3001      	adds	r0, #1
    9b32:	e383      	b.n	0xa23c
    9b34:	3004      	adds	r0, #4
    9b36:	e589      	b.n	0x964c
    9b38:	a006      	add	r0, pc, #24	; (adr r0, 0x9b54)
    9b3a:	e1a0      	b.n	0x9e7e
    9b3c:	0008      	movs	r0, r1
    9b3e:	e1a0      	b.n	0x9e82
    9b40:	faf3 ebff 			; <UNDEFINED> instruction: 0xfaf3ebff
    9b44:	000a      	movs	r2, r1
    9b46:	e1a0      	b.n	0x9e8a
    9b48:	4ff8      	ldr	r7, [pc, #992]	; (0x9f2c)
    9b4a:	e8bd ff1e 	ldmia.w	sp!, {r1, r2, r3, r4, r8, r9, sl, fp, ip, sp, lr, pc}
    9b4e:	e12f      	b.n	0x9db0
    9b50:	1004      	asrs	r4, r0, #32
    9b52:	e087      	b.n	0x9c64
    9b54:	2002      	movs	r0, #2
    9b56:	e184      	b.n	0x9e62
    9b58:	3001      	adds	r0, #1
    9b5a:	e383      	b.n	0xa264
    9b5c:	2004      	movs	r0, #4
    9b5e:	e587      	b.n	0x9670
    9b60:	3004      	adds	r0, #4
    9b62:	e581      	b.n	0x9668
    9b64:	3004      	adds	r0, #4
    9b66:	e599      	b.n	0x969c
    9b68:	3001      	adds	r0, #1
    9b6a:	e383      	b.n	0xa274
    9b6c:	1008      	asrs	r0, r1, #32
    9b6e:	e281      	b.n	0xa074
    9b70:	3004      	adds	r0, #4
    9b72:	e589      	b.n	0x9688
    9b74:	0008      	movs	r0, r1
    9b76:	e1a0      	b.n	0x9eba
    9b78:	f6e5 ebff 			; <UNDEFINED> instruction: 0xf6e5ebff
    9b7c:	ffed eaff 			; <UNDEFINED> instruction: 0xffedeaff
    9b80:	0001      	movs	r1, r0
    9b82:	e311      	b.n	0xa1a8
    9b84:	ff96 1aff 			; <UNDEFINED> instruction: 0xff961aff
    9b88:	b008      	add	sp, #32
    9b8a:	e516      	b.n	0x95ba
    9b8c:	b00b      	add	sp, #44	; 0x2c
    9b8e:	e047      	b.n	0x9c20
    9b90:	1004      	asrs	r4, r0, #32
    9b92:	e59b      	b.n	0x96cc
    9b94:	1003      	asrs	r3, r0, #32
    9b96:	e3c1      	b.n	0xa31c
    9b98:	ff8e eaff 			; <UNDEFINED> instruction: 0xff8eeaff
    9b9c:	1002      	asrs	r2, r0, #32
    9b9e:	e1a0      	b.n	0x9ee2
    9ba0:	f7a7 ebff 			; <UNDEFINED> instruction: 0xf7a7ebff
    9ba4:	a000      	add	r0, pc, #0	; (adr r0, 0x9ba8)
    9ba6:	e1a0      	b.n	0x9eea
    9ba8:	000a      	movs	r2, r1
    9baa:	e1a0      	b.n	0x9eee
    9bac:	4ff8      	ldr	r7, [pc, #992]	; (0x9f90)
    9bae:	e8bd ff1e 	ldmia.w	sp!, {r1, r2, r3, r4, r8, r9, sl, fp, ip, sp, lr, pc}
    9bb2:	e12f      	b.n	0x9e14
    9bb4:	0003      	movs	r3, r0
    9bb6:	e3c0      	b.n	0xa33a
    9bb8:	e000      	b.n	0x9bbc
    9bba:	e085      	b.n	0x9cc8
    9bbc:	c010      	stmia	r0!, {r4}
    9bbe:	e284      	b.n	0xa0ca
    9bc0:	000c      	movs	r4, r1
    9bc2:	e15e      	b.n	0x9e82
    9bc4:	0074      	lsls	r4, r6, #1
    9bc6:	aa00      	add	r2, sp, #0
    9bc8:	0001      	movs	r1, r0
    9bca:	e311      	b.n	0xa1f0
    9bcc:	ff84 1aff 			; <UNDEFINED> instruction: 0xff841aff
    9bd0:	b008      	add	sp, #32
    9bd2:	e516      	b.n	0x9602
    9bd4:	b00b      	add	sp, #44	; 0x2c
    9bd6:	e047      	b.n	0x9c68
    9bd8:	1004      	asrs	r4, r0, #32
    9bda:	e59b      	b.n	0x9714
    9bdc:	1003      	asrs	r3, r0, #32
    9bde:	e3c1      	b.n	0xa364
    9be0:	0000      	movs	r0, r0
    9be2:	e081      	b.n	0x9ce8
    9be4:	9005      	str	r0, [sp, #20]
    9be6:	e080      	b.n	0x9cea
    9be8:	0009      	movs	r1, r1
    9bea:	e15c      	b.n	0x9ea6
    9bec:	ff79 caff 	vpmin.u<illegal width 64>	q14, <illegal reg q12.5>, <illegal reg q15.5>
    9bf0:	a00b      	add	r0, pc, #44	; (adr r0, 0x9c20)
    9bf2:	e1a0      	b.n	0x9f36
    9bf4:	100c      	asrs	r4, r1, #32
    9bf6:	e59b      	b.n	0x9730
    9bf8:	0008      	movs	r0, r1
    9bfa:	e5ba      	b.n	0x9772
    9bfc:	2004      	movs	r0, #4
    9bfe:	e245      	b.n	0xa08c
    9c00:	0024      	movs	r4, r4
    9c02:	e352      	b.n	0xa2aa
    9c04:	100c      	asrs	r4, r1, #32
    9c06:	e580      	b.n	0x970a
    9c08:	0008      	movs	r0, r1
    9c0a:	e581      	b.n	0x9710
    9c0c:	006f      	lsls	r7, r5, #1
    9c0e:	8a00      	ldrh	r0, [r0, #16]
    9c10:	0013      	movs	r3, r2
    9c12:	e352      	b.n	0xa2ba
    9c14:	1000      	asrs	r0, r0, #32
    9c16:	e596      	b.n	0x9746
    9c18:	200a      	movs	r0, #10
    9c1a:	91a0      	str	r1, [sp, #640]	; 0x280
    9c1c:	0015      	movs	r5, r2
    9c1e:	9a00      	ldr	r2, [sp, #0]
    9c20:	1008      	asrs	r0, r1, #32
    9c22:	e58b      	b.n	0x973c
    9c24:	1004      	asrs	r4, r0, #32
    9c26:	e596      	b.n	0x9756
    9c28:	100c      	asrs	r4, r1, #32
    9c2a:	e58b      	b.n	0x9744
    9c2c:	001b      	movs	r3, r3
    9c2e:	e352      	b.n	0xa2d6
    9c30:	1008      	asrs	r0, r1, #32
    9c32:	e596      	b.n	0x9762
    9c34:	2010      	movs	r0, #16
    9c36:	928b      	str	r2, [sp, #556]	; 0x22c
    9c38:	6008      	str	r0, [r1, #0]
    9c3a:	9286      	str	r2, [sp, #536]	; 0x218
    9c3c:	000d      	movs	r5, r1
    9c3e:	9a00      	ldr	r2, [sp, #0]
    9c40:	1010      	asrs	r0, r2, #32
    9c42:	e58b      	b.n	0x975c
    9c44:	100c      	asrs	r4, r1, #32
    9c46:	e596      	b.n	0x9776
    9c48:	1014      	asrs	r4, r2, #32
    9c4a:	e58b      	b.n	0x9764
    9c4c:	0024      	movs	r4, r4
    9c4e:	e352      	b.n	0xa2f6
    9c50:	2010      	movs	r0, #16
    9c52:	0596      	lsls	r6, r2, #22
    9c54:	2018      	movs	r0, #24
    9c56:	058b      	lsls	r3, r1, #22
    9c58:	2014      	movs	r0, #20
    9c5a:	0596      	lsls	r6, r2, #22
    9c5c:	201c      	movs	r0, #28
    9c5e:	058b      	lsls	r3, r1, #22
    9c60:	1010      	asrs	r0, r2, #32
    9c62:	1596      	asrs	r6, r2, #22
    9c64:	1018      	asrs	r0, r3, #32
    9c66:	0596      	lsls	r6, r2, #22
    9c68:	2018      	movs	r0, #24
    9c6a:	128b      	asrs	r3, r1, #10
    9c6c:	6010      	str	r0, [r2, #0]
    9c6e:	1286      	asrs	r6, r0, #10
    9c70:	2020      	movs	r0, #32
    9c72:	028b      	lsls	r3, r1, #10
    9c74:	6018      	str	r0, [r3, #0]
    9c76:	0286      	lsls	r6, r0, #10
    9c78:	1000      	asrs	r0, r0, #32
    9c7a:	e582      	b.n	0x9782
    9c7c:	1004      	asrs	r4, r0, #32
    9c7e:	e596      	b.n	0x97ae
    9c80:	1004      	asrs	r4, r0, #32
    9c82:	e582      	b.n	0x978a
    9c84:	1008      	asrs	r0, r1, #32
    9c86:	e596      	b.n	0x97b6
    9c88:	1008      	asrs	r0, r1, #32
    9c8a:	e582      	b.n	0x9792
    9c8c:	2004      	movs	r0, #4
    9c8e:	e049      	b.n	0x9d24
    9c90:	1004      	asrs	r4, r0, #32
    9c92:	e08b      	b.n	0x9dac
    9c94:	2001      	movs	r0, #1
    9c96:	e382      	b.n	0xa39e
    9c98:	1008      	asrs	r0, r1, #32
    9c9a:	e583      	b.n	0x97a4
    9c9c:	2004      	movs	r0, #4
    9c9e:	e581      	b.n	0x97a4
    9ca0:	3004      	adds	r0, #4
    9ca2:	e59b      	b.n	0x97dc
    9ca4:	3001      	adds	r0, #1
    9ca6:	e203      	b.n	0xa0b0
    9ca8:	4004      	ands	r4, r0
    9caa:	e183      	b.n	0x9fb4
    9cac:	0008      	movs	r0, r1
    9cae:	e1a0      	b.n	0x9ff2
    9cb0:	4004      	ands	r4, r0
    9cb2:	e58b      	b.n	0x97cc
    9cb4:	fa96 ebff 			; <UNDEFINED> instruction: 0xfa96ebff
    9cb8:	ff66 eaff 	vpmin.u32	q15, q11, <illegal reg q15.5>
    9cbc:	1008      	asrs	r0, r1, #32
    9cbe:	e289      	b.n	0xa1d4
    9cc0:	0006      	movs	r6, r0
    9cc2:	e891 9003 	ldmia.w	r1, {r0, r1, ip, pc}
    9cc6:	e087      	b.n	0x9dd8
    9cc8:	200c      	movs	r0, #12
    9cca:	e581      	b.n	0x97d0
    9ccc:	5003      	str	r3, [r0, r0]
    9cce:	e1a0      	b.n	0xa012
    9cd0:	1008      	asrs	r0, r1, #32
    9cd2:	e582      	b.n	0x97da
    9cd4:	ff8d eaff 			; <UNDEFINED> instruction: 0xff8deaff
    9cd8:	3004      	adds	r0, #4
    9cda:	e51a      	b.n	0x9712
    9cdc:	3003      	adds	r0, #3
    9cde:	e3c3      	b.n	0xa468
    9ce0:	5003      	str	r3, [r0, r0]
    9ce2:	e085      	b.n	0x9df0
    9ce4:	9005      	str	r0, [sp, #20]
    9ce6:	e087      	b.n	0x9df8
    9ce8:	ff88 eaff 			; <UNDEFINED> instruction: 0xff88eaff
    9cec:	1000      	asrs	r0, r0, #32
    9cee:	e58a      	b.n	0x9806
    9cf0:	3004      	adds	r0, #4
    9cf2:	e596      	b.n	0x9822
    9cf4:	001b      	movs	r3, r3
    9cf6:	e352      	b.n	0xa39e
    9cf8:	3004      	adds	r0, #4
    9cfa:	e58a      	b.n	0x9812
    9cfc:	0016      	movs	r6, r2
    9cfe:	8a00      	ldrh	r0, [r0, #16]
    9d00:	2008      	movs	r0, #8
    9d02:	e286      	b.n	0xa212
    9d04:	3008      	adds	r0, #8
    9d06:	e28a      	b.n	0xa21e
    9d08:	1008      	asrs	r0, r1, #32
    9d0a:	e596      	b.n	0x983a
    9d0c:	ff47 eaff 	vpmin.u8	q15, <illegal reg q11.5>, <illegal reg q15.5>
    9d10:	1006      	asrs	r6, r0, #32
    9d12:	e1a0      	b.n	0xa056
    9d14:	fea6 ebff 			; <UNDEFINED> instruction: 0xfea6ebff
    9d18:	ff49 eaff 	vpmin.u8	q15, <illegal reg q12.5>, <illegal reg q15.5>
    9d1c:	a00b      	add	r0, pc, #44	; (adr r0, 0x9d4c)
    9d1e:	e1a0      	b.n	0xa062
    9d20:	1008      	asrs	r0, r1, #32
    9d22:	e289      	b.n	0xa238
    9d24:	0006      	movs	r6, r0
    9d26:	e891 200c 	ldmia.w	r1, {r2, r3, sp}
    9d2a:	e581      	b.n	0x9830
    9d2c:	1008      	asrs	r0, r1, #32
    9d2e:	e582      	b.n	0x9836
    9d30:	2004      	movs	r0, #4
    9d32:	e245      	b.n	0xa1c0
    9d34:	100c      	asrs	r4, r1, #32
    9d36:	e59b      	b.n	0x9870
    9d38:	0008      	movs	r0, r1
    9d3a:	e5ba      	b.n	0x98b2
    9d3c:	ff4c eaff 	vpmin.u8	q15, q14, <illegal reg q15.5>
    9d40:	1006      	asrs	r6, r0, #32
    9d42:	e1a0      	b.n	0xa086
    9d44:	000a      	movs	r2, r1
    9d46:	e1a0      	b.n	0xa08a
    9d48:	5003      	str	r3, [r0, r0]
    9d4a:	e1a0      	b.n	0xa08e
    9d4c:	700b      	strb	r3, [r1, #0]
    9d4e:	e1a0      	b.n	0xa092
    9d50:	fe97 ebff 			; <UNDEFINED> instruction: 0xfe97ebff
    9d54:	600a      	str	r2, [r1, #0]
    9d56:	e1a0      	b.n	0xa09a
    9d58:	ff6c eaff 	vpmin.u32	q15, q14, <illegal reg q15.5>
    9d5c:	3008      	adds	r0, #8
    9d5e:	e596      	b.n	0x988e
    9d60:	3008      	adds	r0, #8
    9d62:	e58a      	b.n	0x987a
    9d64:	300c      	adds	r0, #12
    9d66:	e596      	b.n	0x9896
    9d68:	300c      	adds	r0, #12
    9d6a:	e58a      	b.n	0x9882
    9d6c:	0024      	movs	r4, r4
    9d6e:	e352      	b.n	0xa416
    9d70:	3010      	adds	r0, #16
    9d72:	0596      	lsls	r6, r2, #22
    9d74:	3010      	adds	r0, #16
    9d76:	058a      	lsls	r2, r1, #22
    9d78:	3014      	adds	r0, #20
    9d7a:	0596      	lsls	r6, r2, #22
    9d7c:	3014      	adds	r0, #20
    9d7e:	058a      	lsls	r2, r1, #22
    9d80:	2010      	movs	r0, #16
    9d82:	1286      	asrs	r6, r0, #10
    9d84:	3010      	adds	r0, #16
    9d86:	128a      	asrs	r2, r1, #10
    9d88:	1010      	asrs	r0, r2, #32
    9d8a:	1596      	asrs	r6, r2, #22
    9d8c:	2018      	movs	r0, #24
    9d8e:	0286      	lsls	r6, r0, #10
    9d90:	1018      	asrs	r0, r3, #32
    9d92:	0596      	lsls	r6, r2, #22
    9d94:	3018      	adds	r0, #24
    9d96:	028a      	lsls	r2, r1, #10
    9d98:	ff24 eaff 	vpmin.u32	q7, q10, <illegal reg q15.5>
    9d9c:	2004      	movs	r0, #4
    9d9e:	e04e      	b.n	0x9e3e
    9da0:	7004      	strb	r4, [r0, #0]
    9da2:	e087      	b.n	0x9eb4
    9da4:	2001      	movs	r0, #1
    9da6:	e382      	b.n	0xa4ae
    9da8:	7008      	strb	r0, [r1, #0]
    9daa:	e583      	b.n	0x98b4
    9dac:	2004      	movs	r0, #4
    9dae:	e587      	b.n	0x98c0
    9db0:	3004      	adds	r0, #4
    9db2:	e516      	b.n	0x97e2
    9db4:	3001      	adds	r0, #1
    9db6:	e203      	b.n	0xa1c0
    9db8:	4004      	ands	r4, r0
    9dba:	e183      	b.n	0xa0c4
    9dbc:	0008      	movs	r0, r1
    9dbe:	e1a0      	b.n	0xa102
    9dc0:	4004      	ands	r4, r0
    9dc2:	e506      	b.n	0x97d2
    9dc4:	fa52 ebff 			; <UNDEFINED> instruction: 0xfa52ebff
    9dc8:	a006      	add	r0, pc, #24	; (adr r0, 0x9de4)
    9dca:	e1a0      	b.n	0xa10e
    9dcc:	ff21 eaff 	vpmin.u32	q7, <illegal reg q8.5>, <illegal reg q15.5>
    9dd0:	1006      	asrs	r6, r0, #32
    9dd2:	e1a0      	b.n	0xa116
    9dd4:	000a      	movs	r2, r1
    9dd6:	e1a0      	b.n	0xa11a
    9dd8:	fe75 ebff 			; <UNDEFINED> instruction: 0xfe75ebff
    9ddc:	3000      	adds	r0, #0
    9dde:	e59f      	b.n	0x9920
    9de0:	ffa9 eaff 			; <UNDEFINED> instruction: 0xffa9eaff
    9de4:	0358      	lsls	r0, r3, #13
    9de6:	0300      	lsls	r0, r0, #12
    9de8:	c05c      	stmia	r0!, {r2, r3, r4, r6}
    9dea:	e59f      	b.n	0x992c
    9dec:	3000      	adds	r0, #0
    9dee:	e59c      	b.n	0x992a
    9df0:	0000      	movs	r0, r0
    9df2:	e353      	b.n	0xa49c
    9df4:	e004      	b.n	0x9e00
    9df6:	e52d      	b.n	0x9854
    9df8:	000d      	movs	r5, r1
    9dfa:	0a00      	lsrs	r0, r0, #8
    9dfc:	e00d      	b.n	0x9e1a
    9dfe:	e1a0      	b.n	0xa142
    9e00:	2048      	movs	r0, #72	; 0x48
    9e02:	e59f      	b.n	0x9944
    9e04:	2000      	movs	r0, #0
    9e06:	e592      	b.n	0x992e
    9e08:	0000      	movs	r0, r0
    9e0a:	e352      	b.n	0xa4b2
    9e0c:	200e      	movs	r0, #14
    9e0e:	01a0      	lsls	r0, r4, #6
    9e10:	1001      	asrs	r1, r0, #32
    9e12:	e083      	b.n	0x9f1c
    9e14:	0002      	movs	r2, r0
    9e16:	e151      	b.n	0xa0bc
    9e18:	200c      	movs	r0, #12
    9e1a:	83a0      	strh	r0, [r4, #28]
    9e1c:	3000      	adds	r0, #0
    9e1e:	83e0      	strh	r0, [r4, #30]
    9e20:	2000      	movs	r0, #0
    9e22:	8580      	strh	r0, [r0, #44]	; 0x2c
    9e24:	1000      	asrs	r0, r0, #32
    9e26:	958c      	str	r5, [sp, #560]	; 0x230
    9e28:	0003      	movs	r3, r0
    9e2a:	e1a0      	b.n	0xa16e
    9e2c:	e004      	b.n	0x9e38
    9e2e:	e49d      	b.n	0x976c
    9e30:	ff1e e12f 	vrhadd.u16	d14, d14, d31
    9e34:	3018      	adds	r0, #24
    9e36:	e59f      	b.n	0x9978
    9e38:	3000      	adds	r0, #0
    9e3a:	e593      	b.n	0x9964
    9e3c:	0000      	movs	r0, r0
    9e3e:	e353      	b.n	0xa4e8
    9e40:	3010      	adds	r0, #16
    9e42:	059f      	lsls	r7, r3, #22
    9e44:	3000      	adds	r0, #0
    9e46:	e58c      	b.n	0x9962
    9e48:	ffeb eaff 			; <UNDEFINED> instruction: 0xffebeaff
    9e4c:	0118      	lsls	r0, r3, #4
    9e4e:	0300      	lsls	r0, r0, #12
    9e50:	011c      	lsls	r4, r3, #4
    9e52:	0300      	lsls	r0, r0, #12
    9e54:	0120      	lsls	r0, r4, #4
    9e56:	0300      	lsls	r0, r0, #12
    9e58:	0000      	movs	r0, r0
    9e5a:	0200      	lsls	r0, r0, #8
    9e5c:	300c      	adds	r0, #12
    9e5e:	e59f      	b.n	0x99a0
    9e60:	3024      	adds	r0, #36	; 0x24
    9e62:	e593      	b.n	0x998c
    9e64:	0000      	movs	r0, r0
    9e66:	e353      	b.n	0xa510
    9e68:	ff1e 012f 	vrhadd.u16	d0, d14, d31
    9e6c:	ff13 e12f 	vrhadd.u16	d14, d3, d31
    9e70:	0124      	lsls	r4, r4, #4
    9e72:	0300      	lsls	r0, r0, #12
    9e74:	300c      	adds	r0, #12
    9e76:	e59f      	b.n	0x99b8
    9e78:	302c      	adds	r0, #44	; 0x2c
    9e7a:	e593      	b.n	0x99a4
    9e7c:	0000      	movs	r0, r0
    9e7e:	e353      	b.n	0xa528
    9e80:	ff1e 012f 	vrhadd.u16	d0, d14, d31
    9e84:	ff13 e12f 	vrhadd.u16	d14, d3, d31
    9e88:	0124      	lsls	r4, r4, #4
    9e8a:	0300      	lsls	r0, r0, #12
    9e8c:	3014      	adds	r0, #20
    9e8e:	e59f      	b.n	0x99d0
    9e90:	3034      	adds	r0, #52	; 0x34
    9e92:	e593      	b.n	0x99bc
    9e94:	0000      	movs	r0, r0
    9e96:	e353      	b.n	0xa540
    9e98:	ff13 112f 	vrhadd.u16	d1, d3, d31
    9e9c:	3008      	adds	r0, #8
    9e9e:	e59f      	b.n	0x99e0
    9ea0:	0000      	movs	r0, r0
    9ea2:	e593      	b.n	0x99cc
    9ea4:	ff1e e12f 	vrhadd.u16	d14, d14, d31
    9ea8:	0124      	lsls	r4, r4, #4
    9eaa:	0300      	lsls	r0, r0, #12
    9eac:	0774      	lsls	r4, r6, #29
    9eae:	0300      	lsls	r0, r0, #12
    9eb0:	0003      	movs	r3, r0
    9eb2:	e151      	b.n	0xa158
    9eb4:	0002      	movs	r2, r0
    9eb6:	0150      	lsls	r0, r2, #5
    9eb8:	4ff8      	ldr	r7, [pc, #992]	; (0xa29c)
    9eba:	e92d 4000 	stmdb	sp!, {lr}
    9ebe:	e1a0      	b.n	0xa202
    9ec0:	0000      	movs	r0, r0
    9ec2:	33a0      	adds	r3, #160	; 0xa0
    9ec4:	5001      	str	r1, [r0, r0]
    9ec6:	e1a0      	b.n	0xa20a
    9ec8:	8028      	strh	r0, [r5, #0]
    9eca:	e59d      	b.n	0x9a08
    9ecc:	1000      	asrs	r0, r0, #32
    9ece:	31a0      	adds	r1, #160	; 0xa0
    9ed0:	003e      	movs	r6, r7
    9ed2:	3a00      	subs	r2, #0
    9ed4:	1003      	asrs	r3, r0, #32
    9ed6:	e1a0      	b.n	0xa21a
    9ed8:	0002      	movs	r2, r0
    9eda:	e1a0      	b.n	0xa21e
    9edc:	6002      	str	r2, [r0, #0]
    9ede:	e1a0      	b.n	0xa222
    9ee0:	7003      	strb	r3, [r0, #0]
    9ee2:	e1a0      	b.n	0xa226
    9ee4:	def5      	udf	#245	; 0xf5
    9ee6:	ebff 1005 			; <UNDEFINED> instruction: 0xebff1005
    9eea:	e1a0      	b.n	0xa22e
    9eec:	9000      	str	r0, [sp, #0]
    9eee:	e1a0      	b.n	0xa232
    9ef0:	0004      	movs	r4, r0
    9ef2:	e1a0      	b.n	0xa236
    9ef4:	def1      	udf	#241	; 0xf1
    9ef6:	ebff c000 			; <UNDEFINED> instruction: 0xebffc000
    9efa:	e049      	b.n	0x9f90
    9efc:	e020      	b.n	0x9f40
    9efe:	e24c      	b.n	0xa39a
    9f00:	bc17      	pop	{r0, r1, r2, r4}
    9f02:	e1a0      	b.n	0xa246
    9f04:	be16      	bkpt	0x0016
    9f06:	e18b      	b.n	0xa220
    9f08:	9020      	str	r0, [sp, #128]	; 0x80
    9f0a:	e26c      	b.n	0xa3e6
    9f0c:	b936      	cbnz	r6, 0x9f1c
    9f0e:	e18b      	b.n	0xa228
    9f10:	000b      	movs	r3, r1
    9f12:	e155      	b.n	0xa1c0
    9f14:	ac16      	add	r4, sp, #88	; 0x58
    9f16:	e1a0      	b.n	0xa25a
    9f18:	000a      	movs	r2, r1
    9f1a:	0154      	lsls	r4, r2, #5
    9f1c:	0000      	movs	r0, r0
    9f1e:	33a0      	adds	r3, #160	; 0xa0
    9f20:	1000      	asrs	r0, r0, #32
    9f22:	31a0      	adds	r1, #160	; 0xa0
    9f24:	0005      	movs	r5, r0
    9f26:	3a00      	subs	r2, #0
    9f28:	0001      	movs	r1, r0
    9f2a:	e3a0      	b.n	0xa66e
    9f2c:	400a      	ands	r2, r1
    9f2e:	e054      	b.n	0x9fda
    9f30:	1e10      	subs	r0, r2, #0
    9f32:	e1a0      	b.n	0xa276
    9f34:	1930      	adds	r0, r6, r4
    9f36:	e181      	b.n	0xa23c
    9f38:	500b      	str	r3, [r1, r0]
    9f3a:	e0c5      	b.n	0xa0c8
    9f3c:	0c10      	lsrs	r0, r2, #16
    9f3e:	e1a0      	b.n	0xa282
    9f40:	0000      	movs	r0, r0
    9f42:	e35c      	b.n	0xa5fe
    9f44:	0021      	movs	r1, r4
    9f46:	0a00      	lsrs	r0, r0, #8
    9f48:	60aa      	str	r2, [r5, #8]
    9f4a:	e1a0      	b.n	0xa28e
    9f4c:	200c      	movs	r0, #12
    9f4e:	e1a0      	b.n	0xa292
    9f50:	6f8b      	ldr	r3, [r1, #120]	; 0x78
    9f52:	e186      	b.n	0xa262
    9f54:	70ab      	strb	r3, [r5, #2]
    9f56:	e1a0      	b.n	0xa29a
    9f58:	0007      	movs	r7, r0
    9f5a:	ea00 3006 	and.w	r0, r0, r6, lsl #12
    9f5e:	e054      	b.n	0xa00a
    9f60:	a007      	add	r0, pc, #28	; (adr r0, 0x9f80)
    9f62:	e0c5      	b.n	0xa0f0
    9f64:	3003      	adds	r0, #3
    9f66:	e093      	b.n	0xa090
    9f68:	a00a      	add	r0, pc, #40	; (adr r0, 0x9f94)
    9f6a:	e0aa      	b.n	0xa0c2
    9f6c:	4001      	ands	r1, r0
    9f6e:	e293      	b.n	0xa498
    9f70:	5000      	str	r0, [r0, r0]
    9f72:	e2aa      	b.n	0xa4ca
    9f74:	2001      	movs	r0, #1
    9f76:	e252      	b.n	0xa41e
    9f78:	0006      	movs	r6, r0
    9f7a:	0a00      	lsrs	r0, r0, #8
    9f7c:	0007      	movs	r7, r0
    9f7e:	e155      	b.n	0xa22c
    9f80:	0006      	movs	r6, r0
    9f82:	0154      	lsls	r4, r2, #5
    9f84:	fff4 2aff 			; <UNDEFINED> instruction: 0xfff42aff
    9f88:	4004      	ands	r4, r0
    9f8a:	e094      	b.n	0xa0b6
    9f8c:	5005      	str	r5, [r0, r0]
    9f8e:	e0a5      	b.n	0xa0dc
    9f90:	2001      	movs	r0, #1
    9f92:	e252      	b.n	0xa43a
    9f94:	fff8 1aff 			; <UNDEFINED> instruction: 0xfff81aff
    9f98:	3c34      	subs	r4, #52	; 0x34
    9f9a:	e1a0      	b.n	0xa2de
    9f9c:	3915      	subs	r1, #21
    9f9e:	e183      	b.n	0xa2a8
    9fa0:	3e35      	subs	r6, #53	; 0x35
    9fa2:	e183      	b.n	0xa2ac
    9fa4:	0004      	movs	r4, r0
    9fa6:	e090      	b.n	0xa0ca
    9fa8:	4003      	ands	r3, r0
    9faa:	e1a0      	b.n	0xa2ee
    9fac:	2c35      	cmp	r4, #53	; 0x35
    9fae:	e1a0      	b.n	0xa2f2
    9fb0:	1005      	asrs	r5, r0, #32
    9fb2:	e0a1      	b.n	0xa0f8
    9fb4:	5002      	str	r2, [r0, r0]
    9fb6:	e1a0      	b.n	0xa2fa
    9fb8:	3c12      	subs	r4, #18
    9fba:	e1a0      	b.n	0xa2fe
    9fbc:	3e14      	subs	r6, #20
    9fbe:	e183      	b.n	0xa2c8
    9fc0:	cc14      	ldmia	r4, {r2, r4}
    9fc2:	e1a0      	b.n	0xa306
    9fc4:	000c      	movs	r4, r1
    9fc6:	e050      	b.n	0xa06a
    9fc8:	3934      	subs	r1, #52	; 0x34
    9fca:	e183      	b.n	0xa2d4
    9fcc:	1003      	asrs	r3, r0, #32
    9fce:	e0c1      	b.n	0xa154
    9fd0:	0000      	movs	r0, r0
    9fd2:	e358      	b.n	0xa686
    9fd4:	0030      	movs	r0, r6
    9fd6:	1888      	adds	r0, r1, r2
    9fd8:	4ff8      	ldr	r7, [pc, #992]	; (0xa3bc)
    9fda:	e8bd ff1e 	ldmia.w	sp!, {r1, r2, r3, r4, r8, r9, sl, fp, ip, sp, lr, pc}
    9fde:	e12f      	b.n	0xa240
    9fe0:	c00d      	stmia	r0!, {r0, r2, r3}
    9fe2:	e1a0      	b.n	0xa326
    9fe4:	dff8      	svc	248	; 0xf8
    9fe6:	e92d b004 	stmdb	sp!, {r2, ip, sp, pc}
    9fea:	e24c      	b.n	0xa486
    9fec:	d028      	beq.n	0xa040
    9fee:	e24b      	b.n	0xa488
    9ff0:	6ff0      	ldr	r0, [r6, #124]	; 0x7c
    9ff2:	e89d ff1e 	ldmia.w	sp, {r1, r2, r3, r4, r8, r9, sl, fp, ip, sp, lr, pc}
    9ff6:	e12f      	b.n	0xa258
    9ff8:	6548      	str	r0, [r1, #84]	; 0x54
    9ffa:	6c6c      	ldr	r4, [r5, #68]	; 0x44
    9ffc:	206f      	movs	r0, #111	; 0x6f
    9ffe:	6f77      	ldr	r7, [r6, #116]	; 0x74
    a000:	6c72      	ldr	r2, [r6, #68]	; 0x44
    a002:	2164      	movs	r1, #100	; 0x64
    a004:	000a      	movs	r2, r1
    a006:	0000      	movs	r0, r0
    a008:	6425      	str	r5, [r4, #64]	; 0x40
    a00a:	2b20      	cmp	r3, #32
    a00c:	2520      	movs	r5, #32
    a00e:	2064      	movs	r0, #100	; 0x64
    a010:	203d      	movs	r0, #61	; 0x3d
    a012:	6425      	str	r5, [r4, #64]	; 0x40
    a014:	000a      	movs	r2, r1
    a016:	0000      	movs	r0, r0
    a018:	2031      	movs	r0, #49	; 0x31
    a01a:	202b      	movs	r0, #43	; 0x2b
    a01c:	2031      	movs	r0, #49	; 0x31
    a01e:	203d      	movs	r0, #61	; 0x3d
    a020:	0a32      	lsrs	r2, r6, #8
    a022:	0000      	movs	r0, r0
    a024:	2032      	movs	r0, #50	; 0x32
    a026:	202b      	movs	r0, #43	; 0x2b
    a028:	3031      	adds	r0, #49	; 0x31
    a02a:	3d20      	subs	r5, #32
    a02c:	3120      	adds	r1, #32
    a02e:	0a32      	lsrs	r2, r6, #8
    a030:	4900      	ldr	r1, [pc, #0]	; (0xa034)
    a032:	464e      	mov	r6, r9
    a034:	6900      	ldr	r0, [r0, #16]
    a036:	666e      	str	r6, [r5, #100]	; 0x64
    a038:	4e00      	ldr	r6, [pc, #0]	; (0xa03c)
    a03a:	4e41      	ldr	r6, [pc, #260]	; (0xa140)
    a03c:	6e00      	ldr	r0, [r0, #96]	; 0x60
    a03e:	6e61      	ldr	r1, [r4, #100]	; 0x64
    a040:	3000      	adds	r0, #0
    a042:	3231      	adds	r2, #49	; 0x31
    a044:	3433      	adds	r4, #51	; 0x33
    a046:	3635      	adds	r6, #53	; 0x35
    a048:	3837      	subs	r0, #55	; 0x37
    a04a:	6139      	str	r1, [r7, #16]
    a04c:	6362      	str	r2, [r4, #52]	; 0x34
    a04e:	6564      	str	r4, [r4, #84]	; 0x54
    a050:	0066      	lsls	r6, r4, #1
    a052:	3130      	adds	r1, #48	; 0x30
    a054:	3332      	adds	r3, #50	; 0x32
    a056:	3534      	adds	r5, #52	; 0x34
    a058:	3736      	adds	r7, #54	; 0x36
    a05a:	3938      	subs	r1, #56	; 0x38
    a05c:	4241      	negs	r1, r0
    a05e:	4443      	add	r3, r8
    a060:	4645      	mov	r5, r8
    a062:	2800      	cmp	r0, #0
    a064:	756e      	strb	r6, [r5, #21]
    a066:	6c6c      	ldr	r4, [r5, #68]	; 0x44
    a068:	0029      	movs	r1, r5
    a06a:	0030      	movs	r0, r6
    a06c:	2020      	movs	r0, #32
    a06e:	2020      	movs	r0, #32
    a070:	2020      	movs	r0, #32
    a072:	2020      	movs	r0, #32
    a074:	2020      	movs	r0, #32
    a076:	2020      	movs	r0, #32
    a078:	2020      	movs	r0, #32
    a07a:	2020      	movs	r0, #32
    a07c:	3030      	adds	r0, #48	; 0x30
    a07e:	3030      	adds	r0, #48	; 0x30
    a080:	3030      	adds	r0, #48	; 0x30
    a082:	3030      	adds	r0, #48	; 0x30
    a084:	3030      	adds	r0, #48	; 0x30
    a086:	3030      	adds	r0, #48	; 0x30
    a088:	3030      	adds	r0, #48	; 0x30
    a08a:	3030      	adds	r0, #48	; 0x30
    a08c:	614e      	str	r6, [r1, #20]
    a08e:	004e      	lsls	r6, r1, #1
    a090:	6e49      	ldr	r1, [r1, #100]	; 0x64
    a092:	6966      	ldr	r6, [r4, #20]
    a094:	696e      	ldr	r6, [r5, #20]
    a096:	7974      	ldrb	r4, [r6, #5]
    a098:	0000      	movs	r0, r0
    a09a:	0000      	movs	r0, r0
    a09c:	0030      	movs	r0, r6
    a09e:	ffff 002e 	vaddl.u<illegal width 64>	q8, d15, d30
    a0a2:	0000      	movs	r0, r0
    a0a4:	434c      	muls	r4, r1
    a0a6:	435f      	muls	r7, r3
    a0a8:	4c4f      	ldr	r4, [pc, #316]	; (0xa1e8)
    a0aa:	414c      	adcs	r4, r1
    a0ac:	4554      	cmp	r4, sl
    a0ae:	0000      	movs	r0, r0
    a0b0:	434c      	muls	r4, r1
    a0b2:	435f      	muls	r7, r3
    a0b4:	5954      	ldr	r4, [r2, r5]
    a0b6:	4550      	cmp	r0, sl
    a0b8:	0000      	movs	r0, r0
    a0ba:	0000      	movs	r0, r0
    a0bc:	434c      	muls	r4, r1
    a0be:	4d5f      	ldr	r5, [pc, #380]	; (0xa23c)
    a0c0:	4e4f      	ldr	r6, [pc, #316]	; (0xa200)
    a0c2:	5445      	strb	r5, [r0, r1]
    a0c4:	5241      	strh	r1, [r0, r1]
    a0c6:	0059      	lsls	r1, r3, #1
    a0c8:	434c      	muls	r4, r1
    a0ca:	4e5f      	ldr	r6, [pc, #380]	; (0xa248)
    a0cc:	4d55      	ldr	r5, [pc, #340]	; (0xa224)
    a0ce:	5245      	strh	r5, [r0, r1]
    a0d0:	4349      	muls	r1, r1
    a0d2:	0000      	movs	r0, r0
    a0d4:	434c      	muls	r4, r1
    a0d6:	545f      	strb	r7, [r3, r1]
    a0d8:	4d49      	ldr	r5, [pc, #292]	; (0xa200)
    a0da:	0045      	lsls	r5, r0, #1
    a0dc:	434c      	muls	r4, r1
    a0de:	4d5f      	ldr	r5, [pc, #380]	; (0xa25c)
    a0e0:	5345      	strh	r5, [r0, r5]
    a0e2:	4153      	adcs	r3, r2
    a0e4:	4547      	cmp	r7, r8
    a0e6:	0053      	lsls	r3, r2, #1
    a0e8:	8000      	strh	r0, [r0, #0]
    a0ea:	37e0      	adds	r7, #224	; 0xe0
    a0ec:	c379      	stmia	r3!, {r0, r3, r4, r5, r6}
    a0ee:	4341      	muls	r1, r0
    a0f0:	6e17      	ldr	r7, [r2, #96]	; 0x60
    a0f2:	b505      	push	{r0, r2, lr}
    a0f4:	b8b5      			; <UNDEFINED> instruction: 0xb8b5
    a0f6:	4693      	mov	fp, r2
    a0f8:	f9f5 e93f 	ldr??.w	lr, [r5, #2367]	; 0x93f
    a0fc:	4f03      	ldr	r7, [pc, #12]	; (0xa10c)
    a0fe:	4d38      	ldr	r5, [pc, #224]	; (0xa1e0)
    a100:	1d32      	adds	r2, r6, #4
    a102:	f930 7748 	ldrsh.w	r7, [r0, <undefined>]
    a106:	5a82      	ldrh	r2, [r0, r2]
    a108:	bf3c      	itt	cc
    a10a:	7f73      	ldrbcc	r3, [r6, #29]
    a10c:	4fdd      	ldrcc	r7, [pc, #884]	; (0xa484)
    a10e:	7515      	strb	r5, [r2, #20]
    a110:	0000      	movs	r0, r0
    a112:	0000      	movs	r0, r0
    a114:	0000      	movs	r0, r0
    a116:	3ff0      	subs	r7, #240	; 0xf0
    a118:	0000      	movs	r0, r0
    a11a:	0000      	movs	r0, r0
    a11c:	0000      	movs	r0, r0
    a11e:	4024      	ands	r4, r4
    a120:	0000      	movs	r0, r0
    a122:	0000      	movs	r0, r0
    a124:	0000      	movs	r0, r0
    a126:	4059      	eors	r1, r3
    a128:	0000      	movs	r0, r0
    a12a:	0000      	movs	r0, r0
    a12c:	4000      	ands	r0, r0
    a12e:	408f      	lsls	r7, r1
    a130:	0000      	movs	r0, r0
    a132:	0000      	movs	r0, r0
    a134:	8800      	ldrh	r0, [r0, #0]
    a136:	40c3      	lsrs	r3, r0
    a138:	0000      	movs	r0, r0
    a13a:	0000      	movs	r0, r0
    a13c:	6a00      	ldr	r0, [r0, #32]
    a13e:	40f8      	lsrs	r0, r7
    a140:	0000      	movs	r0, r0
    a142:	0000      	movs	r0, r0
    a144:	8480      	strh	r0, [r0, #36]	; 0x24
    a146:	412e      	asrs	r6, r5
    a148:	0000      	movs	r0, r0
    a14a:	0000      	movs	r0, r0
    a14c:	12d0      	asrs	r0, r2, #11
    a14e:	4163      	adcs	r3, r4
    a150:	0000      	movs	r0, r0
    a152:	0000      	movs	r0, r0
    a154:	d784      	bvc.n	0xa060
    a156:	4197      	sbcs	r7, r2
    a158:	0000      	movs	r0, r0
    a15a:	0000      	movs	r0, r0
    a15c:	cd65      	ldmia	r5, {r0, r2, r5, r6}
    a15e:	41cd      	rors	r5, r1
    a160:	0000      	movs	r0, r0
    a162:	2000      	movs	r0, #0
    a164:	a05f      	add	r0, pc, #380	; (adr r0, 0xa2e4)
    a166:	4202      	tst	r2, r0
    a168:	0000      	movs	r0, r0
    a16a:	e800 4876 			; <UNDEFINED> instruction: 0xe8004876
    a16e:	4237      	tst	r7, r6
    a170:	0000      	movs	r0, r0
    a172:	a200      	add	r2, pc, #0	; (adr r2, 0xa174)
    a174:	1a94      	subs	r4, r2, r2
    a176:	426d      	negs	r5, r5
    a178:	0000      	movs	r0, r0
    a17a:	e540      	b.n	0x9bfe
    a17c:	309c      	adds	r0, #156	; 0x9c
    a17e:	42a2      	cmp	r2, r4
    a180:	0000      	movs	r0, r0
    a182:	1e90      	subs	r0, r2, #2
    a184:	bcc4      	pop	{r2, r6, r7}
    a186:	42d6      	cmn	r6, r2
    a188:	0000      	movs	r0, r0
    a18a:	2634      	movs	r6, #52	; 0x34
    a18c:	6bf5      	ldr	r5, [r6, #60]	; 0x3c
    a18e:	430c      	orrs	r4, r1
    a190:	8000      	strh	r0, [r0, #0]
    a192:	37e0      	adds	r7, #224	; 0xe0
    a194:	c379      	stmia	r3!, {r0, r3, r4, r5, r6}
    a196:	4341      	muls	r1, r0
    a198:	a000      	add	r0, pc, #0	; (adr r0, 0xa19c)
    a19a:	85d8      	strh	r0, [r3, #46]	; 0x2e
    a19c:	3457      	adds	r4, #87	; 0x57
    a19e:	4376      	muls	r6, r6
    a1a0:	c800      	ldmia	r0!, {}
    a1a2:	674e      	str	r6, [r1, #116]	; 0x74
    a1a4:	c16d      	stmia	r1!, {r0, r2, r3, r5, r6}
    a1a6:	43ab      	bics	r3, r5
    a1a8:	3d00      	subs	r5, #0
    a1aa:	6091      	str	r1, [r2, #8]
    a1ac:	58e4      	ldr	r4, [r4, r3]
    a1ae:	43e1      	mvns	r1, r4
    a1b0:	8c40      	ldrh	r0, [r0, #34]	; 0x22
    a1b2:	78b5      	ldrb	r5, [r6, #2]
    a1b4:	af1d      	add	r7, sp, #116	; 0x74
    a1b6:	4415      	add	r5, r2
    a1b8:	ef50 d6e2 	vmax.s16	<illegal reg q14.5>, q8, q9
    a1bc:	1ae4      	subs	r4, r4, r3
    a1be:	444b      	add	r3, r9
    a1c0:	d592      	bpl.n	0xa0e8
    a1c2:	064d      	lsls	r5, r1, #25
    a1c4:	f0cf 4480 			; <UNDEFINED> instruction: 0xf0cf4480
    a1c8:	4af6      	ldr	r2, [pc, #984]	; (0xa5a4)
    a1ca:	c7e1      	stmia	r7!, {r0, r5, r6, r7}
    a1cc:	2d02      	cmp	r5, #2
    a1ce:	44b5      	add	sp, r6
    a1d0:	9db4      	ldr	r5, [sp, #720]	; 0x2d0
    a1d2:	79d9      	ldrb	r1, [r3, #7]
    a1d4:	7843      	ldrb	r3, [r0, #1]
    a1d6:	44ea      	add	sl, sp
    a1d8:	0005      	movs	r5, r0
    a1da:	0000      	movs	r0, r0
    a1dc:	0019      	movs	r1, r3
    a1de:	0000      	movs	r0, r0
    a1e0:	007d      	lsls	r5, r7, #1
    a1e2:	0000      	movs	r0, r0
    a1e4:	0100      	lsls	r0, r0, #4
    a1e6:	0300      	lsls	r0, r0, #12
    a1e8:	0004      	movs	r4, r0
    a1ea:	0000      	movs	r0, r0
    a1ec:	0000      	movs	r0, r0
    a1ee:	0001      	movs	r1, r0
    a1f0:	0403      	lsls	r3, r0, #16
    a1f2:	0000      	movs	r0, r0
    a1f4:	0000      	movs	r0, r0
    a1f6:	0000      	movs	r0, r0
    a1f8:	0307      	lsls	r7, r0, #12
    a1fa:	0004      	movs	r4, r0
    a1fc:	0000      	movs	r0, r0
    a1fe:	0000      	movs	r0, r0
    a200:	0000      	movs	r0, r0
    a202:	0403      	lsls	r3, r0, #16
	...
    a20c:	0004      	movs	r4, r0
    a20e:	0000      	movs	r0, r0
    a210:	0000      	movs	r0, r0
    a212:	0002      	movs	r2, r0
    a214:	0403      	lsls	r3, r0, #16
    a216:	0000      	movs	r0, r0
    a218:	0000      	movs	r0, r0
    a21a:	0100      	lsls	r0, r0, #4
    a21c:	0500      	lsls	r0, r0, #20
    a21e:	0506      	lsls	r6, r0, #20
    a220:	0000      	movs	r0, r0
    a222:	0000      	movs	r0, r0
    a224:	0001      	movs	r1, r0
    a226:	0605      	lsls	r5, r0, #24
    a228:	0000      	movs	r0, r0
    a22a:	0000      	movs	r0, r0
    a22c:	0000      	movs	r0, r0
    a22e:	0300      	lsls	r0, r0, #12
    a230:	0004      	movs	r4, r0
    a232:	0000      	movs	r0, r0
    a234:	0000      	movs	r0, r0
    a236:	0800      	lsrs	r0, r0, #32
	...
    a240:	0008      	movs	r0, r1
	...
    a24e:	0000      	movs	r0, r0
    a250:	0808      	lsrs	r0, r1, #32
    a252:	0808      	lsrs	r0, r1, #32
    a254:	0808      	lsrs	r0, r1, #32
    a256:	0808      	lsrs	r0, r1, #32
    a258:	0808      	lsrs	r0, r1, #32
    a25a:	0808      	lsrs	r0, r1, #32
    a25c:	0808      	lsrs	r0, r1, #32
    a25e:	0808      	lsrs	r0, r1, #32
    a260:	0808      	lsrs	r0, r1, #32
    a262:	0808      	lsrs	r0, r1, #32
    a264:	0808      	lsrs	r0, r1, #32
    a266:	0808      	lsrs	r0, r1, #32
    a268:	0808      	lsrs	r0, r1, #32
    a26a:	0808      	lsrs	r0, r1, #32
    a26c:	0808      	lsrs	r0, r1, #32
    a26e:	0808      	lsrs	r0, r1, #32
    a270:	0807      	lsrs	r7, r0, #32
    a272:	0708      	lsls	r0, r1, #28
    a274:	0802      	lsrs	r2, r0, #32
    a276:	0708      	lsls	r0, r1, #28
    a278:	0808      	lsrs	r0, r1, #32
    a27a:	0706      	lsls	r6, r0, #28
    a27c:	0708      	lsls	r0, r1, #28
    a27e:	0805      	lsrs	r5, r0, #32
    a280:	0100      	lsls	r0, r0, #4
    a282:	0101      	lsls	r1, r0, #4
    a284:	0101      	lsls	r1, r0, #4
    a286:	0101      	lsls	r1, r0, #4
    a288:	0101      	lsls	r1, r0, #4
    a28a:	0808      	lsrs	r0, r1, #32
    a28c:	0808      	lsrs	r0, r1, #32
    a28e:	0808      	lsrs	r0, r1, #32
    a290:	0408      	lsls	r0, r1, #16
    a292:	0408      	lsls	r0, r1, #16
    a294:	0404      	lsls	r4, r0, #16
    a296:	0404      	lsls	r4, r0, #16
    a298:	0808      	lsrs	r0, r1, #32
    a29a:	0808      	lsrs	r0, r1, #32
    a29c:	0803      	lsrs	r3, r0, #32
    a29e:	0408      	lsls	r0, r1, #16
    a2a0:	0808      	lsrs	r0, r1, #32
    a2a2:	0408      	lsls	r0, r1, #16
    a2a4:	0408      	lsls	r0, r1, #16
    a2a6:	0808      	lsrs	r0, r1, #32
    a2a8:	0804      	lsrs	r4, r0, #32
    a2aa:	0808      	lsrs	r0, r1, #32
    a2ac:	0808      	lsrs	r0, r1, #32
    a2ae:	0808      	lsrs	r0, r1, #32
    a2b0:	0408      	lsls	r0, r1, #16
    a2b2:	0408      	lsls	r0, r1, #16
    a2b4:	0404      	lsls	r4, r0, #16
    a2b6:	0404      	lsls	r4, r0, #16
    a2b8:	0403      	lsls	r3, r0, #16
    a2ba:	0803      	lsrs	r3, r0, #32
    a2bc:	0803      	lsrs	r3, r0, #32
    a2be:	0404      	lsls	r4, r0, #16
    a2c0:	0304      	lsls	r4, r0, #12
    a2c2:	0408      	lsls	r0, r1, #16
    a2c4:	0403      	lsls	r3, r0, #16
    a2c6:	0808      	lsrs	r0, r1, #32
    a2c8:	0804      	lsrs	r4, r0, #32
    a2ca:	0803      	lsrs	r3, r0, #32
    a2cc:	0808      	lsrs	r0, r1, #32
    a2ce:	0808      	lsrs	r0, r1, #32
    a2d0:	0808      	lsrs	r0, r1, #32
    a2d2:	0808      	lsrs	r0, r1, #32
    a2d4:	0808      	lsrs	r0, r1, #32
    a2d6:	0808      	lsrs	r0, r1, #32
    a2d8:	0808      	lsrs	r0, r1, #32
    a2da:	0808      	lsrs	r0, r1, #32
    a2dc:	0808      	lsrs	r0, r1, #32
    a2de:	0808      	lsrs	r0, r1, #32
    a2e0:	0808      	lsrs	r0, r1, #32
    a2e2:	0808      	lsrs	r0, r1, #32
    a2e4:	0808      	lsrs	r0, r1, #32
    a2e6:	0808      	lsrs	r0, r1, #32
    a2e8:	0808      	lsrs	r0, r1, #32
    a2ea:	0808      	lsrs	r0, r1, #32
    a2ec:	0808      	lsrs	r0, r1, #32
    a2ee:	0808      	lsrs	r0, r1, #32
    a2f0:	0808      	lsrs	r0, r1, #32
    a2f2:	0808      	lsrs	r0, r1, #32
    a2f4:	0808      	lsrs	r0, r1, #32
    a2f6:	0808      	lsrs	r0, r1, #32
    a2f8:	0808      	lsrs	r0, r1, #32
    a2fa:	0808      	lsrs	r0, r1, #32
    a2fc:	0808      	lsrs	r0, r1, #32
    a2fe:	0808      	lsrs	r0, r1, #32
    a300:	0808      	lsrs	r0, r1, #32
    a302:	0808      	lsrs	r0, r1, #32
    a304:	0808      	lsrs	r0, r1, #32
    a306:	0808      	lsrs	r0, r1, #32
    a308:	0808      	lsrs	r0, r1, #32
    a30a:	0808      	lsrs	r0, r1, #32
    a30c:	0808      	lsrs	r0, r1, #32
    a30e:	0808      	lsrs	r0, r1, #32
    a310:	0808      	lsrs	r0, r1, #32
    a312:	0808      	lsrs	r0, r1, #32
    a314:	0808      	lsrs	r0, r1, #32
    a316:	0808      	lsrs	r0, r1, #32
    a318:	0808      	lsrs	r0, r1, #32
    a31a:	0808      	lsrs	r0, r1, #32
    a31c:	0808      	lsrs	r0, r1, #32
    a31e:	0808      	lsrs	r0, r1, #32
    a320:	0808      	lsrs	r0, r1, #32
    a322:	0808      	lsrs	r0, r1, #32
    a324:	0808      	lsrs	r0, r1, #32
    a326:	0808      	lsrs	r0, r1, #32
    a328:	0808      	lsrs	r0, r1, #32
    a32a:	0808      	lsrs	r0, r1, #32
    a32c:	0808      	lsrs	r0, r1, #32
    a32e:	0808      	lsrs	r0, r1, #32
    a330:	0808      	lsrs	r0, r1, #32
    a332:	0808      	lsrs	r0, r1, #32
    a334:	0808      	lsrs	r0, r1, #32
    a336:	0808      	lsrs	r0, r1, #32
    a338:	0808      	lsrs	r0, r1, #32
    a33a:	0808      	lsrs	r0, r1, #32
    a33c:	0808      	lsrs	r0, r1, #32
    a33e:	0808      	lsrs	r0, r1, #32
    a340:	0808      	lsrs	r0, r1, #32
    a342:	0808      	lsrs	r0, r1, #32
    a344:	0808      	lsrs	r0, r1, #32
    a346:	0808      	lsrs	r0, r1, #32
    a348:	0808      	lsrs	r0, r1, #32
    a34a:	0808      	lsrs	r0, r1, #32
    a34c:	0808      	lsrs	r0, r1, #32
    a34e:	0808      	lsrs	r0, r1, #32
    a350:	0201      	lsls	r1, r0, #8
    a352:	040b      	lsls	r3, r1, #16
    a354:	050b      	lsls	r3, r1, #20
    a356:	0106      	lsls	r6, r0, #4
    a358:	010b      	lsls	r3, r1, #4
    a35a:	0b02      	lsrs	r2, r0, #12
    a35c:	0b04      	lsrs	r4, r0, #12
    a35e:	0605      	lsls	r5, r0, #24
    a360:	0b01      	lsrs	r1, r0, #12
    a362:	0b0b      	lsrs	r3, r1, #12
    a364:	0403      	lsls	r3, r0, #16
    a366:	050b      	lsls	r3, r1, #20
    a368:	0b0b      	lsrs	r3, r1, #12
    a36a:	0b0b      	lsrs	r3, r1, #12
    a36c:	0b0b      	lsrs	r3, r1, #12
    a36e:	0b04      	lsrs	r4, r0, #12
    a370:	0b05      	lsrs	r5, r0, #12
    a372:	0b0b      	lsrs	r3, r1, #12
    a374:	0b0b      	lsrs	r3, r1, #12
    a376:	0b0b      	lsrs	r3, r1, #12
    a378:	0b0b      	lsrs	r3, r1, #12
    a37a:	0b0b      	lsrs	r3, r1, #12
    a37c:	050b      	lsls	r3, r1, #20
    a37e:	0b08      	lsrs	r0, r1, #12
    a380:	0b04      	lsrs	r4, r0, #12
    a382:	070b      	lsls	r3, r1, #28
    a384:	0b0b      	lsrs	r3, r1, #12
    a386:	090b      	lsrs	r3, r1, #4
    a388:	040b      	lsls	r3, r1, #16
    a38a:	050b      	lsls	r3, r1, #20
    a38c:	0b0b      	lsrs	r3, r1, #12
    a38e:	0b0b      	lsrs	r3, r1, #12
    a390:	0b0a      	lsrs	r2, r1, #12
    a392:	0b04      	lsrs	r4, r0, #12
    a394:	0b0b      	lsrs	r3, r1, #12
    a396:	0b0b      	lsrs	r3, r1, #12
    a398:	0b0b      	lsrs	r3, r1, #12
    a39a:	040b      	lsls	r3, r1, #16
    a39c:	0b0b      	lsrs	r3, r1, #12
    a39e:	0b0b      	lsrs	r3, r1, #12
    a3a0:	0b0b      	lsrs	r3, r1, #12
    a3a2:	030b      	lsls	r3, r1, #12
    a3a4:	0b0b      	lsrs	r3, r1, #12
    a3a6:	0b0b      	lsrs	r3, r1, #12
    a3a8:	0b0b      	lsrs	r3, r1, #12
    a3aa:	0b0b      	lsrs	r3, r1, #12
    a3ac:	0b08      	lsrs	r0, r1, #12
    a3ae:	0b0b      	lsrs	r3, r1, #12
    a3b0:	0b0b      	lsrs	r3, r1, #12
    a3b2:	000b      	movs	r3, r1
	...
    a3bc:	2000      	movs	r0, #0
    a3be:	2020      	movs	r0, #32
    a3c0:	2020      	movs	r0, #32
    a3c2:	2020      	movs	r0, #32
    a3c4:	2020      	movs	r0, #32
    a3c6:	2828      	cmp	r0, #40	; 0x28
    a3c8:	2828      	cmp	r0, #40	; 0x28
    a3ca:	2028      	movs	r0, #40	; 0x28
    a3cc:	2020      	movs	r0, #32
    a3ce:	2020      	movs	r0, #32
    a3d0:	2020      	movs	r0, #32
    a3d2:	2020      	movs	r0, #32
    a3d4:	2020      	movs	r0, #32
    a3d6:	2020      	movs	r0, #32
    a3d8:	2020      	movs	r0, #32
    a3da:	2020      	movs	r0, #32
    a3dc:	8820      	ldrh	r0, [r4, #0]
    a3de:	1010      	asrs	r0, r2, #32
    a3e0:	1010      	asrs	r0, r2, #32
    a3e2:	1010      	asrs	r0, r2, #32
    a3e4:	1010      	asrs	r0, r2, #32
    a3e6:	1010      	asrs	r0, r2, #32
    a3e8:	1010      	asrs	r0, r2, #32
    a3ea:	1010      	asrs	r0, r2, #32
    a3ec:	0410      	lsls	r0, r2, #16
    a3ee:	0404      	lsls	r4, r0, #16
    a3f0:	0404      	lsls	r4, r0, #16
    a3f2:	0404      	lsls	r4, r0, #16
    a3f4:	0404      	lsls	r4, r0, #16
    a3f6:	1004      	asrs	r4, r0, #32
    a3f8:	1010      	asrs	r0, r2, #32
    a3fa:	1010      	asrs	r0, r2, #32
    a3fc:	1010      	asrs	r0, r2, #32
    a3fe:	4141      	adcs	r1, r0
    a400:	4141      	adcs	r1, r0
    a402:	4141      	adcs	r1, r0
    a404:	0101      	lsls	r1, r0, #4
    a406:	0101      	lsls	r1, r0, #4
    a408:	0101      	lsls	r1, r0, #4
    a40a:	0101      	lsls	r1, r0, #4
    a40c:	0101      	lsls	r1, r0, #4
    a40e:	0101      	lsls	r1, r0, #4
    a410:	0101      	lsls	r1, r0, #4
    a412:	0101      	lsls	r1, r0, #4
    a414:	0101      	lsls	r1, r0, #4
    a416:	0101      	lsls	r1, r0, #4
    a418:	1010      	asrs	r0, r2, #32
    a41a:	1010      	asrs	r0, r2, #32
    a41c:	1010      	asrs	r0, r2, #32
    a41e:	4242      	negs	r2, r0
    a420:	4242      	negs	r2, r0
    a422:	4242      	negs	r2, r0
    a424:	0202      	lsls	r2, r0, #8
    a426:	0202      	lsls	r2, r0, #8
    a428:	0202      	lsls	r2, r0, #8
    a42a:	0202      	lsls	r2, r0, #8
    a42c:	0202      	lsls	r2, r0, #8
    a42e:	0202      	lsls	r2, r0, #8
    a430:	0202      	lsls	r2, r0, #8
    a432:	0202      	lsls	r2, r0, #8
    a434:	0202      	lsls	r2, r0, #8
    a436:	0202      	lsls	r2, r0, #8
    a438:	1010      	asrs	r0, r2, #32
    a43a:	1010      	asrs	r0, r2, #32
    a43c:	0020      	movs	r0, r4
	...
    a4ba:	0000      	movs	r0, r0
    a4bc:	ff00 ffff 	vmaxnm.f32	<illegal reg q7.5>, q8, <illegal reg q15.5>
    a4c0:	0000      	movs	r0, r0
    a4c2:	0000      	movs	r0, r0
    a4c4:	0043      	lsls	r3, r0, #1
	...
    a4e2:	0000      	movs	r0, r0
    a4e4:	0043      	lsls	r3, r0, #1
	...
    a502:	0000      	movs	r0, r0
    a504:	2e43      	cmp	r6, #67	; 0x43
    a506:	5455      	strb	r5, [r2, r1]
    a508:	2d46      	cmp	r5, #70	; 0x46
    a50a:	0038      	movs	r0, r7
	...
    a524:	0043      	lsls	r3, r0, #1
	...
    a542:	0000      	movs	r0, r0
    a544:	0043      	lsls	r3, r0, #1
	...
    a562:	0000      	movs	r0, r0
    a564:	0043      	lsls	r3, r0, #1
	...
    a582:	0000      	movs	r0, r0
    a584:	0043      	lsls	r3, r0, #1
	...
    a5a2:	0000      	movs	r0, r0
    a5a4:	962c      	str	r6, [sp, #176]	; 0xb0
    a5a6:	0800      	lsrs	r0, r0, #32
    a5a8:	81cc      	strh	r4, [r1, #14]
    a5aa:	0800      	lsrs	r0, r0, #32
    a5ac:	0000      	movs	r0, r0
    a5ae:	0000      	movs	r0, r0
    a5b0:	a3bc      	add	r3, pc, #752	; (adr r3, 0xa8a4)
    a5b2:	0800      	lsrs	r0, r0, #32
    a5b4:	a0a0      	add	r0, pc, #640	; (adr r0, 0xa838)
    a5b6:	0800      	lsrs	r0, r0, #32
    a5b8:	a030      	add	r0, pc, #192	; (adr r0, 0xa67c)
    a5ba:	0800      	lsrs	r0, r0, #32
    a5bc:	a030      	add	r0, pc, #192	; (adr r0, 0xa680)
    a5be:	0800      	lsrs	r0, r0, #32
    a5c0:	a030      	add	r0, pc, #192	; (adr r0, 0xa684)
    a5c2:	0800      	lsrs	r0, r0, #32
    a5c4:	a030      	add	r0, pc, #192	; (adr r0, 0xa688)
    a5c6:	0800      	lsrs	r0, r0, #32
    a5c8:	a030      	add	r0, pc, #192	; (adr r0, 0xa68c)
    a5ca:	0800      	lsrs	r0, r0, #32
    a5cc:	a030      	add	r0, pc, #192	; (adr r0, 0xa690)
    a5ce:	0800      	lsrs	r0, r0, #32
    a5d0:	a030      	add	r0, pc, #192	; (adr r0, 0xa694)
    a5d2:	0800      	lsrs	r0, r0, #32
    a5d4:	a030      	add	r0, pc, #192	; (adr r0, 0xa698)
    a5d6:	0800      	lsrs	r0, r0, #32
    a5d8:	a030      	add	r0, pc, #192	; (adr r0, 0xa69c)
    a5da:	0800      	lsrs	r0, r0, #32
    a5dc:	ffff ffff 			; <UNDEFINED> instruction: 0xffffffff
    a5e0:	ffff ffff 			; <UNDEFINED> instruction: 0xffffffff
    a5e4:	ffff ffff 			; <UNDEFINED> instruction: 0xffffffff
    a5e8:	ffff 0000 	vaddl.u<illegal width 64>	q8, d15, d0
    a5ec:	0006      	movs	r6, r0
    a5ee:	5455      	strb	r5, [r2, r1]
    a5f0:	2d46      	cmp	r5, #70	; 0x46
    a5f2:	0038      	movs	r0, r7
	...
    a60c:	0000      	movs	r0, r0
    a60e:	5455      	strb	r5, [r2, r1]
    a610:	2d46      	cmp	r5, #70	; 0x46
    a612:	0038      	movs	r0, r7
	...
    a638:	0358      	lsls	r0, r3, #13
    a63a:	0300      	lsls	r0, r0, #12
    a63c:	0358      	lsls	r0, r3, #13
    a63e:	0300      	lsls	r0, r0, #12
    a640:	0360      	lsls	r0, r4, #13
    a642:	0300      	lsls	r0, r0, #12
    a644:	0360      	lsls	r0, r4, #13
    a646:	0300      	lsls	r0, r0, #12
    a648:	0368      	lsls	r0, r5, #13
    a64a:	0300      	lsls	r0, r0, #12
    a64c:	0368      	lsls	r0, r5, #13
    a64e:	0300      	lsls	r0, r0, #12
    a650:	0370      	lsls	r0, r6, #13
    a652:	0300      	lsls	r0, r0, #12
    a654:	0370      	lsls	r0, r6, #13
    a656:	0300      	lsls	r0, r0, #12
    a658:	0378      	lsls	r0, r7, #13
    a65a:	0300      	lsls	r0, r0, #12
    a65c:	0378      	lsls	r0, r7, #13
    a65e:	0300      	lsls	r0, r0, #12
    a660:	0380      	lsls	r0, r0, #14
    a662:	0300      	lsls	r0, r0, #12
    a664:	0380      	lsls	r0, r0, #14
    a666:	0300      	lsls	r0, r0, #12
    a668:	0388      	lsls	r0, r1, #14
    a66a:	0300      	lsls	r0, r0, #12
    a66c:	0388      	lsls	r0, r1, #14
    a66e:	0300      	lsls	r0, r0, #12
    a670:	0390      	lsls	r0, r2, #14
    a672:	0300      	lsls	r0, r0, #12
    a674:	0390      	lsls	r0, r2, #14
    a676:	0300      	lsls	r0, r0, #12
    a678:	0398      	lsls	r0, r3, #14
    a67a:	0300      	lsls	r0, r0, #12
    a67c:	0398      	lsls	r0, r3, #14
    a67e:	0300      	lsls	r0, r0, #12
    a680:	03a0      	lsls	r0, r4, #14
    a682:	0300      	lsls	r0, r0, #12
    a684:	03a0      	lsls	r0, r4, #14
    a686:	0300      	lsls	r0, r0, #12
    a688:	03a8      	lsls	r0, r5, #14
    a68a:	0300      	lsls	r0, r0, #12
    a68c:	03a8      	lsls	r0, r5, #14
    a68e:	0300      	lsls	r0, r0, #12
    a690:	03b0      	lsls	r0, r6, #14
    a692:	0300      	lsls	r0, r0, #12
    a694:	03b0      	lsls	r0, r6, #14
    a696:	0300      	lsls	r0, r0, #12
    a698:	03b8      	lsls	r0, r7, #14
    a69a:	0300      	lsls	r0, r0, #12
    a69c:	03b8      	lsls	r0, r7, #14
    a69e:	0300      	lsls	r0, r0, #12
    a6a0:	03c0      	lsls	r0, r0, #15
    a6a2:	0300      	lsls	r0, r0, #12
    a6a4:	03c0      	lsls	r0, r0, #15
    a6a6:	0300      	lsls	r0, r0, #12
    a6a8:	03c8      	lsls	r0, r1, #15
    a6aa:	0300      	lsls	r0, r0, #12
    a6ac:	03c8      	lsls	r0, r1, #15
    a6ae:	0300      	lsls	r0, r0, #12
    a6b0:	03d0      	lsls	r0, r2, #15
    a6b2:	0300      	lsls	r0, r0, #12
    a6b4:	03d0      	lsls	r0, r2, #15
    a6b6:	0300      	lsls	r0, r0, #12
    a6b8:	03d8      	lsls	r0, r3, #15
    a6ba:	0300      	lsls	r0, r0, #12
    a6bc:	03d8      	lsls	r0, r3, #15
    a6be:	0300      	lsls	r0, r0, #12
    a6c0:	03e0      	lsls	r0, r4, #15
    a6c2:	0300      	lsls	r0, r0, #12
    a6c4:	03e0      	lsls	r0, r4, #15
    a6c6:	0300      	lsls	r0, r0, #12
    a6c8:	03e8      	lsls	r0, r5, #15
    a6ca:	0300      	lsls	r0, r0, #12
    a6cc:	03e8      	lsls	r0, r5, #15
    a6ce:	0300      	lsls	r0, r0, #12
    a6d0:	03f0      	lsls	r0, r6, #15
    a6d2:	0300      	lsls	r0, r0, #12
    a6d4:	03f0      	lsls	r0, r6, #15
    a6d6:	0300      	lsls	r0, r0, #12
    a6d8:	03f8      	lsls	r0, r7, #15
    a6da:	0300      	lsls	r0, r0, #12
    a6dc:	03f8      	lsls	r0, r7, #15
    a6de:	0300      	lsls	r0, r0, #12
    a6e0:	0400      	lsls	r0, r0, #16
    a6e2:	0300      	lsls	r0, r0, #12
    a6e4:	0400      	lsls	r0, r0, #16
    a6e6:	0300      	lsls	r0, r0, #12
    a6e8:	0408      	lsls	r0, r1, #16
    a6ea:	0300      	lsls	r0, r0, #12
    a6ec:	0408      	lsls	r0, r1, #16
    a6ee:	0300      	lsls	r0, r0, #12
    a6f0:	0410      	lsls	r0, r2, #16
    a6f2:	0300      	lsls	r0, r0, #12
    a6f4:	0410      	lsls	r0, r2, #16
    a6f6:	0300      	lsls	r0, r0, #12
    a6f8:	0418      	lsls	r0, r3, #16
    a6fa:	0300      	lsls	r0, r0, #12
    a6fc:	0418      	lsls	r0, r3, #16
    a6fe:	0300      	lsls	r0, r0, #12
    a700:	0420      	lsls	r0, r4, #16
    a702:	0300      	lsls	r0, r0, #12
    a704:	0420      	lsls	r0, r4, #16
    a706:	0300      	lsls	r0, r0, #12
    a708:	0428      	lsls	r0, r5, #16
    a70a:	0300      	lsls	r0, r0, #12
    a70c:	0428      	lsls	r0, r5, #16
    a70e:	0300      	lsls	r0, r0, #12
    a710:	0430      	lsls	r0, r6, #16
    a712:	0300      	lsls	r0, r0, #12
    a714:	0430      	lsls	r0, r6, #16
    a716:	0300      	lsls	r0, r0, #12
    a718:	0438      	lsls	r0, r7, #16
    a71a:	0300      	lsls	r0, r0, #12
    a71c:	0438      	lsls	r0, r7, #16
    a71e:	0300      	lsls	r0, r0, #12
    a720:	0440      	lsls	r0, r0, #17
    a722:	0300      	lsls	r0, r0, #12
    a724:	0440      	lsls	r0, r0, #17
    a726:	0300      	lsls	r0, r0, #12
    a728:	0448      	lsls	r0, r1, #17
    a72a:	0300      	lsls	r0, r0, #12
    a72c:	0448      	lsls	r0, r1, #17
    a72e:	0300      	lsls	r0, r0, #12
    a730:	0450      	lsls	r0, r2, #17
    a732:	0300      	lsls	r0, r0, #12
    a734:	0450      	lsls	r0, r2, #17
    a736:	0300      	lsls	r0, r0, #12
    a738:	0458      	lsls	r0, r3, #17
    a73a:	0300      	lsls	r0, r0, #12
    a73c:	0458      	lsls	r0, r3, #17
    a73e:	0300      	lsls	r0, r0, #12
    a740:	0460      	lsls	r0, r4, #17
    a742:	0300      	lsls	r0, r0, #12
    a744:	0460      	lsls	r0, r4, #17
    a746:	0300      	lsls	r0, r0, #12
    a748:	0468      	lsls	r0, r5, #17
    a74a:	0300      	lsls	r0, r0, #12
    a74c:	0468      	lsls	r0, r5, #17
    a74e:	0300      	lsls	r0, r0, #12
    a750:	0470      	lsls	r0, r6, #17
    a752:	0300      	lsls	r0, r0, #12
    a754:	0470      	lsls	r0, r6, #17
    a756:	0300      	lsls	r0, r0, #12
    a758:	0478      	lsls	r0, r7, #17
    a75a:	0300      	lsls	r0, r0, #12
    a75c:	0478      	lsls	r0, r7, #17
    a75e:	0300      	lsls	r0, r0, #12
    a760:	0480      	lsls	r0, r0, #18
    a762:	0300      	lsls	r0, r0, #12
    a764:	0480      	lsls	r0, r0, #18
    a766:	0300      	lsls	r0, r0, #12
    a768:	0488      	lsls	r0, r1, #18
    a76a:	0300      	lsls	r0, r0, #12
    a76c:	0488      	lsls	r0, r1, #18
    a76e:	0300      	lsls	r0, r0, #12
    a770:	0490      	lsls	r0, r2, #18
    a772:	0300      	lsls	r0, r0, #12
    a774:	0490      	lsls	r0, r2, #18
    a776:	0300      	lsls	r0, r0, #12
    a778:	0498      	lsls	r0, r3, #18
    a77a:	0300      	lsls	r0, r0, #12
    a77c:	0498      	lsls	r0, r3, #18
    a77e:	0300      	lsls	r0, r0, #12
    a780:	04a0      	lsls	r0, r4, #18
    a782:	0300      	lsls	r0, r0, #12
    a784:	04a0      	lsls	r0, r4, #18
    a786:	0300      	lsls	r0, r0, #12
    a788:	04a8      	lsls	r0, r5, #18
    a78a:	0300      	lsls	r0, r0, #12
    a78c:	04a8      	lsls	r0, r5, #18
    a78e:	0300      	lsls	r0, r0, #12
    a790:	04b0      	lsls	r0, r6, #18
    a792:	0300      	lsls	r0, r0, #12
    a794:	04b0      	lsls	r0, r6, #18
    a796:	0300      	lsls	r0, r0, #12
    a798:	04b8      	lsls	r0, r7, #18
    a79a:	0300      	lsls	r0, r0, #12
    a79c:	04b8      	lsls	r0, r7, #18
    a79e:	0300      	lsls	r0, r0, #12
    a7a0:	04c0      	lsls	r0, r0, #19
    a7a2:	0300      	lsls	r0, r0, #12
    a7a4:	04c0      	lsls	r0, r0, #19
    a7a6:	0300      	lsls	r0, r0, #12
    a7a8:	04c8      	lsls	r0, r1, #19
    a7aa:	0300      	lsls	r0, r0, #12
    a7ac:	04c8      	lsls	r0, r1, #19
    a7ae:	0300      	lsls	r0, r0, #12
    a7b0:	04d0      	lsls	r0, r2, #19
    a7b2:	0300      	lsls	r0, r0, #12
    a7b4:	04d0      	lsls	r0, r2, #19
    a7b6:	0300      	lsls	r0, r0, #12
    a7b8:	04d8      	lsls	r0, r3, #19
    a7ba:	0300      	lsls	r0, r0, #12
    a7bc:	04d8      	lsls	r0, r3, #19
    a7be:	0300      	lsls	r0, r0, #12
    a7c0:	04e0      	lsls	r0, r4, #19
    a7c2:	0300      	lsls	r0, r0, #12
    a7c4:	04e0      	lsls	r0, r4, #19
    a7c6:	0300      	lsls	r0, r0, #12
    a7c8:	04e8      	lsls	r0, r5, #19
    a7ca:	0300      	lsls	r0, r0, #12
    a7cc:	04e8      	lsls	r0, r5, #19
    a7ce:	0300      	lsls	r0, r0, #12
    a7d0:	04f0      	lsls	r0, r6, #19
    a7d2:	0300      	lsls	r0, r0, #12
    a7d4:	04f0      	lsls	r0, r6, #19
    a7d6:	0300      	lsls	r0, r0, #12
    a7d8:	04f8      	lsls	r0, r7, #19
    a7da:	0300      	lsls	r0, r0, #12
    a7dc:	04f8      	lsls	r0, r7, #19
    a7de:	0300      	lsls	r0, r0, #12
    a7e0:	0500      	lsls	r0, r0, #20
    a7e2:	0300      	lsls	r0, r0, #12
    a7e4:	0500      	lsls	r0, r0, #20
    a7e6:	0300      	lsls	r0, r0, #12
    a7e8:	0508      	lsls	r0, r1, #20
    a7ea:	0300      	lsls	r0, r0, #12
    a7ec:	0508      	lsls	r0, r1, #20
    a7ee:	0300      	lsls	r0, r0, #12
    a7f0:	0510      	lsls	r0, r2, #20
    a7f2:	0300      	lsls	r0, r0, #12
    a7f4:	0510      	lsls	r0, r2, #20
    a7f6:	0300      	lsls	r0, r0, #12
    a7f8:	0518      	lsls	r0, r3, #20
    a7fa:	0300      	lsls	r0, r0, #12
    a7fc:	0518      	lsls	r0, r3, #20
    a7fe:	0300      	lsls	r0, r0, #12
    a800:	0520      	lsls	r0, r4, #20
    a802:	0300      	lsls	r0, r0, #12
    a804:	0520      	lsls	r0, r4, #20
    a806:	0300      	lsls	r0, r0, #12
    a808:	0528      	lsls	r0, r5, #20
    a80a:	0300      	lsls	r0, r0, #12
    a80c:	0528      	lsls	r0, r5, #20
    a80e:	0300      	lsls	r0, r0, #12
    a810:	0530      	lsls	r0, r6, #20
    a812:	0300      	lsls	r0, r0, #12
    a814:	0530      	lsls	r0, r6, #20
    a816:	0300      	lsls	r0, r0, #12
    a818:	0538      	lsls	r0, r7, #20
    a81a:	0300      	lsls	r0, r0, #12
    a81c:	0538      	lsls	r0, r7, #20
    a81e:	0300      	lsls	r0, r0, #12
    a820:	0540      	lsls	r0, r0, #21
    a822:	0300      	lsls	r0, r0, #12
    a824:	0540      	lsls	r0, r0, #21
    a826:	0300      	lsls	r0, r0, #12
    a828:	0548      	lsls	r0, r1, #21
    a82a:	0300      	lsls	r0, r0, #12
    a82c:	0548      	lsls	r0, r1, #21
    a82e:	0300      	lsls	r0, r0, #12
    a830:	0550      	lsls	r0, r2, #21
    a832:	0300      	lsls	r0, r0, #12
    a834:	0550      	lsls	r0, r2, #21
    a836:	0300      	lsls	r0, r0, #12
    a838:	0558      	lsls	r0, r3, #21
    a83a:	0300      	lsls	r0, r0, #12
    a83c:	0558      	lsls	r0, r3, #21
    a83e:	0300      	lsls	r0, r0, #12
    a840:	0560      	lsls	r0, r4, #21
    a842:	0300      	lsls	r0, r0, #12
    a844:	0560      	lsls	r0, r4, #21
    a846:	0300      	lsls	r0, r0, #12
    a848:	0568      	lsls	r0, r5, #21
    a84a:	0300      	lsls	r0, r0, #12
    a84c:	0568      	lsls	r0, r5, #21
    a84e:	0300      	lsls	r0, r0, #12
    a850:	0570      	lsls	r0, r6, #21
    a852:	0300      	lsls	r0, r0, #12
    a854:	0570      	lsls	r0, r6, #21
    a856:	0300      	lsls	r0, r0, #12
    a858:	0578      	lsls	r0, r7, #21
    a85a:	0300      	lsls	r0, r0, #12
    a85c:	0578      	lsls	r0, r7, #21
    a85e:	0300      	lsls	r0, r0, #12
    a860:	0580      	lsls	r0, r0, #22
    a862:	0300      	lsls	r0, r0, #12
    a864:	0580      	lsls	r0, r0, #22
    a866:	0300      	lsls	r0, r0, #12
    a868:	0588      	lsls	r0, r1, #22
    a86a:	0300      	lsls	r0, r0, #12
    a86c:	0588      	lsls	r0, r1, #22
    a86e:	0300      	lsls	r0, r0, #12
    a870:	0590      	lsls	r0, r2, #22
    a872:	0300      	lsls	r0, r0, #12
    a874:	0590      	lsls	r0, r2, #22
    a876:	0300      	lsls	r0, r0, #12
    a878:	0598      	lsls	r0, r3, #22
    a87a:	0300      	lsls	r0, r0, #12
    a87c:	0598      	lsls	r0, r3, #22
    a87e:	0300      	lsls	r0, r0, #12
    a880:	05a0      	lsls	r0, r4, #22
    a882:	0300      	lsls	r0, r0, #12
    a884:	05a0      	lsls	r0, r4, #22
    a886:	0300      	lsls	r0, r0, #12
    a888:	05a8      	lsls	r0, r5, #22
    a88a:	0300      	lsls	r0, r0, #12
    a88c:	05a8      	lsls	r0, r5, #22
    a88e:	0300      	lsls	r0, r0, #12
    a890:	05b0      	lsls	r0, r6, #22
    a892:	0300      	lsls	r0, r0, #12
    a894:	05b0      	lsls	r0, r6, #22
    a896:	0300      	lsls	r0, r0, #12
    a898:	05b8      	lsls	r0, r7, #22
    a89a:	0300      	lsls	r0, r0, #12
    a89c:	05b8      	lsls	r0, r7, #22
    a89e:	0300      	lsls	r0, r0, #12
    a8a0:	05c0      	lsls	r0, r0, #23
    a8a2:	0300      	lsls	r0, r0, #12
    a8a4:	05c0      	lsls	r0, r0, #23
    a8a6:	0300      	lsls	r0, r0, #12
    a8a8:	05c8      	lsls	r0, r1, #23
    a8aa:	0300      	lsls	r0, r0, #12
    a8ac:	05c8      	lsls	r0, r1, #23
    a8ae:	0300      	lsls	r0, r0, #12
    a8b0:	05d0      	lsls	r0, r2, #23
    a8b2:	0300      	lsls	r0, r0, #12
    a8b4:	05d0      	lsls	r0, r2, #23
    a8b6:	0300      	lsls	r0, r0, #12
    a8b8:	05d8      	lsls	r0, r3, #23
    a8ba:	0300      	lsls	r0, r0, #12
    a8bc:	05d8      	lsls	r0, r3, #23
    a8be:	0300      	lsls	r0, r0, #12
    a8c0:	05e0      	lsls	r0, r4, #23
    a8c2:	0300      	lsls	r0, r0, #12
    a8c4:	05e0      	lsls	r0, r4, #23
    a8c6:	0300      	lsls	r0, r0, #12
    a8c8:	05e8      	lsls	r0, r5, #23
    a8ca:	0300      	lsls	r0, r0, #12
    a8cc:	05e8      	lsls	r0, r5, #23
    a8ce:	0300      	lsls	r0, r0, #12
    a8d0:	05f0      	lsls	r0, r6, #23
    a8d2:	0300      	lsls	r0, r0, #12
    a8d4:	05f0      	lsls	r0, r6, #23
    a8d6:	0300      	lsls	r0, r0, #12
    a8d8:	05f8      	lsls	r0, r7, #23
    a8da:	0300      	lsls	r0, r0, #12
    a8dc:	05f8      	lsls	r0, r7, #23
    a8de:	0300      	lsls	r0, r0, #12
    a8e0:	0600      	lsls	r0, r0, #24
    a8e2:	0300      	lsls	r0, r0, #12
    a8e4:	0600      	lsls	r0, r0, #24
    a8e6:	0300      	lsls	r0, r0, #12
    a8e8:	0608      	lsls	r0, r1, #24
    a8ea:	0300      	lsls	r0, r0, #12
    a8ec:	0608      	lsls	r0, r1, #24
    a8ee:	0300      	lsls	r0, r0, #12
    a8f0:	0610      	lsls	r0, r2, #24
    a8f2:	0300      	lsls	r0, r0, #12
    a8f4:	0610      	lsls	r0, r2, #24
    a8f6:	0300      	lsls	r0, r0, #12
    a8f8:	0618      	lsls	r0, r3, #24
    a8fa:	0300      	lsls	r0, r0, #12
    a8fc:	0618      	lsls	r0, r3, #24
    a8fe:	0300      	lsls	r0, r0, #12
    a900:	0620      	lsls	r0, r4, #24
    a902:	0300      	lsls	r0, r0, #12
    a904:	0620      	lsls	r0, r4, #24
    a906:	0300      	lsls	r0, r0, #12
    a908:	0628      	lsls	r0, r5, #24
    a90a:	0300      	lsls	r0, r0, #12
    a90c:	0628      	lsls	r0, r5, #24
    a90e:	0300      	lsls	r0, r0, #12
    a910:	0630      	lsls	r0, r6, #24
    a912:	0300      	lsls	r0, r0, #12
    a914:	0630      	lsls	r0, r6, #24
    a916:	0300      	lsls	r0, r0, #12
    a918:	0638      	lsls	r0, r7, #24
    a91a:	0300      	lsls	r0, r0, #12
    a91c:	0638      	lsls	r0, r7, #24
    a91e:	0300      	lsls	r0, r0, #12
    a920:	0640      	lsls	r0, r0, #25
    a922:	0300      	lsls	r0, r0, #12
    a924:	0640      	lsls	r0, r0, #25
    a926:	0300      	lsls	r0, r0, #12
    a928:	0648      	lsls	r0, r1, #25
    a92a:	0300      	lsls	r0, r0, #12
    a92c:	0648      	lsls	r0, r1, #25
    a92e:	0300      	lsls	r0, r0, #12
    a930:	0650      	lsls	r0, r2, #25
    a932:	0300      	lsls	r0, r0, #12
    a934:	0650      	lsls	r0, r2, #25
    a936:	0300      	lsls	r0, r0, #12
    a938:	0658      	lsls	r0, r3, #25
    a93a:	0300      	lsls	r0, r0, #12
    a93c:	0658      	lsls	r0, r3, #25
    a93e:	0300      	lsls	r0, r0, #12
    a940:	0660      	lsls	r0, r4, #25
    a942:	0300      	lsls	r0, r0, #12
    a944:	0660      	lsls	r0, r4, #25
    a946:	0300      	lsls	r0, r0, #12
    a948:	0668      	lsls	r0, r5, #25
    a94a:	0300      	lsls	r0, r0, #12
    a94c:	0668      	lsls	r0, r5, #25
    a94e:	0300      	lsls	r0, r0, #12
    a950:	0670      	lsls	r0, r6, #25
    a952:	0300      	lsls	r0, r0, #12
    a954:	0670      	lsls	r0, r6, #25
    a956:	0300      	lsls	r0, r0, #12
    a958:	0678      	lsls	r0, r7, #25
    a95a:	0300      	lsls	r0, r0, #12
    a95c:	0678      	lsls	r0, r7, #25
    a95e:	0300      	lsls	r0, r0, #12
    a960:	0680      	lsls	r0, r0, #26
    a962:	0300      	lsls	r0, r0, #12
    a964:	0680      	lsls	r0, r0, #26
    a966:	0300      	lsls	r0, r0, #12
    a968:	0688      	lsls	r0, r1, #26
    a96a:	0300      	lsls	r0, r0, #12
    a96c:	0688      	lsls	r0, r1, #26
    a96e:	0300      	lsls	r0, r0, #12
    a970:	0690      	lsls	r0, r2, #26
    a972:	0300      	lsls	r0, r0, #12
    a974:	0690      	lsls	r0, r2, #26
    a976:	0300      	lsls	r0, r0, #12
    a978:	0698      	lsls	r0, r3, #26
    a97a:	0300      	lsls	r0, r0, #12
    a97c:	0698      	lsls	r0, r3, #26
    a97e:	0300      	lsls	r0, r0, #12
    a980:	06a0      	lsls	r0, r4, #26
    a982:	0300      	lsls	r0, r0, #12
    a984:	06a0      	lsls	r0, r4, #26
    a986:	0300      	lsls	r0, r0, #12
    a988:	06a8      	lsls	r0, r5, #26
    a98a:	0300      	lsls	r0, r0, #12
    a98c:	06a8      	lsls	r0, r5, #26
    a98e:	0300      	lsls	r0, r0, #12
    a990:	06b0      	lsls	r0, r6, #26
    a992:	0300      	lsls	r0, r0, #12
    a994:	06b0      	lsls	r0, r6, #26
    a996:	0300      	lsls	r0, r0, #12
    a998:	06b8      	lsls	r0, r7, #26
    a99a:	0300      	lsls	r0, r0, #12
    a99c:	06b8      	lsls	r0, r7, #26
    a99e:	0300      	lsls	r0, r0, #12
    a9a0:	06c0      	lsls	r0, r0, #27
    a9a2:	0300      	lsls	r0, r0, #12
    a9a4:	06c0      	lsls	r0, r0, #27
    a9a6:	0300      	lsls	r0, r0, #12
    a9a8:	06c8      	lsls	r0, r1, #27
    a9aa:	0300      	lsls	r0, r0, #12
    a9ac:	06c8      	lsls	r0, r1, #27
    a9ae:	0300      	lsls	r0, r0, #12
    a9b0:	06d0      	lsls	r0, r2, #27
    a9b2:	0300      	lsls	r0, r0, #12
    a9b4:	06d0      	lsls	r0, r2, #27
    a9b6:	0300      	lsls	r0, r0, #12
    a9b8:	06d8      	lsls	r0, r3, #27
    a9ba:	0300      	lsls	r0, r0, #12
    a9bc:	06d8      	lsls	r0, r3, #27
    a9be:	0300      	lsls	r0, r0, #12
    a9c0:	06e0      	lsls	r0, r4, #27
    a9c2:	0300      	lsls	r0, r0, #12
    a9c4:	06e0      	lsls	r0, r4, #27
    a9c6:	0300      	lsls	r0, r0, #12
    a9c8:	06e8      	lsls	r0, r5, #27
    a9ca:	0300      	lsls	r0, r0, #12
    a9cc:	06e8      	lsls	r0, r5, #27
    a9ce:	0300      	lsls	r0, r0, #12
    a9d0:	06f0      	lsls	r0, r6, #27
    a9d2:	0300      	lsls	r0, r0, #12
    a9d4:	06f0      	lsls	r0, r6, #27
    a9d6:	0300      	lsls	r0, r0, #12
    a9d8:	06f8      	lsls	r0, r7, #27
    a9da:	0300      	lsls	r0, r0, #12
    a9dc:	06f8      	lsls	r0, r7, #27
    a9de:	0300      	lsls	r0, r0, #12
    a9e0:	0700      	lsls	r0, r0, #28
    a9e2:	0300      	lsls	r0, r0, #12
    a9e4:	0700      	lsls	r0, r0, #28
    a9e6:	0300      	lsls	r0, r0, #12
    a9e8:	0708      	lsls	r0, r1, #28
    a9ea:	0300      	lsls	r0, r0, #12
    a9ec:	0708      	lsls	r0, r1, #28
    a9ee:	0300      	lsls	r0, r0, #12
    a9f0:	0710      	lsls	r0, r2, #28
    a9f2:	0300      	lsls	r0, r0, #12
    a9f4:	0710      	lsls	r0, r2, #28
    a9f6:	0300      	lsls	r0, r0, #12
    a9f8:	0718      	lsls	r0, r3, #28
    a9fa:	0300      	lsls	r0, r0, #12
    a9fc:	0718      	lsls	r0, r3, #28
    a9fe:	0300      	lsls	r0, r0, #12
    aa00:	0720      	lsls	r0, r4, #28
    aa02:	0300      	lsls	r0, r0, #12
    aa04:	0720      	lsls	r0, r4, #28
    aa06:	0300      	lsls	r0, r0, #12
    aa08:	0728      	lsls	r0, r5, #28
    aa0a:	0300      	lsls	r0, r0, #12
    aa0c:	0728      	lsls	r0, r5, #28
    aa0e:	0300      	lsls	r0, r0, #12
    aa10:	0730      	lsls	r0, r6, #28
    aa12:	0300      	lsls	r0, r0, #12
    aa14:	0730      	lsls	r0, r6, #28
    aa16:	0300      	lsls	r0, r0, #12
    aa18:	0738      	lsls	r0, r7, #28
    aa1a:	0300      	lsls	r0, r0, #12
    aa1c:	0738      	lsls	r0, r7, #28
    aa1e:	0300      	lsls	r0, r0, #12
    aa20:	0740      	lsls	r0, r0, #29
    aa22:	0300      	lsls	r0, r0, #12
    aa24:	0740      	lsls	r0, r0, #29
    aa26:	0300      	lsls	r0, r0, #12
    aa28:	0748      	lsls	r0, r1, #29
    aa2a:	0300      	lsls	r0, r0, #12
    aa2c:	0748      	lsls	r0, r1, #29
    aa2e:	0300      	lsls	r0, r0, #12
    aa30:	0750      	lsls	r0, r2, #29
    aa32:	0300      	lsls	r0, r0, #12
    aa34:	0750      	lsls	r0, r2, #29
    aa36:	0300      	lsls	r0, r0, #12
    aa38:	ffff ffff 			; <UNDEFINED> instruction: 0xffffffff
    aa3c:	0000      	movs	r0, r0
    aa3e:	0002      	movs	r2, r0
    aa40:	0001      	movs	r1, r0
	...
    aa4a:	0000      	movs	r0, r0
    aa4c:	0778      	lsls	r0, r7, #29
    aa4e:	0300      	lsls	r0, r0, #12
    aa50:	0000      	movs	r0, r0
    aa52:	0000      	movs	r0, r0
    aa54:	0a68      	lsrs	r0, r5, #9
    aa56:	0300      	lsls	r0, r0, #12
    aa58:	0ae0      	lsrs	r0, r4, #11
    aa5a:	0300      	lsls	r0, r0, #12
    aa5c:	0b58      	lsrs	r0, r3, #13
    aa5e:	0300      	lsls	r0, r0, #12
	...
    aaf8:	0001      	movs	r1, r0
    aafa:	0000      	movs	r0, r0
    aafc:	0000      	movs	r0, r0
    aafe:	0000      	movs	r0, r0
    ab00:	330e      	adds	r3, #14
    ab02:	abcd      	add	r3, sp, #820	; 0x334
    ab04:	1234      	asrs	r4, r6, #8
    ab06:	e66d      	b.n	0xa7e4
    ab08:	deec      	udf	#236	; 0xec
    ab0a:	0005      	movs	r5, r0
    ab0c:	000b      	movs	r3, r1
	...
    aeae:	0000      	movs	r0, r0
    aeb0:	1bd8      	subs	r0, r3, r7
    aeb2:	0800      	lsrs	r0, r0, #32
    aeb4:	1b94      	subs	r4, r2, r6
    aeb6:	0800      	lsrs	r0, r0, #32
    aeb8:	6b64      	ldr	r4, [r4, #52]	; 0x34
    aeba:	5241      	strh	r1, [r0, r1]
    aebc:	004d      	lsls	r5, r1, #1
	...
