
test.gba:     file format binary


Disassembly of section .data:

00000000 <.data>:
       0:	002e      	movs	r6, r5
       2:	ea00 0000 	and.w	r0, r0, r0
	...
      ae:	0000      	movs	r0, r0
      b0:	3130      	adds	r1, #48	; 0x30
      b2:	0096      	lsls	r6, r2, #2
	...
      bc:	f000 0000 	and.w	r0, r0, #0
      c0:	0006      	movs	r6, r0
      c2:	ea00 0000 	and.w	r0, r0, r0
	...
      de:	0000      	movs	r0, r0
      e0:	0301      	lsls	r1, r0, #12
      e2:	e3a0      	b.n	0x826
      e4:	0208      	lsls	r0, r1, #8
      e6:	e580      	b.n	0xfffffbea
      e8:	0012      	movs	r2, r2
      ea:	e3a0      	b.n	0x82e
      ec:	f000 e129 			; <UNDEFINED> instruction: 0xf000e129
      f0:	d0b8      	beq.n	0x64
      f2:	e59f      	b.n	0xfffffc34
      f4:	001f      	movs	r7, r3
      f6:	e3a0      	b.n	0x83a
      f8:	f000 e129 			; <UNDEFINED> instruction: 0xf000e129
      fc:	d0b0      	beq.n	0x60
      fe:	e59f      	b.n	0xfffffc40
     100:	0001      	movs	r1, r0
     102:	e28f      	b.n	0x624
     104:	ff10 e12f 	vrhadd.u16	d14, d0, d31
     108:	482b      	ldr	r0, [pc, #172]	; (0x1b8)
     10a:	0140      	lsls	r0, r0, #5
     10c:	d20b      	bcs.n	0x126
     10e:	4678      	mov	r0, pc
     110:	0140      	lsls	r0, r0, #5
     112:	d30d      	bcc.n	0x130
     114:	2202      	movs	r2, #2
     116:	0612      	lsls	r2, r2, #24
     118:	4b28      	ldr	r3, [pc, #160]	; (0x1bc)
     11a:	1a9b      	subs	r3, r3, r2
     11c:	1c16      	adds	r6, r2, #0
     11e:	0091      	lsls	r1, r2, #2
     120:	f000 f83c 	bl	0x19c
     124:	4730      	bx	r6
     126:	2140      	movs	r1, #64	; 0x40
     128:	0309      	lsls	r1, r1, #12
     12a:	01c8      	lsls	r0, r1, #7
     12c:	f000 f82b 	bl	0x186
     130:	4823      	ldr	r0, [pc, #140]	; (0x1c0)
     132:	4924      	ldr	r1, [pc, #144]	; (0x1c4)
     134:	1a09      	subs	r1, r1, r0
     136:	f000 f826 	bl	0x186
     13a:	4823      	ldr	r0, [pc, #140]	; (0x1c8)
     13c:	4923      	ldr	r1, [pc, #140]	; (0x1cc)
     13e:	1a09      	subs	r1, r1, r0
     140:	f000 f821 	bl	0x186
     144:	4922      	ldr	r1, [pc, #136]	; (0x1d0)
     146:	4a23      	ldr	r2, [pc, #140]	; (0x1d4)
     148:	4c23      	ldr	r4, [pc, #140]	; (0x1d8)
     14a:	f000 f826 	bl	0x19a
     14e:	4923      	ldr	r1, [pc, #140]	; (0x1dc)
     150:	4a23      	ldr	r2, [pc, #140]	; (0x1e0)
     152:	4c24      	ldr	r4, [pc, #144]	; (0x1e4)
     154:	f000 f821 	bl	0x19a
     158:	4a23      	ldr	r2, [pc, #140]	; (0x1e8)
     15a:	4924      	ldr	r1, [pc, #144]	; (0x1ec)
     15c:	1a53      	subs	r3, r2, r1
     15e:	d002      	beq.n	0x166
     160:	4a23      	ldr	r2, [pc, #140]	; (0x1f0)
     162:	f000 f81b 	bl	0x19c
     166:	4923      	ldr	r1, [pc, #140]	; (0x1f4)
     168:	4a23      	ldr	r2, [pc, #140]	; (0x1f8)
     16a:	4c24      	ldr	r4, [pc, #144]	; (0x1fc)
     16c:	f000 f815 	bl	0x19a
     170:	4923      	ldr	r1, [pc, #140]	; (0x200)
     172:	4824      	ldr	r0, [pc, #144]	; (0x204)
     174:	6008      	str	r0, [r1, #0]
     176:	4b24      	ldr	r3, [pc, #144]	; (0x208)
     178:	f000 f80e 	bl	0x198
     17c:	2000      	movs	r0, #0
     17e:	2100      	movs	r1, #0
     180:	4b22      	ldr	r3, [pc, #136]	; (0x20c)
     182:	f000 f809 	bl	0x198
     186:	2203      	movs	r2, #3
     188:	1889      	adds	r1, r1, r2
     18a:	4391      	bics	r1, r2
     18c:	d003      	beq.n	0x196
     18e:	2200      	movs	r2, #0
     190:	c004      	stmia	r0!, {r2}
     192:	3904      	subs	r1, #4
     194:	d1fc      	bne.n	0x190
     196:	4770      	bx	lr
     198:	4718      	bx	r3
     19a:	1aa3      	subs	r3, r4, r2
     19c:	2003      	movs	r0, #3
     19e:	181b      	adds	r3, r3, r0
     1a0:	4383      	bics	r3, r0
     1a2:	d003      	beq.n	0x1ac
     1a4:	c901      	ldmia	r1!, {r0}
     1a6:	c201      	stmia	r2!, {r0}
     1a8:	3b04      	subs	r3, #4
     1aa:	d1fb      	bne.n	0x1a4
     1ac:	4770      	bx	lr
     1ae:	46c0      	nop			; (mov r8, r8)
     1b0:	7fa0      	ldrb	r0, [r4, #30]
     1b2:	0300      	lsls	r0, r0, #12
     1b4:	7f00      	ldrb	r0, [r0, #28]
     1b6:	0300      	lsls	r0, r0, #12
     1b8:	0000      	movs	r0, r0
     1ba:	0800      	lsrs	r0, r0, #32
     1bc:	0000      	movs	r0, r0
     1be:	0200      	lsls	r0, r0, #8
     1c0:	0000      	movs	r0, r0
     1c2:	0300      	lsls	r0, r0, #12
     1c4:	2c8c      	cmp	r4, #140	; 0x8c
     1c6:	0300      	lsls	r0, r0, #12
     1c8:	0000      	movs	r0, r0
     1ca:	0200      	lsls	r0, r0, #8
     1cc:	0000      	movs	r0, r0
     1ce:	0200      	lsls	r0, r0, #8
     1d0:	1df4      	adds	r4, r6, #7
     1d2:	0800      	lsrs	r0, r0, #32
     1d4:	2c8c      	cmp	r4, #140	; 0x8c
     1d6:	0300      	lsls	r0, r0, #12
     1d8:	2c9c      	cmp	r4, #156	; 0x9c
     1da:	0300      	lsls	r0, r0, #12
     1dc:	1df4      	adds	r4, r6, #7
     1de:	0800      	lsrs	r0, r0, #32
     1e0:	0000      	movs	r0, r0
     1e2:	0300      	lsls	r0, r0, #12
     1e4:	0000      	movs	r0, r0
     1e6:	0300      	lsls	r0, r0, #12
     1e8:	1e04      	subs	r4, r0, #0
     1ea:	0800      	lsrs	r0, r0, #32
     1ec:	1e04      	subs	r4, r0, #0
     1ee:	0800      	lsrs	r0, r0, #32
     1f0:	2c9c      	cmp	r4, #156	; 0x9c
     1f2:	0300      	lsls	r0, r0, #12
     1f4:	1e04      	subs	r4, r0, #0
     1f6:	0800      	lsrs	r0, r0, #32
     1f8:	0000      	movs	r0, r0
     1fa:	0200      	lsls	r0, r0, #8
     1fc:	0000      	movs	r0, r0
     1fe:	0200      	lsls	r0, r0, #8
     200:	0484      	lsls	r4, r0, #18
     202:	0300      	lsls	r0, r0, #12
     204:	0000      	movs	r0, r0
     206:	0204      	lsls	r4, r0, #8
     208:	1738      	asrs	r0, r7, #28
     20a:	0800      	lsrs	r0, r0, #32
     20c:	0d58      	lsrs	r0, r3, #21
     20e:	0800      	lsrs	r0, r0, #32
     210:	c00d      	stmia	r0!, {r0, r2, r3}
     212:	e1a0      	b.n	0x556
     214:	dff8      	svc	248	; 0xf8
     216:	e92d b004 	stmdb	sp!, {r2, ip, sp, pc}
     21a:	e24c      	b.n	0x6b6
     21c:	d028      	beq.n	0x270
     21e:	e24b      	b.n	0x6b8
     220:	6ff0      	ldr	r0, [r6, #124]	; 0x7c
     222:	e89d ff1e 	ldmia.w	sp, {r1, r2, r3, r4, r8, r9, sl, fp, ip, sp, lr, pc}
     226:	e12f      	b.n	0x488
     228:	000f      	movs	r7, r1
     22a:	e92d 4ff0 	stmdb	sp!, {r4, r5, r6, r7, r8, r9, sl, fp, lr}
     22e:	e92d b000 	stmdb	sp!, {ip, sp, pc}
     232:	e3a0      	b.n	0x976
     234:	d00c      	beq.n	0x250
     236:	e24d      	b.n	0x6d4
     238:	3034      	adds	r0, #52	; 0x34
     23a:	e28d      	b.n	0x758
     23c:	3004      	adds	r0, #4
     23e:	e58d      	b.n	0xfffffd5c
     240:	82e4      	strh	r4, [r4, #22]
     242:	e59f      	b.n	0xfffffd84
     244:	1030      	asrs	r0, r6, #32
     246:	e59d      	b.n	0xfffffd84
     248:	32e0      	adds	r2, #224	; 0xe0
     24a:	e59f      	b.n	0xfffffd8c
     24c:	62e0      	str	r0, [r4, #44]	; 0x2c
     24e:	e59f      	b.n	0xfffffd90
     250:	0000      	movs	r0, r0
     252:	e5d1      	b.n	0xfffffdf8
     254:	0000      	movs	r0, r0
     256:	e350      	b.n	0x8fa
     258:	0026      	movs	r6, r4
     25a:	0a00      	lsrs	r0, r0, #8
     25c:	0025      	movs	r5, r4
     25e:	e350      	b.n	0x902
     260:	0028      	movs	r0, r5
     262:	1a00      	subs	r0, r0, r0
     264:	2001      	movs	r0, #1
     266:	e5d1      	b.n	0xfffffe0c
     268:	0064      	lsls	r4, r4, #1
     26a:	e352      	b.n	0x912
     26c:	1002      	asrs	r2, r0, #32
     26e:	e281      	b.n	0x774
     270:	003a      	movs	r2, r7
     272:	0a00      	lsrs	r0, r0, #8
     274:	002d      	movs	r5, r5
     276:	9a00      	ldr	r2, [sp, #0]
     278:	0073      	lsls	r3, r6, #1
     27a:	e352      	b.n	0x922
     27c:	0052      	lsls	r2, r2, #1
     27e:	0a00      	lsrs	r0, r0, #8
     280:	0075      	lsls	r5, r6, #1
     282:	e352      	b.n	0x92a
     284:	fff1 1aff 			; <UNDEFINED> instruction: 0xfff11aff
     288:	2004      	movs	r0, #4
     28a:	e59d      	b.n	0xfffffdc8
     28c:	c000      	stmia	r0!, {}
     28e:	e592      	b.n	0xfffffdb6
     290:	2004      	movs	r0, #4
     292:	e282      	b.n	0x79a
     294:	0000      	movs	r0, r0
     296:	e35c      	b.n	0x952
     298:	2004      	movs	r0, #4
     29a:	e58d      	b.n	0xfffffdb8
     29c:	005d      	lsls	r5, r3, #1
     29e:	1a00      	subs	r0, r0, r0
     2a0:	2030      	movs	r0, #48	; 0x30
     2a2:	e3a0      	b.n	0x9e6
     2a4:	7001      	strb	r1, [r0, #0]
     2a6:	e3a0      	b.n	0x9ea
     2a8:	2000      	movs	r0, #0
     2aa:	e5c8      	b.n	0xfffffe3e
     2ac:	b007      	add	sp, #28
     2ae:	e7c8      	b.n	0x242
     2b0:	c000      	stmia	r0!, {}
     2b2:	e5d8      	b.n	0xfffffe66
     2b4:	0000      	movs	r0, r0
     2b6:	e35c      	b.n	0x972
     2b8:	ffe4 0aff 			; <UNDEFINED> instruction: 0xffe40aff
     2bc:	e274      	b.n	0x7a8
     2be:	e59f      	b.n	0xfffffe00
     2c0:	2001      	movs	r0, #1
     2c2:	e5d3      	b.n	0xfffffe6c
     2c4:	0001      	movs	r1, r0
     2c6:	e202      	b.n	0x6ce
     2c8:	00a2      	lsls	r2, r4, #2
     2ca:	e150      	b.n	0x56e
     2cc:	fffb 1aff 			; <UNDEFINED> instruction: 0xfffb1aff
     2d0:	c000      	stmia	r0!, {}
     2d2:	e5c3      	b.n	0xfffffe5c
     2d4:	2001      	movs	r0, #1
     2d6:	e5d3      	b.n	0xfffffe80
     2d8:	2001      	movs	r0, #1
     2da:	e222      	b.n	0x722
     2dc:	2001      	movs	r0, #1
     2de:	e5c3      	b.n	0xfffffe68
     2e0:	c001      	stmia	r0!, {r0}
     2e2:	e4de      	b.n	0xfffffca2
     2e4:	0000      	movs	r0, r0
     2e6:	e35c      	b.n	0x9a2
     2e8:	fff4 1aff 			; <UNDEFINED> instruction: 0xfff41aff
     2ec:	0000      	movs	r0, r0
     2ee:	e5d1      	b.n	0xfffffe94
     2f0:	0000      	movs	r0, r0
     2f2:	e350      	b.n	0x996
     2f4:	ffd8 1aff 			; <UNDEFINED> instruction: 0xffd81aff
     2f8:	d00c      	beq.n	0x314
     2fa:	e28d      	b.n	0x818
     2fc:	4ff0      	ldr	r7, [pc, #960]	; (0x6c0)
     2fe:	e8bd d010 	ldmia.w	sp!, {r4, ip, lr, pc}
     302:	e28d      	b.n	0x820
     304:	ff1e e12f 	vrhadd.u16	d14, d14, d31
     308:	2001      	movs	r0, #1
     30a:	e5d3      	b.n	0xfffffeb4
     30c:	c001      	stmia	r0!, {r0}
     30e:	e202      	b.n	0x716
     310:	00a2      	lsls	r2, r4, #2
     312:	e15c      	b.n	0x5ce
     314:	fffb 1aff 			; <UNDEFINED> instruction: 0xfffb1aff
     318:	0000      	movs	r0, r0
     31a:	e5c3      	b.n	0xfffffea4
     31c:	2001      	movs	r0, #1
     31e:	e5d3      	b.n	0xfffffec8
     320:	2001      	movs	r0, #1
     322:	e222      	b.n	0x76a
     324:	2001      	movs	r0, #1
     326:	e5c3      	b.n	0xfffffeb0
     328:	1001      	asrs	r1, r0, #32
     32a:	e281      	b.n	0x830
     32c:	ffc7 eaff 			; <UNDEFINED> instruction: 0xffc7eaff
     330:	0025      	movs	r5, r4
     332:	e352      	b.n	0x9da
     334:	ffc5 1aff 			; <UNDEFINED> instruction: 0xffc51aff
     338:	2001      	movs	r0, #1
     33a:	e5d3      	b.n	0xfffffee4
     33c:	0001      	movs	r1, r0
     33e:	e202      	b.n	0x746
     340:	00a2      	lsls	r2, r4, #2
     342:	e150      	b.n	0x5e6
     344:	fffb 1aff 			; <UNDEFINED> instruction: 0xfffb1aff
     348:	2025      	movs	r0, #37	; 0x25
     34a:	e3a0      	b.n	0xa8e
     34c:	2000      	movs	r0, #0
     34e:	e5c3      	b.n	0xfffffed8
     350:	2001      	movs	r0, #1
     352:	e5d3      	b.n	0xfffffefc
     354:	2001      	movs	r0, #1
     356:	e222      	b.n	0x79e
     358:	2001      	movs	r0, #1
     35a:	e5c3      	b.n	0xfffffee4
     35c:	ffbb eaff 			; <UNDEFINED> instruction: 0xffbbeaff
     360:	2004      	movs	r0, #4
     362:	e59d      	b.n	0xfffffea0
     364:	0000      	movs	r0, r0
     366:	e592      	b.n	0xfffffe8e
     368:	2004      	movs	r0, #4
     36a:	e282      	b.n	0x872
     36c:	0000      	movs	r0, r0
     36e:	e350      	b.n	0xa12
     370:	2004      	movs	r0, #4
     372:	e58d      	b.n	0xfffffe90
     374:	0045      	lsls	r5, r0, #1
     376:	ba00      	rev	r0, r0
     378:	0067      	lsls	r7, r4, #1
     37a:	1a00      	subs	r0, r0, r0
     37c:	2030      	movs	r0, #48	; 0x30
     37e:	e3a0      	b.n	0xac2
     380:	91b0      	str	r1, [sp, #704]	; 0x2c0
     382:	e59f      	b.n	0xfffffec4
     384:	2000      	movs	r0, #0
     386:	e5c8      	b.n	0xffffff1a
     388:	b000      	add	sp, #0
     38a:	e5c9      	b.n	0xffffff20
     38c:	c000      	stmia	r0!, {}
     38e:	e5d8      	b.n	0xffffff42
     390:	0000      	movs	r0, r0
     392:	e35c      	b.n	0xa4e
     394:	ffad 0aff 			; <UNDEFINED> instruction: 0xffad0aff
     398:	e198      	b.n	0x6cc
     39a:	e59f      	b.n	0xfffffedc
     39c:	2001      	movs	r0, #1
     39e:	e5d3      	b.n	0xffffff48
     3a0:	0001      	movs	r1, r0
     3a2:	e202      	b.n	0x7aa
     3a4:	00a2      	lsls	r2, r4, #2
     3a6:	e150      	b.n	0x64a
     3a8:	fffb 1aff 			; <UNDEFINED> instruction: 0xfffb1aff
     3ac:	c000      	stmia	r0!, {}
     3ae:	e5c3      	b.n	0xffffff38
     3b0:	2001      	movs	r0, #1
     3b2:	e5d3      	b.n	0xffffff5c
     3b4:	2001      	movs	r0, #1
     3b6:	e222      	b.n	0x7fe
     3b8:	2001      	movs	r0, #1
     3ba:	e5c3      	b.n	0xffffff44
     3bc:	c001      	stmia	r0!, {r0}
     3be:	e4de      	b.n	0xfffffd7e
     3c0:	0000      	movs	r0, r0
     3c2:	e35c      	b.n	0xa7e
     3c4:	fff4 1aff 			; <UNDEFINED> instruction: 0xfff41aff
     3c8:	ffa0 eaff 			; <UNDEFINED> instruction: 0xffa0eaff
     3cc:	2004      	movs	r0, #4
     3ce:	e59d      	b.n	0xffffff0c
     3d0:	e000      	b.n	0x3d4
     3d2:	e592      	b.n	0xfffffefa
     3d4:	c000      	stmia	r0!, {}
     3d6:	e5de      	b.n	0xffffff96
     3d8:	2004      	movs	r0, #4
     3da:	e282      	b.n	0x8e2
     3dc:	0000      	movs	r0, r0
     3de:	e35c      	b.n	0xa9a
     3e0:	2004      	movs	r0, #4
     3e2:	e58d      	b.n	0xffffff00
     3e4:	ff99 0aff 			; <UNDEFINED> instruction: 0xff990aff
     3e8:	2001      	movs	r0, #1
     3ea:	e5d3      	b.n	0xffffff94
     3ec:	0001      	movs	r1, r0
     3ee:	e202      	b.n	0x7f6
     3f0:	00a2      	lsls	r2, r4, #2
     3f2:	e150      	b.n	0x696
     3f4:	fffb 1aff 			; <UNDEFINED> instruction: 0xfffb1aff
     3f8:	c000      	stmia	r0!, {}
     3fa:	e5c3      	b.n	0xffffff84
     3fc:	2001      	movs	r0, #1
     3fe:	e5d3      	b.n	0xffffffa8
     400:	2001      	movs	r0, #1
     402:	e222      	b.n	0x84a
     404:	2001      	movs	r0, #1
     406:	e5c3      	b.n	0xffffff90
     408:	c001      	stmia	r0!, {r0}
     40a:	e5fe      	b.n	0xa
     40c:	0000      	movs	r0, r0
     40e:	e35c      	b.n	0xaca
     410:	fff4 1aff 			; <UNDEFINED> instruction: 0xfff41aff
     414:	ff8d eaff 			; <UNDEFINED> instruction: 0xff8deaff
     418:	411c      	asrs	r4, r3
     41a:	e59f      	b.n	0xffffff5c
     41c:	e000      	b.n	0x420
     41e:	e3a0      	b.n	0xb62
     420:	5004      	str	r4, [r0, r0]
     422:	e1a0      	b.n	0x766
     424:	0001      	movs	r1, r0
     426:	ea00 e007 			; <UNDEFINED> instruction: 0xea00e007
     42a:	e1a0      	b.n	0x76e
     42c:	c000      	stmia	r0!, {}
     42e:	e1a0      	b.n	0x772
     430:	2c96      	cmp	r4, #150	; 0x96
     432:	e080      	b.n	0x536
     434:	01a0      	lsls	r0, r4, #6
     436:	e1a0      	b.n	0x77a
     438:	2100      	movs	r1, #0
     43a:	e080      	b.n	0x53e
     43c:	2082      	movs	r0, #130	; 0x82
     43e:	e04c      	b.n	0x4da
     440:	2030      	movs	r0, #48	; 0x30
     442:	e282      	b.n	0x94a
     444:	20ff      	movs	r0, #255	; 0xff
     446:	e202      	b.n	0x84e
     448:	0009      	movs	r1, r1
     44a:	e35c      	b.n	0xb06
     44c:	2001      	movs	r0, #1
     44e:	e5e5      	b.n	0x1c
     450:	7001      	strb	r1, [r0, #0]
     452:	e28e      	b.n	0x972
     454:	fff3 8aff 			; <UNDEFINED> instruction: 0xfff38aff
     458:	0000      	movs	r0, r0
     45a:	e35e      	b.n	0xb1a
     45c:	0030      	movs	r0, r6
     45e:	0a00      	lsrs	r0, r0, #8
     460:	000e      	movs	r6, r1
     462:	e1a0      	b.n	0x7a6
     464:	c00e      	stmia	r0!, {r1, r2, r3}
     466:	e088      	b.n	0x57a
     468:	0000      	movs	r0, r0
     46a:	ea00 2001 	and.w	r0, r0, r1, lsl #8
     46e:	e57c      	b.n	0xffffff6a
     470:	0001      	movs	r1, r0
     472:	e240      	b.n	0x8f6
     474:	5001      	str	r1, [r0, r0]
     476:	e5f4      	b.n	0x62
     478:	9000      	str	r0, [sp, #0]
     47a:	e04e      	b.n	0x51a
     47c:	0009      	movs	r1, r1
     47e:	e150      	b.n	0x722
     480:	2000      	movs	r0, #0
     482:	e5c4      	b.n	0xe
     484:	5000      	str	r0, [r0, r0]
     486:	e5cc      	b.n	0x22
     488:	fff7 8aff 			; <UNDEFINED> instruction: 0xfff78aff
     48c:	ff86 eaff 			; <UNDEFINED> instruction: 0xff86eaff
     490:	202d      	movs	r0, #45	; 0x2d
     492:	e3a0      	b.n	0xbd6
     494:	7001      	strb	r1, [r0, #0]
     496:	e3a0      	b.n	0xbda
     498:	2000      	movs	r0, #0
     49a:	e5c8      	b.n	0x2e
     49c:	0000      	movs	r0, r0
     49e:	e260      	b.n	0x962
     4a0:	e007      	b.n	0x4b2
     4a2:	e088      	b.n	0x5b6
     4a4:	500e      	str	r6, [r1, r0]
     4a6:	e1a0      	b.n	0x7ea
     4a8:	4007      	ands	r7, r0
     4aa:	e1a0      	b.n	0x7ee
     4ac:	0000      	movs	r0, r0
     4ae:	ea00 400c 	and.w	r0, r0, ip, lsl #16
     4b2:	e1a0      	b.n	0x7f6
     4b4:	2096      	movs	r0, #150	; 0x96
     4b6:	e08c      	b.n	0x5d2
     4b8:	c1ac      	stmia	r1!, {r2, r3, r5, r7}
     4ba:	e1a0      	b.n	0x7fe
     4bc:	210c      	movs	r1, #12
     4be:	e08c      	b.n	0x5da
     4c0:	2082      	movs	r0, #130	; 0x82
     4c2:	e040      	b.n	0x546
     4c4:	2030      	movs	r0, #48	; 0x30
     4c6:	e282      	b.n	0x9ce
     4c8:	20ff      	movs	r0, #255	; 0xff
     4ca:	e202      	b.n	0x8d2
     4cc:	2001      	movs	r0, #1
     4ce:	e4c5      	b.n	0xfffffe5c
     4d0:	0000      	movs	r0, r0
     4d2:	e25c      	b.n	0x98e
     4d4:	9005      	str	r0, [sp, #20]
     4d6:	e1a0      	b.n	0x81a
     4d8:	c001      	stmia	r0!, {r0}
     4da:	e284      	b.n	0x9e6
     4dc:	fff3 1aff 			; <UNDEFINED> instruction: 0xfff31aff
     4e0:	0004      	movs	r4, r0
     4e2:	e157      	b.n	0x794
     4e4:	ffa7 2aff 			; <UNDEFINED> instruction: 0xffa72aff
     4e8:	0007      	movs	r7, r0
     4ea:	e1a0      	b.n	0x82e
     4ec:	5004      	str	r4, [r0, r0]
     4ee:	e088      	b.n	0x602
     4f0:	0000      	movs	r0, r0
     4f2:	ea00 2000 	and.w	r0, r0, r0, lsl #8
     4f6:	e5d5      	b.n	0xa4
     4f8:	0001      	movs	r1, r0
     4fa:	e280      	b.n	0x9fe
     4fc:	c000      	stmia	r0!, {}
     4fe:	e047      	b.n	0x590
     500:	a000      	add	r0, pc, #0	; (adr r0, 0x504)
     502:	e5de      	b.n	0xc2
     504:	c004      	stmia	r0!, {r2}
     506:	e08c      	b.n	0x622
     508:	0000      	movs	r0, r0
     50a:	e15c      	b.n	0x7c6
     50c:	2001      	movs	r0, #1
     50e:	e4ce      	b.n	0xfffffeae
     510:	a001      	add	r0, pc, #4	; (adr r0, 0x518)
     512:	e445      	b.n	0xfffffda0
     514:	fff6 8aff 			; <UNDEFINED> instruction: 0xfff68aff
     518:	ff9a eaff 			; <UNDEFINED> instruction: 0xff9aeaff
     51c:	7000      	strb	r0, [r0, #0]
     51e:	e3a0      	b.n	0xc62
     520:	ffde eaff 			; <UNDEFINED> instruction: 0xffdeeaff
     524:	7001      	strb	r1, [r0, #0]
     526:	e3a0      	b.n	0xc6a
     528:	ff5f eaff 	vpmin.u16	q15, <illegal reg q15.5>, <illegal reg q15.5>
     52c:	001c      	movs	r4, r3
     52e:	0300      	lsls	r0, r0, #12
     530:	0400      	lsls	r0, r0, #16
     532:	0400      	lsls	r0, r0, #16
     534:	cccd      	ldmia	r4!, {r0, r2, r3, r6, r7}
     536:	cccc      	ldmia	r4!, {r2, r3, r6, r7}
     538:	001d      	movs	r5, r3
     53a:	0300      	lsls	r0, r0, #12
     53c:	001b      	movs	r3, r3
     53e:	0300      	lsls	r0, r0, #12
     540:	3024      	adds	r0, #36	; 0x24
     542:	e59f      	b.n	0x84
     544:	3000      	adds	r0, #0
     546:	e5d3      	b.n	0xf0
     548:	0041      	lsls	r1, r0, #1
     54a:	e353      	b.n	0xbf4
     54c:	ff1e 112f 	vrhadd.u16	d1, d14, d31
     550:	2018      	movs	r0, #24
     552:	e59f      	b.n	0x94
     554:	3000      	adds	r0, #0
     556:	e590      	b.n	0x7a
     558:	2000      	movs	r0, #0
     55a:	e592      	b.n	0x82
     55c:	3009      	adds	r0, #9
     55e:	e283      	b.n	0xa68
     560:	3002      	adds	r0, #2
     562:	e043      	b.n	0x5ec
     564:	3000      	adds	r0, #0
     566:	e580      	b.n	0x6a
     568:	ff1e e12f 	vrhadd.u16	d14, d14, d31
     56c:	2bb4      	cmp	r3, #180	; 0xb4
     56e:	0300      	lsls	r0, r0, #12
     570:	2bb0      	cmp	r3, #176	; 0xb0
     572:	0300      	lsls	r0, r0, #12
     574:	2024      	movs	r0, #36	; 0x24
     576:	e59f      	b.n	0xb8
     578:	3000      	adds	r0, #0
     57a:	e592      	b.n	0xa2
     57c:	0000      	movs	r0, r0
     57e:	e353      	b.n	0xc28
     580:	3000      	adds	r0, #0
     582:	1593      	asrs	r3, r2, #22
     584:	3000      	adds	r0, #0
     586:	1580      	asrs	r0, r0, #22
     588:	3000      	adds	r0, #0
     58a:	1592      	asrs	r2, r2, #22
     58c:	2010      	movs	r0, #16
     58e:	e59f      	b.n	0xd0
     590:	2000      	movs	r0, #0
     592:	e592      	b.n	0xba
     594:	200c      	movs	r0, #12
     596:	e282      	b.n	0xa9e
     598:	200c      	movs	r0, #12
     59a:	e583      	b.n	0xa4
     59c:	ff1e e12f 	vrhadd.u16	d14, d14, d31
     5a0:	2bb8      	cmp	r3, #184	; 0xb8
     5a2:	0300      	lsls	r0, r0, #12
     5a4:	2bb0      	cmp	r3, #176	; 0xb0
     5a6:	0300      	lsls	r0, r0, #12
     5a8:	2024      	movs	r0, #36	; 0x24
     5aa:	e59f      	b.n	0xec
     5ac:	1024      	asrs	r4, r4, #32
     5ae:	e59f      	b.n	0xf0
     5b0:	3000      	adds	r0, #0
     5b2:	e592      	b.n	0xda
     5b4:	1000      	asrs	r0, r0, #32
     5b6:	e5d1      	b.n	0x15c
     5b8:	0042      	lsls	r2, r0, #1
     5ba:	e3a0      	b.n	0xcfe
     5bc:	0041      	lsls	r1, r0, #1
     5be:	e351      	b.n	0xc64
     5c0:	3001      	adds	r0, #1
     5c2:	0383      	lsls	r3, r0, #14
     5c4:	1010      	asrs	r0, r2, #32
     5c6:	e59f      	b.n	0x108
     5c8:	3000      	adds	r0, #0
     5ca:	e582      	b.n	0xd2
     5cc:	0000      	movs	r0, r0
     5ce:	e5c1      	b.n	0x154
     5d0:	ff1e e12f 	vrhadd.u16	d14, d14, d31
     5d4:	2c88      	cmp	r4, #136	; 0x88
     5d6:	0300      	lsls	r0, r0, #12
     5d8:	2bb4      	cmp	r3, #180	; 0xb4
     5da:	0300      	lsls	r0, r0, #12
     5dc:	2bb5      	cmp	r3, #181	; 0xb5
     5de:	0300      	lsls	r0, r0, #12
     5e0:	0041      	lsls	r1, r0, #1
     5e2:	e3a0      	b.n	0xd26
     5e4:	2000      	movs	r0, #0
     5e6:	e3a0      	b.n	0xd2a
     5e8:	100c      	asrs	r4, r1, #32
     5ea:	e59f      	b.n	0x12c
     5ec:	300c      	adds	r0, #12
     5ee:	e59f      	b.n	0x130
     5f0:	0000      	movs	r0, r0
     5f2:	e5c1      	b.n	0x178
     5f4:	2000      	movs	r0, #0
     5f6:	e583      	b.n	0x100
     5f8:	ff1e e12f 	vrhadd.u16	d14, d14, d31
     5fc:	2bb4      	cmp	r3, #180	; 0xb4
     5fe:	0300      	lsls	r0, r0, #12
     600:	2c88      	cmp	r4, #136	; 0x88
     602:	0300      	lsls	r0, r0, #12
     604:	0002      	movs	r2, r0
     606:	e350      	b.n	0xcaa
     608:	000c      	movs	r4, r1
     60a:	0a00      	lsrs	r0, r0, #8
     60c:	3003      	adds	r0, #3
     60e:	e3a0      	b.n	0xd52
     610:	0001      	movs	r1, r0
     612:	e350      	b.n	0xcb6
     614:	3000      	adds	r0, #0
     616:	e5c1      	b.n	0x19c
     618:	000b      	movs	r3, r1
     61a:	0a00      	lsrs	r0, r0, #8
     61c:	3c00      	subs	r4, #0
     61e:	e1a0      	b.n	0x962
     620:	3c43      	subs	r4, #67	; 0x43
     622:	e1a0      	b.n	0x966
     624:	0000      	movs	r0, r0
     626:	e353      	b.n	0xcd0
     628:	0002      	movs	r2, r0
     62a:	0a00      	lsrs	r0, r0, #8
     62c:	0004      	movs	r4, r0
     62e:	e350      	b.n	0xcd2
     630:	ff1e 112f 	vrhadd.u16	d1, d14, d31
     634:	3002      	adds	r0, #2
     636:	e3a0      	b.n	0xd7a
     638:	3000      	adds	r0, #0
     63a:	e5c1      	b.n	0x1c0
     63c:	ff1e e12f 	vrhadd.u16	d14, d14, d31
     640:	3001      	adds	r0, #1
     642:	e3a0      	b.n	0xd86
     644:	3000      	adds	r0, #0
     646:	e5c1      	b.n	0x1cc
     648:	ff1e e12f 	vrhadd.u16	d14, d14, d31
     64c:	3010      	adds	r0, #16
     64e:	e59f      	b.n	0x190
     650:	3000      	adds	r0, #0
     652:	e593      	b.n	0x17c
     654:	0064      	lsls	r4, r4, #1
     656:	e353      	b.n	0xd00
     658:	3000      	adds	r0, #0
     65a:	c3a0      	stmia	r3!, {r5, r7}
     65c:	3000      	adds	r0, #0
     65e:	c5c1      	stmia	r5!, {r0, r6, r7}
     660:	ff1e e12f 	vrhadd.u16	d14, d14, d31
     664:	2bb0      	cmp	r3, #176	; 0xb0
     666:	0300      	lsls	r0, r0, #12
     668:	41f0      	rors	r0, r6
     66a:	e92d 60bc 	stmdb	sp!, {r2, r3, r4, r5, r7, sp, lr}
     66e:	e59f      	b.n	0x1b0
     670:	8000      	strh	r0, [r0, #0]
     672:	e596      	b.n	0x1a2
     674:	5000      	str	r0, [r0, r0]
     676:	e590      	b.n	0x19a
     678:	4008      	ands	r0, r1
     67a:	e1a0      	b.n	0x9be
     67c:	e005      	b.n	0x68a
     67e:	e1a0      	b.n	0x9c2
     680:	c000      	stmia	r0!, {}
     682:	e1a0      	b.n	0x9c6
     684:	7005      	strb	r5, [r0, #0]
     686:	e3a0      	b.n	0xdca
     688:	000f      	movs	r7, r1
     68a:	e8b4 000f 	ldmia.w	r4!, {r0, r1, r2, r3}
     68e:	e8ae 000f 	stmia.w	lr!, {r0, r1, r2, r3}
     692:	e8b4 000f 	ldmia.w	r4!, {r0, r1, r2, r3}
     696:	e8ae 000f 	stmia.w	lr!, {r0, r1, r2, r3}
     69a:	e894 4000 	ldmia.w	r4, {lr}
     69e:	e59c      	b.n	0x1da
     6a0:	000f      	movs	r7, r1
     6a2:	e88e 700c 	stmia.w	lr, {r2, r3, ip, sp, lr}
     6a6:	e58c      	b.n	0x1c2
     6a8:	4000      	ands	r0, r0
     6aa:	e585      	b.n	0x1b8
     6ac:	3080      	adds	r0, #128	; 0x80
     6ae:	e59f      	b.n	0x1f0
     6b0:	2000      	movs	r0, #0
     6b2:	e598      	b.n	0x1e6
     6b4:	2000      	movs	r0, #0
     6b6:	e585      	b.n	0x1c4
     6b8:	700c      	strb	r4, [r1, #0]
     6ba:	e585      	b.n	0x1c8
     6bc:	1004      	asrs	r4, r0, #32
     6be:	e5d5      	b.n	0x26c
     6c0:	3000      	adds	r0, #0
     6c2:	e593      	b.n	0x1ec
     6c4:	2000      	movs	r0, #0
     6c6:	e596      	b.n	0x1f6
     6c8:	300c      	adds	r0, #12
     6ca:	e283      	b.n	0xbd4
     6cc:	0000      	movs	r0, r0
     6ce:	e351      	b.n	0xd74
     6d0:	300c      	adds	r0, #12
     6d2:	e582      	b.n	0x1da
     6d4:	0008      	movs	r0, r1
     6d6:	0a00      	lsrs	r0, r0, #8
     6d8:	e000      	b.n	0x6dc
     6da:	e59c      	b.n	0x216
     6dc:	000f      	movs	r7, r1
     6de:	e8be 000f 	ldmia.w	lr!, {r0, r1, r2, r3}
     6e2:	e8ac 000f 	stmia.w	ip!, {r0, r1, r2, r3}
     6e6:	e8be 000f 	ldmia.w	lr!, {r0, r1, r2, r3}
     6ea:	e8ac 000f 	stmia.w	ip!, {r0, r1, r2, r3}
     6ee:	e89e 41f0 	ldmia.w	lr, {r4, r5, r6, r7, r8, lr}
     6f2:	e8bd 000f 	ldmia.w	sp!, {r0, r1, r2, r3}
     6f6:	e88c ff1e 	stmia.w	ip, {r1, r2, r3, r4, r8, r9, sl, fp, ip, sp, lr, pc}
     6fa:	e12f      	b.n	0x95c
     6fc:	3006      	adds	r0, #6
     6fe:	e3a0      	b.n	0xe42
     700:	0008      	movs	r0, r1
     702:	e5dc      	b.n	0x2be
     704:	1008      	asrs	r0, r1, #32
     706:	e285      	b.n	0xc14
     708:	300c      	adds	r0, #12
     70a:	e585      	b.n	0x218
     70c:	ffbc ebff 			; <UNDEFINED> instruction: 0xffbcebff
     710:	2000      	movs	r0, #0
     712:	e596      	b.n	0x242
     714:	300c      	adds	r0, #12
     716:	e595      	b.n	0x244
     718:	2000      	movs	r0, #0
     71a:	e592      	b.n	0x242
     71c:	300c      	adds	r0, #12
     71e:	e283      	b.n	0xc28
     720:	2000      	movs	r0, #0
     722:	e585      	b.n	0x230
     724:	300c      	adds	r0, #12
     726:	e585      	b.n	0x234
     728:	41f0      	rors	r0, r6
     72a:	e8bd ff1e 	ldmia.w	sp!, {r1, r2, r3, r4, r8, r9, sl, fp, ip, sp, lr, pc}
     72e:	e12f      	b.n	0x990
     730:	2bb8      	cmp	r3, #184	; 0xb8
     732:	0300      	lsls	r0, r0, #12
     734:	2bb0      	cmp	r3, #176	; 0xb0
     736:	0300      	lsls	r0, r0, #12
     738:	0002      	movs	r2, r0
     73a:	e280      	b.n	0xc3e
     73c:	1001      	asrs	r1, r0, #32
     73e:	e080      	b.n	0x842
     740:	1000      	asrs	r0, r0, #32
     742:	e582      	b.n	0x24a
     744:	ff1e e12f 	vrhadd.u16	d14, d14, d31
     748:	4030      	ands	r0, r6
     74a:	e92d 5005 	stmdb	sp!, {r0, r2, ip, lr}
     74e:	e3a0      	b.n	0xe92
     750:	c005      	stmia	r0!, {r0, r2}
     752:	e082      	b.n	0x85a
     754:	410c      	asrs	r4, r1
     756:	e1a0      	b.n	0xa9a
     758:	e00c      	b.n	0x774
     75a:	e084      	b.n	0x866
     75c:	e10e      	b.n	0x97c
     75e:	e08e      	b.n	0x87e
     760:	4004      	ands	r4, r0
     762:	e080      	b.n	0x866
     764:	2102      	movs	r1, #2
     766:	e1a0      	b.n	0xaaa
     768:	e18e      	b.n	0xa88
     76a:	e1a0      	b.n	0xaae
     76c:	310c      	adds	r1, #12
     76e:	e780      	b.n	0x672
     770:	3004      	adds	r0, #4
     772:	e584      	b.n	0x27e
     774:	c078      	stmia	r0!, {r3, r4, r5, r6}
     776:	e584      	b.n	0x282
     778:	3002      	adds	r0, #2
     77a:	e08e      	b.n	0x89a
     77c:	3003      	adds	r0, #3
     77e:	e081      	b.n	0x884
     780:	4010      	ands	r0, r2
     782:	e593      	b.n	0x2ac
     784:	4001      	ands	r1, r0
     786:	e284      	b.n	0xc92
     788:	4010      	ands	r0, r2
     78a:	e583      	b.n	0x294
     78c:	c014      	stmia	r0!, {r2, r4}
     78e:	e583      	b.n	0x298
     790:	c018      	stmia	r0!, {r3, r4}
     792:	e583      	b.n	0x29c
     794:	e00e      	b.n	0x7b4
     796:	e081      	b.n	0x89c
     798:	3014      	adds	r0, #20
     79a:	e59f      	b.n	0x2dc
     79c:	110c      	asrs	r4, r1, #4
     79e:	e790      	b.n	0x6c2
     7a0:	e002      	b.n	0x7a8
     7a2:	e08e      	b.n	0x8c2
     7a4:	1fb4      	subs	r4, r6, #6
     7a6:	e58e      	b.n	0x2c6
     7a8:	5000      	str	r0, [r0, r0]
     7aa:	e583      	b.n	0x2b4
     7ac:	4030      	ands	r0, r6
     7ae:	e8bd ff1e 	ldmia.w	sp!, {r1, r2, r3, r4, r8, r9, sl, fp, ip, sp, lr, pc}
     7b2:	e12f      	b.n	0xa14
     7b4:	2bb0      	cmp	r3, #176	; 0xb0
     7b6:	0300      	lsls	r0, r0, #12
     7b8:	30ff      	adds	r0, #255	; 0xff
     7ba:	e200      	b.n	0xbbe
     7bc:	10ff      	asrs	r7, r7, #3
     7be:	e201      	b.n	0xbc4
     7c0:	0001      	movs	r1, r0
     7c2:	e153      	b.n	0xa6c
     7c4:	200c      	movs	r0, #12
     7c6:	059f      	lsls	r7, r3, #22
     7c8:	0001      	movs	r1, r0
     7ca:	03a0      	lsls	r0, r4, #14
     7cc:	3000      	adds	r0, #0
     7ce:	05c2      	lsls	r2, r0, #23
     7d0:	0000      	movs	r0, r0
     7d2:	13a0      	asrs	r0, r4, #14
     7d4:	ff1e e12f 	vrhadd.u16	d14, d14, d31
     7d8:	2bb4      	cmp	r3, #180	; 0xb4
     7da:	0300      	lsls	r0, r0, #12
     7dc:	c000      	stmia	r0!, {}
     7de:	e3a0      	b.n	0xf22
     7e0:	4010      	ands	r0, r2
     7e2:	e92d 4048 	stmdb	sp!, {r3, r6, lr}
     7e6:	e59f      	b.n	0x328
     7e8:	3002      	adds	r0, #2
     7ea:	e5d0      	b.n	0x38e
     7ec:	2003      	movs	r0, #3
     7ee:	e5d1      	b.n	0x394
     7f0:	e000      	b.n	0x7f4
     7f2:	e5d4      	b.n	0x39e
     7f4:	0002      	movs	r2, r0
     7f6:	e153      	b.n	0xaa0
     7f8:	000a      	movs	r2, r1
     7fa:	0a00      	lsrs	r0, r0, #8
     7fc:	0000      	movs	r0, r0
     7fe:	e35c      	b.n	0xeba
     800:	e000      	b.n	0x804
     802:	15c4      	asrs	r4, r0, #23
     804:	0093      	lsls	r3, r2, #2
     806:	eb00 0000 	add.w	r0, r0, r0
     80a:	e350      	b.n	0xeae
     80c:	200a      	movs	r0, #10
     80e:	c3a0      	stmia	r3!, {r5, r7}
     810:	3020      	adds	r0, #32
     812:	c59f      	stmia	r5!, {r0, r1, r2, r3, r4, r7}
     814:	0001      	movs	r1, r0
     816:	c3a0      	stmia	r3!, {r5, r7}
     818:	0000      	movs	r0, r0
     81a:	d3a0      	bcc.n	0x75e
     81c:	2000      	movs	r0, #0
     81e:	c583      	stmia	r5!, {r0, r1, r7}
     820:	4010      	ands	r0, r2
     822:	e8bd ff1e 	ldmia.w	sp!, {r1, r2, r3, r4, r8, r9, sl, fp, ip, sp, lr, pc}
     826:	e12f      	b.n	0xa88
     828:	c001      	stmia	r0!, {r0}
     82a:	e3a0      	b.n	0xf6e
     82c:	e003      	b.n	0x836
     82e:	e1a0      	b.n	0xb72
     830:	ffef eaff 			; <UNDEFINED> instruction: 0xffefeaff
     834:	2bb4      	cmp	r3, #180	; 0xb4
     836:	0300      	lsls	r0, r0, #12
     838:	2bb0      	cmp	r3, #176	; 0xb0
     83a:	0300      	lsls	r0, r0, #12
     83c:	3002      	adds	r0, #2
     83e:	e240      	b.n	0xcc2
     840:	0000      	movs	r0, r0
     842:	e273      	b.n	0xd2c
     844:	0003      	movs	r3, r0
     846:	e0a0      	b.n	0x98a
     848:	ff1e e12f 	vrhadd.u16	d14, d14, d31
     84c:	0000      	movs	r0, r0
     84e:	e350      	b.n	0xef2
     850:	3004      	adds	r0, #4
     852:	059f      	lsls	r7, r3, #22
     854:	0000      	movs	r0, r0
     856:	0583      	lsls	r3, r0, #22
     858:	ff1e e12f 	vrhadd.u16	d14, d14, d31
     85c:	2c8c      	cmp	r4, #140	; 0x8c
     85e:	0300      	lsls	r0, r0, #12
     860:	0000      	movs	r0, r0
     862:	e351      	b.n	0xf08
     864:	0043      	lsls	r3, r0, #1
     866:	0a00      	lsrs	r0, r0, #8
     868:	c001      	stmia	r0!, {r0}
     86a:	e020      	b.n	0x8ae
     86c:	1000      	asrs	r0, r0, #32
     86e:	4261      	negs	r1, r4
     870:	2001      	movs	r0, #1
     872:	e251      	b.n	0xd18
     874:	0027      	movs	r7, r4
     876:	0a00      	lsrs	r0, r0, #8
     878:	3000      	adds	r0, #0
     87a:	e1b0      	b.n	0xbde
     87c:	3000      	adds	r0, #0
     87e:	4260      	negs	r0, r4
     880:	0001      	movs	r1, r0
     882:	e153      	b.n	0xb2c
     884:	0026      	movs	r6, r4
     886:	9a00      	ldr	r2, [sp, #0]
     888:	0002      	movs	r2, r0
     88a:	e111      	b.n	0xab0
     88c:	0028      	movs	r0, r5
     88e:	0a00      	lsrs	r0, r0, #8
     890:	020e      	lsls	r6, r1, #8
     892:	e311      	b.n	0xeb8
     894:	1181      	asrs	r1, r0, #6
     896:	01a0      	lsls	r0, r4, #6
     898:	2008      	movs	r0, #8
     89a:	03a0      	lsls	r0, r4, #14
     89c:	2001      	movs	r0, #1
     89e:	13a0      	asrs	r0, r4, #14
     8a0:	0201      	lsls	r1, r0, #8
     8a2:	e351      	b.n	0xf48
     8a4:	0003      	movs	r3, r0
     8a6:	3151      	adds	r1, #81	; 0x51
     8a8:	1201      	asrs	r1, r0, #8
     8aa:	31a0      	adds	r1, #160	; 0xa0
     8ac:	2202      	movs	r2, #2
     8ae:	31a0      	adds	r1, #160	; 0xa0
     8b0:	fffa 3aff 			; <UNDEFINED> instruction: 0xfffa3aff
     8b4:	0102      	lsls	r2, r0, #4
     8b6:	e351      	b.n	0xf5c
     8b8:	0003      	movs	r3, r0
     8ba:	3151      	adds	r1, #81	; 0x51
     8bc:	1081      	asrs	r1, r0, #2
     8be:	31a0      	adds	r1, #160	; 0xa0
     8c0:	2082      	movs	r0, #130	; 0x82
     8c2:	31a0      	adds	r1, #160	; 0xa0
     8c4:	fffa 3aff 			; <UNDEFINED> instruction: 0xfffa3aff
     8c8:	0000      	movs	r0, r0
     8ca:	e3a0      	b.n	0x100e
     8cc:	0001      	movs	r1, r0
     8ce:	e153      	b.n	0xb78
     8d0:	3001      	adds	r0, #1
     8d2:	2043      	movs	r0, #67	; 0x43
     8d4:	0002      	movs	r2, r0
     8d6:	2180      	movs	r1, #128	; 0x80
     8d8:	00a1      	lsls	r1, r4, #2
     8da:	e153      	b.n	0xb84
     8dc:	30a1      	adds	r0, #161	; 0xa1
     8de:	2043      	movs	r0, #67	; 0x43
     8e0:	00a2      	lsls	r2, r4, #2
     8e2:	2180      	movs	r1, #128	; 0x80
     8e4:	0121      	lsls	r1, r4, #4
     8e6:	e153      	b.n	0xb90
     8e8:	3121      	adds	r1, #33	; 0x21
     8ea:	2043      	movs	r0, #67	; 0x43
     8ec:	0122      	lsls	r2, r4, #4
     8ee:	2180      	movs	r1, #128	; 0x80
     8f0:	01a1      	lsls	r1, r4, #6
     8f2:	e153      	b.n	0xb9c
     8f4:	31a1      	adds	r1, #161	; 0xa1
     8f6:	2043      	movs	r0, #67	; 0x43
     8f8:	01a2      	lsls	r2, r4, #6
     8fa:	2180      	movs	r1, #128	; 0x80
     8fc:	0000      	movs	r0, r0
     8fe:	e353      	b.n	0xfa8
     900:	2222      	movs	r2, #34	; 0x22
     902:	11b0      	asrs	r0, r6, #6
     904:	1221      	asrs	r1, r4, #8
     906:	11a0      	asrs	r0, r4, #6
     908:	ffef 1aff 			; <UNDEFINED> instruction: 0xffef1aff
     90c:	0000      	movs	r0, r0
     90e:	e35c      	b.n	0xfca
     910:	0000      	movs	r0, r0
     912:	4260      	negs	r0, r4
     914:	ff1e e12f 	vrhadd.u16	d14, d14, d31
     918:	0000      	movs	r0, r0
     91a:	e13c      	b.n	0xb96
     91c:	0000      	movs	r0, r0
     91e:	4260      	negs	r0, r4
     920:	ff1e e12f 	vrhadd.u16	d14, d14, d31
     924:	0000      	movs	r0, r0
     926:	33a0      	adds	r3, #160	; 0xa0
     928:	0fcc      	lsrs	r4, r1, #31
     92a:	01a0      	lsls	r0, r4, #6
     92c:	0001      	movs	r1, r0
     92e:	0380      	lsls	r0, r0, #14
     930:	ff1e e12f 	vrhadd.u16	d14, d14, d31
     934:	0801      	lsrs	r1, r0, #32
     936:	e351      	b.n	0xfdc
     938:	1821      	adds	r1, r4, r0
     93a:	21a0      	movs	r1, #160	; 0xa0
     93c:	2010      	movs	r0, #16
     93e:	23a0      	movs	r3, #160	; 0xa0
     940:	2000      	movs	r0, #0
     942:	33a0      	adds	r3, #160	; 0xa0
     944:	0c01      	lsrs	r1, r0, #16
     946:	e351      	b.n	0xfec
     948:	1421      	asrs	r1, r4, #16
     94a:	21a0      	movs	r1, #160	; 0xa0
     94c:	2008      	movs	r0, #8
     94e:	2282      	movs	r2, #130	; 0x82
     950:	0010      	movs	r0, r2
     952:	e351      	b.n	0xff8
     954:	1221      	asrs	r1, r4, #8
     956:	21a0      	movs	r1, #160	; 0xa0
     958:	2004      	movs	r0, #4
     95a:	2282      	movs	r2, #130	; 0x82
     95c:	0004      	movs	r4, r0
     95e:	e351      	b.n	0x1004
     960:	2003      	movs	r0, #3
     962:	8282      	strh	r2, [r0, #20]
     964:	20a1      	movs	r0, #161	; 0xa1
     966:	9082      	str	r0, [sp, #520]	; 0x208
     968:	0000      	movs	r0, r0
     96a:	e35c      	b.n	0x1026
     96c:	0233      	lsls	r3, r6, #8
     96e:	e1a0      	b.n	0xcb2
     970:	0000      	movs	r0, r0
     972:	4260      	negs	r0, r4
     974:	ff1e e12f 	vrhadd.u16	d14, d14, d31
     978:	0000      	movs	r0, r0
     97a:	e350      	b.n	0x101e
     97c:	0102      	lsls	r2, r0, #4
     97e:	c3e0      	stmia	r3!, {r5, r6, r7}
     980:	0102      	lsls	r2, r0, #4
     982:	b3a0      	cbz	r0, 0x9ee
     984:	0007      	movs	r7, r0
     986:	ea00 0000 	and.w	r0, r0, r0
     98a:	e351      	b.n	0x1030
     98c:	fff9 0aff 			; <UNDEFINED> instruction: 0xfff90aff
     990:	4003      	ands	r3, r0
     992:	e92d ffb3 	stmdb	sp!, {r0, r1, r4, r5, r7, r8, r9, sl, fp, ip, sp, lr, pc}
     996:	ebff 4006 			; <UNDEFINED> instruction: 0xebff4006
     99a:	e8bd 0092 	ldmia.w	sp!, {r1, r4, r7}
     99e:	e003      	b.n	0x9a8
     9a0:	1003      	asrs	r3, r0, #32
     9a2:	e041      	b.n	0xa28
     9a4:	ff1e e12f 	vrhadd.u16	d14, d14, d31
     9a8:	ff1e e12f 	vrhadd.u16	d14, d14, d31
     9ac:	0000      	movs	r0, r0
     9ae:	e353      	b.n	0x1058
     9b0:	0000      	movs	r0, r0
     9b2:	0352      	lsls	r2, r2, #13
     9b4:	0004      	movs	r4, r0
     9b6:	1a00      	subs	r0, r0, r0
     9b8:	0000      	movs	r0, r0
     9ba:	e351      	b.n	0x1060
     9bc:	0000      	movs	r0, r0
     9be:	0350      	lsls	r0, r2, #13
     9c0:	1000      	asrs	r0, r0, #32
     9c2:	13e0      	asrs	r0, r4, #15
     9c4:	0000      	movs	r0, r0
     9c6:	13e0      	asrs	r0, r4, #15
     9c8:	fff6 eaff 			; <UNDEFINED> instruction: 0xfff6eaff
     9cc:	d008      	beq.n	0x9e0
     9ce:	e24d      	b.n	0xe6c
     9d0:	6000      	str	r0, [r0, #0]
     9d2:	e92d 030b 	stmdb	sp!, {r0, r1, r3, r8, r9}
     9d6:	eb00 e004 			; <UNDEFINED> instruction: 0xeb00e004
     9da:	e59d      	b.n	0x518
     9dc:	d008      	beq.n	0x9f0
     9de:	e28d      	b.n	0xefc
     9e0:	000c      	movs	r4, r1
     9e2:	e8bd ff1e 	ldmia.w	sp!, {r1, r2, r3, r4, r8, r9, sl, fp, ip, sp, lr, pc}
     9e6:	e12f      	b.n	0xc48
     9e8:	4010      	ands	r0, r2
     9ea:	e92d 0000 	stmdb	sp!, {}
     9ee:	e351      	b.n	0x1094
     9f0:	0002      	movs	r2, r0
     9f2:	1a00      	subs	r0, r0, r0
     9f4:	0005      	movs	r5, r0
     9f6:	eb00 0020 	add.w	r0, r0, r0, asr #32
     9fa:	e280      	b.n	0xefe
     9fc:	0001      	movs	r1, r0
     9fe:	ea00 0001 	and.w	r0, r0, r1
     a02:	e1a0      	b.n	0xd46
     a04:	0001      	movs	r1, r0
     a06:	eb00 4010 	add.w	r0, r0, r0, lsr #16
     a0a:	e8bd ff1e 	ldmia.w	sp!, {r1, r2, r3, r4, r8, r9, sl, fp, ip, sp, lr, pc}
     a0e:	e12f      	b.n	0xc70
     a10:	101c      	asrs	r4, r3, #32
     a12:	e3a0      	b.n	0x1156
     a14:	0801      	lsrs	r1, r0, #32
     a16:	e350      	b.n	0x10ba
     a18:	0820      	lsrs	r0, r4, #32
     a1a:	21a0      	movs	r1, #160	; 0xa0
     a1c:	1010      	asrs	r0, r2, #32
     a1e:	2241      	movs	r2, #65	; 0x41
     a20:	0c01      	lsrs	r1, r0, #16
     a22:	e350      	b.n	0x10c6
     a24:	0420      	lsls	r0, r4, #16
     a26:	21a0      	movs	r1, #160	; 0xa0
     a28:	1008      	asrs	r0, r1, #32
     a2a:	2241      	movs	r2, #65	; 0x41
     a2c:	0010      	movs	r0, r2
     a2e:	e350      	b.n	0x10d2
     a30:	0220      	lsls	r0, r4, #8
     a32:	21a0      	movs	r1, #160	; 0xa0
     a34:	1004      	asrs	r4, r0, #32
     a36:	2241      	movs	r2, #65	; 0x41
     a38:	2008      	movs	r0, #8
     a3a:	e28f      	b.n	0xf5c
     a3c:	0000      	movs	r0, r0
     a3e:	e7d2      	b.n	0x9e6
     a40:	0001      	movs	r1, r0
     a42:	e080      	b.n	0xb46
     a44:	ff1e e12f 	vrhadd.u16	d14, d14, d31
     a48:	0304      	lsls	r4, r0, #12
     a4a:	0202      	lsls	r2, r0, #8
     a4c:	0101      	lsls	r1, r0, #4
     a4e:	0101      	lsls	r1, r0, #4
	...
     a58:	c001      	stmia	r0!, {r0}
     a5a:	e020      	b.n	0xa9e
     a5c:	0003      	movs	r3, r0
     a5e:	e31c      	b.n	0x109a
     a60:	0021      	movs	r1, r4
     a62:	1a00      	subs	r0, r0, r0
     a64:	c003      	stmia	r0!, {r0, r1}
     a66:	e210      	b.n	0xe8a
     a68:	0003      	movs	r3, r0
     a6a:	e3c0      	b.n	0x11ee
     a6c:	1003      	asrs	r3, r0, #32
     a6e:	e3c1      	b.n	0x11f4
     a70:	2004      	movs	r0, #4
     a72:	e490      	b.n	0x396
     a74:	3004      	adds	r0, #4
     a76:	0491      	lsls	r1, r2, #18
     a78:	0006      	movs	r6, r0
     a7a:	0a00      	lsrs	r0, r0, #8
     a7c:	c003      	stmia	r0!, {r0, r1}
     a7e:	e22c      	b.n	0xeda
     a80:	34ff      	adds	r4, #255	; 0xff
     a82:	e3e0      	b.n	0x1246
     a84:	c18c      	stmia	r1!, {r2, r3, r7}
     a86:	e1a0      	b.n	0xdca
     a88:	cc33      	ldmia	r4, {r0, r1, r4, r5}
     a8a:	e1a0      	b.n	0xdce
     a8c:	3004      	adds	r0, #4
     a8e:	e491      	b.n	0x3b4
     a90:	200c      	movs	r0, #12
     a92:	e182      	b.n	0xd9a
     a94:	300c      	adds	r0, #12
     a96:	e183      	b.n	0xda0
     a98:	4004      	ands	r4, r0
     a9a:	e52d      	b.n	0x4f8
     a9c:	4001      	ands	r1, r0
     a9e:	e3a0      	b.n	0x11e2
     aa0:	4404      	add	r4, r0
     aa2:	e184      	b.n	0xdae
     aa4:	4804      	ldr	r0, [pc, #16]	; (0xab8)
     aa6:	e184      	b.n	0xdb2
     aa8:	c004      	stmia	r0!, {r2}
     aaa:	e042      	b.n	0xb32
     aac:	0003      	movs	r3, r0
     aae:	e152      	b.n	0xd56
     ab0:	c002      	stmia	r0!, {r1}
     ab2:	01cc      	lsls	r4, r1, #7
     ab4:	0384      	lsls	r4, r0, #14
     ab6:	011c      	lsls	r4, r3, #4
     ab8:	2004      	movs	r0, #4
     aba:	0490      	lsls	r0, r2, #18
     abc:	3004      	adds	r0, #4
     abe:	0491      	lsls	r1, r2, #18
     ac0:	fff8 0aff 			; <UNDEFINED> instruction: 0xfff80aff
     ac4:	0c02      	lsrs	r2, r0, #16
     ac6:	e1a0      	b.n	0xe0a
     ac8:	2422      	movs	r4, #34	; 0x22
     aca:	e1a0      	b.n	0xe0e
     acc:	0001      	movs	r1, r0
     ace:	e350      	b.n	0x1172
     ad0:	0c03      	lsrs	r3, r0, #16
     ad2:	2150      	movs	r1, #80	; 0x50
     ad4:	3423      	adds	r4, #35	; 0x23
     ad6:	01a0      	lsls	r0, r4, #6
     ad8:	fff9 0aff 			; <UNDEFINED> instruction: 0xfff90aff
     adc:	30ff      	adds	r0, #255	; 0xff
     ade:	e203      	b.n	0xee8
     ae0:	0c20      	lsrs	r0, r4, #16
     ae2:	e063      	b.n	0xbac
     ae4:	4004      	ands	r4, r0
     ae6:	e49d      	b.n	0x424
     ae8:	ff1e e12f 	vrhadd.u16	d14, d14, d31
     aec:	0003      	movs	r3, r0
     aee:	e310      	b.n	0x1112
     af0:	0006      	movs	r6, r0
     af2:	0a00      	lsrs	r0, r0, #8
     af4:	2001      	movs	r0, #1
     af6:	e4d0      	b.n	0x49a
     af8:	3001      	adds	r0, #1
     afa:	e4d1      	b.n	0x4a0
     afc:	0001      	movs	r1, r0
     afe:	e352      	b.n	0x11a6
     b00:	0003      	movs	r3, r0
     b02:	2152      	movs	r1, #82	; 0x52
     b04:	fff8 0aff 			; <UNDEFINED> instruction: 0xfff80aff
     b08:	0003      	movs	r3, r0
     b0a:	e042      	b.n	0xb92
     b0c:	ff1e e12f 	vrhadd.u16	d14, d14, d31
     b10:	0030      	movs	r0, r6
     b12:	e92d 4001 	stmdb	sp!, {r0, lr}
     b16:	e3a0      	b.n	0x125a
     b18:	4404      	add	r4, r0
     b1a:	e184      	b.n	0xe26
     b1c:	4804      	ldr	r0, [pc, #16]	; (0xb30)
     b1e:	e184      	b.n	0xe2a
     b20:	2004      	movs	r0, #4
     b22:	e490      	b.n	0x446
     b24:	5003      	str	r3, [r0, r0]
     b26:	e201      	b.n	0xf2c
     b28:	1003      	asrs	r3, r0, #32
     b2a:	e3c1      	b.n	0x12b0
     b2c:	3004      	adds	r0, #4
     b2e:	e491      	b.n	0x454
     b30:	0002      	movs	r2, r0
     b32:	e355      	b.n	0x11e0
     b34:	0017      	movs	r7, r2
     b36:	0a00      	lsrs	r0, r0, #8
     b38:	002d      	movs	r5, r5
     b3a:	8a00      	ldrh	r0, [r0, #16]
     b3c:	54ff      	strb	r7, [r7, r3]
     b3e:	e3c2      	b.n	0x12c6
     b40:	0423      	lsls	r3, r4, #16
     b42:	e155      	b.n	0xdf0
     b44:	c004      	stmia	r0!, {r2}
     b46:	e042      	b.n	0xbce
     b48:	c002      	stmia	r0!, {r1}
     b4a:	e1cc      	b.n	0xee6
     b4c:	0007      	movs	r7, r0
     b4e:	1a00      	subs	r0, r0, r0
     b50:	c384      	stmia	r3!, {r2, r7}
     b52:	e01c      	b.n	0xb8e
     b54:	3004      	adds	r0, #4
     b56:	0491      	lsls	r1, r2, #18
     b58:	0006      	movs	r6, r0
     b5a:	1a00      	subs	r0, r0, r0
     b5c:	5002      	str	r2, [r0, r0]
     b5e:	e025      	b.n	0xbac
     b60:	0c03      	lsrs	r3, r0, #16
     b62:	e155      	b.n	0xe10
     b64:	0008      	movs	r0, r1
     b66:	1a00      	subs	r0, r0, r0
     b68:	2004      	movs	r0, #4
     b6a:	e490      	b.n	0x48e
     b6c:	fff2 eaff 			; <UNDEFINED> instruction: 0xfff2eaff
     b70:	3423      	adds	r4, #35	; 0x23
     b72:	e1a0      	b.n	0xeb6
     b74:	0036      	movs	r6, r6
     b76:	ea00 c4ff 			; <UNDEFINED> instruction: 0xea00c4ff
     b7a:	e3dc      	b.n	0x1336
     b7c:	0031      	movs	r1, r6
     b7e:	1a00      	subs	r0, r0, r0
     b80:	3000      	adds	r0, #0
     b82:	e5d1      	b.n	0x728
     b84:	5c22      	ldrb	r2, [r4, r0]
     b86:	e1a0      	b.n	0xeca
     b88:	0031      	movs	r1, r6
     b8a:	ea00 5c22 	and.w	ip, r0, r2, asr #20
     b8e:	e1a0      	b.n	0xed2
     b90:	30ff      	adds	r0, #255	; 0xff
     b92:	e203      	b.n	0xf9c
     b94:	002e      	movs	r6, r5
     b96:	ea00 5802 	and.w	r8, r0, r2, lsl #20
     b9a:	e1a0      	b.n	0xede
     b9c:	c004      	stmia	r0!, {r2}
     b9e:	e042      	b.n	0xc26
     ba0:	5825      	ldr	r5, [r4, r0]
     ba2:	e1a0      	b.n	0xee6
     ba4:	c002      	stmia	r0!, {r1}
     ba6:	e1cc      	b.n	0xf42
     ba8:	0823      	lsrs	r3, r4, #32
     baa:	e155      	b.n	0xe58
     bac:	000e      	movs	r6, r1
     bae:	1a00      	subs	r0, r0, r0
     bb0:	c384      	stmia	r3!, {r2, r7}
     bb2:	e01c      	b.n	0xbee
     bb4:	3004      	adds	r0, #4
     bb6:	0491      	lsls	r1, r2, #18
     bb8:	0004      	movs	r4, r0
     bba:	1a00      	subs	r0, r0, r0
     bbc:	5002      	str	r2, [r0, r0]
     bbe:	e025      	b.n	0xc0c
     bc0:	0803      	lsrs	r3, r0, #32
     bc2:	e155      	b.n	0xe70
     bc4:	0006      	movs	r6, r0
     bc6:	1a00      	subs	r0, r0, r0
     bc8:	2004      	movs	r0, #4
     bca:	e490      	b.n	0x4ee
     bcc:	fff1 eaff 			; <UNDEFINED> instruction: 0xfff1eaff
     bd0:	c80c      	ldmia	r0!, {r2, r3}
     bd2:	e1b0      	b.n	0xf36
     bd4:	001b      	movs	r3, r3
     bd6:	1a00      	subs	r0, r0, r0
     bd8:	30b0      	adds	r0, #176	; 0xb0
     bda:	e1d1      	b.n	0xf80
     bdc:	5822      	ldr	r2, [r4, r0]
     bde:	e1a0      	b.n	0xf22
     be0:	001b      	movs	r3, r3
     be2:	ea00 3803 	and.w	r8, r0, r3, lsl #12
     be6:	e1a0      	b.n	0xf2a
     be8:	5822      	ldr	r2, [r4, r0]
     bea:	e1a0      	b.n	0xf2e
     bec:	3823      	subs	r0, #35	; 0x23
     bee:	e1a0      	b.n	0xf32
     bf0:	0017      	movs	r7, r2
     bf2:	ea00 50ff 	and.w	r0, r0, pc, ror #23
     bf6:	e202      	b.n	0xffe
     bf8:	0c23      	lsrs	r3, r4, #16
     bfa:	e155      	b.n	0xea8
     bfc:	c004      	stmia	r0!, {r2}
     bfe:	e042      	b.n	0xc86
     c00:	c002      	stmia	r0!, {r1}
     c02:	e1cc      	b.n	0xf9e
     c04:	0007      	movs	r7, r0
     c06:	1a00      	subs	r0, r0, r0
     c08:	c384      	stmia	r3!, {r2, r7}
     c0a:	e01c      	b.n	0xc46
     c0c:	3004      	adds	r0, #4
     c0e:	0491      	lsls	r1, r2, #18
     c10:	0006      	movs	r6, r0
     c12:	1a00      	subs	r0, r0, r0
     c14:	5002      	str	r2, [r0, r0]
     c16:	e025      	b.n	0xc64
     c18:	0403      	lsls	r3, r0, #16
     c1a:	e155      	b.n	0xec8
     c1c:	0006      	movs	r6, r0
     c1e:	1a00      	subs	r0, r0, r0
     c20:	2004      	movs	r0, #4
     c22:	e490      	b.n	0x546
     c24:	fff2 eaff 			; <UNDEFINED> instruction: 0xfff2eaff
     c28:	3c23      	subs	r4, #35	; 0x23
     c2a:	e1a0      	b.n	0xf6e
     c2c:	0008      	movs	r0, r1
     c2e:	ea00 00ff 	and.w	r0, r0, pc, ror #3
     c32:	e312      	b.n	0x125a
     c34:	0003      	movs	r3, r0
     c36:	0a00      	lsrs	r0, r0, #8
     c38:	3004      	adds	r0, #4
     c3a:	e491      	b.n	0x560
     c3c:	5422      	strb	r2, [r4, r0]
     c3e:	e1a0      	b.n	0xf82
     c40:	34ff      	adds	r4, #255	; 0xff
     c42:	e3c3      	b.n	0x13cc
     c44:	0002      	movs	r2, r0
     c46:	ea00 0000 	and.w	r0, r0, r0
     c4a:	e3a0      	b.n	0x138e
     c4c:	0030      	movs	r0, r6
     c4e:	e8bd ff1e 	ldmia.w	sp!, {r1, r2, r3, r4, r8, r9, sl, fp, ip, sp, lr, pc}
     c52:	e12f      	b.n	0xeb4
     c54:	20ff      	movs	r0, #255	; 0xff
     c56:	e205      	b.n	0x1064
     c58:	00ff      	lsls	r7, r7, #3
     c5a:	e203      	b.n	0x1064
     c5c:	0001      	movs	r1, r0
     c5e:	e350      	b.n	0x1302
     c60:	0002      	movs	r2, r0
     c62:	2150      	movs	r1, #80	; 0x50
     c64:	5425      	strb	r5, [r4, r0]
     c66:	01a0      	lsls	r0, r4, #6
     c68:	3423      	adds	r4, #35	; 0x23
     c6a:	01a0      	lsls	r0, r4, #6
     c6c:	fff8 0aff 			; <UNDEFINED> instruction: 0xfff80aff
     c70:	0000      	movs	r0, r0
     c72:	e042      	b.n	0xcfa
     c74:	0030      	movs	r0, r6
     c76:	e8bd ff1e 	ldmia.w	sp!, {r1, r2, r3, r4, r8, r9, sl, fp, ip, sp, lr, pc}
     c7a:	e12f      	b.n	0xedc
     c7c:	0018      	movs	r0, r3
     c7e:	e59f      	b.n	0x7c0
     c80:	3018      	adds	r0, #24
     c82:	e59f      	b.n	0x7c4
     c84:	0000      	movs	r0, r0
     c86:	e153      	b.n	0xf30
     c88:	ff1e 012f 	vrhadd.u16	d0, d14, d31
     c8c:	3010      	adds	r0, #16
     c8e:	e59f      	b.n	0x7d0
     c90:	0000      	movs	r0, r0
     c92:	e353      	b.n	0x133c
     c94:	ff1e 012f 	vrhadd.u16	d0, d14, d31
     c98:	ff13 e12f 	vrhadd.u16	d14, d3, d31
     c9c:	2c94      	cmp	r4, #148	; 0x94
     c9e:	0300      	lsls	r0, r0, #12
     ca0:	2c94      	cmp	r4, #148	; 0x94
     ca2:	0300      	lsls	r0, r0, #12
     ca4:	0000      	movs	r0, r0
     ca6:	0000      	movs	r0, r0
     ca8:	0024      	movs	r4, r4
     caa:	e59f      	b.n	0x7ec
     cac:	1024      	asrs	r4, r4, #32
     cae:	e59f      	b.n	0x7f0
     cb0:	1000      	asrs	r0, r0, #32
     cb2:	e041      	b.n	0xd38
     cb4:	1141      	asrs	r1, r0, #5
     cb6:	e1a0      	b.n	0xffa
     cb8:	1fa1      	subs	r1, r4, #6
     cba:	e081      	b.n	0xdc0
     cbc:	10c1      	asrs	r1, r0, #3
     cbe:	e1b0      	b.n	0x1022
     cc0:	ff1e 012f 	vrhadd.u16	d0, d14, d31
     cc4:	3010      	adds	r0, #16
     cc6:	e59f      	b.n	0x808
     cc8:	0000      	movs	r0, r0
     cca:	e353      	b.n	0x1374
     ccc:	ff1e 012f 	vrhadd.u16	d0, d14, d31
     cd0:	ff13 e12f 	vrhadd.u16	d14, d3, d31
     cd4:	2c94      	cmp	r4, #148	; 0x94
     cd6:	0300      	lsls	r0, r0, #12
     cd8:	2c94      	cmp	r4, #148	; 0x94
     cda:	0300      	lsls	r0, r0, #12
     cdc:	0000      	movs	r0, r0
     cde:	0000      	movs	r0, r0
     ce0:	4010      	ands	r0, r2
     ce2:	e92d 402c 	stmdb	sp!, {r2, r3, r5, lr}
     ce6:	e59f      	b.n	0x828
     ce8:	3000      	adds	r0, #0
     cea:	e5d4      	b.n	0x896
     cec:	0000      	movs	r0, r0
     cee:	e353      	b.n	0x1398
     cf0:	0006      	movs	r6, r0
     cf2:	1a00      	subs	r0, r0, r0
     cf4:	ffe0 ebff 			; <UNDEFINED> instruction: 0xffe0ebff
     cf8:	301c      	adds	r0, #28
     cfa:	e59f      	b.n	0x83c
     cfc:	0000      	movs	r0, r0
     cfe:	e353      	b.n	0x13a8
     d00:	0018      	movs	r0, r3
     d02:	159f      	asrs	r7, r3, #22
     d04:	0000      	movs	r0, r0
     d06:	11a0      	asrs	r0, r4, #6
     d08:	3001      	adds	r0, #1
     d0a:	e3a0      	b.n	0x144e
     d0c:	3000      	adds	r0, #0
     d0e:	e5c4      	b.n	0x89a
     d10:	4010      	ands	r0, r2
     d12:	e8bd ff1e 	ldmia.w	sp!, {r1, r2, r3, r4, r8, r9, sl, fp, ip, sp, lr, pc}
     d16:	e12f      	b.n	0xf78
     d18:	0000      	movs	r0, r0
     d1a:	0300      	lsls	r0, r0, #12
     d1c:	0000      	movs	r0, r0
     d1e:	0000      	movs	r0, r0
     d20:	1df0      	adds	r0, r6, #7
     d22:	0800      	lsrs	r0, r0, #32
     d24:	3020      	adds	r0, #32
     d26:	e59f      	b.n	0x868
     d28:	0000      	movs	r0, r0
     d2a:	e353      	b.n	0x13d4
     d2c:	0005      	movs	r5, r0
     d2e:	0a00      	lsrs	r0, r0, #8
     d30:	4010      	ands	r0, r2
     d32:	e92d 1014 	stmdb	sp!, {r2, r4, ip}
     d36:	e59f      	b.n	0x878
     d38:	0014      	movs	r4, r2
     d3a:	e59f      	b.n	0x87c
     d3c:	0000      	movs	r0, r0
     d3e:	e1a0      	b.n	0x1082
     d40:	4010      	ands	r0, r2
     d42:	e8bd ffd7 	ldmia.w	sp!, {r0, r1, r2, r4, r6, r7, r8, r9, sl, fp, ip, sp, lr, pc}
     d46:	eaff ffd6 			; <UNDEFINED> instruction: 0xeaffffd6
     d4a:	eaff 0000 			; <UNDEFINED> instruction: 0xeaff0000
     d4e:	0000      	movs	r0, r0
     d50:	0004      	movs	r4, r0
     d52:	0300      	lsls	r0, r0, #12
     d54:	1df0      	adds	r0, r6, #7
     d56:	0800      	lsrs	r0, r0, #32
     d58:	3402      	adds	r4, #2
     d5a:	e3a0      	b.n	0x149e
     d5c:	2000      	movs	r0, #0
     d5e:	e3a0      	b.n	0x14a2
     d60:	4ff0      	ldr	r7, [pc, #960]	; (0x1124)
     d62:	e92d d04c 	stmdb	sp!, {r2, r3, r6, ip, lr, pc}
     d66:	e24d      	b.n	0x1204
     d68:	2001      	movs	r0, #1
     d6a:	e4c3      	b.n	0x6f4
     d6c:	0781      	lsls	r1, r0, #30
     d6e:	e353      	b.n	0x1418
     d70:	fffc 1aff 			; <UNDEFINED> instruction: 0xfffc1aff
     d74:	007b      	lsls	r3, r7, #1
     d76:	e3e0      	b.n	0x153a
     d78:	c07c      	stmia	r0!, {r2, r3, r4, r5, r6}
     d7a:	e3e0      	b.n	0x153e
     d7c:	379c      	adds	r7, #156	; 0x9c
     d7e:	e59f      	b.n	0x8c0
     d80:	1004      	asrs	r4, r0, #32
     d82:	e593      	b.n	0x8ac
     d84:	3798      	adds	r7, #152	; 0x98
     d86:	e59f      	b.n	0x8c8
     d88:	0003      	movs	r3, r0
     d8a:	e311      	b.n	0x13b0
     d8c:	2000      	movs	r0, #0
     d8e:	e5c3      	b.n	0x918
     d90:	2001      	movs	r0, #1
     d92:	e5c3      	b.n	0x91c
     d94:	c002      	stmia	r0!, {r1}
     d96:	e5c3      	b.n	0x920
     d98:	2004      	movs	r0, #4
     d9a:	e5c3      	b.n	0x924
     d9c:	2005      	movs	r0, #5
     d9e:	e5c3      	b.n	0x928
     da0:	0006      	movs	r6, r0
     da2:	e5c3      	b.n	0x92c
     da4:	2008      	movs	r0, #8
     da6:	e5c3      	b.n	0x930
     da8:	2009      	movs	r0, #9
     daa:	e5c3      	b.n	0x934
     dac:	000a      	movs	r2, r1
     dae:	e5c3      	b.n	0x938
     db0:	200c      	movs	r0, #12
     db2:	e5c3      	b.n	0x93c
     db4:	200d      	movs	r0, #13
     db6:	e5c3      	b.n	0x940
     db8:	000e      	movs	r6, r1
     dba:	e5c3      	b.n	0x944
     dbc:	0005      	movs	r5, r0
     dbe:	0a00      	lsrs	r0, r0, #8
     dc0:	3001      	adds	r0, #1
     dc2:	e281      	b.n	0x12c8
     dc4:	2003      	movs	r0, #3
     dc6:	e203      	b.n	0x11d0
     dc8:	0000      	movs	r0, r0
     dca:	e352      	b.n	0x1472
     dcc:	1003      	asrs	r3, r0, #32
     dce:	e1a0      	b.n	0x1112
     dd0:	3001      	adds	r0, #1
     dd2:	e283      	b.n	0x12dc
     dd4:	fffa 1aff 			; <UNDEFINED> instruction: 0xfffa1aff
     dd8:	0030      	movs	r0, r6
     dda:	e281      	b.n	0x12e0
     ddc:	3744      	adds	r7, #68	; 0x44
     dde:	e59f      	b.n	0x920
     de0:	0003      	movs	r3, r0
     de2:	e310      	b.n	0x1406
     de4:	1000      	asrs	r0, r0, #32
     de6:	e583      	b.n	0x8f0
     de8:	0005      	movs	r5, r0
     dea:	0a00      	lsrs	r0, r0, #8
     dec:	3031      	adds	r0, #49	; 0x31
     dee:	e281      	b.n	0x12f4
     df0:	2003      	movs	r0, #3
     df2:	e203      	b.n	0x11fc
     df4:	0000      	movs	r0, r0
     df6:	e352      	b.n	0x149e
     df8:	0003      	movs	r3, r0
     dfa:	e1a0      	b.n	0x113e
     dfc:	3001      	adds	r0, #1
     dfe:	e283      	b.n	0x1308
     e00:	fffa 1aff 			; <UNDEFINED> instruction: 0xfffa1aff
     e04:	4000      	ands	r0, r0
     e06:	e3a0      	b.n	0x154a
     e08:	2002      	movs	r0, #2
     e0a:	e3a0      	b.n	0x154e
     e0c:	3028      	adds	r0, #40	; 0x28
     e0e:	e3a0      	b.n	0x1552
     e10:	500a      	str	r2, [r1, r0]
     e12:	e3a0      	b.n	0x1556
     e14:	c710      	stmia	r7!, {r4}
     e16:	e59f      	b.n	0x958
     e18:	0000      	movs	r0, r0
     e1a:	e58c      	b.n	0x936
     e1c:	c6fc      	stmia	r6!, {r2, r3, r4, r5, r6, r7}
     e1e:	e59f      	b.n	0x960
     e20:	2008      	movs	r0, #8
     e22:	e5c0      	b.n	0x9a6
     e24:	1000      	asrs	r0, r0, #32
     e26:	e580      	b.n	0x92a
     e28:	300c      	adds	r0, #12
     e2a:	e580      	b.n	0x92e
     e2c:	4004      	ands	r4, r0
     e2e:	e5c0      	b.n	0x9b2
     e30:	3030      	adds	r0, #48	; 0x30
     e32:	e280      	b.n	0x1336
     e34:	201f      	movs	r0, #31
     e36:	e3a0      	b.n	0x157a
     e38:	16f0      	asrs	r0, r6, #27
     e3a:	e59f      	b.n	0x97c
     e3c:	0010      	movs	r0, r2
     e3e:	e280      	b.n	0x1342
     e40:	3004      	adds	r0, #4
     e42:	e58c      	b.n	0x95e
     e44:	025d      	lsls	r5, r3, #9
     e46:	eb00 e6e4 			; <UNDEFINED> instruction: 0xeb00e6e4
     e4a:	e59f      	b.n	0x98c
     e4c:	000f      	movs	r7, r1
     e4e:	e8be c008 	ldmia.w	lr!, {r3, lr, pc}
     e52:	e28d      	b.n	0x1370
     e54:	000f      	movs	r7, r1
     e56:	e8ac 000f 	stmia.w	ip!, {r0, r1, r2, r3}
     e5a:	e89e 0007 	ldmia.w	lr, {r0, r1, r2}
     e5e:	e8ac 30b2 	stmia.w	ip!, {r1, r4, r5, r7, ip, sp}
     e62:	e0cc      	b.n	0xffe
     e64:	3823      	subs	r0, #35	; 0x23
     e66:	e1a0      	b.n	0x11aa
     e68:	3000      	adds	r0, #0
     e6a:	e5cc      	b.n	0xa06
     e6c:	36c4      	adds	r6, #196	; 0xc4
     e6e:	e59f      	b.n	0x9b0
     e70:	16c4      	asrs	r4, r0, #27
     e72:	e59f      	b.n	0x9b4
     e74:	06c4      	lsls	r4, r0, #27
     e76:	e59f      	b.n	0x9b8
     e78:	565c      	ldrsb	r4, [r3, r1]
     e7a:	e583      	b.n	0x984
     e7c:	fce9 ebff 			; <UNDEFINED> instruction: 0xfce9ebff
     e80:	36bc      	adds	r6, #188	; 0xbc
     e82:	e59f      	b.n	0x9c4
     e84:	16bc      	asrs	r4, r7, #26
     e86:	e59f      	b.n	0x9c8
     e88:	06bc      	lsls	r4, r7, #26
     e8a:	e59f      	b.n	0x9cc
     e8c:	4000      	ands	r0, r0
     e8e:	e583      	b.n	0x998
     e90:	fce4 ebff 			; <UNDEFINED> instruction: 0xfce4ebff
     e94:	3688      	adds	r6, #136	; 0x88
     e96:	e59f      	b.n	0x9d8
     e98:	c005      	stmia	r0!, {r0, r2}
     e9a:	e5d3      	b.n	0xa44
     e9c:	1004      	asrs	r4, r0, #32
     e9e:	e5d3      	b.n	0xa48
     ea0:	0001      	movs	r1, r0
     ea2:	e5d3      	b.n	0xa4c
     ea4:	140c      	asrs	r4, r1, #16
     ea6:	e181      	b.n	0x11ac
     ea8:	3000      	adds	r0, #0
     eaa:	e5d3      	b.n	0xa54
     eac:	0401      	lsls	r1, r0, #16
     eae:	e180      	b.n	0x11b2
     eb0:	3400      	adds	r4, #0
     eb2:	e183      	b.n	0x11bc
     eb4:	0003      	movs	r3, r0
     eb6:	e093      	b.n	0xfe0
     eb8:	1004      	asrs	r4, r0, #32
     eba:	e0a4      	b.n	0x1006
     ebc:	0003      	movs	r3, r0
     ebe:	e090      	b.n	0xfe2
     ec0:	1004      	asrs	r4, r0, #32
     ec2:	e0a1      	b.n	0x1008
     ec4:	1511      	asrs	r1, r2, #20
     ec6:	e1a0      	b.n	0x120a
     ec8:	1b20      	subs	r0, r4, r4
     eca:	e181      	b.n	0x11d0
     ecc:	3000      	adds	r0, #0
     ece:	e3a0      	b.n	0x1612
     ed0:	0510      	lsls	r0, r2, #20
     ed2:	e1a0      	b.n	0x1216
     ed4:	2674      	movs	r6, #116	; 0x74
     ed6:	e59f      	b.n	0xa18
     ed8:	feb3 ebff 			; <UNDEFINED> instruction: 0xfeb3ebff
     edc:	a001      	add	r0, pc, #4	; (adr r0, 0xee4)
     ede:	e3a0      	b.n	0x1622
     ee0:	366c      	adds	r6, #108	; 0x6c
     ee2:	e59f      	b.n	0xa24
     ee4:	0000      	movs	r0, r0
     ee6:	e583      	b.n	0x9f0
     ee8:	4041      	eors	r1, r0
     eea:	e3a0      	b.n	0x162e
     eec:	b001      	add	sp, #4
     eee:	e3a0      	b.n	0x1632
     ef0:	5042      	str	r2, [r0, r1]
     ef2:	e3a0      	b.n	0x1636
     ef4:	e65c      	b.n	0xbb0
     ef6:	e59f      	b.n	0xa38
     ef8:	000f      	movs	r7, r1
     efa:	e8be c028 	ldmia.w	lr!, {r3, r5, lr, pc}
     efe:	e28d      	b.n	0x141c
     f00:	000f      	movs	r7, r1
     f02:	e8ac 000f 	stmia.w	ip!, {r0, r1, r2, r3}
     f06:	e89e 0007 	ldmia.w	lr, {r0, r1, r2}
     f0a:	e8ac 30b2 	stmia.w	ip!, {r1, r4, r5, r7, ip, sp}
     f0e:	e0cc      	b.n	0x10aa
     f10:	3823      	subs	r0, #35	; 0x23
     f12:	e1a0      	b.n	0x1256
     f14:	3000      	adds	r0, #0
     f16:	e5cc      	b.n	0xab2
     f18:	663c      	str	r4, [r7, #96]	; 0x60
     f1a:	e59f      	b.n	0xa5c
     f1c:	363c      	adds	r6, #60	; 0x3c
     f1e:	e59f      	b.n	0xa60
     f20:	763c      	strb	r4, [r7, #24]
     f22:	e59f      	b.n	0xa64
     f24:	1028      	asrs	r0, r5, #32
     f26:	e28d      	b.n	0x1444
     f28:	0008      	movs	r0, r1
     f2a:	e28d      	b.n	0x1448
     f2c:	4000      	ands	r0, r0
     f2e:	e5c3      	b.n	0xab8
     f30:	b000      	add	sp, #0
     f32:	e586      	b.n	0xa42
     f34:	5000      	str	r0, [r0, r0]
     f36:	e5c7      	b.n	0xac8
     f38:	fe27 ebff 			; <UNDEFINED> instruction: 0xfe27ebff
     f3c:	c001      	stmia	r0!, {r0}
     f3e:	e270      	b.n	0x1422
     f40:	c000      	stmia	r0!, {}
     f42:	33a0      	adds	r3, #160	; 0xa0
     f44:	3007      	adds	r0, #7
     f46:	e3a0      	b.n	0x168a
     f48:	2003      	movs	r0, #3
     f4a:	e3a0      	b.n	0x168e
     f4c:	15e4      	asrs	r4, r4, #23
     f4e:	e59f      	b.n	0xa90
     f50:	0610      	lsls	r0, r2, #24
     f52:	e59f      	b.n	0xa94
     f54:	c000      	stmia	r0!, {}
     f56:	e586      	b.n	0xa66
     f58:	fdfa ebff 			; <UNDEFINED> instruction: 0xfdfaebff
     f5c:	35c8      	adds	r5, #200	; 0xc8
     f5e:	e59f      	b.n	0xaa0
     f60:	0000      	movs	r0, r0
     f62:	e593      	b.n	0xa8c
     f64:	fdbf ebff 			; <UNDEFINED> instruction: 0xfdbfebff
     f68:	6000      	str	r0, [r0, #0]
     f6a:	e5d7      	b.n	0xb1c
     f6c:	0040      	lsls	r0, r0, #1
     f6e:	e356      	b.n	0x161e
     f70:	0165      	lsls	r5, r4, #5
     f72:	9a00      	ldr	r2, [sp, #0]
     f74:	7000      	strb	r0, [r0, #0]
     f76:	e3a0      	b.n	0x16ba
     f78:	c004      	stmia	r0!, {r2}
     f7a:	e1a0      	b.n	0x12be
     f7c:	9007      	str	r0, [sp, #28]
     f7e:	e1a0      	b.n	0x12c2
     f80:	5003      	str	r3, [r0, r0]
     f82:	e3a0      	b.n	0x16c6
     f84:	35d4      	adds	r5, #212	; 0xd4
     f86:	e59f      	b.n	0xac8
     f88:	8000      	strh	r0, [r0, #0]
     f8a:	e5d3      	b.n	0xb34
     f8c:	35d8      	adds	r5, #216	; 0xd8
     f8e:	e59f      	b.n	0xad0
     f90:	3000      	adds	r0, #0
     f92:	e593      	b.n	0xabc
     f94:	8004      	strh	r4, [r0, #0]
     f96:	e58d      	b.n	0xab4
     f98:	3000      	adds	r0, #0
     f9a:	e58d      	b.n	0xab8
     f9c:	c001      	stmia	r0!, {r0}
     f9e:	e28c      	b.n	0x14ba
     fa0:	c0ff      	stmia	r0!, {r0, r1, r2, r3, r4, r5, r6, r7}
     fa2:	e20c      	b.n	0x13be
     fa4:	000c      	movs	r4, r1
     fa6:	e156      	b.n	0x1256
     fa8:	0017      	movs	r7, r2
     faa:	3a00      	subs	r2, #0
     fac:	0043      	lsls	r3, r0, #1
     fae:	e35c      	b.n	0x166a
     fb0:	7001      	strb	r1, [r0, #0]
     fb2:	03a0      	lsls	r0, r4, #14
     fb4:	3000      	adds	r0, #0
     fb6:	13a0      	asrs	r0, r4, #14
     fb8:	3007      	adds	r0, #7
     fba:	01a0      	lsls	r0, r4, #6
     fbc:	800c      	strh	r4, [r1, #0]
     fbe:	01a0      	lsls	r0, r4, #6
     fc0:	0003      	movs	r3, r0
     fc2:	e15b      	b.n	0x127c
     fc4:	fff4 1aff 			; <UNDEFINED> instruction: 0xfff41aff
     fc8:	45a0      	cmp	r8, r4
     fca:	e59f      	b.n	0xb0c
     fcc:	000f      	movs	r7, r1
     fce:	e8b4 e028 	ldmia.w	r4!, {r3, r5, sp, lr, pc}
     fd2:	e28d      	b.n	0x14f0
     fd4:	000f      	movs	r7, r1
     fd6:	e8ae 000f 	stmia.w	lr!, {r0, r1, r2, r3}
     fda:	e894 0007 	ldmia.w	r4, {r0, r1, r2}
     fde:	e8ae c001 	stmia.w	lr!, {r0, lr, pc}
     fe2:	e28c      	b.n	0x14fe
     fe4:	30b2      	adds	r0, #178	; 0xb2
     fe6:	e0ce      	b.n	0x1186
     fe8:	c0ff      	stmia	r0!, {r0, r1, r2, r3, r4, r5, r6, r7}
     fea:	e20c      	b.n	0x1406
     fec:	3823      	subs	r0, #35	; 0x23
     fee:	e1a0      	b.n	0x1332
     ff0:	000c      	movs	r4, r1
     ff2:	e156      	b.n	0x12a2
     ff4:	a000      	add	r0, pc, #0	; (adr r0, 0xff8)
     ff6:	e58d      	b.n	0xb14
     ff8:	500a      	str	r2, [r1, r0]
     ffa:	e1a0      	b.n	0x133e
     ffc:	9001      	str	r0, [sp, #4]
     ffe:	e3a0      	b.n	0x1742
    1000:	b000      	add	sp, #0
    1002:	e3a0      	b.n	0x1746
    1004:	3000      	adds	r0, #0
    1006:	e5ce      	b.n	0xba6
    1008:	ffe7 2aff 			; <UNDEFINED> instruction: 0xffe72aff
    100c:	0000      	movs	r0, r0
    100e:	e357      	b.n	0x16c0
    1010:	3548      	adds	r5, #72	; 0x48
    1012:	159f      	asrs	r7, r3, #22
    1014:	8004      	strh	r4, [r0, #0]
    1016:	059d      	lsls	r5, r3, #22
    1018:	8000      	strh	r0, [r0, #0]
    101a:	15c3      	asrs	r3, r0, #23
    101c:	0000      	movs	r0, r0
    101e:	e359      	b.n	0x16d4
    1020:	3544      	adds	r5, #68	; 0x44
    1022:	159f      	asrs	r7, r3, #22
    1024:	2000      	movs	r0, #0
    1026:	159d      	asrs	r5, r3, #22
    1028:	2000      	movs	r0, #0
    102a:	1583      	asrs	r3, r0, #22
    102c:	3540      	adds	r5, #64	; 0x40
    102e:	e59f      	b.n	0xb70
    1030:	5085      	str	r5, [r0, r2]
    1032:	e085      	b.n	0x1140
    1034:	2395      	movs	r3, #149	; 0x95
    1036:	e0c3      	b.n	0x11c0
    1038:	4fc5      	ldr	r7, [pc, #788]	; (0x1350)
    103a:	e1a0      	b.n	0x137e
    103c:	3005      	adds	r0, #5
    103e:	e083      	b.n	0x1148
    1040:	5007      	str	r7, [r0, r0]
    1042:	e245      	b.n	0x14d0
    1044:	4143      	adcs	r3, r0
    1046:	e064      	b.n	0x1112
    1048:	5185      	str	r5, [r0, r6]
    104a:	e065      	b.n	0x1118
    104c:	5004      	str	r4, [r0, r0]
    104e:	e045      	b.n	0x10dc
    1050:	0041      	lsls	r1, r0, #1
    1052:	e358      	b.n	0x1706
    1054:	3510      	adds	r5, #16
    1056:	059f      	lsls	r7, r3, #22
    1058:	3000      	adds	r0, #0
    105a:	0593      	lsls	r3, r2, #22
    105c:	4009      	ands	r1, r1
    105e:	0284      	lsls	r4, r0, #10
    1060:	4003      	ands	r3, r0
    1062:	0044      	lsls	r4, r0, #1
    1064:	350c      	adds	r5, #12
    1066:	e59f      	b.n	0xba8
    1068:	a001      	add	r0, pc, #4	; (adr r0, 0x1070)
    106a:	e28a      	b.n	0x1582
    106c:	0003      	movs	r3, r0
    106e:	e15a      	b.n	0x1326
    1070:	ff9c 1aff 			; <UNDEFINED> instruction: 0xff9c1aff
    1074:	2000      	movs	r0, #0
    1076:	e3a0      	b.n	0x17ba
    1078:	34a4      	adds	r4, #164	; 0xa4
    107a:	e59f      	b.n	0xbbc
    107c:	c005      	stmia	r0!, {r0, r2}
    107e:	e5d3      	b.n	0xc28
    1080:	1004      	asrs	r4, r0, #32
    1082:	e5d3      	b.n	0xc2c
    1084:	0001      	movs	r1, r0
    1086:	e5d3      	b.n	0xc30
    1088:	140c      	asrs	r4, r1, #16
    108a:	e181      	b.n	0x1390
    108c:	3000      	adds	r0, #0
    108e:	e5d3      	b.n	0xc38
    1090:	0401      	lsls	r1, r0, #16
    1092:	e180      	b.n	0x1396
    1094:	3400      	adds	r4, #0
    1096:	e183      	b.n	0x13a0
    1098:	0003      	movs	r3, r0
    109a:	e093      	b.n	0x11c4
    109c:	1002      	asrs	r2, r0, #32
    109e:	e0a2      	b.n	0x11e6
    10a0:	0003      	movs	r3, r0
    10a2:	e090      	b.n	0x11c6
    10a4:	1002      	asrs	r2, r0, #32
    10a6:	e0a1      	b.n	0x11ec
    10a8:	1501      	asrs	r1, r0, #20
    10aa:	e1a0      	b.n	0x13ee
    10ac:	1b20      	subs	r0, r4, r4
    10ae:	e181      	b.n	0x13b4
    10b0:	2498      	movs	r4, #152	; 0x98
    10b2:	e59f      	b.n	0xbf4
    10b4:	3000      	adds	r0, #0
    10b6:	e3a0      	b.n	0x17fa
    10b8:	0500      	lsls	r0, r0, #20
    10ba:	e1a0      	b.n	0x13fe
    10bc:	fe3a ebff 			; <UNDEFINED> instruction: 0xfe3aebff
    10c0:	2001      	movs	r0, #1
    10c2:	e3a0      	b.n	0x1806
    10c4:	3488      	adds	r4, #136	; 0x88
    10c6:	e59f      	b.n	0xc08
    10c8:	149c      	asrs	r4, r3, #18
    10ca:	e59f      	b.n	0xc0c
    10cc:	3000      	adds	r0, #0
    10ce:	e593      	b.n	0xbf8
    10d0:	64a4      	str	r4, [r4, #72]	; 0x48
    10d2:	e59f      	b.n	0xc14
    10d4:	3003      	adds	r0, #3
    10d6:	e040      	b.n	0x115a
    10d8:	1000      	asrs	r0, r0, #32
    10da:	e591      	b.n	0xc00
    10dc:	c49c      	stmia	r4!, {r2, r3, r4, r7}
    10de:	e59f      	b.n	0xc20
    10e0:	3000      	adds	r0, #0
    10e2:	e586      	b.n	0xbf2
    10e4:	3458      	adds	r4, #88	; 0x58
    10e6:	e59f      	b.n	0xc28
    10e8:	0005      	movs	r5, r0
    10ea:	e351      	b.n	0x1790
    10ec:	0000      	movs	r0, r0
    10ee:	e58c      	b.n	0xc0a
    10f0:	2000      	movs	r0, #0
    10f2:	e583      	b.n	0xbfc
    10f4:	0007      	movs	r7, r0
    10f6:	0a00      	lsrs	r0, r0, #8
    10f8:	3000      	adds	r0, #0
    10fa:	e3a0      	b.n	0x183e
    10fc:	241c      	movs	r4, #28
    10fe:	e59f      	b.n	0xc40
    1100:	047c      	lsls	r4, r7, #17
    1102:	e59f      	b.n	0xc44
    1104:	3000      	adds	r0, #0
    1106:	e582      	b.n	0xc0e
    1108:	fc46 ebff 			; <UNDEFINED> instruction: 0xfc46ebff
    110c:	1005      	asrs	r5, r0, #32
    110e:	e3a0      	b.n	0x1852
    1110:	0470      	lsls	r0, r6, #17
    1112:	e59f      	b.n	0xc54
    1114:	fc43 ebff 			; <UNDEFINED> instruction: 0xfc43ebff
    1118:	343c      	adds	r4, #60	; 0x3c
    111a:	e59f      	b.n	0xc5c
    111c:	1000      	asrs	r0, r0, #32
    111e:	e593      	b.n	0xc48
    1120:	0001      	movs	r1, r0
    1122:	e351      	b.n	0x17c8
    1124:	0007      	movs	r7, r0
    1126:	0a00      	lsrs	r0, r0, #8
    1128:	3000      	adds	r0, #0
    112a:	e3a0      	b.n	0x186e
    112c:	23ec      	movs	r3, #236	; 0xec
    112e:	e59f      	b.n	0xc70
    1130:	0454      	lsls	r4, r2, #17
    1132:	e59f      	b.n	0xc74
    1134:	3000      	adds	r0, #0
    1136:	e582      	b.n	0xc3e
    1138:	fc3a ebff 			; <UNDEFINED> instruction: 0xfc3aebff
    113c:	1001      	asrs	r1, r0, #32
    113e:	e3a0      	b.n	0x1882
    1140:	0440      	lsls	r0, r0, #17
    1142:	e59f      	b.n	0xc84
    1144:	fc37 ebff 			; <UNDEFINED> instruction: 0xfc37ebff
    1148:	3410      	adds	r4, #16
    114a:	e59f      	b.n	0xc8c
    114c:	1000      	asrs	r0, r0, #32
    114e:	e5d3      	b.n	0xcf8
    1150:	0041      	lsls	r1, r0, #1
    1152:	e351      	b.n	0x17f8
    1154:	0007      	movs	r7, r0
    1156:	0a00      	lsrs	r0, r0, #8
    1158:	3000      	adds	r0, #0
    115a:	e3a0      	b.n	0x189e
    115c:	23bc      	movs	r3, #188	; 0xbc
    115e:	e59f      	b.n	0xca0
    1160:	0428      	lsls	r0, r5, #16
    1162:	e59f      	b.n	0xca4
    1164:	3000      	adds	r0, #0
    1166:	e582      	b.n	0xc6e
    1168:	fc2e ebff 			; <UNDEFINED> instruction: 0xfc2eebff
    116c:	1041      	asrs	r1, r0, #1
    116e:	e3a0      	b.n	0x18b2
    1170:	041c      	lsls	r4, r3, #16
    1172:	e59f      	b.n	0xcb4
    1174:	fc2b ebff 			; <UNDEFINED> instruction: 0xfc2bebff
    1178:	33e4      	adds	r3, #228	; 0xe4
    117a:	e59f      	b.n	0xcbc
    117c:	1000      	asrs	r0, r0, #32
    117e:	e5d3      	b.n	0xd28
    1180:	0042      	lsls	r2, r0, #1
    1182:	e351      	b.n	0x1828
    1184:	0007      	movs	r7, r0
    1186:	0a00      	lsrs	r0, r0, #8
    1188:	3000      	adds	r0, #0
    118a:	e3a0      	b.n	0x18ce
    118c:	238c      	movs	r3, #140	; 0x8c
    118e:	e59f      	b.n	0xcd0
    1190:	0400      	lsls	r0, r0, #16
    1192:	e59f      	b.n	0xcd4
    1194:	3000      	adds	r0, #0
    1196:	e582      	b.n	0xc9e
    1198:	fc22 ebff 			; <UNDEFINED> instruction: 0xfc22ebff
    119c:	1042      	asrs	r2, r0, #1
    119e:	e3a0      	b.n	0x18e2
    11a0:	03ec      	lsls	r4, r5, #15
    11a2:	e59f      	b.n	0xce4
    11a4:	fc1f ebff 			; <UNDEFINED> instruction: 0xfc1febff
    11a8:	33b8      	adds	r3, #184	; 0xb8
    11aa:	e59f      	b.n	0xcec
    11ac:	1020      	asrs	r0, r4, #32
    11ae:	e593      	b.n	0xcd8
    11b0:	0007      	movs	r7, r0
    11b2:	e351      	b.n	0x1858
    11b4:	0007      	movs	r7, r0
    11b6:	0a00      	lsrs	r0, r0, #8
    11b8:	3000      	adds	r0, #0
    11ba:	e3a0      	b.n	0x18fe
    11bc:	235c      	movs	r3, #92	; 0x5c
    11be:	e59f      	b.n	0xd00
    11c0:	03d4      	lsls	r4, r2, #15
    11c2:	e59f      	b.n	0xd04
    11c4:	3000      	adds	r0, #0
    11c6:	e582      	b.n	0xcce
    11c8:	fc16 ebff 			; <UNDEFINED> instruction: 0xfc16ebff
    11cc:	1007      	asrs	r7, r0, #32
    11ce:	e3a0      	b.n	0x1912
    11d0:	03b0      	lsls	r0, r6, #14
    11d2:	e59f      	b.n	0xd14
    11d4:	fc13 ebff 			; <UNDEFINED> instruction: 0xfc13ebff
    11d8:	3358      	adds	r3, #88	; 0x58
    11da:	e59f      	b.n	0xd1c
    11dc:	165c      	asrs	r4, r3, #25
    11de:	e593      	b.n	0xd08
    11e0:	33b8      	adds	r3, #184	; 0xb8
    11e2:	e59f      	b.n	0xd24
    11e4:	0003      	movs	r3, r0
    11e6:	e151      	b.n	0x148c
    11e8:	0006      	movs	r6, r0
    11ea:	0a00      	lsrs	r0, r0, #8
    11ec:	3000      	adds	r0, #0
    11ee:	e3a0      	b.n	0x1932
    11f0:	2328      	movs	r3, #40	; 0x28
    11f2:	e59f      	b.n	0xd34
    11f4:	03a8      	lsls	r0, r5, #14
    11f6:	e59f      	b.n	0xd38
    11f8:	3000      	adds	r0, #0
    11fa:	e582      	b.n	0xd02
    11fc:	fc09 ebff 			; <UNDEFINED> instruction: 0xfc09ebff
    1200:	03a0      	lsls	r0, r4, #14
    1202:	e59f      	b.n	0xd44
    1204:	fc07 ebff 			; <UNDEFINED> instruction: 0xfc07ebff
    1208:	331c      	adds	r3, #28
    120a:	e59f      	b.n	0xd4c
    120c:	3000      	adds	r0, #0
    120e:	e593      	b.n	0xd38
    1210:	1004      	asrs	r4, r0, #32
    1212:	e5d3      	b.n	0xdbc
    1214:	0000      	movs	r0, r0
    1216:	e351      	b.n	0x18bc
    1218:	0007      	movs	r7, r0
    121a:	0a00      	lsrs	r0, r0, #8
    121c:	7000      	strb	r0, [r0, #0]
    121e:	e3a0      	b.n	0x1962
    1220:	32f8      	adds	r2, #248	; 0xf8
    1222:	e59f      	b.n	0xd64
    1224:	0380      	lsls	r0, r0, #14
    1226:	e59f      	b.n	0xd68
    1228:	7000      	strb	r0, [r0, #0]
    122a:	e583      	b.n	0xd34
    122c:	fbfd ebff 			; <UNDEFINED> instruction: 0xfbfdebff
    1230:	1007      	asrs	r7, r0, #32
    1232:	e1a0      	b.n	0x1576
    1234:	034c      	lsls	r4, r1, #13
    1236:	e59f      	b.n	0xd78
    1238:	fbfa ebff 			; <UNDEFINED> instruction: 0xfbfaebff
    123c:	32e8      	adds	r2, #232	; 0xe8
    123e:	e59f      	b.n	0xd80
    1240:	3000      	adds	r0, #0
    1242:	e593      	b.n	0xd6c
    1244:	1008      	asrs	r0, r1, #32
    1246:	e5d3      	b.n	0xdf0
    1248:	0002      	movs	r2, r0
    124a:	e351      	b.n	0x18f0
    124c:	0007      	movs	r7, r0
    124e:	0a00      	lsrs	r0, r0, #8
    1250:	3000      	adds	r0, #0
    1252:	e3a0      	b.n	0x1996
    1254:	22c4      	movs	r2, #196	; 0xc4
    1256:	e59f      	b.n	0xd98
    1258:	0350      	lsls	r0, r2, #13
    125a:	e59f      	b.n	0xd9c
    125c:	3000      	adds	r0, #0
    125e:	e582      	b.n	0xd66
    1260:	fbf0 ebff 			; <UNDEFINED> instruction: 0xfbf0ebff
    1264:	1002      	asrs	r2, r0, #32
    1266:	e3a0      	b.n	0x19aa
    1268:	0318      	lsls	r0, r3, #12
    126a:	e59f      	b.n	0xdac
    126c:	fbed ebff 			; <UNDEFINED> instruction: 0xfbedebff
    1270:	32b4      	adds	r2, #180	; 0xb4
    1272:	e59f      	b.n	0xdb4
    1274:	3000      	adds	r0, #0
    1276:	e593      	b.n	0xda0
    1278:	100c      	asrs	r4, r1, #32
    127a:	e593      	b.n	0xda4
    127c:	0011      	movs	r1, r2
    127e:	e351      	b.n	0x1924
    1280:	0007      	movs	r7, r0
    1282:	0a00      	lsrs	r0, r0, #8
    1284:	3000      	adds	r0, #0
    1286:	e3a0      	b.n	0x19ca
    1288:	2290      	movs	r2, #144	; 0x90
    128a:	e59f      	b.n	0xdcc
    128c:	0320      	lsls	r0, r4, #12
    128e:	e59f      	b.n	0xdd0
    1290:	3000      	adds	r0, #0
    1292:	e582      	b.n	0xd9a
    1294:	fbe3 ebff 			; <UNDEFINED> instruction: 0xfbe3ebff
    1298:	1011      	asrs	r1, r2, #32
    129a:	e3a0      	b.n	0x19de
    129c:	02e4      	lsls	r4, r4, #11
    129e:	e59f      	b.n	0xde0
    12a0:	fbe0 ebff 			; <UNDEFINED> instruction: 0xfbe0ebff
    12a4:	3280      	adds	r2, #128	; 0x80
    12a6:	e59f      	b.n	0xde8
    12a8:	7000      	strb	r0, [r0, #0]
    12aa:	e593      	b.n	0xdd4
    12ac:	7010      	strb	r0, [r2, #0]
    12ae:	e287      	b.n	0x17c0
    12b0:	0007      	movs	r7, r0
    12b2:	e1a0      	b.n	0x15f6
    12b4:	1274      	asrs	r4, r6, #9
    12b6:	e59f      	b.n	0xdf8
    12b8:	fde6 ebff 			; <UNDEFINED> instruction: 0xfde6ebff
    12bc:	0000      	movs	r0, r0
    12be:	e350      	b.n	0x1962
    12c0:	0007      	movs	r7, r0
    12c2:	0a00      	lsrs	r0, r0, #8
    12c4:	3000      	adds	r0, #0
    12c6:	e3a0      	b.n	0x1a0a
    12c8:	2250      	movs	r2, #80	; 0x50
    12ca:	e59f      	b.n	0xe0c
    12cc:	1007      	asrs	r7, r0, #32
    12ce:	e1a0      	b.n	0x1612
    12d0:	02e0      	lsls	r0, r4, #11
    12d2:	e59f      	b.n	0xe14
    12d4:	3000      	adds	r0, #0
    12d6:	e582      	b.n	0xdde
    12d8:	fbd2 ebff 			; <UNDEFINED> instruction: 0xfbd2ebff
    12dc:	02d8      	lsls	r0, r3, #11
    12de:	e59f      	b.n	0xe20
    12e0:	fbd0 ebff 			; <UNDEFINED> instruction: 0xfbd0ebff
    12e4:	323c      	adds	r2, #60	; 0x3c
    12e6:	e59f      	b.n	0xe28
    12e8:	3000      	adds	r0, #0
    12ea:	e593      	b.n	0xe14
    12ec:	1004      	asrs	r4, r0, #32
    12ee:	e5d3      	b.n	0xe98
    12f0:	0000      	movs	r0, r0
    12f2:	e351      	b.n	0x1998
    12f4:	0007      	movs	r7, r0
    12f6:	0a00      	lsrs	r0, r0, #8
    12f8:	7000      	strb	r0, [r0, #0]
    12fa:	e3a0      	b.n	0x1a3e
    12fc:	321c      	adds	r2, #28
    12fe:	e59f      	b.n	0xe40
    1300:	02b8      	lsls	r0, r7, #10
    1302:	e59f      	b.n	0xe44
    1304:	7000      	strb	r0, [r0, #0]
    1306:	e583      	b.n	0xe10
    1308:	fbc6 ebff 			; <UNDEFINED> instruction: 0xfbc6ebff
    130c:	1007      	asrs	r7, r0, #32
    130e:	e1a0      	b.n	0x1652
    1310:	0270      	lsls	r0, r6, #9
    1312:	e59f      	b.n	0xe54
    1314:	fbc3 ebff 			; <UNDEFINED> instruction: 0xfbc3ebff
    1318:	3208      	adds	r2, #8
    131a:	e59f      	b.n	0xe5c
    131c:	3000      	adds	r0, #0
    131e:	e593      	b.n	0xe48
    1320:	1008      	asrs	r0, r1, #32
    1322:	e5d3      	b.n	0xecc
    1324:	0001      	movs	r1, r0
    1326:	e351      	b.n	0x19cc
    1328:	0007      	movs	r7, r0
    132a:	0a00      	lsrs	r0, r0, #8
    132c:	3000      	adds	r0, #0
    132e:	e3a0      	b.n	0x1a72
    1330:	21e8      	movs	r1, #232	; 0xe8
    1332:	e59f      	b.n	0xe74
    1334:	0288      	lsls	r0, r1, #10
    1336:	e59f      	b.n	0xe78
    1338:	3000      	adds	r0, #0
    133a:	e582      	b.n	0xe42
    133c:	fbb9 ebff 			; <UNDEFINED> instruction: 0xfbb9ebff
    1340:	1001      	asrs	r1, r0, #32
    1342:	e3a0      	b.n	0x1a86
    1344:	023c      	lsls	r4, r7, #8
    1346:	e59f      	b.n	0xe88
    1348:	fbb6 ebff 			; <UNDEFINED> instruction: 0xfbb6ebff
    134c:	31d4      	adds	r1, #212	; 0xd4
    134e:	e59f      	b.n	0xe90
    1350:	3000      	adds	r0, #0
    1352:	e593      	b.n	0xe7c
    1354:	100c      	asrs	r4, r1, #32
    1356:	e593      	b.n	0xe80
    1358:	0012      	movs	r2, r2
    135a:	e351      	b.n	0x1a00
    135c:	0007      	movs	r7, r0
    135e:	0a00      	lsrs	r0, r0, #8
    1360:	3000      	adds	r0, #0
    1362:	e3a0      	b.n	0x1aa6
    1364:	21b4      	movs	r1, #180	; 0xb4
    1366:	e59f      	b.n	0xea8
    1368:	0258      	lsls	r0, r3, #9
    136a:	e59f      	b.n	0xeac
    136c:	3000      	adds	r0, #0
    136e:	e582      	b.n	0xe76
    1370:	fbac ebff 			; <UNDEFINED> instruction: 0xfbacebff
    1374:	1012      	asrs	r2, r2, #32
    1376:	e3a0      	b.n	0x1aba
    1378:	0208      	lsls	r0, r1, #8
    137a:	e59f      	b.n	0xebc
    137c:	fba9 ebff 			; <UNDEFINED> instruction: 0xfba9ebff
    1380:	31a0      	adds	r1, #160	; 0xa0
    1382:	e59f      	b.n	0xec4
    1384:	7000      	strb	r0, [r0, #0]
    1386:	e593      	b.n	0xeb0
    1388:	7010      	strb	r0, [r2, #0]
    138a:	e287      	b.n	0x189c
    138c:	0007      	movs	r7, r0
    138e:	e1a0      	b.n	0x16d2
    1390:	1198      	asrs	r0, r3, #6
    1392:	e59f      	b.n	0xed4
    1394:	fdaf ebff 			; <UNDEFINED> instruction: 0xfdafebff
    1398:	0000      	movs	r0, r0
    139a:	e350      	b.n	0x1a3e
    139c:	0007      	movs	r7, r0
    139e:	0a00      	lsrs	r0, r0, #8
    13a0:	3000      	adds	r0, #0
    13a2:	e3a0      	b.n	0x1ae6
    13a4:	2174      	movs	r1, #116	; 0x74
    13a6:	e59f      	b.n	0xee8
    13a8:	1007      	asrs	r7, r0, #32
    13aa:	e1a0      	b.n	0x16ee
    13ac:	0218      	lsls	r0, r3, #8
    13ae:	e59f      	b.n	0xef0
    13b0:	3000      	adds	r0, #0
    13b2:	e582      	b.n	0xeba
    13b4:	fb9b ebff 			; <UNDEFINED> instruction: 0xfb9bebff
    13b8:	01fc      	lsls	r4, r7, #7
    13ba:	e59f      	b.n	0xefc
    13bc:	fb99 ebff 			; <UNDEFINED> instruction: 0xfb99ebff
    13c0:	0005      	movs	r5, r0
    13c2:	e354      	b.n	0x1a6e
    13c4:	0008      	movs	r0, r1
    13c6:	0a00      	lsrs	r0, r0, #8
    13c8:	3000      	adds	r0, #0
    13ca:	e3a0      	b.n	0x1b0e
    13cc:	214c      	movs	r1, #76	; 0x4c
    13ce:	e59f      	b.n	0xf10
    13d0:	1004      	asrs	r4, r0, #32
    13d2:	e1a0      	b.n	0x1716
    13d4:	01f4      	lsls	r4, r6, #7
    13d6:	e59f      	b.n	0xf18
    13d8:	3000      	adds	r0, #0
    13da:	e582      	b.n	0xee2
    13dc:	fb91 ebff 			; <UNDEFINED> instruction: 0xfb91ebff
    13e0:	1005      	asrs	r5, r0, #32
    13e2:	e3a0      	b.n	0x1b26
    13e4:	019c      	lsls	r4, r3, #6
    13e6:	e59f      	b.n	0xf28
    13e8:	fb8e ebff 			; <UNDEFINED> instruction: 0xfb8eebff
    13ec:	000d      	movs	r5, r1
    13ee:	e355      	b.n	0x1a9c
    13f0:	0008      	movs	r0, r1
    13f2:	0a00      	lsrs	r0, r0, #8
    13f4:	3000      	adds	r0, #0
    13f6:	e3a0      	b.n	0x1b3a
    13f8:	2120      	movs	r1, #32
    13fa:	e59f      	b.n	0xf3c
    13fc:	1005      	asrs	r5, r0, #32
    13fe:	e1a0      	b.n	0x1742
    1400:	01cc      	lsls	r4, r1, #7
    1402:	e59f      	b.n	0xf44
    1404:	3000      	adds	r0, #0
    1406:	e582      	b.n	0xf0e
    1408:	fb86 ebff 			; <UNDEFINED> instruction: 0xfb86ebff
    140c:	100d      	asrs	r5, r1, #32
    140e:	e3a0      	b.n	0x1b52
    1410:	0170      	lsls	r0, r6, #5
    1412:	e59f      	b.n	0xf54
    1414:	fb83 ebff 			; <UNDEFINED> instruction: 0xfb83ebff
    1418:	0001      	movs	r1, r0
    141a:	e35b      	b.n	0x1ad4
    141c:	0008      	movs	r0, r1
    141e:	0a00      	lsrs	r0, r0, #8
    1420:	3000      	adds	r0, #0
    1422:	e3a0      	b.n	0x1b66
    1424:	20f4      	movs	r0, #244	; 0xf4
    1426:	e59f      	b.n	0xf68
    1428:	100b      	asrs	r3, r1, #32
    142a:	e1a0      	b.n	0x176e
    142c:	01a4      	lsls	r4, r4, #6
    142e:	e59f      	b.n	0xf70
    1430:	3000      	adds	r0, #0
    1432:	e582      	b.n	0xf3a
    1434:	fb7b ebff 			; <UNDEFINED> instruction: 0xfb7bebff
    1438:	1001      	asrs	r1, r0, #32
    143a:	e3a0      	b.n	0x1b7e
    143c:	0144      	lsls	r4, r0, #5
    143e:	e59f      	b.n	0xf80
    1440:	fb78 ebff 			; <UNDEFINED> instruction: 0xfb78ebff
    1444:	10e8      	asrs	r0, r5, #3
    1446:	e59f      	b.n	0xf88
    1448:	0008      	movs	r0, r1
    144a:	e28d      	b.n	0x1968
    144c:	fd81 ebff 			; <UNDEFINED> instruction: 0xfd81ebff
    1450:	0000      	movs	r0, r0
    1452:	e350      	b.n	0x1af6
    1454:	0007      	movs	r7, r0
    1456:	0a00      	lsrs	r0, r0, #8
    1458:	3000      	adds	r0, #0
    145a:	e3a0      	b.n	0x1b9e
    145c:	20bc      	movs	r0, #188	; 0xbc
    145e:	e59f      	b.n	0xfa0
    1460:	1008      	asrs	r0, r1, #32
    1462:	e28d      	b.n	0x1980
    1464:	0170      	lsls	r0, r6, #5
    1466:	e59f      	b.n	0xfa8
    1468:	3000      	adds	r0, #0
    146a:	e582      	b.n	0xf72
    146c:	fb6d ebff 			; <UNDEFINED> instruction: 0xfb6debff
    1470:	0168      	lsls	r0, r5, #5
    1472:	e59f      	b.n	0xfb4
    1474:	fb6b ebff 			; <UNDEFINED> instruction: 0xfb6bebff
    1478:	10d8      	asrs	r0, r3, #3
    147a:	e59f      	b.n	0xfbc
    147c:	0028      	movs	r0, r5
    147e:	e28d      	b.n	0x199c
    1480:	fd74 ebff 			; <UNDEFINED> instruction: 0xfd74ebff
    1484:	0000      	movs	r0, r0
    1486:	e350      	b.n	0x1b2a
    1488:	0007      	movs	r7, r0
    148a:	0a00      	lsrs	r0, r0, #8
    148c:	3000      	adds	r0, #0
    148e:	e3a0      	b.n	0x1bd2
    1490:	2088      	movs	r0, #136	; 0x88
    1492:	e59f      	b.n	0xfd4
    1494:	1028      	asrs	r0, r5, #32
    1496:	e28d      	b.n	0x19b4
    1498:	0144      	lsls	r4, r0, #5
    149a:	e59f      	b.n	0xfdc
    149c:	3000      	adds	r0, #0
    149e:	e582      	b.n	0xfa6
    14a0:	fb60 ebff 			; <UNDEFINED> instruction: 0xfb60ebff
    14a4:	013c      	lsls	r4, r7, #4
    14a6:	e59f      	b.n	0xfe8
    14a8:	fb5e ebff 			; <UNDEFINED> instruction: 0xfb5eebff
    14ac:	1000      	asrs	r0, r0, #32
    14ae:	e596      	b.n	0xfde
    14b0:	0134      	lsls	r4, r6, #4
    14b2:	e59f      	b.n	0xff4
    14b4:	fb5b ebff 			; <UNDEFINED> instruction: 0xfb5bebff
    14b8:	0130      	lsls	r0, r6, #4
    14ba:	e59f      	b.n	0xffc
    14bc:	fb59 ebff 			; <UNDEFINED> instruction: 0xfb59ebff
    14c0:	3058      	adds	r0, #88	; 0x58
    14c2:	e59f      	b.n	0x1004
    14c4:	2000      	movs	r0, #0
    14c6:	e593      	b.n	0xff0
    14c8:	3124      	adds	r1, #36	; 0x24
    14ca:	e59f      	b.n	0x100c
    14cc:	0000      	movs	r0, r0
    14ce:	e352      	b.n	0x1b76
    14d0:	1000      	asrs	r0, r0, #32
    14d2:	e596      	b.n	0x1002
    14d4:	011c      	lsls	r4, r3, #4
    14d6:	e59f      	b.n	0x1018
    14d8:	411c      	asrs	r4, r3
    14da:	e59f      	b.n	0x101c
    14dc:	4003      	ands	r3, r0
    14de:	01a0      	lsls	r0, r4, #6
    14e0:	fcde ebff 			; <UNDEFINED> instruction: 0xfcdeebff
    14e4:	1004      	asrs	r4, r0, #32
    14e6:	e1a0      	b.n	0x182a
    14e8:	2000      	movs	r0, #0
    14ea:	e1a0      	b.n	0x182e
    14ec:	010c      	lsls	r4, r1, #4
    14ee:	e59f      	b.n	0x1030
    14f0:	fb4c ebff 			; <UNDEFINED> instruction: 0xfb4cebff
    14f4:	0108      	lsls	r0, r1, #4
    14f6:	e59f      	b.n	0x1038
    14f8:	fb4a ebff 			; <UNDEFINED> instruction: 0xfb4aebff
    14fc:	0000      	movs	r0, r0
    14fe:	e3a0      	b.n	0x1c42
    1500:	d04c      	beq.n	0x159c
    1502:	e28d      	b.n	0x1a20
    1504:	4ff0      	ldr	r7, [pc, #960]	; (0x18c8)
    1506:	e8bd ff1e 	ldmia.w	sp!, {r1, r2, r3, r4, r8, r9, sl, fp, ip, sp, lr, pc}
    150a:	e12f      	b.n	0x176c
    150c:	304c      	adds	r0, #76	; 0x4c
    150e:	e59f      	b.n	0x1050
    1510:	400b      	ands	r3, r1
    1512:	e1a0      	b.n	0x1856
    1514:	8000      	strh	r0, [r0, #0]
    1516:	e5d3      	b.n	0x10c0
    1518:	500d      	str	r5, [r1, r0]
    151a:	e3a0      	b.n	0x1c5e
    151c:	fecb eaff 			; <UNDEFINED> instruction: 0xfecbeaff
    1520:	2c8c      	cmp	r4, #140	; 0x8c
    1522:	0300      	lsls	r0, r0, #12
    1524:	0100      	lsls	r0, r0, #4
    1526:	0400      	lsls	r0, r0, #16
    1528:	2bac      	cmp	r3, #172	; 0xac
    152a:	0300      	lsls	r0, r0, #12
    152c:	2bb8      	cmp	r3, #184	; 0xb8
    152e:	0300      	lsls	r0, r0, #12
    1530:	1904      	adds	r4, r0, r4
    1532:	0800      	lsrs	r0, r0, #32
    1534:	1c44      	adds	r4, r0, #1
    1536:	0800      	lsrs	r0, r0, #32
    1538:	0498      	lsls	r0, r3, #18
    153a:	0300      	lsls	r0, r0, #12
    153c:	1924      	adds	r4, r4, r4
    153e:	0800      	lsrs	r0, r0, #32
    1540:	1934      	adds	r4, r6, r4
    1542:	0800      	lsrs	r0, r0, #32
    1544:	2bbc      	cmp	r3, #188	; 0xbc
    1546:	0300      	lsls	r0, r0, #12
    1548:	a120      	add	r1, pc, #128	; (adr r1, 0x15cc)
    154a:	0007      	movs	r7, r0
    154c:	1958      	adds	r0, r3, r5
    154e:	0800      	lsrs	r0, r0, #32
    1550:	f080 02fa 	eor.w	r2, r0, #250	; 0xfa
    1554:	0494      	lsls	r4, r2, #18
    1556:	0300      	lsls	r0, r0, #12
    1558:	1cb8      	adds	r0, r7, #2
    155a:	0800      	lsrs	r0, r0, #32
    155c:	2c88      	cmp	r4, #136	; 0x88
    155e:	0300      	lsls	r0, r0, #12
    1560:	2bb4      	cmp	r3, #180	; 0xb4
    1562:	0300      	lsls	r0, r0, #12
    1564:	2bb5      	cmp	r3, #181	; 0xb5
    1566:	0300      	lsls	r0, r0, #12
    1568:	2bc0      	cmp	r3, #192	; 0xc0
    156a:	0300      	lsls	r0, r0, #12
    156c:	2bb0      	cmp	r3, #176	; 0xb0
    156e:	0300      	lsls	r0, r0, #12
    1570:	1dd0      	adds	r0, r2, #7
    1572:	0800      	lsrs	r0, r0, #32
    1574:	2493      	movs	r4, #147	; 0x93
    1576:	9249      	str	r2, [sp, #292]	; 0x124
    1578:	a121      	add	r1, pc, #132	; (adr r1, 0x1600)
    157a:	0007      	movs	r7, r0
    157c:	0490      	lsls	r0, r2, #18
    157e:	0300      	lsls	r0, r0, #12
    1580:	2ba8      	cmp	r3, #168	; 0xa8
    1582:	0300      	lsls	r0, r0, #12
    1584:	197c      	adds	r4, r7, r5
    1586:	0800      	lsrs	r0, r0, #32
    1588:	1998      	adds	r0, r3, r6
    158a:	0800      	lsrs	r0, r0, #32
    158c:	19b4      	adds	r4, r6, r6
    158e:	0800      	lsrs	r0, r0, #32
    1590:	19d0      	adds	r0, r2, r7
    1592:	0800      	lsrs	r0, r0, #32
    1594:	19ec      	adds	r4, r5, r7
    1596:	0800      	lsrs	r0, r0, #32
    1598:	1a08      	subs	r0, r1, r0
    159a:	0800      	lsrs	r0, r0, #32
    159c:	1a24      	subs	r4, r4, r0
    159e:	0800      	lsrs	r0, r0, #32
    15a0:	a12a      	add	r1, pc, #168	; (adr r1, 0x164c)
    15a2:	0007      	movs	r7, r0
    15a4:	1a40      	subs	r0, r0, r1
    15a6:	0800      	lsrs	r0, r0, #32
    15a8:	1a5c      	subs	r4, r3, r1
    15aa:	0800      	lsrs	r0, r0, #32
    15ac:	1a88      	subs	r0, r1, r2
    15ae:	0800      	lsrs	r0, r0, #32
    15b0:	1aac      	subs	r4, r5, r2
    15b2:	0800      	lsrs	r0, r0, #32
    15b4:	1ad0      	subs	r0, r2, r3
    15b6:	0800      	lsrs	r0, r0, #32
    15b8:	1af4      	subs	r4, r6, r3
    15ba:	0800      	lsrs	r0, r0, #32
    15bc:	1b18      	subs	r0, r3, r4
    15be:	0800      	lsrs	r0, r0, #32
    15c0:	1b50      	subs	r0, r2, r5
    15c2:	0800      	lsrs	r0, r0, #32
    15c4:	1b78      	subs	r0, r7, r5
    15c6:	0800      	lsrs	r0, r0, #32
    15c8:	1ba0      	subs	r0, r4, r6
    15ca:	0800      	lsrs	r0, r0, #32
    15cc:	1bc8      	subs	r0, r1, r7
    15ce:	0800      	lsrs	r0, r0, #32
    15d0:	1bf0      	subs	r0, r6, r7
    15d2:	0800      	lsrs	r0, r0, #32
    15d4:	1c0c      	adds	r4, r1, #0
    15d6:	0800      	lsrs	r0, r0, #32
    15d8:	1c28      	adds	r0, r5, #0
    15da:	0800      	lsrs	r0, r0, #32
    15dc:	1c64      	adds	r4, r4, #1
    15de:	0800      	lsrs	r0, r0, #32
    15e0:	1c80      	adds	r0, r0, #2
    15e2:	0800      	lsrs	r0, r0, #32
    15e4:	1cd8      	adds	r0, r3, #3
    15e6:	0800      	lsrs	r0, r0, #32
    15e8:	1cf4      	adds	r4, r6, #3
    15ea:	0800      	lsrs	r0, r0, #32
    15ec:	1d2c      	adds	r4, r5, #4
    15ee:	0800      	lsrs	r0, r0, #32
    15f0:	1d40      	adds	r0, r0, #5
    15f2:	0800      	lsrs	r0, r0, #32
    15f4:	18fc      	adds	r4, r7, r3
    15f6:	0800      	lsrs	r0, r0, #32
    15f8:	b87e      			; <UNDEFINED> instruction: 0xb87e
    15fa:	000f      	movs	r7, r1
    15fc:	18f4      	adds	r4, r6, r3
    15fe:	0800      	lsrs	r0, r0, #32
    1600:	1d74      	adds	r4, r6, #5
    1602:	0800      	lsrs	r0, r0, #32
    1604:	1d94      	adds	r4, r2, #6
    1606:	0800      	lsrs	r0, r0, #32
    1608:	0003      	movs	r3, r0
    160a:	e151      	b.n	0x18b0
    160c:	0002      	movs	r2, r0
    160e:	0150      	lsls	r0, r2, #5
    1610:	4ff8      	ldr	r7, [pc, #992]	; (0x19f4)
    1612:	e92d 4000 	stmdb	sp!, {lr}
    1616:	e1a0      	b.n	0x195a
    1618:	0000      	movs	r0, r0
    161a:	33a0      	adds	r3, #160	; 0xa0
    161c:	5001      	str	r1, [r0, r0]
    161e:	e1a0      	b.n	0x1962
    1620:	8028      	strh	r0, [r5, #0]
    1622:	e59d      	b.n	0x1160
    1624:	1000      	asrs	r0, r0, #32
    1626:	31a0      	adds	r1, #160	; 0xa0
    1628:	003e      	movs	r6, r7
    162a:	3a00      	subs	r2, #0
    162c:	1003      	asrs	r3, r0, #32
    162e:	e1a0      	b.n	0x1972
    1630:	0002      	movs	r2, r0
    1632:	e1a0      	b.n	0x1976
    1634:	6002      	str	r2, [r0, #0]
    1636:	e1a0      	b.n	0x197a
    1638:	7003      	strb	r3, [r0, #0]
    163a:	e1a0      	b.n	0x197e
    163c:	fce9 ebff 			; <UNDEFINED> instruction: 0xfce9ebff
    1640:	1005      	asrs	r5, r0, #32
    1642:	e1a0      	b.n	0x1986
    1644:	9000      	str	r0, [sp, #0]
    1646:	e1a0      	b.n	0x198a
    1648:	0004      	movs	r4, r0
    164a:	e1a0      	b.n	0x198e
    164c:	fce5 ebff 			; <UNDEFINED> instruction: 0xfce5ebff
    1650:	c000      	stmia	r0!, {}
    1652:	e049      	b.n	0x16e8
    1654:	e020      	b.n	0x1698
    1656:	e24c      	b.n	0x1af2
    1658:	bc17      	pop	{r0, r1, r2, r4}
    165a:	e1a0      	b.n	0x199e
    165c:	be16      	bkpt	0x0016
    165e:	e18b      	b.n	0x1978
    1660:	9020      	str	r0, [sp, #128]	; 0x80
    1662:	e26c      	b.n	0x1b3e
    1664:	b936      	cbnz	r6, 0x1674
    1666:	e18b      	b.n	0x1980
    1668:	000b      	movs	r3, r1
    166a:	e155      	b.n	0x1918
    166c:	ac16      	add	r4, sp, #88	; 0x58
    166e:	e1a0      	b.n	0x19b2
    1670:	000a      	movs	r2, r1
    1672:	0154      	lsls	r4, r2, #5
    1674:	0000      	movs	r0, r0
    1676:	33a0      	adds	r3, #160	; 0xa0
    1678:	1000      	asrs	r0, r0, #32
    167a:	31a0      	adds	r1, #160	; 0xa0
    167c:	0005      	movs	r5, r0
    167e:	3a00      	subs	r2, #0
    1680:	0001      	movs	r1, r0
    1682:	e3a0      	b.n	0x1dc6
    1684:	400a      	ands	r2, r1
    1686:	e054      	b.n	0x1732
    1688:	1e10      	subs	r0, r2, #0
    168a:	e1a0      	b.n	0x19ce
    168c:	1930      	adds	r0, r6, r4
    168e:	e181      	b.n	0x1994
    1690:	500b      	str	r3, [r1, r0]
    1692:	e0c5      	b.n	0x1820
    1694:	0c10      	lsrs	r0, r2, #16
    1696:	e1a0      	b.n	0x19da
    1698:	0000      	movs	r0, r0
    169a:	e35c      	b.n	0x1d56
    169c:	0021      	movs	r1, r4
    169e:	0a00      	lsrs	r0, r0, #8
    16a0:	60aa      	str	r2, [r5, #8]
    16a2:	e1a0      	b.n	0x19e6
    16a4:	200c      	movs	r0, #12
    16a6:	e1a0      	b.n	0x19ea
    16a8:	6f8b      	ldr	r3, [r1, #120]	; 0x78
    16aa:	e186      	b.n	0x19ba
    16ac:	70ab      	strb	r3, [r5, #2]
    16ae:	e1a0      	b.n	0x19f2
    16b0:	0007      	movs	r7, r0
    16b2:	ea00 3006 	and.w	r0, r0, r6, lsl #12
    16b6:	e054      	b.n	0x1762
    16b8:	a007      	add	r0, pc, #28	; (adr r0, 0x16d8)
    16ba:	e0c5      	b.n	0x1848
    16bc:	3003      	adds	r0, #3
    16be:	e093      	b.n	0x17e8
    16c0:	a00a      	add	r0, pc, #40	; (adr r0, 0x16ec)
    16c2:	e0aa      	b.n	0x181a
    16c4:	4001      	ands	r1, r0
    16c6:	e293      	b.n	0x1bf0
    16c8:	5000      	str	r0, [r0, r0]
    16ca:	e2aa      	b.n	0x1c22
    16cc:	2001      	movs	r0, #1
    16ce:	e252      	b.n	0x1b76
    16d0:	0006      	movs	r6, r0
    16d2:	0a00      	lsrs	r0, r0, #8
    16d4:	0007      	movs	r7, r0
    16d6:	e155      	b.n	0x1984
    16d8:	0006      	movs	r6, r0
    16da:	0154      	lsls	r4, r2, #5
    16dc:	fff4 2aff 			; <UNDEFINED> instruction: 0xfff42aff
    16e0:	4004      	ands	r4, r0
    16e2:	e094      	b.n	0x180e
    16e4:	5005      	str	r5, [r0, r0]
    16e6:	e0a5      	b.n	0x1834
    16e8:	2001      	movs	r0, #1
    16ea:	e252      	b.n	0x1b92
    16ec:	fff8 1aff 			; <UNDEFINED> instruction: 0xfff81aff
    16f0:	3c34      	subs	r4, #52	; 0x34
    16f2:	e1a0      	b.n	0x1a36
    16f4:	3915      	subs	r1, #21
    16f6:	e183      	b.n	0x1a00
    16f8:	3e35      	subs	r6, #53	; 0x35
    16fa:	e183      	b.n	0x1a04
    16fc:	0004      	movs	r4, r0
    16fe:	e090      	b.n	0x1822
    1700:	4003      	ands	r3, r0
    1702:	e1a0      	b.n	0x1a46
    1704:	2c35      	cmp	r4, #53	; 0x35
    1706:	e1a0      	b.n	0x1a4a
    1708:	1005      	asrs	r5, r0, #32
    170a:	e0a1      	b.n	0x1850
    170c:	5002      	str	r2, [r0, r0]
    170e:	e1a0      	b.n	0x1a52
    1710:	3c12      	subs	r4, #18
    1712:	e1a0      	b.n	0x1a56
    1714:	3e14      	subs	r6, #20
    1716:	e183      	b.n	0x1a20
    1718:	cc14      	ldmia	r4, {r2, r4}
    171a:	e1a0      	b.n	0x1a5e
    171c:	000c      	movs	r4, r1
    171e:	e050      	b.n	0x17c2
    1720:	3934      	subs	r1, #52	; 0x34
    1722:	e183      	b.n	0x1a2c
    1724:	1003      	asrs	r3, r0, #32
    1726:	e0c1      	b.n	0x18ac
    1728:	0000      	movs	r0, r0
    172a:	e358      	b.n	0x1dde
    172c:	0030      	movs	r0, r6
    172e:	1888      	adds	r0, r1, r2
    1730:	4ff8      	ldr	r7, [pc, #992]	; (0x1b14)
    1732:	e8bd ff1e 	ldmia.w	sp!, {r1, r2, r3, r4, r8, r9, sl, fp, ip, sp, lr, pc}
    1736:	e12f      	b.n	0x1998
    1738:	4070      	eors	r0, r6
    173a:	e92d 606c 	stmdb	sp!, {r2, r3, r5, r6, sp, lr}
    173e:	e59f      	b.n	0x1280
    1740:	506c      	str	r4, [r5, r1]
    1742:	e59f      	b.n	0x1284
    1744:	6005      	str	r5, [r0, #0]
    1746:	e046      	b.n	0x17d6
    1748:	6146      	str	r6, [r0, #20]
    174a:	e1b0      	b.n	0x1aae
    174c:	0007      	movs	r7, r0
    174e:	0a00      	lsrs	r0, r0, #8
    1750:	4000      	ands	r0, r0
    1752:	e3a0      	b.n	0x1e96
    1754:	5004      	str	r4, [r0, r0]
    1756:	e245      	b.n	0x1be4
    1758:	4001      	ands	r1, r0
    175a:	e284      	b.n	0x1c66
    175c:	3004      	adds	r0, #4
    175e:	e5b5      	b.n	0x12cc
    1760:	e00f      	b.n	0x1782
    1762:	e1a0      	b.n	0x1aa6
    1764:	ff13 e12f 	vrhadd.u16	d14, d3, d31
    1768:	0004      	movs	r4, r0
    176a:	e156      	b.n	0x1a1a
    176c:	fff9 1aff 			; <UNDEFINED> instruction: 0xfff91aff
    1770:	6040      	str	r0, [r0, #4]
    1772:	e59f      	b.n	0x12b4
    1774:	5040      	str	r0, [r0, r1]
    1776:	e59f      	b.n	0x12b8
    1778:	6005      	str	r5, [r0, #0]
    177a:	e046      	b.n	0x180a
    177c:	faa3 ebff 			; <UNDEFINED> instruction: 0xfaa3ebff
    1780:	6146      	str	r6, [r0, #20]
    1782:	e1b0      	b.n	0x1ae6
    1784:	0007      	movs	r7, r0
    1786:	0a00      	lsrs	r0, r0, #8
    1788:	4000      	ands	r0, r0
    178a:	e3a0      	b.n	0x1ece
    178c:	5004      	str	r4, [r0, r0]
    178e:	e245      	b.n	0x1c1c
    1790:	4001      	ands	r1, r0
    1792:	e284      	b.n	0x1c9e
    1794:	3004      	adds	r0, #4
    1796:	e5b5      	b.n	0x1304
    1798:	e00f      	b.n	0x17ba
    179a:	e1a0      	b.n	0x1ade
    179c:	ff13 e12f 	vrhadd.u16	d14, d3, d31
    17a0:	0004      	movs	r4, r0
    17a2:	e156      	b.n	0x1a52
    17a4:	fff9 1aff 			; <UNDEFINED> instruction: 0xfff91aff
    17a8:	4070      	eors	r0, r6
    17aa:	e8bd ff1e 	ldmia.w	sp!, {r1, r2, r3, r4, r8, r9, sl, fp, ip, sp, lr, pc}
    17ae:	e12f      	b.n	0x1a10
    17b0:	2c94      	cmp	r4, #148	; 0x94
    17b2:	0300      	lsls	r0, r0, #12
    17b4:	2c94      	cmp	r4, #148	; 0x94
    17b6:	0300      	lsls	r0, r0, #12
    17b8:	2c98      	cmp	r4, #152	; 0x98
    17ba:	0300      	lsls	r0, r0, #12
    17bc:	2c94      	cmp	r4, #148	; 0x94
    17be:	0300      	lsls	r0, r0, #12
    17c0:	000f      	movs	r7, r1
    17c2:	e352      	b.n	0x1e6a
    17c4:	0035      	movs	r5, r6
    17c6:	9a00      	ldr	r2, [sp, #0]
    17c8:	3001      	adds	r0, #1
    17ca:	e180      	b.n	0x1ace
    17cc:	0003      	movs	r3, r0
    17ce:	e313      	b.n	0x1df8
    17d0:	003e      	movs	r6, r7
    17d2:	1a00      	subs	r0, r0, r0
    17d4:	41f0      	rors	r0, r6
    17d6:	e92d 8010 	stmdb	sp!, {r4, pc}
    17da:	e242      	b.n	0x1c62
    17dc:	8228      	strh	r0, [r5, #16]
    17de:	e1a0      	b.n	0x1b22
    17e0:	7020      	strb	r0, [r4, #0]
    17e2:	e281      	b.n	0x1ce8
    17e4:	7208      	strb	r0, [r1, #8]
    17e6:	e087      	b.n	0x18f8
    17e8:	3010      	adds	r0, #16
    17ea:	e281      	b.n	0x1cf0
    17ec:	c010      	stmia	r0!, {r4}
    17ee:	e280      	b.n	0x1cf2
    17f0:	6010      	str	r0, [r2, #0]
    17f2:	e513      	b.n	0x121c
    17f4:	500c      	str	r4, [r1, r0]
    17f6:	e513      	b.n	0x1220
    17f8:	4010      	ands	r0, r2
    17fa:	e913 3010 	ldmdb	r3, {r4, ip, sp}
    17fe:	e283      	b.n	0x1d08
    1800:	0007      	movs	r7, r0
    1802:	e153      	b.n	0x1aac
    1804:	6010      	str	r0, [r2, #0]
    1806:	e50c      	b.n	0x1222
    1808:	500c      	str	r4, [r1, r0]
    180a:	e50c      	b.n	0x1226
    180c:	4010      	ands	r0, r2
    180e:	e90c c010 	stmdb	ip, {r4, lr, pc}
    1812:	e28c      	b.n	0x1d2e
    1814:	fff5 1aff 			; <UNDEFINED> instruction: 0xfff51aff
    1818:	c001      	stmia	r0!, {r0}
    181a:	e288      	b.n	0x1d2e
    181c:	c20c      	stmia	r2!, {r2, r3}
    181e:	e1a0      	b.n	0x1b62
    1820:	000c      	movs	r4, r1
    1822:	e312      	b.n	0x1e4a
    1824:	e00f      	b.n	0x1846
    1826:	e202      	b.n	0x1c2e
    1828:	100c      	asrs	r4, r1, #32
    182a:	e081      	b.n	0x1930
    182c:	200e      	movs	r0, #14
    182e:	01a0      	lsls	r0, r4, #6
    1830:	c00c      	stmia	r0!, {r2, r3}
    1832:	e080      	b.n	0x1936
    1834:	000d      	movs	r5, r1
    1836:	0a00      	lsrs	r0, r0, #8
    1838:	4001      	ands	r1, r0
    183a:	e1a0      	b.n	0x1b7e
    183c:	e004      	b.n	0x1848
    183e:	e24e      	b.n	0x1cde
    1840:	e12e      	b.n	0x1aa0
    1842:	e1a0      	b.n	0x1b86
    1844:	610e      	str	r6, [r1, #16]
    1846:	e08c      	b.n	0x1962
    1848:	3004      	adds	r0, #4
    184a:	e24c      	b.n	0x1ce6
    184c:	5004      	str	r4, [r0, r0]
    184e:	e494      	b.n	0x117a
    1850:	5004      	str	r4, [r0, r0]
    1852:	e5a3      	b.n	0x139c
    1854:	0006      	movs	r6, r0
    1856:	e153      	b.n	0x1b00
    1858:	fffb 1aff 			; <UNDEFINED> instruction: 0xfffb1aff
    185c:	e001      	b.n	0x1862
    185e:	e28e      	b.n	0x1d7e
    1860:	e10e      	b.n	0x1a80
    1862:	e1a0      	b.n	0x1ba6
    1864:	c00e      	stmia	r0!, {r1, r2, r3}
    1866:	e08c      	b.n	0x1982
    1868:	100e      	asrs	r6, r1, #32
    186a:	e081      	b.n	0x1970
    186c:	2003      	movs	r0, #3
    186e:	e202      	b.n	0x1c76
    1870:	0000      	movs	r0, r0
    1872:	e352      	b.n	0x1f1a
    1874:	2001      	movs	r0, #1
    1876:	e242      	b.n	0x1cfe
    1878:	2001      	movs	r0, #1
    187a:	1282      	asrs	r2, r0, #10
    187c:	3002      	adds	r0, #2
    187e:	1081      	asrs	r1, r0, #2
    1880:	2001      	movs	r0, #1
    1882:	124c      	asrs	r4, r1, #9
    1884:	0003      	movs	r3, r0
    1886:	0a00      	lsrs	r0, r0, #8
    1888:	c001      	stmia	r0!, {r0}
    188a:	e4d1      	b.n	0x1230
    188c:	0003      	movs	r3, r0
    188e:	e151      	b.n	0x1b34
    1890:	c001      	stmia	r0!, {r0}
    1892:	e5e2      	b.n	0x145a
    1894:	fffb 1aff 			; <UNDEFINED> instruction: 0xfffb1aff
    1898:	41f0      	rors	r0, r6
    189a:	e8bd ff1e 	ldmia.w	sp!, {r1, r2, r3, r4, r8, r9, sl, fp, ip, sp, lr, pc}
    189e:	e12f      	b.n	0x1b00
    18a0:	0000      	movs	r0, r0
    18a2:	e352      	b.n	0x1f4a
    18a4:	c000      	stmia	r0!, {}
    18a6:	e1a0      	b.n	0x1bea
    18a8:	2001      	movs	r0, #1
    18aa:	e242      	b.n	0x1d32
    18ac:	ff1e 012f 	vrhadd.u16	d0, d14, d31
    18b0:	2001      	movs	r0, #1
    18b2:	e282      	b.n	0x1dba
    18b4:	3002      	adds	r0, #2
    18b6:	e081      	b.n	0x19bc
    18b8:	2001      	movs	r0, #1
    18ba:	e24c      	b.n	0x1d56
    18bc:	c001      	stmia	r0!, {r0}
    18be:	e4d1      	b.n	0x1264
    18c0:	0003      	movs	r3, r0
    18c2:	e151      	b.n	0x1b68
    18c4:	c001      	stmia	r0!, {r0}
    18c6:	e5e2      	b.n	0x148e
    18c8:	fffb 1aff 			; <UNDEFINED> instruction: 0xfffb1aff
    18cc:	ff1e e12f 	vrhadd.u16	d14, d14, d31
    18d0:	2001      	movs	r0, #1
    18d2:	e242      	b.n	0x1d5a
    18d4:	c000      	stmia	r0!, {}
    18d6:	e1a0      	b.n	0x1c1a
    18d8:	fff4 eaff 			; <UNDEFINED> instruction: 0xfff4eaff
    18dc:	c00d      	stmia	r0!, {r0, r2, r3}
    18de:	e1a0      	b.n	0x1c22
    18e0:	dff8      	svc	248	; 0xf8
    18e2:	e92d b004 	stmdb	sp!, {r2, ip, sp, pc}
    18e6:	e24c      	b.n	0x1d82
    18e8:	d028      	beq.n	0x193c
    18ea:	e24b      	b.n	0x1d84
    18ec:	6ff0      	ldr	r0, [r6, #124]	; 0x7c
    18ee:	e89d ff1e 	ldmia.w	sp, {r1, r2, r3, r4, r8, r9, sl, fp, ip, sp, lr, pc}
    18f2:	e12f      	b.n	0x1b54
    18f4:	4150      	adcs	r0, r2
    18f6:	5353      	strh	r3, [r2, r5]
    18f8:	0000      	movs	r0, r0
    18fa:	0000      	movs	r0, r0
    18fc:	4146      	adcs	r6, r0
    18fe:	4c49      	ldr	r4, [pc, #292]	; (0x1a24)
    1900:	0000      	movs	r0, r0
    1902:	0000      	movs	r0, r0
    1904:	4844      	ldr	r0, [pc, #272]	; (0x1a18)
    1906:	5952      	ldr	r2, [r2, r5]
    1908:	5453      	strb	r3, [r2, r1]
    190a:	4e4f      	ldr	r6, [pc, #316]	; (0x1a48)
    190c:	2045      	movs	r0, #69	; 0x45
    190e:	5250      	strh	r0, [r2, r1]
    1910:	474f      	bx	r9
    1912:	4152      	adcs	r2, r2
    1914:	2c4d      	cmp	r4, #77	; 0x4d
    1916:	5320      	strh	r0, [r4, r4]
    1918:	4d4f      	ldr	r5, [pc, #316]	; (0x1a58)
    191a:	2045      	movs	r0, #69	; 0x45
    191c:	5453      	strb	r3, [r2, r1]
    191e:	4952      	ldr	r1, [pc, #328]	; (0x1a68)
    1920:	474e      	bx	r9
    1922:	0000      	movs	r0, r0
    1924:	2c43      	cmp	r4, #67	; 0x43
    1926:	5620      	ldrsb	r0, [r4, r0]
    1928:	7265      	strb	r5, [r4, #9]
    192a:	6973      	ldr	r3, [r6, #20]
    192c:	6e6f      	ldr	r7, [r5, #100]	; 0x64
    192e:	3220      	adds	r2, #32
    1930:	322e      	adds	r2, #46	; 0x2e
    1932:	0000      	movs	r0, r0
    1934:	6844      	ldr	r4, [r0, #4]
    1936:	7972      	ldrb	r2, [r6, #5]
    1938:	7473      	strb	r3, [r6, #17]
    193a:	6e6f      	ldr	r7, [r5, #100]	; 0x64
    193c:	2065      	movs	r0, #101	; 0x65
    193e:	6542      	str	r2, [r0, #84]	; 0x54
    1940:	636e      	str	r6, [r5, #52]	; 0x34
    1942:	6d68      	ldr	r0, [r5, #84]	; 0x54
    1944:	7261      	strb	r1, [r4, #9]
    1946:	2c6b      	cmp	r4, #107	; 0x6b
    1948:	5620      	ldrsb	r0, [r4, r0]
    194a:	7265      	strb	r5, [r4, #9]
    194c:	6973      	ldr	r3, [r6, #20]
    194e:	6e6f      	ldr	r7, [r5, #100]	; 0x64
    1950:	2520      	movs	r5, #32
    1952:	0a73      	lsrs	r3, r6, #9
    1954:	0000      	movs	r0, r0
    1956:	0000      	movs	r0, r0
    1958:	7254      	strb	r4, [r2, #9]
    195a:	6979      	ldr	r1, [r7, #20]
    195c:	676e      	str	r6, [r5, #116]	; 0x74
    195e:	2520      	movs	r5, #32
    1960:	2064      	movs	r0, #100	; 0x64
    1962:	7572      	strb	r2, [r6, #21]
    1964:	736e      	strb	r6, [r5, #13]
    1966:	7420      	strb	r0, [r4, #16]
    1968:	7268      	strb	r0, [r5, #9]
    196a:	756f      	strb	r7, [r5, #21]
    196c:	6867      	ldr	r7, [r4, #4]
    196e:	4420      	add	r0, r4
    1970:	7268      	strb	r0, [r5, #9]
    1972:	7379      	strb	r1, [r7, #13]
    1974:	6f74      	ldr	r4, [r6, #116]	; 0x74
    1976:	656e      	str	r6, [r5, #84]	; 0x54
    1978:	0a2e      	lsrs	r6, r5, #8
    197a:	0000      	movs	r0, r0
    197c:	6e49      	ldr	r1, [r1, #100]	; 0x64
    197e:	5f74      	ldrsh	r4, [r6, r5]
    1980:	6c47      	ldr	r7, [r0, #68]	; 0x44
    1982:	626f      	str	r7, [r5, #36]	; 0x24
    1984:	203a      	movs	r0, #58	; 0x3a
    1986:	2020      	movs	r0, #32
    1988:	2020      	movs	r0, #32
    198a:	2020      	movs	r0, #32
    198c:	2020      	movs	r0, #32
    198e:	2020      	movs	r0, #32
    1990:	2520      	movs	r5, #32
    1992:	0a64      	lsrs	r4, r4, #9
    1994:	0000      	movs	r0, r0
    1996:	0000      	movs	r0, r0
    1998:	2020      	movs	r0, #32
    199a:	2020      	movs	r0, #32
    199c:	2020      	movs	r0, #32
    199e:	2020      	movs	r0, #32
    19a0:	6873      	ldr	r3, [r6, #4]
    19a2:	756f      	strb	r7, [r5, #21]
    19a4:	646c      	str	r4, [r5, #68]	; 0x44
    19a6:	6220      	str	r0, [r4, #32]
    19a8:	3a65      	subs	r2, #101	; 0x65
    19aa:	2020      	movs	r0, #32
    19ac:	2520      	movs	r5, #32
    19ae:	0a64      	lsrs	r4, r4, #9
    19b0:	0000      	movs	r0, r0
    19b2:	0000      	movs	r0, r0
    19b4:	6f42      	ldr	r2, [r0, #116]	; 0x74
    19b6:	6c6f      	ldr	r7, [r5, #68]	; 0x44
    19b8:	475f      	bx	fp
    19ba:	6f6c      	ldr	r4, [r5, #116]	; 0x74
    19bc:	3a62      	subs	r2, #98	; 0x62
    19be:	2020      	movs	r0, #32
    19c0:	2020      	movs	r0, #32
    19c2:	2020      	movs	r0, #32
    19c4:	2020      	movs	r0, #32
    19c6:	2020      	movs	r0, #32
    19c8:	2520      	movs	r5, #32
    19ca:	0a64      	lsrs	r4, r4, #9
    19cc:	0000      	movs	r0, r0
    19ce:	0000      	movs	r0, r0
    19d0:	6843      	ldr	r3, [r0, #4]
    19d2:	315f      	adds	r1, #95	; 0x5f
    19d4:	475f      	bx	fp
    19d6:	6f6c      	ldr	r4, [r5, #116]	; 0x74
    19d8:	3a62      	subs	r2, #98	; 0x62
    19da:	2020      	movs	r0, #32
    19dc:	2020      	movs	r0, #32
    19de:	2020      	movs	r0, #32
    19e0:	2020      	movs	r0, #32
    19e2:	2020      	movs	r0, #32
    19e4:	2520      	movs	r5, #32
    19e6:	0a63      	lsrs	r3, r4, #9
    19e8:	0000      	movs	r0, r0
    19ea:	0000      	movs	r0, r0
    19ec:	2020      	movs	r0, #32
    19ee:	2020      	movs	r0, #32
    19f0:	2020      	movs	r0, #32
    19f2:	2020      	movs	r0, #32
    19f4:	6873      	ldr	r3, [r6, #4]
    19f6:	756f      	strb	r7, [r5, #21]
    19f8:	646c      	str	r4, [r5, #68]	; 0x44
    19fa:	6220      	str	r0, [r4, #32]
    19fc:	3a65      	subs	r2, #101	; 0x65
    19fe:	2020      	movs	r0, #32
    1a00:	2520      	movs	r5, #32
    1a02:	0a63      	lsrs	r3, r4, #9
    1a04:	0000      	movs	r0, r0
    1a06:	0000      	movs	r0, r0
    1a08:	6843      	ldr	r3, [r0, #4]
    1a0a:	325f      	adds	r2, #95	; 0x5f
    1a0c:	475f      	bx	fp
    1a0e:	6f6c      	ldr	r4, [r5, #116]	; 0x74
    1a10:	3a62      	subs	r2, #98	; 0x62
    1a12:	2020      	movs	r0, #32
    1a14:	2020      	movs	r0, #32
    1a16:	2020      	movs	r0, #32
    1a18:	2020      	movs	r0, #32
    1a1a:	2020      	movs	r0, #32
    1a1c:	2520      	movs	r5, #32
    1a1e:	0a63      	lsrs	r3, r4, #9
    1a20:	0000      	movs	r0, r0
    1a22:	0000      	movs	r0, r0
    1a24:	7241      	strb	r1, [r0, #9]
    1a26:	5f72      	ldrsh	r2, [r6, r5]
    1a28:	5f31      	ldrsh	r1, [r6, r4]
    1a2a:	6c47      	ldr	r7, [r0, #68]	; 0x44
    1a2c:	626f      	str	r7, [r5, #36]	; 0x24
    1a2e:	385b      	subs	r0, #91	; 0x5b
    1a30:	3a5d      	subs	r2, #93	; 0x5d
    1a32:	2020      	movs	r0, #32
    1a34:	2020      	movs	r0, #32
    1a36:	2020      	movs	r0, #32
    1a38:	2520      	movs	r5, #32
    1a3a:	0a64      	lsrs	r4, r4, #9
    1a3c:	0000      	movs	r0, r0
    1a3e:	0000      	movs	r0, r0
    1a40:	7241      	strb	r1, [r0, #9]
    1a42:	5f72      	ldrsh	r2, [r6, r5]
    1a44:	5f32      	ldrsh	r2, [r6, r4]
    1a46:	6c47      	ldr	r7, [r0, #68]	; 0x44
    1a48:	626f      	str	r7, [r5, #36]	; 0x24
    1a4a:	385b      	subs	r0, #91	; 0x5b
    1a4c:	5b5d      	ldrh	r5, [r3, r5]
    1a4e:	5d37      	ldrb	r7, [r6, r4]
    1a50:	203a      	movs	r0, #58	; 0x3a
    1a52:	2020      	movs	r0, #32
    1a54:	2520      	movs	r5, #32
    1a56:	0a64      	lsrs	r4, r4, #9
    1a58:	0000      	movs	r0, r0
    1a5a:	0000      	movs	r0, r0
    1a5c:	2020      	movs	r0, #32
    1a5e:	2020      	movs	r0, #32
    1a60:	2020      	movs	r0, #32
    1a62:	2020      	movs	r0, #32
    1a64:	6873      	ldr	r3, [r6, #4]
    1a66:	756f      	strb	r7, [r5, #21]
    1a68:	646c      	str	r4, [r5, #68]	; 0x44
    1a6a:	6220      	str	r0, [r4, #32]
    1a6c:	3a65      	subs	r2, #101	; 0x65
    1a6e:	2020      	movs	r0, #32
    1a70:	4e20      	ldr	r6, [pc, #128]	; (0x1af4)
    1a72:	6d75      	ldr	r5, [r6, #84]	; 0x54
    1a74:	6562      	str	r2, [r4, #84]	; 0x54
    1a76:	5f72      	ldrsh	r2, [r6, r5]
    1a78:	664f      	str	r7, [r1, #100]	; 0x64
    1a7a:	525f      	strh	r7, [r3, r1]
    1a7c:	6e75      	ldr	r5, [r6, #100]	; 0x64
    1a7e:	2073      	movs	r0, #115	; 0x73
    1a80:	202b      	movs	r0, #43	; 0x2b
    1a82:	3031      	adds	r0, #49	; 0x31
    1a84:	000a      	movs	r2, r1
    1a86:	0000      	movs	r0, r0
    1a88:	7450      	strb	r0, [r2, #17]
    1a8a:	5f72      	ldrsh	r2, [r6, r5]
    1a8c:	6c47      	ldr	r7, [r0, #68]	; 0x44
    1a8e:	626f      	str	r7, [r5, #36]	; 0x24
    1a90:	3e2d      	subs	r6, #45	; 0x2d
    1a92:	6944      	ldr	r4, [r0, #20]
    1a94:	6373      	str	r3, [r6, #52]	; 0x34
    1a96:	3a72      	subs	r2, #114	; 0x72
    1a98:	2020      	movs	r0, #32
    1a9a:	2020      	movs	r0, #32
    1a9c:	2020      	movs	r0, #32
    1a9e:	2020      	movs	r0, #32
    1aa0:	2020      	movs	r0, #32
    1aa2:	2020      	movs	r0, #32
    1aa4:	2520      	movs	r5, #32
    1aa6:	0a64      	lsrs	r4, r4, #9
    1aa8:	0000      	movs	r0, r0
    1aaa:	0000      	movs	r0, r0
    1aac:	7450      	strb	r0, [r2, #17]
    1aae:	5f72      	ldrsh	r2, [r6, r5]
    1ab0:	6c47      	ldr	r7, [r0, #68]	; 0x44
    1ab2:	626f      	str	r7, [r5, #36]	; 0x24
    1ab4:	3e2d      	subs	r6, #45	; 0x2d
    1ab6:	6e45      	ldr	r5, [r0, #100]	; 0x64
    1ab8:	6d75      	ldr	r5, [r6, #84]	; 0x54
    1aba:	435f      	muls	r7, r3
    1abc:	6d6f      	ldr	r7, [r5, #84]	; 0x54
    1abe:	3a70      	subs	r2, #112	; 0x70
    1ac0:	2020      	movs	r0, #32
    1ac2:	2020      	movs	r0, #32
    1ac4:	2020      	movs	r0, #32
    1ac6:	2020      	movs	r0, #32
    1ac8:	2520      	movs	r5, #32
    1aca:	0a64      	lsrs	r4, r4, #9
    1acc:	0000      	movs	r0, r0
    1ace:	0000      	movs	r0, r0
    1ad0:	7450      	strb	r0, [r2, #17]
    1ad2:	5f72      	ldrsh	r2, [r6, r5]
    1ad4:	6c47      	ldr	r7, [r0, #68]	; 0x44
    1ad6:	626f      	str	r7, [r5, #36]	; 0x24
    1ad8:	3e2d      	subs	r6, #45	; 0x2d
    1ada:	6e49      	ldr	r1, [r1, #100]	; 0x64
    1adc:	5f74      	ldrsh	r4, [r6, r5]
    1ade:	6f43      	ldr	r3, [r0, #116]	; 0x74
    1ae0:	706d      	strb	r5, [r5, #1]
    1ae2:	203a      	movs	r0, #58	; 0x3a
    1ae4:	2020      	movs	r0, #32
    1ae6:	2020      	movs	r0, #32
    1ae8:	2020      	movs	r0, #32
    1aea:	2020      	movs	r0, #32
    1aec:	2520      	movs	r5, #32
    1aee:	0a64      	lsrs	r4, r4, #9
    1af0:	0000      	movs	r0, r0
    1af2:	0000      	movs	r0, r0
    1af4:	7450      	strb	r0, [r2, #17]
    1af6:	5f72      	ldrsh	r2, [r6, r5]
    1af8:	6c47      	ldr	r7, [r0, #68]	; 0x44
    1afa:	626f      	str	r7, [r5, #36]	; 0x24
    1afc:	3e2d      	subs	r6, #45	; 0x2d
    1afe:	7453      	strb	r3, [r2, #17]
    1b00:	5f72      	ldrsh	r2, [r6, r5]
    1b02:	6f43      	ldr	r3, [r0, #116]	; 0x74
    1b04:	706d      	strb	r5, [r5, #1]
    1b06:	203a      	movs	r0, #58	; 0x3a
    1b08:	2020      	movs	r0, #32
    1b0a:	2020      	movs	r0, #32
    1b0c:	2020      	movs	r0, #32
    1b0e:	2020      	movs	r0, #32
    1b10:	2520      	movs	r5, #32
    1b12:	0a73      	lsrs	r3, r6, #9
    1b14:	0000      	movs	r0, r0
    1b16:	0000      	movs	r0, r0
    1b18:	2020      	movs	r0, #32
    1b1a:	2020      	movs	r0, #32
    1b1c:	2020      	movs	r0, #32
    1b1e:	2020      	movs	r0, #32
    1b20:	6873      	ldr	r3, [r6, #4]
    1b22:	756f      	strb	r7, [r5, #21]
    1b24:	646c      	str	r4, [r5, #68]	; 0x44
    1b26:	6220      	str	r0, [r4, #32]
    1b28:	3a65      	subs	r2, #101	; 0x65
    1b2a:	2020      	movs	r0, #32
    1b2c:	4420      	add	r0, r4
    1b2e:	5248      	strh	r0, [r1, r1]
    1b30:	5359      	strh	r1, [r3, r5]
    1b32:	4f54      	ldr	r7, [pc, #336]	; (0x1c84)
    1b34:	454e      	cmp	r6, r9
    1b36:	5020      	str	r0, [r4, r0]
    1b38:	4f52      	ldr	r7, [pc, #328]	; (0x1c84)
    1b3a:	5247      	strh	r7, [r0, r1]
    1b3c:	4d41      	ldr	r5, [pc, #260]	; (0x1c44)
    1b3e:	202c      	movs	r0, #44	; 0x2c
    1b40:	4f53      	ldr	r7, [pc, #332]	; (0x1c90)
    1b42:	454d      	cmp	r5, r9
    1b44:	5320      	strh	r0, [r4, r4]
    1b46:	5254      	strh	r4, [r2, r1]
    1b48:	4e49      	ldr	r6, [pc, #292]	; (0x1c70)
    1b4a:	0a47      	lsrs	r7, r0, #9
    1b4c:	0000      	movs	r0, r0
    1b4e:	0000      	movs	r0, r0
    1b50:	654e      	str	r6, [r1, #84]	; 0x54
    1b52:	7478      	strb	r0, [r7, #17]
    1b54:	505f      	str	r7, [r3, r1]
    1b56:	7274      	strb	r4, [r6, #9]
    1b58:	475f      	bx	fp
    1b5a:	6f6c      	ldr	r4, [r5, #116]	; 0x74
    1b5c:	2d62      	cmp	r5, #98	; 0x62
    1b5e:	443e      	add	r6, r7
    1b60:	7369      	strb	r1, [r5, #13]
    1b62:	7263      	strb	r3, [r4, #9]
    1b64:	203a      	movs	r0, #58	; 0x3a
    1b66:	2020      	movs	r0, #32
    1b68:	2020      	movs	r0, #32
    1b6a:	2020      	movs	r0, #32
    1b6c:	2020      	movs	r0, #32
    1b6e:	2020      	movs	r0, #32
    1b70:	2020      	movs	r0, #32
    1b72:	6425      	str	r5, [r4, #64]	; 0x40
    1b74:	000a      	movs	r2, r1
    1b76:	0000      	movs	r0, r0
    1b78:	654e      	str	r6, [r1, #84]	; 0x54
    1b7a:	7478      	strb	r0, [r7, #17]
    1b7c:	505f      	str	r7, [r3, r1]
    1b7e:	7274      	strb	r4, [r6, #9]
    1b80:	475f      	bx	fp
    1b82:	6f6c      	ldr	r4, [r5, #116]	; 0x74
    1b84:	2d62      	cmp	r5, #98	; 0x62
    1b86:	453e      	cmp	r6, r7
    1b88:	756e      	strb	r6, [r5, #21]
    1b8a:	5f6d      	ldrsh	r5, [r5, r5]
    1b8c:	6f43      	ldr	r3, [r0, #116]	; 0x74
    1b8e:	706d      	strb	r5, [r5, #1]
    1b90:	203a      	movs	r0, #58	; 0x3a
    1b92:	2020      	movs	r0, #32
    1b94:	2020      	movs	r0, #32
    1b96:	2020      	movs	r0, #32
    1b98:	2020      	movs	r0, #32
    1b9a:	6425      	str	r5, [r4, #64]	; 0x40
    1b9c:	000a      	movs	r2, r1
    1b9e:	0000      	movs	r0, r0
    1ba0:	654e      	str	r6, [r1, #84]	; 0x54
    1ba2:	7478      	strb	r0, [r7, #17]
    1ba4:	505f      	str	r7, [r3, r1]
    1ba6:	7274      	strb	r4, [r6, #9]
    1ba8:	475f      	bx	fp
    1baa:	6f6c      	ldr	r4, [r5, #116]	; 0x74
    1bac:	2d62      	cmp	r5, #98	; 0x62
    1bae:	493e      	ldr	r1, [pc, #248]	; (0x1ca8)
    1bb0:	746e      	strb	r6, [r5, #17]
    1bb2:	435f      	muls	r7, r3
    1bb4:	6d6f      	ldr	r7, [r5, #84]	; 0x54
    1bb6:	3a70      	subs	r2, #112	; 0x70
    1bb8:	2020      	movs	r0, #32
    1bba:	2020      	movs	r0, #32
    1bbc:	2020      	movs	r0, #32
    1bbe:	2020      	movs	r0, #32
    1bc0:	2020      	movs	r0, #32
    1bc2:	6425      	str	r5, [r4, #64]	; 0x40
    1bc4:	000a      	movs	r2, r1
    1bc6:	0000      	movs	r0, r0
    1bc8:	654e      	str	r6, [r1, #84]	; 0x54
    1bca:	7478      	strb	r0, [r7, #17]
    1bcc:	505f      	str	r7, [r3, r1]
    1bce:	7274      	strb	r4, [r6, #9]
    1bd0:	475f      	bx	fp
    1bd2:	6f6c      	ldr	r4, [r5, #116]	; 0x74
    1bd4:	2d62      	cmp	r5, #98	; 0x62
    1bd6:	533e      	strh	r6, [r7, r4]
    1bd8:	7274      	strb	r4, [r6, #9]
    1bda:	435f      	muls	r7, r3
    1bdc:	6d6f      	ldr	r7, [r5, #84]	; 0x54
    1bde:	3a70      	subs	r2, #112	; 0x70
    1be0:	2020      	movs	r0, #32
    1be2:	2020      	movs	r0, #32
    1be4:	2020      	movs	r0, #32
    1be6:	2020      	movs	r0, #32
    1be8:	2020      	movs	r0, #32
    1bea:	7325      	strb	r5, [r4, #12]
    1bec:	000a      	movs	r2, r1
    1bee:	0000      	movs	r0, r0
    1bf0:	6e49      	ldr	r1, [r1, #100]	; 0x64
    1bf2:	5f74      	ldrsh	r4, [r6, r5]
    1bf4:	5f31      	ldrsh	r1, [r6, r4]
    1bf6:	6f4c      	ldr	r4, [r1, #116]	; 0x74
    1bf8:	3a63      	subs	r2, #99	; 0x63
    1bfa:	2020      	movs	r0, #32
    1bfc:	2020      	movs	r0, #32
    1bfe:	2020      	movs	r0, #32
    1c00:	2020      	movs	r0, #32
    1c02:	2020      	movs	r0, #32
    1c04:	2520      	movs	r5, #32
    1c06:	0a64      	lsrs	r4, r4, #9
    1c08:	0000      	movs	r0, r0
    1c0a:	0000      	movs	r0, r0
    1c0c:	6e49      	ldr	r1, [r1, #100]	; 0x64
    1c0e:	5f74      	ldrsh	r4, [r6, r5]
    1c10:	5f32      	ldrsh	r2, [r6, r4]
    1c12:	6f4c      	ldr	r4, [r1, #116]	; 0x74
    1c14:	3a63      	subs	r2, #99	; 0x63
    1c16:	2020      	movs	r0, #32
    1c18:	2020      	movs	r0, #32
    1c1a:	2020      	movs	r0, #32
    1c1c:	2020      	movs	r0, #32
    1c1e:	2020      	movs	r0, #32
    1c20:	2520      	movs	r5, #32
    1c22:	0a64      	lsrs	r4, r4, #9
    1c24:	0000      	movs	r0, r0
    1c26:	0000      	movs	r0, r0
    1c28:	6e45      	ldr	r5, [r0, #100]	; 0x64
    1c2a:	6d75      	ldr	r5, [r6, #84]	; 0x54
    1c2c:	4c5f      	ldr	r4, [pc, #380]	; (0x1dac)
    1c2e:	636f      	str	r7, [r5, #52]	; 0x34
    1c30:	203a      	movs	r0, #58	; 0x3a
    1c32:	2020      	movs	r0, #32
    1c34:	2020      	movs	r0, #32
    1c36:	2020      	movs	r0, #32
    1c38:	2020      	movs	r0, #32
    1c3a:	2020      	movs	r0, #32
    1c3c:	2520      	movs	r5, #32
    1c3e:	0a64      	lsrs	r4, r4, #9
    1c40:	0000      	movs	r0, r0
    1c42:	0000      	movs	r0, r0
    1c44:	4844      	ldr	r0, [pc, #272]	; (0x1d58)
    1c46:	5952      	ldr	r2, [r2, r5]
    1c48:	5453      	strb	r3, [r2, r1]
    1c4a:	4e4f      	ldr	r6, [pc, #316]	; (0x1d88)
    1c4c:	2045      	movs	r0, #69	; 0x45
    1c4e:	5250      	strh	r0, [r2, r1]
    1c50:	474f      	bx	r9
    1c52:	4152      	adcs	r2, r2
    1c54:	2c4d      	cmp	r4, #77	; 0x4d
    1c56:	3120      	adds	r1, #32
    1c58:	5327      	strh	r7, [r4, r4]
    1c5a:	2054      	movs	r0, #84	; 0x54
    1c5c:	5453      	strb	r3, [r2, r1]
    1c5e:	4952      	ldr	r1, [pc, #328]	; (0x1da8)
    1c60:	474e      	bx	r9
    1c62:	0000      	movs	r0, r0
    1c64:	7453      	strb	r3, [r2, #17]
    1c66:	5f72      	ldrsh	r2, [r6, r5]
    1c68:	5f31      	ldrsh	r1, [r6, r4]
    1c6a:	6f4c      	ldr	r4, [r1, #116]	; 0x74
    1c6c:	3a63      	subs	r2, #99	; 0x63
    1c6e:	2020      	movs	r0, #32
    1c70:	2020      	movs	r0, #32
    1c72:	2020      	movs	r0, #32
    1c74:	2020      	movs	r0, #32
    1c76:	2020      	movs	r0, #32
    1c78:	2520      	movs	r5, #32
    1c7a:	0a73      	lsrs	r3, r6, #9
    1c7c:	0000      	movs	r0, r0
    1c7e:	0000      	movs	r0, r0
    1c80:	2020      	movs	r0, #32
    1c82:	2020      	movs	r0, #32
    1c84:	2020      	movs	r0, #32
    1c86:	2020      	movs	r0, #32
    1c88:	6873      	ldr	r3, [r6, #4]
    1c8a:	756f      	strb	r7, [r5, #21]
    1c8c:	646c      	str	r4, [r5, #68]	; 0x44
    1c8e:	6220      	str	r0, [r4, #32]
    1c90:	3a65      	subs	r2, #101	; 0x65
    1c92:	2020      	movs	r0, #32
    1c94:	4420      	add	r0, r4
    1c96:	5248      	strh	r0, [r1, r1]
    1c98:	5359      	strh	r1, [r3, r5]
    1c9a:	4f54      	ldr	r7, [pc, #336]	; (0x1dec)
    1c9c:	454e      	cmp	r6, r9
    1c9e:	5020      	str	r0, [r4, r0]
    1ca0:	4f52      	ldr	r7, [pc, #328]	; (0x1dec)
    1ca2:	5247      	strh	r7, [r0, r1]
    1ca4:	4d41      	ldr	r5, [pc, #260]	; (0x1dac)
    1ca6:	202c      	movs	r0, #44	; 0x2c
    1ca8:	2731      	movs	r7, #49	; 0x31
    1caa:	5453      	strb	r3, [r2, r1]
    1cac:	5320      	strh	r0, [r4, r4]
    1cae:	5254      	strh	r4, [r2, r1]
    1cb0:	4e49      	ldr	r6, [pc, #292]	; (0x1dd8)
    1cb2:	0a47      	lsrs	r7, r0, #9
    1cb4:	0000      	movs	r0, r0
    1cb6:	0000      	movs	r0, r0
    1cb8:	4844      	ldr	r0, [pc, #272]	; (0x1dcc)
    1cba:	5952      	ldr	r2, [r2, r5]
    1cbc:	5453      	strb	r3, [r2, r1]
    1cbe:	4e4f      	ldr	r6, [pc, #316]	; (0x1dfc)
    1cc0:	2045      	movs	r0, #69	; 0x45
    1cc2:	5250      	strh	r0, [r2, r1]
    1cc4:	474f      	bx	r9
    1cc6:	4152      	adcs	r2, r2
    1cc8:	2c4d      	cmp	r4, #77	; 0x4d
    1cca:	3220      	adds	r2, #32
    1ccc:	4e27      	ldr	r6, [pc, #156]	; (0x1d6c)
    1cce:	2044      	movs	r0, #68	; 0x44
    1cd0:	5453      	strb	r3, [r2, r1]
    1cd2:	4952      	ldr	r1, [pc, #328]	; (0x1e1c)
    1cd4:	474e      	bx	r9
    1cd6:	0000      	movs	r0, r0
    1cd8:	7453      	strb	r3, [r2, #17]
    1cda:	5f72      	ldrsh	r2, [r6, r5]
    1cdc:	5f32      	ldrsh	r2, [r6, r4]
    1cde:	6f4c      	ldr	r4, [r1, #116]	; 0x74
    1ce0:	3a63      	subs	r2, #99	; 0x63
    1ce2:	2020      	movs	r0, #32
    1ce4:	2020      	movs	r0, #32
    1ce6:	2020      	movs	r0, #32
    1ce8:	2020      	movs	r0, #32
    1cea:	2020      	movs	r0, #32
    1cec:	2520      	movs	r5, #32
    1cee:	0a73      	lsrs	r3, r6, #9
    1cf0:	0000      	movs	r0, r0
    1cf2:	0000      	movs	r0, r0
    1cf4:	2020      	movs	r0, #32
    1cf6:	2020      	movs	r0, #32
    1cf8:	2020      	movs	r0, #32
    1cfa:	2020      	movs	r0, #32
    1cfc:	6873      	ldr	r3, [r6, #4]
    1cfe:	756f      	strb	r7, [r5, #21]
    1d00:	646c      	str	r4, [r5, #68]	; 0x44
    1d02:	6220      	str	r0, [r4, #32]
    1d04:	3a65      	subs	r2, #101	; 0x65
    1d06:	2020      	movs	r0, #32
    1d08:	4420      	add	r0, r4
    1d0a:	5248      	strh	r0, [r1, r1]
    1d0c:	5359      	strh	r1, [r3, r5]
    1d0e:	4f54      	ldr	r7, [pc, #336]	; (0x1e60)
    1d10:	454e      	cmp	r6, r9
    1d12:	5020      	str	r0, [r4, r0]
    1d14:	4f52      	ldr	r7, [pc, #328]	; (0x1e60)
    1d16:	5247      	strh	r7, [r0, r1]
    1d18:	4d41      	ldr	r5, [pc, #260]	; (0x1e20)
    1d1a:	202c      	movs	r0, #44	; 0x2c
    1d1c:	2732      	movs	r7, #50	; 0x32
    1d1e:	444e      	add	r6, r9
    1d20:	5320      	strh	r0, [r4, r4]
    1d22:	5254      	strh	r4, [r2, r1]
    1d24:	4e49      	ldr	r6, [pc, #292]	; (0x1e4c)
    1d26:	0a47      	lsrs	r7, r0, #9
    1d28:	0000      	movs	r0, r0
    1d2a:	0000      	movs	r0, r0
    1d2c:	6946      	ldr	r6, [r0, #20]
    1d2e:	696e      	ldr	r6, [r5, #20]
    1d30:	6873      	ldr	r3, [r6, #4]
    1d32:	6465      	str	r5, [r4, #68]	; 0x44
    1d34:	6920      	ldr	r0, [r4, #16]
    1d36:	206e      	movs	r0, #110	; 0x6e
    1d38:	6425      	str	r5, [r4, #64]	; 0x40
    1d3a:	6d20      	ldr	r0, [r4, #80]	; 0x50
    1d3c:	0a73      	lsrs	r3, r6, #9
    1d3e:	0000      	movs	r0, r0
    1d40:	3d3d      	subs	r5, #61	; 0x3d
    1d42:	3d3d      	subs	r5, #61	; 0x3d
    1d44:	3d3d      	subs	r5, #61	; 0x3d
    1d46:	3d3d      	subs	r5, #61	; 0x3d
    1d48:	3d3d      	subs	r5, #61	; 0x3d
    1d4a:	3d3d      	subs	r5, #61	; 0x3d
    1d4c:	3d3d      	subs	r5, #61	; 0x3d
    1d4e:	3d3d      	subs	r5, #61	; 0x3d
    1d50:	3d3d      	subs	r5, #61	; 0x3d
    1d52:	3d3d      	subs	r5, #61	; 0x3d
    1d54:	3d3d      	subs	r5, #61	; 0x3d
    1d56:	3d3d      	subs	r5, #61	; 0x3d
    1d58:	3d3d      	subs	r5, #61	; 0x3d
    1d5a:	3d3d      	subs	r5, #61	; 0x3d
    1d5c:	3d3d      	subs	r5, #61	; 0x3d
    1d5e:	3d3d      	subs	r5, #61	; 0x3d
    1d60:	3d3d      	subs	r5, #61	; 0x3d
    1d62:	3d3d      	subs	r5, #61	; 0x3d
    1d64:	3d3d      	subs	r5, #61	; 0x3d
    1d66:	3d3d      	subs	r5, #61	; 0x3d
    1d68:	3d3d      	subs	r5, #61	; 0x3d
    1d6a:	3d3d      	subs	r5, #61	; 0x3d
    1d6c:	3d3d      	subs	r5, #61	; 0x3d
    1d6e:	3d3d      	subs	r5, #61	; 0x3d
    1d70:	3d3d      	subs	r5, #61	; 0x3d
    1d72:	000a      	movs	r2, r1
    1d74:	6844      	ldr	r4, [r0, #4]
    1d76:	7972      	ldrb	r2, [r6, #5]
    1d78:	7473      	strb	r3, [r6, #17]
    1d7a:	6e6f      	ldr	r7, [r5, #100]	; 0x64
    1d7c:	2065      	movs	r0, #101	; 0x65
    1d7e:	7325      	strb	r5, [r4, #12]
    1d80:	2020      	movs	r0, #32
    1d82:	2020      	movs	r0, #32
    1d84:	2020      	movs	r0, #32
    1d86:	2020      	movs	r0, #32
    1d88:	2520      	movs	r5, #32
    1d8a:	2064      	movs	r0, #100	; 0x64
    1d8c:	614d      	str	r5, [r1, #20]
    1d8e:	6b72      	ldr	r2, [r6, #52]	; 0x34
    1d90:	0a73      	lsrs	r3, r6, #9
    1d92:	0000      	movs	r0, r0
    1d94:	2020      	movs	r0, #32
    1d96:	2020      	movs	r0, #32
    1d98:	2020      	movs	r0, #32
    1d9a:	2020      	movs	r0, #32
    1d9c:	2020      	movs	r0, #32
    1d9e:	2020      	movs	r0, #32
    1da0:	2020      	movs	r0, #32
    1da2:	2020      	movs	r0, #32
    1da4:	2020      	movs	r0, #32
    1da6:	7620      	strb	r0, [r4, #24]
    1da8:	2e73      	cmp	r6, #115	; 0x73
    1daa:	3120      	adds	r1, #32
    1dac:	3030      	adds	r0, #48	; 0x30
    1dae:	3030      	adds	r0, #48	; 0x30
    1db0:	2030      	movs	r0, #48	; 0x30
    1db2:	614d      	str	r5, [r1, #20]
    1db4:	6b72      	ldr	r2, [r6, #52]	; 0x34
    1db6:	2073      	movs	r0, #115	; 0x73
    1db8:	6928      	ldr	r0, [r5, #16]
    1dba:	2d37      	cmp	r5, #55	; 0x37
    1dbc:	3736      	adds	r7, #54	; 0x36
    1dbe:	3030      	adds	r0, #48	; 0x30
    1dc0:	4020      	ands	r0, r4
    1dc2:	3320      	adds	r3, #32
    1dc4:	342e      	adds	r4, #46	; 0x2e
    1dc6:	4730      	bx	r6
    1dc8:	7a48      	ldrb	r0, [r1, #9]
    1dca:	0a29      	lsrs	r1, r5, #8
    1dcc:	0000      	movs	r0, r0
    1dce:	0000      	movs	r0, r0
    1dd0:	4844      	ldr	r0, [pc, #272]	; (0x1ee4)
    1dd2:	5952      	ldr	r2, [r2, r5]
    1dd4:	5453      	strb	r3, [r2, r1]
    1dd6:	4e4f      	ldr	r6, [pc, #316]	; (0x1f14)
    1dd8:	2045      	movs	r0, #69	; 0x45
    1dda:	5250      	strh	r0, [r2, r1]
    1ddc:	474f      	bx	r9
    1dde:	4152      	adcs	r2, r2
    1de0:	2c4d      	cmp	r4, #77	; 0x4d
    1de2:	3320      	adds	r3, #32
    1de4:	5227      	strh	r7, [r4, r0]
    1de6:	2044      	movs	r0, #68	; 0x44
    1de8:	5453      	strb	r3, [r2, r1]
    1dea:	4952      	ldr	r1, [pc, #328]	; (0x1f34)
    1dec:	474e      	bx	r9
    1dee:	0000      	movs	r0, r0
    1df0:	0000      	movs	r0, r0
    1df2:	0000      	movs	r0, r0
    1df4:	0001      	movs	r1, r0
    1df6:	0000      	movs	r0, r0
    1df8:	0080      	lsls	r0, r0, #2
    1dfa:	0300      	lsls	r0, r0, #12
    1dfc:	0d24      	lsrs	r4, r4, #20
    1dfe:	0800      	lsrs	r0, r0, #32
    1e00:	0ce0      	lsrs	r0, r4, #19
    1e02:	0800      	lsrs	r0, r0, #32
    1e04:	6b64      	ldr	r4, [r4, #52]	; 0x34
    1e06:	5241      	strh	r1, [r0, r1]
    1e08:	004d      	lsls	r5, r1, #1
	...
