
test.gba:     file format binary


Disassembly of section .data:

00000000 <.data>:
       0:	002e      	movs	r6, r5
       2:	ea00 0000 	and.w	r0, r0, r0
	...
      ae:	0000      	movs	r0, r0
      b0:	3130      	adds	r1, #48	; 0x30
      b2:	0096      	lsls	r6, r2, #2
	...
      bc:	f000 0000 	and.w	r0, r0, #0
      c0:	0006      	movs	r6, r0
      c2:	ea00 0000 	and.w	r0, r0, r0
	...
      de:	0000      	movs	r0, r0
      e0:	0301      	lsls	r1, r0, #12
      e2:	e3a0      	b.n	0x826
      e4:	0208      	lsls	r0, r1, #8
      e6:	e580      	b.n	0xfffffbea
      e8:	0012      	movs	r2, r2
      ea:	e3a0      	b.n	0x82e
      ec:	f000 e129 			; <UNDEFINED> instruction: 0xf000e129
      f0:	d0b8      	beq.n	0x64
      f2:	e59f      	b.n	0xfffffc34
      f4:	001f      	movs	r7, r3
      f6:	e3a0      	b.n	0x83a
      f8:	f000 e129 			; <UNDEFINED> instruction: 0xf000e129
      fc:	d0b0      	beq.n	0x60
      fe:	e59f      	b.n	0xfffffc40
     100:	0001      	movs	r1, r0
     102:	e28f      	b.n	0x624
     104:	ff10 e12f 	vrhadd.u16	d14, d0, d31
     108:	482b      	ldr	r0, [pc, #172]	; (0x1b8)
     10a:	0140      	lsls	r0, r0, #5
     10c:	d20b      	bcs.n	0x126
     10e:	4678      	mov	r0, pc
     110:	0140      	lsls	r0, r0, #5
     112:	d30d      	bcc.n	0x130
     114:	2202      	movs	r2, #2
     116:	0612      	lsls	r2, r2, #24
     118:	4b28      	ldr	r3, [pc, #160]	; (0x1bc)
     11a:	1a9b      	subs	r3, r3, r2
     11c:	1c16      	adds	r6, r2, #0
     11e:	0091      	lsls	r1, r2, #2
     120:	f000 f83c 	bl	0x19c
     124:	4730      	bx	r6
     126:	2140      	movs	r1, #64	; 0x40
     128:	0309      	lsls	r1, r1, #12
     12a:	01c8      	lsls	r0, r1, #7
     12c:	f000 f82b 	bl	0x186
     130:	4823      	ldr	r0, [pc, #140]	; (0x1c0)
     132:	4924      	ldr	r1, [pc, #144]	; (0x1c4)
     134:	1a09      	subs	r1, r1, r0
     136:	f000 f826 	bl	0x186
     13a:	4823      	ldr	r0, [pc, #140]	; (0x1c8)
     13c:	4923      	ldr	r1, [pc, #140]	; (0x1cc)
     13e:	1a09      	subs	r1, r1, r0
     140:	f000 f821 	bl	0x186
     144:	4922      	ldr	r1, [pc, #136]	; (0x1d0)
     146:	4a23      	ldr	r2, [pc, #140]	; (0x1d4)
     148:	4c23      	ldr	r4, [pc, #140]	; (0x1d8)
     14a:	f000 f826 	bl	0x19a
     14e:	4923      	ldr	r1, [pc, #140]	; (0x1dc)
     150:	4a23      	ldr	r2, [pc, #140]	; (0x1e0)
     152:	4c24      	ldr	r4, [pc, #144]	; (0x1e4)
     154:	f000 f821 	bl	0x19a
     158:	4a23      	ldr	r2, [pc, #140]	; (0x1e8)
     15a:	4924      	ldr	r1, [pc, #144]	; (0x1ec)
     15c:	1a53      	subs	r3, r2, r1
     15e:	d002      	beq.n	0x166
     160:	4a23      	ldr	r2, [pc, #140]	; (0x1f0)
     162:	f000 f81b 	bl	0x19c
     166:	4923      	ldr	r1, [pc, #140]	; (0x1f4)
     168:	4a23      	ldr	r2, [pc, #140]	; (0x1f8)
     16a:	4c24      	ldr	r4, [pc, #144]	; (0x1fc)
     16c:	f000 f815 	bl	0x19a
     170:	4923      	ldr	r1, [pc, #140]	; (0x200)
     172:	4824      	ldr	r0, [pc, #144]	; (0x204)
     174:	6008      	str	r0, [r1, #0]
     176:	4b24      	ldr	r3, [pc, #144]	; (0x208)
     178:	f000 f80e 	bl	0x198
     17c:	2000      	movs	r0, #0
     17e:	2100      	movs	r1, #0
     180:	4b22      	ldr	r3, [pc, #136]	; (0x20c)
     182:	f000 f809 	bl	0x198
     186:	2203      	movs	r2, #3
     188:	1889      	adds	r1, r1, r2
     18a:	4391      	bics	r1, r2
     18c:	d003      	beq.n	0x196
     18e:	2200      	movs	r2, #0
     190:	c004      	stmia	r0!, {r2}
     192:	3904      	subs	r1, #4
     194:	d1fc      	bne.n	0x190
     196:	4770      	bx	lr
     198:	4718      	bx	r3
     19a:	1aa3      	subs	r3, r4, r2
     19c:	2003      	movs	r0, #3
     19e:	181b      	adds	r3, r3, r0
     1a0:	4383      	bics	r3, r0
     1a2:	d003      	beq.n	0x1ac
     1a4:	c901      	ldmia	r1!, {r0}
     1a6:	c201      	stmia	r2!, {r0}
     1a8:	3b04      	subs	r3, #4
     1aa:	d1fb      	bne.n	0x1a4
     1ac:	4770      	bx	lr
     1ae:	46c0      	nop			; (mov r8, r8)
     1b0:	7fa0      	ldrb	r0, [r4, #30]
     1b2:	0300      	lsls	r0, r0, #12
     1b4:	7f00      	ldrb	r0, [r0, #28]
     1b6:	0300      	lsls	r0, r0, #12
     1b8:	0000      	movs	r0, r0
     1ba:	0800      	lsrs	r0, r0, #32
     1bc:	0000      	movs	r0, r0
     1be:	0200      	lsls	r0, r0, #8
     1c0:	0000      	movs	r0, r0
     1c2:	0300      	lsls	r0, r0, #12
     1c4:	2c8c      	cmp	r4, #140	; 0x8c
     1c6:	0300      	lsls	r0, r0, #12
     1c8:	0000      	movs	r0, r0
     1ca:	0200      	lsls	r0, r0, #8
     1cc:	0000      	movs	r0, r0
     1ce:	0200      	lsls	r0, r0, #8
     1d0:	1b14      	subs	r4, r2, r4
     1d2:	0800      	lsrs	r0, r0, #32
     1d4:	2c8c      	cmp	r4, #140	; 0x8c
     1d6:	0300      	lsls	r0, r0, #12
     1d8:	2c9c      	cmp	r4, #156	; 0x9c
     1da:	0300      	lsls	r0, r0, #12
     1dc:	1b14      	subs	r4, r2, r4
     1de:	0800      	lsrs	r0, r0, #32
     1e0:	0000      	movs	r0, r0
     1e2:	0300      	lsls	r0, r0, #12
     1e4:	0000      	movs	r0, r0
     1e6:	0300      	lsls	r0, r0, #12
     1e8:	1b24      	subs	r4, r4, r4
     1ea:	0800      	lsrs	r0, r0, #32
     1ec:	1b24      	subs	r4, r4, r4
     1ee:	0800      	lsrs	r0, r0, #32
     1f0:	2c9c      	cmp	r4, #156	; 0x9c
     1f2:	0300      	lsls	r0, r0, #12
     1f4:	1b24      	subs	r4, r4, r4
     1f6:	0800      	lsrs	r0, r0, #32
     1f8:	0000      	movs	r0, r0
     1fa:	0200      	lsls	r0, r0, #8
     1fc:	0000      	movs	r0, r0
     1fe:	0200      	lsls	r0, r0, #8
     200:	0484      	lsls	r4, r0, #18
     202:	0300      	lsls	r0, r0, #12
     204:	0000      	movs	r0, r0
     206:	0204      	lsls	r4, r0, #8
     208:	14b1      	asrs	r1, r6, #18
     20a:	0800      	lsrs	r0, r0, #32
     20c:	0c69      	lsrs	r1, r5, #17
     20e:	0800      	lsrs	r0, r0, #32
     210:	b5f8      	push	{r3, r4, r5, r6, r7, lr}
     212:	46c0      	nop			; (mov r8, r8)
     214:	bcf8      	pop	{r3, r4, r5, r6, r7}
     216:	bc08      	pop	{r3}
     218:	469e      	mov	lr, r3
     21a:	4770      	bx	lr
     21c:	0000      	movs	r0, r0
     21e:	0000      	movs	r0, r0
     220:	b40f      	push	{r0, r1, r2, r3}
     222:	b5f0      	push	{r4, r5, r6, r7, lr}
     224:	46de      	mov	lr, fp
     226:	4645      	mov	r5, r8
     228:	4657      	mov	r7, sl
     22a:	464e      	mov	r6, r9
     22c:	b5e0      	push	{r5, r6, r7, lr}
     22e:	b083      	sub	sp, #12
     230:	ab0c      	add	r3, sp, #48	; 0x30
     232:	cb01      	ldmia	r3!, {r0}
     234:	9301      	str	r3, [sp, #4]
     236:	7805      	ldrb	r5, [r0, #0]
     238:	4b88      	ldr	r3, [pc, #544]	; (0x45c)
     23a:	4c89      	ldr	r4, [pc, #548]	; (0x460)
     23c:	469b      	mov	fp, r3
     23e:	2d00      	cmp	r5, #0
     240:	d035      	beq.n	0x2ae
     242:	2101      	movs	r1, #1
     244:	2d25      	cmp	r5, #37	; 0x25
     246:	d13d      	bne.n	0x2c4
     248:	1c83      	adds	r3, r0, #2
     24a:	469a      	mov	sl, r3
     24c:	7843      	ldrb	r3, [r0, #1]
     24e:	2b64      	cmp	r3, #100	; 0x64
     250:	d05a      	beq.n	0x308
     252:	d947      	bls.n	0x2e4
     254:	2b73      	cmp	r3, #115	; 0x73
     256:	d100      	bne.n	0x25a
     258:	e07d      	b.n	0x356
     25a:	2b75      	cmp	r3, #117	; 0x75
     25c:	d123      	bne.n	0x2a6
     25e:	9b01      	ldr	r3, [sp, #4]
     260:	1d1a      	adds	r2, r3, #4
     262:	681b      	ldr	r3, [r3, #0]
     264:	9201      	str	r2, [sp, #4]
     266:	4699      	mov	r9, r3
     268:	2b00      	cmp	r3, #0
     26a:	d000      	beq.n	0x26e
     26c:	e08f      	b.n	0x38e
     26e:	2701      	movs	r7, #1
     270:	4d7a      	ldr	r5, [pc, #488]	; (0x45c)
     272:	3330      	adds	r3, #48	; 0x30
     274:	702b      	strb	r3, [r5, #0]
     276:	2300      	movs	r3, #0
     278:	55eb      	strb	r3, [r5, r7]
     27a:	7828      	ldrb	r0, [r5, #0]
     27c:	2800      	cmp	r0, #0
     27e:	d012      	beq.n	0x2a6
     280:	2701      	movs	r7, #1
     282:	2101      	movs	r1, #1
     284:	4e77      	ldr	r6, [pc, #476]	; (0x464)
     286:	3501      	adds	r5, #1
     288:	7823      	ldrb	r3, [r4, #0]
     28a:	001a      	movs	r2, r3
     28c:	085b      	lsrs	r3, r3, #1
     28e:	400a      	ands	r2, r1
     290:	429a      	cmp	r2, r3
     292:	d1f9      	bne.n	0x288
     294:	7030      	strb	r0, [r6, #0]
     296:	7823      	ldrb	r3, [r4, #0]
     298:	407b      	eors	r3, r7
     29a:	7023      	strb	r3, [r4, #0]
     29c:	3501      	adds	r5, #1
     29e:	1e6b      	subs	r3, r5, #1
     2a0:	7818      	ldrb	r0, [r3, #0]
     2a2:	2800      	cmp	r0, #0
     2a4:	d1f0      	bne.n	0x288
     2a6:	4650      	mov	r0, sl
     2a8:	7805      	ldrb	r5, [r0, #0]
     2aa:	2d00      	cmp	r5, #0
     2ac:	d1c9      	bne.n	0x242
     2ae:	2000      	movs	r0, #0
     2b0:	b003      	add	sp, #12
     2b2:	bc3c      	pop	{r2, r3, r4, r5}
     2b4:	4690      	mov	r8, r2
     2b6:	4699      	mov	r9, r3
     2b8:	46a2      	mov	sl, r4
     2ba:	46ab      	mov	fp, r5
     2bc:	bcf0      	pop	{r4, r5, r6, r7}
     2be:	bc08      	pop	{r3}
     2c0:	b004      	add	sp, #16
     2c2:	4718      	bx	r3
     2c4:	7823      	ldrb	r3, [r4, #0]
     2c6:	001a      	movs	r2, r3
     2c8:	085b      	lsrs	r3, r3, #1
     2ca:	400a      	ands	r2, r1
     2cc:	429a      	cmp	r2, r3
     2ce:	d1f9      	bne.n	0x2c4
     2d0:	2201      	movs	r2, #1
     2d2:	4b64      	ldr	r3, [pc, #400]	; (0x464)
     2d4:	701d      	strb	r5, [r3, #0]
     2d6:	7823      	ldrb	r3, [r4, #0]
     2d8:	4053      	eors	r3, r2
     2da:	7023      	strb	r3, [r4, #0]
     2dc:	1c43      	adds	r3, r0, #1
     2de:	469a      	mov	sl, r3
     2e0:	4650      	mov	r0, sl
     2e2:	e7e1      	b.n	0x2a8
     2e4:	2b25      	cmp	r3, #37	; 0x25
     2e6:	d1de      	bne.n	0x2a6
     2e8:	2101      	movs	r1, #1
     2ea:	7823      	ldrb	r3, [r4, #0]
     2ec:	001a      	movs	r2, r3
     2ee:	085b      	lsrs	r3, r3, #1
     2f0:	400a      	ands	r2, r1
     2f2:	429a      	cmp	r2, r3
     2f4:	d1f9      	bne.n	0x2ea
     2f6:	2225      	movs	r2, #37	; 0x25
     2f8:	4b5a      	ldr	r3, [pc, #360]	; (0x464)
     2fa:	701a      	strb	r2, [r3, #0]
     2fc:	2201      	movs	r2, #1
     2fe:	7823      	ldrb	r3, [r4, #0]
     300:	4053      	eors	r3, r2
     302:	7023      	strb	r3, [r4, #0]
     304:	4650      	mov	r0, sl
     306:	e7cf      	b.n	0x2a8
     308:	9b01      	ldr	r3, [sp, #4]
     30a:	1d1a      	adds	r2, r3, #4
     30c:	681b      	ldr	r3, [r3, #0]
     30e:	9201      	str	r2, [sp, #4]
     310:	4699      	mov	r9, r3
     312:	2b00      	cmp	r3, #0
     314:	db6b      	blt.n	0x3ee
     316:	d000      	beq.n	0x31a
     318:	e099      	b.n	0x44e
     31a:	4d50      	ldr	r5, [pc, #320]	; (0x45c)
     31c:	3330      	adds	r3, #48	; 0x30
     31e:	702b      	strb	r3, [r5, #0]
     320:	4a51      	ldr	r2, [pc, #324]	; (0x468)
     322:	2300      	movs	r3, #0
     324:	7013      	strb	r3, [r2, #0]
     326:	7828      	ldrb	r0, [r5, #0]
     328:	2800      	cmp	r0, #0
     32a:	d0bc      	beq.n	0x2a6
     32c:	2701      	movs	r7, #1
     32e:	2101      	movs	r1, #1
     330:	4e4c      	ldr	r6, [pc, #304]	; (0x464)
     332:	3501      	adds	r5, #1
     334:	7823      	ldrb	r3, [r4, #0]
     336:	001a      	movs	r2, r3
     338:	085b      	lsrs	r3, r3, #1
     33a:	400a      	ands	r2, r1
     33c:	429a      	cmp	r2, r3
     33e:	d1f9      	bne.n	0x334
     340:	7030      	strb	r0, [r6, #0]
     342:	7823      	ldrb	r3, [r4, #0]
     344:	407b      	eors	r3, r7
     346:	7023      	strb	r3, [r4, #0]
     348:	3501      	adds	r5, #1
     34a:	1e6b      	subs	r3, r5, #1
     34c:	7818      	ldrb	r0, [r3, #0]
     34e:	2800      	cmp	r0, #0
     350:	d1f0      	bne.n	0x334
     352:	4650      	mov	r0, sl
     354:	e7a8      	b.n	0x2a8
     356:	9b01      	ldr	r3, [sp, #4]
     358:	6818      	ldr	r0, [r3, #0]
     35a:	7805      	ldrb	r5, [r0, #0]
     35c:	1d1a      	adds	r2, r3, #4
     35e:	9201      	str	r2, [sp, #4]
     360:	2d00      	cmp	r5, #0
     362:	d0a0      	beq.n	0x2a6
     364:	2701      	movs	r7, #1
     366:	2101      	movs	r1, #1
     368:	4e3e      	ldr	r6, [pc, #248]	; (0x464)
     36a:	3001      	adds	r0, #1
     36c:	7823      	ldrb	r3, [r4, #0]
     36e:	001a      	movs	r2, r3
     370:	085b      	lsrs	r3, r3, #1
     372:	400a      	ands	r2, r1
     374:	429a      	cmp	r2, r3
     376:	d1f9      	bne.n	0x36c
     378:	7035      	strb	r5, [r6, #0]
     37a:	7823      	ldrb	r3, [r4, #0]
     37c:	407b      	eors	r3, r7
     37e:	7023      	strb	r3, [r4, #0]
     380:	3001      	adds	r0, #1
     382:	1e43      	subs	r3, r0, #1
     384:	781d      	ldrb	r5, [r3, #0]
     386:	2d00      	cmp	r5, #0
     388:	d1f0      	bne.n	0x36c
     38a:	4650      	mov	r0, sl
     38c:	e78c      	b.n	0x2a8
     38e:	2300      	movs	r3, #0
     390:	464f      	mov	r7, r9
     392:	4698      	mov	r8, r3
     394:	46d9      	mov	r9, fp
     396:	e001      	b.n	0x39c
     398:	46a8      	mov	r8, r5
     39a:	0007      	movs	r7, r0
     39c:	4643      	mov	r3, r8
     39e:	210a      	movs	r1, #10
     3a0:	0038      	movs	r0, r7
     3a2:	1c5d      	adds	r5, r3, #1
     3a4:	f001 f90a 	bl	0x15bc
     3a8:	3130      	adds	r1, #48	; 0x30
     3aa:	060e      	lsls	r6, r1, #24
     3ac:	4b2f      	ldr	r3, [pc, #188]	; (0x46c)
     3ae:	0e36      	lsrs	r6, r6, #24
     3b0:	555e      	strb	r6, [r3, r5]
     3b2:	210a      	movs	r1, #10
     3b4:	0038      	movs	r0, r7
     3b6:	f001 f8f3 	bl	0x15a0
     3ba:	2f09      	cmp	r7, #9
     3bc:	d8ec      	bhi.n	0x398
     3be:	4643      	mov	r3, r8
     3c0:	002f      	movs	r7, r5
     3c2:	464d      	mov	r5, r9
     3c4:	2b00      	cmp	r3, #0
     3c6:	d046      	beq.n	0x456
     3c8:	465a      	mov	r2, fp
     3ca:	2300      	movs	r3, #0
     3cc:	4442      	add	r2, r8
     3ce:	4640      	mov	r0, r8
     3d0:	46cc      	mov	ip, r9
     3d2:	e000      	b.n	0x3d6
     3d4:	7816      	ldrb	r6, [r2, #0]
     3d6:	4659      	mov	r1, fp
     3d8:	465d      	mov	r5, fp
     3da:	5cc9      	ldrb	r1, [r1, r3]
     3dc:	54ee      	strb	r6, [r5, r3]
     3de:	3301      	adds	r3, #1
     3e0:	7011      	strb	r1, [r2, #0]
     3e2:	3a01      	subs	r2, #1
     3e4:	1ac1      	subs	r1, r0, r3
     3e6:	428b      	cmp	r3, r1
     3e8:	d3f4      	bcc.n	0x3d4
     3ea:	4665      	mov	r5, ip
     3ec:	e743      	b.n	0x276
     3ee:	232d      	movs	r3, #45	; 0x2d
     3f0:	4d1a      	ldr	r5, [pc, #104]	; (0x45c)
     3f2:	702b      	strb	r3, [r5, #0]
     3f4:	464b      	mov	r3, r9
     3f6:	425b      	negs	r3, r3
     3f8:	4699      	mov	r9, r3
     3fa:	2301      	movs	r3, #1
     3fc:	4698      	mov	r8, r3
     3fe:	002b      	movs	r3, r5
     400:	4647      	mov	r7, r8
     402:	464d      	mov	r5, r9
     404:	4699      	mov	r9, r3
     406:	e000      	b.n	0x40a
     408:	001f      	movs	r7, r3
     40a:	0028      	movs	r0, r5
     40c:	210a      	movs	r1, #10
     40e:	f001 f8f1 	bl	0x15f4
     412:	464b      	mov	r3, r9
     414:	3130      	adds	r1, #48	; 0x30
     416:	060e      	lsls	r6, r1, #24
     418:	0e36      	lsrs	r6, r6, #24
     41a:	55de      	strb	r6, [r3, r7]
     41c:	0028      	movs	r0, r5
     41e:	210a      	movs	r1, #10
     420:	f001 f8c8 	bl	0x15b4
     424:	4b10      	ldr	r3, [pc, #64]	; (0x468)
     426:	0005      	movs	r5, r0
     428:	19da      	adds	r2, r3, r7
     42a:	1c7b      	adds	r3, r7, #1
     42c:	2800      	cmp	r0, #0
     42e:	d1eb      	bne.n	0x408
     430:	464d      	mov	r5, r9
     432:	4547      	cmp	r7, r8
     434:	d800      	bhi.n	0x438
     436:	e774      	b.n	0x322
     438:	4643      	mov	r3, r8
     43a:	e000      	b.n	0x43e
     43c:	5dee      	ldrb	r6, [r5, r7]
     43e:	5ce9      	ldrb	r1, [r5, r3]
     440:	54ee      	strb	r6, [r5, r3]
     442:	55e9      	strb	r1, [r5, r7]
     444:	3301      	adds	r3, #1
     446:	3f01      	subs	r7, #1
     448:	42bb      	cmp	r3, r7
     44a:	d3f7      	bcc.n	0x43c
     44c:	e769      	b.n	0x322
     44e:	2300      	movs	r3, #0
     450:	4d02      	ldr	r5, [pc, #8]	; (0x45c)
     452:	4698      	mov	r8, r3
     454:	e7d3      	b.n	0x3fe
     456:	2701      	movs	r7, #1
     458:	e70d      	b.n	0x276
     45a:	46c0      	nop			; (mov r8, r8)
     45c:	001c      	movs	r4, r3
     45e:	0300      	lsls	r0, r0, #12
     460:	0401      	lsls	r1, r0, #16
     462:	0400      	lsls	r0, r0, #16
     464:	0400      	lsls	r0, r0, #16
     466:	0400      	lsls	r0, r0, #16
     468:	001d      	movs	r5, r3
     46a:	0300      	lsls	r0, r0, #12
     46c:	001b      	movs	r3, r3
     46e:	0300      	lsls	r0, r0, #12
     470:	4b05      	ldr	r3, [pc, #20]	; (0x488)
     472:	781b      	ldrb	r3, [r3, #0]
     474:	2b41      	cmp	r3, #65	; 0x41
     476:	d105      	bne.n	0x484
     478:	4a04      	ldr	r2, [pc, #16]	; (0x48c)
     47a:	6803      	ldr	r3, [r0, #0]
     47c:	6812      	ldr	r2, [r2, #0]
     47e:	3309      	adds	r3, #9
     480:	1a9b      	subs	r3, r3, r2
     482:	6003      	str	r3, [r0, #0]
     484:	4770      	bx	lr
     486:	46c0      	nop			; (mov r8, r8)
     488:	2bb4      	cmp	r3, #180	; 0xb4
     48a:	0300      	lsls	r0, r0, #12
     48c:	2bb0      	cmp	r3, #176	; 0xb0
     48e:	0300      	lsls	r0, r0, #12
     490:	4a05      	ldr	r2, [pc, #20]	; (0x4a8)
     492:	6813      	ldr	r3, [r2, #0]
     494:	2b00      	cmp	r3, #0
     496:	d002      	beq.n	0x49e
     498:	681b      	ldr	r3, [r3, #0]
     49a:	6003      	str	r3, [r0, #0]
     49c:	6813      	ldr	r3, [r2, #0]
     49e:	4a03      	ldr	r2, [pc, #12]	; (0x4ac)
     4a0:	6812      	ldr	r2, [r2, #0]
     4a2:	320c      	adds	r2, #12
     4a4:	60da      	str	r2, [r3, #12]
     4a6:	4770      	bx	lr
     4a8:	2bb8      	cmp	r3, #184	; 0xb8
     4aa:	0300      	lsls	r0, r0, #12
     4ac:	2bb0      	cmp	r3, #176	; 0xb0
     4ae:	0300      	lsls	r0, r0, #12
     4b0:	4b06      	ldr	r3, [pc, #24]	; (0x4cc)
     4b2:	781b      	ldrb	r3, [r3, #0]
     4b4:	3b41      	subs	r3, #65	; 0x41
     4b6:	4259      	negs	r1, r3
     4b8:	414b      	adcs	r3, r1
     4ba:	4a05      	ldr	r2, [pc, #20]	; (0x4d0)
     4bc:	6811      	ldr	r1, [r2, #0]
     4be:	430b      	orrs	r3, r1
     4c0:	6013      	str	r3, [r2, #0]
     4c2:	2242      	movs	r2, #66	; 0x42
     4c4:	4b03      	ldr	r3, [pc, #12]	; (0x4d4)
     4c6:	701a      	strb	r2, [r3, #0]
     4c8:	4770      	bx	lr
     4ca:	46c0      	nop			; (mov r8, r8)
     4cc:	2bb4      	cmp	r3, #180	; 0xb4
     4ce:	0300      	lsls	r0, r0, #12
     4d0:	2c88      	cmp	r4, #136	; 0x88
     4d2:	0300      	lsls	r0, r0, #12
     4d4:	2bb5      	cmp	r3, #181	; 0xb5
     4d6:	0300      	lsls	r0, r0, #12
     4d8:	2241      	movs	r2, #65	; 0x41
     4da:	4b03      	ldr	r3, [pc, #12]	; (0x4e8)
     4dc:	701a      	strb	r2, [r3, #0]
     4de:	2200      	movs	r2, #0
     4e0:	4b02      	ldr	r3, [pc, #8]	; (0x4ec)
     4e2:	601a      	str	r2, [r3, #0]
     4e4:	4770      	bx	lr
     4e6:	46c0      	nop			; (mov r8, r8)
     4e8:	2bb4      	cmp	r3, #180	; 0xb4
     4ea:	0300      	lsls	r0, r0, #12
     4ec:	2c88      	cmp	r4, #136	; 0x88
     4ee:	0300      	lsls	r0, r0, #12
     4f0:	2802      	cmp	r0, #2
     4f2:	d00d      	beq.n	0x510
     4f4:	2303      	movs	r3, #3
     4f6:	700b      	strb	r3, [r1, #0]
     4f8:	2801      	cmp	r0, #1
     4fa:	d00c      	beq.n	0x516
     4fc:	0603      	lsls	r3, r0, #24
     4fe:	161b      	asrs	r3, r3, #24
     500:	2800      	cmp	r0, #0
     502:	d003      	beq.n	0x50c
     504:	2804      	cmp	r0, #4
     506:	d000      	beq.n	0x50a
     508:	4770      	bx	lr
     50a:	2302      	movs	r3, #2
     50c:	700b      	strb	r3, [r1, #0]
     50e:	e7fb      	b.n	0x508
     510:	2301      	movs	r3, #1
     512:	700b      	strb	r3, [r1, #0]
     514:	e7f8      	b.n	0x508
     516:	4b03      	ldr	r3, [pc, #12]	; (0x524)
     518:	681b      	ldr	r3, [r3, #0]
     51a:	2b64      	cmp	r3, #100	; 0x64
     51c:	ddf4      	ble.n	0x508
     51e:	2300      	movs	r3, #0
     520:	700b      	strb	r3, [r1, #0]
     522:	e7f1      	b.n	0x508
     524:	2bb0      	cmp	r3, #176	; 0xb0
     526:	0300      	lsls	r0, r0, #12
     528:	b5f0      	push	{r4, r5, r6, r7, lr}
     52a:	46c6      	mov	lr, r8
     52c:	4b1e      	ldr	r3, [pc, #120]	; (0x5a8)
     52e:	6804      	ldr	r4, [r0, #0]
     530:	6819      	ldr	r1, [r3, #0]
     532:	4698      	mov	r8, r3
     534:	000a      	movs	r2, r1
     536:	0023      	movs	r3, r4
     538:	b500      	push	{lr}
     53a:	cae0      	ldmia	r2!, {r5, r6, r7}
     53c:	c3e0      	stmia	r3!, {r5, r6, r7}
     53e:	cae0      	ldmia	r2!, {r5, r6, r7}
     540:	c3e0      	stmia	r3!, {r5, r6, r7}
     542:	cae0      	ldmia	r2!, {r5, r6, r7}
     544:	c3e0      	stmia	r3!, {r5, r6, r7}
     546:	cae0      	ldmia	r2!, {r5, r6, r7}
     548:	c3e0      	stmia	r3!, {r5, r6, r7}
     54a:	2305      	movs	r3, #5
     54c:	60c3      	str	r3, [r0, #12]
     54e:	60e3      	str	r3, [r4, #12]
     550:	6803      	ldr	r3, [r0, #0]
     552:	6023      	str	r3, [r4, #0]
     554:	680b      	ldr	r3, [r1, #0]
     556:	6023      	str	r3, [r4, #0]
     558:	4643      	mov	r3, r8
     55a:	681a      	ldr	r2, [r3, #0]
     55c:	4b13      	ldr	r3, [pc, #76]	; (0x5ac)
     55e:	681b      	ldr	r3, [r3, #0]
     560:	330c      	adds	r3, #12
     562:	60d3      	str	r3, [r2, #12]
     564:	7923      	ldrb	r3, [r4, #4]
     566:	2b00      	cmp	r3, #0
     568:	d00e      	beq.n	0x588
     56a:	0002      	movs	r2, r0
     56c:	6803      	ldr	r3, [r0, #0]
     56e:	cb13      	ldmia	r3!, {r0, r1, r4}
     570:	c213      	stmia	r2!, {r0, r1, r4}
     572:	cb13      	ldmia	r3!, {r0, r1, r4}
     574:	c213      	stmia	r2!, {r0, r1, r4}
     576:	cb13      	ldmia	r3!, {r0, r1, r4}
     578:	c213      	stmia	r2!, {r0, r1, r4}
     57a:	cb13      	ldmia	r3!, {r0, r1, r4}
     57c:	c213      	stmia	r2!, {r0, r1, r4}
     57e:	bc04      	pop	{r2}
     580:	4690      	mov	r8, r2
     582:	bcf0      	pop	{r4, r5, r6, r7}
     584:	bc01      	pop	{r0}
     586:	4700      	bx	r0
     588:	0021      	movs	r1, r4
     58a:	3306      	adds	r3, #6
     58c:	60e3      	str	r3, [r4, #12]
     58e:	3108      	adds	r1, #8
     590:	7a00      	ldrb	r0, [r0, #8]
     592:	f7ff ffad 	bl	0x4f0
     596:	4643      	mov	r3, r8
     598:	681b      	ldr	r3, [r3, #0]
     59a:	681b      	ldr	r3, [r3, #0]
     59c:	6023      	str	r3, [r4, #0]
     59e:	68e3      	ldr	r3, [r4, #12]
     5a0:	330c      	adds	r3, #12
     5a2:	60e3      	str	r3, [r4, #12]
     5a4:	e7eb      	b.n	0x57e
     5a6:	46c0      	nop			; (mov r8, r8)
     5a8:	2bb8      	cmp	r3, #184	; 0xb8
     5aa:	0300      	lsls	r0, r0, #12
     5ac:	2bb0      	cmp	r3, #176	; 0xb0
     5ae:	0300      	lsls	r0, r0, #12
     5b0:	3002      	adds	r0, #2
     5b2:	1840      	adds	r0, r0, r1
     5b4:	6010      	str	r0, [r2, #0]
     5b6:	4770      	bx	lr
     5b8:	b570      	push	{r4, r5, r6, lr}
     5ba:	1d54      	adds	r4, r2, #5
     5bc:	00a5      	lsls	r5, r4, #2
     5be:	1940      	adds	r0, r0, r5
     5c0:	25c8      	movs	r5, #200	; 0xc8
     5c2:	002e      	movs	r6, r5
     5c4:	4366      	muls	r6, r4
     5c6:	0092      	lsls	r2, r2, #2
     5c8:	6003      	str	r3, [r0, #0]
     5ca:	6043      	str	r3, [r0, #4]
     5cc:	18b3      	adds	r3, r6, r2
     5ce:	18cb      	adds	r3, r1, r3
     5d0:	1989      	adds	r1, r1, r6
     5d2:	1889      	adds	r1, r1, r2
     5d4:	22fa      	movs	r2, #250	; 0xfa
     5d6:	0112      	lsls	r2, r2, #4
     5d8:	4694      	mov	ip, r2
     5da:	2205      	movs	r2, #5
     5dc:	6784      	str	r4, [r0, #120]	; 0x78
     5de:	615c      	str	r4, [r3, #20]
     5e0:	619c      	str	r4, [r3, #24]
     5e2:	691c      	ldr	r4, [r3, #16]
     5e4:	3401      	adds	r4, #1
     5e6:	611c      	str	r4, [r3, #16]
     5e8:	6803      	ldr	r3, [r0, #0]
     5ea:	4461      	add	r1, ip
     5ec:	614b      	str	r3, [r1, #20]
     5ee:	4b02      	ldr	r3, [pc, #8]	; (0x5f8)
     5f0:	601a      	str	r2, [r3, #0]
     5f2:	bc70      	pop	{r4, r5, r6}
     5f4:	bc01      	pop	{r0}
     5f6:	4700      	bx	r0
     5f8:	2bb0      	cmp	r3, #176	; 0xb0
     5fa:	0300      	lsls	r0, r0, #12
     5fc:	0600      	lsls	r0, r0, #24
     5fe:	0609      	lsls	r1, r1, #24
     600:	0e03      	lsrs	r3, r0, #24
     602:	0e09      	lsrs	r1, r1, #24
     604:	2000      	movs	r0, #0
     606:	4299      	cmp	r1, r3
     608:	d102      	bne.n	0x610
     60a:	4a02      	ldr	r2, [pc, #8]	; (0x614)
     60c:	7013      	strb	r3, [r2, #0]
     60e:	3001      	adds	r0, #1
     610:	4770      	bx	lr
     612:	46c0      	nop			; (mov r8, r8)
     614:	2bb4      	cmp	r3, #180	; 0xb4
     616:	0300      	lsls	r0, r0, #12
     618:	b570      	push	{r4, r5, r6, lr}
     61a:	2400      	movs	r4, #0
     61c:	4e0c      	ldr	r6, [pc, #48]	; (0x650)
     61e:	7883      	ldrb	r3, [r0, #2]
     620:	78ca      	ldrb	r2, [r1, #3]
     622:	7835      	ldrb	r5, [r6, #0]
     624:	4293      	cmp	r3, r2
     626:	d00f      	beq.n	0x648
     628:	2c00      	cmp	r4, #0
     62a:	d000      	beq.n	0x62e
     62c:	7035      	strb	r5, [r6, #0]
     62e:	f000 ffc9 	bl	0x15c4
     632:	2300      	movs	r3, #0
     634:	2800      	cmp	r0, #0
     636:	dd03      	ble.n	0x640
     638:	220a      	movs	r2, #10
     63a:	4b06      	ldr	r3, [pc, #24]	; (0x654)
     63c:	601a      	str	r2, [r3, #0]
     63e:	2301      	movs	r3, #1
     640:	0018      	movs	r0, r3
     642:	bc70      	pop	{r4, r5, r6}
     644:	bc02      	pop	{r1}
     646:	4708      	bx	r1
     648:	2401      	movs	r4, #1
     64a:	001d      	movs	r5, r3
     64c:	e7ea      	b.n	0x624
     64e:	46c0      	nop			; (mov r8, r8)
     650:	2bb4      	cmp	r3, #180	; 0xb4
     652:	0300      	lsls	r0, r0, #12
     654:	2bb0      	cmp	r3, #176	; 0xb0
     656:	0300      	lsls	r0, r0, #12
     658:	3802      	subs	r0, #2
     65a:	4243      	negs	r3, r0
     65c:	4158      	adcs	r0, r3
     65e:	4770      	bx	lr
     660:	2800      	cmp	r0, #0
     662:	d101      	bne.n	0x668
     664:	4b01      	ldr	r3, [pc, #4]	; (0x66c)
     666:	6018      	str	r0, [r3, #0]
     668:	4770      	bx	lr
     66a:	46c0      	nop			; (mov r8, r8)
     66c:	2c8c      	cmp	r4, #140	; 0x8c
     66e:	0300      	lsls	r0, r0, #12
     670:	2001      	movs	r0, #1
     672:	e251      	b.n	0xb18
     674:	ff1e 012f 	vrhadd.u16	d0, d14, d31
     678:	0036      	movs	r6, r6
     67a:	3a00      	subs	r2, #0
     67c:	0001      	movs	r1, r0
     67e:	e150      	b.n	0x922
     680:	0022      	movs	r2, r4
     682:	9a00      	ldr	r2, [sp, #0]
     684:	0002      	movs	r2, r0
     686:	e111      	b.n	0x8ac
     688:	0023      	movs	r3, r4
     68a:	0a00      	lsrs	r0, r0, #8
     68c:	020e      	lsls	r6, r1, #8
     68e:	e311      	b.n	0xcb4
     690:	1181      	asrs	r1, r0, #6
     692:	01a0      	lsls	r0, r4, #6
     694:	3008      	adds	r0, #8
     696:	03a0      	lsls	r0, r4, #14
     698:	3001      	adds	r0, #1
     69a:	13a0      	asrs	r0, r4, #14
     69c:	0201      	lsls	r1, r0, #8
     69e:	e351      	b.n	0xd44
     6a0:	0000      	movs	r0, r0
     6a2:	3151      	adds	r1, #81	; 0x51
     6a4:	1201      	asrs	r1, r0, #8
     6a6:	31a0      	adds	r1, #160	; 0xa0
     6a8:	3203      	adds	r2, #3
     6aa:	31a0      	adds	r1, #160	; 0xa0
     6ac:	fffa 3aff 			; <UNDEFINED> instruction: 0xfffa3aff
     6b0:	0102      	lsls	r2, r0, #4
     6b2:	e351      	b.n	0xd58
     6b4:	0000      	movs	r0, r0
     6b6:	3151      	adds	r1, #81	; 0x51
     6b8:	1081      	asrs	r1, r0, #2
     6ba:	31a0      	adds	r1, #160	; 0xa0
     6bc:	3083      	adds	r0, #131	; 0x83
     6be:	31a0      	adds	r1, #160	; 0xa0
     6c0:	fffa 3aff 			; <UNDEFINED> instruction: 0xfffa3aff
     6c4:	2000      	movs	r0, #0
     6c6:	e3a0      	b.n	0xe0a
     6c8:	0001      	movs	r1, r0
     6ca:	e150      	b.n	0x96e
     6cc:	0001      	movs	r1, r0
     6ce:	2040      	movs	r0, #64	; 0x40
     6d0:	2003      	movs	r0, #3
     6d2:	2182      	movs	r1, #130	; 0x82
     6d4:	00a1      	lsls	r1, r4, #2
     6d6:	e150      	b.n	0x97a
     6d8:	00a1      	lsls	r1, r4, #2
     6da:	2040      	movs	r0, #64	; 0x40
     6dc:	20a3      	movs	r0, #163	; 0xa3
     6de:	2182      	movs	r1, #130	; 0x82
     6e0:	0121      	lsls	r1, r4, #4
     6e2:	e150      	b.n	0x986
     6e4:	0121      	lsls	r1, r4, #4
     6e6:	2040      	movs	r0, #64	; 0x40
     6e8:	2123      	movs	r1, #35	; 0x23
     6ea:	2182      	movs	r1, #130	; 0x82
     6ec:	01a1      	lsls	r1, r4, #6
     6ee:	e150      	b.n	0x992
     6f0:	01a1      	lsls	r1, r4, #6
     6f2:	2040      	movs	r0, #64	; 0x40
     6f4:	21a3      	movs	r1, #163	; 0xa3
     6f6:	2182      	movs	r1, #130	; 0x82
     6f8:	0000      	movs	r0, r0
     6fa:	e350      	b.n	0xd9e
     6fc:	3223      	adds	r2, #35	; 0x23
     6fe:	11b0      	asrs	r0, r6, #6
     700:	1221      	asrs	r1, r4, #8
     702:	11a0      	asrs	r0, r4, #6
     704:	ffef 1aff 			; <UNDEFINED> instruction: 0xffef1aff
     708:	0002      	movs	r2, r0
     70a:	e1a0      	b.n	0xa4e
     70c:	ff1e e12f 	vrhadd.u16	d14, d14, d31
     710:	0001      	movs	r1, r0
     712:	03a0      	lsls	r0, r4, #14
     714:	0000      	movs	r0, r0
     716:	13a0      	asrs	r0, r4, #14
     718:	ff1e e12f 	vrhadd.u16	d14, d14, d31
     71c:	0801      	lsrs	r1, r0, #32
     71e:	e351      	b.n	0xdc4
     720:	1821      	adds	r1, r4, r0
     722:	21a0      	movs	r1, #160	; 0xa0
     724:	2010      	movs	r0, #16
     726:	23a0      	movs	r3, #160	; 0xa0
     728:	2000      	movs	r0, #0
     72a:	33a0      	adds	r3, #160	; 0xa0
     72c:	0c01      	lsrs	r1, r0, #16
     72e:	e351      	b.n	0xdd4
     730:	1421      	asrs	r1, r4, #16
     732:	21a0      	movs	r1, #160	; 0xa0
     734:	2008      	movs	r0, #8
     736:	2282      	movs	r2, #130	; 0x82
     738:	0010      	movs	r0, r2
     73a:	e351      	b.n	0xde0
     73c:	1221      	asrs	r1, r4, #8
     73e:	21a0      	movs	r1, #160	; 0xa0
     740:	2004      	movs	r0, #4
     742:	2282      	movs	r2, #130	; 0x82
     744:	0004      	movs	r4, r0
     746:	e351      	b.n	0xdec
     748:	2003      	movs	r0, #3
     74a:	8282      	strh	r2, [r0, #20]
     74c:	20a1      	movs	r0, #161	; 0xa1
     74e:	9082      	str	r0, [sp, #520]	; 0x208
     750:	0230      	lsls	r0, r6, #8
     752:	e1a0      	b.n	0xa96
     754:	ff1e e12f 	vrhadd.u16	d14, d14, d31
     758:	ff1f e12f 	vrhadd.u16	d14, d15, d31
     75c:	0000      	movs	r0, r0
     75e:	e1a0      	b.n	0xaa2
     760:	0000      	movs	r0, r0
     762:	e350      	b.n	0xe06
     764:	0000      	movs	r0, r0
     766:	13e0      	asrs	r0, r4, #15
     768:	0397      	lsls	r7, r2, #14
     76a:	ea00 0000 	and.w	r0, r0, r0
     76e:	e351      	b.n	0xe14
     770:	fff8 0aff 			; <UNDEFINED> instruction: 0xfff80aff
     774:	4003      	ands	r3, r0
     776:	e92d ffbc 	stmdb	sp!, {r2, r3, r4, r5, r7, r8, r9, sl, fp, ip, sp, lr, pc}
     77a:	ebff 4006 			; <UNDEFINED> instruction: 0xebff4006
     77e:	e8bd 0092 	ldmia.w	sp!, {r1, r4, r7}
     782:	e003      	b.n	0x78c
     784:	1003      	asrs	r3, r0, #32
     786:	e041      	b.n	0x80c
     788:	ff1e e12f 	vrhadd.u16	d14, d14, d31
     78c:	0000      	movs	r0, r0
     78e:	e351      	b.n	0xe34
     790:	0043      	lsls	r3, r0, #1
     792:	0a00      	lsrs	r0, r0, #8
     794:	c001      	stmia	r0!, {r0}
     796:	e020      	b.n	0x7da
     798:	1000      	asrs	r0, r0, #32
     79a:	4261      	negs	r1, r4
     79c:	2001      	movs	r0, #1
     79e:	e251      	b.n	0xc44
     7a0:	0027      	movs	r7, r4
     7a2:	0a00      	lsrs	r0, r0, #8
     7a4:	3000      	adds	r0, #0
     7a6:	e1b0      	b.n	0xb0a
     7a8:	3000      	adds	r0, #0
     7aa:	4260      	negs	r0, r4
     7ac:	0001      	movs	r1, r0
     7ae:	e153      	b.n	0xa58
     7b0:	0026      	movs	r6, r4
     7b2:	9a00      	ldr	r2, [sp, #0]
     7b4:	0002      	movs	r2, r0
     7b6:	e111      	b.n	0x9dc
     7b8:	0028      	movs	r0, r5
     7ba:	0a00      	lsrs	r0, r0, #8
     7bc:	020e      	lsls	r6, r1, #8
     7be:	e311      	b.n	0xde4
     7c0:	1181      	asrs	r1, r0, #6
     7c2:	01a0      	lsls	r0, r4, #6
     7c4:	2008      	movs	r0, #8
     7c6:	03a0      	lsls	r0, r4, #14
     7c8:	2001      	movs	r0, #1
     7ca:	13a0      	asrs	r0, r4, #14
     7cc:	0201      	lsls	r1, r0, #8
     7ce:	e351      	b.n	0xe74
     7d0:	0003      	movs	r3, r0
     7d2:	3151      	adds	r1, #81	; 0x51
     7d4:	1201      	asrs	r1, r0, #8
     7d6:	31a0      	adds	r1, #160	; 0xa0
     7d8:	2202      	movs	r2, #2
     7da:	31a0      	adds	r1, #160	; 0xa0
     7dc:	fffa 3aff 			; <UNDEFINED> instruction: 0xfffa3aff
     7e0:	0102      	lsls	r2, r0, #4
     7e2:	e351      	b.n	0xe88
     7e4:	0003      	movs	r3, r0
     7e6:	3151      	adds	r1, #81	; 0x51
     7e8:	1081      	asrs	r1, r0, #2
     7ea:	31a0      	adds	r1, #160	; 0xa0
     7ec:	2082      	movs	r0, #130	; 0x82
     7ee:	31a0      	adds	r1, #160	; 0xa0
     7f0:	fffa 3aff 			; <UNDEFINED> instruction: 0xfffa3aff
     7f4:	0000      	movs	r0, r0
     7f6:	e3a0      	b.n	0xf3a
     7f8:	0001      	movs	r1, r0
     7fa:	e153      	b.n	0xaa4
     7fc:	3001      	adds	r0, #1
     7fe:	2043      	movs	r0, #67	; 0x43
     800:	0002      	movs	r2, r0
     802:	2180      	movs	r1, #128	; 0x80
     804:	00a1      	lsls	r1, r4, #2
     806:	e153      	b.n	0xab0
     808:	30a1      	adds	r0, #161	; 0xa1
     80a:	2043      	movs	r0, #67	; 0x43
     80c:	00a2      	lsls	r2, r4, #2
     80e:	2180      	movs	r1, #128	; 0x80
     810:	0121      	lsls	r1, r4, #4
     812:	e153      	b.n	0xabc
     814:	3121      	adds	r1, #33	; 0x21
     816:	2043      	movs	r0, #67	; 0x43
     818:	0122      	lsls	r2, r4, #4
     81a:	2180      	movs	r1, #128	; 0x80
     81c:	01a1      	lsls	r1, r4, #6
     81e:	e153      	b.n	0xac8
     820:	31a1      	adds	r1, #161	; 0xa1
     822:	2043      	movs	r0, #67	; 0x43
     824:	01a2      	lsls	r2, r4, #6
     826:	2180      	movs	r1, #128	; 0x80
     828:	0000      	movs	r0, r0
     82a:	e353      	b.n	0xed4
     82c:	2222      	movs	r2, #34	; 0x22
     82e:	11b0      	asrs	r0, r6, #6
     830:	1221      	asrs	r1, r4, #8
     832:	11a0      	asrs	r0, r4, #6
     834:	ffef 1aff 			; <UNDEFINED> instruction: 0xffef1aff
     838:	0000      	movs	r0, r0
     83a:	e35c      	b.n	0xef6
     83c:	0000      	movs	r0, r0
     83e:	4260      	negs	r0, r4
     840:	ff1e e12f 	vrhadd.u16	d14, d14, d31
     844:	0000      	movs	r0, r0
     846:	e13c      	b.n	0xac2
     848:	0000      	movs	r0, r0
     84a:	4260      	negs	r0, r4
     84c:	ff1e e12f 	vrhadd.u16	d14, d14, d31
     850:	0000      	movs	r0, r0
     852:	33a0      	adds	r3, #160	; 0xa0
     854:	0fcc      	lsrs	r4, r1, #31
     856:	01a0      	lsls	r0, r4, #6
     858:	0001      	movs	r1, r0
     85a:	0380      	lsls	r0, r0, #14
     85c:	ff1e e12f 	vrhadd.u16	d14, d14, d31
     860:	0801      	lsrs	r1, r0, #32
     862:	e351      	b.n	0xf08
     864:	1821      	adds	r1, r4, r0
     866:	21a0      	movs	r1, #160	; 0xa0
     868:	2010      	movs	r0, #16
     86a:	23a0      	movs	r3, #160	; 0xa0
     86c:	2000      	movs	r0, #0
     86e:	33a0      	adds	r3, #160	; 0xa0
     870:	0c01      	lsrs	r1, r0, #16
     872:	e351      	b.n	0xf18
     874:	1421      	asrs	r1, r4, #16
     876:	21a0      	movs	r1, #160	; 0xa0
     878:	2008      	movs	r0, #8
     87a:	2282      	movs	r2, #130	; 0x82
     87c:	0010      	movs	r0, r2
     87e:	e351      	b.n	0xf24
     880:	1221      	asrs	r1, r4, #8
     882:	21a0      	movs	r1, #160	; 0xa0
     884:	2004      	movs	r0, #4
     886:	2282      	movs	r2, #130	; 0x82
     888:	0004      	movs	r4, r0
     88a:	e351      	b.n	0xf30
     88c:	2003      	movs	r0, #3
     88e:	8282      	strh	r2, [r0, #20]
     890:	20a1      	movs	r0, #161	; 0xa1
     892:	9082      	str	r0, [sp, #520]	; 0x208
     894:	0000      	movs	r0, r0
     896:	e35c      	b.n	0xf52
     898:	0233      	lsls	r3, r6, #8
     89a:	e1a0      	b.n	0xbde
     89c:	0000      	movs	r0, r0
     89e:	4260      	negs	r0, r4
     8a0:	ff1e e12f 	vrhadd.u16	d14, d14, d31
     8a4:	ff1f e12f 	vrhadd.u16	d14, d15, d31
     8a8:	0000      	movs	r0, r0
     8aa:	e1a0      	b.n	0xbee
     8ac:	0000      	movs	r0, r0
     8ae:	e350      	b.n	0xf52
     8b0:	0102      	lsls	r2, r0, #4
     8b2:	c3e0      	stmia	r3!, {r5, r6, r7}
     8b4:	0102      	lsls	r2, r0, #4
     8b6:	b3a0      	cbz	r0, 0x922
     8b8:	0343      	lsls	r3, r0, #13
     8ba:	ea00 0000 	and.w	r0, r0, r0
     8be:	e351      	b.n	0xf64
     8c0:	fff7 0aff 			; <UNDEFINED> instruction: 0xfff70aff
     8c4:	4003      	ands	r3, r0
     8c6:	e92d ffb1 	stmdb	sp!, {r0, r4, r5, r7, r8, r9, sl, fp, ip, sp, lr, pc}
     8ca:	ebff 4006 			; <UNDEFINED> instruction: 0xebff4006
     8ce:	e8bd 0092 	ldmia.w	sp!, {r1, r4, r7}
     8d2:	e003      	b.n	0x8dc
     8d4:	1003      	asrs	r3, r0, #32
     8d6:	e041      	b.n	0x95c
     8d8:	ff1e e12f 	vrhadd.u16	d14, d14, d31
     8dc:	4770      	bx	lr
     8de:	46c0      	nop			; (mov r8, r8)
     8e0:	0000      	movs	r0, r0
     8e2:	e353      	b.n	0xf8c
     8e4:	0000      	movs	r0, r0
     8e6:	0352      	lsls	r2, r2, #13
     8e8:	0004      	movs	r4, r0
     8ea:	1a00      	subs	r0, r0, r0
     8ec:	0000      	movs	r0, r0
     8ee:	e351      	b.n	0xf94
     8f0:	0000      	movs	r0, r0
     8f2:	0350      	lsls	r0, r2, #13
     8f4:	1000      	asrs	r0, r0, #32
     8f6:	13e0      	asrs	r0, r4, #15
     8f8:	0000      	movs	r0, r0
     8fa:	13e0      	asrs	r0, r4, #15
     8fc:	0329      	lsls	r1, r5, #12
     8fe:	ea00 d008 			; <UNDEFINED> instruction: 0xea00d008
     902:	e24d      	b.n	0xda0
     904:	6000      	str	r0, [r0, #0]
     906:	e92d 0336 	stmdb	sp!, {r1, r2, r4, r5, r8, r9}
     90a:	eb00 e004 			; <UNDEFINED> instruction: 0xeb00e004
     90e:	e59d      	b.n	0x44c
     910:	d008      	beq.n	0x924
     912:	e28d      	b.n	0xe30
     914:	000c      	movs	r4, r1
     916:	e8bd ff1e 	ldmia.w	sp!, {r1, r2, r3, r4, r8, r9, sl, fp, ip, sp, lr, pc}
     91a:	e12f      	b.n	0xb7c
     91c:	4010      	ands	r0, r2
     91e:	e92d 0000 	stmdb	sp!, {}
     922:	e351      	b.n	0xfc8
     924:	0002      	movs	r2, r0
     926:	1a00      	subs	r0, r0, r0
     928:	0005      	movs	r5, r0
     92a:	eb00 0020 	add.w	r0, r0, r0, asr #32
     92e:	e280      	b.n	0xe32
     930:	0001      	movs	r1, r0
     932:	ea00 0001 	and.w	r0, r0, r1
     936:	e1a0      	b.n	0xc7a
     938:	0001      	movs	r1, r0
     93a:	eb00 4010 	add.w	r0, r0, r0, lsr #16
     93e:	e8bd ff1e 	ldmia.w	sp!, {r1, r2, r3, r4, r8, r9, sl, fp, ip, sp, lr, pc}
     942:	e12f      	b.n	0xba4
     944:	101c      	asrs	r4, r3, #32
     946:	e3a0      	b.n	0x108a
     948:	0801      	lsrs	r1, r0, #32
     94a:	e350      	b.n	0xfee
     94c:	0820      	lsrs	r0, r4, #32
     94e:	21a0      	movs	r1, #160	; 0xa0
     950:	1010      	asrs	r0, r2, #32
     952:	2241      	movs	r2, #65	; 0x41
     954:	0c01      	lsrs	r1, r0, #16
     956:	e350      	b.n	0xffa
     958:	0420      	lsls	r0, r4, #16
     95a:	21a0      	movs	r1, #160	; 0xa0
     95c:	1008      	asrs	r0, r1, #32
     95e:	2241      	movs	r2, #65	; 0x41
     960:	0010      	movs	r0, r2
     962:	e350      	b.n	0x1006
     964:	0220      	lsls	r0, r4, #8
     966:	21a0      	movs	r1, #160	; 0xa0
     968:	1004      	asrs	r4, r0, #32
     96a:	2241      	movs	r2, #65	; 0x41
     96c:	2008      	movs	r0, #8
     96e:	e28f      	b.n	0xe90
     970:	0000      	movs	r0, r0
     972:	e7d2      	b.n	0x91a
     974:	0001      	movs	r1, r0
     976:	e080      	b.n	0xa7a
     978:	ff1e e12f 	vrhadd.u16	d14, d14, d31
     97c:	0304      	lsls	r4, r0, #12
     97e:	0202      	lsls	r2, r0, #8
     980:	0101      	lsls	r1, r0, #4
     982:	0101      	lsls	r1, r0, #4
	...
     98c:	c001      	stmia	r0!, {r0}
     98e:	e020      	b.n	0x9d2
     990:	0003      	movs	r3, r0
     992:	e31c      	b.n	0xfce
     994:	0021      	movs	r1, r4
     996:	1a00      	subs	r0, r0, r0
     998:	c003      	stmia	r0!, {r0, r1}
     99a:	e210      	b.n	0xdbe
     99c:	0003      	movs	r3, r0
     99e:	e3c0      	b.n	0x1122
     9a0:	1003      	asrs	r3, r0, #32
     9a2:	e3c1      	b.n	0x1128
     9a4:	2004      	movs	r0, #4
     9a6:	e490      	b.n	0x2ca
     9a8:	3004      	adds	r0, #4
     9aa:	0491      	lsls	r1, r2, #18
     9ac:	0006      	movs	r6, r0
     9ae:	0a00      	lsrs	r0, r0, #8
     9b0:	c003      	stmia	r0!, {r0, r1}
     9b2:	e22c      	b.n	0xe0e
     9b4:	34ff      	adds	r4, #255	; 0xff
     9b6:	e3e0      	b.n	0x117a
     9b8:	c18c      	stmia	r1!, {r2, r3, r7}
     9ba:	e1a0      	b.n	0xcfe
     9bc:	cc33      	ldmia	r4, {r0, r1, r4, r5}
     9be:	e1a0      	b.n	0xd02
     9c0:	3004      	adds	r0, #4
     9c2:	e491      	b.n	0x2e8
     9c4:	200c      	movs	r0, #12
     9c6:	e182      	b.n	0xcce
     9c8:	300c      	adds	r0, #12
     9ca:	e183      	b.n	0xcd4
     9cc:	4004      	ands	r4, r0
     9ce:	e52d      	b.n	0x42c
     9d0:	4001      	ands	r1, r0
     9d2:	e3a0      	b.n	0x1116
     9d4:	4404      	add	r4, r0
     9d6:	e184      	b.n	0xce2
     9d8:	4804      	ldr	r0, [pc, #16]	; (0x9ec)
     9da:	e184      	b.n	0xce6
     9dc:	c004      	stmia	r0!, {r2}
     9de:	e042      	b.n	0xa66
     9e0:	0003      	movs	r3, r0
     9e2:	e152      	b.n	0xc8a
     9e4:	c002      	stmia	r0!, {r1}
     9e6:	01cc      	lsls	r4, r1, #7
     9e8:	0384      	lsls	r4, r0, #14
     9ea:	011c      	lsls	r4, r3, #4
     9ec:	2004      	movs	r0, #4
     9ee:	0490      	lsls	r0, r2, #18
     9f0:	3004      	adds	r0, #4
     9f2:	0491      	lsls	r1, r2, #18
     9f4:	fff8 0aff 			; <UNDEFINED> instruction: 0xfff80aff
     9f8:	0c02      	lsrs	r2, r0, #16
     9fa:	e1a0      	b.n	0xd3e
     9fc:	2422      	movs	r4, #34	; 0x22
     9fe:	e1a0      	b.n	0xd42
     a00:	0001      	movs	r1, r0
     a02:	e350      	b.n	0x10a6
     a04:	0c03      	lsrs	r3, r0, #16
     a06:	2150      	movs	r1, #80	; 0x50
     a08:	3423      	adds	r4, #35	; 0x23
     a0a:	01a0      	lsls	r0, r4, #6
     a0c:	fff9 0aff 			; <UNDEFINED> instruction: 0xfff90aff
     a10:	30ff      	adds	r0, #255	; 0xff
     a12:	e203      	b.n	0xe1c
     a14:	0c20      	lsrs	r0, r4, #16
     a16:	e063      	b.n	0xae0
     a18:	4004      	ands	r4, r0
     a1a:	e49d      	b.n	0x358
     a1c:	ff1e e12f 	vrhadd.u16	d14, d14, d31
     a20:	0003      	movs	r3, r0
     a22:	e310      	b.n	0x1046
     a24:	0006      	movs	r6, r0
     a26:	0a00      	lsrs	r0, r0, #8
     a28:	2001      	movs	r0, #1
     a2a:	e4d0      	b.n	0x3ce
     a2c:	3001      	adds	r0, #1
     a2e:	e4d1      	b.n	0x3d4
     a30:	0001      	movs	r1, r0
     a32:	e352      	b.n	0x10da
     a34:	0003      	movs	r3, r0
     a36:	2152      	movs	r1, #82	; 0x52
     a38:	fff8 0aff 			; <UNDEFINED> instruction: 0xfff80aff
     a3c:	0003      	movs	r3, r0
     a3e:	e042      	b.n	0xac6
     a40:	ff1e e12f 	vrhadd.u16	d14, d14, d31
     a44:	0030      	movs	r0, r6
     a46:	e92d 4001 	stmdb	sp!, {r0, lr}
     a4a:	e3a0      	b.n	0x118e
     a4c:	4404      	add	r4, r0
     a4e:	e184      	b.n	0xd5a
     a50:	4804      	ldr	r0, [pc, #16]	; (0xa64)
     a52:	e184      	b.n	0xd5e
     a54:	2004      	movs	r0, #4
     a56:	e490      	b.n	0x37a
     a58:	5003      	str	r3, [r0, r0]
     a5a:	e201      	b.n	0xe60
     a5c:	1003      	asrs	r3, r0, #32
     a5e:	e3c1      	b.n	0x11e4
     a60:	3004      	adds	r0, #4
     a62:	e491      	b.n	0x388
     a64:	0002      	movs	r2, r0
     a66:	e355      	b.n	0x1114
     a68:	0017      	movs	r7, r2
     a6a:	0a00      	lsrs	r0, r0, #8
     a6c:	002d      	movs	r5, r5
     a6e:	8a00      	ldrh	r0, [r0, #16]
     a70:	54ff      	strb	r7, [r7, r3]
     a72:	e3c2      	b.n	0x11fa
     a74:	0423      	lsls	r3, r4, #16
     a76:	e155      	b.n	0xd24
     a78:	c004      	stmia	r0!, {r2}
     a7a:	e042      	b.n	0xb02
     a7c:	c002      	stmia	r0!, {r1}
     a7e:	e1cc      	b.n	0xe1a
     a80:	0007      	movs	r7, r0
     a82:	1a00      	subs	r0, r0, r0
     a84:	c384      	stmia	r3!, {r2, r7}
     a86:	e01c      	b.n	0xac2
     a88:	3004      	adds	r0, #4
     a8a:	0491      	lsls	r1, r2, #18
     a8c:	0006      	movs	r6, r0
     a8e:	1a00      	subs	r0, r0, r0
     a90:	5002      	str	r2, [r0, r0]
     a92:	e025      	b.n	0xae0
     a94:	0c03      	lsrs	r3, r0, #16
     a96:	e155      	b.n	0xd44
     a98:	0008      	movs	r0, r1
     a9a:	1a00      	subs	r0, r0, r0
     a9c:	2004      	movs	r0, #4
     a9e:	e490      	b.n	0x3c2
     aa0:	fff2 eaff 			; <UNDEFINED> instruction: 0xfff2eaff
     aa4:	3423      	adds	r4, #35	; 0x23
     aa6:	e1a0      	b.n	0xdea
     aa8:	0036      	movs	r6, r6
     aaa:	ea00 c4ff 			; <UNDEFINED> instruction: 0xea00c4ff
     aae:	e3dc      	b.n	0x126a
     ab0:	0031      	movs	r1, r6
     ab2:	1a00      	subs	r0, r0, r0
     ab4:	3000      	adds	r0, #0
     ab6:	e5d1      	b.n	0x65c
     ab8:	5c22      	ldrb	r2, [r4, r0]
     aba:	e1a0      	b.n	0xdfe
     abc:	0031      	movs	r1, r6
     abe:	ea00 5c22 	and.w	ip, r0, r2, asr #20
     ac2:	e1a0      	b.n	0xe06
     ac4:	30ff      	adds	r0, #255	; 0xff
     ac6:	e203      	b.n	0xed0
     ac8:	002e      	movs	r6, r5
     aca:	ea00 5802 	and.w	r8, r0, r2, lsl #20
     ace:	e1a0      	b.n	0xe12
     ad0:	c004      	stmia	r0!, {r2}
     ad2:	e042      	b.n	0xb5a
     ad4:	5825      	ldr	r5, [r4, r0]
     ad6:	e1a0      	b.n	0xe1a
     ad8:	c002      	stmia	r0!, {r1}
     ada:	e1cc      	b.n	0xe76
     adc:	0823      	lsrs	r3, r4, #32
     ade:	e155      	b.n	0xd8c
     ae0:	000e      	movs	r6, r1
     ae2:	1a00      	subs	r0, r0, r0
     ae4:	c384      	stmia	r3!, {r2, r7}
     ae6:	e01c      	b.n	0xb22
     ae8:	3004      	adds	r0, #4
     aea:	0491      	lsls	r1, r2, #18
     aec:	0004      	movs	r4, r0
     aee:	1a00      	subs	r0, r0, r0
     af0:	5002      	str	r2, [r0, r0]
     af2:	e025      	b.n	0xb40
     af4:	0803      	lsrs	r3, r0, #32
     af6:	e155      	b.n	0xda4
     af8:	0006      	movs	r6, r0
     afa:	1a00      	subs	r0, r0, r0
     afc:	2004      	movs	r0, #4
     afe:	e490      	b.n	0x422
     b00:	fff1 eaff 			; <UNDEFINED> instruction: 0xfff1eaff
     b04:	c80c      	ldmia	r0!, {r2, r3}
     b06:	e1b0      	b.n	0xe6a
     b08:	001b      	movs	r3, r3
     b0a:	1a00      	subs	r0, r0, r0
     b0c:	30b0      	adds	r0, #176	; 0xb0
     b0e:	e1d1      	b.n	0xeb4
     b10:	5822      	ldr	r2, [r4, r0]
     b12:	e1a0      	b.n	0xe56
     b14:	001b      	movs	r3, r3
     b16:	ea00 3803 	and.w	r8, r0, r3, lsl #12
     b1a:	e1a0      	b.n	0xe5e
     b1c:	5822      	ldr	r2, [r4, r0]
     b1e:	e1a0      	b.n	0xe62
     b20:	3823      	subs	r0, #35	; 0x23
     b22:	e1a0      	b.n	0xe66
     b24:	0017      	movs	r7, r2
     b26:	ea00 50ff 	and.w	r0, r0, pc, ror #23
     b2a:	e202      	b.n	0xf32
     b2c:	0c23      	lsrs	r3, r4, #16
     b2e:	e155      	b.n	0xddc
     b30:	c004      	stmia	r0!, {r2}
     b32:	e042      	b.n	0xbba
     b34:	c002      	stmia	r0!, {r1}
     b36:	e1cc      	b.n	0xed2
     b38:	0007      	movs	r7, r0
     b3a:	1a00      	subs	r0, r0, r0
     b3c:	c384      	stmia	r3!, {r2, r7}
     b3e:	e01c      	b.n	0xb7a
     b40:	3004      	adds	r0, #4
     b42:	0491      	lsls	r1, r2, #18
     b44:	0006      	movs	r6, r0
     b46:	1a00      	subs	r0, r0, r0
     b48:	5002      	str	r2, [r0, r0]
     b4a:	e025      	b.n	0xb98
     b4c:	0403      	lsls	r3, r0, #16
     b4e:	e155      	b.n	0xdfc
     b50:	0006      	movs	r6, r0
     b52:	1a00      	subs	r0, r0, r0
     b54:	2004      	movs	r0, #4
     b56:	e490      	b.n	0x47a
     b58:	fff2 eaff 			; <UNDEFINED> instruction: 0xfff2eaff
     b5c:	3c23      	subs	r4, #35	; 0x23
     b5e:	e1a0      	b.n	0xea2
     b60:	0008      	movs	r0, r1
     b62:	ea00 00ff 	and.w	r0, r0, pc, ror #3
     b66:	e312      	b.n	0x118e
     b68:	0003      	movs	r3, r0
     b6a:	0a00      	lsrs	r0, r0, #8
     b6c:	3004      	adds	r0, #4
     b6e:	e491      	b.n	0x494
     b70:	5422      	strb	r2, [r4, r0]
     b72:	e1a0      	b.n	0xeb6
     b74:	34ff      	adds	r4, #255	; 0xff
     b76:	e3c3      	b.n	0x1300
     b78:	0002      	movs	r2, r0
     b7a:	ea00 0000 	and.w	r0, r0, r0
     b7e:	e3a0      	b.n	0x12c2
     b80:	0030      	movs	r0, r6
     b82:	e8bd ff1e 	ldmia.w	sp!, {r1, r2, r3, r4, r8, r9, sl, fp, ip, sp, lr, pc}
     b86:	e12f      	b.n	0xde8
     b88:	20ff      	movs	r0, #255	; 0xff
     b8a:	e205      	b.n	0xf98
     b8c:	00ff      	lsls	r7, r7, #3
     b8e:	e203      	b.n	0xf98
     b90:	0001      	movs	r1, r0
     b92:	e350      	b.n	0x1236
     b94:	0002      	movs	r2, r0
     b96:	2150      	movs	r1, #80	; 0x50
     b98:	5425      	strb	r5, [r4, r0]
     b9a:	01a0      	lsls	r0, r4, #6
     b9c:	3423      	adds	r4, #35	; 0x23
     b9e:	01a0      	lsls	r0, r4, #6
     ba0:	fff8 0aff 			; <UNDEFINED> instruction: 0xfff80aff
     ba4:	0000      	movs	r0, r0
     ba6:	e042      	b.n	0xc2e
     ba8:	0030      	movs	r0, r6
     baa:	e8bd ff1e 	ldmia.w	sp!, {r1, r2, r3, r4, r8, r9, sl, fp, ip, sp, lr, pc}
     bae:	e12f      	b.n	0xe10
     bb0:	4806      	ldr	r0, [pc, #24]	; (0xbcc)
     bb2:	4b07      	ldr	r3, [pc, #28]	; (0xbd0)
     bb4:	b510      	push	{r4, lr}
     bb6:	4283      	cmp	r3, r0
     bb8:	d004      	beq.n	0xbc4
     bba:	4b06      	ldr	r3, [pc, #24]	; (0xbd4)
     bbc:	2b00      	cmp	r3, #0
     bbe:	d001      	beq.n	0xbc4
     bc0:	f000 f80a 	bl	0xbd8
     bc4:	bc10      	pop	{r4}
     bc6:	bc01      	pop	{r0}
     bc8:	4700      	bx	r0
     bca:	46c0      	nop			; (mov r8, r8)
     bcc:	2c94      	cmp	r4, #148	; 0x94
     bce:	0300      	lsls	r0, r0, #12
     bd0:	2c94      	cmp	r4, #148	; 0x94
     bd2:	0300      	lsls	r0, r0, #12
     bd4:	0000      	movs	r0, r0
     bd6:	0000      	movs	r0, r0
     bd8:	4718      	bx	r3
     bda:	46c0      	nop			; (mov r8, r8)
     bdc:	4808      	ldr	r0, [pc, #32]	; (0xc00)
     bde:	4909      	ldr	r1, [pc, #36]	; (0xc04)
     be0:	1a09      	subs	r1, r1, r0
     be2:	1089      	asrs	r1, r1, #2
     be4:	0fcb      	lsrs	r3, r1, #31
     be6:	1859      	adds	r1, r3, r1
     be8:	b510      	push	{r4, lr}
     bea:	1049      	asrs	r1, r1, #1
     bec:	d004      	beq.n	0xbf8
     bee:	4b06      	ldr	r3, [pc, #24]	; (0xc08)
     bf0:	2b00      	cmp	r3, #0
     bf2:	d001      	beq.n	0xbf8
     bf4:	f000 f80a 	bl	0xc0c
     bf8:	bc10      	pop	{r4}
     bfa:	bc01      	pop	{r0}
     bfc:	4700      	bx	r0
     bfe:	46c0      	nop			; (mov r8, r8)
     c00:	2c94      	cmp	r4, #148	; 0x94
     c02:	0300      	lsls	r0, r0, #12
     c04:	2c94      	cmp	r4, #148	; 0x94
     c06:	0300      	lsls	r0, r0, #12
     c08:	0000      	movs	r0, r0
     c0a:	0000      	movs	r0, r0
     c0c:	4718      	bx	r3
     c0e:	46c0      	nop			; (mov r8, r8)
     c10:	b510      	push	{r4, lr}
     c12:	4c08      	ldr	r4, [pc, #32]	; (0xc34)
     c14:	7823      	ldrb	r3, [r4, #0]
     c16:	2b00      	cmp	r3, #0
     c18:	d109      	bne.n	0xc2e
     c1a:	f7ff ffc9 	bl	0xbb0
     c1e:	4b06      	ldr	r3, [pc, #24]	; (0xc38)
     c20:	2b00      	cmp	r3, #0
     c22:	d002      	beq.n	0xc2a
     c24:	4805      	ldr	r0, [pc, #20]	; (0xc3c)
     c26:	e000      	b.n	0xc2a
     c28:	bf00      	nop
     c2a:	2301      	movs	r3, #1
     c2c:	7023      	strb	r3, [r4, #0]
     c2e:	bc10      	pop	{r4}
     c30:	bc01      	pop	{r0}
     c32:	4700      	bx	r0
     c34:	0000      	movs	r0, r0
     c36:	0300      	lsls	r0, r0, #12
     c38:	0000      	movs	r0, r0
     c3a:	0000      	movs	r0, r0
     c3c:	1b10      	subs	r0, r2, r4
     c3e:	0800      	lsrs	r0, r0, #32
     c40:	4b06      	ldr	r3, [pc, #24]	; (0xc5c)
     c42:	b510      	push	{r4, lr}
     c44:	2b00      	cmp	r3, #0
     c46:	d003      	beq.n	0xc50
     c48:	4905      	ldr	r1, [pc, #20]	; (0xc60)
     c4a:	4806      	ldr	r0, [pc, #24]	; (0xc64)
     c4c:	e000      	b.n	0xc50
     c4e:	bf00      	nop
     c50:	f7ff ffc4 	bl	0xbdc
     c54:	bc10      	pop	{r4}
     c56:	bc01      	pop	{r0}
     c58:	4700      	bx	r0
     c5a:	46c0      	nop			; (mov r8, r8)
     c5c:	0000      	movs	r0, r0
     c5e:	0000      	movs	r0, r0
     c60:	0004      	movs	r4, r0
     c62:	0300      	lsls	r0, r0, #12
     c64:	1b10      	subs	r0, r2, r4
     c66:	0800      	lsrs	r0, r0, #32
     c68:	b5f0      	push	{r4, r5, r6, r7, lr}
     c6a:	46de      	mov	lr, fp
     c6c:	4657      	mov	r7, sl
     c6e:	464e      	mov	r6, r9
     c70:	4645      	mov	r5, r8
     c72:	2280      	movs	r2, #128	; 0x80
     c74:	2181      	movs	r1, #129	; 0x81
     c76:	2300      	movs	r3, #0
     c78:	b5e0      	push	{r5, r6, r7, lr}
     c7a:	0492      	lsls	r2, r2, #18
     c7c:	b095      	sub	sp, #84	; 0x54
     c7e:	0489      	lsls	r1, r1, #18
     c80:	7013      	strb	r3, [r2, #0]
     c82:	3201      	adds	r2, #1
     c84:	428a      	cmp	r2, r1
     c86:	d1fb      	bne.n	0xc80
     c88:	2183      	movs	r1, #131	; 0x83
     c8a:	4ae5      	ldr	r2, [pc, #916]	; (0x1020)
     c8c:	7013      	strb	r3, [r2, #0]
     c8e:	4ae5      	ldr	r2, [pc, #916]	; (0x1024)
     c90:	7013      	strb	r3, [r2, #0]
     c92:	4ae5      	ldr	r2, [pc, #916]	; (0x1028)
     c94:	7011      	strb	r1, [r2, #0]
     c96:	4ae5      	ldr	r2, [pc, #916]	; (0x102c)
     c98:	7013      	strb	r3, [r2, #0]
     c9a:	4ae5      	ldr	r2, [pc, #916]	; (0x1030)
     c9c:	7013      	strb	r3, [r2, #0]
     c9e:	2284      	movs	r2, #132	; 0x84
     ca0:	49e4      	ldr	r1, [pc, #912]	; (0x1034)
     ca2:	700a      	strb	r2, [r1, #0]
     ca4:	49e4      	ldr	r1, [pc, #912]	; (0x1038)
     ca6:	700b      	strb	r3, [r1, #0]
     ca8:	49e4      	ldr	r1, [pc, #912]	; (0x103c)
     caa:	700b      	strb	r3, [r1, #0]
     cac:	49e4      	ldr	r1, [pc, #912]	; (0x1040)
     cae:	700a      	strb	r2, [r1, #0]
     cb0:	49e4      	ldr	r1, [pc, #912]	; (0x1044)
     cb2:	700b      	strb	r3, [r1, #0]
     cb4:	49e4      	ldr	r1, [pc, #912]	; (0x1048)
     cb6:	700b      	strb	r3, [r1, #0]
     cb8:	4be4      	ldr	r3, [pc, #912]	; (0x104c)
     cba:	701a      	strb	r2, [r3, #0]
     cbc:	4be4      	ldr	r3, [pc, #912]	; (0x1050)
     cbe:	685b      	ldr	r3, [r3, #4]
     cc0:	079a      	lsls	r2, r3, #30
     cc2:	d007      	beq.n	0xcd4
     cc4:	2103      	movs	r1, #3
     cc6:	1c5a      	adds	r2, r3, #1
     cc8:	0008      	movs	r0, r1
     cca:	0013      	movs	r3, r2
     ccc:	4010      	ands	r0, r2
     cce:	3201      	adds	r2, #1
     cd0:	2800      	cmp	r0, #0
     cd2:	d1f9      	bne.n	0xcc8
     cd4:	0018      	movs	r0, r3
     cd6:	4adf      	ldr	r2, [pc, #892]	; (0x1054)
     cd8:	3030      	adds	r0, #48	; 0x30
     cda:	6013      	str	r3, [r2, #0]
     cdc:	0782      	lsls	r2, r0, #30
     cde:	d008      	beq.n	0xcf2
     ce0:	001a      	movs	r2, r3
     ce2:	2103      	movs	r1, #3
     ce4:	3231      	adds	r2, #49	; 0x31
     ce6:	000c      	movs	r4, r1
     ce8:	0010      	movs	r0, r2
     cea:	4014      	ands	r4, r2
     cec:	3201      	adds	r2, #1
     cee:	2c00      	cmp	r4, #0
     cf0:	d1f9      	bne.n	0xce6
     cf2:	0002      	movs	r2, r0
     cf4:	49d6      	ldr	r1, [pc, #856]	; (0x1050)
     cf6:	3230      	adds	r2, #48	; 0x30
     cf8:	604a      	str	r2, [r1, #4]
     cfa:	4ad7      	ldr	r2, [pc, #860]	; (0x1058)
     cfc:	6010      	str	r0, [r2, #0]
     cfe:	6003      	str	r3, [r0, #0]
     d00:	2302      	movs	r3, #2
     d02:	2400      	movs	r4, #0
     d04:	7203      	strb	r3, [r0, #8]
     d06:	3326      	adds	r3, #38	; 0x26
     d08:	49d4      	ldr	r1, [pc, #848]	; (0x105c)
     d0a:	7104      	strb	r4, [r0, #4]
     d0c:	60c3      	str	r3, [r0, #12]
     d0e:	4693      	mov	fp, r2
     d10:	3010      	adds	r0, #16
     d12:	221f      	movs	r2, #31
     d14:	f000 fbf4 	bl	0x1500
     d18:	4ad1      	ldr	r2, [pc, #836]	; (0x1060)
     d1a:	ab04      	add	r3, sp, #16
     d1c:	ca23      	ldmia	r2!, {r0, r1, r5}
     d1e:	c323      	stmia	r3!, {r0, r1, r5}
     d20:	ca23      	ldmia	r2!, {r0, r1, r5}
     d22:	c323      	stmia	r3!, {r0, r1, r5}
     d24:	6811      	ldr	r1, [r2, #0]
     d26:	6019      	str	r1, [r3, #0]
     d28:	8891      	ldrh	r1, [r2, #4]
     d2a:	8099      	strh	r1, [r3, #4]
     d2c:	7992      	ldrb	r2, [r2, #6]
     d2e:	719a      	strb	r2, [r3, #6]
     d30:	220a      	movs	r2, #10
     d32:	4bcc      	ldr	r3, [pc, #816]	; (0x1064)
     d34:	49cc      	ldr	r1, [pc, #816]	; (0x1068)
     d36:	48cd      	ldr	r0, [pc, #820]	; (0x106c)
     d38:	50ca      	str	r2, [r1, r3]
     d3a:	49cd      	ldr	r1, [pc, #820]	; (0x1070)
     d3c:	f7ff fa70 	bl	0x220
     d40:	4bcc      	ldr	r3, [pc, #816]	; (0x1074)
     d42:	49cd      	ldr	r1, [pc, #820]	; (0x1078)
     d44:	48cd      	ldr	r0, [pc, #820]	; (0x107c)
     d46:	601c      	str	r4, [r3, #0]
     d48:	f7ff fa6a 	bl	0x220
     d4c:	4bbb      	ldr	r3, [pc, #748]	; (0x103c)
     d4e:	4aba      	ldr	r2, [pc, #744]	; (0x1038)
     d50:	781b      	ldrb	r3, [r3, #0]
     d52:	7812      	ldrb	r2, [r2, #0]
     d54:	021b      	lsls	r3, r3, #8
     d56:	4313      	orrs	r3, r2
     d58:	4ab5      	ldr	r2, [pc, #724]	; (0x1030)
     d5a:	7812      	ldrb	r2, [r2, #0]
     d5c:	021b      	lsls	r3, r3, #8
     d5e:	431a      	orrs	r2, r3
     d60:	0211      	lsls	r1, r2, #8
     d62:	0e13      	lsrs	r3, r2, #24
     d64:	4ab1      	ldr	r2, [pc, #708]	; (0x102c)
     d66:	7812      	ldrb	r2, [r2, #0]
     d68:	430a      	orrs	r2, r1
     d6a:	0e11      	lsrs	r1, r2, #24
     d6c:	021b      	lsls	r3, r3, #8
     d6e:	430b      	orrs	r3, r1
     d70:	49ac      	ldr	r1, [pc, #688]	; (0x1024)
     d72:	7809      	ldrb	r1, [r1, #0]
     d74:	0212      	lsls	r2, r2, #8
     d76:	430a      	orrs	r2, r1
     d78:	49a9      	ldr	r1, [pc, #676]	; (0x1020)
     d7a:	780d      	ldrb	r5, [r1, #0]
     d7c:	0e14      	lsrs	r4, r2, #24
     d7e:	021b      	lsls	r3, r3, #8
     d80:	0212      	lsls	r2, r2, #8
     d82:	431c      	orrs	r4, r3
     d84:	4315      	orrs	r5, r2
     d86:	0021      	movs	r1, r4
     d88:	0028      	movs	r0, r5
     d8a:	0023      	movs	r3, r4
     d8c:	002a      	movs	r2, r5
     d8e:	1812      	adds	r2, r2, r0
     d90:	414b      	adcs	r3, r1
     d92:	1880      	adds	r0, r0, r2
     d94:	4159      	adcs	r1, r3
     d96:	020b      	lsls	r3, r1, #8
     d98:	0e02      	lsrs	r2, r0, #24
     d9a:	431a      	orrs	r2, r3
     d9c:	0204      	lsls	r4, r0, #8
     d9e:	0011      	movs	r1, r2
     da0:	2300      	movs	r3, #0
     da2:	0020      	movs	r0, r4
     da4:	4ab6      	ldr	r2, [pc, #728]	; (0x1080)
     da6:	f000 fc1b 	bl	0x15e0
     daa:	2601      	movs	r6, #1
     dac:	4bb5      	ldr	r3, [pc, #724]	; (0x1084)
     dae:	6018      	str	r0, [r3, #0]
     db0:	4bb5      	ldr	r3, [pc, #724]	; (0x1088)
     db2:	4698      	mov	r8, r3
     db4:	ab0c      	add	r3, sp, #48	; 0x30
     db6:	9302      	str	r3, [sp, #8]
     db8:	2241      	movs	r2, #65	; 0x41
     dba:	4bb4      	ldr	r3, [pc, #720]	; (0x108c)
     dbc:	701a      	strb	r2, [r3, #0]
     dbe:	2301      	movs	r3, #1
     dc0:	4642      	mov	r2, r8
     dc2:	9d02      	ldr	r5, [sp, #8]
     dc4:	6013      	str	r3, [r2, #0]
     dc6:	4ab2      	ldr	r2, [pc, #712]	; (0x1090)
     dc8:	3341      	adds	r3, #65	; 0x41
     dca:	7013      	strb	r3, [r2, #0]
     dcc:	002b      	movs	r3, r5
     dce:	4ab1      	ldr	r2, [pc, #708]	; (0x1094)
     dd0:	ca13      	ldmia	r2!, {r0, r1, r4}
     dd2:	c313      	stmia	r3!, {r0, r1, r4}
     dd4:	ca13      	ldmia	r2!, {r0, r1, r4}
     dd6:	c313      	stmia	r3!, {r0, r1, r4}
     dd8:	6811      	ldr	r1, [r2, #0]
     dda:	6019      	str	r1, [r3, #0]
     ddc:	8891      	ldrh	r1, [r2, #4]
     dde:	8099      	strh	r1, [r3, #4]
     de0:	7992      	ldrb	r2, [r2, #6]
     de2:	0029      	movs	r1, r5
     de4:	719a      	strb	r2, [r3, #6]
     de6:	a804      	add	r0, sp, #16
     de8:	f7ff fc16 	bl	0x618
     dec:	4243      	negs	r3, r0
     dee:	4158      	adcs	r0, r3
     df0:	4643      	mov	r3, r8
     df2:	499d      	ldr	r1, [pc, #628]	; (0x1068)
     df4:	6018      	str	r0, [r3, #0]
     df6:	2203      	movs	r2, #3
     df8:	2307      	movs	r3, #7
     dfa:	48a7      	ldr	r0, [pc, #668]	; (0x1098)
     dfc:	f7ff fbdc 	bl	0x5b8
     e00:	465b      	mov	r3, fp
     e02:	6818      	ldr	r0, [r3, #0]
     e04:	f7ff fb90 	bl	0x528
     e08:	4ba1      	ldr	r3, [pc, #644]	; (0x1090)
     e0a:	7819      	ldrb	r1, [r3, #0]
     e0c:	2940      	cmp	r1, #64	; 0x40
     e0e:	d800      	bhi.n	0xe12
     e10:	e23b      	b.n	0x128a
     e12:	2200      	movs	r2, #0
     e14:	4ba1      	ldr	r3, [pc, #644]	; (0x109c)
     e16:	681b      	ldr	r3, [r3, #0]
     e18:	469a      	mov	sl, r3
     e1a:	4b9c      	ldr	r3, [pc, #624]	; (0x108c)
     e1c:	781b      	ldrb	r3, [r3, #0]
     e1e:	001f      	movs	r7, r3
     e20:	9303      	str	r3, [sp, #12]
     e22:	4694      	mov	ip, r2
     e24:	2341      	movs	r3, #65	; 0x41
     e26:	4691      	mov	r9, r2
     e28:	2501      	movs	r5, #1
     e2a:	2003      	movs	r0, #3
     e2c:	9701      	str	r7, [sp, #4]
     e2e:	3301      	adds	r3, #1
     e30:	061b      	lsls	r3, r3, #24
     e32:	0e1b      	lsrs	r3, r3, #24
     e34:	4299      	cmp	r1, r3
     e36:	d31e      	bcc.n	0xe76
     e38:	2200      	movs	r2, #0
     e3a:	2b43      	cmp	r3, #67	; 0x43
     e3c:	d103      	bne.n	0xe46
     e3e:	3243      	adds	r2, #67	; 0x43
     e40:	9201      	str	r2, [sp, #4]
     e42:	3a42      	subs	r2, #66	; 0x42
     e44:	4694      	mov	ip, r2
     e46:	4295      	cmp	r5, r2
     e48:	d1f1      	bne.n	0xe2e
     e4a:	9a02      	ldr	r2, [sp, #8]
     e4c:	4894      	ldr	r0, [pc, #592]	; (0x10a0)
     e4e:	c8b0      	ldmia	r0!, {r4, r5, r7}
     e50:	c2b0      	stmia	r2!, {r4, r5, r7}
     e52:	c8b0      	ldmia	r0!, {r4, r5, r7}
     e54:	c2b0      	stmia	r2!, {r4, r5, r7}
     e56:	6805      	ldr	r5, [r0, #0]
     e58:	6015      	str	r5, [r2, #0]
     e5a:	8885      	ldrh	r5, [r0, #4]
     e5c:	8095      	strh	r5, [r2, #4]
     e5e:	7980      	ldrb	r0, [r0, #6]
     e60:	7190      	strb	r0, [r2, #6]
     e62:	2201      	movs	r2, #1
     e64:	3301      	adds	r3, #1
     e66:	061b      	lsls	r3, r3, #24
     e68:	46b2      	mov	sl, r6
     e6a:	0030      	movs	r0, r6
     e6c:	4691      	mov	r9, r2
     e6e:	2500      	movs	r5, #0
     e70:	0e1b      	lsrs	r3, r3, #24
     e72:	4299      	cmp	r1, r3
     e74:	d2e0      	bcs.n	0xe38
     e76:	4663      	mov	r3, ip
     e78:	9f01      	ldr	r7, [sp, #4]
     e7a:	2b00      	cmp	r3, #0
     e7c:	d100      	bne.n	0xe80
     e7e:	e202      	b.n	0x1286
     e80:	4b82      	ldr	r3, [pc, #520]	; (0x108c)
     e82:	701f      	strb	r7, [r3, #0]
     e84:	464b      	mov	r3, r9
     e86:	2b00      	cmp	r3, #0
     e88:	d002      	beq.n	0xe90
     e8a:	4652      	mov	r2, sl
     e8c:	4b83      	ldr	r3, [pc, #524]	; (0x109c)
     e8e:	601a      	str	r2, [r3, #0]
     e90:	0043      	lsls	r3, r0, #1
     e92:	4699      	mov	r9, r3
     e94:	4481      	add	r9, r0
     e96:	2107      	movs	r1, #7
     e98:	4648      	mov	r0, r9
     e9a:	f000 fb8b 	bl	0x15b4
     e9e:	464b      	mov	r3, r9
     ea0:	3b07      	subs	r3, #7
     ea2:	00da      	lsls	r2, r3, #3
     ea4:	1ad3      	subs	r3, r2, r3
     ea6:	1a1b      	subs	r3, r3, r0
     ea8:	2f41      	cmp	r7, #65	; 0x41
     eaa:	d104      	bne.n	0xeb6
     eac:	4a7b      	ldr	r2, [pc, #492]	; (0x109c)
     eae:	6812      	ldr	r2, [r2, #0]
     eb0:	3009      	adds	r0, #9
     eb2:	9201      	str	r2, [sp, #4]
     eb4:	1a80      	subs	r0, r0, r2
     eb6:	4a7b      	ldr	r2, [pc, #492]	; (0x10a4)
     eb8:	3601      	adds	r6, #1
     eba:	4296      	cmp	r6, r2
     ebc:	d000      	beq.n	0xec0
     ebe:	e77b      	b.n	0xdb8
     ec0:	4699      	mov	r9, r3
     ec2:	4b5e      	ldr	r3, [pc, #376]	; (0x103c)
     ec4:	781a      	ldrb	r2, [r3, #0]
     ec6:	4b5c      	ldr	r3, [pc, #368]	; (0x1038)
     ec8:	781b      	ldrb	r3, [r3, #0]
     eca:	0212      	lsls	r2, r2, #8
     ecc:	431a      	orrs	r2, r3
     ece:	4b58      	ldr	r3, [pc, #352]	; (0x1030)
     ed0:	781b      	ldrb	r3, [r3, #0]
     ed2:	0212      	lsls	r2, r2, #8
     ed4:	431a      	orrs	r2, r3
     ed6:	4b55      	ldr	r3, [pc, #340]	; (0x102c)
     ed8:	781b      	ldrb	r3, [r3, #0]
     eda:	0e16      	lsrs	r6, r2, #24
     edc:	0212      	lsls	r2, r2, #8
     ede:	4313      	orrs	r3, r2
     ee0:	0e1a      	lsrs	r2, r3, #24
     ee2:	0236      	lsls	r6, r6, #8
     ee4:	4316      	orrs	r6, r2
     ee6:	4a4f      	ldr	r2, [pc, #316]	; (0x1024)
     ee8:	7812      	ldrb	r2, [r2, #0]
     eea:	021b      	lsls	r3, r3, #8
     eec:	4313      	orrs	r3, r2
     eee:	0e1a      	lsrs	r2, r3, #24
     ef0:	0236      	lsls	r6, r6, #8
     ef2:	494b      	ldr	r1, [pc, #300]	; (0x1020)
     ef4:	4332      	orrs	r2, r6
     ef6:	780f      	ldrb	r7, [r1, #0]
     ef8:	0011      	movs	r1, r2
     efa:	021b      	lsls	r3, r3, #8
     efc:	431f      	orrs	r7, r3
     efe:	4682      	mov	sl, r0
     f00:	000b      	movs	r3, r1
     f02:	0038      	movs	r0, r7
     f04:	003a      	movs	r2, r7
     f06:	1812      	adds	r2, r2, r0
     f08:	414b      	adcs	r3, r1
     f0a:	1880      	adds	r0, r0, r2
     f0c:	4159      	adcs	r1, r3
     f0e:	020b      	lsls	r3, r1, #8
     f10:	0e02      	lsrs	r2, r0, #24
     f12:	431a      	orrs	r2, r3
     f14:	0206      	lsls	r6, r0, #8
     f16:	0030      	movs	r0, r6
     f18:	0011      	movs	r1, r2
     f1a:	2300      	movs	r3, #0
     f1c:	4a58      	ldr	r2, [pc, #352]	; (0x1080)
     f1e:	f000 fb5f 	bl	0x15e0
     f22:	4b61      	ldr	r3, [pc, #388]	; (0x10a8)
     f24:	6018      	str	r0, [r3, #0]
     f26:	4b57      	ldr	r3, [pc, #348]	; (0x1084)
     f28:	681b      	ldr	r3, [r3, #0]
     f2a:	1ac0      	subs	r0, r0, r3
     f2c:	2301      	movs	r3, #1
     f2e:	4a51      	ldr	r2, [pc, #324]	; (0x1074)
     f30:	6013      	str	r3, [r2, #0]
     f32:	4b5a      	ldr	r3, [pc, #360]	; (0x109c)
     f34:	4e5d      	ldr	r6, [pc, #372]	; (0x10ac)
     f36:	6819      	ldr	r1, [r3, #0]
     f38:	6030      	str	r0, [r6, #0]
     f3a:	2905      	cmp	r1, #5
     f3c:	d009      	beq.n	0xf52
     f3e:	2300      	movs	r3, #0
     f40:	4a43      	ldr	r2, [pc, #268]	; (0x1050)
     f42:	485b      	ldr	r0, [pc, #364]	; (0x10b0)
     f44:	6013      	str	r3, [r2, #0]
     f46:	f7ff f96b 	bl	0x220
     f4a:	2105      	movs	r1, #5
     f4c:	4859      	ldr	r0, [pc, #356]	; (0x10b4)
     f4e:	f7ff f967 	bl	0x220
     f52:	4643      	mov	r3, r8
     f54:	6819      	ldr	r1, [r3, #0]
     f56:	2901      	cmp	r1, #1
     f58:	d009      	beq.n	0xf6e
     f5a:	2300      	movs	r3, #0
     f5c:	4a3c      	ldr	r2, [pc, #240]	; (0x1050)
     f5e:	4856      	ldr	r0, [pc, #344]	; (0x10b8)
     f60:	6013      	str	r3, [r2, #0]
     f62:	f7ff f95d 	bl	0x220
     f66:	2101      	movs	r1, #1
     f68:	4852      	ldr	r0, [pc, #328]	; (0x10b4)
     f6a:	f7ff f959 	bl	0x220
     f6e:	4b47      	ldr	r3, [pc, #284]	; (0x108c)
     f70:	7819      	ldrb	r1, [r3, #0]
     f72:	2941      	cmp	r1, #65	; 0x41
     f74:	d009      	beq.n	0xf8a
     f76:	2300      	movs	r3, #0
     f78:	4a35      	ldr	r2, [pc, #212]	; (0x1050)
     f7a:	4850      	ldr	r0, [pc, #320]	; (0x10bc)
     f7c:	6013      	str	r3, [r2, #0]
     f7e:	f7ff f94f 	bl	0x220
     f82:	2141      	movs	r1, #65	; 0x41
     f84:	484e      	ldr	r0, [pc, #312]	; (0x10c0)
     f86:	f7ff f94b 	bl	0x220
     f8a:	4b41      	ldr	r3, [pc, #260]	; (0x1090)
     f8c:	7819      	ldrb	r1, [r3, #0]
     f8e:	2942      	cmp	r1, #66	; 0x42
     f90:	d009      	beq.n	0xfa6
     f92:	2300      	movs	r3, #0
     f94:	4a2e      	ldr	r2, [pc, #184]	; (0x1050)
     f96:	484b      	ldr	r0, [pc, #300]	; (0x10c4)
     f98:	6013      	str	r3, [r2, #0]
     f9a:	f7ff f941 	bl	0x220
     f9e:	2142      	movs	r1, #66	; 0x42
     fa0:	4847      	ldr	r0, [pc, #284]	; (0x10c0)
     fa2:	f7ff f93d 	bl	0x220
     fa6:	4b3c      	ldr	r3, [pc, #240]	; (0x1098)
     fa8:	6a19      	ldr	r1, [r3, #32]
     faa:	2907      	cmp	r1, #7
     fac:	d009      	beq.n	0xfc2
     fae:	2300      	movs	r3, #0
     fb0:	4a27      	ldr	r2, [pc, #156]	; (0x1050)
     fb2:	4845      	ldr	r0, [pc, #276]	; (0x10c8)
     fb4:	6013      	str	r3, [r2, #0]
     fb6:	f7ff f933 	bl	0x220
     fba:	2107      	movs	r1, #7
     fbc:	483d      	ldr	r0, [pc, #244]	; (0x10b4)
     fbe:	f7ff f92f 	bl	0x220
     fc2:	4b28      	ldr	r3, [pc, #160]	; (0x1064)
     fc4:	4a28      	ldr	r2, [pc, #160]	; (0x1068)
     fc6:	58d1      	ldr	r1, [r2, r3]
     fc8:	4b40      	ldr	r3, [pc, #256]	; (0x10cc)
     fca:	4299      	cmp	r1, r3
     fcc:	d008      	beq.n	0xfe0
     fce:	2300      	movs	r3, #0
     fd0:	4a1f      	ldr	r2, [pc, #124]	; (0x1050)
     fd2:	483f      	ldr	r0, [pc, #252]	; (0x10d0)
     fd4:	6013      	str	r3, [r2, #0]
     fd6:	f7ff f923 	bl	0x220
     fda:	483e      	ldr	r0, [pc, #248]	; (0x10d4)
     fdc:	f7ff f920 	bl	0x220
     fe0:	465b      	mov	r3, fp
     fe2:	681b      	ldr	r3, [r3, #0]
     fe4:	7919      	ldrb	r1, [r3, #4]
     fe6:	2900      	cmp	r1, #0
     fe8:	d009      	beq.n	0xffe
     fea:	2700      	movs	r7, #0
     fec:	4b18      	ldr	r3, [pc, #96]	; (0x1050)
     fee:	483a      	ldr	r0, [pc, #232]	; (0x10d8)
     ff0:	601f      	str	r7, [r3, #0]
     ff2:	f7ff f915 	bl	0x220
     ff6:	0039      	movs	r1, r7
     ff8:	482e      	ldr	r0, [pc, #184]	; (0x10b4)
     ffa:	f7ff f911 	bl	0x220
     ffe:	465b      	mov	r3, fp
    1000:	681b      	ldr	r3, [r3, #0]
    1002:	7a19      	ldrb	r1, [r3, #8]
    1004:	2902      	cmp	r1, #2
    1006:	d06b      	beq.n	0x10e0
    1008:	2300      	movs	r3, #0
    100a:	4a11      	ldr	r2, [pc, #68]	; (0x1050)
    100c:	4833      	ldr	r0, [pc, #204]	; (0x10dc)
    100e:	6013      	str	r3, [r2, #0]
    1010:	f7ff f906 	bl	0x220
    1014:	2102      	movs	r1, #2
    1016:	4827      	ldr	r0, [pc, #156]	; (0x10b4)
    1018:	f7ff f902 	bl	0x220
    101c:	e060      	b.n	0x10e0
    101e:	46c0      	nop			; (mov r8, r8)
    1020:	0100      	lsls	r0, r0, #4
    1022:	0400      	lsls	r0, r0, #16
    1024:	0101      	lsls	r1, r0, #4
    1026:	0400      	lsls	r0, r0, #16
    1028:	0102      	lsls	r2, r0, #4
    102a:	0400      	lsls	r0, r0, #16
    102c:	0104      	lsls	r4, r0, #4
    102e:	0400      	lsls	r0, r0, #16
    1030:	0105      	lsls	r5, r0, #4
    1032:	0400      	lsls	r0, r0, #16
    1034:	0106      	lsls	r6, r0, #4
    1036:	0400      	lsls	r0, r0, #16
    1038:	0108      	lsls	r0, r1, #4
    103a:	0400      	lsls	r0, r0, #16
    103c:	0109      	lsls	r1, r1, #4
    103e:	0400      	lsls	r0, r0, #16
    1040:	010a      	lsls	r2, r1, #4
    1042:	0400      	lsls	r0, r0, #16
    1044:	010c      	lsls	r4, r1, #4
    1046:	0400      	lsls	r0, r0, #16
    1048:	010d      	lsls	r5, r1, #4
    104a:	0400      	lsls	r0, r0, #16
    104c:	010e      	lsls	r6, r1, #4
    104e:	0400      	lsls	r0, r0, #16
    1050:	2c8c      	cmp	r4, #140	; 0x8c
    1052:	0300      	lsls	r0, r0, #12
    1054:	2bac      	cmp	r3, #172	; 0xac
    1056:	0300      	lsls	r0, r0, #12
    1058:	2bb8      	cmp	r3, #184	; 0xb8
    105a:	0300      	lsls	r0, r0, #12
    105c:	1624      	asrs	r4, r4, #24
    105e:	0800      	lsrs	r0, r0, #32
    1060:	1964      	adds	r4, r4, r5
    1062:	0800      	lsrs	r0, r0, #32
    1064:	065c      	lsls	r4, r3, #25
    1066:	0000      	movs	r0, r0
    1068:	0498      	lsls	r0, r3, #18
    106a:	0300      	lsls	r0, r0, #12
    106c:	1654      	asrs	r4, r2, #25
    106e:	0800      	lsrs	r0, r0, #32
    1070:	1644      	asrs	r4, r0, #25
    1072:	0800      	lsrs	r0, r0, #32
    1074:	2bbc      	cmp	r3, #188	; 0xbc
    1076:	0300      	lsls	r0, r0, #12
    1078:	a120      	add	r1, pc, #128	; (adr r1, 0x10fc)
    107a:	0007      	movs	r7, r0
    107c:	1678      	asrs	r0, r7, #25
    107e:	0800      	lsrs	r0, r0, #32
    1080:	30d4      	adds	r0, #212	; 0xd4
    1082:	0000      	movs	r0, r0
    1084:	0494      	lsls	r4, r2, #18
    1086:	0300      	lsls	r0, r0, #12
    1088:	2c88      	cmp	r4, #136	; 0x88
    108a:	0300      	lsls	r0, r0, #12
    108c:	2bb4      	cmp	r3, #180	; 0xb4
    108e:	0300      	lsls	r0, r0, #12
    1090:	2bb5      	cmp	r3, #181	; 0xb5
    1092:	0300      	lsls	r0, r0, #12
    1094:	19d8      	adds	r0, r3, r7
    1096:	0800      	lsrs	r0, r0, #32
    1098:	2bc0      	cmp	r3, #192	; 0xc0
    109a:	0300      	lsls	r0, r0, #12
    109c:	2bb0      	cmp	r3, #176	; 0xb0
    109e:	0300      	lsls	r0, r0, #12
    10a0:	1af0      	subs	r0, r6, r3
    10a2:	0800      	lsrs	r0, r0, #32
    10a4:	a121      	add	r1, pc, #132	; (adr r1, 0x112c)
    10a6:	0007      	movs	r7, r0
    10a8:	2ba8      	cmp	r3, #168	; 0xa8
    10aa:	0300      	lsls	r0, r0, #12
    10ac:	0490      	lsls	r0, r2, #18
    10ae:	0300      	lsls	r0, r0, #12
    10b0:	169c      	asrs	r4, r3, #26
    10b2:	0800      	lsrs	r0, r0, #32
    10b4:	16b8      	asrs	r0, r7, #26
    10b6:	0800      	lsrs	r0, r0, #32
    10b8:	16d4      	asrs	r4, r2, #27
    10ba:	0800      	lsrs	r0, r0, #32
    10bc:	16f0      	asrs	r0, r6, #27
    10be:	0800      	lsrs	r0, r0, #32
    10c0:	170c      	asrs	r4, r1, #28
    10c2:	0800      	lsrs	r0, r0, #32
    10c4:	1728      	asrs	r0, r5, #28
    10c6:	0800      	lsrs	r0, r0, #32
    10c8:	1744      	asrs	r4, r0, #29
    10ca:	0800      	lsrs	r0, r0, #32
    10cc:	a12a      	add	r1, pc, #168	; (adr r1, 0x1178)
    10ce:	0007      	movs	r7, r0
    10d0:	1760      	asrs	r0, r4, #29
    10d2:	0800      	lsrs	r0, r0, #32
    10d4:	177c      	asrs	r4, r7, #29
    10d6:	0800      	lsrs	r0, r0, #32
    10d8:	17a8      	asrs	r0, r5, #30
    10da:	0800      	lsrs	r0, r0, #32
    10dc:	17cc      	asrs	r4, r1, #31
    10de:	0800      	lsrs	r0, r0, #32
    10e0:	465b      	mov	r3, fp
    10e2:	681b      	ldr	r3, [r3, #0]
    10e4:	68d9      	ldr	r1, [r3, #12]
    10e6:	2911      	cmp	r1, #17
    10e8:	d009      	beq.n	0x10fe
    10ea:	2300      	movs	r3, #0
    10ec:	4a6a      	ldr	r2, [pc, #424]	; (0x1298)
    10ee:	486b      	ldr	r0, [pc, #428]	; (0x129c)
    10f0:	6013      	str	r3, [r2, #0]
    10f2:	f7ff f895 	bl	0x220
    10f6:	2111      	movs	r1, #17
    10f8:	4869      	ldr	r0, [pc, #420]	; (0x12a0)
    10fa:	f7ff f891 	bl	0x220
    10fe:	465b      	mov	r3, fp
    1100:	681b      	ldr	r3, [r3, #0]
    1102:	3310      	adds	r3, #16
    1104:	4967      	ldr	r1, [pc, #412]	; (0x12a4)
    1106:	0018      	movs	r0, r3
    1108:	001f      	movs	r7, r3
    110a:	f000 fa5b 	bl	0x15c4
    110e:	2800      	cmp	r0, #0
    1110:	d009      	beq.n	0x1126
    1112:	2300      	movs	r3, #0
    1114:	4a60      	ldr	r2, [pc, #384]	; (0x1298)
    1116:	0039      	movs	r1, r7
    1118:	4863      	ldr	r0, [pc, #396]	; (0x12a8)
    111a:	6013      	str	r3, [r2, #0]
    111c:	f7ff f880 	bl	0x220
    1120:	4862      	ldr	r0, [pc, #392]	; (0x12ac)
    1122:	f7ff f87d 	bl	0x220
    1126:	4b62      	ldr	r3, [pc, #392]	; (0x12b0)
    1128:	681b      	ldr	r3, [r3, #0]
    112a:	9301      	str	r3, [sp, #4]
    112c:	7919      	ldrb	r1, [r3, #4]
    112e:	2900      	cmp	r1, #0
    1130:	d009      	beq.n	0x1146
    1132:	2700      	movs	r7, #0
    1134:	4b58      	ldr	r3, [pc, #352]	; (0x1298)
    1136:	485f      	ldr	r0, [pc, #380]	; (0x12b4)
    1138:	601f      	str	r7, [r3, #0]
    113a:	f7ff f871 	bl	0x220
    113e:	0039      	movs	r1, r7
    1140:	4857      	ldr	r0, [pc, #348]	; (0x12a0)
    1142:	f7ff f86d 	bl	0x220
    1146:	4b5a      	ldr	r3, [pc, #360]	; (0x12b0)
    1148:	681b      	ldr	r3, [r3, #0]
    114a:	9301      	str	r3, [sp, #4]
    114c:	7a19      	ldrb	r1, [r3, #8]
    114e:	2901      	cmp	r1, #1
    1150:	d009      	beq.n	0x1166
    1152:	2300      	movs	r3, #0
    1154:	4a50      	ldr	r2, [pc, #320]	; (0x1298)
    1156:	4858      	ldr	r0, [pc, #352]	; (0x12b8)
    1158:	6013      	str	r3, [r2, #0]
    115a:	f7ff f861 	bl	0x220
    115e:	2101      	movs	r1, #1
    1160:	484f      	ldr	r0, [pc, #316]	; (0x12a0)
    1162:	f7ff f85d 	bl	0x220
    1166:	4b52      	ldr	r3, [pc, #328]	; (0x12b0)
    1168:	681b      	ldr	r3, [r3, #0]
    116a:	68d9      	ldr	r1, [r3, #12]
    116c:	2912      	cmp	r1, #18
    116e:	d009      	beq.n	0x1184
    1170:	2300      	movs	r3, #0
    1172:	4a49      	ldr	r2, [pc, #292]	; (0x1298)
    1174:	4851      	ldr	r0, [pc, #324]	; (0x12bc)
    1176:	6013      	str	r3, [r2, #0]
    1178:	f7ff f852 	bl	0x220
    117c:	2112      	movs	r1, #18
    117e:	4848      	ldr	r0, [pc, #288]	; (0x12a0)
    1180:	f7ff f84e 	bl	0x220
    1184:	4b4a      	ldr	r3, [pc, #296]	; (0x12b0)
    1186:	681b      	ldr	r3, [r3, #0]
    1188:	3310      	adds	r3, #16
    118a:	4946      	ldr	r1, [pc, #280]	; (0x12a4)
    118c:	0018      	movs	r0, r3
    118e:	001f      	movs	r7, r3
    1190:	f000 fa18 	bl	0x15c4
    1194:	2800      	cmp	r0, #0
    1196:	d009      	beq.n	0x11ac
    1198:	2300      	movs	r3, #0
    119a:	4a3f      	ldr	r2, [pc, #252]	; (0x1298)
    119c:	0039      	movs	r1, r7
    119e:	4848      	ldr	r0, [pc, #288]	; (0x12c0)
    11a0:	6013      	str	r3, [r2, #0]
    11a2:	f7ff f83d 	bl	0x220
    11a6:	4841      	ldr	r0, [pc, #260]	; (0x12ac)
    11a8:	f7ff f83a 	bl	0x220
    11ac:	4653      	mov	r3, sl
    11ae:	2b05      	cmp	r3, #5
    11b0:	d00a      	beq.n	0x11c8
    11b2:	2300      	movs	r3, #0
    11b4:	4a38      	ldr	r2, [pc, #224]	; (0x1298)
    11b6:	4651      	mov	r1, sl
    11b8:	4842      	ldr	r0, [pc, #264]	; (0x12c4)
    11ba:	6013      	str	r3, [r2, #0]
    11bc:	f7ff f830 	bl	0x220
    11c0:	2105      	movs	r1, #5
    11c2:	4837      	ldr	r0, [pc, #220]	; (0x12a0)
    11c4:	f7ff f82c 	bl	0x220
    11c8:	464b      	mov	r3, r9
    11ca:	2b0d      	cmp	r3, #13
    11cc:	d00a      	beq.n	0x11e4
    11ce:	2300      	movs	r3, #0
    11d0:	4a31      	ldr	r2, [pc, #196]	; (0x1298)
    11d2:	4649      	mov	r1, r9
    11d4:	483c      	ldr	r0, [pc, #240]	; (0x12c8)
    11d6:	6013      	str	r3, [r2, #0]
    11d8:	f7ff f822 	bl	0x220
    11dc:	210d      	movs	r1, #13
    11de:	4830      	ldr	r0, [pc, #192]	; (0x12a0)
    11e0:	f7ff f81e 	bl	0x220
    11e4:	2d01      	cmp	r5, #1
    11e6:	d00a      	beq.n	0x11fe
    11e8:	2300      	movs	r3, #0
    11ea:	4a2b      	ldr	r2, [pc, #172]	; (0x1298)
    11ec:	0029      	movs	r1, r5
    11ee:	4837      	ldr	r0, [pc, #220]	; (0x12cc)
    11f0:	6013      	str	r3, [r2, #0]
    11f2:	f7ff f815 	bl	0x220
    11f6:	2101      	movs	r1, #1
    11f8:	4829      	ldr	r0, [pc, #164]	; (0x12a0)
    11fa:	f7ff f811 	bl	0x220
    11fe:	4934      	ldr	r1, [pc, #208]	; (0x12d0)
    1200:	a804      	add	r0, sp, #16
    1202:	f000 f9df 	bl	0x15c4
    1206:	2800      	cmp	r0, #0
    1208:	d009      	beq.n	0x121e
    120a:	2300      	movs	r3, #0
    120c:	4a22      	ldr	r2, [pc, #136]	; (0x1298)
    120e:	a904      	add	r1, sp, #16
    1210:	4830      	ldr	r0, [pc, #192]	; (0x12d4)
    1212:	6013      	str	r3, [r2, #0]
    1214:	f7ff f804 	bl	0x220
    1218:	482f      	ldr	r0, [pc, #188]	; (0x12d8)
    121a:	f7ff f801 	bl	0x220
    121e:	9c02      	ldr	r4, [sp, #8]
    1220:	492e      	ldr	r1, [pc, #184]	; (0x12dc)
    1222:	0020      	movs	r0, r4
    1224:	f000 f9ce 	bl	0x15c4
    1228:	2800      	cmp	r0, #0
    122a:	d009      	beq.n	0x1240
    122c:	2300      	movs	r3, #0
    122e:	4a1a      	ldr	r2, [pc, #104]	; (0x1298)
    1230:	0021      	movs	r1, r4
    1232:	482b      	ldr	r0, [pc, #172]	; (0x12e0)
    1234:	6013      	str	r3, [r2, #0]
    1236:	f7fe fff3 	bl	0x220
    123a:	482a      	ldr	r0, [pc, #168]	; (0x12e4)
    123c:	f7fe fff0 	bl	0x220
    1240:	6831      	ldr	r1, [r6, #0]
    1242:	4829      	ldr	r0, [pc, #164]	; (0x12e8)
    1244:	f7fe ffec 	bl	0x220
    1248:	4828      	ldr	r0, [pc, #160]	; (0x12ec)
    124a:	f7fe ffe9 	bl	0x220
    124e:	4b12      	ldr	r3, [pc, #72]	; (0x1298)
    1250:	681b      	ldr	r3, [r3, #0]
    1252:	4c27      	ldr	r4, [pc, #156]	; (0x12f0)
    1254:	2b00      	cmp	r3, #0
    1256:	d100      	bne.n	0x125a
    1258:	4c26      	ldr	r4, [pc, #152]	; (0x12f4)
    125a:	6831      	ldr	r1, [r6, #0]
    125c:	4826      	ldr	r0, [pc, #152]	; (0x12f8)
    125e:	f000 f9a9 	bl	0x15b4
    1262:	0021      	movs	r1, r4
    1264:	0002      	movs	r2, r0
    1266:	4825      	ldr	r0, [pc, #148]	; (0x12fc)
    1268:	f7fe ffda 	bl	0x220
    126c:	4824      	ldr	r0, [pc, #144]	; (0x1300)
    126e:	f7fe ffd7 	bl	0x220
    1272:	2000      	movs	r0, #0
    1274:	b015      	add	sp, #84	; 0x54
    1276:	bc3c      	pop	{r2, r3, r4, r5}
    1278:	4690      	mov	r8, r2
    127a:	4699      	mov	r9, r3
    127c:	46a2      	mov	sl, r4
    127e:	46ab      	mov	fp, r5
    1280:	bcf0      	pop	{r4, r5, r6, r7}
    1282:	bc02      	pop	{r1}
    1284:	4708      	bx	r1
    1286:	9f03      	ldr	r7, [sp, #12]
    1288:	e5fc      	b.n	0xe84
    128a:	4b1e      	ldr	r3, [pc, #120]	; (0x1304)
    128c:	2001      	movs	r0, #1
    128e:	781f      	ldrb	r7, [r3, #0]
    1290:	2501      	movs	r5, #1
    1292:	230d      	movs	r3, #13
    1294:	e608      	b.n	0xea8
    1296:	46c0      	nop			; (mov r8, r8)
    1298:	2c8c      	cmp	r4, #140	; 0x8c
    129a:	0300      	lsls	r0, r0, #12
    129c:	17f0      	asrs	r0, r6, #31
    129e:	0800      	lsrs	r0, r0, #32
    12a0:	16b8      	asrs	r0, r7, #26
    12a2:	0800      	lsrs	r0, r0, #32
    12a4:	1624      	asrs	r4, r4, #24
    12a6:	0800      	lsrs	r0, r0, #32
    12a8:	1814      	adds	r4, r2, r0
    12aa:	0800      	lsrs	r0, r0, #32
    12ac:	1838      	adds	r0, r7, r0
    12ae:	0800      	lsrs	r0, r0, #32
    12b0:	2bac      	cmp	r3, #172	; 0xac
    12b2:	0300      	lsls	r0, r0, #12
    12b4:	1870      	adds	r0, r6, r1
    12b6:	0800      	lsrs	r0, r0, #32
    12b8:	1898      	adds	r0, r3, r2
    12ba:	0800      	lsrs	r0, r0, #32
    12bc:	18c0      	adds	r0, r0, r3
    12be:	0800      	lsrs	r0, r0, #32
    12c0:	18e8      	adds	r0, r5, r3
    12c2:	0800      	lsrs	r0, r0, #32
    12c4:	1910      	adds	r0, r2, r4
    12c6:	0800      	lsrs	r0, r0, #32
    12c8:	192c      	adds	r4, r5, r4
    12ca:	0800      	lsrs	r0, r0, #32
    12cc:	1948      	adds	r0, r1, r5
    12ce:	0800      	lsrs	r0, r0, #32
    12d0:	1964      	adds	r4, r4, r5
    12d2:	0800      	lsrs	r0, r0, #32
    12d4:	1984      	adds	r4, r0, r6
    12d6:	0800      	lsrs	r0, r0, #32
    12d8:	19a0      	adds	r0, r4, r6
    12da:	0800      	lsrs	r0, r0, #32
    12dc:	19d8      	adds	r0, r3, r7
    12de:	0800      	lsrs	r0, r0, #32
    12e0:	19f8      	adds	r0, r7, r7
    12e2:	0800      	lsrs	r0, r0, #32
    12e4:	1a14      	subs	r4, r2, r0
    12e6:	0800      	lsrs	r0, r0, #32
    12e8:	1a4c      	subs	r4, r1, r1
    12ea:	0800      	lsrs	r0, r0, #32
    12ec:	1a60      	subs	r0, r4, r1
    12ee:	0800      	lsrs	r0, r0, #32
    12f0:	1614      	asrs	r4, r2, #24
    12f2:	0800      	lsrs	r0, r0, #32
    12f4:	161c      	asrs	r4, r3, #24
    12f6:	0800      	lsrs	r0, r0, #32
    12f8:	b87e      			; <UNDEFINED> instruction: 0xb87e
    12fa:	000f      	movs	r7, r1
    12fc:	1a94      	subs	r4, r2, r2
    12fe:	0800      	lsrs	r0, r0, #32
    1300:	1ab4      	subs	r4, r6, r2
    1302:	0800      	lsrs	r0, r0, #32
    1304:	2bb4      	cmp	r3, #180	; 0xb4
    1306:	0300      	lsls	r0, r0, #12
    1308:	b5f0      	push	{r4, r5, r6, r7, lr}
    130a:	4657      	mov	r7, sl
    130c:	464e      	mov	r6, r9
    130e:	4645      	mov	r5, r8
    1310:	46de      	mov	lr, fp
    1312:	b5e0      	push	{r5, r6, r7, lr}
    1314:	0004      	movs	r4, r0
    1316:	b083      	sub	sp, #12
    1318:	000d      	movs	r5, r1
    131a:	4692      	mov	sl, r2
    131c:	4699      	mov	r9, r3
    131e:	428b      	cmp	r3, r1
    1320:	d830      	bhi.n	0x1384
    1322:	d02d      	beq.n	0x1380
    1324:	4649      	mov	r1, r9
    1326:	4650      	mov	r0, sl
    1328:	f000 f956 	bl	0x15d8
    132c:	0029      	movs	r1, r5
    132e:	0006      	movs	r6, r0
    1330:	0020      	movs	r0, r4
    1332:	f000 f951 	bl	0x15d8
    1336:	1a33      	subs	r3, r6, r0
    1338:	4698      	mov	r8, r3
    133a:	3b20      	subs	r3, #32
    133c:	469b      	mov	fp, r3
    133e:	d435      	bmi.n	0x13ac
    1340:	465a      	mov	r2, fp
    1342:	4653      	mov	r3, sl
    1344:	4093      	lsls	r3, r2
    1346:	4642      	mov	r2, r8
    1348:	001f      	movs	r7, r3
    134a:	4653      	mov	r3, sl
    134c:	4093      	lsls	r3, r2
    134e:	001e      	movs	r6, r3
    1350:	42af      	cmp	r7, r5
    1352:	d83c      	bhi.n	0x13ce
    1354:	42af      	cmp	r7, r5
    1356:	d100      	bne.n	0x135a
    1358:	e07d      	b.n	0x1456
    135a:	465b      	mov	r3, fp
    135c:	1ba4      	subs	r4, r4, r6
    135e:	41bd      	sbcs	r5, r7
    1360:	2b00      	cmp	r3, #0
    1362:	da00      	bge.n	0x1366
    1364:	e07a      	b.n	0x145c
    1366:	2200      	movs	r2, #0
    1368:	2300      	movs	r3, #0
    136a:	9200      	str	r2, [sp, #0]
    136c:	9301      	str	r3, [sp, #4]
    136e:	2301      	movs	r3, #1
    1370:	465a      	mov	r2, fp
    1372:	4093      	lsls	r3, r2
    1374:	9301      	str	r3, [sp, #4]
    1376:	2301      	movs	r3, #1
    1378:	4642      	mov	r2, r8
    137a:	4093      	lsls	r3, r2
    137c:	9300      	str	r3, [sp, #0]
    137e:	e02a      	b.n	0x13d6
    1380:	4282      	cmp	r2, r0
    1382:	d9cf      	bls.n	0x1324
    1384:	2200      	movs	r2, #0
    1386:	2300      	movs	r3, #0
    1388:	9200      	str	r2, [sp, #0]
    138a:	9301      	str	r3, [sp, #4]
    138c:	9b0c      	ldr	r3, [sp, #48]	; 0x30
    138e:	2b00      	cmp	r3, #0
    1390:	d001      	beq.n	0x1396
    1392:	601c      	str	r4, [r3, #0]
    1394:	605d      	str	r5, [r3, #4]
    1396:	9800      	ldr	r0, [sp, #0]
    1398:	9901      	ldr	r1, [sp, #4]
    139a:	b003      	add	sp, #12
    139c:	bc3c      	pop	{r2, r3, r4, r5}
    139e:	4690      	mov	r8, r2
    13a0:	4699      	mov	r9, r3
    13a2:	46a2      	mov	sl, r4
    13a4:	46ab      	mov	fp, r5
    13a6:	bcf0      	pop	{r4, r5, r6, r7}
    13a8:	bc04      	pop	{r2}
    13aa:	4710      	bx	r2
    13ac:	4642      	mov	r2, r8
    13ae:	2320      	movs	r3, #32
    13b0:	1a9b      	subs	r3, r3, r2
    13b2:	4652      	mov	r2, sl
    13b4:	40da      	lsrs	r2, r3
    13b6:	4641      	mov	r1, r8
    13b8:	0013      	movs	r3, r2
    13ba:	464a      	mov	r2, r9
    13bc:	408a      	lsls	r2, r1
    13be:	0017      	movs	r7, r2
    13c0:	4642      	mov	r2, r8
    13c2:	431f      	orrs	r7, r3
    13c4:	4653      	mov	r3, sl
    13c6:	4093      	lsls	r3, r2
    13c8:	001e      	movs	r6, r3
    13ca:	42af      	cmp	r7, r5
    13cc:	d9c2      	bls.n	0x1354
    13ce:	2200      	movs	r2, #0
    13d0:	2300      	movs	r3, #0
    13d2:	9200      	str	r2, [sp, #0]
    13d4:	9301      	str	r3, [sp, #4]
    13d6:	4643      	mov	r3, r8
    13d8:	2b00      	cmp	r3, #0
    13da:	d0d7      	beq.n	0x138c
    13dc:	07fb      	lsls	r3, r7, #31
    13de:	469c      	mov	ip, r3
    13e0:	4661      	mov	r1, ip
    13e2:	0872      	lsrs	r2, r6, #1
    13e4:	430a      	orrs	r2, r1
    13e6:	087b      	lsrs	r3, r7, #1
    13e8:	4646      	mov	r6, r8
    13ea:	e00e      	b.n	0x140a
    13ec:	42ab      	cmp	r3, r5
    13ee:	d101      	bne.n	0x13f4
    13f0:	42a2      	cmp	r2, r4
    13f2:	d80c      	bhi.n	0x140e
    13f4:	1aa4      	subs	r4, r4, r2
    13f6:	419d      	sbcs	r5, r3
    13f8:	2001      	movs	r0, #1
    13fa:	1924      	adds	r4, r4, r4
    13fc:	416d      	adcs	r5, r5
    13fe:	2100      	movs	r1, #0
    1400:	3e01      	subs	r6, #1
    1402:	1824      	adds	r4, r4, r0
    1404:	414d      	adcs	r5, r1
    1406:	2e00      	cmp	r6, #0
    1408:	d006      	beq.n	0x1418
    140a:	42ab      	cmp	r3, r5
    140c:	d9ee      	bls.n	0x13ec
    140e:	3e01      	subs	r6, #1
    1410:	1924      	adds	r4, r4, r4
    1412:	416d      	adcs	r5, r5
    1414:	2e00      	cmp	r6, #0
    1416:	d1f8      	bne.n	0x140a
    1418:	465b      	mov	r3, fp
    141a:	9800      	ldr	r0, [sp, #0]
    141c:	9901      	ldr	r1, [sp, #4]
    141e:	1900      	adds	r0, r0, r4
    1420:	4169      	adcs	r1, r5
    1422:	2b00      	cmp	r3, #0
    1424:	db25      	blt.n	0x1472
    1426:	002b      	movs	r3, r5
    1428:	465a      	mov	r2, fp
    142a:	4644      	mov	r4, r8
    142c:	40d3      	lsrs	r3, r2
    142e:	002a      	movs	r2, r5
    1430:	40e2      	lsrs	r2, r4
    1432:	001c      	movs	r4, r3
    1434:	465b      	mov	r3, fp
    1436:	0015      	movs	r5, r2
    1438:	2b00      	cmp	r3, #0
    143a:	db2b      	blt.n	0x1494
    143c:	0026      	movs	r6, r4
    143e:	465f      	mov	r7, fp
    1440:	40be      	lsls	r6, r7
    1442:	0033      	movs	r3, r6
    1444:	0026      	movs	r6, r4
    1446:	4647      	mov	r7, r8
    1448:	40be      	lsls	r6, r7
    144a:	0032      	movs	r2, r6
    144c:	1a80      	subs	r0, r0, r2
    144e:	4199      	sbcs	r1, r3
    1450:	9000      	str	r0, [sp, #0]
    1452:	9101      	str	r1, [sp, #4]
    1454:	e79a      	b.n	0x138c
    1456:	42a3      	cmp	r3, r4
    1458:	d8b9      	bhi.n	0x13ce
    145a:	e77e      	b.n	0x135a
    145c:	4642      	mov	r2, r8
    145e:	2320      	movs	r3, #32
    1460:	2100      	movs	r1, #0
    1462:	1a9b      	subs	r3, r3, r2
    1464:	2200      	movs	r2, #0
    1466:	9100      	str	r1, [sp, #0]
    1468:	9201      	str	r2, [sp, #4]
    146a:	2201      	movs	r2, #1
    146c:	40da      	lsrs	r2, r3
    146e:	9201      	str	r2, [sp, #4]
    1470:	e781      	b.n	0x1376
    1472:	4642      	mov	r2, r8
    1474:	2320      	movs	r3, #32
    1476:	1a9b      	subs	r3, r3, r2
    1478:	002a      	movs	r2, r5
    147a:	4646      	mov	r6, r8
    147c:	409a      	lsls	r2, r3
    147e:	0023      	movs	r3, r4
    1480:	40f3      	lsrs	r3, r6
    1482:	4644      	mov	r4, r8
    1484:	4313      	orrs	r3, r2
    1486:	002a      	movs	r2, r5
    1488:	40e2      	lsrs	r2, r4
    148a:	001c      	movs	r4, r3
    148c:	465b      	mov	r3, fp
    148e:	0015      	movs	r5, r2
    1490:	2b00      	cmp	r3, #0
    1492:	dad3      	bge.n	0x143c
    1494:	2320      	movs	r3, #32
    1496:	4642      	mov	r2, r8
    1498:	0026      	movs	r6, r4
    149a:	1a9b      	subs	r3, r3, r2
    149c:	40de      	lsrs	r6, r3
    149e:	002f      	movs	r7, r5
    14a0:	46b4      	mov	ip, r6
    14a2:	4646      	mov	r6, r8
    14a4:	40b7      	lsls	r7, r6
    14a6:	4666      	mov	r6, ip
    14a8:	003b      	movs	r3, r7
    14aa:	4333      	orrs	r3, r6
    14ac:	e7ca      	b.n	0x1444
    14ae:	46c0      	nop			; (mov r8, r8)
    14b0:	b570      	push	{r4, r5, r6, lr}
    14b2:	4d0e      	ldr	r5, [pc, #56]	; (0x14ec)
    14b4:	4e0e      	ldr	r6, [pc, #56]	; (0x14f0)
    14b6:	1b76      	subs	r6, r6, r5
    14b8:	10b6      	asrs	r6, r6, #2
    14ba:	d006      	beq.n	0x14ca
    14bc:	2400      	movs	r4, #0
    14be:	cd08      	ldmia	r5!, {r3}
    14c0:	3401      	adds	r4, #1
    14c2:	f000 f81b 	bl	0x14fc
    14c6:	42a6      	cmp	r6, r4
    14c8:	d1f9      	bne.n	0x14be
    14ca:	f7fe fea1 	bl	0x210
    14ce:	4d09      	ldr	r5, [pc, #36]	; (0x14f4)
    14d0:	4e09      	ldr	r6, [pc, #36]	; (0x14f8)
    14d2:	1b76      	subs	r6, r6, r5
    14d4:	10b6      	asrs	r6, r6, #2
    14d6:	d006      	beq.n	0x14e6
    14d8:	2400      	movs	r4, #0
    14da:	cd08      	ldmia	r5!, {r3}
    14dc:	3401      	adds	r4, #1
    14de:	f000 f80d 	bl	0x14fc
    14e2:	42a6      	cmp	r6, r4
    14e4:	d1f9      	bne.n	0x14da
    14e6:	bc70      	pop	{r4, r5, r6}
    14e8:	bc01      	pop	{r0}
    14ea:	4700      	bx	r0
    14ec:	2c94      	cmp	r4, #148	; 0x94
    14ee:	0300      	lsls	r0, r0, #12
    14f0:	2c94      	cmp	r4, #148	; 0x94
    14f2:	0300      	lsls	r0, r0, #12
    14f4:	2c94      	cmp	r4, #148	; 0x94
    14f6:	0300      	lsls	r0, r0, #12
    14f8:	2c98      	cmp	r4, #152	; 0x98
    14fa:	0300      	lsls	r0, r0, #12
    14fc:	4718      	bx	r3
    14fe:	46c0      	nop			; (mov r8, r8)
    1500:	b5f0      	push	{r4, r5, r6, r7, lr}
    1502:	2a0f      	cmp	r2, #15
    1504:	d93f      	bls.n	0x1586
    1506:	000c      	movs	r4, r1
    1508:	4304      	orrs	r4, r0
    150a:	000d      	movs	r5, r1
    150c:	0003      	movs	r3, r0
    150e:	07a4      	lsls	r4, r4, #30
    1510:	d13e      	bne.n	0x1590
    1512:	0014      	movs	r4, r2
    1514:	3c10      	subs	r4, #16
    1516:	0924      	lsrs	r4, r4, #4
    1518:	0127      	lsls	r7, r4, #4
    151a:	183f      	adds	r7, r7, r0
    151c:	e000      	b.n	0x1520
    151e:	0033      	movs	r3, r6
    1520:	682e      	ldr	r6, [r5, #0]
    1522:	601e      	str	r6, [r3, #0]
    1524:	686e      	ldr	r6, [r5, #4]
    1526:	605e      	str	r6, [r3, #4]
    1528:	68ae      	ldr	r6, [r5, #8]
    152a:	609e      	str	r6, [r3, #8]
    152c:	68ee      	ldr	r6, [r5, #12]
    152e:	60de      	str	r6, [r3, #12]
    1530:	001e      	movs	r6, r3
    1532:	3510      	adds	r5, #16
    1534:	3610      	adds	r6, #16
    1536:	42bb      	cmp	r3, r7
    1538:	d1f1      	bne.n	0x151e
    153a:	250f      	movs	r5, #15
    153c:	230c      	movs	r3, #12
    153e:	3401      	adds	r4, #1
    1540:	0124      	lsls	r4, r4, #4
    1542:	1909      	adds	r1, r1, r4
    1544:	4015      	ands	r5, r2
    1546:	1904      	adds	r4, r0, r4
    1548:	4213      	tst	r3, r2
    154a:	d024      	beq.n	0x1596
    154c:	2300      	movs	r3, #0
    154e:	58ce      	ldr	r6, [r1, r3]
    1550:	50e6      	str	r6, [r4, r3]
    1552:	3304      	adds	r3, #4
    1554:	1aee      	subs	r6, r5, r3
    1556:	2e03      	cmp	r6, #3
    1558:	d8f9      	bhi.n	0x154e
    155a:	2303      	movs	r3, #3
    155c:	3d04      	subs	r5, #4
    155e:	08ad      	lsrs	r5, r5, #2
    1560:	3501      	adds	r5, #1
    1562:	00ad      	lsls	r5, r5, #2
    1564:	401a      	ands	r2, r3
    1566:	1964      	adds	r4, r4, r5
    1568:	1949      	adds	r1, r1, r5
    156a:	1e55      	subs	r5, r2, #1
    156c:	2a00      	cmp	r2, #0
    156e:	d007      	beq.n	0x1580
    1570:	2300      	movs	r3, #0
    1572:	e000      	b.n	0x1576
    1574:	0013      	movs	r3, r2
    1576:	5cca      	ldrb	r2, [r1, r3]
    1578:	54e2      	strb	r2, [r4, r3]
    157a:	1c5a      	adds	r2, r3, #1
    157c:	429d      	cmp	r5, r3
    157e:	d1f9      	bne.n	0x1574
    1580:	bcf0      	pop	{r4, r5, r6, r7}
    1582:	bc02      	pop	{r1}
    1584:	4708      	bx	r1
    1586:	0004      	movs	r4, r0
    1588:	1e55      	subs	r5, r2, #1
    158a:	2a00      	cmp	r2, #0
    158c:	d1f0      	bne.n	0x1570
    158e:	e7f7      	b.n	0x1580
    1590:	1e55      	subs	r5, r2, #1
    1592:	0004      	movs	r4, r0
    1594:	e7ec      	b.n	0x1570
    1596:	002a      	movs	r2, r5
    1598:	e7f6      	b.n	0x1588
    159a:	46c0      	nop			; (mov r8, r8)
    159c:	ffff ffff 			; <UNDEFINED> instruction: 0xffffffff
    15a0:	4778      	bx	pc
    15a2:	46c0      	nop			; (mov r8, r8)
    15a4:	fc31 eaff 			; <UNDEFINED> instruction: 0xfc31eaff
    15a8:	c000      	stmia	r0!, {}
    15aa:	e59f      	b.n	0x10ec
    15ac:	ff1c e12f 	vrhadd.u16	d14, d12, d31
    15b0:	08dd      	lsrs	r5, r3, #3
    15b2:	0800      	lsrs	r0, r0, #32
    15b4:	4778      	bx	pc
    15b6:	46c0      	nop			; (mov r8, r8)
    15b8:	fc73 eaff 			; <UNDEFINED> instruction: 0xfc73eaff
    15bc:	4778      	bx	pc
    15be:	46c0      	nop			; (mov r8, r8)
    15c0:	fc69 eaff 			; <UNDEFINED> instruction: 0xfc69eaff
    15c4:	4778      	bx	pc
    15c6:	46c0      	nop			; (mov r8, r8)
    15c8:	fcef eaff 			; <UNDEFINED> instruction: 0xfcefeaff
    15cc:	c000      	stmia	r0!, {}
    15ce:	e59f      	b.n	0x1110
    15d0:	ff1c e12f 	vrhadd.u16	d14, d12, d31
    15d4:	08dd      	lsrs	r5, r3, #3
    15d6:	0800      	lsrs	r0, r0, #32
    15d8:	4778      	bx	pc
    15da:	46c0      	nop			; (mov r8, r8)
    15dc:	fcce eaff 			; <UNDEFINED> instruction: 0xfcceeaff
    15e0:	4778      	bx	pc
    15e2:	46c0      	nop			; (mov r8, r8)
    15e4:	fcbd eaff 			; <UNDEFINED> instruction: 0xfcbdeaff
    15e8:	c000      	stmia	r0!, {}
    15ea:	e59f      	b.n	0x112c
    15ec:	ff1c e12f 	vrhadd.u16	d14, d12, d31
    15f0:	1309      	asrs	r1, r1, #12
    15f2:	0800      	lsrs	r0, r0, #32
    15f4:	4778      	bx	pc
    15f6:	46c0      	nop			; (mov r8, r8)
    15f8:	fcaf eaff 			; <UNDEFINED> instruction: 0xfcafeaff
	...
    1608:	b5f8      	push	{r3, r4, r5, r6, r7, lr}
    160a:	46c0      	nop			; (mov r8, r8)
    160c:	bcf8      	pop	{r3, r4, r5, r6, r7}
    160e:	bc08      	pop	{r3}
    1610:	469e      	mov	lr, r3
    1612:	4770      	bx	lr
    1614:	4150      	adcs	r0, r2
    1616:	5353      	strh	r3, [r2, r5]
    1618:	0000      	movs	r0, r0
    161a:	0000      	movs	r0, r0
    161c:	4146      	adcs	r6, r0
    161e:	4c49      	ldr	r4, [pc, #292]	; (0x1744)
    1620:	0000      	movs	r0, r0
    1622:	0000      	movs	r0, r0
    1624:	4844      	ldr	r0, [pc, #272]	; (0x1738)
    1626:	5952      	ldr	r2, [r2, r5]
    1628:	5453      	strb	r3, [r2, r1]
    162a:	4e4f      	ldr	r6, [pc, #316]	; (0x1768)
    162c:	2045      	movs	r0, #69	; 0x45
    162e:	5250      	strh	r0, [r2, r1]
    1630:	474f      	bx	r9
    1632:	4152      	adcs	r2, r2
    1634:	2c4d      	cmp	r4, #77	; 0x4d
    1636:	5320      	strh	r0, [r4, r4]
    1638:	4d4f      	ldr	r5, [pc, #316]	; (0x1778)
    163a:	2045      	movs	r0, #69	; 0x45
    163c:	5453      	strb	r3, [r2, r1]
    163e:	4952      	ldr	r1, [pc, #328]	; (0x1788)
    1640:	474e      	bx	r9
    1642:	0000      	movs	r0, r0
    1644:	2c43      	cmp	r4, #67	; 0x43
    1646:	5620      	ldrsb	r0, [r4, r0]
    1648:	7265      	strb	r5, [r4, #9]
    164a:	6973      	ldr	r3, [r6, #20]
    164c:	6e6f      	ldr	r7, [r5, #100]	; 0x64
    164e:	3220      	adds	r2, #32
    1650:	322e      	adds	r2, #46	; 0x2e
    1652:	0000      	movs	r0, r0
    1654:	6844      	ldr	r4, [r0, #4]
    1656:	7972      	ldrb	r2, [r6, #5]
    1658:	7473      	strb	r3, [r6, #17]
    165a:	6e6f      	ldr	r7, [r5, #100]	; 0x64
    165c:	2065      	movs	r0, #101	; 0x65
    165e:	6542      	str	r2, [r0, #84]	; 0x54
    1660:	636e      	str	r6, [r5, #52]	; 0x34
    1662:	6d68      	ldr	r0, [r5, #84]	; 0x54
    1664:	7261      	strb	r1, [r4, #9]
    1666:	2c6b      	cmp	r4, #107	; 0x6b
    1668:	5620      	ldrsb	r0, [r4, r0]
    166a:	7265      	strb	r5, [r4, #9]
    166c:	6973      	ldr	r3, [r6, #20]
    166e:	6e6f      	ldr	r7, [r5, #100]	; 0x64
    1670:	2520      	movs	r5, #32
    1672:	0a73      	lsrs	r3, r6, #9
    1674:	0000      	movs	r0, r0
    1676:	0000      	movs	r0, r0
    1678:	7254      	strb	r4, [r2, #9]
    167a:	6979      	ldr	r1, [r7, #20]
    167c:	676e      	str	r6, [r5, #116]	; 0x74
    167e:	2520      	movs	r5, #32
    1680:	2064      	movs	r0, #100	; 0x64
    1682:	7572      	strb	r2, [r6, #21]
    1684:	736e      	strb	r6, [r5, #13]
    1686:	7420      	strb	r0, [r4, #16]
    1688:	7268      	strb	r0, [r5, #9]
    168a:	756f      	strb	r7, [r5, #21]
    168c:	6867      	ldr	r7, [r4, #4]
    168e:	4420      	add	r0, r4
    1690:	7268      	strb	r0, [r5, #9]
    1692:	7379      	strb	r1, [r7, #13]
    1694:	6f74      	ldr	r4, [r6, #116]	; 0x74
    1696:	656e      	str	r6, [r5, #84]	; 0x54
    1698:	0a2e      	lsrs	r6, r5, #8
    169a:	0000      	movs	r0, r0
    169c:	6e49      	ldr	r1, [r1, #100]	; 0x64
    169e:	5f74      	ldrsh	r4, [r6, r5]
    16a0:	6c47      	ldr	r7, [r0, #68]	; 0x44
    16a2:	626f      	str	r7, [r5, #36]	; 0x24
    16a4:	203a      	movs	r0, #58	; 0x3a
    16a6:	2020      	movs	r0, #32
    16a8:	2020      	movs	r0, #32
    16aa:	2020      	movs	r0, #32
    16ac:	2020      	movs	r0, #32
    16ae:	2020      	movs	r0, #32
    16b0:	2520      	movs	r5, #32
    16b2:	0a64      	lsrs	r4, r4, #9
    16b4:	0000      	movs	r0, r0
    16b6:	0000      	movs	r0, r0
    16b8:	2020      	movs	r0, #32
    16ba:	2020      	movs	r0, #32
    16bc:	2020      	movs	r0, #32
    16be:	2020      	movs	r0, #32
    16c0:	6873      	ldr	r3, [r6, #4]
    16c2:	756f      	strb	r7, [r5, #21]
    16c4:	646c      	str	r4, [r5, #68]	; 0x44
    16c6:	6220      	str	r0, [r4, #32]
    16c8:	3a65      	subs	r2, #101	; 0x65
    16ca:	2020      	movs	r0, #32
    16cc:	2520      	movs	r5, #32
    16ce:	0a64      	lsrs	r4, r4, #9
    16d0:	0000      	movs	r0, r0
    16d2:	0000      	movs	r0, r0
    16d4:	6f42      	ldr	r2, [r0, #116]	; 0x74
    16d6:	6c6f      	ldr	r7, [r5, #68]	; 0x44
    16d8:	475f      	bx	fp
    16da:	6f6c      	ldr	r4, [r5, #116]	; 0x74
    16dc:	3a62      	subs	r2, #98	; 0x62
    16de:	2020      	movs	r0, #32
    16e0:	2020      	movs	r0, #32
    16e2:	2020      	movs	r0, #32
    16e4:	2020      	movs	r0, #32
    16e6:	2020      	movs	r0, #32
    16e8:	2520      	movs	r5, #32
    16ea:	0a64      	lsrs	r4, r4, #9
    16ec:	0000      	movs	r0, r0
    16ee:	0000      	movs	r0, r0
    16f0:	6843      	ldr	r3, [r0, #4]
    16f2:	315f      	adds	r1, #95	; 0x5f
    16f4:	475f      	bx	fp
    16f6:	6f6c      	ldr	r4, [r5, #116]	; 0x74
    16f8:	3a62      	subs	r2, #98	; 0x62
    16fa:	2020      	movs	r0, #32
    16fc:	2020      	movs	r0, #32
    16fe:	2020      	movs	r0, #32
    1700:	2020      	movs	r0, #32
    1702:	2020      	movs	r0, #32
    1704:	2520      	movs	r5, #32
    1706:	0a63      	lsrs	r3, r4, #9
    1708:	0000      	movs	r0, r0
    170a:	0000      	movs	r0, r0
    170c:	2020      	movs	r0, #32
    170e:	2020      	movs	r0, #32
    1710:	2020      	movs	r0, #32
    1712:	2020      	movs	r0, #32
    1714:	6873      	ldr	r3, [r6, #4]
    1716:	756f      	strb	r7, [r5, #21]
    1718:	646c      	str	r4, [r5, #68]	; 0x44
    171a:	6220      	str	r0, [r4, #32]
    171c:	3a65      	subs	r2, #101	; 0x65
    171e:	2020      	movs	r0, #32
    1720:	2520      	movs	r5, #32
    1722:	0a63      	lsrs	r3, r4, #9
    1724:	0000      	movs	r0, r0
    1726:	0000      	movs	r0, r0
    1728:	6843      	ldr	r3, [r0, #4]
    172a:	325f      	adds	r2, #95	; 0x5f
    172c:	475f      	bx	fp
    172e:	6f6c      	ldr	r4, [r5, #116]	; 0x74
    1730:	3a62      	subs	r2, #98	; 0x62
    1732:	2020      	movs	r0, #32
    1734:	2020      	movs	r0, #32
    1736:	2020      	movs	r0, #32
    1738:	2020      	movs	r0, #32
    173a:	2020      	movs	r0, #32
    173c:	2520      	movs	r5, #32
    173e:	0a63      	lsrs	r3, r4, #9
    1740:	0000      	movs	r0, r0
    1742:	0000      	movs	r0, r0
    1744:	7241      	strb	r1, [r0, #9]
    1746:	5f72      	ldrsh	r2, [r6, r5]
    1748:	5f31      	ldrsh	r1, [r6, r4]
    174a:	6c47      	ldr	r7, [r0, #68]	; 0x44
    174c:	626f      	str	r7, [r5, #36]	; 0x24
    174e:	385b      	subs	r0, #91	; 0x5b
    1750:	3a5d      	subs	r2, #93	; 0x5d
    1752:	2020      	movs	r0, #32
    1754:	2020      	movs	r0, #32
    1756:	2020      	movs	r0, #32
    1758:	2520      	movs	r5, #32
    175a:	0a64      	lsrs	r4, r4, #9
    175c:	0000      	movs	r0, r0
    175e:	0000      	movs	r0, r0
    1760:	7241      	strb	r1, [r0, #9]
    1762:	5f72      	ldrsh	r2, [r6, r5]
    1764:	5f32      	ldrsh	r2, [r6, r4]
    1766:	6c47      	ldr	r7, [r0, #68]	; 0x44
    1768:	626f      	str	r7, [r5, #36]	; 0x24
    176a:	385b      	subs	r0, #91	; 0x5b
    176c:	5b5d      	ldrh	r5, [r3, r5]
    176e:	5d37      	ldrb	r7, [r6, r4]
    1770:	203a      	movs	r0, #58	; 0x3a
    1772:	2020      	movs	r0, #32
    1774:	2520      	movs	r5, #32
    1776:	0a64      	lsrs	r4, r4, #9
    1778:	0000      	movs	r0, r0
    177a:	0000      	movs	r0, r0
    177c:	2020      	movs	r0, #32
    177e:	2020      	movs	r0, #32
    1780:	2020      	movs	r0, #32
    1782:	2020      	movs	r0, #32
    1784:	6873      	ldr	r3, [r6, #4]
    1786:	756f      	strb	r7, [r5, #21]
    1788:	646c      	str	r4, [r5, #68]	; 0x44
    178a:	6220      	str	r0, [r4, #32]
    178c:	3a65      	subs	r2, #101	; 0x65
    178e:	2020      	movs	r0, #32
    1790:	4e20      	ldr	r6, [pc, #128]	; (0x1814)
    1792:	6d75      	ldr	r5, [r6, #84]	; 0x54
    1794:	6562      	str	r2, [r4, #84]	; 0x54
    1796:	5f72      	ldrsh	r2, [r6, r5]
    1798:	664f      	str	r7, [r1, #100]	; 0x64
    179a:	525f      	strh	r7, [r3, r1]
    179c:	6e75      	ldr	r5, [r6, #100]	; 0x64
    179e:	2073      	movs	r0, #115	; 0x73
    17a0:	202b      	movs	r0, #43	; 0x2b
    17a2:	3031      	adds	r0, #49	; 0x31
    17a4:	000a      	movs	r2, r1
    17a6:	0000      	movs	r0, r0
    17a8:	7450      	strb	r0, [r2, #17]
    17aa:	5f72      	ldrsh	r2, [r6, r5]
    17ac:	6c47      	ldr	r7, [r0, #68]	; 0x44
    17ae:	626f      	str	r7, [r5, #36]	; 0x24
    17b0:	3e2d      	subs	r6, #45	; 0x2d
    17b2:	6944      	ldr	r4, [r0, #20]
    17b4:	6373      	str	r3, [r6, #52]	; 0x34
    17b6:	3a72      	subs	r2, #114	; 0x72
    17b8:	2020      	movs	r0, #32
    17ba:	2020      	movs	r0, #32
    17bc:	2020      	movs	r0, #32
    17be:	2020      	movs	r0, #32
    17c0:	2020      	movs	r0, #32
    17c2:	2020      	movs	r0, #32
    17c4:	2520      	movs	r5, #32
    17c6:	0a64      	lsrs	r4, r4, #9
    17c8:	0000      	movs	r0, r0
    17ca:	0000      	movs	r0, r0
    17cc:	7450      	strb	r0, [r2, #17]
    17ce:	5f72      	ldrsh	r2, [r6, r5]
    17d0:	6c47      	ldr	r7, [r0, #68]	; 0x44
    17d2:	626f      	str	r7, [r5, #36]	; 0x24
    17d4:	3e2d      	subs	r6, #45	; 0x2d
    17d6:	6e45      	ldr	r5, [r0, #100]	; 0x64
    17d8:	6d75      	ldr	r5, [r6, #84]	; 0x54
    17da:	435f      	muls	r7, r3
    17dc:	6d6f      	ldr	r7, [r5, #84]	; 0x54
    17de:	3a70      	subs	r2, #112	; 0x70
    17e0:	2020      	movs	r0, #32
    17e2:	2020      	movs	r0, #32
    17e4:	2020      	movs	r0, #32
    17e6:	2020      	movs	r0, #32
    17e8:	2520      	movs	r5, #32
    17ea:	0a64      	lsrs	r4, r4, #9
    17ec:	0000      	movs	r0, r0
    17ee:	0000      	movs	r0, r0
    17f0:	7450      	strb	r0, [r2, #17]
    17f2:	5f72      	ldrsh	r2, [r6, r5]
    17f4:	6c47      	ldr	r7, [r0, #68]	; 0x44
    17f6:	626f      	str	r7, [r5, #36]	; 0x24
    17f8:	3e2d      	subs	r6, #45	; 0x2d
    17fa:	6e49      	ldr	r1, [r1, #100]	; 0x64
    17fc:	5f74      	ldrsh	r4, [r6, r5]
    17fe:	6f43      	ldr	r3, [r0, #116]	; 0x74
    1800:	706d      	strb	r5, [r5, #1]
    1802:	203a      	movs	r0, #58	; 0x3a
    1804:	2020      	movs	r0, #32
    1806:	2020      	movs	r0, #32
    1808:	2020      	movs	r0, #32
    180a:	2020      	movs	r0, #32
    180c:	2520      	movs	r5, #32
    180e:	0a64      	lsrs	r4, r4, #9
    1810:	0000      	movs	r0, r0
    1812:	0000      	movs	r0, r0
    1814:	7450      	strb	r0, [r2, #17]
    1816:	5f72      	ldrsh	r2, [r6, r5]
    1818:	6c47      	ldr	r7, [r0, #68]	; 0x44
    181a:	626f      	str	r7, [r5, #36]	; 0x24
    181c:	3e2d      	subs	r6, #45	; 0x2d
    181e:	7453      	strb	r3, [r2, #17]
    1820:	5f72      	ldrsh	r2, [r6, r5]
    1822:	6f43      	ldr	r3, [r0, #116]	; 0x74
    1824:	706d      	strb	r5, [r5, #1]
    1826:	203a      	movs	r0, #58	; 0x3a
    1828:	2020      	movs	r0, #32
    182a:	2020      	movs	r0, #32
    182c:	2020      	movs	r0, #32
    182e:	2020      	movs	r0, #32
    1830:	2520      	movs	r5, #32
    1832:	0a73      	lsrs	r3, r6, #9
    1834:	0000      	movs	r0, r0
    1836:	0000      	movs	r0, r0
    1838:	2020      	movs	r0, #32
    183a:	2020      	movs	r0, #32
    183c:	2020      	movs	r0, #32
    183e:	2020      	movs	r0, #32
    1840:	6873      	ldr	r3, [r6, #4]
    1842:	756f      	strb	r7, [r5, #21]
    1844:	646c      	str	r4, [r5, #68]	; 0x44
    1846:	6220      	str	r0, [r4, #32]
    1848:	3a65      	subs	r2, #101	; 0x65
    184a:	2020      	movs	r0, #32
    184c:	4420      	add	r0, r4
    184e:	5248      	strh	r0, [r1, r1]
    1850:	5359      	strh	r1, [r3, r5]
    1852:	4f54      	ldr	r7, [pc, #336]	; (0x19a4)
    1854:	454e      	cmp	r6, r9
    1856:	5020      	str	r0, [r4, r0]
    1858:	4f52      	ldr	r7, [pc, #328]	; (0x19a4)
    185a:	5247      	strh	r7, [r0, r1]
    185c:	4d41      	ldr	r5, [pc, #260]	; (0x1964)
    185e:	202c      	movs	r0, #44	; 0x2c
    1860:	4f53      	ldr	r7, [pc, #332]	; (0x19b0)
    1862:	454d      	cmp	r5, r9
    1864:	5320      	strh	r0, [r4, r4]
    1866:	5254      	strh	r4, [r2, r1]
    1868:	4e49      	ldr	r6, [pc, #292]	; (0x1990)
    186a:	0a47      	lsrs	r7, r0, #9
    186c:	0000      	movs	r0, r0
    186e:	0000      	movs	r0, r0
    1870:	654e      	str	r6, [r1, #84]	; 0x54
    1872:	7478      	strb	r0, [r7, #17]
    1874:	505f      	str	r7, [r3, r1]
    1876:	7274      	strb	r4, [r6, #9]
    1878:	475f      	bx	fp
    187a:	6f6c      	ldr	r4, [r5, #116]	; 0x74
    187c:	2d62      	cmp	r5, #98	; 0x62
    187e:	443e      	add	r6, r7
    1880:	7369      	strb	r1, [r5, #13]
    1882:	7263      	strb	r3, [r4, #9]
    1884:	203a      	movs	r0, #58	; 0x3a
    1886:	2020      	movs	r0, #32
    1888:	2020      	movs	r0, #32
    188a:	2020      	movs	r0, #32
    188c:	2020      	movs	r0, #32
    188e:	2020      	movs	r0, #32
    1890:	2020      	movs	r0, #32
    1892:	6425      	str	r5, [r4, #64]	; 0x40
    1894:	000a      	movs	r2, r1
    1896:	0000      	movs	r0, r0
    1898:	654e      	str	r6, [r1, #84]	; 0x54
    189a:	7478      	strb	r0, [r7, #17]
    189c:	505f      	str	r7, [r3, r1]
    189e:	7274      	strb	r4, [r6, #9]
    18a0:	475f      	bx	fp
    18a2:	6f6c      	ldr	r4, [r5, #116]	; 0x74
    18a4:	2d62      	cmp	r5, #98	; 0x62
    18a6:	453e      	cmp	r6, r7
    18a8:	756e      	strb	r6, [r5, #21]
    18aa:	5f6d      	ldrsh	r5, [r5, r5]
    18ac:	6f43      	ldr	r3, [r0, #116]	; 0x74
    18ae:	706d      	strb	r5, [r5, #1]
    18b0:	203a      	movs	r0, #58	; 0x3a
    18b2:	2020      	movs	r0, #32
    18b4:	2020      	movs	r0, #32
    18b6:	2020      	movs	r0, #32
    18b8:	2020      	movs	r0, #32
    18ba:	6425      	str	r5, [r4, #64]	; 0x40
    18bc:	000a      	movs	r2, r1
    18be:	0000      	movs	r0, r0
    18c0:	654e      	str	r6, [r1, #84]	; 0x54
    18c2:	7478      	strb	r0, [r7, #17]
    18c4:	505f      	str	r7, [r3, r1]
    18c6:	7274      	strb	r4, [r6, #9]
    18c8:	475f      	bx	fp
    18ca:	6f6c      	ldr	r4, [r5, #116]	; 0x74
    18cc:	2d62      	cmp	r5, #98	; 0x62
    18ce:	493e      	ldr	r1, [pc, #248]	; (0x19c8)
    18d0:	746e      	strb	r6, [r5, #17]
    18d2:	435f      	muls	r7, r3
    18d4:	6d6f      	ldr	r7, [r5, #84]	; 0x54
    18d6:	3a70      	subs	r2, #112	; 0x70
    18d8:	2020      	movs	r0, #32
    18da:	2020      	movs	r0, #32
    18dc:	2020      	movs	r0, #32
    18de:	2020      	movs	r0, #32
    18e0:	2020      	movs	r0, #32
    18e2:	6425      	str	r5, [r4, #64]	; 0x40
    18e4:	000a      	movs	r2, r1
    18e6:	0000      	movs	r0, r0
    18e8:	654e      	str	r6, [r1, #84]	; 0x54
    18ea:	7478      	strb	r0, [r7, #17]
    18ec:	505f      	str	r7, [r3, r1]
    18ee:	7274      	strb	r4, [r6, #9]
    18f0:	475f      	bx	fp
    18f2:	6f6c      	ldr	r4, [r5, #116]	; 0x74
    18f4:	2d62      	cmp	r5, #98	; 0x62
    18f6:	533e      	strh	r6, [r7, r4]
    18f8:	7274      	strb	r4, [r6, #9]
    18fa:	435f      	muls	r7, r3
    18fc:	6d6f      	ldr	r7, [r5, #84]	; 0x54
    18fe:	3a70      	subs	r2, #112	; 0x70
    1900:	2020      	movs	r0, #32
    1902:	2020      	movs	r0, #32
    1904:	2020      	movs	r0, #32
    1906:	2020      	movs	r0, #32
    1908:	2020      	movs	r0, #32
    190a:	7325      	strb	r5, [r4, #12]
    190c:	000a      	movs	r2, r1
    190e:	0000      	movs	r0, r0
    1910:	6e49      	ldr	r1, [r1, #100]	; 0x64
    1912:	5f74      	ldrsh	r4, [r6, r5]
    1914:	5f31      	ldrsh	r1, [r6, r4]
    1916:	6f4c      	ldr	r4, [r1, #116]	; 0x74
    1918:	3a63      	subs	r2, #99	; 0x63
    191a:	2020      	movs	r0, #32
    191c:	2020      	movs	r0, #32
    191e:	2020      	movs	r0, #32
    1920:	2020      	movs	r0, #32
    1922:	2020      	movs	r0, #32
    1924:	2520      	movs	r5, #32
    1926:	0a64      	lsrs	r4, r4, #9
    1928:	0000      	movs	r0, r0
    192a:	0000      	movs	r0, r0
    192c:	6e49      	ldr	r1, [r1, #100]	; 0x64
    192e:	5f74      	ldrsh	r4, [r6, r5]
    1930:	5f32      	ldrsh	r2, [r6, r4]
    1932:	6f4c      	ldr	r4, [r1, #116]	; 0x74
    1934:	3a63      	subs	r2, #99	; 0x63
    1936:	2020      	movs	r0, #32
    1938:	2020      	movs	r0, #32
    193a:	2020      	movs	r0, #32
    193c:	2020      	movs	r0, #32
    193e:	2020      	movs	r0, #32
    1940:	2520      	movs	r5, #32
    1942:	0a64      	lsrs	r4, r4, #9
    1944:	0000      	movs	r0, r0
    1946:	0000      	movs	r0, r0
    1948:	6e45      	ldr	r5, [r0, #100]	; 0x64
    194a:	6d75      	ldr	r5, [r6, #84]	; 0x54
    194c:	4c5f      	ldr	r4, [pc, #380]	; (0x1acc)
    194e:	636f      	str	r7, [r5, #52]	; 0x34
    1950:	203a      	movs	r0, #58	; 0x3a
    1952:	2020      	movs	r0, #32
    1954:	2020      	movs	r0, #32
    1956:	2020      	movs	r0, #32
    1958:	2020      	movs	r0, #32
    195a:	2020      	movs	r0, #32
    195c:	2520      	movs	r5, #32
    195e:	0a64      	lsrs	r4, r4, #9
    1960:	0000      	movs	r0, r0
    1962:	0000      	movs	r0, r0
    1964:	4844      	ldr	r0, [pc, #272]	; (0x1a78)
    1966:	5952      	ldr	r2, [r2, r5]
    1968:	5453      	strb	r3, [r2, r1]
    196a:	4e4f      	ldr	r6, [pc, #316]	; (0x1aa8)
    196c:	2045      	movs	r0, #69	; 0x45
    196e:	5250      	strh	r0, [r2, r1]
    1970:	474f      	bx	r9
    1972:	4152      	adcs	r2, r2
    1974:	2c4d      	cmp	r4, #77	; 0x4d
    1976:	3120      	adds	r1, #32
    1978:	5327      	strh	r7, [r4, r4]
    197a:	2054      	movs	r0, #84	; 0x54
    197c:	5453      	strb	r3, [r2, r1]
    197e:	4952      	ldr	r1, [pc, #328]	; (0x1ac8)
    1980:	474e      	bx	r9
    1982:	0000      	movs	r0, r0
    1984:	7453      	strb	r3, [r2, #17]
    1986:	5f72      	ldrsh	r2, [r6, r5]
    1988:	5f31      	ldrsh	r1, [r6, r4]
    198a:	6f4c      	ldr	r4, [r1, #116]	; 0x74
    198c:	3a63      	subs	r2, #99	; 0x63
    198e:	2020      	movs	r0, #32
    1990:	2020      	movs	r0, #32
    1992:	2020      	movs	r0, #32
    1994:	2020      	movs	r0, #32
    1996:	2020      	movs	r0, #32
    1998:	2520      	movs	r5, #32
    199a:	0a73      	lsrs	r3, r6, #9
    199c:	0000      	movs	r0, r0
    199e:	0000      	movs	r0, r0
    19a0:	2020      	movs	r0, #32
    19a2:	2020      	movs	r0, #32
    19a4:	2020      	movs	r0, #32
    19a6:	2020      	movs	r0, #32
    19a8:	6873      	ldr	r3, [r6, #4]
    19aa:	756f      	strb	r7, [r5, #21]
    19ac:	646c      	str	r4, [r5, #68]	; 0x44
    19ae:	6220      	str	r0, [r4, #32]
    19b0:	3a65      	subs	r2, #101	; 0x65
    19b2:	2020      	movs	r0, #32
    19b4:	4420      	add	r0, r4
    19b6:	5248      	strh	r0, [r1, r1]
    19b8:	5359      	strh	r1, [r3, r5]
    19ba:	4f54      	ldr	r7, [pc, #336]	; (0x1b0c)
    19bc:	454e      	cmp	r6, r9
    19be:	5020      	str	r0, [r4, r0]
    19c0:	4f52      	ldr	r7, [pc, #328]	; (0x1b0c)
    19c2:	5247      	strh	r7, [r0, r1]
    19c4:	4d41      	ldr	r5, [pc, #260]	; (0x1acc)
    19c6:	202c      	movs	r0, #44	; 0x2c
    19c8:	2731      	movs	r7, #49	; 0x31
    19ca:	5453      	strb	r3, [r2, r1]
    19cc:	5320      	strh	r0, [r4, r4]
    19ce:	5254      	strh	r4, [r2, r1]
    19d0:	4e49      	ldr	r6, [pc, #292]	; (0x1af8)
    19d2:	0a47      	lsrs	r7, r0, #9
    19d4:	0000      	movs	r0, r0
    19d6:	0000      	movs	r0, r0
    19d8:	4844      	ldr	r0, [pc, #272]	; (0x1aec)
    19da:	5952      	ldr	r2, [r2, r5]
    19dc:	5453      	strb	r3, [r2, r1]
    19de:	4e4f      	ldr	r6, [pc, #316]	; (0x1b1c)
    19e0:	2045      	movs	r0, #69	; 0x45
    19e2:	5250      	strh	r0, [r2, r1]
    19e4:	474f      	bx	r9
    19e6:	4152      	adcs	r2, r2
    19e8:	2c4d      	cmp	r4, #77	; 0x4d
    19ea:	3220      	adds	r2, #32
    19ec:	4e27      	ldr	r6, [pc, #156]	; (0x1a8c)
    19ee:	2044      	movs	r0, #68	; 0x44
    19f0:	5453      	strb	r3, [r2, r1]
    19f2:	4952      	ldr	r1, [pc, #328]	; (0x1b3c)
    19f4:	474e      	bx	r9
    19f6:	0000      	movs	r0, r0
    19f8:	7453      	strb	r3, [r2, #17]
    19fa:	5f72      	ldrsh	r2, [r6, r5]
    19fc:	5f32      	ldrsh	r2, [r6, r4]
    19fe:	6f4c      	ldr	r4, [r1, #116]	; 0x74
    1a00:	3a63      	subs	r2, #99	; 0x63
    1a02:	2020      	movs	r0, #32
    1a04:	2020      	movs	r0, #32
    1a06:	2020      	movs	r0, #32
    1a08:	2020      	movs	r0, #32
    1a0a:	2020      	movs	r0, #32
    1a0c:	2520      	movs	r5, #32
    1a0e:	0a73      	lsrs	r3, r6, #9
    1a10:	0000      	movs	r0, r0
    1a12:	0000      	movs	r0, r0
    1a14:	2020      	movs	r0, #32
    1a16:	2020      	movs	r0, #32
    1a18:	2020      	movs	r0, #32
    1a1a:	2020      	movs	r0, #32
    1a1c:	6873      	ldr	r3, [r6, #4]
    1a1e:	756f      	strb	r7, [r5, #21]
    1a20:	646c      	str	r4, [r5, #68]	; 0x44
    1a22:	6220      	str	r0, [r4, #32]
    1a24:	3a65      	subs	r2, #101	; 0x65
    1a26:	2020      	movs	r0, #32
    1a28:	4420      	add	r0, r4
    1a2a:	5248      	strh	r0, [r1, r1]
    1a2c:	5359      	strh	r1, [r3, r5]
    1a2e:	4f54      	ldr	r7, [pc, #336]	; (0x1b80)
    1a30:	454e      	cmp	r6, r9
    1a32:	5020      	str	r0, [r4, r0]
    1a34:	4f52      	ldr	r7, [pc, #328]	; (0x1b80)
    1a36:	5247      	strh	r7, [r0, r1]
    1a38:	4d41      	ldr	r5, [pc, #260]	; (0x1b40)
    1a3a:	202c      	movs	r0, #44	; 0x2c
    1a3c:	2732      	movs	r7, #50	; 0x32
    1a3e:	444e      	add	r6, r9
    1a40:	5320      	strh	r0, [r4, r4]
    1a42:	5254      	strh	r4, [r2, r1]
    1a44:	4e49      	ldr	r6, [pc, #292]	; (0x1b6c)
    1a46:	0a47      	lsrs	r7, r0, #9
    1a48:	0000      	movs	r0, r0
    1a4a:	0000      	movs	r0, r0
    1a4c:	6946      	ldr	r6, [r0, #20]
    1a4e:	696e      	ldr	r6, [r5, #20]
    1a50:	6873      	ldr	r3, [r6, #4]
    1a52:	6465      	str	r5, [r4, #68]	; 0x44
    1a54:	6920      	ldr	r0, [r4, #16]
    1a56:	206e      	movs	r0, #110	; 0x6e
    1a58:	6425      	str	r5, [r4, #64]	; 0x40
    1a5a:	6d20      	ldr	r0, [r4, #80]	; 0x50
    1a5c:	0a73      	lsrs	r3, r6, #9
    1a5e:	0000      	movs	r0, r0
    1a60:	3d3d      	subs	r5, #61	; 0x3d
    1a62:	3d3d      	subs	r5, #61	; 0x3d
    1a64:	3d3d      	subs	r5, #61	; 0x3d
    1a66:	3d3d      	subs	r5, #61	; 0x3d
    1a68:	3d3d      	subs	r5, #61	; 0x3d
    1a6a:	3d3d      	subs	r5, #61	; 0x3d
    1a6c:	3d3d      	subs	r5, #61	; 0x3d
    1a6e:	3d3d      	subs	r5, #61	; 0x3d
    1a70:	3d3d      	subs	r5, #61	; 0x3d
    1a72:	3d3d      	subs	r5, #61	; 0x3d
    1a74:	3d3d      	subs	r5, #61	; 0x3d
    1a76:	3d3d      	subs	r5, #61	; 0x3d
    1a78:	3d3d      	subs	r5, #61	; 0x3d
    1a7a:	3d3d      	subs	r5, #61	; 0x3d
    1a7c:	3d3d      	subs	r5, #61	; 0x3d
    1a7e:	3d3d      	subs	r5, #61	; 0x3d
    1a80:	3d3d      	subs	r5, #61	; 0x3d
    1a82:	3d3d      	subs	r5, #61	; 0x3d
    1a84:	3d3d      	subs	r5, #61	; 0x3d
    1a86:	3d3d      	subs	r5, #61	; 0x3d
    1a88:	3d3d      	subs	r5, #61	; 0x3d
    1a8a:	3d3d      	subs	r5, #61	; 0x3d
    1a8c:	3d3d      	subs	r5, #61	; 0x3d
    1a8e:	3d3d      	subs	r5, #61	; 0x3d
    1a90:	3d3d      	subs	r5, #61	; 0x3d
    1a92:	000a      	movs	r2, r1
    1a94:	6844      	ldr	r4, [r0, #4]
    1a96:	7972      	ldrb	r2, [r6, #5]
    1a98:	7473      	strb	r3, [r6, #17]
    1a9a:	6e6f      	ldr	r7, [r5, #100]	; 0x64
    1a9c:	2065      	movs	r0, #101	; 0x65
    1a9e:	7325      	strb	r5, [r4, #12]
    1aa0:	2020      	movs	r0, #32
    1aa2:	2020      	movs	r0, #32
    1aa4:	2020      	movs	r0, #32
    1aa6:	2020      	movs	r0, #32
    1aa8:	2520      	movs	r5, #32
    1aaa:	2064      	movs	r0, #100	; 0x64
    1aac:	614d      	str	r5, [r1, #20]
    1aae:	6b72      	ldr	r2, [r6, #52]	; 0x34
    1ab0:	0a73      	lsrs	r3, r6, #9
    1ab2:	0000      	movs	r0, r0
    1ab4:	2020      	movs	r0, #32
    1ab6:	2020      	movs	r0, #32
    1ab8:	2020      	movs	r0, #32
    1aba:	2020      	movs	r0, #32
    1abc:	2020      	movs	r0, #32
    1abe:	2020      	movs	r0, #32
    1ac0:	2020      	movs	r0, #32
    1ac2:	2020      	movs	r0, #32
    1ac4:	2020      	movs	r0, #32
    1ac6:	7620      	strb	r0, [r4, #24]
    1ac8:	2e73      	cmp	r6, #115	; 0x73
    1aca:	3120      	adds	r1, #32
    1acc:	3030      	adds	r0, #48	; 0x30
    1ace:	3030      	adds	r0, #48	; 0x30
    1ad0:	2030      	movs	r0, #48	; 0x30
    1ad2:	614d      	str	r5, [r1, #20]
    1ad4:	6b72      	ldr	r2, [r6, #52]	; 0x34
    1ad6:	2073      	movs	r0, #115	; 0x73
    1ad8:	6928      	ldr	r0, [r5, #16]
    1ada:	2d37      	cmp	r5, #55	; 0x37
    1adc:	3736      	adds	r7, #54	; 0x36
    1ade:	3030      	adds	r0, #48	; 0x30
    1ae0:	4020      	ands	r0, r4
    1ae2:	3320      	adds	r3, #32
    1ae4:	342e      	adds	r4, #46	; 0x2e
    1ae6:	4730      	bx	r6
    1ae8:	7a48      	ldrb	r0, [r1, #9]
    1aea:	0a29      	lsrs	r1, r5, #8
    1aec:	0000      	movs	r0, r0
    1aee:	0000      	movs	r0, r0
    1af0:	4844      	ldr	r0, [pc, #272]	; (0x1c04)
    1af2:	5952      	ldr	r2, [r2, r5]
    1af4:	5453      	strb	r3, [r2, r1]
    1af6:	4e4f      	ldr	r6, [pc, #316]	; (0x1c34)
    1af8:	2045      	movs	r0, #69	; 0x45
    1afa:	5250      	strh	r0, [r2, r1]
    1afc:	474f      	bx	r9
    1afe:	4152      	adcs	r2, r2
    1b00:	2c4d      	cmp	r4, #77	; 0x4d
    1b02:	3320      	adds	r3, #32
    1b04:	5227      	strh	r7, [r4, r0]
    1b06:	2044      	movs	r0, #68	; 0x44
    1b08:	5453      	strb	r3, [r2, r1]
    1b0a:	4952      	ldr	r1, [pc, #328]	; (0x1c54)
    1b0c:	474e      	bx	r9
    1b0e:	0000      	movs	r0, r0
    1b10:	0000      	movs	r0, r0
    1b12:	0000      	movs	r0, r0
    1b14:	0001      	movs	r1, r0
    1b16:	0000      	movs	r0, r0
    1b18:	0080      	lsls	r0, r0, #2
    1b1a:	0300      	lsls	r0, r0, #12
    1b1c:	0c41      	lsrs	r1, r0, #17
    1b1e:	0800      	lsrs	r0, r0, #32
    1b20:	0c11      	lsrs	r1, r2, #16
    1b22:	0800      	lsrs	r0, r0, #32
    1b24:	6b64      	ldr	r4, [r4, #52]	; 0x34
    1b26:	5241      	strh	r1, [r0, r1]
    1b28:	004d      	lsls	r5, r1, #1
	...
