
test.gba:     file format binary


Disassembly of section .data:

00000000 <.data>:
       0:	ea00002e 	b	0xc0
	...
      b0:	00963130 	addseq	r3, r6, r0, lsr r1
	...
      bc:	0000f000 	andeq	pc, r0, r0
      c0:	ea000006 	b	0xe0
	...
      e0:	e3a00301 	mov	r0, #67108864	; 0x4000000
      e4:	e5800208 	str	r0, [r0, #520]	; 0x208
      e8:	e3a00012 	mov	r0, #18
      ec:	e129f000 	msr	CPSR_fc, r0
      f0:	e59fd0b8 	ldr	sp, [pc, #184]	; 0x1b0
      f4:	e3a0001f 	mov	r0, #31
      f8:	e129f000 	msr	CPSR_fc, r0
      fc:	e59fd0b0 	ldr	sp, [pc, #176]	; 0x1b4
     100:	e28f0001 	add	r0, pc, #1
     104:	e12fff10 	bx	r0
     108:	0140482b 	cmpeq	r0, fp, lsr #16
     10c:	4678d20b 	ldrbtmi	sp, [r8], -fp, lsl #4
     110:	d30d0140 	tstle	sp, #64, 2
     114:	06122202 	ldreq	r2, [r2], -r2, lsl #4
     118:	1a9b4b28 	bne	0xfe6d2dc0
     11c:	00911c16 	addseq	r1, r1, r6, lsl ip
     120:	f83cf000 			; <UNDEFINED> instruction: 0xf83cf000
     124:	21404730 	cmpcs	r0, r0, lsr r7
     128:	01c80309 	biceq	r0, r8, r9, lsl #6
     12c:	f82bf000 			; <UNDEFINED> instruction: 0xf82bf000
     130:	49244823 	stmdbmi	r4!, {r0, r1, r5, fp, lr}
     134:	f0001a09 			; <UNDEFINED> instruction: 0xf0001a09
     138:	4823f826 	stmdami	r3!, {r1, r2, r5, fp, ip, sp, lr, pc}
     13c:	1a094923 	bne	0x2525d0
     140:	f821f000 			; <UNDEFINED> instruction: 0xf821f000
     144:	4a234922 	bmi	0x8d25d4
     148:	f0004c23 			; <UNDEFINED> instruction: 0xf0004c23
     14c:	4923f826 	stmdbmi	r3!, {r1, r2, r5, fp, ip, sp, lr, pc}
     150:	4c244a23 			; <UNDEFINED> instruction: 0x4c244a23
     154:	f821f000 			; <UNDEFINED> instruction: 0xf821f000
     158:	49244a23 	stmdbmi	r4!, {r0, r1, r5, r9, fp, lr}
     15c:	d0021a53 	andle	r1, r2, r3, asr sl
     160:	f0004a23 			; <UNDEFINED> instruction: 0xf0004a23
     164:	4923f81b 	stmdbmi	r3!, {r0, r1, r3, r4, fp, ip, sp, lr, pc}
     168:	4c244a23 			; <UNDEFINED> instruction: 0x4c244a23
     16c:	f815f000 			; <UNDEFINED> instruction: 0xf815f000
     170:	48244923 	stmdami	r4!, {r0, r1, r5, r8, fp, lr}
     174:	4b246008 	blmi	0x91819c
     178:	f80ef000 			; <UNDEFINED> instruction: 0xf80ef000
     17c:	21002000 	mrscs	r2, (UNDEF: 0)
     180:	f0004b22 			; <UNDEFINED> instruction: 0xf0004b22
     184:	2203f809 	andcs	pc, r3, #589824	; 0x90000
     188:	43911889 	orrsmi	r1, r1, #8978432	; 0x890000
     18c:	2200d003 	andcs	sp, r0, #3
     190:	3904c004 	stmdbcc	r4, {r2, lr, pc}
     194:	4770d1fc 			; <UNDEFINED> instruction: 0x4770d1fc
     198:	1aa34718 	bne	0xfe8d1e00
     19c:	181b2003 	ldmdane	fp, {r0, r1, sp}
     1a0:	d0034383 	andle	r4, r3, r3, lsl #7
     1a4:	c201c901 	andgt	ip, r1, #16384	; 0x4000
     1a8:	d1fb3b04 	mvnsle	r3, r4, lsl #22
     1ac:	46c04770 			; <UNDEFINED> instruction: 0x46c04770
     1b0:	03007fa0 	tsteq	r0, #160, 30	; 0x280
     1b4:	03007f00 	tsteq	r0, #0, 30
     1b8:	08000000 	stmdaeq	r0, {}	; <UNPREDICTABLE>
     1bc:	02000000 	andeq	r0, r0, #0
     1c0:	03000000 	tsteq	r0, #0
     1c4:	03000168 	tsteq	r0, #104, 2
     1c8:	02000000 	andeq	r0, r0, #0
     1cc:	02000000 	andeq	r0, r0, #0
     1d0:	08006a4c 	stmdaeq	r0, {r2, r3, r6, r9, fp, sp, lr}
     1d4:	03000168 	tsteq	r0, #104, 2
     1d8:	03000860 	tsteq	r0, #96, 16	; 0x600000
     1dc:	08006a4c 	stmdaeq	r0, {r2, r3, r6, r9, fp, sp, lr}
     1e0:	03000000 	tsteq	r0, #0
     1e4:	03000000 	tsteq	r0, #0
     1e8:	08007144 	stmdaeq	r0, {r2, r6, r8, ip, sp, lr}
     1ec:	08007144 	stmdaeq	r0, {r2, r6, r8, ip, sp, lr}
     1f0:	03000860 	tsteq	r0, #96, 16	; 0x600000
     1f4:	08007144 	stmdaeq	r0, {r2, r6, r8, ip, sp, lr}
     1f8:	02000000 	andeq	r0, r0, #0
     1fc:	02000000 	andeq	r0, r0, #0
     200:	03000108 	tsteq	r0, #8, 2
     204:	02040000 	andeq	r0, r4, #0
     208:	08006194 	stmdaeq	r0, {r2, r4, r7, r8, sp, lr}
     20c:	08004988 	stmdaeq	r0, {r3, r7, r8, fp, lr}
     210:	e1a0c00d 	mov	ip, sp
     214:	e92ddff8 	push	{r3, r4, r5, r6, r7, r8, r9, sl, fp, ip, lr, pc}
     218:	e24cb004 	sub	fp, ip, #4
     21c:	e24bd028 	sub	sp, fp, #40	; 0x28
     220:	e89d6ff0 	ldm	sp, {r4, r5, r6, r7, r8, r9, sl, fp, sp, lr}
     224:	e12fff1e 	bx	lr
     228:	e3500000 	cmp	r0, #0
     22c:	112fff1e 	bxne	lr
     230:	e3a03301 	mov	r3, #67108864	; 0x4000000
     234:	e3a0c003 	mov	ip, #3
     238:	e3a00004 	mov	r0, #4
     23c:	e3a02406 	mov	r2, #100663296	; 0x6000000
     240:	e3a0101f 	mov	r1, #31
     244:	e5c3c000 	strb	ip, [r3]
     248:	e5c30001 	strb	r0, [r3, #1]
     24c:	e1c210b0 	strh	r1, [r2]
     250:	eafffffe 	b	0x250
     254:	e12fff1e 	bx	lr
     258:	e59f201c 	ldr	r2, [pc, #28]	; 0x27c
     25c:	e59f301c 	ldr	r3, [pc, #28]	; 0x280
     260:	e5922000 	ldr	r2, [r2]
     264:	e5933000 	ldr	r3, [r3]
     268:	e592000c 	ldr	r0, [r2, #12]
     26c:	e0403003 	sub	r3, r0, r3
     270:	e2730000 	rsbs	r0, r3, #0
     274:	e0a00003 	adc	r0, r0, r3
     278:	e12fff1e 	bx	lr
     27c:	03000158 	tsteq	r0, #88, 2
     280:	0300001c 	tsteq	r0, #28
     284:	e92d4ff0 	push	{r4, r5, r6, r7, r8, r9, sl, fp, lr}
     288:	e24dd0b4 	sub	sp, sp, #180	; 0xb4
     28c:	e28d0028 	add	r0, sp, #40	; 0x28
     290:	eb001041 	bl	0x439c
     294:	e59f3aa4 	ldr	r3, [pc, #2724]	; 0xd40
     298:	e5933000 	ldr	r3, [r3]
     29c:	e5933000 	ldr	r3, [r3]
     2a0:	e3530000 	cmp	r3, #0
     2a4:	e28d3070 	add	r3, sp, #112	; 0x70
     2a8:	e1a04003 	mov	r4, r3
     2ac:	e58d3000 	str	r3, [sp]
     2b0:	e1a00003 	mov	r0, r3
     2b4:	1a00027c 	bne	0xcac
     2b8:	e59f1a84 	ldr	r1, [pc, #2692]	; 0xd44
     2bc:	eb001089 	bl	0x44e8
     2c0:	e1a03004 	mov	r3, r4
     2c4:	e59d1084 	ldr	r1, [sp, #132]	; 0x84
     2c8:	e59d0070 	ldr	r0, [sp, #112]	; 0x70
     2cc:	e58d103c 	str	r1, [sp, #60]	; 0x3c
     2d0:	e58d0028 	str	r0, [sp, #40]	; 0x28
     2d4:	e5dd1070 	ldrb	r1, [sp, #112]	; 0x70
     2d8:	e28d2028 	add	r2, sp, #40	; 0x28
     2dc:	e28d5080 	add	r5, sp, #128	; 0x80
     2e0:	e5d34004 	ldrb	r4, [r3, #4]
     2e4:	e5d3e005 	ldrb	lr, [r3, #5]
     2e8:	e5d3c006 	ldrb	ip, [r3, #6]
     2ec:	e5d30007 	ldrb	r0, [r3, #7]
     2f0:	e2833004 	add	r3, r3, #4
     2f4:	e1550003 	cmp	r5, r3
     2f8:	e5c24004 	strb	r4, [r2, #4]
     2fc:	e5c2e005 	strb	lr, [r2, #5]
     300:	e5c2c006 	strb	ip, [r2, #6]
     304:	e5c20007 	strb	r0, [r2, #7]
     308:	e2822004 	add	r2, r2, #4
     30c:	1afffff3 	bne	0x2e0
     310:	e3510000 	cmp	r1, #0
     314:	01a00001 	moveq	r0, r1
     318:	0a00002b 	beq	0x3cc
     31c:	e3a0e010 	mov	lr, #16
     320:	e59dc000 	ldr	ip, [sp]
     324:	e28d40b0 	add	r4, sp, #176	; 0xb0
     328:	e28d0030 	add	r0, sp, #48	; 0x30
     32c:	e1a0200c 	mov	r2, ip
     330:	e2403004 	sub	r3, r0, #4
     334:	e0d310d1 	ldrsb	r1, [r3], #1
     338:	e3510000 	cmp	r1, #0
     33c:	0582e000 	streq	lr, [r2]
     340:	15821000 	strne	r1, [r2]
     344:	e1500003 	cmp	r0, r3
     348:	e2822004 	add	r2, r2, #4
     34c:	1afffff8 	bne	0x334
     350:	e28cc010 	add	ip, ip, #16
     354:	e154000c 	cmp	r4, ip
     358:	e2800004 	add	r0, r0, #4
     35c:	1afffff2 	bne	0x32c
     360:	e3a0c001 	mov	ip, #1
     364:	e3a00000 	mov	r0, #0
     368:	e1a0300c 	mov	r3, ip
     36c:	e59d1070 	ldr	r1, [sp, #112]	; 0x70
     370:	e28d20b0 	add	r2, sp, #176	; 0xb0
     374:	e0822103 	add	r2, r2, r3, lsl #2
     378:	e5122040 	ldr	r2, [r2, #-64]	; 0xffffffc0
     37c:	e2833001 	add	r3, r3, #1
     380:	e1520001 	cmp	r2, r1
     384:	b2800001 	addlt	r0, r0, #1
     388:	e3530010 	cmp	r3, #16
     38c:	1afffff7 	bne	0x370
     390:	e28c3001 	add	r3, ip, #1
     394:	e3530010 	cmp	r3, #16
     398:	0a000004 	beq	0x3b0
     39c:	e28d20b0 	add	r2, sp, #176	; 0xb0
     3a0:	e082210c 	add	r2, r2, ip, lsl #2
     3a4:	e5121040 	ldr	r1, [r2, #-64]	; 0xffffffc0
     3a8:	e1a0c003 	mov	ip, r3
     3ac:	eaffffef 	b	0x370
     3b0:	e5dd1029 	ldrb	r1, [sp, #41]	; 0x29
     3b4:	e5dd302a 	ldrb	r3, [sp, #42]	; 0x2a
     3b8:	e2611006 	rsb	r1, r1, #6
     3bc:	e0411003 	sub	r1, r1, r3
     3c0:	e0810000 	add	r0, r1, r0
     3c4:	e1e01000 	mvn	r1, r0
     3c8:	e2010001 	and	r0, r1, #1
     3cc:	ebffff95 	bl	0x228
     3d0:	e59f0970 	ldr	r0, [pc, #2416]	; 0xd48
     3d4:	eb00037f 	bl	0x11d8
     3d8:	e3a03000 	mov	r3, #0
     3dc:	e1a08000 	mov	r8, r0
     3e0:	e2809702 	add	r9, r0, #524288	; 0x80000
     3e4:	e2802bff 	add	r2, r0, #261120	; 0x3fc00
     3e8:	e1a01003 	mov	r1, r3
     3ec:	e5893004 	str	r3, [r9, #4]
     3f0:	e5893008 	str	r3, [r9, #8]
     3f4:	e2822fff 	add	r2, r2, #1020	; 0x3fc
     3f8:	e2403004 	sub	r3, r0, #4
     3fc:	e5a31004 	str	r1, [r3, #4]!
     400:	e1520003 	cmp	r2, r3
     404:	1afffffc 	bne	0x3fc
     408:	e3a02000 	mov	r2, #0
     40c:	e28d1028 	add	r1, sp, #40	; 0x28
     410:	e1a00008 	mov	r0, r8
     414:	eb0010c1 	bl	0x4720
     418:	e3e03000 	mvn	r3, #0
     41c:	e5994004 	ldr	r4, [r9, #4]
     420:	e59f2924 	ldr	r2, [pc, #2340]	; 0xd4c
     424:	e3540000 	cmp	r4, #0
     428:	e5823000 	str	r3, [r2]
     42c:	0a00014f 	beq	0x970
     430:	e3a03000 	mov	r3, #0
     434:	e58d3004 	str	r3, [sp, #4]
     438:	e2883701 	add	r3, r8, #262144	; 0x40000
     43c:	e58d301c 	str	r3, [sp, #28]
     440:	e59d301c 	ldr	r3, [sp, #28]
     444:	e5931004 	ldr	r1, [r3, #4]
     448:	e59d2000 	ldr	r2, [sp]
     44c:	e1a03001 	mov	r3, r1
     450:	e1a07002 	mov	r7, r2
     454:	e5d10000 	ldrb	r0, [r1]
     458:	e58d0010 	str	r0, [sp, #16]
     45c:	e5d10001 	ldrb	r0, [r1, #1]
     460:	e58d0008 	str	r0, [sp, #8]
     464:	e5d10002 	ldrb	r0, [r1, #2]
     468:	e58d000c 	str	r0, [sp, #12]
     46c:	e1d100d3 	ldrsb	r0, [r1, #3]
     470:	e58d0020 	str	r0, [sp, #32]
     474:	e5910000 	ldr	r0, [r1]
     478:	e5911014 	ldr	r1, [r1, #20]
     47c:	e58d0018 	str	r0, [sp, #24]
     480:	e58d1014 	str	r1, [sp, #20]
     484:	e283c010 	add	ip, r3, #16
     488:	e5d30004 	ldrb	r0, [r3, #4]
     48c:	e5d31005 	ldrb	r1, [r3, #5]
     490:	e5c20004 	strb	r0, [r2, #4]
     494:	e5c21005 	strb	r1, [r2, #5]
     498:	e5d30006 	ldrb	r0, [r3, #6]
     49c:	e5d31007 	ldrb	r1, [r3, #7]
     4a0:	e2833004 	add	r3, r3, #4
     4a4:	e153000c 	cmp	r3, ip
     4a8:	e5c20006 	strb	r0, [r2, #6]
     4ac:	e5c21007 	strb	r1, [r2, #7]
     4b0:	e2822004 	add	r2, r2, #4
     4b4:	1afffff3 	bne	0x488
     4b8:	e3540001 	cmp	r4, #1
     4bc:	03a03000 	moveq	r3, #0
     4c0:	05893004 	streq	r3, [r9, #4]
     4c4:	0a000033 	beq	0x598
     4c8:	c3a00001 	movgt	r0, #1
     4cc:	d3a00000 	movle	r0, #0
     4d0:	e2844801 	add	r4, r4, #65536	; 0x10000
     4d4:	ebffff53 	bl	0x228
     4d8:	e7983104 	ldr	r3, [r8, r4, lsl #2]
     4dc:	e59d201c 	ldr	r2, [sp, #28]
     4e0:	e5823004 	str	r3, [r2, #4]
     4e4:	e3a02001 	mov	r2, #1
     4e8:	e583201c 	str	r2, [r3, #28]
     4ec:	e5992004 	ldr	r2, [r9, #4]
     4f0:	e2422001 	sub	r2, r2, #1
     4f4:	e5892004 	str	r2, [r9, #4]
     4f8:	e3a06001 	mov	r6, #1
     4fc:	e58d7024 	str	r7, [sp, #36]	; 0x24
     500:	ea00000a 	b	0x530
     504:	e15c000e 	cmp	ip, lr
     508:	ba000021 	blt	0x594
     50c:	e3a00001 	mov	r0, #1
     510:	ebffff44 	bl	0x228
     514:	e585a004 	str	sl, [r5, #4]
     518:	e584b000 	str	fp, [r4]
     51c:	e58b601c 	str	r6, [fp, #28]
     520:	e1a06007 	mov	r6, r7
     524:	e5953004 	ldr	r3, [r5, #4]
     528:	e583701c 	str	r7, [r3, #28]
     52c:	e5992004 	ldr	r2, [r9, #4]
     530:	e1a03086 	lsl	r3, r6, #1
     534:	e0884106 	add	r4, r8, r6, lsl #2
     538:	e0885186 	add	r5, r8, r6, lsl #3
     53c:	e1530002 	cmp	r3, r2
     540:	e2855701 	add	r5, r5, #262144	; 0x40000
     544:	e2844701 	add	r4, r4, #262144	; 0x40000
     548:	aa00010b 	bge	0x97c
     54c:	e594a000 	ldr	sl, [r4]
     550:	e5952000 	ldr	r2, [r5]
     554:	e59ac024 	ldr	ip, [sl, #36]	; 0x24
     558:	e5920024 	ldr	r0, [r2, #36]	; 0x24
     55c:	e595b004 	ldr	fp, [r5, #4]
     560:	e15c0000 	cmp	ip, r0
     564:	e59be024 	ldr	lr, [fp, #36]	; 0x24
     568:	e2837001 	add	r7, r3, #1
     56c:	baffffe4 	blt	0x504
     570:	e150000e 	cmp	r0, lr
     574:	aaffffe4 	bge	0x50c
     578:	e585a000 	str	sl, [r5]
     57c:	e5842000 	str	r2, [r4]
     580:	e582601c 	str	r6, [r2, #28]
     584:	e5952000 	ldr	r2, [r5]
     588:	e1a06003 	mov	r6, r3
     58c:	e582301c 	str	r3, [r2, #28]
     590:	eaffffe5 	b	0x52c
     594:	e59d7024 	ldr	r7, [sp, #36]	; 0x24
     598:	e28d4040 	add	r4, sp, #64	; 0x40
     59c:	e1a03004 	mov	r3, r4
     5a0:	e59d2018 	ldr	r2, [sp, #24]
     5a4:	e58d2040 	str	r2, [sp, #64]	; 0x40
     5a8:	e59d2014 	ldr	r2, [sp, #20]
     5ac:	e58d2054 	str	r2, [sp, #84]	; 0x54
     5b0:	e59d2000 	ldr	r2, [sp]
     5b4:	e2820010 	add	r0, r2, #16
     5b8:	e5d71004 	ldrb	r1, [r7, #4]
     5bc:	e5d72005 	ldrb	r2, [r7, #5]
     5c0:	e5c31004 	strb	r1, [r3, #4]
     5c4:	e5c32005 	strb	r2, [r3, #5]
     5c8:	e5d71006 	ldrb	r1, [r7, #6]
     5cc:	e5d72007 	ldrb	r2, [r7, #7]
     5d0:	e2877004 	add	r7, r7, #4
     5d4:	e1500007 	cmp	r0, r7
     5d8:	e5c31006 	strb	r1, [r3, #6]
     5dc:	e5c32007 	strb	r2, [r3, #7]
     5e0:	e2833004 	add	r3, r3, #4
     5e4:	1afffff3 	bne	0x5b8
     5e8:	e3a03000 	mov	r3, #0
     5ec:	e59d1004 	ldr	r1, [sp, #4]
     5f0:	e2811001 	add	r1, r1, #1
     5f4:	e59d2000 	ldr	r2, [sp]
     5f8:	e58d1004 	str	r1, [sp, #4]
     5fc:	e2833001 	add	r3, r3, #1
     600:	e353000f 	cmp	r3, #15
     604:	e4823004 	str	r3, [r2], #4
     608:	1afffffb 	bne	0x5fc
     60c:	e3a03000 	mov	r3, #0
     610:	e59d1000 	ldr	r1, [sp]
     614:	e28d0058 	add	r0, sp, #88	; 0x58
     618:	e58d30ac 	str	r3, [sp, #172]	; 0xac
     61c:	eb000fb1 	bl	0x44e8
     620:	e28d1058 	add	r1, sp, #88	; 0x58
     624:	e28d0040 	add	r0, sp, #64	; 0x40
     628:	eb001006 	bl	0x4648
     62c:	e3500000 	cmp	r0, #0
     630:	1a0001b4 	bne	0xd08
     634:	e59d3010 	ldr	r3, [sp, #16]
     638:	e3530000 	cmp	r3, #0
     63c:	0a0000c6 	beq	0x95c
     640:	e59d300c 	ldr	r3, [sp, #12]
     644:	e3530003 	cmp	r3, #3
     648:	0a0000dc 	beq	0x9c0
     64c:	e59d2000 	ldr	r2, [sp]
     650:	e1a0e002 	mov	lr, r2
     654:	e28d3040 	add	r3, sp, #64	; 0x40
     658:	e28d5050 	add	r5, sp, #80	; 0x50
     65c:	e5d30004 	ldrb	r0, [r3, #4]
     660:	e5d31005 	ldrb	r1, [r3, #5]
     664:	e5c20004 	strb	r0, [r2, #4]
     668:	e5c21005 	strb	r1, [r2, #5]
     66c:	e5d30006 	ldrb	r0, [r3, #6]
     670:	e5d31007 	ldrb	r1, [r3, #7]
     674:	e2833004 	add	r3, r3, #4
     678:	e1550003 	cmp	r5, r3
     67c:	e5c20006 	strb	r0, [r2, #6]
     680:	e5c21007 	strb	r1, [r2, #7]
     684:	e2822004 	add	r2, r2, #4
     688:	1afffff3 	bne	0x65c
     68c:	e59d3008 	ldr	r3, [sp, #8]
     690:	e59dc00c 	ldr	ip, [sp, #12]
     694:	e1a0b103 	lsl	fp, r3, #2
     698:	e28d30b0 	add	r3, sp, #176	; 0xb0
     69c:	e28c7001 	add	r7, ip, #1
     6a0:	e083200b 	add	r2, r3, fp
     6a4:	e0823007 	add	r3, r2, r7
     6a8:	e15316dc 	ldrsb	r1, [r3, #-108]	; 0xffffff94
     6ac:	e2410001 	sub	r0, r1, #1
     6b0:	e2703000 	rsbs	r3, r0, #0
     6b4:	e2033003 	and	r3, r3, #3
     6b8:	e2000003 	and	r0, r0, #3
     6bc:	52630000 	rsbpl	r0, r3, #0
     6c0:	e040600c 	sub	r6, r0, ip
     6c4:	e3560000 	cmp	r6, #0
     6c8:	e0400007 	sub	r0, r0, r7
     6cc:	b2666000 	rsblt	r6, r6, #0
     6d0:	e3500000 	cmp	r0, #0
     6d4:	b2600000 	rsblt	r0, r0, #0
     6d8:	e0466000 	sub	r6, r6, r0
     6dc:	e082000c 	add	r0, r2, ip
     6e0:	e540103c 	strb	r1, [r0, #-60]	; 0xffffffc4
     6e4:	e3a01000 	mov	r1, #0
     6e8:	e3a03000 	mov	r3, #0
     6ec:	e20770ff 	and	r7, r7, #255	; 0xff
     6f0:	e59dc020 	ldr	ip, [sp, #32]
     6f4:	e0822007 	add	r2, r2, r7
     6f8:	e086600c 	add	r6, r6, ip
     6fc:	e542103c 	strb	r1, [r2, #-60]	; 0xffffffc4
     700:	e59d2000 	ldr	r2, [sp]
     704:	e1a06c06 	lsl	r6, r6, #24
     708:	e1a06c46 	asr	r6, r6, #24
     70c:	e2820008 	add	r0, r2, #8
     710:	e282a018 	add	sl, r2, #24
     714:	e2401004 	sub	r1, r0, #4
     718:	e0632183 	rsb	r2, r3, r3, lsl #3
     71c:	e0832102 	add	r2, r3, r2, lsl #2
     720:	e0d1c0d1 	ldrsb	ip, [r1], #1
     724:	e0822202 	add	r2, r2, r2, lsl #4
     728:	e0832102 	add	r2, r3, r2, lsl #2
     72c:	e1500001 	cmp	r0, r1
     730:	e082300c 	add	r3, r2, ip
     734:	1afffff7 	bne	0x718
     738:	e2800004 	add	r0, r0, #4
     73c:	e15a0000 	cmp	sl, r0
     740:	1afffff3 	bne	0x714
     744:	e3a01001 	mov	r1, #1
     748:	e5cd1058 	strb	r1, [sp, #88]	; 0x58
     74c:	e59d1008 	ldr	r1, [sp, #8]
     750:	e58d306c 	str	r3, [sp, #108]	; 0x6c
     754:	e59d3000 	ldr	r3, [sp]
     758:	e5cd1059 	strb	r1, [sp, #89]	; 0x59
     75c:	e5cd705a 	strb	r7, [sp, #90]	; 0x5a
     760:	e5cd605b 	strb	r6, [sp, #91]	; 0x5b
     764:	e28d2058 	add	r2, sp, #88	; 0x58
     768:	e2830010 	add	r0, r3, #16
     76c:	e5de1004 	ldrb	r1, [lr, #4]
     770:	e5de3005 	ldrb	r3, [lr, #5]
     774:	e5c21004 	strb	r1, [r2, #4]
     778:	e5c23005 	strb	r3, [r2, #5]
     77c:	e5de1006 	ldrb	r1, [lr, #6]
     780:	e5de3007 	ldrb	r3, [lr, #7]
     784:	e28ee004 	add	lr, lr, #4
     788:	e150000e 	cmp	r0, lr
     78c:	e5c21006 	strb	r1, [r2, #6]
     790:	e5c23007 	strb	r3, [r2, #7]
     794:	e2822004 	add	r2, r2, #4
     798:	1afffff3 	bne	0x76c
     79c:	e28d1040 	add	r1, sp, #64	; 0x40
     7a0:	e1a00008 	mov	r0, r8
     7a4:	eb000fc9 	bl	0x46d0
     7a8:	e3500000 	cmp	r0, #0
     7ac:	15902020 	ldrne	r2, [r0, #32]
     7b0:	03a02102 	moveq	r2, #-2147483648	; 0x80000000
     7b4:	12822001 	addne	r2, r2, #1
     7b8:	e28d1058 	add	r1, sp, #88	; 0x58
     7bc:	e1a00008 	mov	r0, r8
     7c0:	eb000fd6 	bl	0x4720
     7c4:	e59d300c 	ldr	r3, [sp, #12]
     7c8:	e3530000 	cmp	r3, #0
     7cc:	1a00007e 	bne	0x9cc
     7d0:	e59d3008 	ldr	r3, [sp, #8]
     7d4:	e3530003 	cmp	r3, #3
     7d8:	0a0000d8 	beq	0xb40
     7dc:	e59d2000 	ldr	r2, [sp]
     7e0:	e1a0c002 	mov	ip, r2
     7e4:	e28d3040 	add	r3, sp, #64	; 0x40
     7e8:	e5d30004 	ldrb	r0, [r3, #4]
     7ec:	e5d31005 	ldrb	r1, [r3, #5]
     7f0:	e5c20004 	strb	r0, [r2, #4]
     7f4:	e5c21005 	strb	r1, [r2, #5]
     7f8:	e5d30006 	ldrb	r0, [r3, #6]
     7fc:	e5d31007 	ldrb	r1, [r3, #7]
     800:	e2833004 	add	r3, r3, #4
     804:	e1530005 	cmp	r3, r5
     808:	e5c20006 	strb	r0, [r2, #6]
     80c:	e5c21007 	strb	r1, [r2, #7]
     810:	e2822004 	add	r2, r2, #4
     814:	1afffff3 	bne	0x7e8
     818:	e59d1008 	ldr	r1, [sp, #8]
     81c:	e59de00c 	ldr	lr, [sp, #12]
     820:	e2817001 	add	r7, r1, #1
     824:	e28d30b0 	add	r3, sp, #176	; 0xb0
     828:	e0833107 	add	r3, r3, r7, lsl #2
     82c:	e083300e 	add	r3, r3, lr
     830:	e15306dc 	ldrsb	r0, [r3, #-108]	; 0xffffff94
     834:	e2506001 	subs	r6, r0, #1
     838:	42806002 	addmi	r6, r0, #2
     83c:	e1a06146 	asr	r6, r6, #2
     840:	e0462007 	sub	r2, r6, r7
     844:	e3520000 	cmp	r2, #0
     848:	e0466001 	sub	r6, r6, r1
     84c:	b2622000 	rsblt	r2, r2, #0
     850:	e3560000 	cmp	r6, #0
     854:	b2666000 	rsblt	r6, r6, #0
     858:	e0466002 	sub	r6, r6, r2
     85c:	e20770ff 	and	r7, r7, #255	; 0xff
     860:	e28d20b0 	add	r2, sp, #176	; 0xb0
     864:	e0821107 	add	r1, r2, r7, lsl #2
     868:	e082200b 	add	r2, r2, fp
     86c:	e082200e 	add	r2, r2, lr
     870:	e542003c 	strb	r0, [r2, #-60]	; 0xffffffc4
     874:	e3a02000 	mov	r2, #0
     878:	e3a03000 	mov	r3, #0
     87c:	e59da020 	ldr	sl, [sp, #32]
     880:	e081100e 	add	r1, r1, lr
     884:	e086600a 	add	r6, r6, sl
     888:	e541203c 	strb	r2, [r1, #-60]	; 0xffffffc4
     88c:	e59d2000 	ldr	r2, [sp]
     890:	e1a06c06 	lsl	r6, r6, #24
     894:	e1a06c46 	asr	r6, r6, #24
     898:	e282e008 	add	lr, r2, #8
     89c:	e282a018 	add	sl, r2, #24
     8a0:	e24e1004 	sub	r1, lr, #4
     8a4:	e0632183 	rsb	r2, r3, r3, lsl #3
     8a8:	e0832102 	add	r2, r3, r2, lsl #2
     8ac:	e0d100d1 	ldrsb	r0, [r1], #1
     8b0:	e0822202 	add	r2, r2, r2, lsl #4
     8b4:	e0832102 	add	r2, r3, r2, lsl #2
     8b8:	e151000e 	cmp	r1, lr
     8bc:	e0823000 	add	r3, r2, r0
     8c0:	1afffff7 	bne	0x8a4
     8c4:	e281e004 	add	lr, r1, #4
     8c8:	e15e000a 	cmp	lr, sl
     8cc:	1afffff3 	bne	0x8a0
     8d0:	e3a01001 	mov	r1, #1
     8d4:	e5cd1058 	strb	r1, [sp, #88]	; 0x58
     8d8:	e59d100c 	ldr	r1, [sp, #12]
     8dc:	e58d306c 	str	r3, [sp, #108]	; 0x6c
     8e0:	e59d3000 	ldr	r3, [sp]
     8e4:	e5cd7059 	strb	r7, [sp, #89]	; 0x59
     8e8:	e5cd105a 	strb	r1, [sp, #90]	; 0x5a
     8ec:	e5cd605b 	strb	r6, [sp, #91]	; 0x5b
     8f0:	e28d2058 	add	r2, sp, #88	; 0x58
     8f4:	e2830010 	add	r0, r3, #16
     8f8:	e5dc1004 	ldrb	r1, [ip, #4]
     8fc:	e5dc3005 	ldrb	r3, [ip, #5]
     900:	e5c21004 	strb	r1, [r2, #4]
     904:	e5c23005 	strb	r3, [r2, #5]
     908:	e5dc1006 	ldrb	r1, [ip, #6]
     90c:	e5dc3007 	ldrb	r3, [ip, #7]
     910:	e28cc004 	add	ip, ip, #4
     914:	e150000c 	cmp	r0, ip
     918:	e5c21006 	strb	r1, [r2, #6]
     91c:	e5c23007 	strb	r3, [r2, #7]
     920:	e2822004 	add	r2, r2, #4
     924:	1afffff3 	bne	0x8f8
     928:	e28d1040 	add	r1, sp, #64	; 0x40
     92c:	e1a00008 	mov	r0, r8
     930:	eb000f66 	bl	0x46d0
     934:	e3500000 	cmp	r0, #0
     938:	15902020 	ldrne	r2, [r0, #32]
     93c:	03a02102 	moveq	r2, #-2147483648	; 0x80000000
     940:	12822001 	addne	r2, r2, #1
     944:	e28d1058 	add	r1, sp, #88	; 0x58
     948:	e1a00008 	mov	r0, r8
     94c:	eb000f73 	bl	0x4720
     950:	e59d3008 	ldr	r3, [sp, #8]
     954:	e3530000 	cmp	r3, #0
     958:	1a000078 	bne	0xb40
     95c:	e5994004 	ldr	r4, [r9, #4]
     960:	e59d3004 	ldr	r3, [sp, #4]
     964:	e3530801 	cmp	r3, #65536	; 0x10000
     968:	13540000 	cmpne	r4, #0
     96c:	1afffeb3 	bne	0x440
     970:	e28dd0b4 	add	sp, sp, #180	; 0xb4
     974:	e8bd4ff0 	pop	{r4, r5, r6, r7, r8, r9, sl, fp, lr}
     978:	e12fff1e 	bx	lr
     97c:	e59d7024 	ldr	r7, [sp, #36]	; 0x24
     980:	1affff04 	bne	0x598
     984:	e0884186 	add	r4, r8, r6, lsl #3
     988:	e0883106 	add	r3, r8, r6, lsl #2
     98c:	e2833701 	add	r3, r3, #262144	; 0x40000
     990:	e2844701 	add	r4, r4, #262144	; 0x40000
     994:	e5941000 	ldr	r1, [r4]
     998:	e5930000 	ldr	r0, [r3]
     99c:	e591e024 	ldr	lr, [r1, #36]	; 0x24
     9a0:	e590c024 	ldr	ip, [r0, #36]	; 0x24
     9a4:	e15e000c 	cmp	lr, ip
     9a8:	b5840000 	strlt	r0, [r4]
     9ac:	b5831000 	strlt	r1, [r3]
     9b0:	b581601c 	strlt	r6, [r1, #28]
     9b4:	b5943000 	ldrlt	r3, [r4]
     9b8:	b583201c 	strlt	r2, [r3, #28]
     9bc:	eafffef5 	b	0x598
     9c0:	e59d3008 	ldr	r3, [sp, #8]
     9c4:	e28d5050 	add	r5, sp, #80	; 0x50
     9c8:	e1a0b103 	lsl	fp, r3, #2
     9cc:	e59d2000 	ldr	r2, [sp]
     9d0:	e1a0e002 	mov	lr, r2
     9d4:	e28d3040 	add	r3, sp, #64	; 0x40
     9d8:	e5d30004 	ldrb	r0, [r3, #4]
     9dc:	e5d31005 	ldrb	r1, [r3, #5]
     9e0:	e5c20004 	strb	r0, [r2, #4]
     9e4:	e5c21005 	strb	r1, [r2, #5]
     9e8:	e5d30006 	ldrb	r0, [r3, #6]
     9ec:	e5d31007 	ldrb	r1, [r3, #7]
     9f0:	e2833004 	add	r3, r3, #4
     9f4:	e1530005 	cmp	r3, r5
     9f8:	e5c20006 	strb	r0, [r2, #6]
     9fc:	e5c21007 	strb	r1, [r2, #7]
     a00:	e2822004 	add	r2, r2, #4
     a04:	1afffff3 	bne	0x9d8
     a08:	e59d600c 	ldr	r6, [sp, #12]
     a0c:	e28d30b0 	add	r3, sp, #176	; 0xb0
     a10:	e2461001 	sub	r1, r6, #1
     a14:	e083000b 	add	r0, r3, fp
     a18:	e0807001 	add	r7, r0, r1
     a1c:	e157a6dc 	ldrsb	sl, [r7, #-108]	; 0xffffff94
     a20:	e24a2001 	sub	r2, sl, #1
     a24:	e2723000 	rsbs	r3, r2, #0
     a28:	e2033003 	and	r3, r3, #3
     a2c:	e2022003 	and	r2, r2, #3
     a30:	52632000 	rsbpl	r2, r3, #0
     a34:	e042c006 	sub	ip, r2, r6
     a38:	e35c0000 	cmp	ip, #0
     a3c:	e0422001 	sub	r2, r2, r1
     a40:	b26cc000 	rsblt	ip, ip, #0
     a44:	e3520000 	cmp	r2, #0
     a48:	b2622000 	rsblt	r2, r2, #0
     a4c:	e04c2002 	sub	r2, ip, r2
     a50:	e59dc020 	ldr	ip, [sp, #32]
     a54:	e082200c 	add	r2, r2, ip
     a58:	e0800006 	add	r0, r0, r6
     a5c:	e1a06c02 	lsl	r6, r2, #24
     a60:	e3a02000 	mov	r2, #0
     a64:	e3a03000 	mov	r3, #0
     a68:	e540a03c 	strb	sl, [r0, #-60]	; 0xffffffc4
     a6c:	e547203c 	strb	r2, [r7, #-60]	; 0xffffffc4
     a70:	e59d2000 	ldr	r2, [sp]
     a74:	e1a06c46 	asr	r6, r6, #24
     a78:	e201a0ff 	and	sl, r1, #255	; 0xff
     a7c:	e2820008 	add	r0, r2, #8
     a80:	e2827018 	add	r7, r2, #24
     a84:	e2401004 	sub	r1, r0, #4
     a88:	e0632183 	rsb	r2, r3, r3, lsl #3
     a8c:	e0832102 	add	r2, r3, r2, lsl #2
     a90:	e0d1c0d1 	ldrsb	ip, [r1], #1
     a94:	e0822202 	add	r2, r2, r2, lsl #4
     a98:	e0832102 	add	r2, r3, r2, lsl #2
     a9c:	e1500001 	cmp	r0, r1
     aa0:	e082300c 	add	r3, r2, ip
     aa4:	1afffff7 	bne	0xa88
     aa8:	e2800004 	add	r0, r0, #4
     aac:	e1570000 	cmp	r7, r0
     ab0:	1afffff3 	bne	0xa84
     ab4:	e3a01001 	mov	r1, #1
     ab8:	e5cd1058 	strb	r1, [sp, #88]	; 0x58
     abc:	e59d1008 	ldr	r1, [sp, #8]
     ac0:	e58d306c 	str	r3, [sp, #108]	; 0x6c
     ac4:	e59d3000 	ldr	r3, [sp]
     ac8:	e5cd1059 	strb	r1, [sp, #89]	; 0x59
     acc:	e5cda05a 	strb	sl, [sp, #90]	; 0x5a
     ad0:	e5cd605b 	strb	r6, [sp, #91]	; 0x5b
     ad4:	e28d2058 	add	r2, sp, #88	; 0x58
     ad8:	e2830010 	add	r0, r3, #16
     adc:	e5de1004 	ldrb	r1, [lr, #4]
     ae0:	e5de3005 	ldrb	r3, [lr, #5]
     ae4:	e5c21004 	strb	r1, [r2, #4]
     ae8:	e5c23005 	strb	r3, [r2, #5]
     aec:	e5de1006 	ldrb	r1, [lr, #6]
     af0:	e5de3007 	ldrb	r3, [lr, #7]
     af4:	e28ee004 	add	lr, lr, #4
     af8:	e15e0000 	cmp	lr, r0
     afc:	e5c21006 	strb	r1, [r2, #6]
     b00:	e5c23007 	strb	r3, [r2, #7]
     b04:	e2822004 	add	r2, r2, #4
     b08:	1afffff3 	bne	0xadc
     b0c:	e28d1040 	add	r1, sp, #64	; 0x40
     b10:	e1a00008 	mov	r0, r8
     b14:	eb000eed 	bl	0x46d0
     b18:	e3500000 	cmp	r0, #0
     b1c:	15902020 	ldrne	r2, [r0, #32]
     b20:	03a02102 	moveq	r2, #-2147483648	; 0x80000000
     b24:	12822001 	addne	r2, r2, #1
     b28:	e28d1058 	add	r1, sp, #88	; 0x58
     b2c:	e1a00008 	mov	r0, r8
     b30:	eb000efa 	bl	0x4720
     b34:	e59d3008 	ldr	r3, [sp, #8]
     b38:	e3530003 	cmp	r3, #3
     b3c:	1affff26 	bne	0x7dc
     b40:	e59d3000 	ldr	r3, [sp]
     b44:	e1a0c003 	mov	ip, r3
     b48:	e5d41004 	ldrb	r1, [r4, #4]
     b4c:	e5d42005 	ldrb	r2, [r4, #5]
     b50:	e5c31004 	strb	r1, [r3, #4]
     b54:	e5c32005 	strb	r2, [r3, #5]
     b58:	e5d41006 	ldrb	r1, [r4, #6]
     b5c:	e5d42007 	ldrb	r2, [r4, #7]
     b60:	e2844004 	add	r4, r4, #4
     b64:	e1540005 	cmp	r4, r5
     b68:	e5c31006 	strb	r1, [r3, #6]
     b6c:	e5c32007 	strb	r2, [r3, #7]
     b70:	e2833004 	add	r3, r3, #4
     b74:	1afffff3 	bne	0xb48
     b78:	e59d2008 	ldr	r2, [sp, #8]
     b7c:	e59d600c 	ldr	r6, [sp, #12]
     b80:	e2425001 	sub	r5, r2, #1
     b84:	e28d30b0 	add	r3, sp, #176	; 0xb0
     b88:	e0830105 	add	r0, r3, r5, lsl #2
     b8c:	e0800006 	add	r0, r0, r6
     b90:	e150e6dc 	ldrsb	lr, [r0, #-108]	; 0xffffff94
     b94:	e25e3001 	subs	r3, lr, #1
     b98:	428e3002 	addmi	r3, lr, #2
     b9c:	e1a03143 	asr	r3, r3, #2
     ba0:	e0432002 	sub	r2, r3, r2
     ba4:	e0433005 	sub	r3, r3, r5
     ba8:	e3520000 	cmp	r2, #0
     bac:	e0234fc3 	eor	r4, r3, r3, asr #31
     bb0:	e0444fc3 	sub	r4, r4, r3, asr #31
     bb4:	b2622000 	rsblt	r2, r2, #0
     bb8:	e0422004 	sub	r2, r2, r4
     bbc:	e59d4020 	ldr	r4, [sp, #32]
     bc0:	e0822004 	add	r2, r2, r4
     bc4:	e1a04c02 	lsl	r4, r2, #24
     bc8:	e3a02000 	mov	r2, #0
     bcc:	e3a03000 	mov	r3, #0
     bd0:	e28d10b0 	add	r1, sp, #176	; 0xb0
     bd4:	e081100b 	add	r1, r1, fp
     bd8:	e0811006 	add	r1, r1, r6
     bdc:	e541e03c 	strb	lr, [r1, #-60]	; 0xffffffc4
     be0:	e540203c 	strb	r2, [r0, #-60]	; 0xffffffc4
     be4:	e59d2000 	ldr	r2, [sp]
     be8:	e1a04c44 	asr	r4, r4, #24
     bec:	e20550ff 	and	r5, r5, #255	; 0xff
     bf0:	e282e008 	add	lr, r2, #8
     bf4:	e2826018 	add	r6, r2, #24
     bf8:	e24e1004 	sub	r1, lr, #4
     bfc:	e0632183 	rsb	r2, r3, r3, lsl #3
     c00:	e0832102 	add	r2, r3, r2, lsl #2
     c04:	e0d100d1 	ldrsb	r0, [r1], #1
     c08:	e0822202 	add	r2, r2, r2, lsl #4
     c0c:	e0833102 	add	r3, r3, r2, lsl #2
     c10:	e151000e 	cmp	r1, lr
     c14:	e0833000 	add	r3, r3, r0
     c18:	1afffff7 	bne	0xbfc
     c1c:	e281e004 	add	lr, r1, #4
     c20:	e156000e 	cmp	r6, lr
     c24:	1afffff3 	bne	0xbf8
     c28:	e3a01001 	mov	r1, #1
     c2c:	e5cd1058 	strb	r1, [sp, #88]	; 0x58
     c30:	e59d100c 	ldr	r1, [sp, #12]
     c34:	e58d306c 	str	r3, [sp, #108]	; 0x6c
     c38:	e59d3000 	ldr	r3, [sp]
     c3c:	e5cd5059 	strb	r5, [sp, #89]	; 0x59
     c40:	e5cd105a 	strb	r1, [sp, #90]	; 0x5a
     c44:	e5cd405b 	strb	r4, [sp, #91]	; 0x5b
     c48:	e28d2058 	add	r2, sp, #88	; 0x58
     c4c:	e2830010 	add	r0, r3, #16
     c50:	e5dc1004 	ldrb	r1, [ip, #4]
     c54:	e5dc3005 	ldrb	r3, [ip, #5]
     c58:	e5c21004 	strb	r1, [r2, #4]
     c5c:	e5c23005 	strb	r3, [r2, #5]
     c60:	e5dc1006 	ldrb	r1, [ip, #6]
     c64:	e5dc3007 	ldrb	r3, [ip, #7]
     c68:	e28cc004 	add	ip, ip, #4
     c6c:	e150000c 	cmp	r0, ip
     c70:	e5c21006 	strb	r1, [r2, #6]
     c74:	e5c23007 	strb	r3, [r2, #7]
     c78:	e2822004 	add	r2, r2, #4
     c7c:	1afffff3 	bne	0xc50
     c80:	e28d1040 	add	r1, sp, #64	; 0x40
     c84:	e1a00008 	mov	r0, r8
     c88:	eb000e90 	bl	0x46d0
     c8c:	e3500000 	cmp	r0, #0
     c90:	15902020 	ldrne	r2, [r0, #32]
     c94:	03a02102 	moveq	r2, #-2147483648	; 0x80000000
     c98:	12822001 	addne	r2, r2, #1
     c9c:	e28d1058 	add	r1, sp, #88	; 0x58
     ca0:	e1a00008 	mov	r0, r8
     ca4:	eb000e9d 	bl	0x4720
     ca8:	eaffff2b 	b	0x95c
     cac:	e59f109c 	ldr	r1, [pc, #156]	; 0xd50
     cb0:	eb000e0c 	bl	0x44e8
     cb4:	e1a03004 	mov	r3, r4
     cb8:	e59d1084 	ldr	r1, [sp, #132]	; 0x84
     cbc:	e59d0070 	ldr	r0, [sp, #112]	; 0x70
     cc0:	e58d103c 	str	r1, [sp, #60]	; 0x3c
     cc4:	e58d0028 	str	r0, [sp, #40]	; 0x28
     cc8:	e5dd1070 	ldrb	r1, [sp, #112]	; 0x70
     ccc:	e28d2028 	add	r2, sp, #40	; 0x28
     cd0:	e28d5080 	add	r5, sp, #128	; 0x80
     cd4:	e5d34004 	ldrb	r4, [r3, #4]
     cd8:	e5d3e005 	ldrb	lr, [r3, #5]
     cdc:	e5d3c006 	ldrb	ip, [r3, #6]
     ce0:	e5d30007 	ldrb	r0, [r3, #7]
     ce4:	e2833004 	add	r3, r3, #4
     ce8:	e1530005 	cmp	r3, r5
     cec:	e5c24004 	strb	r4, [r2, #4]
     cf0:	e5c2e005 	strb	lr, [r2, #5]
     cf4:	e5c2c006 	strb	ip, [r2, #6]
     cf8:	e5c20007 	strb	r0, [r2, #7]
     cfc:	e2822004 	add	r2, r2, #4
     d00:	1afffff3 	bne	0xcd4
     d04:	eafffd81 	b	0x310
     d08:	e28d1040 	add	r1, sp, #64	; 0x40
     d0c:	e1a00008 	mov	r0, r8
     d10:	eb000e6e 	bl	0x46d0
     d14:	e3500000 	cmp	r0, #0
     d18:	03e03102 	mvneq	r3, #-2147483648	; 0x80000000
     d1c:	15903020 	ldrne	r3, [r0, #32]
     d20:	e59d2004 	ldr	r2, [sp, #4]
     d24:	e0020293 	mul	r2, r3, r2
     d28:	e1a03002 	mov	r3, r2
     d2c:	e59f2018 	ldr	r2, [pc, #24]	; 0xd4c
     d30:	e5823000 	str	r3, [r2]
     d34:	e28dd0b4 	add	sp, sp, #180	; 0xb4
     d38:	e8bd4ff0 	pop	{r4, r5, r6, r7, r8, r9, sl, fp, lr}
     d3c:	e12fff1e 	bx	lr
     d40:	03000158 	tsteq	r0, #88, 2
     d44:	03000168 	tsteq	r0, #104, 2
     d48:	0008000c 	andeq	r0, r8, ip
     d4c:	0300001c 	tsteq	r0, #28
     d50:	030001a8 	tsteq	r0, #168, 2	; 0x2a
     d54:	e3500000 	cmp	r0, #0
     d58:	112fff1e 	bxne	lr
     d5c:	e3a03301 	mov	r3, #67108864	; 0x4000000
     d60:	e3a0c003 	mov	ip, #3
     d64:	e3a00004 	mov	r0, #4
     d68:	e3a02406 	mov	r2, #100663296	; 0x6000000
     d6c:	e3a0101f 	mov	r1, #31
     d70:	e5c3c000 	strb	ip, [r3]
     d74:	e5c30001 	strb	r0, [r3, #1]
     d78:	e1c210b0 	strh	r1, [r2]
     d7c:	eafffffe 	b	0xd7c
     d80:	e92d000f 	push	{r0, r1, r2, r3}
     d84:	e92d4ff0 	push	{r4, r5, r6, r7, r8, r9, sl, fp, lr}
     d88:	e3a0b000 	mov	fp, #0
     d8c:	e24dd00c 	sub	sp, sp, #12
     d90:	e28d3034 	add	r3, sp, #52	; 0x34
     d94:	e58d3004 	str	r3, [sp, #4]
     d98:	e59f82e4 	ldr	r8, [pc, #740]	; 0x1084
     d9c:	e59d1030 	ldr	r1, [sp, #48]	; 0x30
     da0:	e59f32e0 	ldr	r3, [pc, #736]	; 0x1088
     da4:	e59f62e0 	ldr	r6, [pc, #736]	; 0x108c
     da8:	e5d10000 	ldrb	r0, [r1]
     dac:	e3500000 	cmp	r0, #0
     db0:	0a000026 	beq	0xe50
     db4:	e3500025 	cmp	r0, #37	; 0x25
     db8:	1a000028 	bne	0xe60
     dbc:	e5d12001 	ldrb	r2, [r1, #1]
     dc0:	e3520064 	cmp	r2, #100	; 0x64
     dc4:	e2811002 	add	r1, r1, #2
     dc8:	0a00003a 	beq	0xeb8
     dcc:	9a00002d 	bls	0xe88
     dd0:	e3520073 	cmp	r2, #115	; 0x73
     dd4:	0a000052 	beq	0xf24
     dd8:	e3520075 	cmp	r2, #117	; 0x75
     ddc:	1afffff1 	bne	0xda8
     de0:	e59d2004 	ldr	r2, [sp, #4]
     de4:	e592c000 	ldr	ip, [r2]
     de8:	e2822004 	add	r2, r2, #4
     dec:	e35c0000 	cmp	ip, #0
     df0:	e58d2004 	str	r2, [sp, #4]
     df4:	1a00005d 	bne	0xf70
     df8:	e3a02030 	mov	r2, #48	; 0x30
     dfc:	e3a07001 	mov	r7, #1
     e00:	e5c82000 	strb	r2, [r8]
     e04:	e7c8b007 	strb	fp, [r8, r7]
     e08:	e5d8c000 	ldrb	ip, [r8]
     e0c:	e35c0000 	cmp	ip, #0
     e10:	0affffe4 	beq	0xda8
     e14:	e59fe274 	ldr	lr, [pc, #628]	; 0x1090
     e18:	e5d32001 	ldrb	r2, [r3, #1]
     e1c:	e2020001 	and	r0, r2, #1
     e20:	e15000a2 	cmp	r0, r2, lsr #1
     e24:	1afffffb 	bne	0xe18
     e28:	e5c3c000 	strb	ip, [r3]
     e2c:	e5d32001 	ldrb	r2, [r3, #1]
     e30:	e2222001 	eor	r2, r2, #1
     e34:	e5c32001 	strb	r2, [r3, #1]
     e38:	e4dec001 	ldrb	ip, [lr], #1
     e3c:	e35c0000 	cmp	ip, #0
     e40:	1afffff4 	bne	0xe18
     e44:	e5d10000 	ldrb	r0, [r1]
     e48:	e3500000 	cmp	r0, #0
     e4c:	1affffd8 	bne	0xdb4
     e50:	e28dd00c 	add	sp, sp, #12
     e54:	e8bd4ff0 	pop	{r4, r5, r6, r7, r8, r9, sl, fp, lr}
     e58:	e28dd010 	add	sp, sp, #16
     e5c:	e12fff1e 	bx	lr
     e60:	e5d32001 	ldrb	r2, [r3, #1]
     e64:	e202c001 	and	ip, r2, #1
     e68:	e15c00a2 	cmp	ip, r2, lsr #1
     e6c:	1afffffb 	bne	0xe60
     e70:	e5c30000 	strb	r0, [r3]
     e74:	e5d32001 	ldrb	r2, [r3, #1]
     e78:	e2222001 	eor	r2, r2, #1
     e7c:	e5c32001 	strb	r2, [r3, #1]
     e80:	e2811001 	add	r1, r1, #1
     e84:	eaffffc7 	b	0xda8
     e88:	e3520025 	cmp	r2, #37	; 0x25
     e8c:	1affffc5 	bne	0xda8
     e90:	e5d32001 	ldrb	r2, [r3, #1]
     e94:	e2020001 	and	r0, r2, #1
     e98:	e15000a2 	cmp	r0, r2, lsr #1
     e9c:	1afffffb 	bne	0xe90
     ea0:	e3a02025 	mov	r2, #37	; 0x25
     ea4:	e5c32000 	strb	r2, [r3]
     ea8:	e5d32001 	ldrb	r2, [r3, #1]
     eac:	e2222001 	eor	r2, r2, #1
     eb0:	e5c32001 	strb	r2, [r3, #1]
     eb4:	eaffffbb 	b	0xda8
     eb8:	e59d2004 	ldr	r2, [sp, #4]
     ebc:	e5920000 	ldr	r0, [r2]
     ec0:	e2822004 	add	r2, r2, #4
     ec4:	e3500000 	cmp	r0, #0
     ec8:	e58d2004 	str	r2, [sp, #4]
     ecc:	ba000045 	blt	0xfe8
     ed0:	1a000067 	bne	0x1074
     ed4:	e3a02030 	mov	r2, #48	; 0x30
     ed8:	e59f91b0 	ldr	r9, [pc, #432]	; 0x1090
     edc:	e5c82000 	strb	r2, [r8]
     ee0:	e5c9b000 	strb	fp, [r9]
     ee4:	e5d8c000 	ldrb	ip, [r8]
     ee8:	e35c0000 	cmp	ip, #0
     eec:	0affffad 	beq	0xda8
     ef0:	e59fe198 	ldr	lr, [pc, #408]	; 0x1090
     ef4:	e5d32001 	ldrb	r2, [r3, #1]
     ef8:	e2020001 	and	r0, r2, #1
     efc:	e15000a2 	cmp	r0, r2, lsr #1
     f00:	1afffffb 	bne	0xef4
     f04:	e5c3c000 	strb	ip, [r3]
     f08:	e5d32001 	ldrb	r2, [r3, #1]
     f0c:	e2222001 	eor	r2, r2, #1
     f10:	e5c32001 	strb	r2, [r3, #1]
     f14:	e4dec001 	ldrb	ip, [lr], #1
     f18:	e35c0000 	cmp	ip, #0
     f1c:	1afffff4 	bne	0xef4
     f20:	eaffffa0 	b	0xda8
     f24:	e59d2004 	ldr	r2, [sp, #4]
     f28:	e592e000 	ldr	lr, [r2]
     f2c:	e5dec000 	ldrb	ip, [lr]
     f30:	e2822004 	add	r2, r2, #4
     f34:	e35c0000 	cmp	ip, #0
     f38:	e58d2004 	str	r2, [sp, #4]
     f3c:	0affff99 	beq	0xda8
     f40:	e5d32001 	ldrb	r2, [r3, #1]
     f44:	e2020001 	and	r0, r2, #1
     f48:	e15000a2 	cmp	r0, r2, lsr #1
     f4c:	1afffffb 	bne	0xf40
     f50:	e5c3c000 	strb	ip, [r3]
     f54:	e5d32001 	ldrb	r2, [r3, #1]
     f58:	e2222001 	eor	r2, r2, #1
     f5c:	e5c32001 	strb	r2, [r3, #1]
     f60:	e5fec001 	ldrb	ip, [lr, #1]!
     f64:	e35c0000 	cmp	ip, #0
     f68:	1afffff4 	bne	0xf40
     f6c:	eaffff8d 	b	0xda8
     f70:	e59f411c 	ldr	r4, [pc, #284]	; 0x1094
     f74:	e3a0e000 	mov	lr, #0
     f78:	e1a05004 	mov	r5, r4
     f7c:	ea000001 	b	0xf88
     f80:	e1a0e007 	mov	lr, r7
     f84:	e1a0c000 	mov	ip, r0
     f88:	e0802c96 	umull	r2, r0, r6, ip
     f8c:	e1a001a0 	lsr	r0, r0, #3
     f90:	e0802100 	add	r2, r0, r0, lsl #2
     f94:	e04c2082 	sub	r2, ip, r2, lsl #1
     f98:	e2822030 	add	r2, r2, #48	; 0x30
     f9c:	e20220ff 	and	r2, r2, #255	; 0xff
     fa0:	e35c0009 	cmp	ip, #9
     fa4:	e5e52001 	strb	r2, [r5, #1]!
     fa8:	e28e7001 	add	r7, lr, #1
     fac:	8afffff3 	bhi	0xf80
     fb0:	e35e0000 	cmp	lr, #0
     fb4:	0a000030 	beq	0x107c
     fb8:	e1a0000e 	mov	r0, lr
     fbc:	e088c00e 	add	ip, r8, lr
     fc0:	ea000000 	b	0xfc8
     fc4:	e57c2001 	ldrb	r2, [ip, #-1]!
     fc8:	e2400001 	sub	r0, r0, #1
     fcc:	e5f45001 	ldrb	r5, [r4, #1]!
     fd0:	e04e9000 	sub	r9, lr, r0
     fd4:	e1500009 	cmp	r0, r9
     fd8:	e5c42000 	strb	r2, [r4]
     fdc:	e5cc5000 	strb	r5, [ip]
     fe0:	8afffff7 	bhi	0xfc4
     fe4:	eaffff86 	b	0xe04
     fe8:	e3a0202d 	mov	r2, #45	; 0x2d
     fec:	e3a07001 	mov	r7, #1
     ff0:	e5c82000 	strb	r2, [r8]
     ff4:	e2600000 	rsb	r0, r0, #0
     ff8:	e088e007 	add	lr, r8, r7
     ffc:	e1a0500e 	mov	r5, lr
    1000:	e1a04007 	mov	r4, r7
    1004:	ea000000 	b	0x100c
    1008:	e1a0400c 	mov	r4, ip
    100c:	e08c2096 	umull	r2, ip, r6, r0
    1010:	e1a0c1ac 	lsr	ip, ip, #3
    1014:	e08c210c 	add	r2, ip, ip, lsl #2
    1018:	e0402082 	sub	r2, r0, r2, lsl #1
    101c:	e2822030 	add	r2, r2, #48	; 0x30
    1020:	e20220ff 	and	r2, r2, #255	; 0xff
    1024:	e4c52001 	strb	r2, [r5], #1
    1028:	e25c0000 	subs	r0, ip, #0
    102c:	e1a09005 	mov	r9, r5
    1030:	e284c001 	add	ip, r4, #1
    1034:	1afffff3 	bne	0x1008
    1038:	e1570004 	cmp	r7, r4
    103c:	2affffa7 	bcs	0xee0
    1040:	e1a00007 	mov	r0, r7
    1044:	e0885004 	add	r5, r8, r4
    1048:	ea000000 	b	0x1050
    104c:	e5d52000 	ldrb	r2, [r5]
    1050:	e2800001 	add	r0, r0, #1
    1054:	e047c000 	sub	ip, r7, r0
    1058:	e5dea000 	ldrb	sl, [lr]
    105c:	e08cc004 	add	ip, ip, r4
    1060:	e15c0000 	cmp	ip, r0
    1064:	e4ce2001 	strb	r2, [lr], #1
    1068:	e445a001 	strb	sl, [r5], #-1
    106c:	8afffff6 	bhi	0x104c
    1070:	eaffff9a 	b	0xee0
    1074:	e3a07000 	mov	r7, #0
    1078:	eaffffde 	b	0xff8
    107c:	e3a07001 	mov	r7, #1
    1080:	eaffff5f 	b	0xe04
    1084:	03000020 	tsteq	r0, #32
    1088:	04000400 	streq	r0, [r0], #-1024	; 0xfffffc00
    108c:	cccccccd 	stclgt	12, cr12, [ip], {205}	; 0xcd
    1090:	03000021 	tsteq	r0, #33	; 0x21
    1094:	0300001f 	tsteq	r0, #31
    1098:	e3a00402 	mov	r0, #33554432	; 0x2000000
    109c:	e92d4070 	push	{r4, r5, r6, lr}
    10a0:	e59f50e8 	ldr	r5, [pc, #232]	; 0x1190
    10a4:	e5953000 	ldr	r3, [r5]
    10a8:	e59f20e4 	ldr	r2, [pc, #228]	; 0x1194
    10ac:	e5933000 	ldr	r3, [r3]
    10b0:	e1a04001 	mov	r4, r1
    10b4:	e5820064 	str	r0, [r2, #100]	; 0x64
    10b8:	e1a0e00f 	mov	lr, pc
    10bc:	e12fff13 	bx	r3
    10c0:	e3a02000 	mov	r2, #0
    10c4:	e59f60cc 	ldr	r6, [pc, #204]	; 0x1198
    10c8:	e5d60005 	ldrb	r0, [r6, #5]
    10cc:	e5d61004 	ldrb	r1, [r6, #4]
    10d0:	e5d63001 	ldrb	r3, [r6, #1]
    10d4:	e1811400 	orr	r1, r1, r0, lsl #8
    10d8:	e5d60000 	ldrb	r0, [r6]
    10dc:	e1833401 	orr	r3, r3, r1, lsl #8
    10e0:	e1803403 	orr	r3, r0, r3, lsl #8
    10e4:	e0930003 	adds	r0, r3, r3
    10e8:	e0a21002 	adc	r1, r2, r2
    10ec:	e0900003 	adds	r0, r0, r3
    10f0:	e0a11002 	adc	r1, r1, r2
    10f4:	e1a01501 	lsl	r1, r1, #10
    10f8:	e59f209c 	ldr	r2, [pc, #156]	; 0x119c
    10fc:	e1811b20 	orr	r1, r1, r0, lsr #22
    1100:	e3a03000 	mov	r3, #0
    1104:	e1a00500 	lsl	r0, r0, #10
    1108:	eb000bd5 	bl	0x4064
    110c:	e5953000 	ldr	r3, [r5]
    1110:	e5840008 	str	r0, [r4, #8]
    1114:	e5933004 	ldr	r3, [r3, #4]
    1118:	e1a0e00f 	mov	lr, pc
    111c:	e12fff13 	bx	r3
    1120:	e3a02000 	mov	r2, #0
    1124:	e5d60005 	ldrb	r0, [r6, #5]
    1128:	e5d61004 	ldrb	r1, [r6, #4]
    112c:	e5d63001 	ldrb	r3, [r6, #1]
    1130:	e1811400 	orr	r1, r1, r0, lsl #8
    1134:	e5d60000 	ldrb	r0, [r6]
    1138:	e1833401 	orr	r3, r3, r1, lsl #8
    113c:	e1803403 	orr	r3, r0, r3, lsl #8
    1140:	e0930003 	adds	r0, r3, r3
    1144:	e0a21002 	adc	r1, r2, r2
    1148:	e0900003 	adds	r0, r0, r3
    114c:	e0a11002 	adc	r1, r1, r2
    1150:	e1a01501 	lsl	r1, r1, #10
    1154:	e1811b20 	orr	r1, r1, r0, lsr #22
    1158:	e59f203c 	ldr	r2, [pc, #60]	; 0x119c
    115c:	e3a03000 	mov	r3, #0
    1160:	e1a00500 	lsl	r0, r0, #10
    1164:	eb000bbe 	bl	0x4064
    1168:	e5943008 	ldr	r3, [r4, #8]
    116c:	e5952000 	ldr	r2, [r5]
    1170:	e0400003 	sub	r0, r0, r3
    1174:	e5923008 	ldr	r3, [r2, #8]
    1178:	e5840008 	str	r0, [r4, #8]
    117c:	e1a0e00f 	mov	lr, pc
    1180:	e12fff13 	bx	r3
    1184:	e5840000 	str	r0, [r4]
    1188:	e8bd4070 	pop	{r4, r5, r6, lr}
    118c:	e12fff1e 	bx	lr
    1190:	03000154 	tsteq	r0, #84, 2
    1194:	03000020 	tsteq	r0, #32
    1198:	04000100 	streq	r0, [r0], #-256	; 0xffffff00
    119c:	02faf080 	rscseq	pc, sl, #128	; 0x80
    11a0:	e2520000 	subs	r0, r2, #0
    11a4:	012fff1e 	bxeq	lr
    11a8:	e59f3024 	ldr	r3, [pc, #36]	; 0x11d4
    11ac:	e5933000 	ldr	r3, [r3]
    11b0:	e92d4010 	push	{r4, lr}
    11b4:	e5933008 	ldr	r3, [r3, #8]
    11b8:	e0833103 	add	r3, r3, r3, lsl #2
    11bc:	e0833103 	add	r3, r3, r3, lsl #2
    11c0:	e1a01000 	mov	r1, r0
    11c4:	e1a00103 	lsl	r0, r3, #2
    11c8:	eb000b0d 	bl	0x3e04
    11cc:	e8bd4010 	pop	{r4, lr}
    11d0:	e12fff1e 	bx	lr
    11d4:	03000158 	tsteq	r0, #88, 2
    11d8:	e59f3070 	ldr	r3, [pc, #112]	; 0x1250
    11dc:	e92d4070 	push	{r4, r5, r6, lr}
    11e0:	e5935064 	ldr	r5, [r3, #100]	; 0x64
    11e4:	e215200f 	ands	r2, r5, #15
    11e8:	12622010 	rsbne	r2, r2, #16
    11ec:	10855002 	addne	r5, r5, r2
    11f0:	e0854000 	add	r4, r5, r0
    11f4:	e28464fe 	add	r6, r4, #-33554432	; 0xfe000000
    11f8:	e3560701 	cmp	r6, #262144	; 0x40000
    11fc:	23a00000 	movcs	r0, #0
    1200:	33a00001 	movcc	r0, #1
    1204:	e5834064 	str	r4, [r3, #100]	; 0x64
    1208:	ebfffed1 	bl	0xd54
    120c:	e1540005 	cmp	r4, r5
    1210:	0a000004 	beq	0x1228
    1214:	e1a03005 	mov	r3, r5
    1218:	e3a02000 	mov	r2, #0
    121c:	e4c32001 	strb	r2, [r3], #1
    1220:	e1540003 	cmp	r4, r3
    1224:	1afffffc 	bne	0x121c
    1228:	e59f3024 	ldr	r3, [pc, #36]	; 0x1254
    122c:	e5933000 	ldr	r3, [r3]
    1230:	e5930004 	ldr	r0, [r3, #4]
    1234:	e1560000 	cmp	r6, r0
    1238:	83a00000 	movhi	r0, #0
    123c:	93a00001 	movls	r0, #1
    1240:	ebfffec3 	bl	0xd54
    1244:	e1a00005 	mov	r0, r5
    1248:	e8bd4070 	pop	{r4, r5, r6, lr}
    124c:	e12fff1e 	bx	lr
    1250:	03000020 	tsteq	r0, #32
    1254:	03000158 	tsteq	r0, #88, 2
    1258:	e12fff1e 	bx	lr
    125c:	e3a02402 	mov	r2, #33554432	; 0x2000000
    1260:	e59f3004 	ldr	r3, [pc, #4]	; 0x126c
    1264:	e5832064 	str	r2, [r3, #100]	; 0x64
    1268:	e12fff1e 	bx	lr
    126c:	03000020 	tsteq	r0, #32
    1270:	e1a00880 	lsl	r0, r0, #17
    1274:	e59f3008 	ldr	r3, [pc, #8]	; 0x1284
    1278:	e1a008a0 	lsr	r0, r0, #17
    127c:	e5830208 	str	r0, [r3, #520]	; 0x208
    1280:	e12fff1e 	bx	lr
    1284:	030001e8 	tsteq	r0, #232, 2	; 0x3a
    1288:	e59f201c 	ldr	r2, [pc, #28]	; 0x12ac
    128c:	e59f101c 	ldr	r1, [pc, #28]	; 0x12b0
    1290:	e5923208 	ldr	r3, [r2, #520]	; 0x208
    1294:	e59f0018 	ldr	r0, [pc, #24]	; 0x12b4
    1298:	e02c0391 	mla	ip, r1, r3, r0
    129c:	e59f0014 	ldr	r0, [pc, #20]	; 0x12b8
    12a0:	e582c208 	str	ip, [r2, #520]	; 0x208
    12a4:	e000084c 	and	r0, r0, ip, asr #16
    12a8:	e12fff1e 	bx	lr
    12ac:	030001e8 	tsteq	r0, #232, 2	; 0x3a
    12b0:	000343fd 			; <UNDEFINED> instruction: 0x000343fd
    12b4:	00269ec3 	eoreq	r9, r6, r3, asr #29
    12b8:	00007fff 			; <UNDEFINED> instruction: 0x00007fff
    12bc:	e59f3028 	ldr	r3, [pc, #40]	; 0x12ec
    12c0:	ea000000 	b	0x12c8
    12c4:	e3a03102 	mov	r3, #-2147483648	; 0x80000000
    12c8:	e2800004 	add	r0, r0, #4
    12cc:	e1500001 	cmp	r0, r1
    12d0:	3afffffb 	bcc	0x12c4
    12d4:	e0830683 	add	r0, r3, r3, lsl #13
    12d8:	e02003c0 	eor	r0, r0, r0, asr #7
    12dc:	e0800180 	add	r0, r0, r0, lsl #3
    12e0:	e02008c0 	eor	r0, r0, r0, asr #17
    12e4:	e0800280 	add	r0, r0, r0, lsl #5
    12e8:	e12fff1e 	bx	lr
    12ec:	811c9dc5 	tsthi	ip, r5, asr #27
    12f0:	e92d4ff0 	push	{r4, r5, r6, r7, r8, r9, sl, fp, lr}
    12f4:	e59f52ac 	ldr	r5, [pc, #684]	; 0x15a8
    12f8:	e5950000 	ldr	r0, [r5]
    12fc:	e5d03000 	ldrb	r3, [r0]
    1300:	e3530000 	cmp	r3, #0
    1304:	e595e004 	ldr	lr, [r5, #4]
    1308:	0a0000a4 	beq	0x15a0
    130c:	e3a01000 	mov	r1, #0
    1310:	e3a0b001 	mov	fp, #1
    1314:	e1a06001 	mov	r6, r1
    1318:	e1a02001 	mov	r2, r1
    131c:	e3a0a007 	mov	sl, #7
    1320:	e3a09006 	mov	r9, #6
    1324:	e2857008 	add	r7, r5, #8
    1328:	e8971080 	ldm	r7, {r7, ip}
    132c:	e59f4278 	ldr	r4, [pc, #632]	; 0x15ac
    1330:	e243302b 	sub	r3, r3, #43	; 0x2b
    1334:	e3530032 	cmp	r3, #50	; 0x32
    1338:	979ff103 	ldrls	pc, [pc, r3, lsl #2]
    133c:	ea000042 	b	0x144c
    1340:	08001500 	stmdaeq	r0, {r8, sl, ip}
    1344:	0800151c 	stmdaeq	r0, {r2, r3, r4, r8, sl, ip}
    1348:	080014e4 	stmdaeq	r0, {r2, r5, r6, r7, sl, ip}
    134c:	08001550 	stmdaeq	r0, {r4, r6, r8, sl, ip}
    1350:	0800144c 	stmdaeq	r0, {r2, r3, r6, sl, ip}
    1354:	0800144c 	stmdaeq	r0, {r2, r3, r6, sl, ip}
    1358:	0800144c 	stmdaeq	r0, {r2, r3, r6, sl, ip}
    135c:	0800144c 	stmdaeq	r0, {r2, r3, r6, sl, ip}
    1360:	0800144c 	stmdaeq	r0, {r2, r3, r6, sl, ip}
    1364:	0800144c 	stmdaeq	r0, {r2, r3, r6, sl, ip}
    1368:	0800144c 	stmdaeq	r0, {r2, r3, r6, sl, ip}
    136c:	0800144c 	stmdaeq	r0, {r2, r3, r6, sl, ip}
    1370:	0800144c 	stmdaeq	r0, {r2, r3, r6, sl, ip}
    1374:	0800144c 	stmdaeq	r0, {r2, r3, r6, sl, ip}
    1378:	0800144c 	stmdaeq	r0, {r2, r3, r6, sl, ip}
    137c:	0800144c 	stmdaeq	r0, {r2, r3, r6, sl, ip}
    1380:	0800144c 	stmdaeq	r0, {r2, r3, r6, sl, ip}
    1384:	08001534 	stmdaeq	r0, {r2, r4, r5, r8, sl, ip}
    1388:	0800144c 	stmdaeq	r0, {r2, r3, r6, sl, ip}
    138c:	0800156c 	stmdaeq	r0, {r2, r3, r5, r6, r8, sl, ip}
    1390:	0800144c 	stmdaeq	r0, {r2, r3, r6, sl, ip}
    1394:	0800144c 	stmdaeq	r0, {r2, r3, r6, sl, ip}
    1398:	0800144c 	stmdaeq	r0, {r2, r3, r6, sl, ip}
    139c:	0800144c 	stmdaeq	r0, {r2, r3, r6, sl, ip}
    13a0:	0800144c 	stmdaeq	r0, {r2, r3, r6, sl, ip}
    13a4:	0800144c 	stmdaeq	r0, {r2, r3, r6, sl, ip}
    13a8:	0800144c 	stmdaeq	r0, {r2, r3, r6, sl, ip}
    13ac:	0800144c 	stmdaeq	r0, {r2, r3, r6, sl, ip}
    13b0:	0800144c 	stmdaeq	r0, {r2, r3, r6, sl, ip}
    13b4:	0800144c 	stmdaeq	r0, {r2, r3, r6, sl, ip}
    13b8:	0800144c 	stmdaeq	r0, {r2, r3, r6, sl, ip}
    13bc:	0800144c 	stmdaeq	r0, {r2, r3, r6, sl, ip}
    13c0:	0800144c 	stmdaeq	r0, {r2, r3, r6, sl, ip}
    13c4:	0800144c 	stmdaeq	r0, {r2, r3, r6, sl, ip}
    13c8:	0800144c 	stmdaeq	r0, {r2, r3, r6, sl, ip}
    13cc:	0800144c 	stmdaeq	r0, {r2, r3, r6, sl, ip}
    13d0:	0800144c 	stmdaeq	r0, {r2, r3, r6, sl, ip}
    13d4:	0800144c 	stmdaeq	r0, {r2, r3, r6, sl, ip}
    13d8:	0800144c 	stmdaeq	r0, {r2, r3, r6, sl, ip}
    13dc:	0800144c 	stmdaeq	r0, {r2, r3, r6, sl, ip}
    13e0:	0800144c 	stmdaeq	r0, {r2, r3, r6, sl, ip}
    13e4:	0800144c 	stmdaeq	r0, {r2, r3, r6, sl, ip}
    13e8:	0800144c 	stmdaeq	r0, {r2, r3, r6, sl, ip}
    13ec:	0800144c 	stmdaeq	r0, {r2, r3, r6, sl, ip}
    13f0:	0800144c 	stmdaeq	r0, {r2, r3, r6, sl, ip}
    13f4:	0800144c 	stmdaeq	r0, {r2, r3, r6, sl, ip}
    13f8:	0800144c 	stmdaeq	r0, {r2, r3, r6, sl, ip}
    13fc:	0800144c 	stmdaeq	r0, {r2, r3, r6, sl, ip}
    1400:	080014b4 	stmdaeq	r0, {r2, r4, r5, r7, sl, ip}
    1404:	0800144c 	stmdaeq	r0, {r2, r3, r6, sl, ip}
    1408:	0800140c 	stmdaeq	r0, {r2, r3, sl, ip}
    140c:	e35e0000 	cmp	lr, #0
    1410:	0a00005b 	beq	0x1584
    1414:	e3a06001 	mov	r6, #1
    1418:	e3a08008 	mov	r8, #8
    141c:	e24ee001 	sub	lr, lr, #1
    1420:	e1a0361e 	lsl	r3, lr, r6
    1424:	e19730b3 	ldrh	r3, [r7, r3]
    1428:	e1a01102 	lsl	r1, r2, #2
    142c:	e18c80b1 	strh	r8, [ip, r1]
    1430:	e08c1001 	add	r1, ip, r1
    1434:	e1c130b2 	strh	r3, [r1, #2]
    1438:	e08c3103 	add	r3, ip, r3, lsl #2
    143c:	e0821006 	add	r1, r2, r6
    1440:	e1c320b2 	strh	r2, [r3, #2]
    1444:	e1a02801 	lsl	r2, r1, #16
    1448:	e1a02822 	lsr	r2, r2, #16
    144c:	e5f03001 	ldrb	r3, [r0, #1]!
    1450:	e2731001 	rsbs	r1, r3, #1
    1454:	33a01000 	movcc	r1, #0
    1458:	e1520004 	cmp	r2, r4
    145c:	83811001 	orrhi	r1, r1, #1
    1460:	e3510000 	cmp	r1, #0
    1464:	e3a01001 	mov	r1, #1
    1468:	0affffb0 	beq	0x1330
    146c:	e3560000 	cmp	r6, #0
    1470:	1585e004 	strne	lr, [r5, #4]
    1474:	e2421a01 	sub	r1, r2, #4096	; 0x1000
    1478:	e2713000 	rsbs	r3, r1, #0
    147c:	e5850000 	str	r0, [r5]
    1480:	e595e004 	ldr	lr, [r5, #4]
    1484:	e0a33001 	adc	r3, r3, r1
    1488:	e35e0000 	cmp	lr, #0
    148c:	01a0e003 	moveq	lr, r3
    1490:	13a0e001 	movne	lr, #1
    1494:	e35e0000 	cmp	lr, #0
    1498:	1a00003d 	bne	0x1594
    149c:	e595300c 	ldr	r3, [r5, #12]
    14a0:	e1a02102 	lsl	r2, r2, #2
    14a4:	e1a0000e 	mov	r0, lr
    14a8:	e183e0b2 	strh	lr, [r3, r2]
    14ac:	e8bd4ff0 	pop	{r4, r5, r6, r7, r8, r9, sl, fp, lr}
    14b0:	e12fff1e 	bx	lr
    14b4:	e1a03102 	lsl	r3, r2, #2
    14b8:	e35e0c02 	cmp	lr, #512	; 0x200
    14bc:	e18ca0b3 	strh	sl, [ip, r3]
    14c0:	0a00002f 	beq	0x1584
    14c4:	e1a0108e 	lsl	r1, lr, #1
    14c8:	e2823001 	add	r3, r2, #1
    14cc:	e18720b1 	strh	r2, [r7, r1]
    14d0:	e1a02803 	lsl	r2, r3, #16
    14d4:	e1a02822 	lsr	r2, r2, #16
    14d8:	e28ee001 	add	lr, lr, #1
    14dc:	e3a06001 	mov	r6, #1
    14e0:	eaffffd9 	b	0x144c
    14e4:	e2821001 	add	r1, r2, #1
    14e8:	e1a03102 	lsl	r3, r2, #2
    14ec:	e1a02801 	lsl	r2, r1, #16
    14f0:	e3a01004 	mov	r1, #4
    14f4:	e1a02822 	lsr	r2, r2, #16
    14f8:	e18c10b3 	strh	r1, [ip, r3]
    14fc:	eaffffd2 	b	0x144c
    1500:	e2821001 	add	r1, r2, #1
    1504:	e1a03102 	lsl	r3, r2, #2
    1508:	e1a02801 	lsl	r2, r1, #16
    150c:	e3a01003 	mov	r1, #3
    1510:	e1a02822 	lsr	r2, r2, #16
    1514:	e18c10b3 	strh	r1, [ip, r3]
    1518:	eaffffcb 	b	0x144c
    151c:	e2821001 	add	r1, r2, #1
    1520:	e1a03102 	lsl	r3, r2, #2
    1524:	e1a02801 	lsl	r2, r1, #16
    1528:	e1a02822 	lsr	r2, r2, #16
    152c:	e18c90b3 	strh	r9, [ip, r3]
    1530:	eaffffc5 	b	0x144c
    1534:	e2821001 	add	r1, r2, #1
    1538:	e1a03102 	lsl	r3, r2, #2
    153c:	e1a02801 	lsl	r2, r1, #16
    1540:	e3a01002 	mov	r1, #2
    1544:	e1a02822 	lsr	r2, r2, #16
    1548:	e18c10b3 	strh	r1, [ip, r3]
    154c:	eaffffbe 	b	0x144c
    1550:	e2821001 	add	r1, r2, #1
    1554:	e1a03102 	lsl	r3, r2, #2
    1558:	e1a02801 	lsl	r2, r1, #16
    155c:	e3a01005 	mov	r1, #5
    1560:	e1a02822 	lsr	r2, r2, #16
    1564:	e18c10b3 	strh	r1, [ip, r3]
    1568:	eaffffb7 	b	0x144c
    156c:	e2821001 	add	r1, r2, #1
    1570:	e1a03102 	lsl	r3, r2, #2
    1574:	e1a02801 	lsl	r2, r1, #16
    1578:	e1a02822 	lsr	r2, r2, #16
    157c:	e18cb0b3 	strh	fp, [ip, r3]
    1580:	eaffffb1 	b	0x144c
    1584:	e3560000 	cmp	r6, #0
    1588:	1585e004 	strne	lr, [r5, #4]
    158c:	e3510000 	cmp	r1, #0
    1590:	15850000 	strne	r0, [r5]
    1594:	e3a00001 	mov	r0, #1
    1598:	e8bd4ff0 	pop	{r4, r5, r6, r7, r8, r9, sl, fp, lr}
    159c:	e12fff1e 	bx	lr
    15a0:	e1a02003 	mov	r2, r3
    15a4:	eaffffb7 	b	0x1488
    15a8:	03000088 	tsteq	r0, #136	; 0x88
    15ac:	00000fff 			; <UNDEFINED> instruction: 0x00000fff
    15b0:	e92d4ff0 	push	{r4, r5, r6, r7, r8, r9, sl, fp, lr}
    15b4:	e59f7144 	ldr	r7, [pc, #324]	; 0x1700
    15b8:	e597000c 	ldr	r0, [r7, #12]
    15bc:	e1d030b0 	ldrh	r3, [r0]
    15c0:	e3530000 	cmp	r3, #0
    15c4:	0a000032 	beq	0x1694
    15c8:	e3a06000 	mov	r6, #0
    15cc:	e1a0a000 	mov	sl, r0
    15d0:	e1a0c006 	mov	ip, r6
    15d4:	e1a01006 	mov	r1, r6
    15d8:	e5974010 	ldr	r4, [r7, #16]
    15dc:	e59f5120 	ldr	r5, [pc, #288]	; 0x1704
    15e0:	e59f9120 	ldr	r9, [pc, #288]	; 0x1708
    15e4:	e59f8120 	ldr	r8, [pc, #288]	; 0x170c
    15e8:	e59fe120 	ldr	lr, [pc, #288]	; 0x1710
    15ec:	e2433001 	sub	r3, r3, #1
    15f0:	e3530007 	cmp	r3, #7
    15f4:	979ff103 	ldrls	pc, [pc, r3, lsl #2]
    15f8:	ea000023 	b	0x168c
    15fc:	080016f8 	stmdaeq	r0, {r3, r4, r5, r6, r7, r9, sl, ip}
    1600:	080016b4 	stmdaeq	r0, {r2, r4, r5, r7, r9, sl, ip}
    1604:	0800169c 	stmdaeq	r0, {r2, r3, r4, r7, r9, sl, ip}
    1608:	080016e0 	stmdaeq	r0, {r5, r6, r7, r9, sl, ip}
    160c:	080016bc 	stmdaeq	r0, {r2, r3, r4, r5, r7, r9, sl, ip}
    1610:	0800164c 	stmdaeq	r0, {r2, r3, r6, r9, sl, ip}
    1614:	08001634 	stmdaeq	r0, {r2, r4, r5, r9, sl, ip}
    1618:	0800161c 	stmdaeq	r0, {r2, r3, r4, r9, sl, ip}
    161c:	e5952000 	ldr	r2, [r5]
    1620:	e1a0308c 	lsl	r3, ip, #1
    1624:	e19230b3 	ldrh	r3, [r2, r3]
    1628:	e3530000 	cmp	r3, #0
    162c:	11da10b2 	ldrhne	r1, [sl, #2]
    1630:	ea00000a 	b	0x1660
    1634:	e5952000 	ldr	r2, [r5]
    1638:	e1a0308c 	lsl	r3, ip, #1
    163c:	e19230b3 	ldrh	r3, [r2, r3]
    1640:	e3530000 	cmp	r3, #0
    1644:	01da10b2 	ldrheq	r1, [sl, #2]
    1648:	ea000004 	b	0x1660
    164c:	e4d46001 	ldrb	r6, [r4], #1
    1650:	e5952000 	ldr	r2, [r5]
    1654:	e1a0308c 	lsl	r3, ip, #1
    1658:	e18260b3 	strh	r6, [r2, r3]
    165c:	e3a06001 	mov	r6, #1
    1660:	e2811001 	add	r1, r1, #1
    1664:	e1a0a101 	lsl	sl, r1, #2
    1668:	e19030ba 	ldrh	r3, [r0, sl]
    166c:	e15c000e 	cmp	ip, lr
    1670:	83a02000 	movhi	r2, #0
    1674:	93a02001 	movls	r2, #1
    1678:	e3530000 	cmp	r3, #0
    167c:	03a02000 	moveq	r2, #0
    1680:	e3520000 	cmp	r2, #0
    1684:	e080a00a 	add	sl, r0, sl
    1688:	1affffd7 	bne	0x15ec
    168c:	e3560000 	cmp	r6, #0
    1690:	15874010 	strne	r4, [r7, #16]
    1694:	e8bd4ff0 	pop	{r4, r5, r6, r7, r8, r9, sl, fp, lr}
    1698:	e12fff1e 	bx	lr
    169c:	e595a000 	ldr	sl, [r5]
    16a0:	e1a0208c 	lsl	r2, ip, #1
    16a4:	e19a30b2 	ldrh	r3, [sl, r2]
    16a8:	e2833001 	add	r3, r3, #1
    16ac:	e18a30b2 	strh	r3, [sl, r2]
    16b0:	eaffffea 	b	0x1660
    16b4:	e24cc001 	sub	ip, ip, #1
    16b8:	eaffffe8 	b	0x1660
    16bc:	e595a000 	ldr	sl, [r5]
    16c0:	e5982000 	ldr	r2, [r8]
    16c4:	e1a0308c 	lsl	r3, ip, #1
    16c8:	e19aa0b3 	ldrh	sl, [sl, r3]
    16cc:	e5993000 	ldr	r3, [r9]
    16d0:	e282b001 	add	fp, r2, #1
    16d4:	e588b000 	str	fp, [r8]
    16d8:	e7c3a002 	strb	sl, [r3, r2]
    16dc:	eaffffdf 	b	0x1660
    16e0:	e595a000 	ldr	sl, [r5]
    16e4:	e1a0208c 	lsl	r2, ip, #1
    16e8:	e19a30b2 	ldrh	r3, [sl, r2]
    16ec:	e2433001 	sub	r3, r3, #1
    16f0:	e18a30b2 	strh	r3, [sl, r2]
    16f4:	eaffffd9 	b	0x1660
    16f8:	e28cc001 	add	ip, ip, #1
    16fc:	eaffffd7 	b	0x1660
    1700:	03000088 	tsteq	r0, #136	; 0x88
    1704:	03000160 	tsteq	r0, #96, 2
    1708:	0300015c 	tsteq	r0, #92, 2
    170c:	03000164 	tsteq	r0, #100, 2
    1710:	00000fff 			; <UNDEFINED> instruction: 0x00000fff
    1714:	e92d41f0 	push	{r4, r5, r6, r7, r8, lr}
    1718:	e3a04000 	mov	r4, #0
    171c:	e59f30c4 	ldr	r3, [pc, #196]	; 0x17e8
    1720:	e5933000 	ldr	r3, [r3]
    1724:	e59f70c0 	ldr	r7, [pc, #192]	; 0x17ec
    1728:	e5933000 	ldr	r3, [r3]
    172c:	e3a00901 	mov	r0, #16384	; 0x4000
    1730:	e5873014 	str	r3, [r7, #20]
    1734:	e5874004 	str	r4, [r7, #4]
    1738:	ebfffea6 	bl	0x11d8
    173c:	e587000c 	str	r0, [r7, #12]
    1740:	e3a00b01 	mov	r0, #1024	; 0x400
    1744:	ebfffea3 	bl	0x11d8
    1748:	e5870008 	str	r0, [r7, #8]
    174c:	e3a00a02 	mov	r0, #8192	; 0x2000
    1750:	ebfffea0 	bl	0x11d8
    1754:	e59f1094 	ldr	r1, [pc, #148]	; 0x17f0
    1758:	e5972014 	ldr	r2, [r7, #20]
    175c:	e59f3090 	ldr	r3, [pc, #144]	; 0x17f4
    1760:	e5810000 	str	r0, [r1]
    1764:	e2820001 	add	r0, r2, #1
    1768:	e5873000 	str	r3, [r7]
    176c:	ebfffe99 	bl	0x11d8
    1770:	e5870010 	str	r0, [r7, #16]
    1774:	e3a00a01 	mov	r0, #4096	; 0x1000
    1778:	ebfffe96 	bl	0x11d8
    177c:	e59f2074 	ldr	r2, [pc, #116]	; 0x17f8
    1780:	e59f3074 	ldr	r3, [pc, #116]	; 0x17fc
    1784:	e5820000 	str	r0, [r2]
    1788:	e3a00001 	mov	r0, #1
    178c:	e5834000 	str	r4, [r3]
    1790:	ebfffeb6 	bl	0x1270
    1794:	e5973014 	ldr	r3, [r7, #20]
    1798:	e1530004 	cmp	r3, r4
    179c:	da00000f 	ble	0x17e0
    17a0:	e59f6058 	ldr	r6, [pc, #88]	; 0x1800
    17a4:	e59f5058 	ldr	r5, [pc, #88]	; 0x1804
    17a8:	ebfffeb6 	bl	0x1288
    17ac:	e0c23095 	smull	r3, r2, r5, r0
    17b0:	e1a03fc0 	asr	r3, r0, #31
    17b4:	e0822000 	add	r2, r2, r0
    17b8:	e06332c2 	rsb	r3, r3, r2, asr #5
    17bc:	e0633283 	rsb	r3, r3, r3, lsl #5
    17c0:	e0400083 	sub	r0, r0, r3, lsl #1
    17c4:	e2872010 	add	r2, r7, #16
    17c8:	e892000c 	ldm	r2, {r2, r3}
    17cc:	e7d61000 	ldrb	r1, [r6, r0]
    17d0:	e7c21004 	strb	r1, [r2, r4]
    17d4:	e2844001 	add	r4, r4, #1
    17d8:	e1530004 	cmp	r3, r4
    17dc:	cafffff1 	bgt	0x17a8
    17e0:	e8bd41f0 	pop	{r4, r5, r6, r7, r8, lr}
    17e4:	e12fff1e 	bx	lr
    17e8:	03000158 	tsteq	r0, #88, 2
    17ec:	03000088 	tsteq	r0, #136	; 0x88
    17f0:	03000160 	tsteq	r0, #96, 2
    17f4:	080068dc 	stmdaeq	r0, {r2, r3, r4, r6, r7, fp, sp, lr}
    17f8:	0300015c 	tsteq	r0, #92, 2
    17fc:	03000164 	tsteq	r0, #100, 2
    1800:	08006990 	stmdaeq	r0, {r4, r7, r8, fp, sp, lr}
    1804:	84210843 	strthi	r0, [r1], #-2115	; 0xfffff7bd
    1808:	e92d4010 	push	{r4, lr}
    180c:	ebfffeb7 	bl	0x12f0
    1810:	e8bd4010 	pop	{r4, lr}
    1814:	eaffff65 	b	0x15b0
    1818:	e92d4010 	push	{r4, lr}
    181c:	e59f304c 	ldr	r3, [pc, #76]	; 0x1870
    1820:	e59f404c 	ldr	r4, [pc, #76]	; 0x1874
    1824:	e5933000 	ldr	r3, [r3]
    1828:	e5941000 	ldr	r1, [r4]
    182c:	e1a00003 	mov	r0, r3
    1830:	e0831001 	add	r1, r3, r1
    1834:	ebfffea0 	bl	0x12bc
    1838:	e59f3038 	ldr	r3, [pc, #56]	; 0x1878
    183c:	e5942000 	ldr	r2, [r4]
    1840:	e5933014 	ldr	r3, [r3, #20]
    1844:	e1520003 	cmp	r2, r3
    1848:	13a00000 	movne	r0, #0
    184c:	1a000005 	bne	0x1868
    1850:	e59f3024 	ldr	r3, [pc, #36]	; 0x187c
    1854:	e5933000 	ldr	r3, [r3]
    1858:	e593300c 	ldr	r3, [r3, #12]
    185c:	e0433000 	sub	r3, r3, r0
    1860:	e2730000 	rsbs	r0, r3, #0
    1864:	e0a00003 	adc	r0, r0, r3
    1868:	e8bd4010 	pop	{r4, lr}
    186c:	e12fff1e 	bx	lr
    1870:	0300015c 	tsteq	r0, #92, 2
    1874:	03000164 	tsteq	r0, #100, 2
    1878:	03000088 	tsteq	r0, #136	; 0x88
    187c:	03000158 	tsteq	r0, #88, 2
    1880:	e0801101 	add	r1, r0, r1, lsl #2
    1884:	e92d4ff8 	push	{r3, r4, r5, r6, r7, r8, r9, sl, fp, lr}
    1888:	e2813aa3 	add	r3, r1, #667648	; 0xa3000
    188c:	e5934124 	ldr	r4, [r3, #292]	; 0x124
    1890:	e3740001 	cmn	r4, #1
    1894:	0a000033 	beq	0x1968
    1898:	e1a05000 	mov	r5, r0
    189c:	e1a07002 	mov	r7, r2
    18a0:	e3a0a000 	mov	sl, #0
    18a4:	e59f80cc 	ldr	r8, [pc, #204]	; 0x1978
    18a8:	e59f90cc 	ldr	r9, [pc, #204]	; 0x197c
    18ac:	e2816aa2 	add	r6, r1, #663552	; 0xa2000
    18b0:	ea000003 	b	0x18c4
    18b4:	e0844009 	add	r4, r4, r9
    18b8:	e7954104 	ldr	r4, [r5, r4, lsl #2]
    18bc:	e3740001 	cmn	r4, #1
    18c0:	0a000025 	beq	0x195c
    18c4:	e0853204 	add	r3, r5, r4, lsl #4
    18c8:	e5931014 	ldr	r1, [r3, #20]
    18cc:	e0812008 	add	r2, r1, r8
    18d0:	e0852102 	add	r2, r5, r2, lsl #2
    18d4:	e5963d1c 	ldr	r3, [r6, #3356]	; 0xd1c
    18d8:	e5922004 	ldr	r2, [r2, #4]
    18dc:	e2833001 	add	r3, r3, #1
    18e0:	e1530002 	cmp	r3, r2
    18e4:	1afffff2 	bne	0x18b4
    18e8:	e1a0b204 	lsl	fp, r4, #4
    18ec:	e085300b 	add	r3, r5, fp
    18f0:	e2833018 	add	r3, r3, #24
    18f4:	e893000c 	ldm	r3, {r2, r3}
    18f8:	e0422003 	sub	r2, r2, r3
    18fc:	e595300c 	ldr	r3, [r5, #12]
    1900:	e1520007 	cmp	r2, r7
    1904:	a1a02007 	movge	r2, r7
    1908:	e1510003 	cmp	r1, r3
    190c:	0a000004 	beq	0x1924
    1910:	e3520000 	cmp	r2, #0
    1914:	0affffe6 	beq	0x18b4
    1918:	e1a00005 	mov	r0, r5
    191c:	ebffffd7 	bl	0x1880
    1920:	e1a02000 	mov	r2, r0
    1924:	e2243001 	eor	r3, r4, #1
    1928:	e3520000 	cmp	r2, #0
    192c:	e085b00b 	add	fp, r5, fp
    1930:	e0853203 	add	r3, r5, r3, lsl #4
    1934:	daffffde 	ble	0x18b4
    1938:	e59b101c 	ldr	r1, [fp, #28]
    193c:	e0811002 	add	r1, r1, r2
    1940:	e58b101c 	str	r1, [fp, #28]
    1944:	e593101c 	ldr	r1, [r3, #28]
    1948:	e0577002 	subs	r7, r7, r2
    194c:	e0411002 	sub	r1, r1, r2
    1950:	e08aa002 	add	sl, sl, r2
    1954:	e583101c 	str	r1, [r3, #28]
    1958:	1affffd5 	bne	0x18b4
    195c:	e1a0000a 	mov	r0, sl
    1960:	e8bd4ff8 	pop	{r3, r4, r5, r6, r7, r8, r9, sl, fp, lr}
    1964:	e12fff1e 	bx	lr
    1968:	e3a0a000 	mov	sl, #0
    196c:	e1a0000a 	mov	r0, sl
    1970:	e8bd4ff8 	pop	{r3, r4, r5, r6, r7, r8, r9, sl, fp, lr}
    1974:	e12fff1e 	bx	lr
    1978:	00028b46 	andeq	r8, r2, r6, asr #22
    197c:	00020906 	andeq	r0, r2, r6, lsl #18
    1980:	e92d4ff0 	push	{r4, r5, r6, r7, r8, r9, sl, fp, lr}
    1984:	e59f32c8 	ldr	r3, [pc, #712]	; 0x1c54
    1988:	e5933000 	ldr	r3, [r3]
    198c:	e59f92c4 	ldr	r9, [pc, #708]	; 0x1c58
    1990:	e5933000 	ldr	r3, [r3]
    1994:	e24dd00c 	sub	sp, sp, #12
    1998:	e3a00001 	mov	r0, #1
    199c:	e5893000 	str	r3, [r9]
    19a0:	ebfffe32 	bl	0x1270
    19a4:	e5998000 	ldr	r8, [r9]
    19a8:	e1a03088 	lsl	r3, r8, #1
    19ac:	e1a04003 	mov	r4, r3
    19b0:	e59f02a4 	ldr	r0, [pc, #676]	; 0x1c5c
    19b4:	e58d3004 	str	r3, [sp, #4]
    19b8:	ebfffe06 	bl	0x11d8
    19bc:	e5998000 	ldr	r8, [r9]
    19c0:	e2882001 	add	r2, r8, #1
    19c4:	e1a01082 	lsl	r1, r2, #1
    19c8:	e2843001 	add	r3, r4, #1
    19cc:	e3510000 	cmp	r1, #0
    19d0:	e5890004 	str	r0, [r9, #4]
    19d4:	e5801000 	str	r1, [r0]
    19d8:	e58d3000 	str	r3, [sp]
    19dc:	da000008 	ble	0x1a04
    19e0:	e3e0c000 	mvn	ip, #0
    19e4:	e0802182 	add	r2, r0, r2, lsl #3
    19e8:	e2821a82 	add	r1, r2, #532480	; 0x82000
    19ec:	e2802a82 	add	r2, r0, #532480	; 0x82000
    19f0:	e281100c 	add	r1, r1, #12
    19f4:	e282200c 	add	r2, r2, #12
    19f8:	e5a2c004 	str	ip, [r2, #4]!
    19fc:	e1520001 	cmp	r2, r1
    1a00:	1afffffc 	bne	0x19f8
    1a04:	e3a0a000 	mov	sl, #0
    1a08:	e158000a 	cmp	r8, sl
    1a0c:	e580a004 	str	sl, [r0, #4]
    1a10:	da00008c 	ble	0x1c48
    1a14:	e59f7244 	ldr	r7, [pc, #580]	; 0x1c60
    1a18:	e59f6244 	ldr	r6, [pc, #580]	; 0x1c64
    1a1c:	e3a05000 	mov	r5, #0
    1a20:	e1a0b005 	mov	fp, r5
    1a24:	e5994004 	ldr	r4, [r9, #4]
    1a28:	ebfffe16 	bl	0x1288
    1a2c:	e0c23097 	smull	r3, r2, r7, r0
    1a30:	e1a03fc0 	asr	r3, r0, #31
    1a34:	e0633142 	rsb	r3, r3, r2, asr #2
    1a38:	e0833103 	add	r3, r3, r3, lsl #2
    1a3c:	e0503083 	subs	r3, r0, r3, lsl #1
    1a40:	0a00001e 	beq	0x1ac0
    1a44:	e5942004 	ldr	r2, [r4, #4]
    1a48:	e2822001 	add	r2, r2, #1
    1a4c:	e0841202 	add	r1, r4, r2, lsl #4
    1a50:	e0888005 	add	r8, r8, r5
    1a54:	e784a202 	str	sl, [r4, r2, lsl #4]
    1a58:	e5818004 	str	r8, [r1, #4]
    1a5c:	e5813008 	str	r3, [r1, #8]
    1a60:	e581b00c 	str	fp, [r1, #12]
    1a64:	e084310a 	add	r3, r4, sl, lsl #2
    1a68:	e5942004 	ldr	r2, [r4, #4]
    1a6c:	e2833a82 	add	r3, r3, #532480	; 0x82000
    1a70:	e593c010 	ldr	ip, [r3, #16]
    1a74:	e2820002 	add	r0, r2, #2
    1a78:	e0821006 	add	r1, r2, r6
    1a7c:	e784c101 	str	ip, [r4, r1, lsl #2]
    1a80:	e0841200 	add	r1, r4, r0, lsl #4
    1a84:	e282c001 	add	ip, r2, #1
    1a88:	e584c004 	str	ip, [r4, #4]
    1a8c:	e5832010 	str	r2, [r3, #16]
    1a90:	e7848200 	str	r8, [r4, r0, lsl #4]
    1a94:	e9810c00 	stmib	r1, {sl, fp}
    1a98:	e581b00c 	str	fp, [r1, #12]
    1a9c:	e0848108 	add	r8, r4, r8, lsl #2
    1aa0:	e5943004 	ldr	r3, [r4, #4]
    1aa4:	e2888a82 	add	r8, r8, #532480	; 0x82000
    1aa8:	e5980010 	ldr	r0, [r8, #16]
    1aac:	e0831006 	add	r1, r3, r6
    1ab0:	e2832001 	add	r2, r3, #1
    1ab4:	e7840101 	str	r0, [r4, r1, lsl #2]
    1ab8:	e5842004 	str	r2, [r4, #4]
    1abc:	e5883010 	str	r3, [r8, #16]
    1ac0:	e5998000 	ldr	r8, [r9]
    1ac4:	e2855001 	add	r5, r5, #1
    1ac8:	e1580005 	cmp	r8, r5
    1acc:	caffffd4 	bgt	0x1a24
    1ad0:	e28aa001 	add	sl, sl, #1
    1ad4:	e158000a 	cmp	r8, sl
    1ad8:	caffffcf 	bgt	0x1a1c
    1adc:	e3580000 	cmp	r8, #0
    1ae0:	da000058 	ble	0x1c48
    1ae4:	e3a05000 	mov	r5, #0
    1ae8:	e1a0b005 	mov	fp, r5
    1aec:	e59fa174 	ldr	sl, [pc, #372]	; 0x1c68
    1af0:	e59f716c 	ldr	r7, [pc, #364]	; 0x1c64
    1af4:	e59d6004 	ldr	r6, [sp, #4]
    1af8:	e5994004 	ldr	r4, [r9, #4]
    1afc:	ebfffde1 	bl	0x1288
    1b00:	e0c2309a 	smull	r3, r2, sl, r0
    1b04:	e1a03fc0 	asr	r3, r0, #31
    1b08:	e0633342 	rsb	r3, r3, r2, asr #6
    1b0c:	e0632283 	rsb	r2, r3, r3, lsl #5
    1b10:	e0833102 	add	r3, r3, r2, lsl #2
    1b14:	e0503183 	subs	r3, r0, r3, lsl #3
    1b18:	e5998000 	ldr	r8, [r9]
    1b1c:	0a00001d 	beq	0x1b98
    1b20:	e5942004 	ldr	r2, [r4, #4]
    1b24:	e2822001 	add	r2, r2, #1
    1b28:	e0841202 	add	r1, r4, r2, lsl #4
    1b2c:	e7846202 	str	r6, [r4, r2, lsl #4]
    1b30:	e5813008 	str	r3, [r1, #8]
    1b34:	e5815004 	str	r5, [r1, #4]
    1b38:	e581b00c 	str	fp, [r1, #12]
    1b3c:	e0843106 	add	r3, r4, r6, lsl #2
    1b40:	e5942004 	ldr	r2, [r4, #4]
    1b44:	e2833a82 	add	r3, r3, #532480	; 0x82000
    1b48:	e593c010 	ldr	ip, [r3, #16]
    1b4c:	e2820002 	add	r0, r2, #2
    1b50:	e0821007 	add	r1, r2, r7
    1b54:	e784c101 	str	ip, [r4, r1, lsl #2]
    1b58:	e0841200 	add	r1, r4, r0, lsl #4
    1b5c:	e282c001 	add	ip, r2, #1
    1b60:	e584c004 	str	ip, [r4, #4]
    1b64:	e5832010 	str	r2, [r3, #16]
    1b68:	e7845200 	str	r5, [r4, r0, lsl #4]
    1b6c:	e9810840 	stmib	r1, {r6, fp}
    1b70:	e581b00c 	str	fp, [r1, #12]
    1b74:	e0843105 	add	r3, r4, r5, lsl #2
    1b78:	e5942004 	ldr	r2, [r4, #4]
    1b7c:	e2833a82 	add	r3, r3, #532480	; 0x82000
    1b80:	e593c010 	ldr	ip, [r3, #16]
    1b84:	e0820007 	add	r0, r2, r7
    1b88:	e2821001 	add	r1, r2, #1
    1b8c:	e784c100 	str	ip, [r4, r0, lsl #2]
    1b90:	e5841004 	str	r1, [r4, #4]
    1b94:	e5832010 	str	r2, [r3, #16]
    1b98:	e5994004 	ldr	r4, [r9, #4]
    1b9c:	ebfffdb9 	bl	0x1288
    1ba0:	e0c3209a 	smull	r2, r3, sl, r0
    1ba4:	e1a02fc0 	asr	r2, r0, #31
    1ba8:	e0622343 	rsb	r2, r2, r3, asr #6
    1bac:	e0623282 	rsb	r3, r2, r2, lsl #5
    1bb0:	e0822103 	add	r2, r2, r3, lsl #2
    1bb4:	e0502182 	subs	r2, r0, r2, lsl #3
    1bb8:	e599c000 	ldr	ip, [r9]
    1bbc:	0a00001e 	beq	0x1c3c
    1bc0:	e5941004 	ldr	r1, [r4, #4]
    1bc4:	e0883005 	add	r3, r8, r5
    1bc8:	e2811001 	add	r1, r1, #1
    1bcc:	e7843201 	str	r3, [r4, r1, lsl #4]
    1bd0:	e0840201 	add	r0, r4, r1, lsl #4
    1bd4:	e59d1000 	ldr	r1, [sp]
    1bd8:	e9800806 	stmib	r0, {r1, r2, fp}
    1bdc:	e0842103 	add	r2, r4, r3, lsl #2
    1be0:	e5941004 	ldr	r1, [r4, #4]
    1be4:	e2822a82 	add	r2, r2, #532480	; 0x82000
    1be8:	e5928010 	ldr	r8, [r2, #16]
    1bec:	e0810007 	add	r0, r1, r7
    1bf0:	e7848100 	str	r8, [r4, r0, lsl #2]
    1bf4:	e2818001 	add	r8, r1, #1
    1bf8:	e5848004 	str	r8, [r4, #4]
    1bfc:	e281e002 	add	lr, r1, #2
    1c00:	e5821010 	str	r1, [r2, #16]
    1c04:	e59d1000 	ldr	r1, [sp]
    1c08:	e084020e 	add	r0, r4, lr, lsl #4
    1c0c:	e784120e 	str	r1, [r4, lr, lsl #4]
    1c10:	e9800808 	stmib	r0, {r3, fp}
    1c14:	e580b00c 	str	fp, [r0, #12]
    1c18:	e0843106 	add	r3, r4, r6, lsl #2
    1c1c:	e5942004 	ldr	r2, [r4, #4]
    1c20:	e2833a82 	add	r3, r3, #532480	; 0x82000
    1c24:	e593e014 	ldr	lr, [r3, #20]
    1c28:	e0820007 	add	r0, r2, r7
    1c2c:	e2821001 	add	r1, r2, #1
    1c30:	e784e100 	str	lr, [r4, r0, lsl #2]
    1c34:	e5841004 	str	r1, [r4, #4]
    1c38:	e5832014 	str	r2, [r3, #20]
    1c3c:	e2855001 	add	r5, r5, #1
    1c40:	e15c0005 	cmp	ip, r5
    1c44:	caffffab 	bgt	0x1af8
    1c48:	e28dd00c 	add	sp, sp, #12
    1c4c:	e8bd4ff0 	pop	{r4, r5, r6, r7, r8, r9, sl, fp, lr}
    1c50:	e12fff1e 	bx	lr
    1c54:	03000158 	tsteq	r0, #88, 2
    1c58:	030000a0 	tsteq	r0, #160	; 0xa0
    1c5c:	000a3934 	andeq	r3, sl, r4, lsr r9
    1c60:	66666667 	strbtvs	r6, [r6], -r7, ror #12
    1c64:	00020906 	andeq	r0, r2, r6, lsl #18
    1c68:	10624dd3 			; <UNDEFINED> instruction: 0x10624dd3
    1c6c:	e92d4ff0 	push	{r4, r5, r6, r7, r8, r9, sl, fp, lr}
    1c70:	e3a0a000 	mov	sl, #0
    1c74:	e59f2310 	ldr	r2, [pc, #784]	; 0x1f8c
    1c78:	e5923000 	ldr	r3, [r2]
    1c7c:	e5924004 	ldr	r4, [r2, #4]
    1c80:	e59f2308 	ldr	r2, [pc, #776]	; 0x1f90
    1c84:	e1a03083 	lsl	r3, r3, #1
    1c88:	e24dd01c 	sub	sp, sp, #28
    1c8c:	e59f0300 	ldr	r0, [pc, #768]	; 0x1f94
    1c90:	e283e001 	add	lr, r3, #1
    1c94:	e58d3004 	str	r3, [sp, #4]
    1c98:	e1a01003 	mov	r1, r3
    1c9c:	e5843008 	str	r3, [r4, #8]
    1ca0:	e0832002 	add	r2, r3, r2
    1ca4:	e0848003 	add	r8, r4, r3
    1ca8:	e2843aa3 	add	r3, r4, #667648	; 0xa3000
    1cac:	e084c00e 	add	ip, r4, lr
    1cb0:	e58d300c 	str	r3, [sp, #12]
    1cb4:	e0843000 	add	r3, r4, r0
    1cb8:	e584e00c 	str	lr, [r4, #12]
    1cbc:	e5947000 	ldr	r7, [r4]
    1cc0:	e58dc000 	str	ip, [sp]
    1cc4:	e58d3014 	str	r3, [sp, #20]
    1cc8:	e3570000 	cmp	r7, #0
    1ccc:	da000006 	ble	0x1cec
    1cd0:	e3a0c000 	mov	ip, #0
    1cd4:	e59f32bc 	ldr	r3, [pc, #700]	; 0x1f98
    1cd8:	e0843003 	add	r3, r4, r3
    1cdc:	e0830007 	add	r0, r3, r7
    1ce0:	e5e3c001 	strb	ip, [r3, #1]!
    1ce4:	e1530000 	cmp	r3, r0
    1ce8:	1afffffc 	bne	0x1ce0
    1cec:	e3a00000 	mov	r0, #0
    1cf0:	e59dc00c 	ldr	ip, [sp, #12]
    1cf4:	e0843102 	add	r3, r4, r2, lsl #2
    1cf8:	e58c152c 	str	r1, [ip, #1324]	; 0x52c
    1cfc:	e1a09000 	mov	r9, r0
    1d00:	e5830004 	str	r0, [r3, #4]
    1d04:	e3a00001 	mov	r0, #1
    1d08:	e59d3014 	ldr	r3, [sp, #20]
    1d0c:	e58d3008 	str	r3, [sp, #8]
    1d10:	e59f3284 	ldr	r3, [pc, #644]	; 0x1f9c
    1d14:	e3a0c001 	mov	ip, #1
    1d18:	e7c80003 	strb	r0, [r8, r3]
    1d1c:	e1a00001 	mov	r0, r1
    1d20:	e0840100 	add	r0, r4, r0, lsl #2
    1d24:	e2803a82 	add	r3, r0, #532480	; 0x82000
    1d28:	e5933010 	ldr	r3, [r3, #16]
    1d2c:	e3730001 	cmn	r3, #1
    1d30:	e2899001 	add	r9, r9, #1
    1d34:	0a000021 	beq	0x1dc0
    1d38:	e2800aa2 	add	r0, r0, #663552	; 0xa2000
    1d3c:	e59fb25c 	ldr	fp, [pc, #604]	; 0x1fa0
    1d40:	e0845203 	add	r5, r4, r3, lsl #4
    1d44:	e083b00b 	add	fp, r3, fp
    1d48:	e5955014 	ldr	r5, [r5, #20]
    1d4c:	e58db010 	str	fp, [sp, #16]
    1d50:	e59fb244 	ldr	fp, [pc, #580]	; 0x1f9c
    1d54:	e0846005 	add	r6, r4, r5
    1d58:	e7d6b00b 	ldrb	fp, [r6, fp]
    1d5c:	e35b0000 	cmp	fp, #0
    1d60:	e0843203 	add	r3, r4, r3, lsl #4
    1d64:	1a000011 	bne	0x1db0
    1d68:	e593b018 	ldr	fp, [r3, #24]
    1d6c:	e593301c 	ldr	r3, [r3, #28]
    1d70:	e15b0003 	cmp	fp, r3
    1d74:	da00000d 	ble	0x1db0
    1d78:	e3a03001 	mov	r3, #1
    1d7c:	e59fb218 	ldr	fp, [pc, #536]	; 0x1f9c
    1d80:	e7c6300b 	strb	r3, [r6, fp]
    1d84:	e59f3218 	ldr	r3, [pc, #536]	; 0x1fa4
    1d88:	e59f6200 	ldr	r6, [pc, #512]	; 0x1f90
    1d8c:	e590bd1c 	ldr	fp, [r0, #3356]	; 0xd1c
    1d90:	e08c3003 	add	r3, ip, r3
    1d94:	e0856006 	add	r6, r5, r6
    1d98:	e28bb001 	add	fp, fp, #1
    1d9c:	e0846106 	add	r6, r4, r6, lsl #2
    1da0:	e0843103 	add	r3, r4, r3, lsl #2
    1da4:	e586b004 	str	fp, [r6, #4]
    1da8:	e5835004 	str	r5, [r3, #4]
    1dac:	e28cc001 	add	ip, ip, #1
    1db0:	e59d3010 	ldr	r3, [sp, #16]
    1db4:	e7943103 	ldr	r3, [r4, r3, lsl #2]
    1db8:	e3730001 	cmn	r3, #1
    1dbc:	1affffde 	bne	0x1d3c
    1dc0:	e159000c 	cmp	r9, ip
    1dc4:	159d3008 	ldrne	r3, [sp, #8]
    1dc8:	15b30004 	ldrne	r0, [r3, #4]!
    1dcc:	158d3008 	strne	r3, [sp, #8]
    1dd0:	1affffd2 	bne	0x1d20
    1dd4:	e59d3000 	ldr	r3, [sp]
    1dd8:	e59f01bc 	ldr	r0, [pc, #444]	; 0x1f9c
    1ddc:	e7d33000 	ldrb	r3, [r3, r0]
    1de0:	e3530000 	cmp	r3, #0
    1de4:	0a000063 	beq	0x1f78
    1de8:	e3570000 	cmp	r7, #0
    1dec:	da000008 	ble	0x1e14
    1df0:	e2843a82 	add	r3, r4, #532480	; 0x82000
    1df4:	e59d000c 	ldr	r0, [sp, #12]
    1df8:	e283300c 	add	r3, r3, #12
    1dfc:	e083c107 	add	ip, r3, r7, lsl #2
    1e00:	e2800e12 	add	r0, r0, #288	; 0x120
    1e04:	e5b35004 	ldr	r5, [r3, #4]!
    1e08:	e153000c 	cmp	r3, ip
    1e0c:	e5a05004 	str	r5, [r0, #4]!
    1e10:	1afffffb 	bne	0x1e04
    1e14:	e59d3004 	ldr	r3, [sp, #4]
    1e18:	e153000e 	cmp	r3, lr
    1e1c:	0a000051 	beq	0x1f68
    1e20:	e59d3004 	ldr	r3, [sp, #4]
    1e24:	e0849103 	add	r9, r4, r3, lsl #2
    1e28:	e2893aa3 	add	r3, r9, #667648	; 0xa3000
    1e2c:	e5935124 	ldr	r5, [r3, #292]	; 0x124
    1e30:	e3750001 	cmn	r5, #1
    1e34:	0affffa3 	beq	0x1cc8
    1e38:	e3a07000 	mov	r7, #0
    1e3c:	e59f6164 	ldr	r6, [pc, #356]	; 0x1fa8
    1e40:	e59f3148 	ldr	r3, [pc, #328]	; 0x1f90
    1e44:	e59fb154 	ldr	fp, [pc, #340]	; 0x1fa0
    1e48:	e2899aa2 	add	r9, r9, #663552	; 0xa2000
    1e4c:	ea000003 	b	0x1e60
    1e50:	e085500b 	add	r5, r5, fp
    1e54:	e7945105 	ldr	r5, [r4, r5, lsl #2]
    1e58:	e3750001 	cmn	r5, #1
    1e5c:	0a000027 	beq	0x1f00
    1e60:	e0842205 	add	r2, r4, r5, lsl #4
    1e64:	e5921014 	ldr	r1, [r2, #20]
    1e68:	e0810003 	add	r0, r1, r3
    1e6c:	e0840100 	add	r0, r4, r0, lsl #2
    1e70:	e5992d1c 	ldr	r2, [r9, #3356]	; 0xd1c
    1e74:	e5900004 	ldr	r0, [r0, #4]
    1e78:	e2822001 	add	r2, r2, #1
    1e7c:	e1520000 	cmp	r2, r0
    1e80:	1afffff2 	bne	0x1e50
    1e84:	e1a08205 	lsl	r8, r5, #4
    1e88:	e0840008 	add	r0, r4, r8
    1e8c:	e2802018 	add	r2, r0, #24
    1e90:	e8921004 	ldm	r2, {r2, ip}
    1e94:	e042200c 	sub	r2, r2, ip
    1e98:	e1520006 	cmp	r2, r6
    1e9c:	ca00001b 	bgt	0x1f10
    1ea0:	e151000e 	cmp	r1, lr
    1ea4:	0a000005 	beq	0x1ec0
    1ea8:	e3520000 	cmp	r2, #0
    1eac:	0affffe7 	beq	0x1e50
    1eb0:	e1a00004 	mov	r0, r4
    1eb4:	ebfffe71 	bl	0x1880
    1eb8:	e1a02000 	mov	r2, r0
    1ebc:	e59f30cc 	ldr	r3, [pc, #204]	; 0x1f90
    1ec0:	e3520000 	cmp	r2, #0
    1ec4:	d594e00c 	ldrle	lr, [r4, #12]
    1ec8:	daffffe0 	ble	0x1e50
    1ecc:	e0848008 	add	r8, r4, r8
    1ed0:	e598101c 	ldr	r1, [r8, #28]
    1ed4:	e0811002 	add	r1, r1, r2
    1ed8:	e588101c 	str	r1, [r8, #28]
    1edc:	e2251001 	eor	r1, r5, #1
    1ee0:	e0841201 	add	r1, r4, r1, lsl #4
    1ee4:	e591001c 	ldr	r0, [r1, #28]
    1ee8:	e0566002 	subs	r6, r6, r2
    1eec:	e0400002 	sub	r0, r0, r2
    1ef0:	e0877002 	add	r7, r7, r2
    1ef4:	e581001c 	str	r0, [r1, #28]
    1ef8:	e594e00c 	ldr	lr, [r4, #12]
    1efc:	1affffd3 	bne	0x1e50
    1f00:	e5941008 	ldr	r1, [r4, #8]
    1f04:	e59f2084 	ldr	r2, [pc, #132]	; 0x1f90
    1f08:	e08aa007 	add	sl, sl, r7
    1f0c:	ea00000f 	b	0x1f50
    1f10:	e151000e 	cmp	r1, lr
    1f14:	11a02006 	movne	r2, r6
    1f18:	1affffe4 	bne	0x1eb0
    1f1c:	e3560000 	cmp	r6, #0
    1f20:	daffffca 	ble	0x1e50
    1f24:	e08cc006 	add	ip, ip, r6
    1f28:	e580c01c 	str	ip, [r0, #28]
    1f2c:	e2255001 	eor	r5, r5, #1
    1f30:	e0845205 	add	r5, r4, r5, lsl #4
    1f34:	e595301c 	ldr	r3, [r5, #28]
    1f38:	e0867007 	add	r7, r6, r7
    1f3c:	e0436006 	sub	r6, r3, r6
    1f40:	e5941008 	ldr	r1, [r4, #8]
    1f44:	e59f2044 	ldr	r2, [pc, #68]	; 0x1f90
    1f48:	e585601c 	str	r6, [r5, #28]
    1f4c:	e08aa007 	add	sl, sl, r7
    1f50:	e084300e 	add	r3, r4, lr
    1f54:	e0812002 	add	r2, r1, r2
    1f58:	e0848001 	add	r8, r4, r1
    1f5c:	e5947000 	ldr	r7, [r4]
    1f60:	e58d3000 	str	r3, [sp]
    1f64:	eaffff57 	b	0x1cc8
    1f68:	e28aa83f 	add	sl, sl, #4128768	; 0x3f0000
    1f6c:	e28aac3f 	add	sl, sl, #16128	; 0x3f00
    1f70:	e28aa03f 	add	sl, sl, #63	; 0x3f
    1f74:	eaffff53 	b	0x1cc8
    1f78:	e59f300c 	ldr	r3, [pc, #12]	; 0x1f8c
    1f7c:	e583a008 	str	sl, [r3, #8]
    1f80:	e28dd01c 	add	sp, sp, #28
    1f84:	e8bd4ff0 	pop	{r4, r5, r6, r7, r8, r9, sl, fp, lr}
    1f88:	e12fff1e 	bx	lr
    1f8c:	030000a0 	tsteq	r0, #160	; 0xa0
    1f90:	00028b46 	andeq	r8, r2, r6, asr #22
    1f94:	000a352c 	andeq	r3, sl, ip, lsr #10
    1f98:	000a2c17 	andeq	r2, sl, r7, lsl ip
    1f9c:	000a2c18 	andeq	r2, sl, r8, lsl ip
    1fa0:	00020906 	andeq	r0, r2, r6, lsl #18
    1fa4:	00028d4a 	andeq	r8, r2, sl, asr #26
    1fa8:	003f3f3f 	eorseq	r3, pc, pc, lsr pc	; <UNPREDICTABLE>
    1fac:	e59f201c 	ldr	r2, [pc, #28]	; 0x1fd0
    1fb0:	e59f301c 	ldr	r3, [pc, #28]	; 0x1fd4
    1fb4:	e5922000 	ldr	r2, [r2]
    1fb8:	e5933008 	ldr	r3, [r3, #8]
    1fbc:	e592000c 	ldr	r0, [r2, #12]
    1fc0:	e0403003 	sub	r3, r0, r3
    1fc4:	e2730000 	rsbs	r0, r3, #0
    1fc8:	e0a00003 	adc	r0, r0, r3
    1fcc:	e12fff1e 	bx	lr
    1fd0:	03000158 	tsteq	r0, #88, 2
    1fd4:	030000a0 	tsteq	r0, #160	; 0xa0
    1fd8:	e59f3050 	ldr	r3, [pc, #80]	; 0x2030
    1fdc:	e5933000 	ldr	r3, [r3]
    1fe0:	e5933000 	ldr	r3, [r3]
    1fe4:	e92d4070 	push	{r4, r5, r6, lr}
    1fe8:	e0040393 	mul	r4, r3, r3
    1fec:	e59f5040 	ldr	r5, [pc, #64]	; 0x2034
    1ff0:	e1a04104 	lsl	r4, r4, #2
    1ff4:	e1a00004 	mov	r0, r4
    1ff8:	e5853000 	str	r3, [r5]
    1ffc:	ebfffc75 	bl	0x11d8
    2000:	e5850004 	str	r0, [r5, #4]
    2004:	e1a00004 	mov	r0, r4
    2008:	ebfffc72 	bl	0x11d8
    200c:	e5850008 	str	r0, [r5, #8]
    2010:	e1a00004 	mov	r0, r4
    2014:	ebfffc6f 	bl	0x11d8
    2018:	e585000c 	str	r0, [r5, #12]
    201c:	e1a00004 	mov	r0, r4
    2020:	ebfffc6c 	bl	0x11d8
    2024:	e5850010 	str	r0, [r5, #16]
    2028:	e8bd4070 	pop	{r4, r5, r6, lr}
    202c:	e12fff1e 	bx	lr
    2030:	03000158 	tsteq	r0, #88, 2
    2034:	030000ac 	tsteq	r0, #172	; 0xac
    2038:	e92d4ff0 	push	{r4, r5, r6, r7, r8, r9, sl, fp, lr}
    203c:	e59f32e8 	ldr	r3, [pc, #744]	; 0x232c
    2040:	e593b000 	ldr	fp, [r3]
    2044:	e5932008 	ldr	r2, [r3, #8]
    2048:	e593300c 	ldr	r3, [r3, #12]
    204c:	e24dd044 	sub	sp, sp, #68	; 0x44
    2050:	e35b0000 	cmp	fp, #0
    2054:	e58d2008 	str	r2, [sp, #8]
    2058:	e58d3024 	str	r3, [sp, #36]	; 0x24
    205c:	da0000b0 	ble	0x2324
    2060:	e3a01000 	mov	r1, #0
    2064:	e1a06001 	mov	r6, r1
    2068:	e59f32bc 	ldr	r3, [pc, #700]	; 0x232c
    206c:	e5937004 	ldr	r7, [r3, #4]
    2070:	e59d3008 	ldr	r3, [sp, #8]
    2074:	e2438004 	sub	r8, r3, #4
    2078:	e59d3024 	ldr	r3, [sp, #36]	; 0x24
    207c:	e24b5001 	sub	r5, fp, #1
    2080:	e2477004 	sub	r7, r7, #4
    2084:	e1a0a10b 	lsl	sl, fp, #2
    2088:	e2439004 	sub	r9, r3, #4
    208c:	e1a0e009 	mov	lr, r9
    2090:	e1a0c008 	mov	ip, r8
    2094:	e1a00007 	mov	r0, r7
    2098:	e3a03000 	mov	r3, #0
    209c:	e2866001 	add	r6, r6, #1
    20a0:	e1550001 	cmp	r5, r1
    20a4:	03a02001 	moveq	r2, #1
    20a8:	0a000002 	beq	0x20b8
    20ac:	e1530006 	cmp	r3, r6
    20b0:	13a02000 	movne	r2, #0
    20b4:	03a02001 	moveq	r2, #1
    20b8:	e1530001 	cmp	r3, r1
    20bc:	13a04000 	movne	r4, #0
    20c0:	03a04001 	moveq	r4, #1
    20c4:	e2833001 	add	r3, r3, #1
    20c8:	e153000b 	cmp	r3, fp
    20cc:	e5a02004 	str	r2, [r0, #4]!
    20d0:	e5ac2004 	str	r2, [ip, #4]!
    20d4:	e5ae4004 	str	r4, [lr, #4]!
    20d8:	1afffff0 	bne	0x20a0
    20dc:	e15b0006 	cmp	fp, r6
    20e0:	e2811001 	add	r1, r1, #1
    20e4:	e087700a 	add	r7, r7, sl
    20e8:	e088800a 	add	r8, r8, sl
    20ec:	e089900a 	add	r9, r9, sl
    20f0:	1affffe5 	bne	0x208c
    20f4:	e59f3230 	ldr	r3, [pc, #560]	; 0x232c
    20f8:	e59de024 	ldr	lr, [sp, #36]	; 0x24
    20fc:	e593c010 	ldr	ip, [r3, #16]
    2100:	e06b3e8b 	rsb	r3, fp, fp, lsl #29
    2104:	e1a03183 	lsl	r3, r3, #3
    2108:	e58d303c 	str	r3, [sp, #60]	; 0x3c
    210c:	e08e300a 	add	r3, lr, sl
    2110:	e58d302c 	str	r3, [sp, #44]	; 0x2c
    2114:	e59d3008 	ldr	r3, [sp, #8]
    2118:	e083300a 	add	r3, r3, sl
    211c:	e58d3028 	str	r3, [sp, #40]	; 0x28
    2120:	e3a0301f 	mov	r3, #31
    2124:	e58d3010 	str	r3, [sp, #16]
    2128:	e3e031b2 	mvn	r3, #-2147483604	; 0x8000002c
    212c:	e3a08000 	mov	r8, #0
    2130:	e04e100c 	sub	r1, lr, ip
    2134:	e04c000e 	sub	r0, ip, lr
    2138:	e041100a 	sub	r1, r1, sl
    213c:	e2411004 	sub	r1, r1, #4
    2140:	e040000a 	sub	r0, r0, sl
    2144:	e06b2f0b 	rsb	r2, fp, fp, lsl #30
    2148:	e2400004 	sub	r0, r0, #4
    214c:	e58d1038 	str	r1, [sp, #56]	; 0x38
    2150:	e1a02102 	lsl	r2, r2, #2
    2154:	e08c100a 	add	r1, ip, sl
    2158:	e58dc020 	str	ip, [sp, #32]
    215c:	e58d001c 	str	r0, [sp, #28]
    2160:	e58d1030 	str	r1, [sp, #48]	; 0x30
    2164:	e58d2034 	str	r2, [sp, #52]	; 0x34
    2168:	e58d300c 	str	r3, [sp, #12]
    216c:	e59d300c 	ldr	r3, [sp, #12]
    2170:	e3130001 	tst	r3, #1
    2174:	1a00003f 	bne	0x2278
    2178:	e35b0000 	cmp	fp, #0
    217c:	da000033 	ble	0x2250
    2180:	e59d3008 	ldr	r3, [sp, #8]
    2184:	e2439004 	sub	r9, r3, #4
    2188:	e59d3020 	ldr	r3, [sp, #32]
    218c:	e3a02000 	mov	r2, #0
    2190:	e2433004 	sub	r3, r3, #4
    2194:	e1a07009 	mov	r7, r9
    2198:	e58d9018 	str	r9, [sp, #24]
    219c:	e1a09003 	mov	r9, r3
    21a0:	e58d3014 	str	r3, [sp, #20]
    21a4:	e58d2004 	str	r2, [sp, #4]
    21a8:	e1a01009 	mov	r1, r9
    21ac:	e3a0e000 	mov	lr, #0
    21b0:	e59d4008 	ldr	r4, [sp, #8]
    21b4:	e3a03000 	mov	r3, #0
    21b8:	e1a0c004 	mov	ip, r4
    21bc:	e1a02003 	mov	r2, r3
    21c0:	e1a00007 	mov	r0, r7
    21c4:	e5a18004 	str	r8, [r1, #4]!
    21c8:	e5b05004 	ldr	r5, [r0, #4]!
    21cc:	e69c600a 	ldr	r6, [ip], sl
    21d0:	e0233596 	mla	r3, r6, r5, r3
    21d4:	e2822001 	add	r2, r2, #1
    21d8:	e152000b 	cmp	r2, fp
    21dc:	e5813000 	str	r3, [r1]
    21e0:	bafffff8 	blt	0x21c8
    21e4:	e28ee001 	add	lr, lr, #1
    21e8:	e15e000b 	cmp	lr, fp
    21ec:	e2844004 	add	r4, r4, #4
    21f0:	baffffef 	blt	0x21b4
    21f4:	e59d3004 	ldr	r3, [sp, #4]
    21f8:	e2833001 	add	r3, r3, #1
    21fc:	e153000b 	cmp	r3, fp
    2200:	e58d3004 	str	r3, [sp, #4]
    2204:	e087700a 	add	r7, r7, sl
    2208:	e089900a 	add	r9, r9, sl
    220c:	baffffe5 	blt	0x21a8
    2210:	e3a0c000 	mov	ip, #0
    2214:	e59d9018 	ldr	r9, [sp, #24]
    2218:	e59de014 	ldr	lr, [sp, #20]
    221c:	e1a01009 	mov	r1, r9
    2220:	e1a0200e 	mov	r2, lr
    2224:	e3a03000 	mov	r3, #0
    2228:	e2833001 	add	r3, r3, #1
    222c:	e5b20004 	ldr	r0, [r2, #4]!
    2230:	e153000b 	cmp	r3, fp
    2234:	e5a10004 	str	r0, [r1, #4]!
    2238:	bafffffa 	blt	0x2228
    223c:	e28cc001 	add	ip, ip, #1
    2240:	e15c000b 	cmp	ip, fp
    2244:	e08ee00a 	add	lr, lr, sl
    2248:	e089900a 	add	r9, r9, sl
    224c:	bafffff2 	blt	0x221c
    2250:	e59d3010 	ldr	r3, [sp, #16]
    2254:	e2533001 	subs	r3, r3, #1
    2258:	e58d3010 	str	r3, [sp, #16]
    225c:	e59d300c 	ldr	r3, [sp, #12]
    2260:	e1a030c3 	asr	r3, r3, #1
    2264:	e58d300c 	str	r3, [sp, #12]
    2268:	1affffbf 	bne	0x216c
    226c:	e28dd044 	add	sp, sp, #68	; 0x44
    2270:	e8bd4ff0 	pop	{r4, r5, r6, r7, r8, r9, sl, fp, lr}
    2274:	e12fff1e 	bx	lr
    2278:	e35b0000 	cmp	fp, #0
    227c:	dafffff3 	ble	0x2250
    2280:	e3a07000 	mov	r7, #0
    2284:	e59d402c 	ldr	r4, [sp, #44]	; 0x2c
    2288:	e59d6024 	ldr	r6, [sp, #36]	; 0x24
    228c:	e59d9028 	ldr	r9, [sp, #40]	; 0x28
    2290:	e59d301c 	ldr	r3, [sp, #28]
    2294:	e59d5008 	ldr	r5, [sp, #8]
    2298:	e083e004 	add	lr, r3, r4
    229c:	e1a01005 	mov	r1, r5
    22a0:	e1a02006 	mov	r2, r6
    22a4:	e3a03000 	mov	r3, #0
    22a8:	e5ae8004 	str	r8, [lr, #4]!
    22ac:	e4920004 	ldr	r0, [r2], #4
    22b0:	e691c00a 	ldr	ip, [r1], sl
    22b4:	e023309c 	mla	r3, ip, r0, r3
    22b8:	e1540002 	cmp	r4, r2
    22bc:	e58e3000 	str	r3, [lr]
    22c0:	1afffff9 	bne	0x22ac
    22c4:	e2855004 	add	r5, r5, #4
    22c8:	e1590005 	cmp	r9, r5
    22cc:	1afffff2 	bne	0x229c
    22d0:	e2877001 	add	r7, r7, #1
    22d4:	e157000b 	cmp	r7, fp
    22d8:	e086600a 	add	r6, r6, sl
    22dc:	e084400a 	add	r4, r4, sl
    22e0:	1affffea 	bne	0x2290
    22e4:	e3a0c000 	mov	ip, #0
    22e8:	e28d4034 	add	r4, sp, #52	; 0x34
    22ec:	e59d0030 	ldr	r0, [sp, #48]	; 0x30
    22f0:	e8940070 	ldm	r4, {r4, r5, r6}
    22f4:	e080e004 	add	lr, r0, r4
    22f8:	e1a0300e 	mov	r3, lr
    22fc:	e0852000 	add	r2, r5, r0
    2300:	e4931004 	ldr	r1, [r3], #4
    2304:	e1500003 	cmp	r0, r3
    2308:	e5a21004 	str	r1, [r2, #4]!
    230c:	1afffffb 	bne	0x2300
    2310:	e28cc001 	add	ip, ip, #1
    2314:	e15c000b 	cmp	ip, fp
    2318:	e04e0006 	sub	r0, lr, r6
    231c:	1afffff4 	bne	0x22f4
    2320:	eaffff96 	b	0x2180
    2324:	e1a0a10b 	lsl	sl, fp, #2
    2328:	eaffff71 	b	0x20f4
    232c:	030000ac 	tsteq	r0, #172	; 0xac
    2330:	e59f202c 	ldr	r2, [pc, #44]	; 0x2364
    2334:	e5921000 	ldr	r1, [r2]
    2338:	e2410001 	sub	r0, r1, #1
    233c:	e0230091 	mla	r3, r1, r0, r0
    2340:	e59f0020 	ldr	r0, [pc, #32]	; 0x2368
    2344:	e592100c 	ldr	r1, [r2, #12]
    2348:	e5902000 	ldr	r2, [r0]
    234c:	e7910103 	ldr	r0, [r1, r3, lsl #2]
    2350:	e592300c 	ldr	r3, [r2, #12]
    2354:	e0403003 	sub	r3, r0, r3
    2358:	e2730000 	rsbs	r0, r3, #0
    235c:	e0a00003 	adc	r0, r0, r3
    2360:	e12fff1e 	bx	lr
    2364:	030000ac 	tsteq	r0, #172	; 0xac
    2368:	03000158 	tsteq	r0, #88, 2
    236c:	e59f3094 	ldr	r3, [pc, #148]	; 0x2408
    2370:	e5933000 	ldr	r3, [r3]
    2374:	e92d4070 	push	{r4, r5, r6, lr}
    2378:	e5933000 	ldr	r3, [r3]
    237c:	e59f6088 	ldr	r6, [pc, #136]	; 0x240c
    2380:	e3a00001 	mov	r0, #1
    2384:	e5863000 	str	r3, [r6]
    2388:	ebfffbb8 	bl	0x1270
    238c:	e59f007c 	ldr	r0, [pc, #124]	; 0x2410
    2390:	ebfffb90 	bl	0x11d8
    2394:	e5860004 	str	r0, [r6, #4]
    2398:	e5960000 	ldr	r0, [r6]
    239c:	ebfffb8d 	bl	0x11d8
    23a0:	e5963000 	ldr	r3, [r6]
    23a4:	e5860008 	str	r0, [r6, #8]
    23a8:	e2830e19 	add	r0, r3, #400	; 0x190
    23ac:	ebfffb89 	bl	0x11d8
    23b0:	e5963000 	ldr	r3, [r6]
    23b4:	e3530000 	cmp	r3, #0
    23b8:	e586000c 	str	r0, [r6, #12]
    23bc:	da00000f 	ble	0x2400
    23c0:	e3a04000 	mov	r4, #0
    23c4:	e59f5048 	ldr	r5, [pc, #72]	; 0x2414
    23c8:	ebfffbae 	bl	0x1288
    23cc:	e0c23095 	smull	r3, r2, r5, r0
    23d0:	e1a03fc0 	asr	r3, r0, #31
    23d4:	e06331c2 	rsb	r3, r3, r2, asr #3
    23d8:	e0832083 	add	r2, r3, r3, lsl #1
    23dc:	e0833102 	add	r3, r3, r2, lsl #2
    23e0:	e0400083 	sub	r0, r0, r3, lsl #1
    23e4:	e5962008 	ldr	r2, [r6, #8]
    23e8:	e2800061 	add	r0, r0, #97	; 0x61
    23ec:	e5963000 	ldr	r3, [r6]
    23f0:	e7c20004 	strb	r0, [r2, r4]
    23f4:	e2844001 	add	r4, r4, #1
    23f8:	e1530004 	cmp	r3, r4
    23fc:	cafffff1 	bgt	0x23c8
    2400:	e8bd4070 	pop	{r4, r5, r6, lr}
    2404:	e12fff1e 	bx	lr
    2408:	03000158 	tsteq	r0, #88, 2
    240c:	030000c0 	tsteq	r0, #192	; 0xc0
    2410:	00041004 	andeq	r1, r4, r4
    2414:	4ec4ec4f 	cdpmi	12, 12, cr14, cr4, cr15, {2}
    2418:	e92d4010 	push	{r4, lr}
    241c:	e59f4018 	ldr	r4, [pc, #24]	; 0x243c
    2420:	e2840008 	add	r0, r4, #8
    2424:	e894000c 	ldm	r4, {r2, r3}
    2428:	e8900003 	ldm	r0, {r0, r1}
    242c:	eb0001cc 	bl	0x2b64
    2430:	e5840010 	str	r0, [r4, #16]
    2434:	e8bd4010 	pop	{r4, lr}
    2438:	e12fff1e 	bx	lr
    243c:	030000c0 	tsteq	r0, #192	; 0xc0
    2440:	e59f2034 	ldr	r2, [pc, #52]	; 0x247c
    2444:	e592300c 	ldr	r3, [r2, #12]
    2448:	e5921010 	ldr	r1, [r2, #16]
    244c:	e92d4010 	push	{r4, lr}
    2450:	e1a00003 	mov	r0, r3
    2454:	e0831001 	add	r1, r3, r1
    2458:	ebfffb97 	bl	0x12bc
    245c:	e59f301c 	ldr	r3, [pc, #28]	; 0x2480
    2460:	e5933000 	ldr	r3, [r3]
    2464:	e593300c 	ldr	r3, [r3, #12]
    2468:	e0433000 	sub	r3, r3, r0
    246c:	e2730000 	rsbs	r0, r3, #0
    2470:	e0a00003 	adc	r0, r0, r3
    2474:	e8bd4010 	pop	{r4, lr}
    2478:	e12fff1e 	bx	lr
    247c:	030000c0 	tsteq	r0, #192	; 0xc0
    2480:	03000158 	tsteq	r0, #88, 2
    2484:	e59f3064 	ldr	r3, [pc, #100]	; 0x24f0
    2488:	e5933000 	ldr	r3, [r3]
    248c:	e92d4070 	push	{r4, r5, r6, lr}
    2490:	e5933000 	ldr	r3, [r3]
    2494:	e59f5058 	ldr	r5, [pc, #88]	; 0x24f4
    2498:	e3a00001 	mov	r0, #1
    249c:	e5853000 	str	r3, [r5]
    24a0:	ebfffb72 	bl	0x1270
    24a4:	e5950000 	ldr	r0, [r5]
    24a8:	ebfffb4a 	bl	0x11d8
    24ac:	e5953000 	ldr	r3, [r5]
    24b0:	e3530000 	cmp	r3, #0
    24b4:	e5850004 	str	r0, [r5, #4]
    24b8:	da000007 	ble	0x24dc
    24bc:	e3a04000 	mov	r4, #0
    24c0:	ebfffb70 	bl	0x1288
    24c4:	e5952004 	ldr	r2, [r5, #4]
    24c8:	e5953000 	ldr	r3, [r5]
    24cc:	e7c20004 	strb	r0, [r2, r4]
    24d0:	e2844001 	add	r4, r4, #1
    24d4:	e1530004 	cmp	r3, r4
    24d8:	cafffff8 	bgt	0x24c0
    24dc:	e3a00010 	mov	r0, #16
    24e0:	ebfffb3c 	bl	0x11d8
    24e4:	e5850008 	str	r0, [r5, #8]
    24e8:	e8bd4070 	pop	{r4, r5, r6, lr}
    24ec:	e12fff1e 	bx	lr
    24f0:	03000158 	tsteq	r0, #88, 2
    24f4:	030000d4 	tsteq	r0, #212	; 0xd4
    24f8:	e59f22c4 	ldr	r2, [pc, #708]	; 0x27c4
    24fc:	e92d4ff0 	push	{r4, r5, r6, r7, r8, r9, sl, fp, lr}
    2500:	e5923000 	ldr	r3, [r2]
    2504:	e2831001 	add	r1, r3, #1
    2508:	e201003f 	and	r0, r1, #63	; 0x3f
    250c:	e5928004 	ldr	r8, [r2, #4]
    2510:	e3500038 	cmp	r0, #56	; 0x38
    2514:	e24dd05c 	sub	sp, sp, #92	; 0x5c
    2518:	e5920008 	ldr	r0, [r2, #8]
    251c:	e0882003 	add	r2, r8, r3
    2520:	0a0000a3 	beq	0x27b4
    2524:	e1a05001 	mov	r5, r1
    2528:	e2855001 	add	r5, r5, #1
    252c:	e205c03f 	and	ip, r5, #63	; 0x3f
    2530:	e35c0038 	cmp	ip, #56	; 0x38
    2534:	1afffffb 	bne	0x2528
    2538:	e3e0c07f 	mvn	ip, #127	; 0x7f
    253c:	e1510005 	cmp	r1, r5
    2540:	e7c8c003 	strb	ip, [r8, r3]
    2544:	2a000005 	bcs	0x2560
    2548:	e3a0c000 	mov	ip, #0
    254c:	e2481001 	sub	r1, r8, #1
    2550:	e0811005 	add	r1, r1, r5
    2554:	e5e2c001 	strb	ip, [r2, #1]!
    2558:	e1510002 	cmp	r1, r2
    255c:	1afffffc 	bne	0x2554
    2560:	e3a01000 	mov	r1, #0
    2564:	e1a0e183 	lsl	lr, r3, #3
    2568:	e285c004 	add	ip, r5, #4
    256c:	e1a0942e 	lsr	r9, lr, #8
    2570:	e0882005 	add	r2, r8, r5
    2574:	e088400c 	add	r4, r8, ip
    2578:	e1a0782e 	lsr	r7, lr, #16
    257c:	e1a06c2e 	lsr	r6, lr, #24
    2580:	e1a03ea3 	lsr	r3, r3, #29
    2584:	e7c8e005 	strb	lr, [r8, r5]
    2588:	e58d1004 	str	r1, [sp, #4]
    258c:	e5c29001 	strb	r9, [r2, #1]
    2590:	e5c27002 	strb	r7, [r2, #2]
    2594:	e5c26003 	strb	r6, [r2, #3]
    2598:	e59fb228 	ldr	fp, [pc, #552]	; 0x27c8
    259c:	e7c8300c 	strb	r3, [r8, ip]
    25a0:	e59fa224 	ldr	sl, [pc, #548]	; 0x27cc
    25a4:	e5c41001 	strb	r1, [r4, #1]
    25a8:	e5c41002 	strb	r1, [r4, #2]
    25ac:	e5c41003 	strb	r1, [r4, #3]
    25b0:	e59f9218 	ldr	r9, [pc, #536]	; 0x27d0
    25b4:	e59fe218 	ldr	lr, [pc, #536]	; 0x27d4
    25b8:	e58d800c 	str	r8, [sp, #12]
    25bc:	e58d0010 	str	r0, [sp, #16]
    25c0:	e58d5014 	str	r5, [sp, #20]
    25c4:	e59d300c 	ldr	r3, [sp, #12]
    25c8:	e59d2004 	ldr	r2, [sp, #4]
    25cc:	e28d1018 	add	r1, sp, #24
    25d0:	e0832002 	add	r2, r3, r2
    25d4:	e5d20001 	ldrb	r0, [r2, #1]
    25d8:	e5d23000 	ldrb	r3, [r2]
    25dc:	e5d2c002 	ldrb	ip, [r2, #2]
    25e0:	e1833400 	orr	r3, r3, r0, lsl #8
    25e4:	e5d20003 	ldrb	r0, [r2, #3]
    25e8:	e183380c 	orr	r3, r3, ip, lsl #16
    25ec:	e1833c00 	orr	r3, r3, r0, lsl #24
    25f0:	e4813004 	str	r3, [r1], #4
    25f4:	e28d3058 	add	r3, sp, #88	; 0x58
    25f8:	e1530001 	cmp	r3, r1
    25fc:	e2822004 	add	r2, r2, #4
    2600:	1afffff3 	bne	0x25d4
    2604:	e3a0c000 	mov	ip, #0
    2608:	e1a0700e 	mov	r7, lr
    260c:	e59f81c4 	ldr	r8, [pc, #452]	; 0x27d8
    2610:	e59f21c4 	ldr	r2, [pc, #452]	; 0x27dc
    2614:	e2880c01 	add	r0, r8, #256	; 0x100
    2618:	e35c000f 	cmp	ip, #15
    261c:	e1a04009 	mov	r4, r9
    2620:	e1a0600b 	mov	r6, fp
    2624:	e1a0500a 	mov	r5, sl
    2628:	e3a03007 	mov	r3, #7
    262c:	e58d0008 	str	r0, [sp, #8]
    2630:	e0877002 	add	r7, r7, r2
    2634:	9a00001a 	bls	0x26a4
    2638:	e0251004 	eor	r1, r5, r4
    263c:	e08c210c 	add	r2, ip, ip, lsl #2
    2640:	e35c001f 	cmp	ip, #31
    2644:	e0011006 	and	r1, r1, r6
    2648:	e2822001 	add	r2, r2, #1
    264c:	90211005 	eorls	r1, r1, r5
    2650:	9202200f 	andls	r2, r2, #15
    2654:	8a000017 	bhi	0x26b8
    2658:	e28d0058 	add	r0, sp, #88	; 0x58
    265c:	e0802102 	add	r2, r0, r2, lsl #2
    2660:	e5122040 	ldr	r2, [r2, #-64]	; 0xffffffc0
    2664:	e0811007 	add	r1, r1, r7
    2668:	e0811002 	add	r1, r1, r2
    266c:	e2633020 	rsb	r3, r3, #32
    2670:	e0843371 	add	r3, r4, r1, ror r3
    2674:	e1a07006 	mov	r7, r6
    2678:	e59d1008 	ldr	r1, [sp, #8]
    267c:	e1a06005 	mov	r6, r5
    2680:	e5b82004 	ldr	r2, [r8, #4]!
    2684:	e1a05004 	mov	r5, r4
    2688:	e28cc001 	add	ip, ip, #1
    268c:	e1a04003 	mov	r4, r3
    2690:	e5b13004 	ldr	r3, [r1, #4]!
    2694:	e35c000f 	cmp	ip, #15
    2698:	e58d1008 	str	r1, [sp, #8]
    269c:	e0877002 	add	r7, r7, r2
    26a0:	8affffe4 	bhi	0x2638
    26a4:	e0251006 	eor	r1, r5, r6
    26a8:	e0011004 	and	r1, r1, r4
    26ac:	e0211006 	eor	r1, r1, r6
    26b0:	e1a0200c 	mov	r2, ip
    26b4:	eaffffe7 	b	0x2658
    26b8:	e08c208c 	add	r2, ip, ip, lsl #1
    26bc:	e35c002f 	cmp	ip, #47	; 0x2f
    26c0:	e0251006 	eor	r1, r5, r6
    26c4:	e2822005 	add	r2, r2, #5
    26c8:	90211004 	eorls	r1, r1, r4
    26cc:	9202200f 	andls	r2, r2, #15
    26d0:	9affffe0 	bls	0x2658
    26d4:	e1e01006 	mvn	r1, r6
    26d8:	e06c218c 	rsb	r2, ip, ip, lsl #3
    26dc:	e202200f 	and	r2, r2, #15
    26e0:	e28d0058 	add	r0, sp, #88	; 0x58
    26e4:	e1811004 	orr	r1, r1, r4
    26e8:	e0802102 	add	r2, r0, r2, lsl #2
    26ec:	e0211005 	eor	r1, r1, r5
    26f0:	e5122040 	ldr	r2, [r2, #-64]	; 0xffffffc0
    26f4:	e0811007 	add	r1, r1, r7
    26f8:	e35c003f 	cmp	ip, #63	; 0x3f
    26fc:	e2637020 	rsb	r7, r3, #32
    2700:	e0813002 	add	r3, r1, r2
    2704:	e0843773 	add	r3, r4, r3, ror r7
    2708:	1affffd9 	bne	0x2674
    270c:	e59d2004 	ldr	r2, [sp, #4]
    2710:	e59d1014 	ldr	r1, [sp, #20]
    2714:	e2822040 	add	r2, r2, #64	; 0x40
    2718:	e1510002 	cmp	r1, r2
    271c:	e58d2004 	str	r2, [sp, #4]
    2720:	e08ee006 	add	lr, lr, r6
    2724:	e0899003 	add	r9, r9, r3
    2728:	e08aa004 	add	sl, sl, r4
    272c:	e08bb005 	add	fp, fp, r5
    2730:	8affffa3 	bhi	0x25c4
    2734:	e59d0010 	ldr	r0, [sp, #16]
    2738:	e1a0242e 	lsr	r2, lr, #8
    273c:	e1a0382e 	lsr	r3, lr, #16
    2740:	e1a01829 	lsr	r1, r9, #16
    2744:	e5c0e000 	strb	lr, [r0]
    2748:	e5c02001 	strb	r2, [r0, #1]
    274c:	e1a0ec2e 	lsr	lr, lr, #24
    2750:	e1a02429 	lsr	r2, r9, #8
    2754:	e5c03002 	strb	r3, [r0, #2]
    2758:	e1a03c29 	lsr	r3, r9, #24
    275c:	e5c0e003 	strb	lr, [r0, #3]
    2760:	e1a0442a 	lsr	r4, sl, #8
    2764:	e5c02005 	strb	r2, [r0, #5]
    2768:	e1a0e82a 	lsr	lr, sl, #16
    276c:	e1a02c2a 	lsr	r2, sl, #24
    2770:	e5c01006 	strb	r1, [r0, #6]
    2774:	e1a0c42b 	lsr	ip, fp, #8
    2778:	e5c03007 	strb	r3, [r0, #7]
    277c:	e1a0182b 	lsr	r1, fp, #16
    2780:	e1a03c2b 	lsr	r3, fp, #24
    2784:	e5c09004 	strb	r9, [r0, #4]
    2788:	e5c0a008 	strb	sl, [r0, #8]
    278c:	e5c0b00c 	strb	fp, [r0, #12]
    2790:	e5c04009 	strb	r4, [r0, #9]
    2794:	e5c0e00a 	strb	lr, [r0, #10]
    2798:	e5c0200b 	strb	r2, [r0, #11]
    279c:	e5c0c00d 	strb	ip, [r0, #13]
    27a0:	e5c0100e 	strb	r1, [r0, #14]
    27a4:	e5c0300f 	strb	r3, [r0, #15]
    27a8:	e28dd05c 	add	sp, sp, #92	; 0x5c
    27ac:	e8bd4ff0 	pop	{r4, r5, r6, r7, r8, r9, sl, fp, lr}
    27b0:	e12fff1e 	bx	lr
    27b4:	e3e0207f 	mvn	r2, #127	; 0x7f
    27b8:	e1a05001 	mov	r5, r1
    27bc:	e7c82003 	strb	r2, [r8, r3]
    27c0:	eaffff66 	b	0x2560
    27c4:	030000d4 	tsteq	r0, #212	; 0xd4
    27c8:	10325476 	eorsne	r5, r2, r6, ror r4
    27cc:	98badcfe 	ldmls	sl!, {r1, r2, r3, r4, r5, r6, r7, sl, fp, ip, lr, pc}
    27d0:	efcdab89 	svc	0x00cdab89
    27d4:	67452301 	strbvs	r2, [r5, -r1, lsl #6]
    27d8:	0800646c 	stmdaeq	r0, {r2, r3, r5, r6, sl, sp, lr}
    27dc:	d76aa478 			; <UNDEFINED> instruction: 0xd76aa478
    27e0:	e59f302c 	ldr	r3, [pc, #44]	; 0x2814
    27e4:	e5930008 	ldr	r0, [r3, #8]
    27e8:	e92d4010 	push	{r4, lr}
    27ec:	e2801010 	add	r1, r0, #16
    27f0:	ebfffab1 	bl	0x12bc
    27f4:	e59f301c 	ldr	r3, [pc, #28]	; 0x2818
    27f8:	e5933000 	ldr	r3, [r3]
    27fc:	e593300c 	ldr	r3, [r3, #12]
    2800:	e0433000 	sub	r3, r3, r0
    2804:	e2730000 	rsbs	r0, r3, #0
    2808:	e0a00003 	adc	r0, r0, r3
    280c:	e8bd4010 	pop	{r4, lr}
    2810:	e12fff1e 	bx	lr
    2814:	030000d4 	tsteq	r0, #212	; 0xd4
    2818:	03000158 	tsteq	r0, #88, 2
    281c:	e92d47f0 	push	{r4, r5, r6, r7, r8, r9, sl, lr}
    2820:	e1a05000 	mov	r5, r0
    2824:	e1a08002 	mov	r8, r2
    2828:	e2407004 	sub	r7, r0, #4
    282c:	e1580001 	cmp	r8, r1
    2830:	da00001b 	ble	0x28a4
    2834:	e0876108 	add	r6, r7, r8, lsl #2
    2838:	e2813001 	add	r3, r1, #1
    283c:	e1580003 	cmp	r8, r3
    2840:	e1a09101 	lsl	r9, r1, #2
    2844:	e0853009 	add	r3, r5, r9
    2848:	e795a101 	ldr	sl, [r5, r1, lsl #2]
    284c:	da000016 	ble	0x28ac
    2850:	e1a02001 	mov	r2, r1
    2854:	e5b30004 	ldr	r0, [r3, #4]!
    2858:	e2824001 	add	r4, r2, #1
    285c:	e150000a 	cmp	r0, sl
    2860:	b795e104 	ldrlt	lr, [r5, r4, lsl #2]
    2864:	e282c002 	add	ip, r2, #2
    2868:	b7850104 	strlt	r0, [r5, r4, lsl #2]
    286c:	b1a02004 	movlt	r2, r4
    2870:	b583e000 	strlt	lr, [r3]
    2874:	b1a0400c 	movlt	r4, ip
    2878:	e1560003 	cmp	r6, r3
    287c:	1afffff4 	bne	0x2854
    2880:	e7950009 	ldr	r0, [r5, r9]
    2884:	e7953102 	ldr	r3, [r5, r2, lsl #2]
    2888:	e7850102 	str	r0, [r5, r2, lsl #2]
    288c:	e7853009 	str	r3, [r5, r9]
    2890:	e1a00005 	mov	r0, r5
    2894:	ebffffe0 	bl	0x281c
    2898:	e1580004 	cmp	r8, r4
    289c:	e1a01004 	mov	r1, r4
    28a0:	caffffe4 	bgt	0x2838
    28a4:	e8bd47f0 	pop	{r4, r5, r6, r7, r8, r9, sl, lr}
    28a8:	e12fff1e 	bx	lr
    28ac:	e1a08001 	mov	r8, r1
    28b0:	eaffffdd 	b	0x282c
    28b4:	e92d4070 	push	{r4, r5, r6, lr}
    28b8:	e3a00001 	mov	r0, #1
    28bc:	ebfffa6b 	bl	0x1270
    28c0:	e59f3058 	ldr	r3, [pc, #88]	; 0x2920
    28c4:	e5933000 	ldr	r3, [r3]
    28c8:	e5933000 	ldr	r3, [r3]
    28cc:	e59f6050 	ldr	r6, [pc, #80]	; 0x2924
    28d0:	e1a00103 	lsl	r0, r3, #2
    28d4:	e5863000 	str	r3, [r6]
    28d8:	ebfffa3e 	bl	0x11d8
    28dc:	e5963000 	ldr	r3, [r6]
    28e0:	e3530000 	cmp	r3, #0
    28e4:	e5860004 	str	r0, [r6, #4]
    28e8:	da00000a 	ble	0x2918
    28ec:	e3a04000 	mov	r4, #0
    28f0:	ebfffa64 	bl	0x1288
    28f4:	e1a05000 	mov	r5, r0
    28f8:	ebfffa62 	bl	0x1288
    28fc:	e5962004 	ldr	r2, [r6, #4]
    2900:	e1800805 	orr	r0, r0, r5, lsl #16
    2904:	e5963000 	ldr	r3, [r6]
    2908:	e7820104 	str	r0, [r2, r4, lsl #2]
    290c:	e2844001 	add	r4, r4, #1
    2910:	e1530004 	cmp	r3, r4
    2914:	cafffff5 	bgt	0x28f0
    2918:	e8bd4070 	pop	{r4, r5, r6, lr}
    291c:	e12fff1e 	bx	lr
    2920:	03000158 	tsteq	r0, #88, 2
    2924:	030000e0 	tsteq	r0, #224	; 0xe0
    2928:	e59f300c 	ldr	r3, [pc, #12]	; 0x293c
    292c:	e3a01000 	mov	r1, #0
    2930:	e5932000 	ldr	r2, [r3]
    2934:	e5930004 	ldr	r0, [r3, #4]
    2938:	eaffffb7 	b	0x281c
    293c:	030000e0 	tsteq	r0, #224	; 0xe0
    2940:	e59f2030 	ldr	r2, [pc, #48]	; 0x2978
    2944:	e892000a 	ldm	r2, {r1, r3}
    2948:	e92d4010 	push	{r4, lr}
    294c:	e1a00003 	mov	r0, r3
    2950:	e0831101 	add	r1, r3, r1, lsl #2
    2954:	ebfffa58 	bl	0x12bc
    2958:	e59f301c 	ldr	r3, [pc, #28]	; 0x297c
    295c:	e5933000 	ldr	r3, [r3]
    2960:	e593300c 	ldr	r3, [r3, #12]
    2964:	e0433000 	sub	r3, r3, r0
    2968:	e2730000 	rsbs	r0, r3, #0
    296c:	e0a00003 	adc	r0, r0, r3
    2970:	e8bd4010 	pop	{r4, lr}
    2974:	e12fff1e 	bx	lr
    2978:	030000e0 	tsteq	r0, #224	; 0xe0
    297c:	03000158 	tsteq	r0, #88, 2
    2980:	e59f3070 	ldr	r3, [pc, #112]	; 0x29f8
    2984:	e92d41f0 	push	{r4, r5, r6, r7, r8, lr}
    2988:	e5934000 	ldr	r4, [r3]
    298c:	e1540000 	cmp	r4, r0
    2990:	03a05001 	moveq	r5, #1
    2994:	0a000014 	beq	0x29ec
    2998:	e1813002 	orr	r3, r1, r2
    299c:	e1833000 	orr	r3, r3, r0
    29a0:	e1d44003 	bics	r4, r4, r3
    29a4:	01a05004 	moveq	r5, r4
    29a8:	0a00000f 	beq	0x29ec
    29ac:	e1a08002 	mov	r8, r2
    29b0:	e1a07001 	mov	r7, r1
    29b4:	e1a06000 	mov	r6, r0
    29b8:	e3a05000 	mov	r5, #0
    29bc:	e2643000 	rsb	r3, r4, #0
    29c0:	e0033004 	and	r3, r3, r4
    29c4:	e1882003 	orr	r2, r8, r3
    29c8:	e1871003 	orr	r1, r7, r3
    29cc:	e1a020a2 	lsr	r2, r2, #1
    29d0:	e1a01081 	lsl	r1, r1, #1
    29d4:	e1860003 	orr	r0, r6, r3
    29d8:	e0444003 	sub	r4, r4, r3
    29dc:	ebffffe7 	bl	0x2980
    29e0:	e3540000 	cmp	r4, #0
    29e4:	e0855000 	add	r5, r5, r0
    29e8:	1afffff3 	bne	0x29bc
    29ec:	e1a00005 	mov	r0, r5
    29f0:	e8bd41f0 	pop	{r4, r5, r6, r7, r8, lr}
    29f4:	e12fff1e 	bx	lr
    29f8:	030000e8 	tsteq	r0, #232	; 0xe8
    29fc:	e3e03000 	mvn	r3, #0
    2a00:	e59f201c 	ldr	r2, [pc, #28]	; 0x2a24
    2a04:	e5922000 	ldr	r2, [r2]
    2a08:	e5922000 	ldr	r2, [r2]
    2a0c:	e3a01000 	mov	r1, #0
    2a10:	e1e03213 	mvn	r3, r3, lsl r2
    2a14:	e59f200c 	ldr	r2, [pc, #12]	; 0x2a28
    2a18:	e5823000 	str	r3, [r2]
    2a1c:	e5821004 	str	r1, [r2, #4]
    2a20:	e12fff1e 	bx	lr
    2a24:	03000158 	tsteq	r0, #88, 2
    2a28:	030000e8 	tsteq	r0, #232	; 0xe8
    2a2c:	e3a02000 	mov	r2, #0
    2a30:	e92d4010 	push	{r4, lr}
    2a34:	e1a01002 	mov	r1, r2
    2a38:	e1a00002 	mov	r0, r2
    2a3c:	ebffffcf 	bl	0x2980
    2a40:	e59f3008 	ldr	r3, [pc, #8]	; 0x2a50
    2a44:	e8bd4010 	pop	{r4, lr}
    2a48:	e5830004 	str	r0, [r3, #4]
    2a4c:	e12fff1e 	bx	lr
    2a50:	030000e8 	tsteq	r0, #232	; 0xe8
    2a54:	e59f201c 	ldr	r2, [pc, #28]	; 0x2a78
    2a58:	e59f301c 	ldr	r3, [pc, #28]	; 0x2a7c
    2a5c:	e5922000 	ldr	r2, [r2]
    2a60:	e5933004 	ldr	r3, [r3, #4]
    2a64:	e592000c 	ldr	r0, [r2, #12]
    2a68:	e0403003 	sub	r3, r0, r3
    2a6c:	e2730000 	rsbs	r0, r3, #0
    2a70:	e0a00003 	adc	r0, r0, r3
    2a74:	e12fff1e 	bx	lr
    2a78:	03000158 	tsteq	r0, #88, 2
    2a7c:	030000e8 	tsteq	r0, #232	; 0xe8
    2a80:	e3500000 	cmp	r0, #0
    2a84:	112fff1e 	bxne	lr
    2a88:	e3a03301 	mov	r3, #67108864	; 0x4000000
    2a8c:	e3a0c003 	mov	ip, #3
    2a90:	e3a00004 	mov	r0, #4
    2a94:	e3a02406 	mov	r2, #100663296	; 0x6000000
    2a98:	e3a0101f 	mov	r1, #31
    2a9c:	e5c3c000 	strb	ip, [r3]
    2aa0:	e5c30001 	strb	r0, [r3, #1]
    2aa4:	e1c210b0 	strh	r1, [r2]
    2aa8:	eafffffe 	b	0x2aa8
    2aac:	e3500009 	cmp	r0, #9
    2ab0:	959f3008 	ldrls	r3, [pc, #8]	; 0x2ac0
    2ab4:	97930100 	ldrls	r0, [r3, r0, lsl #2]
    2ab8:	83e00000 	mvnhi	r0, #0
    2abc:	e12fff1e 	bx	lr
    2ac0:	0800666c 	stmdaeq	r0, {r2, r3, r5, r6, r9, sl, sp, lr}
    2ac4:	e3a02000 	mov	r2, #0
    2ac8:	e52de004 	push	{lr}		; (str lr, [sp, #-4]!)
    2acc:	e5d03000 	ldrb	r3, [r0]
    2ad0:	e2033002 	and	r3, r3, #2
    2ad4:	e1530002 	cmp	r3, r2
    2ad8:	13a03005 	movne	r3, #5
    2adc:	03a03002 	moveq	r3, #2
    2ae0:	13e0c000 	mvnne	ip, #0
    2ae4:	03a0c0ff 	moveq	ip, #255	; 0xff
    2ae8:	13a0e020 	movne	lr, #32
    2aec:	03a0e008 	moveq	lr, #8
    2af0:	e1a01002 	mov	r1, r2
    2af4:	e0803003 	add	r3, r0, r3
    2af8:	e4d30001 	ldrb	r0, [r3], #1
    2afc:	e1811210 	orr	r1, r1, r0, lsl r2
    2b00:	e2822008 	add	r2, r2, #8
    2b04:	e15e0002 	cmp	lr, r2
    2b08:	1afffffa 	bne	0x2af8
    2b0c:	e001000c 	and	r0, r1, ip
    2b10:	e49de004 	pop	{lr}		; (ldr lr, [sp], #4)
    2b14:	e12fff1e 	bx	lr
    2b18:	e5d03000 	ldrb	r3, [r0]
    2b1c:	e3130002 	tst	r3, #2
    2b20:	0a000008 	beq	0x2b48
    2b24:	e3a02000 	mov	r2, #0
    2b28:	e1a03000 	mov	r3, r0
    2b2c:	e1a00002 	mov	r0, r2
    2b30:	e5f31001 	ldrb	r1, [r3, #1]!
    2b34:	e1800211 	orr	r0, r0, r1, lsl r2
    2b38:	e2822008 	add	r2, r2, #8
    2b3c:	e3520020 	cmp	r2, #32
    2b40:	1afffffa 	bne	0x2b30
    2b44:	e12fff1e 	bx	lr
    2b48:	e5d00001 	ldrb	r0, [r0, #1]
    2b4c:	e12fff1e 	bx	lr
    2b50:	e5d03000 	ldrb	r3, [r0]
    2b54:	e3130002 	tst	r3, #2
    2b58:	13a00009 	movne	r0, #9
    2b5c:	03a00003 	moveq	r0, #3
    2b60:	e12fff1e 	bx	lr
    2b64:	e92d4ff0 	push	{r4, r5, r6, r7, r8, r9, sl, fp, lr}
    2b68:	e1a0e002 	mov	lr, r2
    2b6c:	e24dd044 	sub	sp, sp, #68	; 0x44
    2b70:	e58d2030 	str	r2, [sp, #48]	; 0x30
    2b74:	e59f279c 	ldr	r2, [pc, #1948]	; 0x3318
    2b78:	e24ec001 	sub	ip, lr, #1
    2b7c:	e15c0002 	cmp	ip, r2
    2b80:	e58d0028 	str	r0, [sp, #40]	; 0x28
    2b84:	e58d1034 	str	r1, [sp, #52]	; 0x34
    2b88:	e58d300c 	str	r3, [sp, #12]
    2b8c:	83a00000 	movhi	r0, #0
    2b90:	8a000146 	bhi	0x30b0
    2b94:	e35e00d8 	cmp	lr, #216	; 0xd8
    2b98:	33a02003 	movcc	r2, #3
    2b9c:	23a02009 	movcs	r2, #9
    2ba0:	e58d2038 	str	r2, [sp, #56]	; 0x38
    2ba4:	e1a02003 	mov	r2, r3
    2ba8:	e3a01000 	mov	r1, #0
    2bac:	e2833701 	add	r3, r3, #262144	; 0x40000
    2bb0:	e2822a41 	add	r2, r2, #266240	; 0x41000
    2bb4:	e2833003 	add	r3, r3, #3
    2bb8:	e2822003 	add	r2, r2, #3
    2bbc:	e5e31001 	strb	r1, [r3, #1]!
    2bc0:	e1520003 	cmp	r2, r3
    2bc4:	1afffffc 	bne	0x2bbc
    2bc8:	e59d3028 	ldr	r3, [sp, #40]	; 0x28
    2bcc:	e083200c 	add	r2, r3, ip
    2bd0:	e242100a 	sub	r1, r2, #10
    2bd4:	e28d0034 	add	r0, sp, #52	; 0x34
    2bd8:	e58d101c 	str	r1, [sp, #28]
    2bdc:	e1530001 	cmp	r3, r1
    2be0:	e8900003 	ldm	r0, {r0, r1}
    2be4:	e0811000 	add	r1, r1, r0
    2be8:	e2810004 	add	r0, r1, #4
    2bec:	e58d203c 	str	r2, [sp, #60]	; 0x3c
    2bf0:	e58d102c 	str	r1, [sp, #44]	; 0x2c
    2bf4:	e58d0008 	str	r0, [sp, #8]
    2bf8:	8a0001ae 	bhi	0x32b8
    2bfc:	e59d0030 	ldr	r0, [sp, #48]	; 0x30
    2c00:	e1a0b003 	mov	fp, r3
    2c04:	e08300a0 	add	r0, r3, r0, lsr #1
    2c08:	e3a03102 	mov	r3, #-2147483648	; 0x80000000
    2c0c:	e2422004 	sub	r2, r2, #4
    2c10:	e58d0024 	str	r0, [sp, #36]	; 0x24
    2c14:	e58d2020 	str	r2, [sp, #32]
    2c18:	e58d1018 	str	r1, [sp, #24]
    2c1c:	e58d3000 	str	r3, [sp]
    2c20:	e1a0900b 	mov	r9, fp
    2c24:	e5dbe002 	ldrb	lr, [fp, #2]
    2c28:	e5db2001 	ldrb	r2, [fp, #1]
    2c2c:	e4593002 	ldrb	r3, [r9], #-2
    2c30:	e1a0e80e 	lsl	lr, lr, #16
    2c34:	e18ee402 	orr	lr, lr, r2, lsl #8
    2c38:	e18ee003 	orr	lr, lr, r3
    2c3c:	e02e362e 	eor	r3, lr, lr, lsr #12
    2c40:	e1a03a03 	lsl	r3, r3, #20
    2c44:	e1a03a23 	lsr	r3, r3, #20
    2c48:	e59d100c 	ldr	r1, [sp, #12]
    2c4c:	e1a0c303 	lsl	ip, r3, #6
    2c50:	e0812003 	add	r2, r1, r3
    2c54:	e58d3010 	str	r3, [sp, #16]
    2c58:	e081300c 	add	r3, r1, ip
    2c5c:	e593a004 	ldr	sl, [r3, #4]
    2c60:	e59d3020 	ldr	r3, [sp, #32]
    2c64:	e58d2014 	str	r2, [sp, #20]
    2c68:	e2822701 	add	r2, r2, #262144	; 0x40000
    2c6c:	e043700b 	sub	r7, r3, fp
    2c70:	e5d28004 	ldrb	r8, [r2, #4]
    2c74:	e35700fe 	cmp	r7, #254	; 0xfe
    2c78:	a3a070fe 	movge	r7, #254	; 0xfe
    2c7c:	e3580000 	cmp	r8, #0
    2c80:	115a0009 	cmpne	sl, r9
    2c84:	e2877001 	add	r7, r7, #1
    2c88:	33a03001 	movcc	r3, #1
    2c8c:	23a03000 	movcs	r3, #0
    2c90:	3a00007a 	bcc	0x2e80
    2c94:	e58d3004 	str	r3, [sp, #4]
    2c98:	e59d300c 	ldr	r3, [sp, #12]
    2c9c:	e28cc008 	add	ip, ip, #8
    2ca0:	e3a02001 	mov	r2, #1
    2ca4:	e083c00c 	add	ip, r3, ip
    2ca8:	ea000002 	b	0x2cb8
    2cac:	e2822001 	add	r2, r2, #1
    2cb0:	e3520010 	cmp	r2, #16
    2cb4:	0a000034 	beq	0x2d8c
    2cb8:	e1580002 	cmp	r8, r2
    2cbc:	9a000032 	bls	0x2d8c
    2cc0:	e49c1004 	ldr	r1, [ip], #4
    2cc4:	e5d13002 	ldrb	r3, [r1, #2]
    2cc8:	e5d14001 	ldrb	r4, [r1, #1]
    2ccc:	e1a03803 	lsl	r3, r3, #16
    2cd0:	e5d10000 	ldrb	r0, [r1]
    2cd4:	e1833404 	orr	r3, r3, r4, lsl #8
    2cd8:	e1830000 	orr	r0, r3, r0
    2cdc:	e040400e 	sub	r4, r0, lr
    2ce0:	e2743000 	rsbs	r3, r4, #0
    2ce4:	e0a33004 	adc	r3, r3, r4
    2ce8:	e1590001 	cmp	r9, r1
    2cec:	93a03000 	movls	r3, #0
    2cf0:	e3530000 	cmp	r3, #0
    2cf4:	0affffec 	beq	0x2cac
    2cf8:	e5d14003 	ldrb	r4, [r1, #3]
    2cfc:	e5db0003 	ldrb	r0, [fp, #3]
    2d00:	e0440000 	sub	r0, r4, r0
    2d04:	e2703000 	rsbs	r3, r0, #0
    2d08:	e0a33000 	adc	r3, r3, r0
    2d0c:	e3570003 	cmp	r7, #3
    2d10:	93a03000 	movls	r3, #0
    2d14:	e3530000 	cmp	r3, #0
    2d18:	e3a00003 	mov	r0, #3
    2d1c:	0a00000b 	beq	0x2d50
    2d20:	e0815000 	add	r5, r1, r0
    2d24:	e08b4000 	add	r4, fp, r0
    2d28:	e5f53001 	ldrb	r3, [r5, #1]!
    2d2c:	e5f46001 	ldrb	r6, [r4, #1]!
    2d30:	e0436006 	sub	r6, r3, r6
    2d34:	e2763000 	rsbs	r3, r6, #0
    2d38:	e2800001 	add	r0, r0, #1
    2d3c:	e0a33006 	adc	r3, r3, r6
    2d40:	e1570000 	cmp	r7, r0
    2d44:	93a03000 	movls	r3, #0
    2d48:	e3530000 	cmp	r3, #0
    2d4c:	1afffff5 	bne	0x2d28
    2d50:	e59d3004 	ldr	r3, [sp, #4]
    2d54:	e1530000 	cmp	r3, r0
    2d58:	358d0004 	strcc	r0, [sp, #4]
    2d5c:	31a0a001 	movcc	sl, r1
    2d60:	3affffd1 	bcc	0x2cac
    2d64:	03a03001 	moveq	r3, #1
    2d68:	13a03000 	movne	r3, #0
    2d6c:	e15a0001 	cmp	sl, r1
    2d70:	23a03000 	movcs	r3, #0
    2d74:	32033001 	andcc	r3, r3, #1
    2d78:	e2822001 	add	r2, r2, #1
    2d7c:	e3530000 	cmp	r3, #0
    2d80:	11a0a001 	movne	sl, r1
    2d84:	e3520010 	cmp	r2, #16
    2d88:	1affffca 	bne	0x2cb8
    2d8c:	e59d2010 	ldr	r2, [sp, #16]
    2d90:	e59d1004 	ldr	r1, [sp, #4]
    2d94:	e208300f 	and	r3, r8, #15
    2d98:	e0833202 	add	r3, r3, r2, lsl #4
    2d9c:	e3510002 	cmp	r1, #2
    2da0:	e59d2014 	ldr	r2, [sp, #20]
    2da4:	e59d100c 	ldr	r1, [sp, #12]
    2da8:	e2822701 	add	r2, r2, #262144	; 0x40000
    2dac:	e0813103 	add	r3, r1, r3, lsl #2
    2db0:	e2888001 	add	r8, r8, #1
    2db4:	e583b004 	str	fp, [r3, #4]
    2db8:	e5c28004 	strb	r8, [r2, #4]
    2dbc:	9a000003 	bls	0x2dd0
    2dc0:	e59f3554 	ldr	r3, [pc, #1364]	; 0x331c
    2dc4:	e04ba00a 	sub	sl, fp, sl
    2dc8:	e15a0003 	cmp	sl, r3
    2dcc:	da000053 	ble	0x2f20
    2dd0:	e4db3001 	ldrb	r3, [fp], #1
    2dd4:	e59d2008 	ldr	r2, [sp, #8]
    2dd8:	e4c23001 	strb	r3, [r2], #1
    2ddc:	e59d3000 	ldr	r3, [sp]
    2de0:	e1a030a3 	lsr	r3, r3, #1
    2de4:	e58d2008 	str	r2, [sp, #8]
    2de8:	e58d3000 	str	r3, [sp]
    2dec:	e59d301c 	ldr	r3, [sp, #28]
    2df0:	e153000b 	cmp	r3, fp
    2df4:	e59d3000 	ldr	r3, [sp]
    2df8:	e2033001 	and	r3, r3, #1
    2dfc:	e1a02003 	mov	r2, r3
    2e00:	3a0000d5 	bcc	0x315c
    2e04:	e3530000 	cmp	r3, #0
    2e08:	0affff84 	beq	0x2c20
    2e0c:	e59d3024 	ldr	r3, [sp, #36]	; 0x24
    2e10:	e153000b 	cmp	r3, fp
    2e14:	2a000007 	bcs	0x2e38
    2e18:	e59d3028 	ldr	r3, [sp, #40]	; 0x28
    2e1c:	e59d2008 	ldr	r2, [sp, #8]
    2e20:	e59d102c 	ldr	r1, [sp, #44]	; 0x2c
    2e24:	e04b3003 	sub	r3, fp, r3
    2e28:	e04332c3 	sub	r3, r3, r3, asr #5
    2e2c:	e0422001 	sub	r2, r2, r1
    2e30:	e1520003 	cmp	r2, r3
    2e34:	ca000102 	bgt	0x3244
    2e38:	e3a02102 	mov	r2, #-2147483648	; 0x80000000
    2e3c:	e59d3000 	ldr	r3, [sp]
    2e40:	e1a030a3 	lsr	r3, r3, #1
    2e44:	e59d1018 	ldr	r1, [sp, #24]
    2e48:	e1833002 	orr	r3, r3, r2
    2e4c:	e58d2000 	str	r2, [sp]
    2e50:	e1a02423 	lsr	r2, r3, #8
    2e54:	e5c13000 	strb	r3, [r1]
    2e58:	e5c12001 	strb	r2, [r1, #1]
    2e5c:	e1a02823 	lsr	r2, r3, #16
    2e60:	e1a03c23 	lsr	r3, r3, #24
    2e64:	e5c13003 	strb	r3, [r1, #3]
    2e68:	e59d3008 	ldr	r3, [sp, #8]
    2e6c:	e58d3018 	str	r3, [sp, #24]
    2e70:	e2833004 	add	r3, r3, #4
    2e74:	e5c12002 	strb	r2, [r1, #2]
    2e78:	e58d3008 	str	r3, [sp, #8]
    2e7c:	eaffff67 	b	0x2c20
    2e80:	e5da3002 	ldrb	r3, [sl, #2]
    2e84:	e5da1001 	ldrb	r1, [sl, #1]
    2e88:	e1a03803 	lsl	r3, r3, #16
    2e8c:	e5da2000 	ldrb	r2, [sl]
    2e90:	e1833401 	orr	r3, r3, r1, lsl #8
    2e94:	e1833002 	orr	r3, r3, r2
    2e98:	e153000e 	cmp	r3, lr
    2e9c:	13a03000 	movne	r3, #0
    2ea0:	158d3004 	strne	r3, [sp, #4]
    2ea4:	1affff7b 	bne	0x2c98
    2ea8:	e5db3003 	ldrb	r3, [fp, #3]
    2eac:	e5da2003 	ldrb	r2, [sl, #3]
    2eb0:	e1520003 	cmp	r2, r3
    2eb4:	13a03003 	movne	r3, #3
    2eb8:	158d3004 	strne	r3, [sp, #4]
    2ebc:	1affff75 	bne	0x2c98
    2ec0:	e5da1004 	ldrb	r1, [sl, #4]
    2ec4:	e5db2004 	ldrb	r2, [fp, #4]
    2ec8:	e0416002 	sub	r6, r1, r2
    2ecc:	e2763000 	rsbs	r3, r6, #0
    2ed0:	e0a33006 	adc	r3, r3, r6
    2ed4:	e3570004 	cmp	r7, #4
    2ed8:	93a03000 	movls	r3, #0
    2edc:	e3530000 	cmp	r3, #0
    2ee0:	0a000108 	beq	0x3308
    2ee4:	e3a00004 	mov	r0, #4
    2ee8:	e08a1000 	add	r1, sl, r0
    2eec:	e08b2000 	add	r2, fp, r0
    2ef0:	e5f15001 	ldrb	r5, [r1, #1]!
    2ef4:	e5f24001 	ldrb	r4, [r2, #1]!
    2ef8:	e0455004 	sub	r5, r5, r4
    2efc:	e2753000 	rsbs	r3, r5, #0
    2f00:	e2800001 	add	r0, r0, #1
    2f04:	e0a33005 	adc	r3, r3, r5
    2f08:	e1570000 	cmp	r7, r0
    2f0c:	93a03000 	movls	r3, #0
    2f10:	e3530000 	cmp	r3, #0
    2f14:	1afffff5 	bne	0x2ef0
    2f18:	e58d0004 	str	r0, [sp, #4]
    2f1c:	eaffff5d 	b	0x2c98
    2f20:	e1a0c001 	mov	ip, r1
    2f24:	e59d3004 	ldr	r3, [sp, #4]
    2f28:	e28b2001 	add	r2, fp, #1
    2f2c:	e08bb003 	add	fp, fp, r3
    2f30:	e1a00002 	mov	r0, r2
    2f34:	e5f2e001 	ldrb	lr, [r2, #1]!
    2f38:	e5d23001 	ldrb	r3, [r2, #1]
    2f3c:	e5d01000 	ldrb	r1, [r0]
    2f40:	e1a03803 	lsl	r3, r3, #16
    2f44:	e183340e 	orr	r3, r3, lr, lsl #8
    2f48:	e1833001 	orr	r3, r3, r1
    2f4c:	e0233623 	eor	r3, r3, r3, lsr #12
    2f50:	e1a03a03 	lsl	r3, r3, #20
    2f54:	e1a03a23 	lsr	r3, r3, #20
    2f58:	e08ce003 	add	lr, ip, r3
    2f5c:	e28ee701 	add	lr, lr, #262144	; 0x40000
    2f60:	e5de4004 	ldrb	r4, [lr, #4]
    2f64:	e204100f 	and	r1, r4, #15
    2f68:	e0813203 	add	r3, r1, r3, lsl #4
    2f6c:	e2844001 	add	r4, r4, #1
    2f70:	e08c3103 	add	r3, ip, r3, lsl #2
    2f74:	e15b0002 	cmp	fp, r2
    2f78:	e5ce4004 	strb	r4, [lr, #4]
    2f7c:	e5830004 	str	r0, [r3, #4]
    2f80:	1affffea 	bne	0x2f30
    2f84:	e59d2004 	ldr	r2, [sp, #4]
    2f88:	e2421003 	sub	r1, r2, #3
    2f8c:	e2713000 	rsbs	r3, r1, #0
    2f90:	e0a33001 	adc	r3, r3, r1
    2f94:	e35a003f 	cmp	sl, #63	; 0x3f
    2f98:	93520003 	cmpls	r2, #3
    2f9c:	e59d2000 	ldr	r2, [sp]
    2fa0:	e1a020a2 	lsr	r2, r2, #1
    2fa4:	e3822102 	orr	r2, r2, #-2147483648	; 0x80000000
    2fa8:	e58d2000 	str	r2, [sp]
    2fac:	1a000042 	bne	0x30bc
    2fb0:	e59d3008 	ldr	r3, [sp, #8]
    2fb4:	e1a0a10a 	lsl	sl, sl, #2
    2fb8:	e4c3a001 	strb	sl, [r3], #1
    2fbc:	e58d3008 	str	r3, [sp, #8]
    2fc0:	eaffff89 	b	0x2dec
    2fc4:	e58de000 	str	lr, [sp]
    2fc8:	e58d4008 	str	r4, [sp, #8]
    2fcc:	e58d5018 	str	r5, [sp, #24]
    2fd0:	e3520000 	cmp	r2, #0
    2fd4:	059d2000 	ldreq	r2, [sp]
    2fd8:	0a000001 	beq	0x2fe4
    2fdc:	ea000004 	b	0x2ff4
    2fe0:	e1a02003 	mov	r2, r3
    2fe4:	e1a030a2 	lsr	r3, r2, #1
    2fe8:	e3130001 	tst	r3, #1
    2fec:	0afffffb 	beq	0x2fe0
    2ff0:	e1a00122 	lsr	r0, r2, #2
    2ff4:	e59de018 	ldr	lr, [sp, #24]
    2ff8:	e59d3008 	ldr	r3, [sp, #8]
    2ffc:	e59d202c 	ldr	r2, [sp, #44]	; 0x2c
    3000:	e3800102 	orr	r0, r0, #-2147483648	; 0x80000000
    3004:	e043c002 	sub	ip, r3, r2
    3008:	e1a01420 	lsr	r1, r0, #8
    300c:	e1a03c20 	lsr	r3, r0, #24
    3010:	e1a02820 	lsr	r2, r0, #16
    3014:	e5ce0000 	strb	r0, [lr]
    3018:	e59d0038 	ldr	r0, [sp, #56]	; 0x38
    301c:	e5ce3003 	strb	r3, [lr, #3]
    3020:	e35c0009 	cmp	ip, #9
    3024:	a080000c 	addge	r0, r0, ip
    3028:	b2800009 	addlt	r0, r0, #9
    302c:	e3a03001 	mov	r3, #1
    3030:	e5ce1001 	strb	r1, [lr, #1]
    3034:	e5ce2002 	strb	r2, [lr, #2]
    3038:	e3a02000 	mov	r2, #0
    303c:	e59d1038 	ldr	r1, [sp, #56]	; 0x38
    3040:	e3510003 	cmp	r1, #3
    3044:	e59d100c 	ldr	r1, [sp, #12]
    3048:	e5812000 	str	r2, [r1]
    304c:	e59d2030 	ldr	r2, [sp, #48]	; 0x30
    3050:	e20010ff 	and	r1, r0, #255	; 0xff
    3054:	e20220ff 	and	r2, r2, #255	; 0xff
    3058:	0a000065 	beq	0x31f4
    305c:	e59d4034 	ldr	r4, [sp, #52]	; 0x34
    3060:	e1a0c420 	lsr	ip, r0, #8
    3064:	e5c4c002 	strb	ip, [r4, #2]
    3068:	e59dc030 	ldr	ip, [sp, #48]	; 0x30
    306c:	e5c41001 	strb	r1, [r4, #1]
    3070:	e1a01820 	lsr	r1, r0, #16
    3074:	e5c41003 	strb	r1, [r4, #3]
    3078:	e1a0100c 	mov	r1, ip
    307c:	e1a0e42c 	lsr	lr, ip, #8
    3080:	e5c42005 	strb	r2, [r4, #5]
    3084:	e1a0c82c 	lsr	ip, ip, #16
    3088:	e1a02c20 	lsr	r2, r0, #24
    308c:	e1a01c21 	lsr	r1, r1, #24
    3090:	e5c42004 	strb	r2, [r4, #4]
    3094:	e5c4e006 	strb	lr, [r4, #6]
    3098:	e5c4c007 	strb	ip, [r4, #7]
    309c:	e5c41008 	strb	r1, [r4, #8]
    30a0:	e3833002 	orr	r3, r3, #2
    30a4:	e59d2034 	ldr	r2, [sp, #52]	; 0x34
    30a8:	e383304c 	orr	r3, r3, #76	; 0x4c
    30ac:	e5c23000 	strb	r3, [r2]
    30b0:	e28dd044 	add	sp, sp, #68	; 0x44
    30b4:	e8bd4ff0 	pop	{r4, r5, r6, r7, r8, r9, sl, fp, lr}
    30b8:	e12fff1e 	bx	lr
    30bc:	e59f225c 	ldr	r2, [pc, #604]	; 0x3320
    30c0:	e15a0002 	cmp	sl, r2
    30c4:	83a03000 	movhi	r3, #0
    30c8:	92033001 	andls	r3, r3, #1
    30cc:	e3530000 	cmp	r3, #0
    30d0:	11a0a10a 	lslne	sl, sl, #2
    30d4:	138a3001 	orrne	r3, sl, #1
    30d8:	1a000018 	bne	0x3140
    30dc:	e59d3004 	ldr	r3, [sp, #4]
    30e0:	e59f223c 	ldr	r2, [pc, #572]	; 0x3324
    30e4:	e3530012 	cmp	r3, #18
    30e8:	915a0002 	cmpls	sl, r2
    30ec:	9a00000f 	bls	0x3130
    30f0:	e59d3004 	ldr	r3, [sp, #4]
    30f4:	e3530021 	cmp	r3, #33	; 0x21
    30f8:	8a000041 	bhi	0x3204
    30fc:	e2432002 	sub	r2, r3, #2
    3100:	e1a0338a 	lsl	r3, sl, #7
    3104:	e59d0008 	ldr	r0, [sp, #8]
    3108:	e1833102 	orr	r3, r3, r2, lsl #2
    310c:	e3833003 	orr	r3, r3, #3
    3110:	e1a01423 	lsr	r1, r3, #8
    3114:	e1a02823 	lsr	r2, r3, #16
    3118:	e5c03000 	strb	r3, [r0]
    311c:	e2803003 	add	r3, r0, #3
    3120:	e5c01001 	strb	r1, [r0, #1]
    3124:	e5c02002 	strb	r2, [r0, #2]
    3128:	e58d3008 	str	r3, [sp, #8]
    312c:	eaffff2e 	b	0x2dec
    3130:	e2432003 	sub	r2, r3, #3
    3134:	e1a0330a 	lsl	r3, sl, #6
    3138:	e1833102 	orr	r3, r3, r2, lsl #2
    313c:	e3833002 	orr	r3, r3, #2
    3140:	e59d1008 	ldr	r1, [sp, #8]
    3144:	e1a02423 	lsr	r2, r3, #8
    3148:	e5c13000 	strb	r3, [r1]
    314c:	e2813002 	add	r3, r1, #2
    3150:	e5c12001 	strb	r2, [r1, #1]
    3154:	e58d3008 	str	r3, [sp, #8]
    3158:	eaffff23 	b	0x2dec
    315c:	e59d103c 	ldr	r1, [sp, #60]	; 0x3c
    3160:	e151000b 	cmp	r1, fp
    3164:	e59d1000 	ldr	r1, [sp]
    3168:	e1a010a1 	lsr	r1, r1, #1
    316c:	e1a00001 	mov	r0, r1
    3170:	3affff96 	bcc	0x2fd0
    3174:	e59d2028 	ldr	r2, [sp, #40]	; 0x28
    3178:	e59d0030 	ldr	r0, [sp, #48]	; 0x30
    317c:	e59de000 	ldr	lr, [sp]
    3180:	e082c000 	add	ip, r2, r0
    3184:	e59d4008 	ldr	r4, [sp, #8]
    3188:	e59d5018 	ldr	r5, [sp, #24]
    318c:	ea000008 	b	0x31b4
    3190:	e1a0012e 	lsr	r0, lr, #2
    3194:	e1a0e001 	mov	lr, r1
    3198:	e2012001 	and	r2, r1, #1
    319c:	e4db3001 	ldrb	r3, [fp], #1
    31a0:	e15b000c 	cmp	fp, ip
    31a4:	e4c43001 	strb	r3, [r4], #1
    31a8:	0affff85 	beq	0x2fc4
    31ac:	e1a010ae 	lsr	r1, lr, #1
    31b0:	e20e3001 	and	r3, lr, #1
    31b4:	e3530000 	cmp	r3, #0
    31b8:	0afffff4 	beq	0x3190
    31bc:	e3811102 	orr	r1, r1, #-2147483648	; 0x80000000
    31c0:	e1a03421 	lsr	r3, r1, #8
    31c4:	e5c51000 	strb	r1, [r5]
    31c8:	e5c53001 	strb	r3, [r5, #1]
    31cc:	e1a03821 	lsr	r3, r1, #16
    31d0:	e1a01c21 	lsr	r1, r1, #24
    31d4:	e5c53002 	strb	r3, [r5, #2]
    31d8:	e5c51003 	strb	r1, [r5, #3]
    31dc:	e3a00202 	mov	r0, #536870912	; 0x20000000
    31e0:	e1a05004 	mov	r5, r4
    31e4:	e3a02000 	mov	r2, #0
    31e8:	e3a0e101 	mov	lr, #1073741824	; 0x40000000
    31ec:	e2844004 	add	r4, r4, #4
    31f0:	eaffffe9 	b	0x319c
    31f4:	e59dc034 	ldr	ip, [sp, #52]	; 0x34
    31f8:	e5cc1001 	strb	r1, [ip, #1]
    31fc:	e5cc2002 	strb	r2, [ip, #2]
    3200:	eaffffa7 	b	0x30a4
    3204:	e59d3004 	ldr	r3, [sp, #4]
    3208:	e1a0a78a 	lsl	sl, sl, #15
    320c:	e2433003 	sub	r3, r3, #3
    3210:	e59d0008 	ldr	r0, [sp, #8]
    3214:	e18a3383 	orr	r3, sl, r3, lsl #7
    3218:	e3833003 	orr	r3, r3, #3
    321c:	e1a01423 	lsr	r1, r3, #8
    3220:	e1a02823 	lsr	r2, r3, #16
    3224:	e5c03000 	strb	r3, [r0]
    3228:	e1a03c23 	lsr	r3, r3, #24
    322c:	e5c03003 	strb	r3, [r0, #3]
    3230:	e2803004 	add	r3, r0, #4
    3234:	e5c01001 	strb	r1, [r0, #1]
    3238:	e5c02002 	strb	r2, [r0, #2]
    323c:	e58d3008 	str	r3, [sp, #8]
    3240:	eafffee9 	b	0x2dec
    3244:	e59d5028 	ldr	r5, [sp, #40]	; 0x28
    3248:	e59d402c 	ldr	r4, [sp, #44]	; 0x2c
    324c:	e2950000 	adds	r0, r5, #0
    3250:	13a00001 	movne	r0, #1
    3254:	e3540000 	cmp	r4, #0
    3258:	03a00000 	moveq	r0, #0
    325c:	ebfffe07 	bl	0x2a80
    3260:	e59d3030 	ldr	r3, [sp, #48]	; 0x30
    3264:	e0853003 	add	r3, r5, r3
    3268:	e1540003 	cmp	r4, r3
    326c:	e1a02004 	mov	r2, r4
    3270:	23a02000 	movcs	r2, #0
    3274:	33a02001 	movcc	r2, #1
    3278:	e1540005 	cmp	r4, r5
    327c:	93a02000 	movls	r2, #0
    3280:	e3520000 	cmp	r2, #0
    3284:	e59d202c 	ldr	r2, [sp, #44]	; 0x2c
    3288:	1a000016 	bne	0x32e8
    328c:	e59d1028 	ldr	r1, [sp, #40]	; 0x28
    3290:	e2422001 	sub	r2, r2, #1
    3294:	e4d10001 	ldrb	r0, [r1], #1
    3298:	e1530001 	cmp	r3, r1
    329c:	e5e20001 	strb	r0, [r2, #1]!
    32a0:	1afffffb 	bne	0x3294
    32a4:	e59d3038 	ldr	r3, [sp, #56]	; 0x38
    32a8:	e59d2030 	ldr	r2, [sp, #48]	; 0x30
    32ac:	e0830002 	add	r0, r3, r2
    32b0:	e3a03000 	mov	r3, #0
    32b4:	eaffff5f 	b	0x3038
    32b8:	e59d3028 	ldr	r3, [sp, #40]	; 0x28
    32bc:	e59d203c 	ldr	r2, [sp, #60]	; 0x3c
    32c0:	e1530002 	cmp	r3, r2
    32c4:	e59d302c 	ldr	r3, [sp, #44]	; 0x2c
    32c8:	e58d3018 	str	r3, [sp, #24]
    32cc:	8a00000f 	bhi	0x3310
    32d0:	e3a03102 	mov	r3, #-2147483648	; 0x80000000
    32d4:	e59db028 	ldr	fp, [sp, #40]	; 0x28
    32d8:	e58d3000 	str	r3, [sp]
    32dc:	e3a01101 	mov	r1, #1073741824	; 0x40000000
    32e0:	e3a03000 	mov	r3, #0
    32e4:	eaffffa2 	b	0x3174
    32e8:	e59d1030 	ldr	r1, [sp, #48]	; 0x30
    32ec:	e59d0028 	ldr	r0, [sp, #40]	; 0x28
    32f0:	e0822001 	add	r2, r2, r1
    32f4:	e5731001 	ldrb	r1, [r3, #-1]!
    32f8:	e1500003 	cmp	r0, r3
    32fc:	e5621001 	strb	r1, [r2, #-1]!
    3300:	1afffffb 	bne	0x32f4
    3304:	eaffffe6 	b	0x32a4
    3308:	e3a03004 	mov	r3, #4
    330c:	eafffe60 	b	0x2c94
    3310:	e3a03102 	mov	r3, #-2147483648	; 0x80000000
    3314:	eaffff31 	b	0x2fe0
    3318:	fffffe6e 			; <UNDEFINED> instruction: 0xfffffe6e
    331c:	0001fffe 			; <UNDEFINED> instruction: 0x0001fffe
    3320:	00003fff 			; <UNDEFINED> instruction: 0x00003fff
    3324:	000003ff 			; <UNDEFINED> instruction: 0x000003ff
    3328:	e92d4ff0 	push	{r4, r5, r6, r7, r8, r9, sl, fp, lr}
    332c:	e1a04000 	mov	r4, r0
    3330:	e24dd00c 	sub	sp, sp, #12
    3334:	e1a06001 	mov	r6, r1
    3338:	e1a08002 	mov	r8, r2
    333c:	ebfffde0 	bl	0x2ac4
    3340:	e5d43000 	ldrb	r3, [r4]
    3344:	e3130001 	tst	r3, #1
    3348:	e1a07000 	mov	r7, r0
    334c:	e2033002 	and	r3, r3, #2
    3350:	1a000019 	bne	0x33bc
    3354:	e3530000 	cmp	r3, #0
    3358:	13a03009 	movne	r3, #9
    335c:	03a03003 	moveq	r3, #3
    3360:	e0944003 	adds	r4, r4, r3
    3364:	13a00001 	movne	r0, #1
    3368:	03a00000 	moveq	r0, #0
    336c:	e3560000 	cmp	r6, #0
    3370:	03a00000 	moveq	r0, #0
    3374:	ebfffdc1 	bl	0x2a80
    3378:	e0843007 	add	r3, r4, r7
    337c:	e1560003 	cmp	r6, r3
    3380:	31540006 	cmpcc	r4, r6
    3384:	3a000065 	bcc	0x3520
    3388:	e3570000 	cmp	r7, #0
    338c:	12466001 	subne	r6, r6, #1
    3390:	0a000003 	beq	0x33a4
    3394:	e4d42001 	ldrb	r2, [r4], #1
    3398:	e1530004 	cmp	r3, r4
    339c:	e5e62001 	strb	r2, [r6, #1]!
    33a0:	1afffffb 	bne	0x3394
    33a4:	e3a03000 	mov	r3, #0
    33a8:	e1a00007 	mov	r0, r7
    33ac:	e5883000 	str	r3, [r8]
    33b0:	e28dd00c 	add	sp, sp, #12
    33b4:	e8bd4ff0 	pop	{r4, r5, r6, r7, r8, r9, sl, fp, lr}
    33b8:	e12fff1e 	bx	lr
    33bc:	e3530000 	cmp	r3, #0
    33c0:	13a03009 	movne	r3, #9
    33c4:	03a03003 	moveq	r3, #3
    33c8:	e1a0a006 	mov	sl, r6
    33cc:	e3a05001 	mov	r5, #1
    33d0:	e2409001 	sub	r9, r0, #1
    33d4:	e0862009 	add	r2, r6, r9
    33d8:	e0844003 	add	r4, r4, r3
    33dc:	e242300a 	sub	r3, r2, #10
    33e0:	e58d2004 	str	r2, [sp, #4]
    33e4:	e59fb154 	ldr	fp, [pc, #340]	; 0x3540
    33e8:	e58d3000 	str	r3, [sp]
    33ec:	e3550001 	cmp	r5, #1
    33f0:	0a00001d 	beq	0x346c
    33f4:	e3a01000 	mov	r1, #0
    33f8:	e1a03001 	mov	r3, r1
    33fc:	e2440001 	sub	r0, r4, #1
    3400:	e5f0c001 	ldrb	ip, [r0, #1]!
    3404:	e183311c 	orr	r3, r3, ip, lsl r1
    3408:	e2811008 	add	r1, r1, #8
    340c:	e3510020 	cmp	r1, #32
    3410:	1afffffa 	bne	0x3400
    3414:	e2150001 	ands	r0, r5, #1
    3418:	0a00001d 	beq	0x3494
    341c:	e3130003 	tst	r3, #3
    3420:	e1a050a5 	lsr	r5, r5, #1
    3424:	02844001 	addeq	r4, r4, #1
    3428:	03a03003 	moveq	r3, #3
    342c:	0a000009 	beq	0x3458
    3430:	e3130002 	tst	r3, #2
    3434:	02844002 	addeq	r4, r4, #2
    3438:	03a03003 	moveq	r3, #3
    343c:	0a000005 	beq	0x3458
    3440:	e3130001 	tst	r3, #1
    3444:	1a00001d 	bne	0x34c0
    3448:	e1a03123 	lsr	r3, r3, #2
    344c:	e203300f 	and	r3, r3, #15
    3450:	e2833003 	add	r3, r3, #3
    3454:	e2844002 	add	r4, r4, #2
    3458:	e3a00000 	mov	r0, #0
    345c:	e08aa003 	add	sl, sl, r3
    3460:	ebfffd86 	bl	0x2a80
    3464:	e3550001 	cmp	r5, #1
    3468:	1affffe1 	bne	0x33f4
    346c:	e3a05000 	mov	r5, #0
    3470:	e1a03005 	mov	r3, r5
    3474:	e2441001 	sub	r1, r4, #1
    3478:	e5f10001 	ldrb	r0, [r1, #1]!
    347c:	e1855310 	orr	r5, r5, r0, lsl r3
    3480:	e2833008 	add	r3, r3, #8
    3484:	e3530020 	cmp	r3, #32
    3488:	1afffffa 	bne	0x3478
    348c:	e2844004 	add	r4, r4, #4
    3490:	eaffffd7 	b	0x33f4
    3494:	e59d3000 	ldr	r3, [sp]
    3498:	e153000a 	cmp	r3, sl
    349c:	9a000012 	bls	0x34ec
    34a0:	e205300f 	and	r3, r5, #15
    34a4:	e08b3103 	add	r3, fp, r3, lsl #2
    34a8:	e5939028 	ldr	r9, [r3, #40]	; 0x28
    34ac:	ebfffd73 	bl	0x2a80
    34b0:	e1a05935 	lsr	r5, r5, r9
    34b4:	e08aa009 	add	sl, sl, r9
    34b8:	e0844009 	add	r4, r4, r9
    34bc:	eaffffca 	b	0x33ec
    34c0:	e203107f 	and	r1, r3, #127	; 0x7f
    34c4:	e3510003 	cmp	r1, #3
    34c8:	11a03123 	lsrne	r3, r3, #2
    34cc:	01a033a3 	lsreq	r3, r3, #7
    34d0:	1203301f 	andne	r3, r3, #31
    34d4:	020330ff 	andeq	r3, r3, #255	; 0xff
    34d8:	12833002 	addne	r3, r3, #2
    34dc:	12844003 	addne	r4, r4, #3
    34e0:	02833003 	addeq	r3, r3, #3
    34e4:	02844004 	addeq	r4, r4, #4
    34e8:	eaffffda 	b	0x3458
    34ec:	e59d3004 	ldr	r3, [sp, #4]
    34f0:	e153000a 	cmp	r3, sl
    34f4:	20866007 	addcs	r6, r6, r7
    34f8:	3affffa9 	bcc	0x33a4
    34fc:	e3550001 	cmp	r5, #1
    3500:	02844004 	addeq	r4, r4, #4
    3504:	e4d43001 	ldrb	r3, [r4], #1
    3508:	e4ca3001 	strb	r3, [sl], #1
    350c:	11a050a5 	lsrne	r5, r5, #1
    3510:	03a05101 	moveq	r5, #1073741824	; 0x40000000
    3514:	e15a0006 	cmp	sl, r6
    3518:	1afffff7 	bne	0x34fc
    351c:	eaffffa0 	b	0x33a4
    3520:	e3570000 	cmp	r7, #0
    3524:	e0866007 	add	r6, r6, r7
    3528:	0affff9d 	beq	0x33a4
    352c:	e5732001 	ldrb	r2, [r3, #-1]!
    3530:	e1540003 	cmp	r4, r3
    3534:	e5662001 	strb	r2, [r6, #-1]!
    3538:	1afffffb 	bne	0x352c
    353c:	eaffff98 	b	0x33a4
    3540:	0800666c 	stmdaeq	r0, {r2, r3, r5, r6, r9, sl, sp, lr}
    3544:	e59f306c 	ldr	r3, [pc, #108]	; 0x35b8
    3548:	e5933000 	ldr	r3, [r3]
    354c:	e5933000 	ldr	r3, [r3]
    3550:	e3530000 	cmp	r3, #0
    3554:	e2830007 	add	r0, r3, #7
    3558:	a1a00003 	movge	r0, r3
    355c:	e92d4010 	push	{r4, lr}
    3560:	e1a001c0 	asr	r0, r0, #3
    3564:	e59f4050 	ldr	r4, [pc, #80]	; 0x35bc
    3568:	e2800080 	add	r0, r0, #128	; 0x80
    356c:	e5843000 	str	r3, [r4]
    3570:	ebfff718 	bl	0x11d8
    3574:	e5943000 	ldr	r3, [r4]
    3578:	e3530000 	cmp	r3, #0
    357c:	e283201f 	add	r2, r3, #31
    3580:	a1a02003 	movge	r2, r3
    3584:	e373001f 	cmn	r3, #31
    3588:	e5840004 	str	r0, [r4, #4]
    358c:	ba000007 	blt	0x35b0
    3590:	e3a03000 	mov	r3, #0
    3594:	e3e01000 	mvn	r1, #0
    3598:	e1a022c2 	asr	r2, r2, #5
    359c:	e2400004 	sub	r0, r0, #4
    35a0:	e2833001 	add	r3, r3, #1
    35a4:	e1530002 	cmp	r3, r2
    35a8:	e5a01004 	str	r1, [r0, #4]!
    35ac:	dafffffb 	ble	0x35a0
    35b0:	e8bd4010 	pop	{r4, lr}
    35b4:	e12fff1e 	bx	lr
    35b8:	03000158 	tsteq	r0, #88, 2
    35bc:	030000f0 	tsteq	r0, #240	; 0xf0
    35c0:	e92d4070 	push	{r4, r5, r6, lr}
    35c4:	e59f4124 	ldr	r4, [pc, #292]	; 0x36f0
    35c8:	e5940000 	ldr	r0, [r4]
    35cc:	e3500000 	cmp	r0, #0
    35d0:	da000040 	ble	0x36d8
    35d4:	e594c004 	ldr	ip, [r4, #4]
    35d8:	e59c3000 	ldr	r3, [ip]
    35dc:	e1a030a3 	lsr	r3, r3, #1
    35e0:	e2133001 	ands	r3, r3, #1
    35e4:	1a000004 	bne	0x35fc
    35e8:	ea000038 	b	0x36d0
    35ec:	e79c2102 	ldr	r2, [ip, r2, lsl #2]
    35f0:	e1a02132 	lsr	r2, r2, r1
    35f4:	e3120001 	tst	r2, #1
    35f8:	0a000034 	beq	0x36d0
    35fc:	e2833001 	add	r3, r3, #1
    3600:	e1530000 	cmp	r3, r0
    3604:	e1a022c3 	asr	r2, r3, #5
    3608:	e203101f 	and	r1, r3, #31
    360c:	dafffff6 	ble	0x35ec
    3610:	e3500003 	cmp	r0, #3
    3614:	da00002f 	ble	0x36d8
    3618:	e3a01002 	mov	r1, #2
    361c:	e3a06001 	mov	r6, #1
    3620:	e594e004 	ldr	lr, [r4, #4]
    3624:	ea000003 	b	0x3638
    3628:	e2811001 	add	r1, r1, #1
    362c:	e0030191 	mul	r3, r1, r1
    3630:	e1530000 	cmp	r3, r0
    3634:	ca000014 	bgt	0x368c
    3638:	e1a032c1 	asr	r3, r1, #5
    363c:	e79e3103 	ldr	r3, [lr, r3, lsl #2]
    3640:	e201201f 	and	r2, r1, #31
    3644:	e1a03233 	lsr	r3, r3, r2
    3648:	e3130001 	tst	r3, #1
    364c:	0afffff5 	beq	0x3628
    3650:	e1a03081 	lsl	r3, r1, #1
    3654:	e1530000 	cmp	r3, r0
    3658:	cafffff2 	bgt	0x3628
    365c:	e1a0c2c3 	asr	ip, r3, #5
    3660:	e79e210c 	ldr	r2, [lr, ip, lsl #2]
    3664:	e203501f 	and	r5, r3, #31
    3668:	e0833001 	add	r3, r3, r1
    366c:	e1c22516 	bic	r2, r2, r6, lsl r5
    3670:	e1530000 	cmp	r3, r0
    3674:	e78e210c 	str	r2, [lr, ip, lsl #2]
    3678:	dafffff7 	ble	0x365c
    367c:	e2811001 	add	r1, r1, #1
    3680:	e0030191 	mul	r3, r1, r1
    3684:	e1530000 	cmp	r3, r0
    3688:	daffffea 	ble	0x3638
    368c:	e3a03000 	mov	r3, #0
    3690:	e5843008 	str	r3, [r4, #8]
    3694:	e3a05000 	mov	r5, #0
    3698:	e3a03002 	mov	r3, #2
    369c:	e1a0c005 	mov	ip, r5
    36a0:	e1a022c3 	asr	r2, r3, #5
    36a4:	e79e2102 	ldr	r2, [lr, r2, lsl #2]
    36a8:	e203101f 	and	r1, r3, #31
    36ac:	e1a02132 	lsr	r2, r2, r1
    36b0:	e3120001 	tst	r2, #1
    36b4:	13a05001 	movne	r5, #1
    36b8:	e2833001 	add	r3, r3, #1
    36bc:	108cc005 	addne	ip, ip, r5
    36c0:	e1530000 	cmp	r3, r0
    36c4:	dafffff5 	ble	0x36a0
    36c8:	e3550000 	cmp	r5, #0
    36cc:	1584c008 	strne	ip, [r4, #8]
    36d0:	e8bd4070 	pop	{r4, r5, r6, lr}
    36d4:	e12fff1e 	bx	lr
    36d8:	e3a03000 	mov	r3, #0
    36dc:	e3500001 	cmp	r0, #1
    36e0:	e5843008 	str	r3, [r4, #8]
    36e4:	dafffff9 	ble	0x36d0
    36e8:	e594e004 	ldr	lr, [r4, #4]
    36ec:	eaffffe8 	b	0x3694
    36f0:	030000f0 	tsteq	r0, #240	; 0xf0
    36f4:	e59f201c 	ldr	r2, [pc, #28]	; 0x3718
    36f8:	e59f301c 	ldr	r3, [pc, #28]	; 0x371c
    36fc:	e5922000 	ldr	r2, [r2]
    3700:	e5933008 	ldr	r3, [r3, #8]
    3704:	e592000c 	ldr	r0, [r2, #12]
    3708:	e0403003 	sub	r3, r0, r3
    370c:	e2730000 	rsbs	r0, r3, #0
    3710:	e0a00003 	adc	r0, r0, r3
    3714:	e12fff1e 	bx	lr
    3718:	03000158 	tsteq	r0, #88, 2
    371c:	030000f0 	tsteq	r0, #240	; 0xf0
    3720:	e92d47f0 	push	{r4, r5, r6, r7, r8, r9, sl, lr}
    3724:	e59d4020 	ldr	r4, [sp, #32]
    3728:	e2849001 	add	r9, r4, #1
    372c:	e1a09109 	lsl	r9, r9, #2
    3730:	e1a06000 	mov	r6, r0
    3734:	e1a00009 	mov	r0, r9
    3738:	e1a05001 	mov	r5, r1
    373c:	e1a07002 	mov	r7, r2
    3740:	e1a08003 	mov	r8, r3
    3744:	ebfff6a3 	bl	0x11d8
    3748:	e3540000 	cmp	r4, #0
    374c:	ba00002f 	blt	0x3810
    3750:	e240c004 	sub	ip, r0, #4
    3754:	e1a0300c 	mov	r3, ip
    3758:	e3a02000 	mov	r2, #0
    375c:	e2499004 	sub	r9, r9, #4
    3760:	e0809009 	add	r9, r0, r9
    3764:	e5a32004 	str	r2, [r3, #4]!
    3768:	e1590003 	cmp	r9, r3
    376c:	1afffffc 	bne	0x3764
    3770:	e3580000 	cmp	r8, #0
    3774:	da00000c 	ble	0x37ac
    3778:	e246e004 	sub	lr, r6, #4
    377c:	e1a0300e 	mov	r3, lr
    3780:	e08e1108 	add	r1, lr, r8, lsl #2
    3784:	e5b32004 	ldr	r2, [r3, #4]!
    3788:	e7972102 	ldr	r2, [r7, r2, lsl #2]
    378c:	e790c102 	ldr	ip, [r0, r2, lsl #2]
    3790:	e1510003 	cmp	r1, r3
    3794:	e28cc001 	add	ip, ip, #1
    3798:	e780c102 	str	ip, [r0, r2, lsl #2]
    379c:	1afffff8 	bne	0x3784
    37a0:	e3540000 	cmp	r4, #0
    37a4:	ba00000b 	blt	0x37d8
    37a8:	e240c004 	sub	ip, r0, #4
    37ac:	e3a03000 	mov	r3, #0
    37b0:	e1a02003 	mov	r2, r3
    37b4:	e5bc1004 	ldr	r1, [ip, #4]!
    37b8:	e2822001 	add	r2, r2, #1
    37bc:	e1540002 	cmp	r4, r2
    37c0:	e58c3000 	str	r3, [ip]
    37c4:	e0833001 	add	r3, r3, r1
    37c8:	aafffff9 	bge	0x37b4
    37cc:	e3580000 	cmp	r8, #0
    37d0:	da00000c 	ble	0x3808
    37d4:	e246e004 	sub	lr, r6, #4
    37d8:	e1a0c00e 	mov	ip, lr
    37dc:	e3a03000 	mov	r3, #0
    37e0:	e5bc2004 	ldr	r2, [ip, #4]!
    37e4:	e7971102 	ldr	r1, [r7, r2, lsl #2]
    37e8:	e7902101 	ldr	r2, [r0, r1, lsl #2]
    37ec:	e282e001 	add	lr, r2, #1
    37f0:	e780e101 	str	lr, [r0, r1, lsl #2]
    37f4:	e2833001 	add	r3, r3, #1
    37f8:	e59c1000 	ldr	r1, [ip]
    37fc:	e1580003 	cmp	r8, r3
    3800:	e7851102 	str	r1, [r5, r2, lsl #2]
    3804:	cafffff5 	bgt	0x37e0
    3808:	e8bd47f0 	pop	{r4, r5, r6, r7, r8, r9, sl, lr}
    380c:	e12fff1e 	bx	lr
    3810:	e3580000 	cmp	r8, #0
    3814:	caffffd7 	bgt	0x3778
    3818:	eafffffa 	b	0x3808
    381c:	e92d4ff0 	push	{r4, r5, r6, r7, r8, r9, sl, fp, lr}
    3820:	e1a08002 	mov	r8, r2
    3824:	e59f44d0 	ldr	r4, [pc, #1232]	; 0x3cfc
    3828:	e59f54cc 	ldr	r5, [pc, #1228]	; 0x3cfc
    382c:	e24dd03c 	sub	sp, sp, #60	; 0x3c
    3830:	e282c002 	add	ip, r2, #2
    3834:	e58d2018 	str	r2, [sp, #24]
    3838:	e0c5e598 	smull	lr, r5, r8, r5
    383c:	e0c4249c 	smull	r2, r4, ip, r4
    3840:	e0452fc8 	sub	r2, r5, r8, asr #31
    3844:	e0444fcc 	sub	r4, r4, ip, asr #31
    3848:	e0829004 	add	r9, r2, r4
    384c:	e289a003 	add	sl, r9, #3
    3850:	e1a0a10a 	lsl	sl, sl, #2
    3854:	e1a05000 	mov	r5, r0
    3858:	e1a0000a 	mov	r0, sl
    385c:	e58d101c 	str	r1, [sp, #28]
    3860:	e58d900c 	str	r9, [sp, #12]
    3864:	e58d3020 	str	r3, [sp, #32]
    3868:	ebfff65a 	bl	0x11d8
    386c:	e3a07000 	mov	r7, #0
    3870:	e1a06000 	mov	r6, r0
    3874:	e289b002 	add	fp, r9, #2
    3878:	e1a0910b 	lsl	r9, fp, #2
    387c:	e2493004 	sub	r3, r9, #4
    3880:	e2499008 	sub	r9, r9, #8
    3884:	e786710b 	str	r7, [r6, fp, lsl #2]
    3888:	e1a0000a 	mov	r0, sl
    388c:	e7867003 	str	r7, [r6, r3]
    3890:	e7867009 	str	r7, [r6, r9]
    3894:	e58d3014 	str	r3, [sp, #20]
    3898:	ebfff64e 	bl	0x11d8
    389c:	e1a02000 	mov	r2, r0
    38a0:	e59d3014 	ldr	r3, [sp, #20]
    38a4:	e1a0a104 	lsl	sl, r4, #2
    38a8:	e780710b 	str	r7, [r0, fp, lsl #2]
    38ac:	e58d0010 	str	r0, [sp, #16]
    38b0:	e7827003 	str	r7, [r2, r3]
    38b4:	e1a0000a 	mov	r0, sl
    38b8:	e7827009 	str	r7, [r2, r9]
    38bc:	e58da028 	str	sl, [sp, #40]	; 0x28
    38c0:	ebfff644 	bl	0x11d8
    38c4:	e58d0024 	str	r0, [sp, #36]	; 0x24
    38c8:	e1a0000a 	mov	r0, sl
    38cc:	ebfff641 	bl	0x11d8
    38d0:	e1a02008 	mov	r2, r8
    38d4:	e2883001 	add	r3, r8, #1
    38d8:	e59f841c 	ldr	r8, [pc, #1052]	; 0x3cfc
    38dc:	e0c81893 	smull	r1, r8, r3, r8
    38e0:	e0488fc3 	sub	r8, r8, r3, asr #31
    38e4:	e044b008 	sub	fp, r4, r8
    38e8:	e082100b 	add	r1, r2, fp
    38ec:	e1510007 	cmp	r1, r7
    38f0:	e58d0014 	str	r0, [sp, #20]
    38f4:	da00000b 	ble	0x3928
    38f8:	e1a02007 	mov	r2, r7
    38fc:	e59f03fc 	ldr	r0, [pc, #1020]	; 0x3d00
    3900:	ea000005 	b	0x391c
    3904:	e083c790 	umull	ip, r3, r0, r7
    3908:	e1a030a3 	lsr	r3, r3, #1
    390c:	e0833083 	add	r3, r3, r3, lsl #1
    3910:	e1570003 	cmp	r7, r3
    3914:	17867102 	strne	r7, [r6, r2, lsl #2]
    3918:	12822001 	addne	r2, r2, #1
    391c:	e2877001 	add	r7, r7, #1
    3920:	e1570001 	cmp	r7, r1
    3924:	1afffff6 	bne	0x3904
    3928:	e59d700c 	ldr	r7, [sp, #12]
    392c:	e59d8020 	ldr	r8, [sp, #32]
    3930:	e59d9010 	ldr	r9, [sp, #16]
    3934:	e1a03007 	mov	r3, r7
    3938:	e2852008 	add	r2, r5, #8
    393c:	e1a01009 	mov	r1, r9
    3940:	e1a00006 	mov	r0, r6
    3944:	e58d8000 	str	r8, [sp]
    3948:	ebffff74 	bl	0x3720
    394c:	e1a03007 	mov	r3, r7
    3950:	e2852004 	add	r2, r5, #4
    3954:	e1a01006 	mov	r1, r6
    3958:	e1a00009 	mov	r0, r9
    395c:	e58d8000 	str	r8, [sp]
    3960:	ebffff6e 	bl	0x3720
    3964:	e58d8000 	str	r8, [sp]
    3968:	e1a03007 	mov	r3, r7
    396c:	e1a02005 	mov	r2, r5
    3970:	e1a01009 	mov	r1, r9
    3974:	e1a00006 	mov	r0, r6
    3978:	ebffff68 	bl	0x3720
    397c:	e3570000 	cmp	r7, #0
    3980:	da000043 	ble	0x3a94
    3984:	e3e02000 	mvn	r2, #0
    3988:	e59d1010 	ldr	r1, [sp, #16]
    398c:	e59d000c 	ldr	r0, [sp, #12]
    3990:	e2413004 	sub	r3, r1, #4
    3994:	e0819100 	add	r9, r1, r0, lsl #2
    3998:	e58d302c 	str	r3, [sp, #44]	; 0x2c
    399c:	e58d3034 	str	r3, [sp, #52]	; 0x34
    39a0:	e1a0c003 	mov	ip, r3
    39a4:	e58db030 	str	fp, [sp, #48]	; 0x30
    39a8:	e1a0a002 	mov	sl, r2
    39ac:	e1a08002 	mov	r8, r2
    39b0:	e3a03000 	mov	r3, #0
    39b4:	e2499004 	sub	r9, r9, #4
    39b8:	e1a0b002 	mov	fp, r2
    39bc:	ea000008 	b	0x39e4
    39c0:	e1a0800e 	mov	r8, lr
    39c4:	e2833001 	add	r3, r3, #1
    39c8:	e3500001 	cmp	r0, #1
    39cc:	10841001 	addne	r1, r4, r1
    39d0:	e15c0009 	cmp	ip, r9
    39d4:	e7863101 	str	r3, [r6, r1, lsl #2]
    39d8:	e1a0a007 	mov	sl, r7
    39dc:	e1a0b002 	mov	fp, r2
    39e0:	0a000010 	beq	0x3a28
    39e4:	e5bc2004 	ldr	r2, [ip, #4]!
    39e8:	e59f130c 	ldr	r1, [pc, #780]	; 0x3cfc
    39ec:	e0c10192 	smull	r0, r1, r2, r1
    39f0:	e795e102 	ldr	lr, [r5, r2, lsl #2]
    39f4:	e0411fc2 	sub	r1, r1, r2, asr #31
    39f8:	e0810081 	add	r0, r1, r1, lsl #1
    39fc:	e0420000 	sub	r0, r2, r0
    3a00:	e15e0008 	cmp	lr, r8
    3a04:	e0852102 	add	r2, r5, r2, lsl #2
    3a08:	e5927004 	ldr	r7, [r2, #4]
    3a0c:	e5922008 	ldr	r2, [r2, #8]
    3a10:	1affffea 	bne	0x39c0
    3a14:	e15a0007 	cmp	sl, r7
    3a18:	1affffe8 	bne	0x39c0
    3a1c:	e15b0002 	cmp	fp, r2
    3a20:	1affffe6 	bne	0x39c0
    3a24:	eaffffe7 	b	0x39c8
    3a28:	e59d200c 	ldr	r2, [sp, #12]
    3a2c:	e1530002 	cmp	r3, r2
    3a30:	e59db030 	ldr	fp, [sp, #48]	; 0x30
    3a34:	ba000089 	blt	0x3c60
    3a38:	e3a03000 	mov	r3, #0
    3a3c:	e28d000c 	add	r0, sp, #12
    3a40:	e8901001 	ldm	r0, {r0, ip}
    3a44:	e2461004 	sub	r1, r6, #4
    3a48:	e5b12004 	ldr	r2, [r1, #4]!
    3a4c:	e2422107 	sub	r2, r2, #-1073741823	; 0xc0000001
    3a50:	e78c3102 	str	r3, [ip, r2, lsl #2]
    3a54:	e2833001 	add	r3, r3, #1
    3a58:	e1500003 	cmp	r0, r3
    3a5c:	1afffff9 	bne	0x3a48
    3a60:	e3a00000 	mov	r0, #0
    3a64:	e1a02000 	mov	r2, r0
    3a68:	e59d102c 	ldr	r1, [sp, #44]	; 0x2c
    3a6c:	e59dc00c 	ldr	ip, [sp, #12]
    3a70:	e59de024 	ldr	lr, [sp, #36]	; 0x24
    3a74:	e5b13004 	ldr	r3, [r1, #4]!
    3a78:	e1530004 	cmp	r3, r4
    3a7c:	b0833083 	addlt	r3, r3, r3, lsl #1
    3a80:	e2822001 	add	r2, r2, #1
    3a84:	b78e3100 	strlt	r3, [lr, r0, lsl #2]
    3a88:	b2800001 	addlt	r0, r0, #1
    3a8c:	e15c0002 	cmp	ip, r2
    3a90:	cafffff7 	bgt	0x3a74
    3a94:	e59d3020 	ldr	r3, [sp, #32]
    3a98:	e59d0024 	ldr	r0, [sp, #36]	; 0x24
    3a9c:	e58d3000 	str	r3, [sp]
    3aa0:	e1a02005 	mov	r2, r5
    3aa4:	e1a03004 	mov	r3, r4
    3aa8:	e59d1014 	ldr	r1, [sp, #20]
    3aac:	ebffff1b 	bl	0x3720
    3ab0:	e59d3018 	ldr	r3, [sp, #24]
    3ab4:	e3530000 	cmp	r3, #0
    3ab8:	da00005d 	ble	0x3c34
    3abc:	e3a00000 	mov	r0, #0
    3ac0:	e59d3028 	ldr	r3, [sp, #40]	; 0x28
    3ac4:	e59dc00c 	ldr	ip, [sp, #12]
    3ac8:	e2431004 	sub	r1, r3, #4
    3acc:	e59d3010 	ldr	r3, [sp, #16]
    3ad0:	e083310c 	add	r3, r3, ip, lsl #2
    3ad4:	e59dc014 	ldr	ip, [sp, #20]
    3ad8:	e2433004 	sub	r3, r3, #4
    3adc:	e08c1001 	add	r1, ip, r1
    3ae0:	e1a02000 	mov	r2, r0
    3ae4:	e58d1024 	str	r1, [sp, #36]	; 0x24
    3ae8:	e58d3028 	str	r3, [sp, #40]	; 0x28
    3aec:	ea000015 	b	0x3b48
    3af0:	e0837083 	add	r7, r3, r3, lsl #1
    3af4:	e2877001 	add	r7, r7, #1
    3af8:	e7958107 	ldr	r8, [r5, r7, lsl #2]
    3afc:	e0833004 	add	r3, r3, r4
    3b00:	e158000a 	cmp	r8, sl
    3b04:	e796c10c 	ldr	ip, [r6, ip, lsl #2]
    3b08:	e7963103 	ldr	r3, [r6, r3, lsl #2]
    3b0c:	ba00002e 	blt	0x3bcc
    3b10:	e153000c 	cmp	r3, ip
    3b14:	d158000a 	cmple	r8, sl
    3b18:	0a00002b 	beq	0x3bcc
    3b1c:	e59d301c 	ldr	r3, [sp, #28]
    3b20:	e2822001 	add	r2, r2, #1
    3b24:	e1540002 	cmp	r4, r2
    3b28:	e7831100 	str	r1, [r3, r0, lsl #2]
    3b2c:	e083c100 	add	ip, r3, r0, lsl #2
    3b30:	e2801001 	add	r1, r0, #1
    3b34:	0a000056 	beq	0x3c94
    3b38:	e59d3018 	ldr	r3, [sp, #24]
    3b3c:	e1530001 	cmp	r3, r1
    3b40:	e1a00001 	mov	r0, r1
    3b44:	da00003a 	ble	0x3c34
    3b48:	e59d3014 	ldr	r3, [sp, #20]
    3b4c:	e59fc1a8 	ldr	ip, [pc, #424]	; 0x3cfc
    3b50:	e7931102 	ldr	r1, [r3, r2, lsl #2]
    3b54:	e0cc3c91 	smull	r3, ip, r1, ip
    3b58:	e59d3010 	ldr	r3, [sp, #16]
    3b5c:	e793310b 	ldr	r3, [r3, fp, lsl #2]
    3b60:	e1a0e10b 	lsl	lr, fp, #2
    3b64:	e1530004 	cmp	r3, r4
    3b68:	e58de020 	str	lr, [sp, #32]
    3b6c:	e04ccfc1 	sub	ip, ip, r1, asr #31
    3b70:	e1a09101 	lsl	r9, r1, #2
    3b74:	e795a101 	ldr	sl, [r5, r1, lsl #2]
    3b78:	e1a0e102 	lsl	lr, r2, #2
    3b7c:	baffffdb 	blt	0x3af0
    3b80:	e0433004 	sub	r3, r3, r4
    3b84:	e0838083 	add	r8, r3, r3, lsl #1
    3b88:	e2887002 	add	r7, r8, #2
    3b8c:	e2833001 	add	r3, r3, #1
    3b90:	e58d3020 	str	r3, [sp, #32]
    3b94:	e7953107 	ldr	r3, [r5, r7, lsl #2]
    3b98:	e153000a 	cmp	r3, sl
    3b9c:	e59d3020 	ldr	r3, [sp, #32]
    3ba0:	e0859009 	add	r9, r5, r9
    3ba4:	e084c00c 	add	ip, r4, ip
    3ba8:	e2888003 	add	r8, r8, #3
    3bac:	e5999004 	ldr	r9, [r9, #4]
    3bb0:	e796c10c 	ldr	ip, [r6, ip, lsl #2]
    3bb4:	e7963103 	ldr	r3, [r6, r3, lsl #2]
    3bb8:	e7958108 	ldr	r8, [r5, r8, lsl #2]
    3bbc:	ba000002 	blt	0x3bcc
    3bc0:	1affffd5 	bne	0x3b1c
    3bc4:	e1580009 	cmp	r8, r9
    3bc8:	aa00001c 	bge	0x3c40
    3bcc:	e59d300c 	ldr	r3, [sp, #12]
    3bd0:	e28bb001 	add	fp, fp, #1
    3bd4:	e153000b 	cmp	r3, fp
    3bd8:	e59d301c 	ldr	r3, [sp, #28]
    3bdc:	e2801001 	add	r1, r0, #1
    3be0:	e7837100 	str	r7, [r3, r0, lsl #2]
    3be4:	e0833100 	add	r3, r3, r0, lsl #2
    3be8:	1affffd2 	bne	0x3b38
    3bec:	e1540002 	cmp	r4, r2
    3bf0:	da00003f 	ble	0x3cf4
    3bf4:	e59d0014 	ldr	r0, [sp, #20]
    3bf8:	e24ee004 	sub	lr, lr, #4
    3bfc:	e59dc024 	ldr	ip, [sp, #36]	; 0x24
    3c00:	e080e00e 	add	lr, r0, lr
    3c04:	e5be0004 	ldr	r0, [lr, #4]!
    3c08:	e15c000e 	cmp	ip, lr
    3c0c:	e5a30004 	str	r0, [r3, #4]!
    3c10:	1afffffb 	bne	0x3c04
    3c14:	e0411002 	sub	r1, r1, r2
    3c18:	e0811004 	add	r1, r1, r4
    3c1c:	e59d3018 	ldr	r3, [sp, #24]
    3c20:	e2811001 	add	r1, r1, #1
    3c24:	e1530001 	cmp	r3, r1
    3c28:	e1a02004 	mov	r2, r4
    3c2c:	e1a00001 	mov	r0, r1
    3c30:	caffffc4 	bgt	0x3b48
    3c34:	e28dd03c 	add	sp, sp, #60	; 0x3c
    3c38:	e8bd4ff0 	pop	{r4, r5, r6, r7, r8, r9, sl, fp, lr}
    3c3c:	e12fff1e 	bx	lr
    3c40:	03a08001 	moveq	r8, #1
    3c44:	13a08000 	movne	r8, #0
    3c48:	e153000c 	cmp	r3, ip
    3c4c:	c3a0c000 	movgt	ip, #0
    3c50:	d208c001 	andle	ip, r8, #1
    3c54:	e35c0000 	cmp	ip, #0
    3c58:	0affffaf 	beq	0x3b1c
    3c5c:	eaffffda 	b	0x3bcc
    3c60:	e1a07002 	mov	r7, r2
    3c64:	e1a00006 	mov	r0, r6
    3c68:	e59d1010 	ldr	r1, [sp, #16]
    3c6c:	ebfffeea 	bl	0x381c
    3c70:	e3a03000 	mov	r3, #0
    3c74:	e1a00007 	mov	r0, r7
    3c78:	e59d2034 	ldr	r2, [sp, #52]	; 0x34
    3c7c:	e2833001 	add	r3, r3, #1
    3c80:	e5b21004 	ldr	r1, [r2, #4]!
    3c84:	e1530000 	cmp	r3, r0
    3c88:	e7863101 	str	r3, [r6, r1, lsl #2]
    3c8c:	1afffffa 	bne	0x3c7c
    3c90:	eaffff72 	b	0x3a60
    3c94:	e59d300c 	ldr	r3, [sp, #12]
    3c98:	e153000b 	cmp	r3, fp
    3c9c:	da000014 	ble	0x3cf4
    3ca0:	e1a0310b 	lsl	r3, fp, #2
    3ca4:	e2430004 	sub	r0, r3, #4
    3ca8:	e59d3010 	ldr	r3, [sp, #16]
    3cac:	e59d7028 	ldr	r7, [sp, #40]	; 0x28
    3cb0:	e0830000 	add	r0, r3, r0
    3cb4:	e5b03004 	ldr	r3, [r0, #4]!
    3cb8:	e1530004 	cmp	r3, r4
    3cbc:	e083e083 	add	lr, r3, r3, lsl #1
    3cc0:	a0433004 	subge	r3, r3, r4
    3cc4:	a0833083 	addge	r3, r3, r3, lsl #1
    3cc8:	b28e3001 	addlt	r3, lr, #1
    3ccc:	a2833002 	addge	r3, r3, #2
    3cd0:	e1570000 	cmp	r7, r0
    3cd4:	e5ac3004 	str	r3, [ip, #4]!
    3cd8:	1afffff5 	bne	0x3cb4
    3cdc:	e59d300c 	ldr	r3, [sp, #12]
    3ce0:	e041100b 	sub	r1, r1, fp
    3ce4:	e0811003 	add	r1, r1, r3
    3ce8:	e1a0b003 	mov	fp, r3
    3cec:	e2811001 	add	r1, r1, #1
    3cf0:	eaffff90 	b	0x3b38
    3cf4:	e2801002 	add	r1, r0, #2
    3cf8:	eaffff8e 	b	0x3b38
    3cfc:	55555556 	ldrbpl	r5, [r5, #-1366]	; 0xfffffaaa
    3d00:	aaaaaaab 	bge	0xfeaae7b4
    3d04:	e59f3090 	ldr	r3, [pc, #144]	; 0x3d9c
    3d08:	e5933000 	ldr	r3, [r3]
    3d0c:	e92d4070 	push	{r4, r5, r6, lr}
    3d10:	e5933000 	ldr	r3, [r3]
    3d14:	e59f5084 	ldr	r5, [pc, #132]	; 0x3da0
    3d18:	e3a00001 	mov	r0, #1
    3d1c:	e5853000 	str	r3, [r5]
    3d20:	ebfff552 	bl	0x1270
    3d24:	e5950000 	ldr	r0, [r5]
    3d28:	e280000a 	add	r0, r0, #10
    3d2c:	e1a00100 	lsl	r0, r0, #2
    3d30:	ebfff528 	bl	0x11d8
    3d34:	e5953000 	ldr	r3, [r5]
    3d38:	e283300a 	add	r3, r3, #10
    3d3c:	e5850004 	str	r0, [r5, #4]
    3d40:	e1a00103 	lsl	r0, r3, #2
    3d44:	ebfff523 	bl	0x11d8
    3d48:	e5953000 	ldr	r3, [r5]
    3d4c:	e3530000 	cmp	r3, #0
    3d50:	e5850008 	str	r0, [r5, #8]
    3d54:	da00000e 	ble	0x3d94
    3d58:	e3a04000 	mov	r4, #0
    3d5c:	e59f6040 	ldr	r6, [pc, #64]	; 0x3da4
    3d60:	ebfff548 	bl	0x1288
    3d64:	e0c23096 	smull	r3, r2, r6, r0
    3d68:	e1a03fc0 	asr	r3, r0, #31
    3d6c:	e06331c2 	rsb	r3, r3, r2, asr #3
    3d70:	e0832083 	add	r2, r3, r3, lsl #1
    3d74:	e0833102 	add	r3, r3, r2, lsl #2
    3d78:	e5951004 	ldr	r1, [r5, #4]
    3d7c:	e0403083 	sub	r3, r0, r3, lsl #1
    3d80:	e5952000 	ldr	r2, [r5]
    3d84:	e7813104 	str	r3, [r1, r4, lsl #2]
    3d88:	e2844001 	add	r4, r4, #1
    3d8c:	e1520004 	cmp	r2, r4
    3d90:	cafffff2 	bgt	0x3d60
    3d94:	e8bd4070 	pop	{r4, r5, r6, lr}
    3d98:	e12fff1e 	bx	lr
    3d9c:	03000158 	tsteq	r0, #88, 2
    3da0:	030000fc 	tsteq	r0, #252	; 0xfc
    3da4:	4ec4ec4f 	cdpmi	12, 12, cr14, cr4, cr15, {2}
    3da8:	e59f000c 	ldr	r0, [pc, #12]	; 0x3dbc
    3dac:	e3a0301a 	mov	r3, #26
    3db0:	e5902000 	ldr	r2, [r0]
    3db4:	e9900003 	ldmib	r0, {r0, r1}
    3db8:	eafffe97 	b	0x381c
    3dbc:	030000fc 	tsteq	r0, #252	; 0xfc
    3dc0:	e59f2034 	ldr	r2, [pc, #52]	; 0x3dfc
    3dc4:	e5923008 	ldr	r3, [r2, #8]
    3dc8:	e5921000 	ldr	r1, [r2]
    3dcc:	e92d4010 	push	{r4, lr}
    3dd0:	e1a00003 	mov	r0, r3
    3dd4:	e0831101 	add	r1, r3, r1, lsl #2
    3dd8:	ebfff537 	bl	0x12bc
    3ddc:	e59f301c 	ldr	r3, [pc, #28]	; 0x3e00
    3de0:	e5933000 	ldr	r3, [r3]
    3de4:	e593300c 	ldr	r3, [r3, #12]
    3de8:	e0433000 	sub	r3, r3, r0
    3dec:	e2730000 	rsbs	r0, r3, #0
    3df0:	e0a00003 	adc	r0, r0, r3
    3df4:	e8bd4010 	pop	{r4, lr}
    3df8:	e12fff1e 	bx	lr
    3dfc:	030000fc 	tsteq	r0, #252	; 0xfc
    3e00:	03000158 	tsteq	r0, #88, 2
    3e04:	e2512001 	subs	r2, r1, #1
    3e08:	012fff1e 	bxeq	lr
    3e0c:	3a000036 	bcc	0x3eec
    3e10:	e1500001 	cmp	r0, r1
    3e14:	9a000022 	bls	0x3ea4
    3e18:	e1110002 	tst	r1, r2
    3e1c:	0a000023 	beq	0x3eb0
    3e20:	e311020e 	tst	r1, #-536870912	; 0xe0000000
    3e24:	01a01181 	lsleq	r1, r1, #3
    3e28:	03a03008 	moveq	r3, #8
    3e2c:	13a03001 	movne	r3, #1
    3e30:	e3510201 	cmp	r1, #268435456	; 0x10000000
    3e34:	31510000 	cmpcc	r1, r0
    3e38:	31a01201 	lslcc	r1, r1, #4
    3e3c:	31a03203 	lslcc	r3, r3, #4
    3e40:	3afffffa 	bcc	0x3e30
    3e44:	e3510102 	cmp	r1, #-2147483648	; 0x80000000
    3e48:	31510000 	cmpcc	r1, r0
    3e4c:	31a01081 	lslcc	r1, r1, #1
    3e50:	31a03083 	lslcc	r3, r3, #1
    3e54:	3afffffa 	bcc	0x3e44
    3e58:	e3a02000 	mov	r2, #0
    3e5c:	e1500001 	cmp	r0, r1
    3e60:	20400001 	subcs	r0, r0, r1
    3e64:	21822003 	orrcs	r2, r2, r3
    3e68:	e15000a1 	cmp	r0, r1, lsr #1
    3e6c:	204000a1 	subcs	r0, r0, r1, lsr #1
    3e70:	218220a3 	orrcs	r2, r2, r3, lsr #1
    3e74:	e1500121 	cmp	r0, r1, lsr #2
    3e78:	20400121 	subcs	r0, r0, r1, lsr #2
    3e7c:	21822123 	orrcs	r2, r2, r3, lsr #2
    3e80:	e15001a1 	cmp	r0, r1, lsr #3
    3e84:	204001a1 	subcs	r0, r0, r1, lsr #3
    3e88:	218221a3 	orrcs	r2, r2, r3, lsr #3
    3e8c:	e3500000 	cmp	r0, #0
    3e90:	11b03223 	lsrsne	r3, r3, #4
    3e94:	11a01221 	lsrne	r1, r1, #4
    3e98:	1affffef 	bne	0x3e5c
    3e9c:	e1a00002 	mov	r0, r2
    3ea0:	e12fff1e 	bx	lr
    3ea4:	03a00001 	moveq	r0, #1
    3ea8:	13a00000 	movne	r0, #0
    3eac:	e12fff1e 	bx	lr
    3eb0:	e3510801 	cmp	r1, #65536	; 0x10000
    3eb4:	21a01821 	lsrcs	r1, r1, #16
    3eb8:	23a02010 	movcs	r2, #16
    3ebc:	33a02000 	movcc	r2, #0
    3ec0:	e3510c01 	cmp	r1, #256	; 0x100
    3ec4:	21a01421 	lsrcs	r1, r1, #8
    3ec8:	22822008 	addcs	r2, r2, #8
    3ecc:	e3510010 	cmp	r1, #16
    3ed0:	21a01221 	lsrcs	r1, r1, #4
    3ed4:	22822004 	addcs	r2, r2, #4
    3ed8:	e3510004 	cmp	r1, #4
    3edc:	82822003 	addhi	r2, r2, #3
    3ee0:	908220a1 	addls	r2, r2, r1, lsr #1
    3ee4:	e1a00230 	lsr	r0, r0, r2
    3ee8:	e12fff1e 	bx	lr
    3eec:	e3500000 	cmp	r0, #0
    3ef0:	13e00000 	mvnne	r0, #0
    3ef4:	ea000059 	b	0x4060
    3ef8:	e3510000 	cmp	r1, #0
    3efc:	0afffffa 	beq	0x3eec
    3f00:	e92d4003 	push	{r0, r1, lr}
    3f04:	ebffffbe 	bl	0x3e04
    3f08:	e8bd4006 	pop	{r1, r2, lr}
    3f0c:	e0030092 	mul	r3, r2, r0
    3f10:	e0411003 	sub	r1, r1, r3
    3f14:	e12fff1e 	bx	lr
    3f18:	e3510000 	cmp	r1, #0
    3f1c:	0a000043 	beq	0x4030
    3f20:	e020c001 	eor	ip, r0, r1
    3f24:	42611000 	rsbmi	r1, r1, #0
    3f28:	e2512001 	subs	r2, r1, #1
    3f2c:	0a000027 	beq	0x3fd0
    3f30:	e1b03000 	movs	r3, r0
    3f34:	42603000 	rsbmi	r3, r0, #0
    3f38:	e1530001 	cmp	r3, r1
    3f3c:	9a000026 	bls	0x3fdc
    3f40:	e1110002 	tst	r1, r2
    3f44:	0a000028 	beq	0x3fec
    3f48:	e311020e 	tst	r1, #-536870912	; 0xe0000000
    3f4c:	01a01181 	lsleq	r1, r1, #3
    3f50:	03a02008 	moveq	r2, #8
    3f54:	13a02001 	movne	r2, #1
    3f58:	e3510201 	cmp	r1, #268435456	; 0x10000000
    3f5c:	31510003 	cmpcc	r1, r3
    3f60:	31a01201 	lslcc	r1, r1, #4
    3f64:	31a02202 	lslcc	r2, r2, #4
    3f68:	3afffffa 	bcc	0x3f58
    3f6c:	e3510102 	cmp	r1, #-2147483648	; 0x80000000
    3f70:	31510003 	cmpcc	r1, r3
    3f74:	31a01081 	lslcc	r1, r1, #1
    3f78:	31a02082 	lslcc	r2, r2, #1
    3f7c:	3afffffa 	bcc	0x3f6c
    3f80:	e3a00000 	mov	r0, #0
    3f84:	e1530001 	cmp	r3, r1
    3f88:	20433001 	subcs	r3, r3, r1
    3f8c:	21800002 	orrcs	r0, r0, r2
    3f90:	e15300a1 	cmp	r3, r1, lsr #1
    3f94:	204330a1 	subcs	r3, r3, r1, lsr #1
    3f98:	218000a2 	orrcs	r0, r0, r2, lsr #1
    3f9c:	e1530121 	cmp	r3, r1, lsr #2
    3fa0:	20433121 	subcs	r3, r3, r1, lsr #2
    3fa4:	21800122 	orrcs	r0, r0, r2, lsr #2
    3fa8:	e15301a1 	cmp	r3, r1, lsr #3
    3fac:	204331a1 	subcs	r3, r3, r1, lsr #3
    3fb0:	218001a2 	orrcs	r0, r0, r2, lsr #3
    3fb4:	e3530000 	cmp	r3, #0
    3fb8:	11b02222 	lsrsne	r2, r2, #4
    3fbc:	11a01221 	lsrne	r1, r1, #4
    3fc0:	1affffef 	bne	0x3f84
    3fc4:	e35c0000 	cmp	ip, #0
    3fc8:	42600000 	rsbmi	r0, r0, #0
    3fcc:	e12fff1e 	bx	lr
    3fd0:	e13c0000 	teq	ip, r0
    3fd4:	42600000 	rsbmi	r0, r0, #0
    3fd8:	e12fff1e 	bx	lr
    3fdc:	33a00000 	movcc	r0, #0
    3fe0:	01a00fcc 	asreq	r0, ip, #31
    3fe4:	03800001 	orreq	r0, r0, #1
    3fe8:	e12fff1e 	bx	lr
    3fec:	e3510801 	cmp	r1, #65536	; 0x10000
    3ff0:	21a01821 	lsrcs	r1, r1, #16
    3ff4:	23a02010 	movcs	r2, #16
    3ff8:	33a02000 	movcc	r2, #0
    3ffc:	e3510c01 	cmp	r1, #256	; 0x100
    4000:	21a01421 	lsrcs	r1, r1, #8
    4004:	22822008 	addcs	r2, r2, #8
    4008:	e3510010 	cmp	r1, #16
    400c:	21a01221 	lsrcs	r1, r1, #4
    4010:	22822004 	addcs	r2, r2, #4
    4014:	e3510004 	cmp	r1, #4
    4018:	82822003 	addhi	r2, r2, #3
    401c:	908220a1 	addls	r2, r2, r1, lsr #1
    4020:	e35c0000 	cmp	ip, #0
    4024:	e1a00233 	lsr	r0, r3, r2
    4028:	42600000 	rsbmi	r0, r0, #0
    402c:	e12fff1e 	bx	lr
    4030:	e3500000 	cmp	r0, #0
    4034:	c3e00102 	mvngt	r0, #-2147483648	; 0x80000000
    4038:	b3a00102 	movlt	r0, #-2147483648	; 0x80000000
    403c:	ea000007 	b	0x4060
    4040:	e3510000 	cmp	r1, #0
    4044:	0afffff9 	beq	0x4030
    4048:	e92d4003 	push	{r0, r1, lr}
    404c:	ebffffb3 	bl	0x3f20
    4050:	e8bd4006 	pop	{r1, r2, lr}
    4054:	e0030092 	mul	r3, r2, r0
    4058:	e0411003 	sub	r1, r1, r3
    405c:	e12fff1e 	bx	lr
    4060:	e12fff1e 	bx	lr
    4064:	e3530000 	cmp	r3, #0
    4068:	03520000 	cmpeq	r2, #0
    406c:	1a000004 	bne	0x4084
    4070:	e3510000 	cmp	r1, #0
    4074:	03500000 	cmpeq	r0, #0
    4078:	13e01000 	mvnne	r1, #0
    407c:	13e00000 	mvnne	r0, #0
    4080:	eafffff6 	b	0x4060
    4084:	e24dd008 	sub	sp, sp, #8
    4088:	e92d6000 	push	{sp, lr}
    408c:	eb0002d0 	bl	0x4bd4
    4090:	e59de004 	ldr	lr, [sp, #4]
    4094:	e28dd008 	add	sp, sp, #8
    4098:	e8bd000c 	pop	{r2, r3}
    409c:	e12fff1e 	bx	lr
    40a0:	e2801034 	add	r1, r0, #52	; 0x34
    40a4:	e8910038 	ldm	r1, {r3, r4, r5}
    40a8:	e1a02005 	mov	r2, r5
    40ac:	e92d001c 	push	{r2, r3, r4}
    40b0:	e8900fff 	ldm	r0, {r0, r1, r2, r3, r4, r5, r6, r7, r8, r9, sl, fp}
    40b4:	e89d7000 	ldm	sp, {ip, sp, lr}
    40b8:	e12fff1c 	bx	ip
    40bc:	ec900b21 			; <UNDEFINED> instruction: 0xec900b21
    40c0:	e12fff1e 	bx	lr
    40c4:	ec800b21 			; <UNDEFINED> instruction: 0xec800b21
    40c8:	e12fff1e 	bx	lr
    40cc:	ec900b20 			; <UNDEFINED> instruction: 0xec900b20
    40d0:	e12fff1e 	bx	lr
    40d4:	ec800b20 			; <UNDEFINED> instruction: 0xec800b20
    40d8:	e12fff1e 	bx	lr
    40dc:	ecd00b20 			; <UNDEFINED> instruction: 0xecd00b20
    40e0:	e12fff1e 	bx	lr
    40e4:	ecc00b20 			; <UNDEFINED> instruction: 0xecc00b20
    40e8:	e12fff1e 	bx	lr
    40ec:	ecf00102 	ldfe	f0, [r0], #8
    40f0:	ecf01102 	ldfe	f1, [r0], #8
    40f4:	ecf02102 	ldfe	f2, [r0], #8
    40f8:	ecf03102 	ldfe	f3, [r0], #8
    40fc:	ecf04102 	ldfe	f4, [r0], #8
    4100:	ecf05102 	ldfe	f5, [r0], #8
    4104:	ecf06102 	ldfe	f6, [r0], #8
    4108:	ecf07102 	ldfe	f7, [r0], #8
    410c:	ecf08102 	ldfp	f0, [r0], #8
    4110:	ecf09102 	ldfp	f1, [r0], #8
    4114:	ecf0a102 	ldfp	f2, [r0], #8
    4118:	ecf0b102 	ldfp	f3, [r0], #8
    411c:	ecf0c102 	ldfp	f4, [r0], #8
    4120:	ecf0d102 	ldfp	f5, [r0], #8
    4124:	ecf0e102 	ldfp	f6, [r0], #8
    4128:	ecf0f102 	ldfp	f7, [r0], #8
    412c:	e12fff1e 	bx	lr
    4130:	ece00102 	stfe	f0, [r0], #8
    4134:	ece01102 	stfe	f1, [r0], #8
    4138:	ece02102 	stfe	f2, [r0], #8
    413c:	ece03102 	stfe	f3, [r0], #8
    4140:	ece04102 	stfe	f4, [r0], #8
    4144:	ece05102 	stfe	f5, [r0], #8
    4148:	ece06102 	stfe	f6, [r0], #8
    414c:	ece07102 	stfe	f7, [r0], #8
    4150:	ece08102 	stfp	f0, [r0], #8
    4154:	ece09102 	stfp	f1, [r0], #8
    4158:	ece0a102 	stfp	f2, [r0], #8
    415c:	ece0b102 	stfp	f3, [r0], #8
    4160:	ece0c102 	stfp	f4, [r0], #8
    4164:	ece0d102 	stfp	f5, [r0], #8
    4168:	ece0e102 	stfp	f6, [r0], #8
    416c:	ece0f102 	stfp	f7, [r0], #8
    4170:	e12fff1e 	bx	lr
    4174:	fcb08101 			; <UNDEFINED> instruction: 0xfcb08101
    4178:	fcb09101 			; <UNDEFINED> instruction: 0xfcb09101
    417c:	fcb0a101 			; <UNDEFINED> instruction: 0xfcb0a101
    4180:	fcb0b101 			; <UNDEFINED> instruction: 0xfcb0b101
    4184:	e12fff1e 	bx	lr
    4188:	fca08101 			; <UNDEFINED> instruction: 0xfca08101
    418c:	fca09101 			; <UNDEFINED> instruction: 0xfca09101
    4190:	fca0a101 			; <UNDEFINED> instruction: 0xfca0a101
    4194:	fca0b101 			; <UNDEFINED> instruction: 0xfca0b101
    4198:	e12fff1e 	bx	lr
    419c:	e92de000 	push	{sp, lr, pc}
    41a0:	e92d1fff 	push	{r0, r1, r2, r3, r4, r5, r6, r7, r8, r9, sl, fp, ip}
    41a4:	e3a03000 	mov	r3, #0
    41a8:	e92d000c 	push	{r2, r3}
    41ac:	e28d1004 	add	r1, sp, #4
    41b0:	eb0003f4 	bl	0x5188
    41b4:	e59de040 	ldr	lr, [sp, #64]	; 0x40
    41b8:	e28dd048 	add	sp, sp, #72	; 0x48
    41bc:	e12fff1e 	bx	lr
    41c0:	e92de000 	push	{sp, lr, pc}
    41c4:	e92d1fff 	push	{r0, r1, r2, r3, r4, r5, r6, r7, r8, r9, sl, fp, ip}
    41c8:	e3a03000 	mov	r3, #0
    41cc:	e92d000c 	push	{r2, r3}
    41d0:	e28d1004 	add	r1, sp, #4
    41d4:	eb00041f 	bl	0x5258
    41d8:	e59de040 	ldr	lr, [sp, #64]	; 0x40
    41dc:	e28dd048 	add	sp, sp, #72	; 0x48
    41e0:	e12fff1e 	bx	lr
    41e4:	e92de000 	push	{sp, lr, pc}
    41e8:	e92d1fff 	push	{r0, r1, r2, r3, r4, r5, r6, r7, r8, r9, sl, fp, ip}
    41ec:	e3a03000 	mov	r3, #0
    41f0:	e92d000c 	push	{r2, r3}
    41f4:	e28d1004 	add	r1, sp, #4
    41f8:	eb000434 	bl	0x52d0
    41fc:	e59de040 	ldr	lr, [sp, #64]	; 0x40
    4200:	e28dd048 	add	sp, sp, #72	; 0x48
    4204:	e12fff1e 	bx	lr
    4208:	e92de000 	push	{sp, lr, pc}
    420c:	e92d1fff 	push	{r0, r1, r2, r3, r4, r5, r6, r7, r8, r9, sl, fp, ip}
    4210:	e3a03000 	mov	r3, #0
    4214:	e92d000c 	push	{r2, r3}
    4218:	e28d3004 	add	r3, sp, #4
    421c:	eb000404 	bl	0x5234
    4220:	e59de040 	ldr	lr, [sp, #64]	; 0x40
    4224:	e28dd048 	add	sp, sp, #72	; 0x48
    4228:	e12fff1e 	bx	lr
    422c:	e92de000 	push	{sp, lr, pc}
    4230:	e92d1fff 	push	{r0, r1, r2, r3, r4, r5, r6, r7, r8, r9, sl, fp, ip}
    4234:	e3a03000 	mov	r3, #0
    4238:	e92d000c 	push	{r2, r3}
    423c:	e28d2004 	add	r2, sp, #4
    4240:	eb000475 	bl	0x541c
    4244:	e59de040 	ldr	lr, [sp, #64]	; 0x40
    4248:	e28dd048 	add	sp, sp, #72	; 0x48
    424c:	e12fff1e 	bx	lr
    4250:	e92d4010 	push	{r4, lr}
    4254:	e3510000 	cmp	r1, #0
    4258:	1a000002 	bne	0x4268
    425c:	eb000005 	bl	0x4278
    4260:	e2800020 	add	r0, r0, #32
    4264:	ea000001 	b	0x4270
    4268:	e1a00001 	mov	r0, r1
    426c:	eb000001 	bl	0x4278
    4270:	e8bd4010 	pop	{r4, lr}
    4274:	e12fff1e 	bx	lr
    4278:	e3a0101c 	mov	r1, #28
    427c:	e3500801 	cmp	r0, #65536	; 0x10000
    4280:	21a00820 	lsrcs	r0, r0, #16
    4284:	22411010 	subcs	r1, r1, #16
    4288:	e3500c01 	cmp	r0, #256	; 0x100
    428c:	21a00420 	lsrcs	r0, r0, #8
    4290:	22411008 	subcs	r1, r1, #8
    4294:	e3500010 	cmp	r0, #16
    4298:	21a00220 	lsrcs	r0, r0, #4
    429c:	22411004 	subcs	r1, r1, #4
    42a0:	e28f2008 	add	r2, pc, #8
    42a4:	e7d20000 	ldrb	r0, [r2, r0]
    42a8:	e0800001 	add	r0, r0, r1
    42ac:	e12fff1e 	bx	lr
    42b0:	02020304 	andeq	r0, r2, #4, 6	; 0x10000000
    42b4:	01010101 	tsteq	r1, r1, lsl #2
	...
    42c0:	e59f0018 	ldr	r0, [pc, #24]	; 0x42e0
    42c4:	e59f3018 	ldr	r3, [pc, #24]	; 0x42e4
    42c8:	e1530000 	cmp	r3, r0
    42cc:	012fff1e 	bxeq	lr
    42d0:	e59f3010 	ldr	r3, [pc, #16]	; 0x42e8
    42d4:	e3530000 	cmp	r3, #0
    42d8:	012fff1e 	bxeq	lr
    42dc:	e12fff13 	bx	r3
    42e0:	03000858 	tsteq	r0, #88, 16	; 0x580000
    42e4:	03000858 	tsteq	r0, #88, 16	; 0x580000
    42e8:	00000000 	andeq	r0, r0, r0
    42ec:	e59f0024 	ldr	r0, [pc, #36]	; 0x4318
    42f0:	e59f1024 	ldr	r1, [pc, #36]	; 0x431c
    42f4:	e0411000 	sub	r1, r1, r0
    42f8:	e1a01141 	asr	r1, r1, #2
    42fc:	e0811fa1 	add	r1, r1, r1, lsr #31
    4300:	e1b010c1 	asrs	r1, r1, #1
    4304:	012fff1e 	bxeq	lr
    4308:	e59f3010 	ldr	r3, [pc, #16]	; 0x4320
    430c:	e3530000 	cmp	r3, #0
    4310:	012fff1e 	bxeq	lr
    4314:	e12fff13 	bx	r3
    4318:	03000858 	tsteq	r0, #88, 16	; 0x580000
    431c:	03000858 	tsteq	r0, #88, 16	; 0x580000
    4320:	00000000 	andeq	r0, r0, r0
    4324:	e92d4010 	push	{r4, lr}
    4328:	e59f402c 	ldr	r4, [pc, #44]	; 0x435c
    432c:	e5d43000 	ldrb	r3, [r4]
    4330:	e3530000 	cmp	r3, #0
    4334:	1a000006 	bne	0x4354
    4338:	ebffffe0 	bl	0x42c0
    433c:	e59f301c 	ldr	r3, [pc, #28]	; 0x4360
    4340:	e3530000 	cmp	r3, #0
    4344:	159f0018 	ldrne	r0, [pc, #24]	; 0x4364
    4348:	11a00000 	movne	r0, r0
    434c:	e3a03001 	mov	r3, #1
    4350:	e5c43000 	strb	r3, [r4]
    4354:	e8bd4010 	pop	{r4, lr}
    4358:	e12fff1e 	bx	lr
    435c:	03000000 	tsteq	r0, #0
    4360:	00000000 	andeq	r0, r0, r0
    4364:	08006a48 	stmdaeq	r0, {r3, r6, r9, fp, sp, lr}
    4368:	e59f3020 	ldr	r3, [pc, #32]	; 0x4390
    436c:	e3530000 	cmp	r3, #0
    4370:	0a000005 	beq	0x438c
    4374:	e92d4010 	push	{r4, lr}
    4378:	e59f1014 	ldr	r1, [pc, #20]	; 0x4394
    437c:	e59f0014 	ldr	r0, [pc, #20]	; 0x4398
    4380:	e1a00000 	nop			; (mov r0, r0)
    4384:	e8bd4010 	pop	{r4, lr}
    4388:	eaffffd7 	b	0x42ec
    438c:	eaffffd6 	b	0x42ec
    4390:	00000000 	andeq	r0, r0, r0
    4394:	03000004 	tsteq	r0, #4
    4398:	08006a48 	stmdaeq	r0, {r3, r6, r9, fp, sp, lr}
    439c:	e3a02000 	mov	r2, #0
    43a0:	e92d4ff0 	push	{r4, r5, r6, r7, r8, r9, sl, fp, lr}
    43a4:	e3a01001 	mov	r1, #1
    43a8:	e24dd044 	sub	sp, sp, #68	; 0x44
    43ac:	e1a03002 	mov	r3, r2
    43b0:	e5c02003 	strb	r2, [r0, #3]
    43b4:	e1a05000 	mov	r5, r0
    43b8:	e1a0200d 	mov	r2, sp
    43bc:	e5c01000 	strb	r1, [r0]
    43c0:	e4823004 	str	r3, [r2], #4
    43c4:	e2833001 	add	r3, r3, #1
    43c8:	e3530010 	cmp	r3, #16
    43cc:	1afffffb 	bne	0x43c0
    43d0:	e3a08004 	mov	r8, #4
    43d4:	e3a06000 	mov	r6, #0
    43d8:	e28d903c 	add	r9, sp, #60	; 0x3c
    43dc:	e1a0b009 	mov	fp, r9
    43e0:	e3a04000 	mov	r4, #0
    43e4:	e088a005 	add	sl, r8, r5
    43e8:	e2687014 	rsb	r7, r8, #20
    43ec:	ebfff3a5 	bl	0x1288
    43f0:	e0471004 	sub	r1, r7, r4
    43f4:	ebffff11 	bl	0x4040
    43f8:	e28d3040 	add	r3, sp, #64	; 0x40
    43fc:	e1a01101 	lsl	r1, r1, #2
    4400:	e0833001 	add	r3, r3, r1
    4404:	e5132040 	ldr	r2, [r3, #-64]	; 0xffffffc0
    4408:	e3520000 	cmp	r2, #0
    440c:	e4ca2001 	strb	r2, [sl], #1
    4410:	05c56001 	strbeq	r6, [r5, #1]
    4414:	05c54002 	strbeq	r4, [r5, #2]
    4418:	0a000010 	beq	0x4460
    441c:	e2523001 	subs	r3, r2, #1
    4420:	42822002 	addmi	r2, r2, #2
    4424:	51a02003 	movpl	r2, r3
    4428:	e0662142 	rsb	r2, r6, r2, asr #2
    442c:	e3520000 	cmp	r2, #0
    4430:	b2622000 	rsblt	r2, r2, #0
    4434:	e2730000 	rsbs	r0, r3, #0
    4438:	e2000003 	and	r0, r0, #3
    443c:	e2033003 	and	r3, r3, #3
    4440:	52603000 	rsbpl	r3, r0, #0
    4444:	e0433004 	sub	r3, r3, r4
    4448:	e3530000 	cmp	r3, #0
    444c:	e5d50003 	ldrb	r0, [r5, #3]
    4450:	b2633000 	rsblt	r3, r3, #0
    4454:	e0823003 	add	r3, r2, r3
    4458:	e0833000 	add	r3, r3, r0
    445c:	e5c53003 	strb	r3, [r5, #3]
    4460:	e2844001 	add	r4, r4, #1
    4464:	e41b3004 	ldr	r3, [fp], #-4
    4468:	e28d2040 	add	r2, sp, #64	; 0x40
    446c:	e0821001 	add	r1, r2, r1
    4470:	e3540004 	cmp	r4, #4
    4474:	e5013040 	str	r3, [r1, #-64]	; 0xffffffc0
    4478:	1affffdb 	bne	0x43ec
    447c:	e2866001 	add	r6, r6, #1
    4480:	e3560004 	cmp	r6, #4
    4484:	e2888004 	add	r8, r8, #4
    4488:	e2499010 	sub	r9, r9, #16
    448c:	1affffd2 	bne	0x43dc
    4490:	e3a02000 	mov	r2, #0
    4494:	e1a03002 	mov	r3, r2
    4498:	e5852014 	str	r2, [r5, #20]
    449c:	e285c008 	add	ip, r5, #8
    44a0:	e285e018 	add	lr, r5, #24
    44a4:	e24c1004 	sub	r1, ip, #4
    44a8:	e0632183 	rsb	r2, r3, r3, lsl #3
    44ac:	e0832102 	add	r2, r3, r2, lsl #2
    44b0:	e0d100d1 	ldrsb	r0, [r1], #1
    44b4:	e0822202 	add	r2, r2, r2, lsl #4
    44b8:	e0833102 	add	r3, r3, r2, lsl #2
    44bc:	e151000c 	cmp	r1, ip
    44c0:	e0833000 	add	r3, r3, r0
    44c4:	1afffff7 	bne	0x44a8
    44c8:	e281c004 	add	ip, r1, #4
    44cc:	e15c000e 	cmp	ip, lr
    44d0:	1afffff3 	bne	0x44a4
    44d4:	e1a00005 	mov	r0, r5
    44d8:	e5853014 	str	r3, [r5, #20]
    44dc:	e28dd044 	add	sp, sp, #68	; 0x44
    44e0:	e8bd4ff0 	pop	{r4, r5, r6, r7, r8, r9, sl, fp, lr}
    44e4:	e12fff1e 	bx	lr
    44e8:	e92d41f0 	push	{r4, r5, r6, r7, r8, lr}
    44ec:	e3a0e000 	mov	lr, #0
    44f0:	e3a04001 	mov	r4, #1
    44f4:	e24dd010 	sub	sp, sp, #16
    44f8:	e1a0c00e 	mov	ip, lr
    44fc:	e1a0300d 	mov	r3, sp
    4500:	e5c04000 	strb	r4, [r0]
    4504:	e5c0e003 	strb	lr, [r0, #3]
    4508:	e28d2010 	add	r2, sp, #16
    450c:	e4c3c001 	strb	ip, [r3], #1
    4510:	e1530002 	cmp	r3, r2
    4514:	1afffffc 	bne	0x450c
    4518:	e3a05000 	mov	r5, #0
    451c:	e3a06001 	mov	r6, #1
    4520:	e2807004 	add	r7, r0, #4
    4524:	e1a04007 	mov	r4, r7
    4528:	e1a0e001 	mov	lr, r1
    452c:	e3a0c000 	mov	ip, #0
    4530:	e59e3000 	ldr	r3, [lr]
    4534:	e4c43001 	strb	r3, [r4], #1
    4538:	e49e2004 	ldr	r2, [lr], #4
    453c:	e28d3010 	add	r3, sp, #16
    4540:	e3520000 	cmp	r2, #0
    4544:	e0833002 	add	r3, r3, r2
    4548:	e5436010 	strb	r6, [r3, #-16]
    454c:	05c05001 	strbeq	r5, [r0, #1]
    4550:	05c0c002 	strbeq	ip, [r0, #2]
    4554:	0a000013 	beq	0x45a8
    4558:	e2523001 	subs	r3, r2, #1
    455c:	42823002 	addmi	r3, r2, #2
    4560:	e0653143 	rsb	r3, r5, r3, asr #2
    4564:	e5d02003 	ldrb	r2, [r0, #3]
    4568:	e3530000 	cmp	r3, #0
    456c:	b2633000 	rsblt	r3, r3, #0
    4570:	e0833002 	add	r3, r3, r2
    4574:	e20330ff 	and	r3, r3, #255	; 0xff
    4578:	e5c03003 	strb	r3, [r0, #3]
    457c:	e51e2004 	ldr	r2, [lr, #-4]
    4580:	e2422001 	sub	r2, r2, #1
    4584:	e2728000 	rsbs	r8, r2, #0
    4588:	e2088003 	and	r8, r8, #3
    458c:	e2022003 	and	r2, r2, #3
    4590:	52682000 	rsbpl	r2, r8, #0
    4594:	e042200c 	sub	r2, r2, ip
    4598:	e3520000 	cmp	r2, #0
    459c:	b2622000 	rsblt	r2, r2, #0
    45a0:	e0832002 	add	r2, r3, r2
    45a4:	e5c02003 	strb	r2, [r0, #3]
    45a8:	e28cc001 	add	ip, ip, #1
    45ac:	e35c0004 	cmp	ip, #4
    45b0:	1affffde 	bne	0x4530
    45b4:	e2855001 	add	r5, r5, #1
    45b8:	e3550004 	cmp	r5, #4
    45bc:	e2811010 	add	r1, r1, #16
    45c0:	e2877004 	add	r7, r7, #4
    45c4:	1affffd6 	bne	0x4524
    45c8:	e28d100f 	add	r1, sp, #15
    45cc:	e24d3001 	sub	r3, sp, #1
    45d0:	e5f32001 	ldrb	r2, [r3, #1]!
    45d4:	e3520000 	cmp	r2, #0
    45d8:	0a000016 	beq	0x4638
    45dc:	e1530001 	cmp	r3, r1
    45e0:	1afffffa 	bne	0x45d0
    45e4:	e3a02000 	mov	r2, #0
    45e8:	e1a03002 	mov	r3, r2
    45ec:	e5802014 	str	r2, [r0, #20]
    45f0:	e280e008 	add	lr, r0, #8
    45f4:	e2804018 	add	r4, r0, #24
    45f8:	e24e1004 	sub	r1, lr, #4
    45fc:	e0632183 	rsb	r2, r3, r3, lsl #3
    4600:	e0832102 	add	r2, r3, r2, lsl #2
    4604:	e0d1c0d1 	ldrsb	ip, [r1], #1
    4608:	e0822202 	add	r2, r2, r2, lsl #4
    460c:	e0833102 	add	r3, r3, r2, lsl #2
    4610:	e151000e 	cmp	r1, lr
    4614:	e083300c 	add	r3, r3, ip
    4618:	1afffff7 	bne	0x45fc
    461c:	e281e004 	add	lr, r1, #4
    4620:	e154000e 	cmp	r4, lr
    4624:	1afffff3 	bne	0x45f8
    4628:	e5803014 	str	r3, [r0, #20]
    462c:	e28dd010 	add	sp, sp, #16
    4630:	e8bd41f0 	pop	{r4, r5, r6, r7, r8, lr}
    4634:	e12fff1e 	bx	lr
    4638:	e5c02000 	strb	r2, [r0]
    463c:	e28dd010 	add	sp, sp, #16
    4640:	e8bd41f0 	pop	{r4, r5, r6, r7, r8, lr}
    4644:	e12fff1e 	bx	lr
    4648:	e5d02000 	ldrb	r2, [r0]
    464c:	e3520000 	cmp	r2, #0
    4650:	0a00001a 	beq	0x46c0
    4654:	e5d12000 	ldrb	r2, [r1]
    4658:	e3520000 	cmp	r2, #0
    465c:	0a000017 	beq	0x46c0
    4660:	e591c014 	ldr	ip, [r1, #20]
    4664:	e5903014 	ldr	r3, [r0, #20]
    4668:	e15c0003 	cmp	ip, r3
    466c:	1a000012 	bne	0x46bc
    4670:	e2411004 	sub	r1, r1, #4
    4674:	e92d4030 	push	{r4, r5, lr}
    4678:	e041e000 	sub	lr, r1, r0
    467c:	e2801008 	add	r1, r0, #8
    4680:	e2800018 	add	r0, r0, #24
    4684:	e2413004 	sub	r3, r1, #4
    4688:	e08ec001 	add	ip, lr, r1
    468c:	e0d350d1 	ldrsb	r5, [r3], #1
    4690:	e0dc40d1 	ldrsb	r4, [ip], #1
    4694:	e1550004 	cmp	r5, r4
    4698:	1a00000a 	bne	0x46c8
    469c:	e1530001 	cmp	r3, r1
    46a0:	1afffff9 	bne	0x468c
    46a4:	e2811004 	add	r1, r1, #4
    46a8:	e1510000 	cmp	r1, r0
    46ac:	1afffff4 	bne	0x4684
    46b0:	e1a00002 	mov	r0, r2
    46b4:	e8bd4030 	pop	{r4, r5, lr}
    46b8:	e12fff1e 	bx	lr
    46bc:	e3a02000 	mov	r2, #0
    46c0:	e1a00002 	mov	r0, r2
    46c4:	e12fff1e 	bx	lr
    46c8:	e3a02000 	mov	r2, #0
    46cc:	eafffff7 	b	0x46b0
    46d0:	e92d4070 	push	{r4, r5, r6, lr}
    46d4:	e5d13000 	ldrb	r3, [r1]
    46d8:	e3530000 	cmp	r3, #0
    46dc:	11d131b4 	ldrhne	r3, [r1, #20]
    46e0:	e7904103 	ldr	r4, [r0, r3, lsl #2]
    46e4:	e3540000 	cmp	r4, #0
    46e8:	e1a05001 	mov	r5, r1
    46ec:	1a000003 	bne	0x4700
    46f0:	ea000007 	b	0x4714
    46f4:	e5944018 	ldr	r4, [r4, #24]
    46f8:	e3540000 	cmp	r4, #0
    46fc:	0a000004 	beq	0x4714
    4700:	e1a01005 	mov	r1, r5
    4704:	e1a00004 	mov	r0, r4
    4708:	ebffffce 	bl	0x4648
    470c:	e3500000 	cmp	r0, #0
    4710:	0afffff7 	beq	0x46f4
    4714:	e1a00004 	mov	r0, r4
    4718:	e8bd4070 	pop	{r4, r5, r6, lr}
    471c:	e12fff1e 	bx	lr
    4720:	e92d47f0 	push	{r4, r5, r6, r7, r8, r9, sl, lr}
    4724:	e1a06002 	mov	r6, r2
    4728:	e1a04000 	mov	r4, r0
    472c:	e1a07001 	mov	r7, r1
    4730:	ebffffe6 	bl	0x46d0
    4734:	e3500000 	cmp	r0, #0
    4738:	0a000031 	beq	0x4804
    473c:	e5d03028 	ldrb	r3, [r0, #40]	; 0x28
    4740:	e3530000 	cmp	r3, #0
    4744:	1a00002c 	bne	0x47fc
    4748:	e5d03000 	ldrb	r3, [r0]
    474c:	e3530000 	cmp	r3, #0
    4750:	03a02040 	moveq	r2, #64	; 0x40
    4754:	11d020d3 	ldrsbne	r2, [r0, #3]
    4758:	e5903024 	ldr	r3, [r0, #36]	; 0x24
    475c:	e0866002 	add	r6, r6, r2
    4760:	e1560003 	cmp	r6, r3
    4764:	aa000024 	bge	0x47fc
    4768:	e590501c 	ldr	r5, [r0, #28]
    476c:	e3550001 	cmp	r5, #1
    4770:	e5806024 	str	r6, [r0, #36]	; 0x24
    4774:	0a000020 	beq	0x47fc
    4778:	e0853fa5 	add	r3, r5, r5, lsr #31
    477c:	e1a030c3 	asr	r3, r3, #1
    4780:	e2831801 	add	r1, r3, #65536	; 0x10000
    4784:	e2852801 	add	r2, r5, #65536	; 0x10000
    4788:	e794e101 	ldr	lr, [r4, r1, lsl #2]
    478c:	e794c102 	ldr	ip, [r4, r2, lsl #2]
    4790:	e59e2024 	ldr	r2, [lr, #36]	; 0x24
    4794:	e59c1024 	ldr	r1, [ip, #36]	; 0x24
    4798:	e1510002 	cmp	r1, r2
    479c:	ba000008 	blt	0x47c4
    47a0:	ea000015 	b	0x47fc
    47a4:	e794e106 	ldr	lr, [r4, r6, lsl #2]
    47a8:	e592c000 	ldr	ip, [r2]
    47ac:	e59e1024 	ldr	r1, [lr, #36]	; 0x24
    47b0:	e59c2024 	ldr	r2, [ip, #36]	; 0x24
    47b4:	e1510002 	cmp	r1, r2
    47b8:	e1a05003 	mov	r5, r3
    47bc:	da00000e 	ble	0x47fc
    47c0:	e1a03000 	mov	r3, r0
    47c4:	e0841105 	add	r1, r4, r5, lsl #2
    47c8:	e0842103 	add	r2, r4, r3, lsl #2
    47cc:	e2811701 	add	r1, r1, #262144	; 0x40000
    47d0:	e2822701 	add	r2, r2, #262144	; 0x40000
    47d4:	e581e000 	str	lr, [r1]
    47d8:	e582c000 	str	ip, [r2]
    47dc:	e58c301c 	str	r3, [ip, #28]
    47e0:	e0830fa3 	add	r0, r3, r3, lsr #31
    47e4:	e5911000 	ldr	r1, [r1]
    47e8:	e1a000c0 	asr	r0, r0, #1
    47ec:	e3530001 	cmp	r3, #1
    47f0:	e2806801 	add	r6, r0, #65536	; 0x10000
    47f4:	e581501c 	str	r5, [r1, #28]
    47f8:	1affffe9 	bne	0x47a4
    47fc:	e8bd47f0 	pop	{r4, r5, r6, r7, r8, r9, sl, lr}
    4800:	e12fff1e 	bx	lr
    4804:	e2845702 	add	r5, r4, #524288	; 0x80000
    4808:	e5958004 	ldr	r8, [r5, #4]
    480c:	e3580801 	cmp	r8, #65536	; 0x10000
    4810:	c3a00000 	movgt	r0, #0
    4814:	d3a00001 	movle	r0, #1
    4818:	e2888001 	add	r8, r8, #1
    481c:	ebffee81 	bl	0x228
    4820:	e5858004 	str	r8, [r5, #4]
    4824:	e3a00030 	mov	r0, #48	; 0x30
    4828:	ebfff26a 	bl	0x11d8
    482c:	e5d78000 	ldrb	r8, [r7]
    4830:	e3580000 	cmp	r8, #0
    4834:	01a01008 	moveq	r1, r8
    4838:	e1a03007 	mov	r3, r7
    483c:	e1a02000 	mov	r2, r0
    4840:	11d711b4 	ldrhne	r1, [r7, #20]
    4844:	e5959004 	ldr	r9, [r5, #4]
    4848:	e794a101 	ldr	sl, [r4, r1, lsl #2]
    484c:	e5c08000 	strb	r8, [r0]
    4850:	e5d71001 	ldrb	r1, [r7, #1]
    4854:	e5c01001 	strb	r1, [r0, #1]
    4858:	e5d71002 	ldrb	r1, [r7, #2]
    485c:	e5c01002 	strb	r1, [r0, #2]
    4860:	e1d7c0d3 	ldrsb	ip, [r7, #3]
    4864:	e5c0c003 	strb	ip, [r0, #3]
    4868:	e5971014 	ldr	r1, [r7, #20]
    486c:	e5801014 	str	r1, [r0, #20]
    4870:	e287e010 	add	lr, r7, #16
    4874:	e1d310d4 	ldrsb	r1, [r3, #4]
    4878:	e5c21004 	strb	r1, [r2, #4]
    487c:	e1d310d5 	ldrsb	r1, [r3, #5]
    4880:	e5c21005 	strb	r1, [r2, #5]
    4884:	e1d310d6 	ldrsb	r1, [r3, #6]
    4888:	e5c21006 	strb	r1, [r2, #6]
    488c:	e2833004 	add	r3, r3, #4
    4890:	e1d310d3 	ldrsb	r1, [r3, #3]
    4894:	e153000e 	cmp	r3, lr
    4898:	e5c21007 	strb	r1, [r2, #7]
    489c:	e2822004 	add	r2, r2, #4
    48a0:	1afffff3 	bne	0x4874
    48a4:	e3580000 	cmp	r8, #0
    48a8:	03a0c040 	moveq	ip, #64	; 0x40
    48ac:	e3a03000 	mov	r3, #0
    48b0:	e08cc006 	add	ip, ip, r6
    48b4:	e580c024 	str	ip, [r0, #36]	; 0x24
    48b8:	e580a018 	str	sl, [r0, #24]
    48bc:	e580901c 	str	r9, [r0, #28]
    48c0:	e5806020 	str	r6, [r0, #32]
    48c4:	e5c03028 	strb	r3, [r0, #40]	; 0x28
    48c8:	e580302c 	str	r3, [r0, #44]	; 0x2c
    48cc:	e5d73000 	ldrb	r3, [r7]
    48d0:	e5956004 	ldr	r6, [r5, #4]
    48d4:	e3530000 	cmp	r3, #0
    48d8:	11d731b4 	ldrhne	r3, [r7, #20]
    48dc:	e2862801 	add	r2, r6, #65536	; 0x10000
    48e0:	e3560001 	cmp	r6, #1
    48e4:	e7840103 	str	r0, [r4, r3, lsl #2]
    48e8:	e7840102 	str	r0, [r4, r2, lsl #2]
    48ec:	0a00001f 	beq	0x4970
    48f0:	e0863fa6 	add	r3, r6, r6, lsr #31
    48f4:	e1a030c3 	asr	r3, r3, #1
    48f8:	e2832801 	add	r2, r3, #65536	; 0x10000
    48fc:	e794e102 	ldr	lr, [r4, r2, lsl #2]
    4900:	e5902024 	ldr	r2, [r0, #36]	; 0x24
    4904:	e59e1024 	ldr	r1, [lr, #36]	; 0x24
    4908:	e1510002 	cmp	r1, r2
    490c:	ca000008 	bgt	0x4934
    4910:	ea000016 	b	0x4970
    4914:	e5920000 	ldr	r0, [r2]
    4918:	e794e107 	ldr	lr, [r4, r7, lsl #2]
    491c:	e5901024 	ldr	r1, [r0, #36]	; 0x24
    4920:	e59e2024 	ldr	r2, [lr, #36]	; 0x24
    4924:	e1510002 	cmp	r1, r2
    4928:	e1a06003 	mov	r6, r3
    492c:	aa00000e 	bge	0x496c
    4930:	e1a0300c 	mov	r3, ip
    4934:	e0841106 	add	r1, r4, r6, lsl #2
    4938:	e0842103 	add	r2, r4, r3, lsl #2
    493c:	e2811701 	add	r1, r1, #262144	; 0x40000
    4940:	e2822701 	add	r2, r2, #262144	; 0x40000
    4944:	e581e000 	str	lr, [r1]
    4948:	e5820000 	str	r0, [r2]
    494c:	e580301c 	str	r3, [r0, #28]
    4950:	e083cfa3 	add	ip, r3, r3, lsr #31
    4954:	e5911000 	ldr	r1, [r1]
    4958:	e1a0c0cc 	asr	ip, ip, #1
    495c:	e3530001 	cmp	r3, #1
    4960:	e28c7801 	add	r7, ip, #65536	; 0x10000
    4964:	e581601c 	str	r6, [r1, #28]
    4968:	1affffe9 	bne	0x4914
    496c:	e5956004 	ldr	r6, [r5, #4]
    4970:	e5953008 	ldr	r3, [r5, #8]
    4974:	e1530006 	cmp	r3, r6
    4978:	a1a06003 	movge	r6, r3
    497c:	e5856008 	str	r6, [r5, #8]
    4980:	e8bd47f0 	pop	{r4, r5, r6, r7, r8, r9, sl, lr}
    4984:	e12fff1e 	bx	lr
    4988:	e3a03402 	mov	r3, #33554432	; 0x2000000
    498c:	e3a02000 	mov	r2, #0
    4990:	e92d4ff0 	push	{r4, r5, r6, r7, r8, r9, sl, fp, lr}
    4994:	e24dd01c 	sub	sp, sp, #28
    4998:	e4c32001 	strb	r2, [r3], #1
    499c:	e3530781 	cmp	r3, #33816576	; 0x2040000
    49a0:	1afffffc 	bne	0x4998
    49a4:	e3e0007b 	mvn	r0, #123	; 0x7b
    49a8:	e3e0c07c 	mvn	ip, #124	; 0x7c
    49ac:	e3a03000 	mov	r3, #0
    49b0:	e59f11c4 	ldr	r1, [pc, #452]	; 0x4b7c
    49b4:	e59fa1c4 	ldr	sl, [pc, #452]	; 0x4b80
    49b8:	e58d3004 	str	r3, [sp, #4]
    49bc:	e3a09001 	mov	r9, #1
    49c0:	e5c12000 	strb	r2, [r1]
    49c4:	e59f81b8 	ldr	r8, [pc, #440]	; 0x4b84
    49c8:	e5c12001 	strb	r2, [r1, #1]
    49cc:	e59f51b4 	ldr	r5, [pc, #436]	; 0x4b88
    49d0:	e5c1c002 	strb	ip, [r1, #2]
    49d4:	e59f61b0 	ldr	r6, [pc, #432]	; 0x4b8c
    49d8:	e5c12004 	strb	r2, [r1, #4]
    49dc:	e59fb1ac 	ldr	fp, [pc, #428]	; 0x4b90
    49e0:	e5c12005 	strb	r2, [r1, #5]
    49e4:	e28a7f82 	add	r7, sl, #520	; 0x208
    49e8:	e5c10006 	strb	r0, [r1, #6]
    49ec:	e5c12008 	strb	r2, [r1, #8]
    49f0:	e5c12009 	strb	r2, [r1, #9]
    49f4:	e5c1000a 	strb	r0, [r1, #10]
    49f8:	e5c1200c 	strb	r2, [r1, #12]
    49fc:	e5c1200d 	strb	r2, [r1, #13]
    4a00:	e5c1000e 	strb	r0, [r1, #14]
    4a04:	ea000006 	b	0x4a24
    4a08:	ebfff0dc 	bl	0xd80
    4a0c:	e28aa034 	add	sl, sl, #52	; 0x34
    4a10:	e1a0100b 	mov	r1, fp
    4a14:	e59f0178 	ldr	r0, [pc, #376]	; 0x4b94
    4a18:	ebfff0d8 	bl	0xd80
    4a1c:	e157000a 	cmp	r7, sl
    4a20:	0a000034 	beq	0x4af8
    4a24:	e59a1028 	ldr	r1, [sl, #40]	; 0x28
    4a28:	e28a2024 	add	r2, sl, #36	; 0x24
    4a2c:	e3510701 	cmp	r1, #262144	; 0x40000
    4a30:	e28a100c 	add	r1, sl, #12
    4a34:	e5852000 	str	r2, [r5]
    4a38:	e1a00006 	mov	r0, r6
    4a3c:	e588a000 	str	sl, [r8]
    4a40:	e8910006 	ldm	r1, {r1, r2}
    4a44:	8affffef 	bhi	0x4a08
    4a48:	ebfff0cc 	bl	0xd80
    4a4c:	e28d100c 	add	r1, sp, #12
    4a50:	e1a0000a 	mov	r0, sl
    4a54:	ebfff18f 	bl	0x1098
    4a58:	e59d000c 	ldr	r0, [sp, #12]
    4a5c:	e59f2134 	ldr	r2, [pc, #308]	; 0x4b98
    4a60:	e3500000 	cmp	r0, #0
    4a64:	e59f3130 	ldr	r3, [pc, #304]	; 0x4b9c
    4a68:	01a03002 	moveq	r3, r2
    4a6c:	e1a00003 	mov	r0, r3
    4a70:	ebfff0c2 	bl	0xd80
    4a74:	e59d200c 	ldr	r2, [sp, #12]
    4a78:	e2122001 	ands	r2, r2, #1
    4a7c:	e59d4014 	ldr	r4, [sp, #20]
    4a80:	1a000038 	bne	0x4b68
    4a84:	e59f0114 	ldr	r0, [pc, #276]	; 0x4ba0
    4a88:	e58d2000 	str	r2, [sp]
    4a8c:	ebfff0bb 	bl	0xd80
    4a90:	e59d2000 	ldr	r2, [sp]
    4a94:	e3540000 	cmp	r4, #0
    4a98:	e0099002 	and	r9, r9, r2
    4a9c:	01a02004 	moveq	r2, r4
    4aa0:	0a00000a 	beq	0x4ad0
    4aa4:	e5952000 	ldr	r2, [r5]
    4aa8:	e5920008 	ldr	r0, [r2, #8]
    4aac:	e0800100 	add	r0, r0, r0, lsl #2
    4ab0:	e0800100 	add	r0, r0, r0, lsl #2
    4ab4:	e1a00100 	lsl	r0, r0, #2
    4ab8:	e1a01004 	mov	r1, r4
    4abc:	ebfffcd0 	bl	0x3e04
    4ac0:	e1a02000 	mov	r2, r0
    4ac4:	e59d3004 	ldr	r3, [sp, #4]
    4ac8:	e0833000 	add	r3, r3, r0
    4acc:	e58d3004 	str	r3, [sp, #4]
    4ad0:	e59f00cc 	ldr	r0, [pc, #204]	; 0x4ba4
    4ad4:	e58d2000 	str	r2, [sp]
    4ad8:	e28aa034 	add	sl, sl, #52	; 0x34
    4adc:	ebfff0a7 	bl	0xd80
    4ae0:	e59d2000 	ldr	r2, [sp]
    4ae4:	e1a01004 	mov	r1, r4
    4ae8:	e59f00b8 	ldr	r0, [pc, #184]	; 0x4ba8
    4aec:	ebfff0a3 	bl	0xd80
    4af0:	e157000a 	cmp	r7, sl
    4af4:	1affffca 	bne	0x4a24
    4af8:	e59f40ac 	ldr	r4, [pc, #172]	; 0x4bac
    4afc:	e59d3004 	ldr	r3, [sp, #4]
    4b00:	e0832394 	umull	r2, r3, r4, r3
    4b04:	e59f00a4 	ldr	r0, [pc, #164]	; 0x4bb0
    4b08:	e1a041a3 	lsr	r4, r3, #3
    4b0c:	ebfff09b 	bl	0xd80
    4b10:	e59f309c 	ldr	r3, [pc, #156]	; 0x4bb4
    4b14:	e3590000 	cmp	r9, #0
    4b18:	e59f1098 	ldr	r1, [pc, #152]	; 0x4bb8
    4b1c:	e59f0098 	ldr	r0, [pc, #152]	; 0x4bbc
    4b20:	01a01003 	moveq	r1, r3
    4b24:	ebfff095 	bl	0xd80
    4b28:	e1a01004 	mov	r1, r4
    4b2c:	e59f008c 	ldr	r0, [pc, #140]	; 0x4bc0
    4b30:	ebfff092 	bl	0xd80
    4b34:	e59f2088 	ldr	r2, [pc, #136]	; 0x4bc4
    4b38:	e59f1088 	ldr	r1, [pc, #136]	; 0x4bc8
    4b3c:	e59f0088 	ldr	r0, [pc, #136]	; 0x4bcc
    4b40:	ebfff08e 	bl	0xd80
    4b44:	e3a03301 	mov	r3, #67108864	; 0x4000000
    4b48:	e3a0c003 	mov	ip, #3
    4b4c:	e3a00004 	mov	r0, #4
    4b50:	e3a02406 	mov	r2, #100663296	; 0x6000000
    4b54:	e3a01e3e 	mov	r1, #992	; 0x3e0
    4b58:	e5c3c000 	strb	ip, [r3]
    4b5c:	e5c30001 	strb	r0, [r3, #1]
    4b60:	e1c210b0 	strh	r1, [r2]
    4b64:	eafffffe 	b	0x4b64
    4b68:	e59f0060 	ldr	r0, [pc, #96]	; 0x4bd0
    4b6c:	e58d2000 	str	r2, [sp]
    4b70:	ebfff082 	bl	0xd80
    4b74:	e59d2000 	ldr	r2, [sp]
    4b78:	eaffffc5 	b	0x4a94
    4b7c:	04000100 	streq	r0, [r0], #-256	; 0xffffff00
    4b80:	030001e8 	tsteq	r0, #232, 2	; 0x3a
    4b84:	03000154 	tsteq	r0, #84, 2
    4b88:	03000158 	tsteq	r0, #88, 2
    4b8c:	080066ec 	stmdaeq	r0, {r2, r3, r5, r6, r7, r9, sl, sp, lr}
    4b90:	080066f8 	stmdaeq	r0, {r3, r4, r5, r6, r7, r9, sl, sp, lr}
    4b94:	08006710 	stmdaeq	r0, {r4, r8, r9, sl, sp, lr}
    4b98:	080066d8 	stmdaeq	r0, {r3, r4, r6, r7, r9, sl, sp, lr}
    4b9c:	080066d4 	stmdaeq	r0, {r2, r4, r6, r7, r9, sl, sp, lr}
    4ba0:	08006728 	stmdaeq	r0, {r3, r5, r8, r9, sl, sp, lr}
    4ba4:	080067dc 	stmdaeq	r0, {r2, r3, r4, r6, r7, r8, r9, sl, sp, lr}
    4ba8:	08006734 	stmdaeq	r0, {r2, r4, r5, r8, r9, sl, sp, lr}
    4bac:	cccccccd 	stclgt	12, cr12, [ip], {205}	; 0xcd
    4bb0:	0800674c 	stmdaeq	r0, {r2, r3, r6, r8, r9, sl, sp, lr}
    4bb4:	080066e4 	stmdaeq	r0, {r2, r5, r6, r7, r9, sl, sp, lr}
    4bb8:	080066dc 	stmdaeq	r0, {r2, r3, r4, r6, r7, r9, sl, sp, lr}
    4bbc:	08006780 	stmdaeq	r0, {r7, r8, r9, sl, sp, lr}
    4bc0:	08006790 	stmdaeq	r0, {r4, r7, r8, r9, sl, sp, lr}
    4bc4:	080067a4 	stmdaeq	r0, {r2, r5, r7, r8, r9, sl, sp, lr}
    4bc8:	000186a0 	andeq	r8, r1, r0, lsr #13
    4bcc:	080067b8 	stmdaeq	r0, {r3, r4, r5, r7, r8, r9, sl, sp, lr}
    4bd0:	0800671c 	stmdaeq	r0, {r2, r3, r4, r8, r9, sl, sp, lr}
    4bd4:	e1510003 	cmp	r1, r3
    4bd8:	01500002 	cmpeq	r0, r2
    4bdc:	e92d4ff8 	push	{r3, r4, r5, r6, r7, r8, r9, sl, fp, lr}
    4be0:	e1a04000 	mov	r4, r0
    4be4:	33a00000 	movcc	r0, #0
    4be8:	e1a05001 	mov	r5, r1
    4bec:	e59d8028 	ldr	r8, [sp, #40]	; 0x28
    4bf0:	31a01000 	movcc	r1, r0
    4bf4:	3a00003e 	bcc	0x4cf4
    4bf8:	e1a01003 	mov	r1, r3
    4bfc:	e1a00002 	mov	r0, r2
    4c00:	e1a06002 	mov	r6, r2
    4c04:	e1a07003 	mov	r7, r3
    4c08:	ebfffd90 	bl	0x4250
    4c0c:	e1a01005 	mov	r1, r5
    4c10:	e1a09000 	mov	r9, r0
    4c14:	e1a00004 	mov	r0, r4
    4c18:	ebfffd8c 	bl	0x4250
    4c1c:	e049c000 	sub	ip, r9, r0
    4c20:	e24ce020 	sub	lr, ip, #32
    4c24:	e1a0bc17 	lsl	fp, r7, ip
    4c28:	e18bbe16 	orr	fp, fp, r6, lsl lr
    4c2c:	e26c9020 	rsb	r9, ip, #32
    4c30:	e18bb936 	orr	fp, fp, r6, lsr r9
    4c34:	e155000b 	cmp	r5, fp
    4c38:	e1a0ac16 	lsl	sl, r6, ip
    4c3c:	0154000a 	cmpeq	r4, sl
    4c40:	33a00000 	movcc	r0, #0
    4c44:	31a01000 	movcc	r1, r0
    4c48:	3a000005 	bcc	0x4c64
    4c4c:	e3a00001 	mov	r0, #1
    4c50:	e054400a 	subs	r4, r4, sl
    4c54:	e1a01e10 	lsl	r1, r0, lr
    4c58:	e1811930 	orr	r1, r1, r0, lsr r9
    4c5c:	e0c5500b 	sbc	r5, r5, fp
    4c60:	e1a00c10 	lsl	r0, r0, ip
    4c64:	e35c0000 	cmp	ip, #0
    4c68:	0a000021 	beq	0x4cf4
    4c6c:	e1a060aa 	lsr	r6, sl, #1
    4c70:	e1a0200c 	mov	r2, ip
    4c74:	e1866f8b 	orr	r6, r6, fp, lsl #31
    4c78:	e1a070ab 	lsr	r7, fp, #1
    4c7c:	ea000007 	b	0x4ca0
    4c80:	e0543006 	subs	r3, r4, r6
    4c84:	e0c5a007 	sbc	sl, r5, r7
    4c88:	e0933003 	adds	r3, r3, r3
    4c8c:	e0aaa00a 	adc	sl, sl, sl
    4c90:	e2934001 	adds	r4, r3, #1
    4c94:	e2aa5000 	adc	r5, sl, #0
    4c98:	e2522001 	subs	r2, r2, #1
    4c9c:	0a000006 	beq	0x4cbc
    4ca0:	e1550007 	cmp	r5, r7
    4ca4:	01540006 	cmpeq	r4, r6
    4ca8:	2afffff4 	bcs	0x4c80
    4cac:	e0944004 	adds	r4, r4, r4
    4cb0:	e0a55005 	adc	r5, r5, r5
    4cb4:	e2522001 	subs	r2, r2, #1
    4cb8:	1afffff8 	bne	0x4ca0
    4cbc:	e1a03c34 	lsr	r3, r4, ip
    4cc0:	e1833915 	orr	r3, r3, r5, lsl r9
    4cc4:	e1833e35 	orr	r3, r3, r5, lsr lr
    4cc8:	e0900004 	adds	r0, r0, r4
    4ccc:	e1a04003 	mov	r4, r3
    4cd0:	e1a02c35 	lsr	r2, r5, ip
    4cd4:	e0a11005 	adc	r1, r1, r5
    4cd8:	e1a05002 	mov	r5, r2
    4cdc:	e1a03c12 	lsl	r3, r2, ip
    4ce0:	e1833e14 	orr	r3, r3, r4, lsl lr
    4ce4:	e1a0cc14 	lsl	ip, r4, ip
    4ce8:	e050000c 	subs	r0, r0, ip
    4cec:	e1833934 	orr	r3, r3, r4, lsr r9
    4cf0:	e0c11003 	sbc	r1, r1, r3
    4cf4:	e3580000 	cmp	r8, #0
    4cf8:	18880030 	stmne	r8, {r4, r5}
    4cfc:	e8bd4ff8 	pop	{r3, r4, r5, r6, r7, r8, r9, sl, fp, lr}
    4d00:	e12fff1e 	bx	lr
    4d04:	e5903000 	ldr	r3, [r0]
    4d08:	e3130101 	tst	r3, #1073741824	; 0x40000000
    4d0c:	13833102 	orrne	r3, r3, #-2147483648	; 0x80000000
    4d10:	03c33102 	biceq	r3, r3, #-2147483648	; 0x80000000
    4d14:	e0800003 	add	r0, r0, r3
    4d18:	e12fff1e 	bx	lr
    4d1c:	e3510000 	cmp	r1, #0
    4d20:	0a000021 	beq	0x4dac
    4d24:	e92d47f0 	push	{r4, r5, r6, r7, r8, r9, sl, lr}
    4d28:	e2418001 	sub	r8, r1, #1
    4d2c:	e1a06000 	mov	r6, r0
    4d30:	e1a07008 	mov	r7, r8
    4d34:	e3a09000 	mov	r9, #0
    4d38:	e0894007 	add	r4, r9, r7
    4d3c:	e0844fa4 	add	r4, r4, r4, lsr #31
    4d40:	e1a040c4 	asr	r4, r4, #1
    4d44:	e1a05184 	lsl	r5, r4, #3
    4d48:	e0861005 	add	r1, r6, r5
    4d4c:	e1a00001 	mov	r0, r1
    4d50:	ebffffeb 	bl	0x4d04
    4d54:	e1580004 	cmp	r8, r4
    4d58:	e1a03000 	mov	r3, r0
    4d5c:	e2850008 	add	r0, r5, #8
    4d60:	e0860000 	add	r0, r6, r0
    4d64:	0a000007 	beq	0x4d88
    4d68:	e1530002 	cmp	r3, r2
    4d6c:	8a000007 	bhi	0x4d90
    4d70:	ebffffe3 	bl	0x4d04
    4d74:	e2400001 	sub	r0, r0, #1
    4d78:	e1500002 	cmp	r0, r2
    4d7c:	2a000007 	bcs	0x4da0
    4d80:	e2849001 	add	r9, r4, #1
    4d84:	eaffffeb 	b	0x4d38
    4d88:	e1530002 	cmp	r3, r2
    4d8c:	9a000003 	bls	0x4da0
    4d90:	e1590004 	cmp	r9, r4
    4d94:	12447001 	subne	r7, r4, #1
    4d98:	1affffe6 	bne	0x4d38
    4d9c:	e3a01000 	mov	r1, #0
    4da0:	e1a00001 	mov	r0, r1
    4da4:	e8bd47f0 	pop	{r4, r5, r6, r7, r8, r9, sl, lr}
    4da8:	e12fff1e 	bx	lr
    4dac:	e1a00001 	mov	r0, r1
    4db0:	e12fff1e 	bx	lr
    4db4:	e3500001 	cmp	r0, #1
    4db8:	0a000006 	beq	0x4dd8
    4dbc:	e3500002 	cmp	r0, #2
    4dc0:	0a000006 	beq	0x4de0
    4dc4:	e59f301c 	ldr	r3, [pc, #28]	; 0x4de8
    4dc8:	e3500000 	cmp	r0, #0
    4dcc:	01a00003 	moveq	r0, r3
    4dd0:	13a00000 	movne	r0, #0
    4dd4:	e12fff1e 	bx	lr
    4dd8:	e59f000c 	ldr	r0, [pc, #12]	; 0x4dec
    4ddc:	e12fff1e 	bx	lr
    4de0:	e59f0008 	ldr	r0, [pc, #8]	; 0x4df0
    4de4:	e12fff1e 	bx	lr
    4de8:	0800593c 	stmdaeq	r0, {r2, r3, r4, r5, r8, fp, ip, lr}
    4dec:	08005944 	stmdaeq	r0, {r2, r6, r8, fp, ip, lr}
    4df0:	0800594c 	stmdaeq	r0, {r2, r3, r6, r8, fp, ip, lr}
    4df4:	e92d4030 	push	{r4, r5, lr}
    4df8:	e59f3110 	ldr	r3, [pc, #272]	; 0x4f10
    4dfc:	e3530000 	cmp	r3, #0
    4e00:	e24dd00c 	sub	sp, sp, #12
    4e04:	e1a04000 	mov	r4, r0
    4e08:	e2415002 	sub	r5, r1, #2
    4e0c:	0a000029 	beq	0x4eb8
    4e10:	e28d1004 	add	r1, sp, #4
    4e14:	e1a00005 	mov	r0, r5
    4e18:	e1a00000 	nop			; (mov r0, r0)
    4e1c:	e3500000 	cmp	r0, #0
    4e20:	0a00001d 	beq	0x4e9c
    4e24:	e59d1004 	ldr	r1, [sp, #4]
    4e28:	e1a02005 	mov	r2, r5
    4e2c:	ebffffba 	bl	0x4d1c
    4e30:	e2502000 	subs	r2, r0, #0
    4e34:	0a000018 	beq	0x4e9c
    4e38:	ebffffb1 	bl	0x4d04
    4e3c:	e5923004 	ldr	r3, [r2, #4]
    4e40:	e3530001 	cmp	r3, #1
    4e44:	03a02000 	moveq	r2, #0
    4e48:	e5840048 	str	r0, [r4, #72]	; 0x48
    4e4c:	03a03005 	moveq	r3, #5
    4e50:	05842010 	streq	r2, [r4, #16]
    4e54:	0a00000c 	beq	0x4e8c
    4e58:	e3530000 	cmp	r3, #0
    4e5c:	e2820004 	add	r0, r2, #4
    4e60:	ba000026 	blt	0x4f00
    4e64:	ebffffa6 	bl	0x4d04
    4e68:	e3a03000 	mov	r3, #0
    4e6c:	e584004c 	str	r0, [r4, #76]	; 0x4c
    4e70:	e5843050 	str	r3, [r4, #80]	; 0x50
    4e74:	e5903000 	ldr	r3, [r0]
    4e78:	e3530000 	cmp	r3, #0
    4e7c:	ba000014 	blt	0x4ed4
    4e80:	ebffff9f 	bl	0x4d04
    4e84:	e3a03000 	mov	r3, #0
    4e88:	e5840010 	str	r0, [r4, #16]
    4e8c:	e1a00003 	mov	r0, r3
    4e90:	e28dd00c 	add	sp, sp, #12
    4e94:	e8bd4030 	pop	{r4, r5, lr}
    4e98:	e12fff1e 	bx	lr
    4e9c:	e3a03009 	mov	r3, #9
    4ea0:	e3a02000 	mov	r2, #0
    4ea4:	e1a00003 	mov	r0, r3
    4ea8:	e5842010 	str	r2, [r4, #16]
    4eac:	e28dd00c 	add	sp, sp, #12
    4eb0:	e8bd4030 	pop	{r4, r5, lr}
    4eb4:	e12fff1e 	bx	lr
    4eb8:	e59f3054 	ldr	r3, [pc, #84]	; 0x4f14
    4ebc:	e59f1054 	ldr	r1, [pc, #84]	; 0x4f18
    4ec0:	e0411003 	sub	r1, r1, r3
    4ec4:	e1a011c1 	asr	r1, r1, #3
    4ec8:	e1a00003 	mov	r0, r3
    4ecc:	e58d1004 	str	r1, [sp, #4]
    4ed0:	eaffffd4 	b	0x4e28
    4ed4:	e1a00c23 	lsr	r0, r3, #24
    4ed8:	e200000f 	and	r0, r0, #15
    4edc:	ebffffb4 	bl	0x4db4
    4ee0:	e3500000 	cmp	r0, #0
    4ee4:	13a03000 	movne	r3, #0
    4ee8:	03a03009 	moveq	r3, #9
    4eec:	e5840010 	str	r0, [r4, #16]
    4ef0:	e1a00003 	mov	r0, r3
    4ef4:	e28dd00c 	add	sp, sp, #12
    4ef8:	e8bd4030 	pop	{r4, r5, lr}
    4efc:	e12fff1e 	bx	lr
    4f00:	e3a03001 	mov	r3, #1
    4f04:	e584004c 	str	r0, [r4, #76]	; 0x4c
    4f08:	e5843050 	str	r3, [r4, #80]	; 0x50
    4f0c:	eaffffd8 	b	0x4e74
    4f10:	00000000 	andeq	r0, r0, r0
    4f14:	080069d0 	stmdaeq	r0, {r4, r6, r7, r8, fp, sp, lr}
    4f18:	08006a48 	stmdaeq	r0, {r3, r6, r9, fp, sp, lr}
    4f1c:	e5903000 	ldr	r3, [r0]
    4f20:	e3130001 	tst	r3, #1
    4f24:	e92d4010 	push	{r4, lr}
    4f28:	e1a04000 	mov	r4, r0
    4f2c:	1a000004 	bne	0x4f44
    4f30:	e3130002 	tst	r3, #2
    4f34:	e2800048 	add	r0, r0, #72	; 0x48
    4f38:	0a000009 	beq	0x4f64
    4f3c:	ebfffc62 	bl	0x40cc
    4f40:	e5943000 	ldr	r3, [r4]
    4f44:	e3130004 	tst	r3, #4
    4f48:	0a000009 	beq	0x4f74
    4f4c:	e3130008 	tst	r3, #8
    4f50:	0a00000c 	beq	0x4f88
    4f54:	e3130010 	tst	r3, #16
    4f58:	0a00000f 	beq	0x4f9c
    4f5c:	e8bd4010 	pop	{r4, lr}
    4f60:	e12fff1e 	bx	lr
    4f64:	ebfffc54 	bl	0x40bc
    4f68:	e5943000 	ldr	r3, [r4]
    4f6c:	e3130004 	tst	r3, #4
    4f70:	1afffff5 	bne	0x4f4c
    4f74:	e28400d0 	add	r0, r4, #208	; 0xd0
    4f78:	ebfffc57 	bl	0x40dc
    4f7c:	e5943000 	ldr	r3, [r4]
    4f80:	e3130008 	tst	r3, #8
    4f84:	1afffff2 	bne	0x4f54
    4f88:	e2840e15 	add	r0, r4, #336	; 0x150
    4f8c:	ebfffc56 	bl	0x40ec
    4f90:	e5943000 	ldr	r3, [r4]
    4f94:	e3130010 	tst	r3, #16
    4f98:	1affffef 	bne	0x4f5c
    4f9c:	e2840e1d 	add	r0, r4, #464	; 0x1d0
    4fa0:	ebfffc73 	bl	0x4174
    4fa4:	e8bd4010 	pop	{r4, lr}
    4fa8:	e12fff1e 	bx	lr
    4fac:	e5903000 	ldr	r3, [r0]
    4fb0:	e3530000 	cmp	r3, #0
    4fb4:	10833000 	addne	r3, r3, r0
    4fb8:	e1a00003 	mov	r0, r3
    4fbc:	e12fff1e 	bx	lr
    4fc0:	e12fff1e 	bx	lr
    4fc4:	e92d4010 	push	{r4, lr}
    4fc8:	e1a05001 	mov	r5, r1
    4fcc:	e1a04000 	mov	r4, r0
    4fd0:	e5951040 	ldr	r1, [r5, #64]	; 0x40
    4fd4:	e1a00004 	mov	r0, r4
    4fd8:	ebffff85 	bl	0x4df4
    4fdc:	e2506000 	subs	r6, r0, #0
    4fe0:	1a000010 	bne	0x5028
    4fe4:	e5952040 	ldr	r2, [r5, #64]	; 0x40
    4fe8:	e5943010 	ldr	r3, [r4, #16]
    4fec:	e5842014 	str	r2, [r4, #20]
    4ff0:	e1a01004 	mov	r1, r4
    4ff4:	e1a02005 	mov	r2, r5
    4ff8:	e3a00001 	mov	r0, #1
    4ffc:	e1a0e00f 	mov	lr, pc
    5000:	e12fff13 	bx	r3
    5004:	e3500008 	cmp	r0, #8
    5008:	0afffff0 	beq	0x4fd0
    500c:	e3500007 	cmp	r0, #7
    5010:	1a000004 	bne	0x5028
    5014:	e1a00006 	mov	r0, r6
    5018:	e5951040 	ldr	r1, [r5, #64]	; 0x40
    501c:	ebffffe7 	bl	0x4fc0
    5020:	e2850004 	add	r0, r5, #4
    5024:	ebfffc1d 	bl	0x40a0
    5028:	eb000454 	bl	0x6180
    502c:	e92d47f0 	push	{r4, r5, r6, r7, r8, r9, sl, lr}
    5030:	e1a04000 	mov	r4, r0
    5034:	e3a05000 	mov	r5, #0
    5038:	e281e004 	add	lr, r1, #4
    503c:	e24ddff2 	sub	sp, sp, #968	; 0x3c8
    5040:	e1a06002 	mov	r6, r2
    5044:	e8be000f 	ldm	lr!, {r0, r1, r2, r3}
    5048:	e28dc00c 	add	ip, sp, #12
    504c:	e8ac000f 	stmia	ip!, {r0, r1, r2, r3}
    5050:	e8be000f 	ldm	lr!, {r0, r1, r2, r3}
    5054:	e8ac000f 	stmia	ip!, {r0, r1, r2, r3}
    5058:	e8be000f 	ldm	lr!, {r0, r1, r2, r3}
    505c:	e8ac000f 	stmia	ip!, {r0, r1, r2, r3}
    5060:	e89e000f 	ldm	lr, {r0, r1, r2, r3}
    5064:	e594900c 	ldr	r9, [r4, #12]
    5068:	e594a018 	ldr	sl, [r4, #24]
    506c:	e88c000f 	stm	ip, {r0, r1, r2, r3}
    5070:	e1a00004 	mov	r0, r4
    5074:	e59d1048 	ldr	r1, [sp, #72]	; 0x48
    5078:	e58d5008 	str	r5, [sp, #8]
    507c:	ebffff5c 	bl	0x4df4
    5080:	e3560000 	cmp	r6, #0
    5084:	e1a05000 	mov	r5, r0
    5088:	13a0700a 	movne	r7, #10
    508c:	03a07009 	moveq	r7, #9
    5090:	e28d6008 	add	r6, sp, #8
    5094:	ea000022 	b	0x5124
    5098:	e59d3048 	ldr	r3, [sp, #72]	; 0x48
    509c:	e3a02e1e 	mov	r2, #480	; 0x1e0
    50a0:	e5843014 	str	r3, [r4, #20]
    50a4:	e1a01006 	mov	r1, r6
    50a8:	e28d0f7a 	add	r0, sp, #488	; 0x1e8
    50ac:	eb00045a 	bl	0x621c
    50b0:	e5943010 	ldr	r3, [r4, #16]
    50b4:	e28d2f7a 	add	r2, sp, #488	; 0x1e8
    50b8:	e1a01004 	mov	r1, r4
    50bc:	e1a00007 	mov	r0, r7
    50c0:	e1a0e00f 	mov	lr, pc
    50c4:	e12fff13 	bx	r3
    50c8:	e59d3220 	ldr	r3, [sp, #544]	; 0x220
    50cc:	e1a08000 	mov	r8, r0
    50d0:	e58d304c 	str	r3, [sp, #76]	; 0x4c
    50d4:	e88d0440 	stm	sp, {r6, sl}
    50d8:	e1a01007 	mov	r1, r7
    50dc:	e1a03004 	mov	r3, r4
    50e0:	e1a02004 	mov	r2, r4
    50e4:	e3a00001 	mov	r0, #1
    50e8:	e1a0e00f 	mov	lr, pc
    50ec:	e12fff19 	bx	r9
    50f0:	e3500000 	cmp	r0, #0
    50f4:	1a000017 	bne	0x5158
    50f8:	e3a02e1e 	mov	r2, #480	; 0x1e0
    50fc:	e28d1f7a 	add	r1, sp, #488	; 0x1e8
    5100:	e1a00006 	mov	r0, r6
    5104:	eb000444 	bl	0x621c
    5108:	e3580008 	cmp	r8, #8
    510c:	1a000016 	bne	0x516c
    5110:	e59d1048 	ldr	r1, [sp, #72]	; 0x48
    5114:	e1a00004 	mov	r0, r4
    5118:	ebffff35 	bl	0x4df4
    511c:	e3a07009 	mov	r7, #9
    5120:	e1a05000 	mov	r5, r0
    5124:	e3550000 	cmp	r5, #0
    5128:	0affffda 	beq	0x5098
    512c:	e59d3040 	ldr	r3, [sp, #64]	; 0x40
    5130:	e88d0440 	stm	sp, {r6, sl}
    5134:	e58d304c 	str	r3, [sp, #76]	; 0x4c
    5138:	e3871010 	orr	r1, r7, #16
    513c:	e1a03004 	mov	r3, r4
    5140:	e1a02004 	mov	r2, r4
    5144:	e3a00001 	mov	r0, #1
    5148:	e1a0e00f 	mov	lr, pc
    514c:	e12fff19 	bx	r9
    5150:	e3500000 	cmp	r0, #0
    5154:	0a000000 	beq	0x515c
    5158:	e3a05009 	mov	r5, #9
    515c:	e1a00005 	mov	r0, r5
    5160:	e28ddff2 	add	sp, sp, #968	; 0x3c8
    5164:	e8bd47f0 	pop	{r4, r5, r6, r7, r8, r9, sl, lr}
    5168:	e12fff1e 	bx	lr
    516c:	e3580007 	cmp	r8, #7
    5170:	1afffff8 	bne	0x5158
    5174:	e1a00005 	mov	r0, r5
    5178:	e59d1048 	ldr	r1, [sp, #72]	; 0x48
    517c:	ebffff8f 	bl	0x4fc0
    5180:	e28d000c 	add	r0, sp, #12
    5184:	ebfffbc5 	bl	0x40a0
    5188:	e92d4070 	push	{r4, r5, r6, lr}
    518c:	e3e05000 	mvn	r5, #0
    5190:	e591303c 	ldr	r3, [r1, #60]	; 0x3c
    5194:	e5813040 	str	r3, [r1, #64]	; 0x40
    5198:	e281e004 	add	lr, r1, #4
    519c:	e24dde1e 	sub	sp, sp, #480	; 0x1e0
    51a0:	e1a06001 	mov	r6, r1
    51a4:	e1a04000 	mov	r4, r0
    51a8:	e8be000f 	ldm	lr!, {r0, r1, r2, r3}
    51ac:	e28dc004 	add	ip, sp, #4
    51b0:	e8ac000f 	stmia	ip!, {r0, r1, r2, r3}
    51b4:	e8be000f 	ldm	lr!, {r0, r1, r2, r3}
    51b8:	e8ac000f 	stmia	ip!, {r0, r1, r2, r3}
    51bc:	e8be000f 	ldm	lr!, {r0, r1, r2, r3}
    51c0:	e8ac000f 	stmia	ip!, {r0, r1, r2, r3}
    51c4:	e89e000f 	ldm	lr, {r0, r1, r2, r3}
    51c8:	e88c000f 	stm	ip, {r0, r1, r2, r3}
    51cc:	e58d5000 	str	r5, [sp]
    51d0:	ea000007 	b	0x51f4
    51d4:	e5943010 	ldr	r3, [r4, #16]
    51d8:	e1a0200d 	mov	r2, sp
    51dc:	e1a01004 	mov	r1, r4
    51e0:	e1a0e00f 	mov	lr, pc
    51e4:	e12fff13 	bx	r3
    51e8:	e3500008 	cmp	r0, #8
    51ec:	e1a05000 	mov	r5, r0
    51f0:	1a000008 	bne	0x5218
    51f4:	e59d1040 	ldr	r1, [sp, #64]	; 0x40
    51f8:	e1a00004 	mov	r0, r4
    51fc:	ebfffefc 	bl	0x4df4
    5200:	e3500000 	cmp	r0, #0
    5204:	0afffff2 	beq	0x51d4
    5208:	e3a00009 	mov	r0, #9
    520c:	e28dde1e 	add	sp, sp, #480	; 0x1e0
    5210:	e8bd4070 	pop	{r4, r5, r6, lr}
    5214:	e12fff1e 	bx	lr
    5218:	e1a0000d 	mov	r0, sp
    521c:	ebffff3e 	bl	0x4f1c
    5220:	e3550006 	cmp	r5, #6
    5224:	1afffff7 	bne	0x5208
    5228:	e1a01006 	mov	r1, r6
    522c:	e1a00004 	mov	r0, r4
    5230:	ebffff63 	bl	0x4fc4
    5234:	e52de004 	push	{lr}		; (str lr, [sp, #-4]!)
    5238:	e593e03c 	ldr	lr, [r3, #60]	; 0x3c
    523c:	e580100c 	str	r1, [r0, #12]
    5240:	e5802018 	str	r2, [r0, #24]
    5244:	e1a01003 	mov	r1, r3
    5248:	e583e040 	str	lr, [r3, #64]	; 0x40
    524c:	e3a02000 	mov	r2, #0
    5250:	e49de004 	pop	{lr}		; (ldr lr, [sp], #4)
    5254:	eaffff74 	b	0x502c
    5258:	e92d4070 	push	{r4, r5, r6, lr}
    525c:	e590600c 	ldr	r6, [r0, #12]
    5260:	e5903014 	ldr	r3, [r0, #20]
    5264:	e3560000 	cmp	r6, #0
    5268:	e5813040 	str	r3, [r1, #64]	; 0x40
    526c:	1a000013 	bne	0x52c0
    5270:	e5903010 	ldr	r3, [r0, #16]
    5274:	e1a02001 	mov	r2, r1
    5278:	e1a04000 	mov	r4, r0
    527c:	e1a05001 	mov	r5, r1
    5280:	e1a01000 	mov	r1, r0
    5284:	e3a00002 	mov	r0, #2
    5288:	e1a0e00f 	mov	lr, pc
    528c:	e12fff13 	bx	r3
    5290:	e3500007 	cmp	r0, #7
    5294:	0a000004 	beq	0x52ac
    5298:	e3500008 	cmp	r0, #8
    529c:	1a00000a 	bne	0x52cc
    52a0:	e1a01005 	mov	r1, r5
    52a4:	e1a00004 	mov	r0, r4
    52a8:	ebffff45 	bl	0x4fc4
    52ac:	e1a00006 	mov	r0, r6
    52b0:	e5951040 	ldr	r1, [r5, #64]	; 0x40
    52b4:	ebffff41 	bl	0x4fc0
    52b8:	e2850004 	add	r0, r5, #4
    52bc:	ebfffb77 	bl	0x40a0
    52c0:	e3a02001 	mov	r2, #1
    52c4:	ebffff58 	bl	0x502c
    52c8:	eb0003ac 	bl	0x6180
    52cc:	eb0003ab 	bl	0x6180
    52d0:	e590300c 	ldr	r3, [r0, #12]
    52d4:	e3530000 	cmp	r3, #0
    52d8:	1591c03c 	ldrne	ip, [r1, #60]	; 0x3c
    52dc:	13a02000 	movne	r2, #0
    52e0:	1581c040 	strne	ip, [r1, #64]	; 0x40
    52e4:	1affff50 	bne	0x502c
    52e8:	eaffffa6 	b	0x5188
    52ec:	e3510004 	cmp	r1, #4
    52f0:	979ff101 	ldrls	pc, [pc, r1, lsl #2]
    52f4:	ea000014 	b	0x534c
    52f8:	08005314 	stmdaeq	r0, {r2, r4, r8, r9, ip, lr}
    52fc:	0800530c 	stmdaeq	r0, {r2, r3, r8, r9, ip, lr}
    5300:	0800534c 	stmdaeq	r0, {r2, r3, r6, r8, r9, ip, lr}
    5304:	0800530c 	stmdaeq	r0, {r2, r3, r8, r9, ip, lr}
    5308:	0800530c 	stmdaeq	r0, {r2, r3, r8, r9, ip, lr}
    530c:	e3a00001 	mov	r0, #1
    5310:	e12fff1e 	bx	lr
    5314:	e352000f 	cmp	r2, #15
    5318:	93a01000 	movls	r1, #0
    531c:	83a01001 	movhi	r1, #1
    5320:	e3530000 	cmp	r3, #0
    5324:	01a03001 	moveq	r3, r1
    5328:	13a03001 	movne	r3, #1
    532c:	e3530000 	cmp	r3, #0
    5330:	1a000005 	bne	0x534c
    5334:	e0800102 	add	r0, r0, r2, lsl #2
    5338:	e5902004 	ldr	r2, [r0, #4]
    533c:	e1a00003 	mov	r0, r3
    5340:	e59d3000 	ldr	r3, [sp]
    5344:	e5832000 	str	r2, [r3]
    5348:	e12fff1e 	bx	lr
    534c:	e3a00002 	mov	r0, #2
    5350:	e12fff1e 	bx	lr
    5354:	e3a03000 	mov	r3, #0
    5358:	e52de004 	push	{lr}		; (str lr, [sp, #-4]!)
    535c:	e24dd014 	sub	sp, sp, #20
    5360:	e28dc00c 	add	ip, sp, #12
    5364:	e1a02001 	mov	r2, r1
    5368:	e58dc000 	str	ip, [sp]
    536c:	e1a01003 	mov	r1, r3
    5370:	ebffffdd 	bl	0x52ec
    5374:	e59d000c 	ldr	r0, [sp, #12]
    5378:	e28dd014 	add	sp, sp, #20
    537c:	e49de004 	pop	{lr}		; (ldr lr, [sp], #4)
    5380:	e12fff1e 	bx	lr
    5384:	e3510004 	cmp	r1, #4
    5388:	979ff101 	ldrls	pc, [pc, r1, lsl #2]
    538c:	ea000014 	b	0x53e4
    5390:	080053ac 	stmdaeq	r0, {r2, r3, r5, r7, r8, r9, ip, lr}
    5394:	080053a4 	stmdaeq	r0, {r2, r5, r7, r8, r9, ip, lr}
    5398:	080053e4 	stmdaeq	r0, {r2, r5, r6, r7, r8, r9, ip, lr}
    539c:	080053a4 	stmdaeq	r0, {r2, r5, r7, r8, r9, ip, lr}
    53a0:	080053a4 	stmdaeq	r0, {r2, r5, r7, r8, r9, ip, lr}
    53a4:	e3a00001 	mov	r0, #1
    53a8:	e12fff1e 	bx	lr
    53ac:	e352000f 	cmp	r2, #15
    53b0:	93a01000 	movls	r1, #0
    53b4:	83a01001 	movhi	r1, #1
    53b8:	e3530000 	cmp	r3, #0
    53bc:	01a03001 	moveq	r3, r1
    53c0:	13a03001 	movne	r3, #1
    53c4:	e3530000 	cmp	r3, #0
    53c8:	1a000005 	bne	0x53e4
    53cc:	e59d1000 	ldr	r1, [sp]
    53d0:	e5911000 	ldr	r1, [r1]
    53d4:	e0802102 	add	r2, r0, r2, lsl #2
    53d8:	e5821004 	str	r1, [r2, #4]
    53dc:	e1a00003 	mov	r0, r3
    53e0:	e12fff1e 	bx	lr
    53e4:	e3a00002 	mov	r0, #2
    53e8:	e12fff1e 	bx	lr
    53ec:	e3a03000 	mov	r3, #0
    53f0:	e52de004 	push	{lr}		; (str lr, [sp, #-4]!)
    53f4:	e24dd014 	sub	sp, sp, #20
    53f8:	e28dc00c 	add	ip, sp, #12
    53fc:	e58d200c 	str	r2, [sp, #12]
    5400:	e58dc000 	str	ip, [sp]
    5404:	e1a02001 	mov	r2, r1
    5408:	e1a01003 	mov	r1, r3
    540c:	ebffffdc 	bl	0x5384
    5410:	e28dd014 	add	sp, sp, #20
    5414:	e49de004 	pop	{lr}		; (ldr lr, [sp], #4)
    5418:	e12fff1e 	bx	lr
    541c:	e92d4070 	push	{r4, r5, r6, lr}
    5420:	e3e04000 	mvn	r4, #0
    5424:	e592303c 	ldr	r3, [r2, #60]	; 0x3c
    5428:	e5823040 	str	r3, [r2, #64]	; 0x40
    542c:	e282c004 	add	ip, r2, #4
    5430:	e24ddf8e 	sub	sp, sp, #568	; 0x238
    5434:	e1a06000 	mov	r6, r0
    5438:	e1a05001 	mov	r5, r1
    543c:	e8bc000f 	ldm	ip!, {r0, r1, r2, r3}
    5440:	e28de05c 	add	lr, sp, #92	; 0x5c
    5444:	e8ae000f 	stmia	lr!, {r0, r1, r2, r3}
    5448:	e8bc000f 	ldm	ip!, {r0, r1, r2, r3}
    544c:	e8ae000f 	stmia	lr!, {r0, r1, r2, r3}
    5450:	e8bc000f 	ldm	ip!, {r0, r1, r2, r3}
    5454:	e8ae000f 	stmia	lr!, {r0, r1, r2, r3}
    5458:	e89c000f 	ldm	ip, {r0, r1, r2, r3}
    545c:	e88e000f 	stm	lr, {r0, r1, r2, r3}
    5460:	e58d4058 	str	r4, [sp, #88]	; 0x58
    5464:	ea000013 	b	0x54b8
    5468:	e1a0200d 	mov	r2, sp
    546c:	e3a0100c 	mov	r1, #12
    5470:	e28d0058 	add	r0, sp, #88	; 0x58
    5474:	ebffffdc 	bl	0x53ec
    5478:	e1a01005 	mov	r1, r5
    547c:	e28d0058 	add	r0, sp, #88	; 0x58
    5480:	e1a0e00f 	mov	lr, pc
    5484:	e12fff16 	bx	r6
    5488:	e3500000 	cmp	r0, #0
    548c:	1a00000e 	bne	0x54cc
    5490:	e59d3010 	ldr	r3, [sp, #16]
    5494:	e28d2058 	add	r2, sp, #88	; 0x58
    5498:	e1a0100d 	mov	r1, sp
    549c:	e3a00008 	mov	r0, #8
    54a0:	e1a0e00f 	mov	lr, pc
    54a4:	e12fff13 	bx	r3
    54a8:	e2403005 	sub	r3, r0, #5
    54ac:	e31300fb 	tst	r3, #251	; 0xfb
    54b0:	e1a04000 	mov	r4, r0
    54b4:	0a000005 	beq	0x54d0
    54b8:	e59d1098 	ldr	r1, [sp, #152]	; 0x98
    54bc:	e1a0000d 	mov	r0, sp
    54c0:	ebfffe4b 	bl	0x4df4
    54c4:	e3500000 	cmp	r0, #0
    54c8:	0affffe6 	beq	0x5468
    54cc:	e3a04009 	mov	r4, #9
    54d0:	e28d0058 	add	r0, sp, #88	; 0x58
    54d4:	ebfffe90 	bl	0x4f1c
    54d8:	e1a00004 	mov	r0, r4
    54dc:	e28ddf8e 	add	sp, sp, #568	; 0x238
    54e0:	e8bd4070 	pop	{r4, r5, r6, lr}
    54e4:	e12fff1e 	bx	lr
    54e8:	e92d4ff0 	push	{r4, r5, r6, r7, r8, r9, sl, fp, lr}
    54ec:	e591404c 	ldr	r4, [r1, #76]	; 0x4c
    54f0:	e1a05001 	mov	r5, r1
    54f4:	e4941004 	ldr	r1, [r4], #4
    54f8:	e24dd024 	sub	sp, sp, #36	; 0x24
    54fc:	e2538000 	subs	r8, r3, #0
    5500:	e1a06002 	mov	r6, r2
    5504:	e58d4018 	str	r4, [sp, #24]
    5508:	e2007003 	and	r7, r0, #3
    550c:	0a000065 	beq	0x56a8
    5510:	e3a02002 	mov	r2, #2
    5514:	e1a03821 	lsr	r3, r1, #16
    5518:	e1a01801 	lsl	r1, r1, #16
    551c:	e5cd301d 	strb	r3, [sp, #29]
    5520:	e58d1014 	str	r1, [sp, #20]
    5524:	e20330ff 	and	r3, r3, #255	; 0xff
    5528:	e5cd201c 	strb	r2, [sp, #28]
    552c:	e0844213 	add	r4, r4, r3, lsl r2
    5530:	e5953050 	ldr	r3, [r5, #80]	; 0x50
    5534:	e3570002 	cmp	r7, #2
    5538:	05954038 	ldreq	r4, [r5, #56]	; 0x38
    553c:	e2133001 	ands	r3, r3, #1
    5540:	1a000065 	bne	0x56dc
    5544:	e1a001a0 	lsr	r0, r0, #3
    5548:	e2200001 	eor	r0, r0, #1
    554c:	e58d3004 	str	r3, [sp, #4]
    5550:	e2003001 	and	r3, r0, #1
    5554:	e58d3008 	str	r3, [sp, #8]
    5558:	e594b000 	ldr	fp, [r4]
    555c:	e35b0000 	cmp	fp, #0
    5560:	0a0000df 	beq	0x58e4
    5564:	e3580002 	cmp	r8, #2
    5568:	0594a004 	ldreq	sl, [r4, #4]
    556c:	11d4a0b2 	ldrhne	sl, [r4, #2]
    5570:	e5953048 	ldr	r3, [r5, #72]	; 0x48
    5574:	e3ca9001 	bic	r9, sl, #1
    5578:	e3a0100f 	mov	r1, #15
    557c:	e1a00006 	mov	r0, r6
    5580:	11d4b0b0 	ldrhne	fp, [r4]
    5584:	e0899003 	add	r9, r9, r3
    5588:	02844008 	addeq	r4, r4, #8
    558c:	12844004 	addne	r4, r4, #4
    5590:	ebffff6f 	bl	0x5354
    5594:	e1a0308a 	lsl	r3, sl, #1
    5598:	e2033002 	and	r3, r3, #2
    559c:	e20b2001 	and	r2, fp, #1
    55a0:	e1590000 	cmp	r9, r0
    55a4:	e1833002 	orr	r3, r3, r2
    55a8:	8a00002b 	bhi	0x565c
    55ac:	e3cbb001 	bic	fp, fp, #1
    55b0:	e08b9009 	add	r9, fp, r9
    55b4:	e1590000 	cmp	r9, r0
    55b8:	9a000027 	bls	0x565c
    55bc:	e3530001 	cmp	r3, #1
    55c0:	0a00006b 	beq	0x5774
    55c4:	e3530000 	cmp	r3, #0
    55c8:	0a00003b 	beq	0x56bc
    55cc:	e3530002 	cmp	r3, #2
    55d0:	1a000030 	bne	0x5698
    55d4:	e5943000 	ldr	r3, [r4]
    55d8:	e3570000 	cmp	r7, #0
    55dc:	e3c39102 	bic	r9, r3, #-2147483648	; 0x80000000
    55e0:	1a000046 	bne	0x5700
    55e4:	e3590000 	cmp	r9, #0
    55e8:	e59d2008 	ldr	r2, [sp, #8]
    55ec:	03a02001 	moveq	r2, #1
    55f0:	e3520000 	cmp	r2, #0
    55f4:	0a000022 	beq	0x5684
    55f8:	e3590000 	cmp	r9, #0
    55fc:	0a0000a2 	beq	0x588c
    5600:	e2853058 	add	r3, r5, #88	; 0x58
    5604:	e1a0a007 	mov	sl, r7
    5608:	e58d700c 	str	r7, [sp, #12]
    560c:	e284b004 	add	fp, r4, #4
    5610:	e1a07003 	mov	r7, r3
    5614:	ea000002 	b	0x5624
    5618:	e15a0009 	cmp	sl, r9
    561c:	e28bb004 	add	fp, fp, #4
    5620:	0a000099 	beq	0x588c
    5624:	e1a0000b 	mov	r0, fp
    5628:	e58d7010 	str	r7, [sp, #16]
    562c:	ebfffe5e 	bl	0x4fac
    5630:	e28d3010 	add	r3, sp, #16
    5634:	e1a01000 	mov	r1, r0
    5638:	e3a02000 	mov	r2, #0
    563c:	e1a00005 	mov	r0, r5
    5640:	e1a00000 	nop			; (mov r0, r0)
    5644:	e3500000 	cmp	r0, #0
    5648:	e28aa001 	add	sl, sl, #1
    564c:	0afffff1 	beq	0x5618
    5650:	e59d700c 	ldr	r7, [sp, #12]
    5654:	e5943000 	ldr	r3, [r4]
    5658:	ea000009 	b	0x5684
    565c:	e3530001 	cmp	r3, #1
    5660:	0a000019 	beq	0x56cc
    5664:	e3530000 	cmp	r3, #0
    5668:	0a000015 	beq	0x56c4
    566c:	e3530002 	cmp	r3, #2
    5670:	1a000008 	bne	0x5698
    5674:	e5943000 	ldr	r3, [r4]
    5678:	e3570000 	cmp	r7, #0
    567c:	e3c39102 	bic	r9, r3, #-2147483648	; 0x80000000
    5680:	1a00001e 	bne	0x5700
    5684:	e3530000 	cmp	r3, #0
    5688:	b2844004 	addlt	r4, r4, #4
    568c:	e2899001 	add	r9, r9, #1
    5690:	e0844109 	add	r4, r4, r9, lsl #2
    5694:	eaffffaf 	b	0x5558
    5698:	e3a00009 	mov	r0, #9
    569c:	e28dd024 	add	sp, sp, #36	; 0x24
    56a0:	e8bd4ff0 	pop	{r4, r5, r6, r7, r8, r9, sl, fp, lr}
    56a4:	e12fff1e 	bx	lr
    56a8:	e3a03003 	mov	r3, #3
    56ac:	e1a01401 	lsl	r1, r1, #8
    56b0:	e58d1014 	str	r1, [sp, #20]
    56b4:	e1cd31bc 	strh	r3, [sp, #28]
    56b8:	eaffff9c 	b	0x5530
    56bc:	e3570000 	cmp	r7, #0
    56c0:	1a00004b 	bne	0x57f4
    56c4:	e2844004 	add	r4, r4, #4
    56c8:	eaffffa2 	b	0x5558
    56cc:	e3570000 	cmp	r7, #0
    56d0:	1a000012 	bne	0x5720
    56d4:	e2844008 	add	r4, r4, #8
    56d8:	eaffff9e 	b	0x5558
    56dc:	e1a00006 	mov	r0, r6
    56e0:	e28d1014 	add	r1, sp, #20
    56e4:	eb0001b0 	bl	0x5dac
    56e8:	e3500000 	cmp	r0, #0
    56ec:	1affffe9 	bne	0x5698
    56f0:	e3a00008 	mov	r0, #8
    56f4:	e28dd024 	add	sp, sp, #36	; 0x24
    56f8:	e8bd4ff0 	pop	{r4, r5, r6, r7, r8, r9, sl, fp, lr}
    56fc:	e12fff1e 	bx	lr
    5700:	e3a0100d 	mov	r1, #13
    5704:	e1a00006 	mov	r0, r6
    5708:	e595a020 	ldr	sl, [r5, #32]
    570c:	ebffff10 	bl	0x5354
    5710:	e15a0000 	cmp	sl, r0
    5714:	0a000045 	beq	0x5830
    5718:	e5943000 	ldr	r3, [r4]
    571c:	eaffffd8 	b	0x5684
    5720:	e3a0100d 	mov	r1, #13
    5724:	e1a00006 	mov	r0, r6
    5728:	e5959020 	ldr	r9, [r5, #32]
    572c:	ebffff08 	bl	0x5354
    5730:	e1590000 	cmp	r9, r0
    5734:	1affffe6 	bne	0x56d4
    5738:	e5953028 	ldr	r3, [r5, #40]	; 0x28
    573c:	e1540003 	cmp	r4, r3
    5740:	1affffe3 	bne	0x56d4
    5744:	e1a00004 	mov	r0, r4
    5748:	ebfffd6d 	bl	0x4d04
    574c:	e3a0100f 	mov	r1, #15
    5750:	e1a02000 	mov	r2, r0
    5754:	e1a00006 	mov	r0, r6
    5758:	ebffff23 	bl	0x53ec
    575c:	e1a00006 	mov	r0, r6
    5760:	e1a02005 	mov	r2, r5
    5764:	e3a01000 	mov	r1, #0
    5768:	ebffff1f 	bl	0x53ec
    576c:	e3a00007 	mov	r0, #7
    5770:	eaffffc9 	b	0x569c
    5774:	e3570000 	cmp	r7, #0
    5778:	1affffe8 	bne	0x5720
    577c:	e894000c 	ldm	r4, {r2, r3}
    5780:	e3730002 	cmn	r3, #2
    5784:	e1a02fa2 	lsr	r2, r2, #31
    5788:	0affffc2 	beq	0x5698
    578c:	e3730001 	cmn	r3, #1
    5790:	e2853058 	add	r3, r5, #88	; 0x58
    5794:	e58d3010 	str	r3, [sp, #16]
    5798:	0a000034 	beq	0x5870
    579c:	e2840004 	add	r0, r4, #4
    57a0:	ebfffe01 	bl	0x4fac
    57a4:	e28d3010 	add	r3, sp, #16
    57a8:	e1a01000 	mov	r1, r0
    57ac:	e1a00005 	mov	r0, r5
    57b0:	e1a00000 	nop			; (mov r0, r0)
    57b4:	e3500000 	cmp	r0, #0
    57b8:	0affffc5 	beq	0x56d4
    57bc:	e1a09000 	mov	r9, r0
    57c0:	e3a0100d 	mov	r1, #13
    57c4:	e1a00006 	mov	r0, r6
    57c8:	ebfffee1 	bl	0x5354
    57cc:	e3590002 	cmp	r9, #2
    57d0:	e5850020 	str	r0, [r5, #32]
    57d4:	1a000029 	bne	0x5880
    57d8:	e1a03005 	mov	r3, r5
    57dc:	e59d2010 	ldr	r2, [sp, #16]
    57e0:	e5a3202c 	str	r2, [r3, #44]!	; 0x2c
    57e4:	e5853024 	str	r3, [r5, #36]	; 0x24
    57e8:	e5854028 	str	r4, [r5, #40]	; 0x28
    57ec:	e3a00006 	mov	r0, #6
    57f0:	eaffffa9 	b	0x569c
    57f4:	e1a00004 	mov	r0, r4
    57f8:	ebfffd41 	bl	0x4d04
    57fc:	e2844004 	add	r4, r4, #4
    5800:	e1a07000 	mov	r7, r0
    5804:	e5854038 	str	r4, [r5, #56]	; 0x38
    5808:	e1a00005 	mov	r0, r5
    580c:	e1a00000 	nop			; (mov r0, r0)
    5810:	e3500000 	cmp	r0, #0
    5814:	0affff9f 	beq	0x5698
    5818:	e1a00006 	mov	r0, r6
    581c:	e1a02007 	mov	r2, r7
    5820:	e3a0100f 	mov	r1, #15
    5824:	ebfffef0 	bl	0x53ec
    5828:	e3a00007 	mov	r0, #7
    582c:	eaffff9a 	b	0x569c
    5830:	e5953028 	ldr	r3, [r5, #40]	; 0x28
    5834:	e1540003 	cmp	r4, r3
    5838:	1affffb6 	bne	0x5718
    583c:	e3a02004 	mov	r2, #4
    5840:	e3a0a000 	mov	sl, #0
    5844:	e0843002 	add	r3, r4, r2
    5848:	e5859028 	str	r9, [r5, #40]	; 0x28
    584c:	e585a02c 	str	sl, [r5, #44]	; 0x2c
    5850:	e5852030 	str	r2, [r5, #48]	; 0x30
    5854:	e5853034 	str	r3, [r5, #52]	; 0x34
    5858:	e5943000 	ldr	r3, [r4]
    585c:	e153000a 	cmp	r3, sl
    5860:	ba000012 	blt	0x58b0
    5864:	e3a03001 	mov	r3, #1
    5868:	e58d3004 	str	r3, [sp, #4]
    586c:	eaffff86 	b	0x568c
    5870:	e1a00006 	mov	r0, r6
    5874:	e3a0100d 	mov	r1, #13
    5878:	ebfffeb5 	bl	0x5354
    587c:	e5850020 	str	r0, [r5, #32]
    5880:	e59d3010 	ldr	r3, [sp, #16]
    5884:	e5853024 	str	r3, [r5, #36]	; 0x24
    5888:	eaffffd6 	b	0x57e8
    588c:	e1a00006 	mov	r0, r6
    5890:	e3a0100d 	mov	r1, #13
    5894:	ebfffeae 	bl	0x5354
    5898:	e59d3010 	ldr	r3, [sp, #16]
    589c:	e5850020 	str	r0, [r5, #32]
    58a0:	e5854028 	str	r4, [r5, #40]	; 0x28
    58a4:	e5853024 	str	r3, [r5, #36]	; 0x24
    58a8:	e3a00006 	mov	r0, #6
    58ac:	eaffff7a 	b	0x569c
    58b0:	e2890001 	add	r0, r9, #1
    58b4:	e0840100 	add	r0, r4, r0, lsl #2
    58b8:	ebfffd11 	bl	0x4d04
    58bc:	e3a0100f 	mov	r1, #15
    58c0:	e1a02000 	mov	r2, r0
    58c4:	e1a00006 	mov	r0, r6
    58c8:	ebfffec7 	bl	0x53ec
    58cc:	e1a00006 	mov	r0, r6
    58d0:	e1a02005 	mov	r2, r5
    58d4:	e1a0100a 	mov	r1, sl
    58d8:	ebfffec3 	bl	0x53ec
    58dc:	e3a00007 	mov	r0, #7
    58e0:	eaffff6d 	b	0x569c
    58e4:	e28d1014 	add	r1, sp, #20
    58e8:	e1a00006 	mov	r0, r6
    58ec:	eb00012e 	bl	0x5dac
    58f0:	e3500000 	cmp	r0, #0
    58f4:	1affff67 	bne	0x5698
    58f8:	e59d3004 	ldr	r3, [sp, #4]
    58fc:	e3530000 	cmp	r3, #0
    5900:	0affff7a 	beq	0x56f0
    5904:	e3a0100f 	mov	r1, #15
    5908:	e1a00006 	mov	r0, r6
    590c:	ebfffe90 	bl	0x5354
    5910:	e3a0100e 	mov	r1, #14
    5914:	e1a02000 	mov	r2, r0
    5918:	e1a00006 	mov	r0, r6
    591c:	ebfffeb2 	bl	0x53ec
    5920:	e1a00006 	mov	r0, r6
    5924:	e59f200c 	ldr	r2, [pc, #12]	; 0x5938
    5928:	e3a0100f 	mov	r1, #15
    592c:	ebfffeae 	bl	0x53ec
    5930:	e3a00007 	mov	r0, #7
    5934:	eaffff58 	b	0x569c
    5938:	00000000 	andeq	r0, r0, r0
    593c:	e3a03000 	mov	r3, #0
    5940:	eafffee8 	b	0x54e8
    5944:	e3a03001 	mov	r3, #1
    5948:	eafffee6 	b	0x54e8
    594c:	e3a03002 	mov	r3, #2
    5950:	eafffee4 	b	0x54e8
    5954:	e92d40f0 	push	{r4, r5, r6, r7, lr}
    5958:	e1a05000 	mov	r5, r0
    595c:	e24ddf45 	sub	sp, sp, #276	; 0x114
    5960:	e1a04002 	mov	r4, r2
    5964:	e3510004 	cmp	r1, #4
    5968:	979ff101 	ldrls	pc, [pc, r1, lsl #2]
    596c:	ea000096 	b	0x5bcc
    5970:	08005b74 	stmdaeq	r0, {r2, r4, r5, r6, r8, r9, fp, ip, lr}
    5974:	08005a70 	stmdaeq	r0, {r4, r5, r6, r9, fp, ip, lr}
    5978:	08005bcc 	stmdaeq	r0, {r2, r3, r6, r7, r8, r9, fp, ip, lr}
    597c:	080059e8 	stmdaeq	r0, {r3, r5, r6, r7, r8, fp, ip, lr}
    5980:	08005984 	stmdaeq	r0, {r2, r7, r8, fp, ip, lr}
    5984:	e3520010 	cmp	r2, #16
    5988:	93530000 	cmpls	r3, #0
    598c:	1a00008e 	bne	0x5bcc
    5990:	e5903000 	ldr	r3, [r0]
    5994:	e3130010 	tst	r3, #16
    5998:	1a00008f 	bne	0x5bdc
    599c:	e28d6088 	add	r6, sp, #136	; 0x88
    59a0:	e1a00006 	mov	r0, r6
    59a4:	ebfff9f7 	bl	0x4188
    59a8:	e3a03000 	mov	r3, #0
    59ac:	e3a01001 	mov	r1, #1
    59b0:	e5952038 	ldr	r2, [r5, #56]	; 0x38
    59b4:	e0140311 	ands	r0, r4, r1, lsl r3
    59b8:	14920004 	ldrne	r0, [r2], #4
    59bc:	17860103 	strne	r0, [r6, r3, lsl #2]
    59c0:	e2833001 	add	r3, r3, #1
    59c4:	e3530004 	cmp	r3, #4
    59c8:	1afffff9 	bne	0x59b4
    59cc:	e1a00006 	mov	r0, r6
    59d0:	e5852038 	str	r2, [r5, #56]	; 0x38
    59d4:	ebfff9e6 	bl	0x4174
    59d8:	e3a00000 	mov	r0, #0
    59dc:	e28ddf45 	add	sp, sp, #276	; 0x114
    59e0:	e8bd40f0 	pop	{r4, r5, r6, r7, lr}
    59e4:	e12fff1e 	bx	lr
    59e8:	e3530003 	cmp	r3, #3
    59ec:	1a000076 	bne	0x5bcc
    59f0:	e1a07802 	lsl	r7, r2, #16
    59f4:	e1a07827 	lsr	r7, r7, #16
    59f8:	e1a04822 	lsr	r4, r2, #16
    59fc:	e0843007 	add	r3, r4, r7
    5a00:	e3530010 	cmp	r3, #16
    5a04:	8a000070 	bhi	0x5bcc
    5a08:	e5903000 	ldr	r3, [r0]
    5a0c:	e3130008 	tst	r3, #8
    5a10:	1a00009b 	bne	0x5c84
    5a14:	e28d6088 	add	r6, sp, #136	; 0x88
    5a18:	e1a00006 	mov	r0, r6
    5a1c:	ebfff9c3 	bl	0x4130
    5a20:	e3570000 	cmp	r7, #0
    5a24:	e0864184 	add	r4, r6, r4, lsl #3
    5a28:	e595c038 	ldr	ip, [r5, #56]	; 0x38
    5a2c:	0a000008 	beq	0x5a54
    5a30:	e1a03004 	mov	r3, r4
    5a34:	e1a07187 	lsl	r7, r7, #3
    5a38:	e0841007 	add	r1, r4, r7
    5a3c:	e04c0004 	sub	r0, ip, r4
    5a40:	e7932000 	ldr	r2, [r3, r0]
    5a44:	e4832004 	str	r2, [r3], #4
    5a48:	e1530001 	cmp	r3, r1
    5a4c:	1afffffb 	bne	0x5a40
    5a50:	e08cc007 	add	ip, ip, r7
    5a54:	e1a00006 	mov	r0, r6
    5a58:	e585c038 	str	ip, [r5, #56]	; 0x38
    5a5c:	ebfff9a2 	bl	0x40ec
    5a60:	e3a00000 	mov	r0, #0
    5a64:	e28ddf45 	add	sp, sp, #276	; 0x114
    5a68:	e8bd40f0 	pop	{r4, r5, r6, r7, lr}
    5a6c:	e12fff1e 	bx	lr
    5a70:	e20320fb 	and	r2, r3, #251	; 0xfb
    5a74:	e1a06804 	lsl	r6, r4, #16
    5a78:	e3520001 	cmp	r2, #1
    5a7c:	e1a06826 	lsr	r6, r6, #16
    5a80:	e1a04824 	lsr	r4, r4, #16
    5a84:	1a000050 	bne	0x5bcc
    5a88:	e3530001 	cmp	r3, #1
    5a8c:	e0847006 	add	r7, r4, r6
    5a90:	0a00004b 	beq	0x5bc4
    5a94:	e3570020 	cmp	r7, #32
    5a98:	8a00004b 	bhi	0x5bcc
    5a9c:	e354000f 	cmp	r4, #15
    5aa0:	9a000067 	bls	0x5c44
    5aa4:	e3530005 	cmp	r3, #5
    5aa8:	13560000 	cmpne	r6, #0
    5aac:	e1a07006 	mov	r7, r6
    5ab0:	1a000045 	bne	0x5bcc
    5ab4:	e3570000 	cmp	r7, #0
    5ab8:	0a000082 	beq	0x5cc8
    5abc:	e5952000 	ldr	r2, [r5]
    5ac0:	e3120004 	tst	r2, #4
    5ac4:	1a000092 	bne	0x5d14
    5ac8:	e354000f 	cmp	r4, #15
    5acc:	9a000097 	bls	0x5d30
    5ad0:	e28d6008 	add	r6, sp, #8
    5ad4:	e1a00006 	mov	r0, r6
    5ad8:	e58d3004 	str	r3, [sp, #4]
    5adc:	ebfff980 	bl	0x40e4
    5ae0:	e2640010 	rsb	r0, r4, #16
    5ae4:	e5951038 	ldr	r1, [r5, #56]	; 0x38
    5ae8:	e3500000 	cmp	r0, #0
    5aec:	e59d3004 	ldr	r3, [sp, #4]
    5af0:	d1a00001 	movle	r0, r1
    5af4:	da00000a 	ble	0x5b24
    5af8:	e28d2e11 	add	r2, sp, #272	; 0x110
    5afc:	e082c184 	add	ip, r2, r4, lsl #3
    5b00:	e0810180 	add	r0, r1, r0, lsl #3
    5b04:	e24cc08c 	sub	ip, ip, #140	; 0x8c
    5b08:	e4912004 	ldr	r2, [r1], #4
    5b0c:	e1500001 	cmp	r0, r1
    5b10:	e5ac2004 	str	r2, [ip, #4]!
    5b14:	1afffffb 	bne	0x5b08
    5b18:	e3570000 	cmp	r7, #0
    5b1c:	0a00000a 	beq	0x5b4c
    5b20:	e28d6008 	add	r6, sp, #8
    5b24:	e3540010 	cmp	r4, #16
    5b28:	21a0c004 	movcs	ip, r4
    5b2c:	33a0c010 	movcc	ip, #16
    5b30:	e086c18c 	add	ip, r6, ip, lsl #3
    5b34:	e24cc084 	sub	ip, ip, #132	; 0x84
    5b38:	e0801187 	add	r1, r0, r7, lsl #3
    5b3c:	e4902004 	ldr	r2, [r0], #4
    5b40:	e1510000 	cmp	r1, r0
    5b44:	e5ac2004 	str	r2, [ip, #4]!
    5b48:	1afffffb 	bne	0x5b3c
    5b4c:	e3530001 	cmp	r3, #1
    5b50:	0a000065 	beq	0x5cec
    5b54:	e354000f 	cmp	r4, #15
    5b58:	e5851038 	str	r1, [r5, #56]	; 0x38
    5b5c:	9a000067 	bls	0x5d00
    5b60:	e3570000 	cmp	r7, #0
    5b64:	0a000012 	beq	0x5bb4
    5b68:	e28d0008 	add	r0, sp, #8
    5b6c:	ebfff95a 	bl	0x40dc
    5b70:	ea00000f 	b	0x5bb4
    5b74:	e3530000 	cmp	r3, #0
    5b78:	1a000013 	bne	0x5bcc
    5b7c:	e3a00001 	mov	r0, #1
    5b80:	e1a02802 	lsl	r2, r2, #16
    5b84:	e5951038 	ldr	r1, [r5, #56]	; 0x38
    5b88:	e1a02822 	lsr	r2, r2, #16
    5b8c:	e285e004 	add	lr, r5, #4
    5b90:	e012c310 	ands	ip, r2, r0, lsl r3
    5b94:	1491c004 	ldrne	ip, [r1], #4
    5b98:	178ec103 	strne	ip, [lr, r3, lsl #2]
    5b9c:	e2833001 	add	r3, r3, #1
    5ba0:	e3530010 	cmp	r3, #16
    5ba4:	1afffff9 	bne	0x5b90
    5ba8:	e2140a02 	ands	r0, r4, #8192	; 0x2000
    5bac:	05851038 	streq	r1, [r5, #56]	; 0x38
    5bb0:	0a000006 	beq	0x5bd0
    5bb4:	e3a00000 	mov	r0, #0
    5bb8:	e28ddf45 	add	sp, sp, #276	; 0x114
    5bbc:	e8bd40f0 	pop	{r4, r5, r6, r7, lr}
    5bc0:	e12fff1e 	bx	lr
    5bc4:	e3570010 	cmp	r7, #16
    5bc8:	9a000007 	bls	0x5bec
    5bcc:	e3a00002 	mov	r0, #2
    5bd0:	e28ddf45 	add	sp, sp, #276	; 0x114
    5bd4:	e8bd40f0 	pop	{r4, r5, r6, r7, lr}
    5bd8:	e12fff1e 	bx	lr
    5bdc:	e3c33010 	bic	r3, r3, #16
    5be0:	e48031d0 	str	r3, [r0], #464	; 0x1d0
    5be4:	ebfff967 	bl	0x4188
    5be8:	eaffff6b 	b	0x599c
    5bec:	e354000f 	cmp	r4, #15
    5bf0:	8afffff5 	bhi	0x5bcc
    5bf4:	e5902000 	ldr	r2, [r0]
    5bf8:	e3120001 	tst	r2, #1
    5bfc:	0a000005 	beq	0x5c18
    5c00:	e1a00005 	mov	r0, r5
    5c04:	e3c22003 	bic	r2, r2, #3
    5c08:	e4802048 	str	r2, [r0], #72	; 0x48
    5c0c:	e58d3004 	str	r3, [sp, #4]
    5c10:	ebfff92b 	bl	0x40c4
    5c14:	e59d3004 	ldr	r3, [sp, #4]
    5c18:	e28d0088 	add	r0, sp, #136	; 0x88
    5c1c:	e58d3004 	str	r3, [sp, #4]
    5c20:	ebfff927 	bl	0x40c4
    5c24:	e59d3004 	ldr	r3, [sp, #4]
    5c28:	e3560000 	cmp	r6, #0
    5c2c:	e1a00006 	mov	r0, r6
    5c30:	e5951038 	ldr	r1, [r5, #56]	; 0x38
    5c34:	01a07006 	moveq	r7, r6
    5c38:	0affffc3 	beq	0x5b4c
    5c3c:	e3a07000 	mov	r7, #0
    5c40:	eaffffac 	b	0x5af8
    5c44:	e3570010 	cmp	r7, #16
    5c48:	9a000011 	bls	0x5c94
    5c4c:	e3530005 	cmp	r3, #5
    5c50:	1affffdd 	bne	0x5bcc
    5c54:	e5952000 	ldr	r2, [r5]
    5c58:	e3120001 	tst	r2, #1
    5c5c:	e2477010 	sub	r7, r7, #16
    5c60:	13c22001 	bicne	r2, r2, #1
    5c64:	12850048 	addne	r0, r5, #72	; 0x48
    5c68:	0a000027 	beq	0x5d0c
    5c6c:	e3822002 	orr	r2, r2, #2
    5c70:	e5852000 	str	r2, [r5]
    5c74:	e58d3004 	str	r3, [sp, #4]
    5c78:	ebfff915 	bl	0x40d4
    5c7c:	e59d3004 	ldr	r3, [sp, #4]
    5c80:	eaffff8b 	b	0x5ab4
    5c84:	e3c33008 	bic	r3, r3, #8
    5c88:	e4803150 	str	r3, [r0], #336	; 0x150
    5c8c:	ebfff927 	bl	0x4130
    5c90:	eaffff5f 	b	0x5a14
    5c94:	e5951000 	ldr	r1, [r5]
    5c98:	e3110001 	tst	r1, #1
    5c9c:	0a000009 	beq	0x5cc8
    5ca0:	e1a00005 	mov	r0, r5
    5ca4:	e3c12001 	bic	r2, r1, #1
    5ca8:	e3530005 	cmp	r3, #5
    5cac:	e4802048 	str	r2, [r0], #72	; 0x48
    5cb0:	0a000023 	beq	0x5d44
    5cb4:	e3c11003 	bic	r1, r1, #3
    5cb8:	e5851000 	str	r1, [r5]
    5cbc:	e58d3004 	str	r3, [sp, #4]
    5cc0:	ebfff8ff 	bl	0x40c4
    5cc4:	e59d3004 	ldr	r3, [sp, #4]
    5cc8:	e3530001 	cmp	r3, #1
    5ccc:	0affffd1 	beq	0x5c18
    5cd0:	e354000f 	cmp	r4, #15
    5cd4:	8affffd3 	bhi	0x5c28
    5cd8:	e28d0088 	add	r0, sp, #136	; 0x88
    5cdc:	e58d3004 	str	r3, [sp, #4]
    5ce0:	ebfff8fb 	bl	0x40d4
    5ce4:	e59d3004 	ldr	r3, [sp, #4]
    5ce8:	eaffffce 	b	0x5c28
    5cec:	e2811004 	add	r1, r1, #4
    5cf0:	e5851038 	str	r1, [r5, #56]	; 0x38
    5cf4:	e28d0088 	add	r0, sp, #136	; 0x88
    5cf8:	ebfff8ef 	bl	0x40bc
    5cfc:	eaffffac 	b	0x5bb4
    5d00:	e28d0088 	add	r0, sp, #136	; 0x88
    5d04:	ebfff8f0 	bl	0x40cc
    5d08:	eaffff94 	b	0x5b60
    5d0c:	e3120004 	tst	r2, #4
    5d10:	0a000006 	beq	0x5d30
    5d14:	e1a00005 	mov	r0, r5
    5d18:	e3c22004 	bic	r2, r2, #4
    5d1c:	e48020d0 	str	r2, [r0], #208	; 0xd0
    5d20:	e58d3004 	str	r3, [sp, #4]
    5d24:	ebfff8ee 	bl	0x40e4
    5d28:	e59d3004 	ldr	r3, [sp, #4]
    5d2c:	eaffff65 	b	0x5ac8
    5d30:	e28d0088 	add	r0, sp, #136	; 0x88
    5d34:	e58d3004 	str	r3, [sp, #4]
    5d38:	ebfff8e5 	bl	0x40d4
    5d3c:	e59d3004 	ldr	r3, [sp, #4]
    5d40:	eaffff62 	b	0x5ad0
    5d44:	e3a07000 	mov	r7, #0
    5d48:	eaffffc7 	b	0x5c6c
    5d4c:	e5d03008 	ldrb	r3, [r0, #8]
    5d50:	e3530000 	cmp	r3, #0
    5d54:	1a00000e 	bne	0x5d94
    5d58:	e5d03009 	ldrb	r3, [r0, #9]
    5d5c:	e3530000 	cmp	r3, #0
    5d60:	0a00000f 	beq	0x5da4
    5d64:	e3a01003 	mov	r1, #3
    5d68:	e5902004 	ldr	r2, [r0, #4]
    5d6c:	e2433001 	sub	r3, r3, #1
    5d70:	e5c03009 	strb	r3, [r0, #9]
    5d74:	e282c004 	add	ip, r2, #4
    5d78:	e5923000 	ldr	r3, [r2]
    5d7c:	e580c004 	str	ip, [r0, #4]
    5d80:	e5c01008 	strb	r1, [r0, #8]
    5d84:	e1a02403 	lsl	r2, r3, #8
    5d88:	e5802000 	str	r2, [r0]
    5d8c:	e1a00c23 	lsr	r0, r3, #24
    5d90:	e12fff1e 	bx	lr
    5d94:	e2433001 	sub	r3, r3, #1
    5d98:	e5c03008 	strb	r3, [r0, #8]
    5d9c:	e5903000 	ldr	r3, [r0]
    5da0:	eafffff7 	b	0x5d84
    5da4:	e3a000b0 	mov	r0, #176	; 0xb0
    5da8:	e12fff1e 	bx	lr
    5dac:	e92d47f0 	push	{r4, r5, r6, r7, r8, r9, sl, lr}
    5db0:	e1a06000 	mov	r6, r0
    5db4:	e1a05001 	mov	r5, r1
    5db8:	e3a07000 	mov	r7, #0
    5dbc:	e59f83b8 	ldr	r8, [pc, #952]	; 0x617c
    5dc0:	e24dd010 	sub	sp, sp, #16
    5dc4:	e1a00005 	mov	r0, r5
    5dc8:	ebffffdf 	bl	0x5d4c
    5dcc:	e35000b0 	cmp	r0, #176	; 0xb0
    5dd0:	e1a04000 	mov	r4, r0
    5dd4:	0a000083 	beq	0x5fe8
    5dd8:	e3100080 	tst	r0, #128	; 0x80
    5ddc:	0a00001a 	beq	0x5e4c
    5de0:	e20030f0 	and	r3, r0, #240	; 0xf0
    5de4:	e3530080 	cmp	r3, #128	; 0x80
    5de8:	0a00003e 	beq	0x5ee8
    5dec:	e3530090 	cmp	r3, #144	; 0x90
    5df0:	0a00002b 	beq	0x5ea4
    5df4:	e35300a0 	cmp	r3, #160	; 0xa0
    5df8:	0a00004b 	beq	0x5f2c
    5dfc:	e35300b0 	cmp	r3, #176	; 0xb0
    5e00:	0a000057 	beq	0x5f64
    5e04:	e35300c0 	cmp	r3, #192	; 0xc0
    5e08:	0a000063 	beq	0x5f9c
    5e0c:	e20030f8 	and	r3, r0, #248	; 0xf8
    5e10:	e35300d0 	cmp	r3, #208	; 0xd0
    5e14:	1a000008 	bne	0x5e3c
    5e18:	e2002007 	and	r2, r0, #7
    5e1c:	e2822001 	add	r2, r2, #1
    5e20:	e3822702 	orr	r2, r2, #524288	; 0x80000
    5e24:	e3a03005 	mov	r3, #5
    5e28:	e3a01001 	mov	r1, #1
    5e2c:	e1a00006 	mov	r0, r6
    5e30:	ebfffec7 	bl	0x5954
    5e34:	e3500000 	cmp	r0, #0
    5e38:	0affffe1 	beq	0x5dc4
    5e3c:	e3a00009 	mov	r0, #9
    5e40:	e28dd010 	add	sp, sp, #16
    5e44:	e8bd47f0 	pop	{r4, r5, r6, r7, r8, r9, sl, lr}
    5e48:	e12fff1e 	bx	lr
    5e4c:	e3a03000 	mov	r3, #0
    5e50:	e28d900c 	add	r9, sp, #12
    5e54:	e1a0c100 	lsl	ip, r0, #2
    5e58:	e20cc0ff 	and	ip, ip, #255	; 0xff
    5e5c:	e1a01003 	mov	r1, r3
    5e60:	e58d9000 	str	r9, [sp]
    5e64:	e3a0200d 	mov	r2, #13
    5e68:	e1a00006 	mov	r0, r6
    5e6c:	e28ca004 	add	sl, ip, #4
    5e70:	ebfffd1d 	bl	0x52ec
    5e74:	e3a03000 	mov	r3, #0
    5e78:	e59dc00c 	ldr	ip, [sp, #12]
    5e7c:	e3140040 	tst	r4, #64	; 0x40
    5e80:	104cc00a 	subne	ip, ip, sl
    5e84:	008ac00c 	addeq	ip, sl, ip
    5e88:	e58d9000 	str	r9, [sp]
    5e8c:	e1a01003 	mov	r1, r3
    5e90:	e3a0200d 	mov	r2, #13
    5e94:	e1a00006 	mov	r0, r6
    5e98:	e58dc00c 	str	ip, [sp, #12]
    5e9c:	ebfffd38 	bl	0x5384
    5ea0:	eaffffc7 	b	0x5dc4
    5ea4:	e200300d 	and	r3, r0, #13
    5ea8:	e353000d 	cmp	r3, #13
    5eac:	0affffe2 	beq	0x5e3c
    5eb0:	e3a03000 	mov	r3, #0
    5eb4:	e28d900c 	add	r9, sp, #12
    5eb8:	e200200f 	and	r2, r0, #15
    5ebc:	e1a01003 	mov	r1, r3
    5ec0:	e58d9000 	str	r9, [sp]
    5ec4:	e1a00006 	mov	r0, r6
    5ec8:	ebfffd07 	bl	0x52ec
    5ecc:	e3a03000 	mov	r3, #0
    5ed0:	e58d9000 	str	r9, [sp]
    5ed4:	e1a01003 	mov	r1, r3
    5ed8:	e3a0200d 	mov	r2, #13
    5edc:	e1a00006 	mov	r0, r6
    5ee0:	ebfffd27 	bl	0x5384
    5ee4:	eaffffb6 	b	0x5dc4
    5ee8:	e1a00005 	mov	r0, r5
    5eec:	ebffff96 	bl	0x5d4c
    5ef0:	e1a04404 	lsl	r4, r4, #8
    5ef4:	e1804004 	orr	r4, r0, r4
    5ef8:	e3540902 	cmp	r4, #32768	; 0x8000
    5efc:	0affffce 	beq	0x5e3c
    5f00:	e3a03000 	mov	r3, #0
    5f04:	e1a04204 	lsl	r4, r4, #4
    5f08:	e0042008 	and	r2, r4, r8
    5f0c:	e1a01003 	mov	r1, r3
    5f10:	e1a00006 	mov	r0, r6
    5f14:	ebfffe8e 	bl	0x5954
    5f18:	e3500000 	cmp	r0, #0
    5f1c:	1affffc6 	bne	0x5e3c
    5f20:	e3140902 	tst	r4, #32768	; 0x8000
    5f24:	13a07001 	movne	r7, #1
    5f28:	eaffffa5 	b	0x5dc4
    5f2c:	e1e03000 	mvn	r3, r0
    5f30:	e3a02eff 	mov	r2, #4080	; 0xff0
    5f34:	e2033007 	and	r3, r3, #7
    5f38:	e1a02352 	asr	r2, r2, r3
    5f3c:	e3a03000 	mov	r3, #0
    5f40:	e3100008 	tst	r0, #8
    5f44:	e2022eff 	and	r2, r2, #4080	; 0xff0
    5f48:	13822901 	orrne	r2, r2, #16384	; 0x4000
    5f4c:	e1a01003 	mov	r1, r3
    5f50:	e1a00006 	mov	r0, r6
    5f54:	ebfffe7e 	bl	0x5954
    5f58:	e3500000 	cmp	r0, #0
    5f5c:	0affff98 	beq	0x5dc4
    5f60:	eaffffb5 	b	0x5e3c
    5f64:	e35000b1 	cmp	r0, #177	; 0xb1
    5f68:	0a000030 	beq	0x6030
    5f6c:	e35000b2 	cmp	r0, #178	; 0xb2
    5f70:	0a000060 	beq	0x60f8
    5f74:	e35000b3 	cmp	r0, #179	; 0xb3
    5f78:	0a000033 	beq	0x604c
    5f7c:	e20030fc 	and	r3, r0, #252	; 0xfc
    5f80:	e35300b4 	cmp	r3, #180	; 0xb4
    5f84:	0affffac 	beq	0x5e3c
    5f88:	e3a03001 	mov	r3, #1
    5f8c:	e2002007 	and	r2, r0, #7
    5f90:	e0822003 	add	r2, r2, r3
    5f94:	e3822702 	orr	r2, r2, #524288	; 0x80000
    5f98:	eaffffeb 	b	0x5f4c
    5f9c:	e35000c6 	cmp	r0, #198	; 0xc6
    5fa0:	0a000032 	beq	0x6070
    5fa4:	e35000c7 	cmp	r0, #199	; 0xc7
    5fa8:	0a000039 	beq	0x6094
    5fac:	e20030f8 	and	r3, r0, #248	; 0xf8
    5fb0:	e35300c0 	cmp	r3, #192	; 0xc0
    5fb4:	0a000042 	beq	0x60c4
    5fb8:	e35000c8 	cmp	r0, #200	; 0xc8
    5fbc:	0a000045 	beq	0x60d8
    5fc0:	e35000c9 	cmp	r0, #201	; 0xc9
    5fc4:	1affff9c 	bne	0x5e3c
    5fc8:	e1a00005 	mov	r0, r5
    5fcc:	ebffff5e 	bl	0x5d4c
    5fd0:	e1a02600 	lsl	r2, r0, #12
    5fd4:	e200000f 	and	r0, r0, #15
    5fd8:	e202280f 	and	r2, r2, #983040	; 0xf0000
    5fdc:	e2800001 	add	r0, r0, #1
    5fe0:	e1802002 	orr	r2, r0, r2
    5fe4:	eaffff8e 	b	0x5e24
    5fe8:	e3570000 	cmp	r7, #0
    5fec:	13a00000 	movne	r0, #0
    5ff0:	1affff92 	bne	0x5e40
    5ff4:	e28d400c 	add	r4, sp, #12
    5ff8:	e1a03007 	mov	r3, r7
    5ffc:	e3a0200e 	mov	r2, #14
    6000:	e1a01007 	mov	r1, r7
    6004:	e58d4000 	str	r4, [sp]
    6008:	e1a00006 	mov	r0, r6
    600c:	ebfffcb6 	bl	0x52ec
    6010:	e58d4000 	str	r4, [sp]
    6014:	e1a00006 	mov	r0, r6
    6018:	e1a03007 	mov	r3, r7
    601c:	e3a0200f 	mov	r2, #15
    6020:	e1a01007 	mov	r1, r7
    6024:	ebfffcd6 	bl	0x5384
    6028:	e1a00007 	mov	r0, r7
    602c:	eaffff83 	b	0x5e40
    6030:	e1a00005 	mov	r0, r5
    6034:	ebffff44 	bl	0x5d4c
    6038:	e2502000 	subs	r2, r0, #0
    603c:	0affff7e 	beq	0x5e3c
    6040:	e21230f0 	ands	r3, r2, #240	; 0xf0
    6044:	0affffc0 	beq	0x5f4c
    6048:	eaffff7b 	b	0x5e3c
    604c:	e1a00005 	mov	r0, r5
    6050:	ebffff3d 	bl	0x5d4c
    6054:	e3a03001 	mov	r3, #1
    6058:	e1a02600 	lsl	r2, r0, #12
    605c:	e200000f 	and	r0, r0, #15
    6060:	e202180f 	and	r1, r2, #983040	; 0xf0000
    6064:	e0802003 	add	r2, r0, r3
    6068:	e1822001 	orr	r2, r2, r1
    606c:	eaffffb6 	b	0x5f4c
    6070:	e1a00005 	mov	r0, r5
    6074:	ebffff34 	bl	0x5d4c
    6078:	e1a02600 	lsl	r2, r0, #12
    607c:	e200000f 	and	r0, r0, #15
    6080:	e202180f 	and	r1, r2, #983040	; 0xf0000
    6084:	e2802001 	add	r2, r0, #1
    6088:	e3a03003 	mov	r3, #3
    608c:	e1822001 	orr	r2, r2, r1
    6090:	eaffffad 	b	0x5f4c
    6094:	e1a00005 	mov	r0, r5
    6098:	ebffff2b 	bl	0x5d4c
    609c:	e2502000 	subs	r2, r0, #0
    60a0:	0affff65 	beq	0x5e3c
    60a4:	e21230f0 	ands	r3, r2, #240	; 0xf0
    60a8:	1affff63 	bne	0x5e3c
    60ac:	e3a01004 	mov	r1, #4
    60b0:	e1a00006 	mov	r0, r6
    60b4:	ebfffe26 	bl	0x5954
    60b8:	e3500000 	cmp	r0, #0
    60bc:	0affff40 	beq	0x5dc4
    60c0:	eaffff5d 	b	0x5e3c
    60c4:	e200200f 	and	r2, r0, #15
    60c8:	e2822001 	add	r2, r2, #1
    60cc:	e3a03003 	mov	r3, #3
    60d0:	e382280a 	orr	r2, r2, #655360	; 0xa0000
    60d4:	eaffff9c 	b	0x5f4c
    60d8:	e1a00005 	mov	r0, r5
    60dc:	ebffff1a 	bl	0x5d4c
    60e0:	e20020f0 	and	r2, r0, #240	; 0xf0
    60e4:	e200300f 	and	r3, r0, #15
    60e8:	e2822010 	add	r2, r2, #16
    60ec:	e2833001 	add	r3, r3, #1
    60f0:	e1832602 	orr	r2, r3, r2, lsl #12
    60f4:	eaffff4a 	b	0x5e24
    60f8:	e3a03000 	mov	r3, #0
    60fc:	e28d900c 	add	r9, sp, #12
    6100:	e1a01003 	mov	r1, r3
    6104:	e3a0200d 	mov	r2, #13
    6108:	e58d9000 	str	r9, [sp]
    610c:	e1a00006 	mov	r0, r6
    6110:	ebfffc75 	bl	0x52ec
    6114:	e1a00005 	mov	r0, r5
    6118:	ebffff0b 	bl	0x5d4c
    611c:	e3100080 	tst	r0, #128	; 0x80
    6120:	e3a04002 	mov	r4, #2
    6124:	0a000008 	beq	0x614c
    6128:	e59d300c 	ldr	r3, [sp, #12]
    612c:	e200007f 	and	r0, r0, #127	; 0x7f
    6130:	e0833410 	add	r3, r3, r0, lsl r4
    6134:	e1a00005 	mov	r0, r5
    6138:	e58d300c 	str	r3, [sp, #12]
    613c:	ebffff02 	bl	0x5d4c
    6140:	e3100080 	tst	r0, #128	; 0x80
    6144:	e2844007 	add	r4, r4, #7
    6148:	1afffff6 	bne	0x6128
    614c:	e3a03000 	mov	r3, #0
    6150:	e59d200c 	ldr	r2, [sp, #12]
    6154:	e200007f 	and	r0, r0, #127	; 0x7f
    6158:	e2822f81 	add	r2, r2, #516	; 0x204
    615c:	e0824410 	add	r4, r2, r0, lsl r4
    6160:	e58d9000 	str	r9, [sp]
    6164:	e1a01003 	mov	r1, r3
    6168:	e3a0200d 	mov	r2, #13
    616c:	e1a00006 	mov	r0, r6
    6170:	e58d400c 	str	r4, [sp, #12]
    6174:	ebfffc82 	bl	0x5384
    6178:	eaffff11 	b	0x5dc4
    617c:	0000ffff 			; <UNDEFINED> instruction: 0x0000ffff
    6180:	e92d4010 	push	{r4, lr}
    6184:	e3a00006 	mov	r0, #6
    6188:	eb000090 	bl	0x63d0
    618c:	e3a00001 	mov	r0, #1
    6190:	eb00009c 	bl	0x6408
    6194:	e92d4070 	push	{r4, r5, r6, lr}
    6198:	e59f606c 	ldr	r6, [pc, #108]	; 0x620c
    619c:	e59f506c 	ldr	r5, [pc, #108]	; 0x6210
    61a0:	e0466005 	sub	r6, r6, r5
    61a4:	e1b06146 	asrs	r6, r6, #2
    61a8:	0a000007 	beq	0x61cc
    61ac:	e3a04000 	mov	r4, #0
    61b0:	e2455004 	sub	r5, r5, #4
    61b4:	e2844001 	add	r4, r4, #1
    61b8:	e5b53004 	ldr	r3, [r5, #4]!
    61bc:	e1a0e00f 	mov	lr, pc
    61c0:	e12fff13 	bx	r3
    61c4:	e1560004 	cmp	r6, r4
    61c8:	1afffff9 	bne	0x61b4
    61cc:	e59f6040 	ldr	r6, [pc, #64]	; 0x6214
    61d0:	e59f5040 	ldr	r5, [pc, #64]	; 0x6218
    61d4:	e0466005 	sub	r6, r6, r5
    61d8:	ebffe80c 	bl	0x210
    61dc:	e1b06146 	asrs	r6, r6, #2
    61e0:	0a000007 	beq	0x6204
    61e4:	e3a04000 	mov	r4, #0
    61e8:	e2455004 	sub	r5, r5, #4
    61ec:	e2844001 	add	r4, r4, #1
    61f0:	e5b53004 	ldr	r3, [r5, #4]!
    61f4:	e1a0e00f 	mov	lr, pc
    61f8:	e12fff13 	bx	r3
    61fc:	e1560004 	cmp	r6, r4
    6200:	1afffff9 	bne	0x61ec
    6204:	e8bd4070 	pop	{r4, r5, r6, lr}
    6208:	e12fff1e 	bx	lr
    620c:	03000858 	tsteq	r0, #88, 16	; 0x580000
    6210:	03000858 	tsteq	r0, #88, 16	; 0x580000
    6214:	0300085c 	tsteq	r0, #92, 16	; 0x5c0000
    6218:	03000858 	tsteq	r0, #88, 16	; 0x580000
    621c:	e352000f 	cmp	r2, #15
    6220:	9a000035 	bls	0x62fc
    6224:	e1803001 	orr	r3, r0, r1
    6228:	e3130003 	tst	r3, #3
    622c:	1a00003e 	bne	0x632c
    6230:	e92d41f0 	push	{r4, r5, r6, r7, r8, lr}
    6234:	e2428010 	sub	r8, r2, #16
    6238:	e1a08228 	lsr	r8, r8, #4
    623c:	e2817020 	add	r7, r1, #32
    6240:	e0877208 	add	r7, r7, r8, lsl #4
    6244:	e2813010 	add	r3, r1, #16
    6248:	e280c010 	add	ip, r0, #16
    624c:	e5136010 	ldr	r6, [r3, #-16]
    6250:	e513500c 	ldr	r5, [r3, #-12]
    6254:	e9134010 	ldmdb	r3, {r4, lr}
    6258:	e2833010 	add	r3, r3, #16
    625c:	e1530007 	cmp	r3, r7
    6260:	e50c6010 	str	r6, [ip, #-16]
    6264:	e50c500c 	str	r5, [ip, #-12]
    6268:	e90c4010 	stmdb	ip, {r4, lr}
    626c:	e28cc010 	add	ip, ip, #16
    6270:	1afffff5 	bne	0x624c
    6274:	e288c001 	add	ip, r8, #1
    6278:	e1a0c20c 	lsl	ip, ip, #4
    627c:	e312000c 	tst	r2, #12
    6280:	e202e00f 	and	lr, r2, #15
    6284:	e081100c 	add	r1, r1, ip
    6288:	01a0200e 	moveq	r2, lr
    628c:	e080c00c 	add	ip, r0, ip
    6290:	0a00000d 	beq	0x62cc
    6294:	e1a04001 	mov	r4, r1
    6298:	e24ee004 	sub	lr, lr, #4
    629c:	e1a0e12e 	lsr	lr, lr, #2
    62a0:	e08c610e 	add	r6, ip, lr, lsl #2
    62a4:	e24c3004 	sub	r3, ip, #4
    62a8:	e4945004 	ldr	r5, [r4], #4
    62ac:	e5a35004 	str	r5, [r3, #4]!
    62b0:	e1530006 	cmp	r3, r6
    62b4:	1afffffb 	bne	0x62a8
    62b8:	e28ee001 	add	lr, lr, #1
    62bc:	e1a0e10e 	lsl	lr, lr, #2
    62c0:	e08cc00e 	add	ip, ip, lr
    62c4:	e081100e 	add	r1, r1, lr
    62c8:	e2022003 	and	r2, r2, #3
    62cc:	e3520000 	cmp	r2, #0
    62d0:	e2422001 	sub	r2, r2, #1
    62d4:	12822001 	addne	r2, r2, #1
    62d8:	10813002 	addne	r3, r1, r2
    62dc:	124c2001 	subne	r2, ip, #1
    62e0:	0a000003 	beq	0x62f4
    62e4:	e4d1c001 	ldrb	ip, [r1], #1
    62e8:	e1510003 	cmp	r1, r3
    62ec:	e5e2c001 	strb	ip, [r2, #1]!
    62f0:	1afffffb 	bne	0x62e4
    62f4:	e8bd41f0 	pop	{r4, r5, r6, r7, r8, lr}
    62f8:	e12fff1e 	bx	lr
    62fc:	e3520000 	cmp	r2, #0
    6300:	e1a0c000 	mov	ip, r0
    6304:	e2422001 	sub	r2, r2, #1
    6308:	012fff1e 	bxeq	lr
    630c:	e2822001 	add	r2, r2, #1
    6310:	e0813002 	add	r3, r1, r2
    6314:	e24c2001 	sub	r2, ip, #1
    6318:	e4d1c001 	ldrb	ip, [r1], #1
    631c:	e1510003 	cmp	r1, r3
    6320:	e5e2c001 	strb	ip, [r2, #1]!
    6324:	1afffffb 	bne	0x6318
    6328:	e12fff1e 	bx	lr
    632c:	e2422001 	sub	r2, r2, #1
    6330:	e1a0c000 	mov	ip, r0
    6334:	eafffff4 	b	0x630c
    6338:	e351001f 	cmp	r1, #31
    633c:	e92d4070 	push	{r4, r5, r6, lr}
    6340:	83a03016 	movhi	r3, #22
    6344:	e1a05000 	mov	r5, r0
    6348:	83e00000 	mvnhi	r0, #0
    634c:	85853000 	strhi	r3, [r5]
    6350:	8a000014 	bhi	0x63a8
    6354:	e59522dc 	ldr	r2, [r5, #732]	; 0x2dc
    6358:	e3520000 	cmp	r2, #0
    635c:	e1a04001 	mov	r4, r1
    6360:	0a000012 	beq	0x63b0
    6364:	e7923101 	ldr	r3, [r2, r1, lsl #2]
    6368:	e3530000 	cmp	r3, #0
    636c:	0a00000f 	beq	0x63b0
    6370:	e3530001 	cmp	r3, #1
    6374:	03a00000 	moveq	r0, #0
    6378:	0a00000a 	beq	0x63a8
    637c:	e3730001 	cmn	r3, #1
    6380:	03a03016 	moveq	r3, #22
    6384:	03a00001 	moveq	r0, #1
    6388:	05853000 	streq	r3, [r5]
    638c:	0a000005 	beq	0x63a8
    6390:	e3a05000 	mov	r5, #0
    6394:	e1a00001 	mov	r0, r1
    6398:	e7825101 	str	r5, [r2, r1, lsl #2]
    639c:	e1a0e00f 	mov	lr, pc
    63a0:	e12fff13 	bx	r3
    63a4:	e1a00005 	mov	r0, r5
    63a8:	e8bd4070 	pop	{r4, r5, r6, lr}
    63ac:	e12fff1e 	bx	lr
    63b0:	e1a00005 	mov	r0, r5
    63b4:	eb00000b 	bl	0x63e8
    63b8:	e1a02004 	mov	r2, r4
    63bc:	e1a01000 	mov	r1, r0
    63c0:	e1a00005 	mov	r0, r5
    63c4:	eb00000b 	bl	0x63f8
    63c8:	e8bd4070 	pop	{r4, r5, r6, lr}
    63cc:	e12fff1e 	bx	lr
    63d0:	e92d4010 	push	{r4, lr}
    63d4:	e1a04000 	mov	r4, r0
    63d8:	eb000014 	bl	0x6430
    63dc:	e1a01004 	mov	r1, r4
    63e0:	e8bd4010 	pop	{r4, lr}
    63e4:	eaffffd3 	b	0x6338
    63e8:	e3a03058 	mov	r3, #88	; 0x58
    63ec:	e5803000 	str	r3, [r0]
    63f0:	e3e00000 	mvn	r0, #0
    63f4:	e12fff1e 	bx	lr
    63f8:	e3a03058 	mov	r3, #88	; 0x58
    63fc:	e5803000 	str	r3, [r0]
    6400:	e3e00000 	mvn	r0, #0
    6404:	e12fff1e 	bx	lr
    6408:	e59f301c 	ldr	r3, [pc, #28]	; 0x642c
    640c:	e5933004 	ldr	r3, [r3, #4]
    6410:	e3530000 	cmp	r3, #0
    6414:	0a000003 	beq	0x6428
    6418:	e92d4010 	push	{r4, lr}
    641c:	e1a0e00f 	mov	lr, pc
    6420:	e12fff13 	bx	r3
    6424:	eafffffe 	b	0x6424
    6428:	eafffffe 	b	0x6428
    642c:	0300010c 	tsteq	r0, #12, 2
    6430:	e59f3014 	ldr	r3, [pc, #20]	; 0x644c
    6434:	e5933034 	ldr	r3, [r3, #52]	; 0x34
    6438:	e3530000 	cmp	r3, #0
    643c:	112fff13 	bxne	r3
    6440:	e59f3008 	ldr	r3, [pc, #8]	; 0x6450
    6444:	e5930000 	ldr	r0, [r3]
    6448:	e12fff1e 	bx	lr
    644c:	0300010c 	tsteq	r0, #12, 2
    6450:	030003f4 	tsteq	r0, #244, 6	; 0xd0000003
    6454:	e1a0c00d 	mov	ip, sp
    6458:	e92ddff8 	push	{r3, r4, r5, r6, r7, r8, r9, sl, fp, ip, lr, pc}
    645c:	e24cb004 	sub	fp, ip, #4
    6460:	e24bd028 	sub	sp, fp, #40	; 0x28
    6464:	e89d6ff0 	ldm	sp, {r4, r5, r6, r7, r8, r9, sl, fp, sp, lr}
    6468:	e12fff1e 	bx	lr
    646c:	d76aa478 			; <UNDEFINED> instruction: 0xd76aa478
    6470:	e8c7b756 	stmia	r7, {r1, r2, r4, r6, r8, r9, sl, ip, sp, pc}^
    6474:	242070db 	strtcs	r7, [r0], #-219	; 0xffffff25
    6478:	c1bdceee 			; <UNDEFINED> instruction: 0xc1bdceee
    647c:	f57c0faf 			; <UNDEFINED> instruction: 0xf57c0faf
    6480:	4787c62a 	strmi	ip, [r7, sl, lsr #12]
    6484:	a8304613 	ldmdage	r0!, {r0, r1, r4, r9, sl, lr}
    6488:	fd469501 			; <UNDEFINED> instruction: 0xfd469501
    648c:	698098d8 	stmibvs	r0, {r3, r4, r6, r7, fp, ip, pc}
    6490:	8b44f7af 	blhi	0x1144354
    6494:	ffff5bb1 			; <UNDEFINED> instruction: 0xffff5bb1
    6498:	895cd7be 	ldmdbhi	ip, {r1, r2, r3, r4, r5, r7, r8, r9, sl, ip, lr, pc}^
    649c:	6b901122 	blvs	0xfe40a92c
    64a0:	fd987193 			; <UNDEFINED> instruction: 0xfd987193
    64a4:	a679438e 	ldrbtge	r4, [r9], -lr, lsl #7
    64a8:	49b40821 	ldmibmi	r4!, {r0, r5, fp}
    64ac:	f61e2562 			; <UNDEFINED> instruction: 0xf61e2562
    64b0:	c040b340 	subgt	fp, r0, r0, asr #6
    64b4:	265e5a51 			; <UNDEFINED> instruction: 0x265e5a51
    64b8:	e9b6c7aa 	ldmib	r6!, {r1, r3, r5, r7, r8, r9, sl, lr, pc}
    64bc:	d62f105d 			; <UNDEFINED> instruction: 0xd62f105d
    64c0:	02441453 	subeq	r1, r4, #1392508928	; 0x53000000
    64c4:	d8a1e681 	stmiale	r1!, {r0, r7, r9, sl, sp, lr, pc}
    64c8:	e7d3fbc8 	ldrb	pc, [r3, r8, asr #23]	; <UNPREDICTABLE>
    64cc:	21e1cde6 	mvncs	ip, r6, ror #27
    64d0:	c33707d6 	teqgt	r7, #56098816	; 0x3580000
    64d4:	f4d50d87 			; <UNDEFINED> instruction: 0xf4d50d87
    64d8:	455a14ed 	ldrbmi	r1, [sl, #-1261]	; 0xfffffb13
    64dc:	a9e3e905 	stmibge	r3!, {r0, r2, r8, fp, sp, lr, pc}^
    64e0:	fcefa3f8 			; <UNDEFINED> instruction: 0xfcefa3f8
    64e4:	676f02d9 			; <UNDEFINED> instruction: 0x676f02d9
    64e8:	8d2a4c8a 	stchi	12, cr4, [sl, #-552]!	; 0xfffffdd8
    64ec:	fffa3942 			; <UNDEFINED> instruction: 0xfffa3942
    64f0:	8771f681 	ldrbhi	pc, [r1, -r1, lsl #13]!	; <UNPREDICTABLE>
    64f4:	6d9d6122 	ldfvss	f6, [sp, #136]	; 0x88
    64f8:	fde5380c 			; <UNDEFINED> instruction: 0xfde5380c
    64fc:	a4beea44 	ldrtge	lr, [lr], #2628	; 0xa44
    6500:	4bdecfa9 	blmi	0xff7ba3ac
    6504:	f6bb4b60 			; <UNDEFINED> instruction: 0xf6bb4b60
    6508:	bebfbc70 	mrclt	12, 5, fp, cr15, cr0, {3}
    650c:	289b7ec6 	ldmcs	fp, {r1, r2, r6, r7, r9, sl, fp, ip, sp, lr}
    6510:	eaa127fa 	b	0xfe850500
    6514:	d4ef3085 	strbtle	r3, [pc], #133	; 0x651c
    6518:	04881d05 	streq	r1, [r8], #3333	; 0xd05
    651c:	d9d4d039 	ldmible	r4, {r0, r3, r4, r5, ip, lr, pc}^
    6520:	e6db99e5 	ldrb	r9, [fp], r5, ror #19
    6524:	1fa27cf8 	svcne	0x00a27cf8
    6528:	c4ac5665 	strtgt	r5, [ip], #1637	; 0x665
    652c:	f4292244 	vld1.16	{d2-d5}, [r9], r4
    6530:	432aff97 	msrmi	CPSR_fx, #604	; 0x25c
    6534:	ab9423a7 	blge	0xfe50f3d8
    6538:	fc93a039 			; <UNDEFINED> instruction: 0xfc93a039
    653c:	655b59c3 	ldrbvs	r5, [fp, #-2499]	; 0xfffff63d
    6540:	8f0ccc92 	svchi	0x000ccc92
    6544:	ffeff47d 			; <UNDEFINED> instruction: 0xffeff47d
    6548:	85845dd1 	strhi	r5, [r4, #3537]	; 0xdd1
    654c:	6fa87e4f 	svcvs	0x00a87e4f
    6550:	fe2ce6e0 			; <UNDEFINED> instruction: 0xfe2ce6e0
    6554:	a3014314 	tstge	r1, #20, 6	; 0x50000000
    6558:	4e0811a1 	adfmi<illegal precision>p	f1, f0, f1
    655c:	f7537e82 			; <UNDEFINED> instruction: 0xf7537e82
    6560:	bd3af235 	lfmlt	f7, 1, [sl, #-212]!	; 0xffffff2c
    6564:	2ad7d2bb 	bcs	0xff5fb058
    6568:	eb86d391 	bl	0xfe1bb3b4
    656c:	00000007 	andeq	r0, r0, r7
    6570:	0000000c 	andeq	r0, r0, ip
    6574:	00000011 	andeq	r0, r0, r1, lsl r0
    6578:	00000016 	andeq	r0, r0, r6, lsl r0
    657c:	00000007 	andeq	r0, r0, r7
    6580:	0000000c 	andeq	r0, r0, ip
    6584:	00000011 	andeq	r0, r0, r1, lsl r0
    6588:	00000016 	andeq	r0, r0, r6, lsl r0
    658c:	00000007 	andeq	r0, r0, r7
    6590:	0000000c 	andeq	r0, r0, ip
    6594:	00000011 	andeq	r0, r0, r1, lsl r0
    6598:	00000016 	andeq	r0, r0, r6, lsl r0
    659c:	00000007 	andeq	r0, r0, r7
    65a0:	0000000c 	andeq	r0, r0, ip
    65a4:	00000011 	andeq	r0, r0, r1, lsl r0
    65a8:	00000016 	andeq	r0, r0, r6, lsl r0
    65ac:	00000005 	andeq	r0, r0, r5
    65b0:	00000009 	andeq	r0, r0, r9
    65b4:	0000000e 	andeq	r0, r0, lr
    65b8:	00000014 	andeq	r0, r0, r4, lsl r0
    65bc:	00000005 	andeq	r0, r0, r5
    65c0:	00000009 	andeq	r0, r0, r9
    65c4:	0000000e 	andeq	r0, r0, lr
    65c8:	00000014 	andeq	r0, r0, r4, lsl r0
    65cc:	00000005 	andeq	r0, r0, r5
    65d0:	00000009 	andeq	r0, r0, r9
    65d4:	0000000e 	andeq	r0, r0, lr
    65d8:	00000014 	andeq	r0, r0, r4, lsl r0
    65dc:	00000005 	andeq	r0, r0, r5
    65e0:	00000009 	andeq	r0, r0, r9
    65e4:	0000000e 	andeq	r0, r0, lr
    65e8:	00000014 	andeq	r0, r0, r4, lsl r0
    65ec:	00000004 	andeq	r0, r0, r4
    65f0:	0000000b 	andeq	r0, r0, fp
    65f4:	00000010 	andeq	r0, r0, r0, lsl r0
    65f8:	00000017 	andeq	r0, r0, r7, lsl r0
    65fc:	00000004 	andeq	r0, r0, r4
    6600:	0000000b 	andeq	r0, r0, fp
    6604:	00000010 	andeq	r0, r0, r0, lsl r0
    6608:	00000017 	andeq	r0, r0, r7, lsl r0
    660c:	00000004 	andeq	r0, r0, r4
    6610:	0000000b 	andeq	r0, r0, fp
    6614:	00000010 	andeq	r0, r0, r0, lsl r0
    6618:	00000017 	andeq	r0, r0, r7, lsl r0
    661c:	00000004 	andeq	r0, r0, r4
    6620:	0000000b 	andeq	r0, r0, fp
    6624:	00000010 	andeq	r0, r0, r0, lsl r0
    6628:	00000017 	andeq	r0, r0, r7, lsl r0
    662c:	00000006 	andeq	r0, r0, r6
    6630:	0000000a 	andeq	r0, r0, sl
    6634:	0000000f 	andeq	r0, r0, pc
    6638:	00000015 	andeq	r0, r0, r5, lsl r0
    663c:	00000006 	andeq	r0, r0, r6
    6640:	0000000a 	andeq	r0, r0, sl
    6644:	0000000f 	andeq	r0, r0, pc
    6648:	00000015 	andeq	r0, r0, r5, lsl r0
    664c:	00000006 	andeq	r0, r0, r6
    6650:	0000000a 	andeq	r0, r0, sl
    6654:	0000000f 	andeq	r0, r0, pc
    6658:	00000015 	andeq	r0, r0, r5, lsl r0
    665c:	00000006 	andeq	r0, r0, r6
    6660:	0000000a 	andeq	r0, r0, sl
    6664:	0000000f 	andeq	r0, r0, pc
    6668:	00000015 	andeq	r0, r0, r5, lsl r0
    666c:	00000003 	andeq	r0, r0, r3
    6670:	00041004 	andeq	r1, r4, r4
    6674:	00000004 	andeq	r0, r0, r4
    6678:	00000000 	andeq	r0, r0, r0
    667c:	ffffffff 			; <UNDEFINED> instruction: 0xffffffff
    6680:	ffffffff 			; <UNDEFINED> instruction: 0xffffffff
    6684:	00000000 	andeq	r0, r0, r0
    6688:	00000001 	andeq	r0, r0, r1
    668c:	00000005 	andeq	r0, r0, r5
    6690:	00000000 	andeq	r0, r0, r0
    6694:	00000004 	andeq	r0, r0, r4
    6698:	00000000 	andeq	r0, r0, r0
    669c:	00000001 	andeq	r0, r0, r1
    66a0:	00000000 	andeq	r0, r0, r0
    66a4:	00000002 	andeq	r0, r0, r2
    66a8:	00000000 	andeq	r0, r0, r0
    66ac:	00000001 	andeq	r0, r0, r1
    66b0:	00000000 	andeq	r0, r0, r0
    66b4:	00000003 	andeq	r0, r0, r3
    66b8:	00000000 	andeq	r0, r0, r0
    66bc:	00000001 	andeq	r0, r0, r1
    66c0:	00000000 	andeq	r0, r0, r0
    66c4:	00000002 	andeq	r0, r0, r2
    66c8:	00000000 	andeq	r0, r0, r0
    66cc:	00000001 	andeq	r0, r0, r1
    66d0:	00000000 	andeq	r0, r0, r0
    66d4:	0000002a 	andeq	r0, r0, sl, lsr #32
    66d8:	00000058 	andeq	r0, r0, r8, asr r0
    66dc:	53534150 	cmppl	r3, #80, 2
    66e0:	00000000 	andeq	r0, r0, r0
    66e4:	4c494146 	stfmie	f4, [r9], {70}	; 0x46
    66e8:	00000000 	andeq	r0, r0, r0
    66ec:	5d73255b 	ldclpl	5, cr2, [r3, #-364]!	; 0xfffffe94
    66f0:	3a732520 	bcc	0x1ccfb78
    66f4:	00000020 	andeq	r0, r0, r0, lsr #32
    66f8:	736e6928 	cmnvc	lr, #40, 18	; 0xa0000
    66fc:	69666675 	stmdbvs	r6!, {r0, r2, r4, r5, r6, r9, sl, sp, lr}^
    6700:	6e656963 			; <UNDEFINED> instruction: 0x6e656963
    6704:	656d2074 	strbvs	r2, [sp, #-116]!	; 0xffffff8c
    6708:	79726f6d 	ldmdbvc	r2!, {r0, r2, r3, r5, r6, r8, r9, sl, fp, sp, lr}^
    670c:	00000029 	andeq	r0, r0, r9, lsr #32
    6710:	6f6e6749 	svcvs	0x006e6749
    6714:	20646572 	rsbcs	r6, r4, r2, ror r5
    6718:	000a7325 	andeq	r7, sl, r5, lsr #6
    671c:	73615020 	cmnvc	r1, #32
    6720:	2e646573 	mcrcs	5, 3, r6, cr4, cr3, {3}
    6724:	00000000 	andeq	r0, r0, r0
    6728:	69614620 	stmdbvs	r1!, {r5, r9, sl, lr}^
    672c:	2e64656c 	cdpcs	5, 6, cr6, cr4, cr12, {3}
    6730:	00000000 	andeq	r0, r0, r0
    6734:	696d2020 	stmdbvs	sp!, {r5, sp}^
    6738:	6974206e 	ldmdbvs	r4!, {r1, r2, r3, r5, r6, sp}^
    673c:	203a656d 	eorscs	r6, sl, sp, ror #10
    6740:	6d206425 	stcvs	4, cr6, [r0, #-148]!	; 0xffffff6c
    6744:	255b2073 	ldrbcs	r2, [fp, #-115]	; 0xffffff8d
    6748:	000a5d64 	andeq	r5, sl, r4, ror #26
    674c:	3d3d3d3d 	ldccc	13, cr3, [sp, #-244]!	; 0xffffff0c
    6750:	3d3d3d3d 	ldccc	13, cr3, [sp, #-244]!	; 0xffffff0c
    6754:	3d3d3d3d 	ldccc	13, cr3, [sp, #-244]!	; 0xffffff0c
    6758:	3d3d3d3d 	ldccc	13, cr3, [sp, #-244]!	; 0xffffff0c
    675c:	3d3d3d3d 	ldccc	13, cr3, [sp, #-244]!	; 0xffffff0c
    6760:	3d3d3d3d 	ldccc	13, cr3, [sp, #-244]!	; 0xffffff0c
    6764:	3d3d3d3d 	ldccc	13, cr3, [sp, #-244]!	; 0xffffff0c
    6768:	3d3d3d3d 	ldccc	13, cr3, [sp, #-244]!	; 0xffffff0c
    676c:	3d3d3d3d 	ldccc	13, cr3, [sp, #-244]!	; 0xffffff0c
    6770:	3d3d3d3d 	ldccc	13, cr3, [sp, #-244]!	; 0xffffff0c
    6774:	3d3d3d3d 	ldccc	13, cr3, [sp, #-244]!	; 0xffffff0c
    6778:	3d3d3d3d 	ldccc	13, cr3, [sp, #-244]!	; 0xffffff0c
    677c:	000a3d3d 	andeq	r3, sl, sp, lsr sp
    6780:	7263694d 	rsbvc	r6, r3, #1261568	; 0x134000
    6784:	6e65426f 	cdpvs	2, 6, cr4, cr5, cr15, {3}
    6788:	25206863 	strcs	r6, [r0, #-2147]!	; 0xfffff79d
    678c:	00000073 	andeq	r0, r0, r3, ror r0
    6790:	20202020 	eorcs	r2, r0, r0, lsr #32
    6794:	20202020 	eorcs	r2, r0, r0, lsr #32
    6798:	4d206425 	stcmi	4, cr6, [r0, #-148]!	; 0xffffff6c
    679c:	736b7261 	cmnvc	fp, #268435462	; 0x10000006
    67a0:	0000000a 	andeq	r0, r0, sl
    67a4:	362d3769 	strtcc	r3, [sp], -r9, ror #14
    67a8:	20303037 	eorscs	r3, r0, r7, lsr r0
    67ac:	2e332040 	cdpcs	0, 3, cr2, cr3, cr0, {2}
    67b0:	48473034 	stmdami	r7, {r2, r4, r5, ip, sp}^
    67b4:	0000007a 	andeq	r0, r0, sl, ror r0
    67b8:	20202020 	eorcs	r2, r0, r0, lsr #32
    67bc:	20202020 	eorcs	r2, r0, r0, lsr #32
    67c0:	20202020 	eorcs	r2, r0, r0, lsr #32
    67c4:	20202020 	eorcs	r2, r0, r0, lsr #32
    67c8:	76202020 	strtvc	r2, [r0], -r0, lsr #32
    67cc:	25202e73 	strcs	r2, [r0, #-3699]!	; 0xfffff18d
    67d0:	614d2064 	cmpvs	sp, r4, rrx
    67d4:	20736b72 	rsbscs	r6, r3, r2, ror fp
    67d8:	29732528 	ldmdbcs	r3!, {r3, r5, r8, sl, sp}^
    67dc:	0000000a 	andeq	r0, r0, sl
    67e0:	726f7371 	rsbvc	r7, pc, #-1006632959	; 0xc4000001
    67e4:	00000074 	andeq	r0, r0, r4, ror r0
    67e8:	63697551 	cmnvs	r9, #339738624	; 0x14400000
    67ec:	6f73206b 	svcvs	0x0073206b
    67f0:	00007472 	andeq	r7, r0, r2, ror r4
    67f4:	65657571 	strbvs	r7, [r5, #-1393]!	; 0xfffffa8f
    67f8:	0000006e 	andeq	r0, r0, lr, rrx
    67fc:	65657551 	strbvs	r7, [r5, #-1361]!	; 0xfffffaaf
    6800:	6c70206e 	ldclvs	0, cr2, [r0], #-440	; 0xfffffe48
    6804:	6d656361 	stclvs	3, cr6, [r5, #-388]!	; 0xfffffe7c
    6808:	00746e65 	rsbseq	r6, r4, r5, ror #28
    680c:	00006662 	andeq	r6, r0, r2, ror #12
    6810:	69617242 	stmdbvs	r1!, {r1, r6, r9, ip, sp, lr}^
    6814:	2a2a666e 	bcs	0xaa01d4
    6818:	6e69206b 	cdpvs	0, 6, cr2, cr9, cr11, {3}
    681c:	70726574 	rsbsvc	r6, r2, r4, ror r5
    6820:	65746572 	ldrbvs	r6, [r4, #-1394]!	; 0xfffffa8e
    6824:	00000072 	andeq	r0, r0, r2, ror r0
    6828:	00626966 	rsbeq	r6, r2, r6, ror #18
    682c:	6f626946 	svcvs	0x00626946
    6830:	6363616e 	cmnvs	r3, #-2147483621	; 0x8000001b
    6834:	756e2069 	strbvc	r2, [lr, #-105]!	; 0xffffff97
    6838:	7265626d 	rsbvc	r6, r5, #-805306362	; 0xd0000006
    683c:	00000000 	andeq	r0, r0, r0
    6840:	76656973 			; <UNDEFINED> instruction: 0x76656973
    6844:	00000065 	andeq	r0, r0, r5, rrx
    6848:	74617245 	strbtvc	r7, [r1], #-581	; 0xfffffdbb
    684c:	6874736f 	ldmdavs	r4!, {r0, r1, r2, r3, r5, r6, r8, r9, ip, sp, lr}^
    6850:	73656e65 	cmnvc	r5, #1616	; 0x650
    6854:	65697320 	strbvs	r7, [r9, #-800]!	; 0xfffffce0
    6858:	00006576 	andeq	r6, r0, r6, ror r5
    685c:	7a703531 	bvc	0x1c13d28
    6860:	00000000 	andeq	r0, r0, r0
    6864:	31202a41 			; <UNDEFINED> instruction: 0x31202a41
    6868:	75702d35 	ldrbvc	r2, [r0, #-3381]!	; 0xfffff2cb
    686c:	656c7a7a 	strbvs	r7, [ip, #-2682]!	; 0xfffff586
    6870:	61657320 	cmnvs	r5, r0, lsr #6
    6874:	00686372 	rsbeq	r6, r8, r2, ror r3
    6878:	696e6964 	stmdbvs	lr!, {r2, r5, r6, r8, fp, sp, lr}^
    687c:	00000063 	andeq	r0, r0, r3, rrx
    6880:	696e6944 	stmdbvs	lr!, {r2, r6, r8, fp, sp, lr}^
    6884:	20732763 	rsbscs	r2, r3, r3, ror #14
    6888:	6678616d 	ldrbtvs	r6, [r8], -sp, ror #2
    688c:	20776f6c 	rsbscs	r6, r7, ip, ror #30
    6890:	6f676c61 	svcvs	0x00676c61
    6894:	68746972 	ldmdavs	r4!, {r1, r4, r5, r6, r8, fp, sp, lr}^
    6898:	0000006d 	andeq	r0, r0, sp, rrx
    689c:	70697a6c 	rsbvc	r7, r9, ip, ror #20
    68a0:	00000000 	andeq	r0, r0, r0
    68a4:	70697a4c 	rsbvc	r7, r9, ip, asr #20
    68a8:	6d6f6320 	stclvs	3, cr6, [pc, #-128]!	; 0x6830
    68ac:	73657270 	cmnvc	r5, #112, 4
    68b0:	6e6f6973 			; <UNDEFINED> instruction: 0x6e6f6973
    68b4:	00000000 	andeq	r0, r0, r0
    68b8:	726f7373 	rsbvc	r7, pc, #-872415231	; 0xcc000001
    68bc:	00000074 	andeq	r0, r0, r4, ror r0
    68c0:	66667553 			; <UNDEFINED> instruction: 0x66667553
    68c4:	73207869 			; <UNDEFINED> instruction: 0x73207869
    68c8:	0074726f 	rsbseq	r7, r4, pc, ror #4
    68cc:	0035646d 	eorseq	r6, r5, sp, ror #8
    68d0:	2035444d 	eorscs	r4, r5, sp, asr #8
    68d4:	65676964 	strbvs	r6, [r7, #-2404]!	; 0xfffff69c
    68d8:	ff007473 			; <UNDEFINED> instruction: 0xff007473
    68dc:	3e2b3e3e 	mcrcc	14, 1, r3, cr11, cr14, {1}
    68e0:	3e3e3e3e 	mrccc	14, 1, r3, cr14, cr14, {1}
    68e4:	2b3e5b2c 	blcs	0xf9d59c
    68e8:	5d2c3e3e 	stcpl	14, cr3, [ip, #-248]!	; 0xffffff08
    68ec:	2d5b2b3e 			; <UNDEFINED> instruction: 0x2d5b2b3e
    68f0:	3c2b5b2d 			; <UNDEFINED> instruction: 0x3c2b5b2d
    68f4:	5d2d3c3c 	stcpl	12, cr3, [sp, #-240]!	; 0xffffff10
    68f8:	2b3c5b3c 	blcs	0xf1d5f0
    68fc:	3c5d2d3e 	ldclcc	13, cr2, [sp], {62}	; 0x3e
    6900:	2d5b3c5b 	ldclcs	12, cr3, [fp, #-364]	; 0xfffffe94
    6904:	3c3c5b3e 			; <UNDEFINED> instruction: 0x3c3c5b3e
    6908:	3e3e2b3c 			; <UNDEFINED> instruction: 0x3e3e2b3c
    690c:	3c2b3e3e 	stccc	14, cr3, [fp], #-248	; 0xffffff08
    6910:	3c3c5d2d 	ldccc	13, cr5, [ip], #-180	; 0xffffff4c
    6914:	2b3e3e5b 	blcs	0xf96288
    6918:	3e2d5b3e 			; <UNDEFINED> instruction: 0x3e2d5b3e
    691c:	5b3c3c5d 	blpl	0xf15a98
    6920:	2d3c5d3c 	ldccs	13, cr5, [ip, #-240]!	; 0xffffff10
    6924:	3e5d3e5d 	mrccc	14, 2, r3, cr13, cr13, {2}
    6928:	3c2b3e3e 	stccc	14, cr3, [fp], #-248	; 0xffffff08
    692c:	5d2d5b5b 			; <UNDEFINED> instruction: 0x5d2d5b5b
    6930:	2b3e5b3c 	blcs	0xf9d628
    6934:	3c5d2d3c 	ldclcc	13, cr2, [sp], {60}	; 0x3c
    6938:	5b5b3e5d 	blpl	0x16d62b4
    693c:	5d3e3e3e 	ldcpl	14, cr3, [lr, #-248]!	; 0xffffff08
    6940:	3c3c3c2b 	ldccc	12, cr3, [ip], #-172	; 0xffffff54
    6944:	3c5b3c2d 	ldclcc	12, cr3, [fp], {45}	; 0x2d
    6948:	3c3c5b3c 			; <UNDEFINED> instruction: 0x3c3c5b3c
    694c:	3e3e5d3c 	mrccc	13, 1, r5, cr14, cr12, {1}
    6950:	3e5b3e2b 	cdpcc	14, 5, cr3, cr11, cr11, {1}
    6954:	3c5d3e3e 	ldclcc	14, cr3, [sp], {62}	; 0x3e
    6958:	3c3c5d2d 	ldccc	13, cr5, [ip], #-180	; 0xffffff4c
    695c:	3c3c3c5b 	ldccc	12, cr3, [ip], #-364	; 0xfffffe94
    6960:	3e5b3e5d 	mrccc	14, 2, r3, cr11, cr13, {2}
    6964:	3e3e5b3e 			; <UNDEFINED> instruction: 0x3e3e5b3e
    6968:	2b3c5d3e 	blcs	0xf1de68
    696c:	3c5b3c3c 	ldclcc	12, cr3, [fp], {60}	; 0x3c
    6970:	3e5d3c3c 	mrccc	12, 2, r3, cr13, cr12, {1}
    6974:	2b5d5d2d 	blcs	0x175de30
    6978:	5d3c3c3c 	ldcpl	12, cr3, [ip, #-240]!	; 0xffffff10
    697c:	3e2d5b2b 			; <UNDEFINED> instruction: 0x3e2d5b2b
    6980:	3e5d3e3e 	mrccc	14, 2, r3, cr13, cr14, {1}
    6984:	3e3e5d3e 	mrccc	13, 1, r5, cr14, cr14, {1}
    6988:	3e3e2e5b 	mrccc	14, 1, r2, cr14, cr11, {2}
    698c:	00005d3e 	andeq	r5, r0, lr, lsr sp
    6990:	33323130 	teqcc	r2, #48, 2
    6994:	37363534 			; <UNDEFINED> instruction: 0x37363534
    6998:	62613938 	rsbvs	r3, r1, #56, 18	; 0xe0000
    699c:	66656463 	strbtvs	r6, [r5], -r3, ror #8
    69a0:	6a696867 	bvs	0x1a60b44
    69a4:	6e6d6c6b 	cdpvs	12, 6, cr6, cr13, cr11, {3}
    69a8:	7271706f 	rsbsvc	r7, r1, #111	; 0x6f
    69ac:	76757473 			; <UNDEFINED> instruction: 0x76757473
    69b0:	7a797877 	bvc	0x1e64b94
    69b4:	44434241 	strbmi	r4, [r3], #-577	; 0xfffffdbf
    69b8:	48474645 	stmdami	r7, {r0, r2, r6, r9, sl, lr}^
    69bc:	4c4b4a49 			; <UNDEFINED> instruction: 0x4c4b4a49
    69c0:	504f4e4d 	subpl	r4, pc, sp, asr #28
    69c4:	54535251 	ldrbpl	r5, [r3], #-593	; 0xfffffdaf
    69c8:	58575655 	ldmdapl	r7, {r0, r2, r4, r6, r9, sl, ip, lr}^
    69cc:	00005a59 	andeq	r5, r0, r9, asr sl
    69d0:	7fff9858 	svcvc	0x00ff9858
    69d4:	00000001 	andeq	r0, r0, r1
    69d8:	7fff98ac 	svcvc	0x00ff98ac
    69dc:	802cafb0 			; <UNDEFINED> instruction: 0x802cafb0
    69e0:	7fffa374 	svcvc	0x00ffa374
    69e4:	00000001 	andeq	r0, r0, r1
    69e8:	7fffaf98 	svcvc	0x00ffaf98
    69ec:	8002afb0 			; <UNDEFINED> instruction: 0x8002afb0
    69f0:	7fffb27c 	svcvc	0x00ffb27c
    69f4:	00000001 	andeq	r0, r0, r1
    69f8:	7fffcd28 	svcvc	0x00ffcd28
    69fc:	80aeb0b0 	strhhi	fp, [lr], r0	; <UNPREDICTABLE>
    6a00:	7fffce1c 	svcvc	0x00ffce1c
    6a04:	800eafb0 			; <UNDEFINED> instruction: 0x800eafb0
    6a08:	7fffd2fc 	svcvc	0x00ffd2fc
    6a0c:	80aab0b0 	strhhi	fp, [sl], r0	; <UNPREDICTABLE>
    6a10:	7fffd398 	svcvc	0x00ffd398
    6a14:	00000001 	andeq	r0, r0, r1
    6a18:	7fffd3a8 	svcvc	0x00ffd3a8
    6a1c:	80a8b0b0 	strhhi	fp, [r8], r0	; <UNPREDICTABLE>
    6a20:	7fffd3e4 	svcvc	0x00ffd3e4
    6a24:	00000001 	andeq	r0, r0, r1
    6a28:	7fffd974 	svcvc	0x00ffd974
    6a2c:	8010afb0 			; <UNDEFINED> instruction: 0x8010afb0
    6a30:	7fffdab8 	svcvc	0x00ffdab8
    6a34:	00000001 	andeq	r0, r0, r1
    6a38:	7fffdce8 	svcvc	0x00ffdce8
    6a3c:	80aeb0b0 	strhhi	fp, [lr], r0	; <UNPREDICTABLE>
    6a40:	7fffdf48 	svcvc	0x00ffdf48
    6a44:	00000001 	andeq	r0, r0, r1
    6a48:	00000000 	andeq	r0, r0, r0
    6a4c:	00000001 	andeq	r0, r0, r1
    6a50:	00000002 	andeq	r0, r0, r2
    6a54:	00000003 	andeq	r0, r0, r3
    6a58:	00000004 	andeq	r0, r0, r4
    6a5c:	00000005 	andeq	r0, r0, r5
    6a60:	00000006 	andeq	r0, r0, r6
    6a64:	00000007 	andeq	r0, r0, r7
    6a68:	00000008 	andeq	r0, r0, r8
    6a6c:	00000009 	andeq	r0, r0, r9
    6a70:	0000000a 	andeq	r0, r0, sl
    6a74:	00000000 	andeq	r0, r0, r0
    6a78:	0000000b 	andeq	r0, r0, fp
    6a7c:	0000000d 	andeq	r0, r0, sp
    6a80:	0000000e 	andeq	r0, r0, lr
    6a84:	0000000f 	andeq	r0, r0, pc
    6a88:	0000000c 	andeq	r0, r0, ip
    6a8c:	00000000 	andeq	r0, r0, r0
    6a90:	00000002 	andeq	r0, r0, r2
    6a94:	00000003 	andeq	r0, r0, r3
    6a98:	00000004 	andeq	r0, r0, r4
    6a9c:	00000009 	andeq	r0, r0, r9
    6aa0:	00000006 	andeq	r0, r0, r6
    6aa4:	00000007 	andeq	r0, r0, r7
    6aa8:	00000008 	andeq	r0, r0, r8
    6aac:	00000005 	andeq	r0, r0, r5
    6ab0:	0000000b 	andeq	r0, r0, fp
    6ab4:	0000000a 	andeq	r0, r0, sl
    6ab8:	0000000c 	andeq	r0, r0, ip
    6abc:	00000001 	andeq	r0, r0, r1
    6ac0:	0000000f 	andeq	r0, r0, pc
    6ac4:	0000000d 	andeq	r0, r0, sp
    6ac8:	0000000e 	andeq	r0, r0, lr
    6acc:	080028b4 	stmdaeq	r0, {r2, r4, r5, r7, fp, sp}
    6ad0:	08002928 	stmdaeq	r0, {r3, r5, r8, fp, sp}
    6ad4:	08002940 	stmdaeq	r0, {r6, r8, fp, sp}
    6ad8:	080067e0 	stmdaeq	r0, {r5, r6, r7, r8, r9, sl, sp, lr}
    6adc:	080067e8 	stmdaeq	r0, {r3, r5, r6, r7, r8, r9, sl, sp, lr}
    6ae0:	00000064 	andeq	r0, r0, r4, rrx
    6ae4:	00000400 	andeq	r0, r0, r0, lsl #8
    6ae8:	00000000 	andeq	r0, r0, r0
    6aec:	08467105 	stmdaeq	r6, {r0, r2, r8, ip, sp, lr}^
    6af0:	000186a0 	andeq	r8, r1, r0, lsr #13
    6af4:	000a0000 	andeq	r0, sl, r0
    6af8:	0000158f 	andeq	r1, r0, pc, lsl #11
    6afc:	ed8cff89 	stc	15, cr15, [ip, #548]	; 0x224
    6b00:	080029fc 	stmdaeq	r0, {r2, r3, r4, r5, r6, r7, r8, fp, sp}
    6b04:	08002a2c 	stmdaeq	r0, {r2, r3, r5, r9, fp, sp}
    6b08:	08002a54 	stmdaeq	r0, {r2, r4, r6, r9, fp, sp}
    6b0c:	080067f4 	stmdaeq	r0, {r2, r4, r5, r6, r7, r8, r9, sl, sp, lr}
    6b10:	080067fc 	stmdaeq	r0, {r2, r3, r4, r5, r6, r7, r8, r9, sl, sp, lr}
    6b14:	00000008 	andeq	r0, r0, r8
	...
    6b20:	0000005c 	andeq	r0, r0, ip, asr r0
    6b24:	0000000c 	andeq	r0, r0, ip
    6b28:	00000000 	andeq	r0, r0, r0
    6b2c:	00001427 	andeq	r1, r0, r7, lsr #8
    6b30:	00003778 	andeq	r3, r0, r8, ror r7
    6b34:	08001714 	stmdaeq	r0, {r2, r4, r8, r9, sl, ip}
    6b38:	08001808 	stmdaeq	r0, {r3, fp, ip}
    6b3c:	08001818 	stmdaeq	r0, {r3, r4, fp, ip}
    6b40:	0800680c 	stmdaeq	r0, {r2, r3, fp, sp, lr}
    6b44:	08006810 	stmdaeq	r0, {r4, fp, sp, lr}
    6b48:	00000004 	andeq	r0, r0, r4
    6b4c:	00008000 	andeq	r8, r0, r0
    6b50:	00000000 	andeq	r0, r0, r0
    6b54:	a6f0079e 			; <UNDEFINED> instruction: 0xa6f0079e
    6b58:	000000b4 	strheq	r0, [r0], -r4
    6b5c:	00008000 	andeq	r8, r0, r0
    6b60:	00006661 	andeq	r6, r0, r1, ror #12
    6b64:	9221e2b3 	eorls	lr, r1, #805306379	; 0x3000000b
    6b68:	08001fd8 	stmdaeq	r0, {r3, r4, r6, r7, r8, r9, sl, fp, ip}
    6b6c:	08002038 	stmdaeq	r0, {r3, r4, r5, sp}
    6b70:	08002330 	stmdaeq	r0, {r4, r5, r8, r9, sp}
    6b74:	08006828 	stmdaeq	r0, {r3, r5, fp, sp, lr}
    6b78:	0800682c 	stmdaeq	r0, {r2, r3, r5, fp, sp, lr}
    6b7c:	00000002 	andeq	r0, r0, r2
    6b80:	00000400 	andeq	r0, r0, r0, lsl #8
    6b84:	00000000 	andeq	r0, r0, r0
    6b88:	7cfeddf0 	ldclvc	13, cr13, [lr], #960	; 0x3c0
    6b8c:	0000005b 	andeq	r0, r0, fp, asr r0
    6b90:	00040000 	andeq	r0, r4, r0
    6b94:	00006f9f 	muleq	r0, pc, pc	; <UNPREDICTABLE>
    6b98:	ebdc5f80 	bl	0xff71e9a0
    6b9c:	08003544 	stmdaeq	r0, {r2, r6, r8, sl, ip, sp}
    6ba0:	080035c0 	stmdaeq	r0, {r6, r7, r8, sl, ip, sp}
    6ba4:	080036f4 	stmdaeq	r0, {r2, r4, r5, r6, r7, r9, sl, ip, sp}
    6ba8:	08006840 	stmdaeq	r0, {r6, fp, sp, lr}
    6bac:	08006848 	stmdaeq	r0, {r3, r6, fp, sp, lr}
    6bb0:	00000064 	andeq	r0, r0, r4, rrx
    6bb4:	00000400 	andeq	r0, r0, r0, lsl #8
    6bb8:	00000000 	andeq	r0, r0, r0
    6bbc:	00000019 	andeq	r0, r0, r9, lsl r0
    6bc0:	00989680 	addseq	r9, r8, r0, lsl #13
    6bc4:	00200000 	eoreq	r0, r0, r0
    6bc8:	0000a5a6 	andeq	sl, r0, r6, lsr #11
    6bcc:	000a2403 	andeq	r2, sl, r3, lsl #8
    6bd0:	08000254 	stmdaeq	r0, {r2, r4, r6, r9}
    6bd4:	08000284 	stmdaeq	r0, {r2, r7, r9}
    6bd8:	08000258 	stmdaeq	r0, {r3, r4, r6, r9}
    6bdc:	0800685c 	stmdaeq	r0, {r2, r3, r4, r6, fp, sp, lr}
    6be0:	08006864 	stmdaeq	r0, {r2, r5, r6, fp, sp, lr}
    6be4:	00000000 	andeq	r0, r0, r0
    6be8:	00200000 	eoreq	r0, r0, r0
    6bec:	00000000 	andeq	r0, r0, r0
    6bf0:	00000006 	andeq	r0, r0, r6
    6bf4:	00000001 	andeq	r0, r0, r1
    6bf8:	00800000 	addeq	r0, r0, r0
    6bfc:	000016a0 	andeq	r1, r0, r0, lsr #13
    6c00:	00068b8c 	andeq	r8, r6, ip, lsl #23
    6c04:	08001980 	stmdaeq	r0, {r7, r8, fp, ip}
    6c08:	08001c6c 	stmdaeq	r0, {r2, r3, r5, r6, sl, fp, ip}
    6c0c:	08001fac 	stmdaeq	r0, {r2, r3, r5, r7, r8, r9, sl, fp, ip}
    6c10:	08006878 	stmdaeq	r0, {r3, r4, r5, r6, fp, sp, lr}
    6c14:	08006880 	stmdaeq	r0, {r7, fp, sp, lr}
    6c18:	0000000a 	andeq	r0, r0, sl
    6c1c:	00100000 	andseq	r0, r0, r0
    6c20:	00000000 	andeq	r0, r0, r0
    6c24:	0000019c 	muleq	r0, ip, r1
    6c28:	00000080 	andeq	r0, r0, r0, lsl #1
    6c2c:	00100000 	andseq	r0, r0, r0
    6c30:	000034e0 	andeq	r3, r0, r0, ror #9
    6c34:	0000c248 	andeq	ip, r0, r8, asr #4
    6c38:	0800236c 	stmdaeq	r0, {r2, r3, r5, r6, r8, r9, sp}
    6c3c:	08002418 	stmdaeq	r0, {r3, r4, sl, sp}
    6c40:	08002440 	stmdaeq	r0, {r6, sl, sp}
    6c44:	0800689c 	stmdaeq	r0, {r2, r3, r4, r7, fp, sp, lr}
    6c48:	080068a4 	stmdaeq	r0, {r2, r5, r7, fp, sp, lr}
    6c4c:	00000080 	andeq	r0, r0, r0, lsl #1
    6c50:	00100000 	andseq	r0, r0, r0
    6c54:	00000000 	andeq	r0, r0, r0
    6c58:	03e9fa7d 	mvneq	pc, #512000	; 0x7d000
    6c5c:	00100000 	andseq	r0, r0, r0
    6c60:	00400000 	subeq	r0, r0, r0
    6c64:	00006765 	andeq	r6, r0, r5, ror #14
    6c68:	43601310 	cmnmi	r0, #16, 6	; 0x40000000
    6c6c:	08003d04 	stmdaeq	r0, {r2, r8, sl, fp, ip, sp}
    6c70:	08003da8 	stmdaeq	r0, {r3, r5, r7, r8, sl, fp, ip, sp}
    6c74:	08003dc0 	stmdaeq	r0, {r6, r7, r8, sl, fp, ip, sp}
    6c78:	080068b8 	stmdaeq	r0, {r3, r4, r5, r7, fp, sp, lr}
    6c7c:	080068c0 	stmdaeq	r0, {r6, r7, fp, sp, lr}
    6c80:	00000064 	andeq	r0, r0, r4, rrx
    6c84:	00001000 	andeq	r1, r0, r0
    6c88:	00000000 	andeq	r0, r0, r0
    6c8c:	4c555e09 	ldclmi	14, cr5, [r5], {9}
    6c90:	000186a0 	andeq	r8, r1, r0, lsr #13
    6c94:	00400000 	subeq	r0, r0, r0
    6c98:	0000171b 	andeq	r1, r0, fp, lsl r7
    6c9c:	4f0ab431 	svcmi	0x000ab431
    6ca0:	08002484 	stmdaeq	r0, {r2, r7, sl, sp}
    6ca4:	080024f8 	stmdaeq	r0, {r3, r4, r5, r6, r7, sl, sp}
    6ca8:	080027e0 	stmdaeq	r0, {r5, r6, r7, r8, r9, sl, sp}
    6cac:	080068cc 	stmdaeq	r0, {r2, r3, r6, r7, fp, sp, lr}
    6cb0:	080068d0 	stmdaeq	r0, {r4, r6, r7, fp, sp, lr}
    6cb4:	00000064 	andeq	r0, r0, r4, rrx
    6cb8:	00000400 	andeq	r0, r0, r0, lsl #8
    6cbc:	00000000 	andeq	r0, r0, r0
    6cc0:	f902f28f 			; <UNDEFINED> instruction: 0xf902f28f
    6cc4:	00989680 	addseq	r9, r8, r0, lsl #13
    6cc8:	01000000 	mrseq	r0, (UNDEF: 0)
    6ccc:	00004c89 	andeq	r4, r0, r9, lsl #25
    6cd0:	27286a42 	strcs	r6, [r8, -r2, asr #20]!
    6cd4:	00000001 	andeq	r0, r0, r1
    6cd8:	030003f8 	tsteq	r0, #248, 6	; 0xe0000003
    6cdc:	00000000 	andeq	r0, r0, r0
    6ce0:	030006e8 	tsteq	r0, #232, 12	; 0xe800000
    6ce4:	03000760 	tsteq	r0, #96, 14	; 0x1800000
    6ce8:	030007d8 	tsteq	r0, #216, 14	; 0x3600000
	...
    6d84:	00000001 	andeq	r0, r0, r1
    6d88:	00000000 	andeq	r0, r0, r0
    6d8c:	abcd330e 	blge	0xff3539cc
    6d90:	e66d1234 			; <UNDEFINED> instruction: 0xe66d1234
    6d94:	0005deec 	andeq	sp, r5, ip, ror #29
    6d98:	0000000b 	andeq	r0, r0, fp
	...
    713c:	08004368 	stmdaeq	r0, {r3, r5, r6, r8, r9, lr}
    7140:	08004324 	stmdaeq	r0, {r2, r5, r8, r9, lr}
    7144:	52416b64 	subpl	r6, r1, #100, 22	; 0x19000
    7148:	0000004d 	andeq	r0, r0, sp, asr #32
