
test.gba:     file format binary


Disassembly of section .data:

00000000 <.data>:
       0:	ea00002e 	b	0xc0
	...
      b0:	00963130 	addseq	r3, r6, r0, lsr r1
	...
      bc:	0000f000 	andeq	pc, r0, r0
      c0:	ea000006 	b	0xe0
	...
      e0:	e3a00301 	mov	r0, #67108864	; 0x4000000
      e4:	e5800208 	str	r0, [r0, #520]	; 0x208
      e8:	e3a00012 	mov	r0, #18
      ec:	e129f000 	msr	CPSR_fc, r0
      f0:	e59fd0b8 	ldr	sp, [pc, #184]	; 0x1b0
      f4:	e3a0001f 	mov	r0, #31
      f8:	e129f000 	msr	CPSR_fc, r0
      fc:	e59fd0b0 	ldr	sp, [pc, #176]	; 0x1b4
     100:	e28f0001 	add	r0, pc, #1
     104:	e12fff10 	bx	r0
     108:	0140482b 	cmpeq	r0, fp, lsr #16
     10c:	4678d20b 	ldrbtmi	sp, [r8], -fp, lsl #4
     110:	d30d0140 	tstle	sp, #64, 2
     114:	06122202 	ldreq	r2, [r2], -r2, lsl #4
     118:	1a9b4b28 	bne	0xfe6d2dc0
     11c:	00911c16 	addseq	r1, r1, r6, lsl ip
     120:	f83cf000 			; <UNDEFINED> instruction: 0xf83cf000
     124:	21404730 	cmpcs	r0, r0, lsr r7
     128:	01c80309 	biceq	r0, r8, r9, lsl #6
     12c:	f82bf000 			; <UNDEFINED> instruction: 0xf82bf000
     130:	49244823 	stmdbmi	r4!, {r0, r1, r5, fp, lr}
     134:	f0001a09 			; <UNDEFINED> instruction: 0xf0001a09
     138:	4823f826 	stmdami	r3!, {r1, r2, r5, fp, ip, sp, lr, pc}
     13c:	1a094923 	bne	0x2525d0
     140:	f821f000 			; <UNDEFINED> instruction: 0xf821f000
     144:	4a234922 	bmi	0x8d25d4
     148:	f0004c23 			; <UNDEFINED> instruction: 0xf0004c23
     14c:	4923f826 	stmdbmi	r3!, {r1, r2, r5, fp, ip, sp, lr, pc}
     150:	4c244a23 			; <UNDEFINED> instruction: 0x4c244a23
     154:	f821f000 			; <UNDEFINED> instruction: 0xf821f000
     158:	49244a23 	stmdbmi	r4!, {r0, r1, r5, r9, fp, lr}
     15c:	d0021a53 	andle	r1, r2, r3, asr sl
     160:	f0004a23 			; <UNDEFINED> instruction: 0xf0004a23
     164:	4923f81b 	stmdbmi	r3!, {r0, r1, r3, r4, fp, ip, sp, lr, pc}
     168:	4c244a23 			; <UNDEFINED> instruction: 0x4c244a23
     16c:	f815f000 			; <UNDEFINED> instruction: 0xf815f000
     170:	48244923 	stmdami	r4!, {r0, r1, r5, r8, fp, lr}
     174:	4b246008 	blmi	0x91819c
     178:	f80ef000 			; <UNDEFINED> instruction: 0xf80ef000
     17c:	21002000 	mrscs	r2, (UNDEF: 0)
     180:	f0004b22 			; <UNDEFINED> instruction: 0xf0004b22
     184:	2203f809 	andcs	pc, r3, #589824	; 0x90000
     188:	43911889 	orrsmi	r1, r1, #8978432	; 0x890000
     18c:	2200d003 	andcs	sp, r0, #3
     190:	3904c004 	stmdbcc	r4, {r2, lr, pc}
     194:	4770d1fc 			; <UNDEFINED> instruction: 0x4770d1fc
     198:	1aa34718 	bne	0xfe8d1e00
     19c:	181b2003 	ldmdane	fp, {r0, r1, sp}
     1a0:	d0034383 	andle	r4, r3, r3, lsl #7
     1a4:	c201c901 	andgt	ip, r1, #16384	; 0x4000
     1a8:	d1fb3b04 	mvnsle	r3, r4, lsl #22
     1ac:	46c04770 			; <UNDEFINED> instruction: 0x46c04770
     1b0:	03007fa0 	tsteq	r0, #160, 30	; 0x280
     1b4:	03007f00 	tsteq	r0, #0, 30
     1b8:	08000000 	stmdaeq	r0, {}	; <UNPREDICTABLE>
     1bc:	02000000 	andeq	r0, r0, #0
     1c0:	03000000 	tsteq	r0, #0
     1c4:	03000168 	tsteq	r0, #104, 2
     1c8:	02000000 	andeq	r0, r0, #0
     1cc:	02000000 	andeq	r0, r0, #0
     1d0:	080057d8 	stmdaeq	r0, {r3, r4, r6, r7, r8, r9, sl, ip, lr}
     1d4:	03000168 	tsteq	r0, #104, 2
     1d8:	03000860 	tsteq	r0, #96, 16	; 0x600000
     1dc:	080057d8 	stmdaeq	r0, {r3, r4, r6, r7, r8, r9, sl, ip, lr}
     1e0:	03000000 	tsteq	r0, #0
     1e4:	03000000 	tsteq	r0, #0
     1e8:	08005ed0 	stmdaeq	r0, {r4, r6, r7, r9, sl, fp, ip, lr}
     1ec:	08005ed0 	stmdaeq	r0, {r4, r6, r7, r9, sl, fp, ip, lr}
     1f0:	03000860 	tsteq	r0, #96, 16	; 0x600000
     1f4:	08005ed0 	stmdaeq	r0, {r4, r6, r7, r9, sl, fp, ip, lr}
     1f8:	02000000 	andeq	r0, r0, #0
     1fc:	02000000 	andeq	r0, r0, #0
     200:	03000108 	tsteq	r0, #8, 2
     204:	02040000 	andeq	r0, r4, #0
     208:	08004de0 	stmdaeq	r0, {r5, r6, r7, r8, sl, fp, lr}
     20c:	08003629 	stmdaeq	r0, {r0, r3, r5, r9, sl, ip, sp}
     210:	e1a0c00d 	mov	ip, sp
     214:	e92ddff8 	push	{r3, r4, r5, r6, r7, r8, r9, sl, fp, ip, lr, pc}
     218:	e24cb004 	sub	fp, ip, #4
     21c:	e24bd028 	sub	sp, fp, #40	; 0x28
     220:	e89d6ff0 	ldm	sp, {r4, r5, r6, r7, r8, r9, sl, fp, sp, lr}
     224:	e12fff1e 	bx	lr
     228:	d0002800 	andle	r2, r0, r0, lsl #16
     22c:	23804770 	orrcs	r4, r0, #112, 14	; 0x1c00000
     230:	04db2203 	ldrbeq	r2, [fp], #515	; 0x203
     234:	4b04701a 	blmi	0x11c2a4
     238:	701a3201 	andsvc	r3, sl, r1, lsl #4
     23c:	321b23c0 	andscc	r2, fp, #192, 6
     240:	801a04db 			; <UNDEFINED> instruction: 0x801a04db
     244:	46c0e7fe 			; <UNDEFINED> instruction: 0x46c0e7fe
     248:	04000001 	streq	r0, [r0], #-1
     24c:	46c04770 			; <UNDEFINED> instruction: 0x46c04770
     250:	681b4b04 	ldmdavs	fp, {r2, r8, r9, fp, lr}
     254:	4b0468d8 	blmi	0x11a5bc
     258:	1ac0681b 	bne	0xff01a2cc
     25c:	41584243 	cmpmi	r8, r3, asr #4
     260:	46c04770 			; <UNDEFINED> instruction: 0x46c04770
     264:	03000158 	tsteq	r0, #88, 2
     268:	0300001c 	tsteq	r0, #28
     26c:	46deb5f0 			; <UNDEFINED> instruction: 0x46deb5f0
     270:	464e4657 			; <UNDEFINED> instruction: 0x464e4657
     274:	b5e04645 	strblt	r4, [r0, #1605]!	; 0x645
     278:	a80eb0b1 	stmdage	lr, {r0, r4, r5, r7, ip, sp, pc}
     27c:	ffbcf002 			; <UNDEFINED> instruction: 0xffbcf002
     280:	681b4b26 	ldmdavs	fp, {r1, r2, r5, r8, r9, fp, lr}
     284:	2b00681b 	blcs	0x1a2f8
     288:	e39ad000 	orrs	sp, sl, #0
     28c:	469bab20 	ldrmi	sl, [fp], r0, lsr #22
     290:	49230018 	stmdbmi	r3!, {r3, r4}
     294:	f82cf003 			; <UNDEFINED> instruction: 0xf82cf003
     298:	7818465b 	ldmdavc	r8, {r0, r1, r3, r4, r6, r9, sl, lr}
     29c:	930e9b20 	tstls	lr, #32, 22	; 0x8000
     2a0:	695b465b 	ldmdbvs	fp, {r0, r1, r3, r4, r6, r9, sl, lr}^
     2a4:	465b9313 			; <UNDEFINED> instruction: 0x465b9313
     2a8:	940cac24 	strls	sl, [ip], #-3108	; 0xfffff3dc
     2ac:	7919aa0e 	ldmdbvc	r9, {r1, r2, r3, r9, fp, sp, pc}
     2b0:	79597111 	ldmdbvc	r9, {r0, r4, r8, ip, sp, lr}^
     2b4:	79997151 	ldmibvc	r9, {r0, r4, r6, r8, ip, sp, lr}
     2b8:	79d97191 	ldmibvc	r9, {r0, r4, r7, r8, ip, sp, lr}^
     2bc:	71d13304 	bicsvc	r3, r1, r4, lsl #6
     2c0:	42a33204 	adcmi	r3, r3, #4, 4	; 0x40000000
     2c4:	2800d1f3 	stmdacs	r0, {r0, r1, r4, r5, r6, r7, r8, ip, lr, pc}
     2c8:	e39bd100 	orrs	sp, fp, #0, 2
     2cc:	2510465c 	ldrcs	r4, [r0, #-1628]	; 0xfffff9a4
     2d0:	ae13a80f 	cdpge	8, 1, cr10, cr3, cr15, {0}
     2d4:	23000022 	tstcs	r0, #34	; 0x22
     2d8:	290056c1 	stmdbcs	r0, {r0, r6, r7, r9, sl, ip, lr}
     2dc:	6015d11c 	andsvs	sp, r5, ip, lsl r1
     2e0:	32043301 	andcc	r3, r4, #67108864	; 0x4000000
     2e4:	d1f72b04 	mvnsle	r2, r4, lsl #22
     2e8:	34103004 	ldrcc	r3, [r0], #-4
     2ec:	d1f14286 	mvnsle	r4, r6, lsl #5
     2f0:	20002401 	andcs	r2, r0, r1, lsl #8
     2f4:	9920465d 	stmdbls	r0!, {r0, r2, r3, r4, r6, r9, sl, lr}
     2f8:	009a3b03 	addseq	r3, sl, r3, lsl #22
     2fc:	428a58aa 	addmi	r5, sl, #11141120	; 0xaa0000
     300:	3001da00 	andcc	sp, r1, r0, lsl #20
     304:	2b103301 	blcs	0x40cf10
     308:	1c63d1f7 	stfnep	f5, [r3], #-988	; 0xfffffc24
     30c:	d0092b10 	andle	r2, r9, r0, lsl fp
     310:	592900a4 	stmdbpl	r9!, {r2, r5, r7}
     314:	e7f0001c 			; <UNDEFINED> instruction: 0xe7f0001c
     318:	e7e16011 			; <UNDEFINED> instruction: 0xe7e16011
     31c:	03000158 	tsteq	r0, #88, 2
     320:	03000168 	tsteq	r0, #104, 2
     324:	785aab0e 	ldmdavc	sl, {r1, r2, r3, r8, r9, fp, sp, pc}^
     328:	1a9b2306 	bne	0xfe6c8f48
     32c:	7892aa0e 	ldmvc	r2, {r1, r2, r3, r9, fp, sp, pc}
     330:	18181a9b 	ldmdane	r8, {r0, r1, r3, r4, r7, r9, fp, ip}
     334:	43832301 	orrmi	r2, r3, #67108864	; 0x4000000
     338:	001846ab 	andseq	r4, r8, fp, lsr #13
     33c:	ff74f7ff 			; <UNDEFINED> instruction: 0xff74f7ff
     340:	f00048d6 			; <UNDEFINED> instruction: 0xf00048d6
     344:	2300fd41 	tstpcs	r0, #4160	; 0x1040
     348:	21804ad5 			; <UNDEFINED> instruction: 0x21804ad5
     34c:	4ad55083 	bmi	0xff554560
     350:	50834682 	addpl	r4, r3, r2, lsl #13
     354:	22000003 	andcs	r0, r0, #3
     358:	445102c9 	ldrbmi	r0, [r1], #-713	; 0xfffffd37
     35c:	4299c304 	addsmi	ip, r9, #4, 6	; 0x10000000
     360:	2200d1fc 	andcs	sp, r0, #252, 2	; 0x3f
     364:	4650a90e 	ldrbmi	sl, [r0], -lr, lsl #18
     368:	f87cf003 			; <UNDEFINED> instruction: 0xf87cf003
     36c:	4ace2301 	bmi	0xff388f78
     370:	6013425b 	andsvs	r4, r3, fp, asr r2
     374:	4bca4652 	blmi	0xff291cc4
     378:	2c0058d4 	stccs	8, cr5, [r0], {212}	; 0xd4
     37c:	e183d100 	orr	sp, r3, r0, lsl #2
     380:	93052300 	tstls	r5, #0, 6
     384:	02db2380 	sbcseq	r2, fp, #128, 6
     388:	465b4699 			; <UNDEFINED> instruction: 0x465b4699
     38c:	469a46d3 			; <UNDEFINED> instruction: 0x469a46d3
     390:	4bc6465a 	blmi	0xff191d00
     394:	780b58d1 	stmdavc	fp, {r0, r4, r6, r7, fp, ip, lr}
     398:	784b9308 	stmdavc	fp, {r3, r8, r9, ip, pc}^
     39c:	788b9306 	stmvc	fp, {r1, r2, r8, r9, ip, pc}
     3a0:	23039307 	tstcs	r3, #469762048	; 0x1c000000
     3a4:	930b56cb 	tstls	fp, #212860928	; 0xcb00000
     3a8:	930a680b 	tstls	sl, #720896	; 0xb0000
     3ac:	aa21694b 	bge	0x85a8e0
     3b0:	1d0b9309 	stcne	3, cr9, [fp, #-36]	; 0xffffffdc
     3b4:	78183114 	ldmdavc	r8, {r2, r4, r8, ip, sp}
     3b8:	78587010 	ldmdavc	r8, {r4, ip, sp, lr}^
     3bc:	78987050 	ldmvc	r8, {r4, r6, ip, sp, lr}
     3c0:	78d87090 	ldmvc	r8, {r4, r7, ip, sp, lr}^
     3c4:	70d03304 	sbcsvc	r3, r0, r4, lsl #6
     3c8:	42993204 	addsmi	r3, r9, #4, 4	; 0x40000000
     3cc:	2c01d1f3 	stfcsd	f5, [r1], {243}	; 0xf3
     3d0:	e171d000 	cmn	r1, r0
     3d4:	2100465a 	tstcs	r0, sl, asr r6
     3d8:	50d14bb1 	ldrhpl	r4, [r1], #177	; 0xb1
     3dc:	93149b0a 	tstls	r4, #10240	; 0x2800
     3e0:	ac149b09 			; <UNDEFINED> instruction: 0xac149b09
     3e4:	00229319 	eoreq	r9, r2, r9, lsl r3
     3e8:	980c4653 	stmdals	ip, {r0, r1, r4, r6, r9, sl, lr}
     3ec:	71117919 	tstvc	r1, r9, lsl r9
     3f0:	71517959 	cmpvc	r1, r9, asr r9
     3f4:	71917999 			; <UNDEFINED> instruction: 0x71917999
     3f8:	330479d9 	tstcc	r4, #3555328	; 0x364000
     3fc:	320471d1 	andcc	r7, r4, #1073741876	; 0x40000034
     400:	d1f34298 			; <UNDEFINED> instruction: 0xd1f34298
     404:	33019b05 	tstcc	r1, #5120	; 0x1400
     408:	46529305 	ldrbmi	r9, [r2], -r5, lsl #6
     40c:	33012300 	tstcc	r1, #0, 6
     410:	2b0fc208 	blcs	0x3f0c38
     414:	4653d1fb 			; <UNDEFINED> instruction: 0x4653d1fb
     418:	46512200 	ldrbmi	r2, [r1], -r0, lsl #4
     41c:	63daa81a 	bicsvs	sl, sl, #1703936	; 0x1a0000
     420:	ff66f002 			; <UNDEFINED> instruction: 0xff66f002
     424:	a814a91a 	ldmdage	r4, {r1, r3, r4, r8, fp, sp, pc}
     428:	ffe2f002 			; <UNDEFINED> instruction: 0xffe2f002
     42c:	d0002800 	andle	r2, r0, r0, lsl #16
     430:	9b08e2ea 	blls	0x238fe0
     434:	d1002b00 	tstle	r0, r0, lsl #22
     438:	9b07e11a 	blls	0x1f88a8
     43c:	d1002b03 	tstle	r0, r3, lsl #22
     440:	4650e1ad 	ldrbmi	lr, [r0], -sp, lsr #3
     444:	ad184652 	ldcge	6, cr4, [r8, #-328]	; 0xfffffeb8
     448:	7919ab14 	ldmdbvc	r9, {r2, r4, r8, r9, fp, sp, pc}
     44c:	79597111 	ldmdbvc	r9, {r0, r4, r8, ip, sp, lr}^
     450:	79997151 	ldmibvc	r9, {r0, r4, r6, r8, ip, sp, lr}
     454:	79d97191 	ldmibvc	r9, {r0, r4, r7, r8, ip, sp, lr}^
     458:	71d13304 	bicsvc	r3, r1, r4, lsl #6
     45c:	429d3204 	addsmi	r3, sp, #4, 4	; 0x40000000
     460:	9b06d1f3 	blls	0x1b4c34
     464:	4698009b 			; <UNDEFINED> instruction: 0x4698009b
     468:	9f072604 	svcls	0x00072604
     46c:	1c7aab14 			; <UNDEFINED> instruction: 0x1c7aab14
     470:	189b4443 	ldmne	fp, {r0, r1, r6, sl, lr}
     474:	2303579e 	tstcs	r3, #41418752	; 0x2780000
     478:	3e019601 	cdpcc	6, 0, cr9, cr1, cr1, {0}
     47c:	0f8917f1 	svceq	0x008917f1
     480:	40331876 	eorsmi	r1, r3, r6, ror r8
     484:	1bcb1a59 	blne	0xff2c6df0
     488:	17df003e 			; <UNDEFINED> instruction: 0x17df003e
     48c:	19db1a89 	ldmibne	fp, {r0, r3, r7, r9, fp, ip}^
     490:	17cf407b 			; <UNDEFINED> instruction: 0x17cf407b
     494:	407919c9 	rsbsmi	r1, r9, r9, asr #19
     498:	990b1a5b 	stmdbls	fp, {r0, r1, r3, r4, r6, r9, fp, ip}
     49c:	4463468c 	strbtmi	r4, [r3], #-1676	; 0xfffff974
     4a0:	161b061b 			; <UNDEFINED> instruction: 0x161b061b
     4a4:	46539302 	ldrbmi	r9, [r3], -r2, lsl #6
     4a8:	19994443 	ldmibne	r9, {r0, r1, r6, sl, lr}
     4ac:	710e9e01 	tstvc	lr, r1, lsl #28
     4b0:	0e090611 	mcreq	6, 0, r0, cr9, cr1, {0}
     4b4:	21ff9101 	mvnscs	r9, r1, lsl #2
     4b8:	189b400a 	ldmne	fp, {r1, r3, lr}
     4bc:	711a2200 	tstvc	sl, r0, lsl #4
     4c0:	44532314 	ldrbmi	r2, [r3], #-788	; 0xfffffcec
     4c4:	00192200 	andseq	r2, r9, r0, lsl #4
     4c8:	4f794684 	svcmi	0x00794684
     4cc:	2300ae21 	tstcs	r0, #528	; 0x210
     4d0:	00020010 	andeq	r0, r2, r0, lsl r0
     4d4:	56f0437a 			; <UNDEFINED> instruction: 0x56f0437a
     4d8:	18103301 	ldmdane	r0, {r0, r8, r9, ip, sp}
     4dc:	d1f82b04 	mvnsle	r2, r4, lsl #22
     4e0:	00023604 	andeq	r3, r2, r4, lsl #12
     4e4:	d1f2428e 	mvnsle	r4, lr, lsl #5
     4e8:	a90e2630 	stmdbge	lr, {r4, r5, r9, sl, sp}
     4ec:	19893b03 	stmibne	r9, {r0, r1, r8, r9, fp, ip, sp}
     4f0:	2131700b 	teqcs	r1, fp
     4f4:	185bab0e 	ldmdane	fp, {r1, r2, r3, r8, r9, fp, sp, pc}^
     4f8:	70199906 	andsvc	r9, r9, r6, lsl #18
     4fc:	ab0e2132 	blge	0x3889cc
     500:	9901185b 	stmdbls	r1, {r0, r1, r3, r4, r6, fp, ip}
     504:	21337019 	teqcs	r3, r9, lsl r0
     508:	185bab0e 	ldmdane	fp, {r1, r2, r3, r8, r9, fp, sp, pc}^
     50c:	70199902 	andsvc	r9, r9, r2, lsl #18
     510:	46604651 			; <UNDEFINED> instruction: 0x46604651
     514:	ab1a921f 	blge	0x6a4d98
     518:	79023110 	stmdbvc	r2, {r4, r8, ip, sp}
     51c:	7942711a 	stmdbvc	r2, {r1, r3, r4, r8, ip, sp, lr}^
     520:	7982715a 	stmibvc	r2, {r1, r3, r4, r6, r8, ip, sp, lr}
     524:	79c2719a 	stmibvc	r2, {r1, r3, r4, r7, r8, ip, sp, lr}^
     528:	71da3004 	bicsvc	r3, sl, r4
     52c:	42883304 	addmi	r3, r8, #4, 6	; 0x10000000
     530:	a914d1f3 	ldmdbge	r4, {r0, r1, r4, r5, r6, r7, r8, ip, lr, pc}
     534:	f0024658 			; <UNDEFINED> instruction: 0xf0024658
     538:	2800ff7b 	stmdacs	r0, {r0, r1, r3, r4, r5, r6, r8, r9, sl, fp, ip, sp, lr, pc}
     53c:	e237d100 	eors	sp, r7, #0, 2
     540:	32016a02 	andcc	r6, r1, #8192	; 0x2000
     544:	4658a91a 			; <UNDEFINED> instruction: 0x4658a91a
     548:	ff8cf002 			; <UNDEFINED> instruction: 0xff8cf002
     54c:	2b009b07 	blcs	0x27170
     550:	e128d000 			; <UNDEFINED> instruction: 0xe128d000
     554:	2b039b06 	blcs	0xe7174
     558:	e1a7d100 			; <UNDEFINED> instruction: 0xe1a7d100
     55c:	46524650 			; <UNDEFINED> instruction: 0x46524650
     560:	7919ab14 	ldmdbvc	r9, {r2, r4, r8, r9, fp, sp, pc}
     564:	79597111 	ldmdbvc	r9, {r0, r4, r8, ip, sp, lr}^
     568:	79997151 	ldmibvc	r9, {r0, r4, r6, r8, ip, sp, lr}
     56c:	79d97191 	ldmibvc	r9, {r0, r4, r7, r8, ip, sp, lr}^
     570:	71d13304 	bicsvc	r3, r1, r4, lsl #6
     574:	429d3204 	addsmi	r3, sp, #4, 4	; 0x40000000
     578:	a914d1f3 	ldmdbge	r4, {r0, r1, r4, r5, r6, r7, r8, ip, lr, pc}
     57c:	9b06468c 	blls	0x191fb4
     580:	1c5a9907 			; <UNDEFINED> instruction: 0x1c5a9907
     584:	44630093 	strbtmi	r0, [r3], #-147	; 0xffffff6d
     588:	2104468c 	tstcs	r4, ip, lsl #13
     58c:	56594463 	ldrbpl	r4, [r9], -r3, ror #8
     590:	1e4e2303 	cdpne	3, 4, cr2, cr14, cr3, {0}
     594:	403b17f7 			; <UNDEFINED> instruction: 0x403b17f7
     598:	9b06199e 	blls	0x186c18
     59c:	1af310b6 	bne	0xffcc487c
     5a0:	1ab617df 	bne	0xfed86524
     5a4:	407b19db 	ldrsbmi	r1, [fp], #-155	; 0xffffff65	; <UNPREDICTABLE>
     5a8:	19f617f7 	ldmibne	r6!, {r0, r1, r2, r4, r5, r6, r7, r8, r9, sl, ip}^
     5ac:	9f0b407e 	svcls	0x000b407e
     5b0:	1b9b46bc 	blne	0xfe6d20a8
     5b4:	061b4463 	ldreq	r4, [fp], -r3, ror #8
     5b8:	9e07161b 	mcrls	6, 0, r1, cr7, cr11, {0}
     5bc:	46539301 	ldrbmi	r9, [r3], -r1, lsl #6
     5c0:	444346b4 	strbmi	r4, [r3], #-1716	; 0xfffff94c
     5c4:	71194463 	tstvc	r9, r3, ror #8
     5c8:	0e1b0613 	mrceq	6, 0, r0, cr11, cr3, {0}
     5cc:	23ff9302 	mvnscs	r9, #134217728	; 0x8000000
     5d0:	22004013 	andcs	r4, r0, #19
     5d4:	4453009b 	ldrbmi	r0, [r3], #-155	; 0xffffff65
     5d8:	711a4463 	tstvc	sl, r3, ror #8
     5dc:	44532314 	ldrbmi	r2, [r3], #-788	; 0xfffffcec
     5e0:	00192200 	andseq	r2, r9, r0, lsl #4
     5e4:	4f324684 	svcmi	0x00324684
     5e8:	2300ae21 	tstcs	r0, #528	; 0x210
     5ec:	00020010 	andeq	r0, r2, r0, lsl r0
     5f0:	56f0437a 			; <UNDEFINED> instruction: 0x56f0437a
     5f4:	18103301 	ldmdane	r0, {r0, r8, r9, ip, sp}
     5f8:	d1f82b04 	mvnsle	r2, r4, lsl #22
     5fc:	00023604 	andeq	r3, r2, r4, lsl #12
     600:	d1f2428e 	mvnsle	r4, lr, lsl #5
     604:	a90e2630 	stmdbge	lr, {r4, r5, r9, sl, sp}
     608:	19893b03 	stmibne	r9, {r0, r1, r8, r9, fp, ip, sp}
     60c:	2131700b 	teqcs	r1, fp
     610:	185bab0e 	ldmdane	fp, {r1, r2, r3, r8, r9, fp, sp, pc}^
     614:	70199902 	andsvc	r9, r9, r2, lsl #18
     618:	ab0e2132 	blge	0x388ae8
     61c:	9907185b 	stmdbls	r7, {r0, r1, r3, r4, r6, fp, ip}
     620:	21337019 	teqcs	r3, r9, lsl r0
     624:	185bab0e 	ldmdane	fp, {r1, r2, r3, r8, r9, fp, sp, pc}^
     628:	70199901 	andsvc	r9, r9, r1, lsl #18
     62c:	46604651 			; <UNDEFINED> instruction: 0x46604651
     630:	ab1a921f 	blge	0x6a4eb4
     634:	79023110 	stmdbvc	r2, {r4, r8, ip, sp}
     638:	7942711a 	stmdbvc	r2, {r1, r3, r4, r8, ip, sp, lr}^
     63c:	7982715a 	stmibvc	r2, {r1, r3, r4, r6, r8, ip, sp, lr}
     640:	79c2719a 	stmibvc	r2, {r1, r3, r4, r7, r8, ip, sp, lr}^
     644:	71da3004 	bicsvc	r3, sl, r4
     648:	42813304 	addmi	r3, r1, #4, 6	; 0x10000000
     64c:	a914d1f3 	ldmdbge	r4, {r0, r1, r4, r5, r6, r7, r8, ip, lr, pc}
     650:	f0024658 			; <UNDEFINED> instruction: 0xf0024658
     654:	2800feed 	stmdacs	r0, {r0, r2, r3, r5, r6, r7, r9, sl, fp, ip, sp, lr, pc}
     658:	e1a6d100 			; <UNDEFINED> instruction: 0xe1a6d100
     65c:	32016a02 	andcc	r6, r1, #8192	; 0x2000
     660:	4658a91a 			; <UNDEFINED> instruction: 0x4658a91a
     664:	fefef002 			; <UNDEFINED> instruction: 0xfefef002
     668:	2b009b06 	blcs	0x27288
     66c:	e11dd000 	tst	sp, r0
     670:	4b0b465a 	blmi	0x2d1fe0
     674:	4a0f58d4 	bmi	0x3d69cc
     678:	9b054694 	blls	0x1520d0
     67c:	2b004463 	blcs	0x11810
     680:	2c00d002 	stccs	0, cr13, [r0], {2}
     684:	e683d000 	str	sp, [r3], r0
     688:	bc3cb031 	ldclt	0, cr11, [ip], #-196	; 0xffffff3c
     68c:	46994690 			; <UNDEFINED> instruction: 0x46994690
     690:	46ab46a2 	strtmi	r4, [fp], r2, lsr #13
     694:	bc01bcf0 	stclt	12, cr11, [r1], {240}	; 0xf0
     698:	46c04700 	strbmi	r4, [r0], r0, lsl #14
     69c:	0008000c 	andeq	r0, r8, ip
     6a0:	00080004 	andeq	r0, r8, r4
     6a4:	00080008 	andeq	r0, r8, r8
     6a8:	0300001c 	tsteq	r0, #28
     6ac:	00040004 	andeq	r0, r4, r4
     6b0:	000007b5 			; <UNDEFINED> instruction: 0x000007b5
     6b4:	ffff0000 			; <UNDEFINED> instruction: 0xffff0000
     6b8:	2c012001 	stccs	0, cr2, [r1], {1}
     6bc:	2000dc00 	andcs	sp, r0, r0, lsl #24
     6c0:	fdb2f7ff 			; <UNDEFINED> instruction: 0xfdb2f7ff
     6c4:	025b2380 	subseq	r2, fp, #128, 6
     6c8:	465b469c 			; <UNDEFINED> instruction: 0x465b469c
     6cc:	4464465a 	strbtmi	r4, [r4], #-1626	; 0xfffff9a6
     6d0:	58e300a4 	stmiapl	r3!, {r2, r5, r7}^
     6d4:	505349d4 	ldrsbpl	r4, [r3], #-148	; 0xffffff6c
     6d8:	61da2201 	bicsvs	r2, sl, r1, lsl #4
     6dc:	4658465a 			; <UNDEFINED> instruction: 0x4658465a
     6e0:	58d24bd2 	ldmpl	r2, {r1, r4, r6, r7, r8, r9, fp, lr}^
     6e4:	50c23a01 	sbcpl	r3, r2, r1, lsl #20
     6e8:	46539304 	ldrbmi	r9, [r3], -r4, lsl #6
     6ec:	91032501 	tstls	r3, r1, lsl #10
     6f0:	930d465f 	tstls	sp, #99614720	; 0x5f00000
     6f4:	4561e012 	strbmi	lr, [r1, #-18]!	; 0xffffffee
     6f8:	e152da00 	cmp	r2, r0, lsl #20
     6fc:	f7ff2001 			; <UNDEFINED> instruction: 0xf7ff2001
     700:	4642fd93 			; <UNDEFINED> instruction: 0x4642fd93
     704:	46519b03 	ldrbmi	r9, [r1], -r3, lsl #22
     708:	464a50e2 	strbmi	r5, [sl], -r2, ror #1
     70c:	465a50b1 			; <UNDEFINED> instruction: 0x465a50b1
     710:	465d61cd 	ldrbmi	r6, [sp], -sp, asr #3
     714:	61da58e3 	bicsvs	r5, sl, r3, ror #17
     718:	58fa9b04 	ldmpl	sl!, {r2, r8, r9, fp, ip, pc}^
     71c:	4293006b 	addsmi	r0, r3, #107	; 0x6b
     720:	464ada23 	strbmi	sp, [sl], -r3, lsr #20
     724:	19be00ae 	ldmibne	lr!, {r1, r2, r3, r5, r7}
     728:	6a5058b2 	bvs	0x14169f8
     72c:	464a4690 			; <UNDEFINED> instruction: 0x464a4690
     730:	00ec0001 	rsceq	r0, ip, r1
     734:	58a2193c 	stmiapl	r2!, {r2, r3, r4, r5, r8, fp, ip}
     738:	90016a50 	andls	r6, r1, r0, asr sl
     73c:	46831c58 			; <UNDEFINED> instruction: 0x46831c58
     740:	58209803 	stmdapl	r0!, {r0, r1, fp, ip, pc}
     744:	6a404682 	bvs	0x1012154
     748:	98014684 	stmdals	r1, {r2, r7, r9, sl, lr}
     74c:	42819102 	addmi	r9, r1, #-2147483648	; 0x80000000
     750:	9901dbd1 	stmdbls	r1, {r0, r4, r6, r7, r8, r9, fp, ip, lr, pc}
     754:	dad14561 	ble	0xff451ce0
     758:	46404649 	strbmi	r4, [r0], -r9, asr #12
     75c:	50725060 	rsbspl	r5, r2, r0, rrx
     760:	586261d5 	stmdapl	r2!, {r0, r2, r4, r6, r7, r8, sp, lr}^
     764:	61d3001d 	bicsvs	r0, r3, sp, lsl r0
     768:	990de7d6 	stmdbls	sp, {r1, r2, r4, r6, r7, r8, r9, sl, sp, lr, pc}
     76c:	468a46bb 			; <UNDEFINED> instruction: 0x468a46bb
     770:	d0004293 	mulle	r0, r3, r2
     774:	464be632 			; <UNDEFINED> instruction: 0x464be632
     778:	00e9464c 	rsceq	r4, r9, ip, asr #12
     77c:	58c84459 	stmiapl	r8, {r0, r3, r4, r6, sl, lr}^
     780:	445b00ab 	ldrbmi	r0, [fp], #-171	; 0xffffff55
     784:	6a46591c 	bvs	0x1196bfc
     788:	42be6a67 	adcsmi	r6, lr, #421888	; 0x67000
     78c:	e625db00 	strt	sp, [r5], -r0, lsl #22
     790:	518c464e 	orrpl	r4, ip, lr, asr #12
     794:	61c55198 			; <UNDEFINED> instruction: 0x61c55198
     798:	61da598b 	bicsvs	r5, sl, fp, lsl #19
     79c:	9b06e61e 	blls	0x1ba01c
     7a0:	4698009b 			; <UNDEFINED> instruction: 0x4698009b
     7a4:	4650ad18 			; <UNDEFINED> instruction: 0x4650ad18
     7a8:	ab144652 	blge	0x5120f8
     7ac:	71117919 	tstvc	r1, r9, lsl r9
     7b0:	71517959 	cmpvc	r1, r9, asr r9
     7b4:	71917999 			; <UNDEFINED> instruction: 0x71917999
     7b8:	330479d9 	tstcc	r4, #3555328	; 0x364000
     7bc:	320471d1 	andcc	r7, r4, #1073741876	; 0x40000034
     7c0:	d1f3429d 			; <UNDEFINED> instruction: 0xd1f3429d
     7c4:	9f072604 	svcls	0x00072604
     7c8:	1e7aab14 			; <UNDEFINED> instruction: 0x1e7aab14
     7cc:	189b4443 	ldmne	fp, {r0, r1, r6, sl, lr}
     7d0:	2303579e 	tstcs	r3, #41418752	; 0x2780000
     7d4:	3e019601 	cdpcc	6, 0, cr9, cr1, cr1, {0}
     7d8:	0f8917f1 	svceq	0x008917f1
     7dc:	40331876 	eorsmi	r1, r3, r6, ror r8
     7e0:	1bcb1a59 	blne	0xff2c714c
     7e4:	17df003e 			; <UNDEFINED> instruction: 0x17df003e
     7e8:	19db1a89 	ldmibne	fp, {r0, r3, r7, r9, fp, ip}^
     7ec:	17cf407b 			; <UNDEFINED> instruction: 0x17cf407b
     7f0:	407919c9 	rsbsmi	r1, r9, r9, asr #19
     7f4:	990b1a5b 	stmdbls	fp, {r0, r1, r3, r4, r6, r9, fp, ip}
     7f8:	4463468c 	strbtmi	r4, [r3], #-1676	; 0xfffff974
     7fc:	161b061b 			; <UNDEFINED> instruction: 0x161b061b
     800:	46539302 	ldrbmi	r9, [r3], -r2, lsl #6
     804:	19994443 	ldmibne	r9, {r0, r1, r6, sl, lr}
     808:	710e9e01 	tstvc	lr, r1, lsl #28
     80c:	189a0611 	ldmne	sl, {r0, r4, r9, sl}
     810:	71132300 	tstvc	r3, r0, lsl #6
     814:	0e092314 	mcreq	3, 0, r2, cr9, cr4, {0}
     818:	91014453 	tstls	r1, r3, asr r4
     81c:	00192200 	andseq	r2, r9, r0, lsl #4
     820:	4f834684 	svcmi	0x00834684
     824:	2300ae21 	tstcs	r0, #528	; 0x210
     828:	00020010 	andeq	r0, r2, r0, lsl r0
     82c:	56f0437a 			; <UNDEFINED> instruction: 0x56f0437a
     830:	18103301 	ldmdane	r0, {r0, r8, r9, ip, sp}
     834:	d1f82b04 	mvnsle	r2, r4, lsl #22
     838:	00023604 	andeq	r3, r2, r4, lsl #12
     83c:	d1f2428e 	mvnsle	r4, lr, lsl #5
     840:	a90e2630 	stmdbge	lr, {r4, r5, r9, sl, sp}
     844:	19893b03 	stmibne	r9, {r0, r1, r8, r9, fp, ip, sp}
     848:	2131700b 	teqcs	r1, fp
     84c:	185bab0e 	ldmdane	fp, {r1, r2, r3, r8, r9, fp, sp, pc}^
     850:	70199906 	andsvc	r9, r9, r6, lsl #18
     854:	ab0e2132 	blge	0x388d24
     858:	9901185b 	stmdbls	r1, {r0, r1, r3, r4, r6, fp, ip}
     85c:	21337019 	teqcs	r3, r9, lsl r0
     860:	185bab0e 	ldmdane	fp, {r1, r2, r3, r8, r9, fp, sp, pc}^
     864:	70199902 	andsvc	r9, r9, r2, lsl #18
     868:	46604651 			; <UNDEFINED> instruction: 0x46604651
     86c:	ab1a921f 	blge	0x6a50f0
     870:	79023110 	stmdbvc	r2, {r4, r8, ip, sp}
     874:	7942711a 	stmdbvc	r2, {r1, r3, r4, r8, ip, sp, lr}^
     878:	7982715a 	stmibvc	r2, {r1, r3, r4, r6, r8, ip, sp, lr}
     87c:	79c2719a 	stmibvc	r2, {r1, r3, r4, r7, r8, ip, sp, lr}^
     880:	71da3004 	bicsvc	r3, sl, r4
     884:	42883304 	addmi	r3, r8, #4, 6	; 0x10000000
     888:	a914d1f3 	ldmdbge	r4, {r0, r1, r4, r5, r6, r7, r8, ip, lr, pc}
     88c:	f0024658 			; <UNDEFINED> instruction: 0xf0024658
     890:	2800fdcf 	stmdacs	r0, {r0, r1, r2, r3, r6, r7, r8, sl, fp, ip, sp, lr, pc}
     894:	e091d100 	adds	sp, r1, r0, lsl #2
     898:	32016a02 	andcc	r6, r1, #8192	; 0x2000
     89c:	4658a91a 			; <UNDEFINED> instruction: 0x4658a91a
     8a0:	fde0f002 			; <UNDEFINED> instruction: 0xfde0f002
     8a4:	2b039b06 	blcs	0xe74c4
     8a8:	e657d000 	ldrb	sp, [r7], -r0
     8ac:	46524653 			; <UNDEFINED> instruction: 0x46524653
     8b0:	71117921 	tstvc	r1, r1, lsr #18
     8b4:	71517961 	cmpvc	r1, r1, ror #18
     8b8:	719179a1 	orrsvc	r7, r1, r1, lsr #19
     8bc:	340479e1 	strcc	r7, [r4], #-2529	; 0xfffff61f
     8c0:	320471d1 	andcc	r7, r4, #1073741876	; 0x40000034
     8c4:	d1f342a5 	mvnsle	r4, r5, lsr #5
     8c8:	9f079a06 	svcls	0x00079a06
     8cc:	008e1e51 	addeq	r1, lr, r1, asr lr
     8d0:	a81446bc 	ldmdage	r4, {r2, r3, r4, r5, r7, r9, sl, lr}
     8d4:	20041982 	andcs	r1, r4, r2, lsl #19
     8d8:	56104462 	ldrpl	r4, [r0], -r2, ror #8
     8dc:	1e442203 	cdpne	2, 4, cr2, cr4, cr3, {0}
     8e0:	402a17e5 	eormi	r1, sl, r5, ror #15
     8e4:	9c061912 			; <UNDEFINED> instruction: 0x9c061912
     8e8:	1b151092 	blne	0x544b38
     8ec:	1a5217ec 	bne	0x14868a4
     8f0:	4065192d 	rsbmi	r1, r5, sp, lsr #18
     8f4:	191217d4 	ldmdbne	r2, {r2, r4, r6, r7, r8, r9, sl, ip}
     8f8:	9c0b4062 	stcls	0, cr4, [fp], {98}	; 0x62
     8fc:	1aaa46a4 	bne	0xfea92394
     900:	06124462 	ldreq	r4, [r2], -r2, ror #8
     904:	46941612 			; <UNDEFINED> instruction: 0x46941612
     908:	46b84642 	ldrtmi	r4, [r8], r2, asr #12
     90c:	44424452 	strbmi	r4, [r2], #-1106	; 0xfffffbae
     910:	22007110 	andcs	r7, r0, #16, 2
     914:	44464456 	strbmi	r4, [r6], #-1110	; 0xfffffbaa
     918:	71320609 	teqvc	r2, r9, lsl #12
     91c:	0e0f4656 	mcreq	6, 0, r4, cr15, cr6, {2}
     920:	4d432100 	stfmie	f2, [r3, #-0]
     924:	3614ac21 	ldrcc	sl, [r4], -r1, lsr #24
     928:	00082200 	andeq	r2, r8, r0, lsl #4
     92c:	43690001 	cmnmi	r9, #1
     930:	320156a0 	andcc	r5, r1, #160, 12	; 0xa000000
     934:	2a041808 	bcs	0x10695c
     938:	3404d1f8 	strcc	sp, [r4], #-504	; 0xfffffe08
     93c:	42b40001 	adcsmi	r0, r4, #1
     940:	2430d1f2 	ldrtcs	sp, [r0], #-498	; 0xfffffe0e
     944:	3a03a80e 	bcc	0xea984
     948:	70021900 	andvc	r1, r2, r0, lsl #18
     94c:	aa0e2031 	bge	0x388a18
     950:	70171812 	andsvc	r1, r7, r2, lsl r8
     954:	aa0e3001 	bge	0x38c960
     958:	98071812 	stmdals	r7, {r1, r4, fp, ip}
     95c:	20337010 	eorscs	r7, r3, r0, lsl r0
     960:	1812aa0e 	ldmdane	r2, {r1, r2, r3, r9, fp, sp, pc}
     964:	70104660 	andsvc	r4, r0, r0, ror #12
     968:	911f4650 	tstls	pc, r0, asr r6	; <UNPREDICTABLE>
     96c:	3010aa1a 	andscc	sl, r0, sl, lsl sl
     970:	71117919 	tstvc	r1, r9, lsl r9
     974:	71517959 	cmpvc	r1, r9, asr r9
     978:	71917999 			; <UNDEFINED> instruction: 0x71917999
     97c:	330479d9 	tstcc	r4, #3555328	; 0x364000
     980:	320471d1 	andcc	r7, r4, #1073741876	; 0x40000034
     984:	d1f34298 			; <UNDEFINED> instruction: 0xd1f34298
     988:	4658a914 			; <UNDEFINED> instruction: 0x4658a914
     98c:	fd50f002 			; <UNDEFINED> instruction: 0xfd50f002
     990:	d0102800 	andsle	r2, r0, r0, lsl #16
     994:	32016a02 	andcc	r6, r1, #8192	; 0x2000
     998:	4658a91a 			; <UNDEFINED> instruction: 0x4658a91a
     99c:	fd62f002 			; <UNDEFINED> instruction: 0xfd62f002
     9a0:	9b0de666 	blls	0x37a340
     9a4:	469a46bb 			; <UNDEFINED> instruction: 0x469a46bb
     9a8:	2280e518 	addcs	lr, r0, #24, 10	; 0x6000000
     9ac:	e6570612 			; <UNDEFINED> instruction: 0xe6570612
     9b0:	06122280 	ldreq	r2, [r2], -r0, lsl #5
     9b4:	2280e5c6 	addcs	lr, r0, #830472192	; 0x31800000
     9b8:	e7ed0612 			; <UNDEFINED> instruction: 0xe7ed0612
     9bc:	06122280 	ldreq	r2, [r2], -r0, lsl #5
     9c0:	ab20e76c 	blge	0x83a778
     9c4:	491b469b 	ldmdbmi	fp, {r0, r1, r3, r4, r7, r9, sl, lr}
     9c8:	31400018 	cmpcc	r0, r8, lsl r0
     9cc:	fc90f002 			; <UNDEFINED> instruction: 0xfc90f002
     9d0:	7818465b 	ldmdavc	r8, {r0, r1, r3, r4, r6, r9, sl, lr}
     9d4:	930e9b20 	tstls	lr, #32, 22	; 0x8000
     9d8:	695b465b 	ldmdbvs	fp, {r0, r1, r3, r4, r6, r9, sl, lr}^
     9dc:	465b9313 			; <UNDEFINED> instruction: 0x465b9313
     9e0:	940cac24 	strls	sl, [ip], #-3108	; 0xfffff3dc
     9e4:	7919aa0e 	ldmdbvc	r9, {r1, r2, r3, r9, fp, sp, pc}
     9e8:	79597111 	ldmdbvc	r9, {r0, r4, r8, ip, sp, lr}^
     9ec:	79997151 	ldmibvc	r9, {r0, r4, r6, r8, ip, sp, lr}
     9f0:	79d97191 	ldmibvc	r9, {r0, r4, r7, r8, ip, sp, lr}^
     9f4:	71d13304 	bicsvc	r3, r1, r4, lsl #6
     9f8:	42a33204 	adcmi	r3, r3, #4, 4	; 0x40000000
     9fc:	2800d1f3 	stmdacs	r0, {r0, r1, r4, r5, r6, r7, r8, ip, lr, pc}
     a00:	e463d000 	strbt	sp, [r3], #-0
     a04:	e4992000 	ldr	r2, [r9], #0
     a08:	4658a914 			; <UNDEFINED> instruction: 0x4658a914
     a0c:	fd10f002 			; <UNDEFINED> instruction: 0xfd10f002
     a10:	d0062800 	andle	r2, r6, r0, lsl #16
     a14:	9a056a03 	bls	0x15b228
     a18:	0013435a 	andseq	r4, r3, sl, asr r3
     a1c:	60134a06 	andsvs	r4, r3, r6, lsl #20
     a20:	4b06e632 	blmi	0x1ba2f0
     a24:	46c0e7f7 			; <UNDEFINED> instruction: 0x46c0e7f7
     a28:	00040004 	andeq	r0, r4, r4
     a2c:	00080004 	andeq	r0, r8, r4
     a30:	000007b5 			; <UNDEFINED> instruction: 0x000007b5
     a34:	03000168 	tsteq	r0, #104, 2
     a38:	0300001c 	tsteq	r0, #28
     a3c:	7fffffff 	svcvc	0x00ffffff
     a40:	d0002800 	andle	r2, r0, r0, lsl #16
     a44:	23804770 	orrcs	r4, r0, #112, 14	; 0x1c00000
     a48:	04db2203 	ldrbeq	r2, [fp], #515	; 0x203
     a4c:	4b04701a 	blmi	0x11cabc
     a50:	701a3201 	andsvc	r3, sl, r1, lsl #4
     a54:	321b23c0 	andscc	r2, fp, #192, 6
     a58:	801a04db 			; <UNDEFINED> instruction: 0x801a04db
     a5c:	46c0e7fe 			; <UNDEFINED> instruction: 0x46c0e7fe
     a60:	04000001 	streq	r0, [r0], #-1
     a64:	b5f0b40f 	ldrblt	fp, [r0, #1039]!	; 0x40f
     a68:	464546de 			; <UNDEFINED> instruction: 0x464546de
     a6c:	464e4657 			; <UNDEFINED> instruction: 0x464e4657
     a70:	b083b5e0 	addlt	fp, r3, r0, ror #11
     a74:	cb01ab0c 	blgt	0x6b6ac
     a78:	78059301 	stmdavc	r5, {r0, r8, r9, ip, pc}
     a7c:	4c894b88 			; <UNDEFINED> instruction: 0x4c894b88
     a80:	2d00469b 	stccs	6, cr4, [r0, #-620]	; 0xfffffd94
     a84:	2101d035 	tstcs	r1, r5, lsr r0
     a88:	d13d2d25 	teqle	sp, r5, lsr #26
     a8c:	469a1c83 	ldrmi	r1, [sl], r3, lsl #25
     a90:	2b647843 	blcs	0x191eba4
     a94:	d947d05a 	stmdble	r7, {r1, r3, r4, r6, ip, lr, pc}^
     a98:	d1002b73 	tstle	r0, r3, ror fp
     a9c:	2b75e07d 	blcs	0x1d78c98
     aa0:	9b01d123 	blls	0x74f34
     aa4:	681b1d1a 	ldmdavs	fp, {r1, r3, r4, r8, sl, fp, ip}
     aa8:	46999201 	ldrmi	r9, [r9], r1, lsl #4
     aac:	d0002b00 	andle	r2, r0, r0, lsl #22
     ab0:	2701e08f 	strcs	lr, [r1, -pc, lsl #1]
     ab4:	33304d7a 	teqcc	r0, #7808	; 0x1e80
     ab8:	2300702b 	tstcs	r0, #43	; 0x2b
     abc:	782855eb 	stmdavc	r8!, {r0, r1, r3, r5, r6, r7, r8, sl, ip, lr}
     ac0:	d0122800 	andsle	r2, r2, r0, lsl #16
     ac4:	21012701 	tstcs	r1, r1, lsl #14
     ac8:	35014e77 	strcc	r4, [r1, #-3703]	; 0xfffff189
     acc:	001a7823 	andseq	r7, sl, r3, lsr #16
     ad0:	400a085b 	andmi	r0, sl, fp, asr r8
     ad4:	d1f9429a 			; <UNDEFINED> instruction: 0xd1f9429a
     ad8:	78237030 	stmdavc	r3!, {r4, r5, ip, sp, lr}
     adc:	7023407b 	eorvc	r4, r3, fp, ror r0
     ae0:	1e6b3501 	cdpne	5, 6, cr3, cr11, cr1, {0}
     ae4:	28007818 	stmdacs	r0, {r3, r4, fp, ip, sp, lr}
     ae8:	4650d1f0 			; <UNDEFINED> instruction: 0x4650d1f0
     aec:	2d007805 	stccs	8, cr7, [r0, #-20]	; 0xffffffec
     af0:	2000d1c9 	andcs	sp, r0, r9, asr #3
     af4:	bc3cb003 	ldclt	0, cr11, [ip], #-12
     af8:	46994690 			; <UNDEFINED> instruction: 0x46994690
     afc:	46ab46a2 	strtmi	r4, [fp], r2, lsr #13
     b00:	bc08bcf0 	stclt	12, cr11, [r8], {240}	; 0xf0
     b04:	4718b004 	ldrmi	fp, [r8, -r4]
     b08:	001a7823 	andseq	r7, sl, r3, lsr #16
     b0c:	400a085b 	andmi	r0, sl, fp, asr r8
     b10:	d1f9429a 			; <UNDEFINED> instruction: 0xd1f9429a
     b14:	4b642201 	blmi	0x1909320
     b18:	7823701d 	stmdavc	r3!, {r0, r2, r3, r4, ip, sp, lr}
     b1c:	70234053 	eorvc	r4, r3, r3, asr r0
     b20:	469a1c43 	ldrmi	r1, [sl], r3, asr #24
     b24:	e7e14650 			; <UNDEFINED> instruction: 0xe7e14650
     b28:	d1de2b25 	bicsle	r2, lr, r5, lsr #22
     b2c:	78232101 	stmdavc	r3!, {r0, r8, sp}
     b30:	085b001a 	ldmdaeq	fp, {r1, r3, r4}^
     b34:	429a400a 	addsmi	r4, sl, #10
     b38:	2225d1f9 	eorcs	sp, r5, #1073741886	; 0x4000003e
     b3c:	701a4b5a 	andsvc	r4, sl, sl, asr fp
     b40:	78232201 	stmdavc	r3!, {r0, r9, sp}
     b44:	70234053 	eorvc	r4, r3, r3, asr r0
     b48:	e7cf4650 			; <UNDEFINED> instruction: 0xe7cf4650
     b4c:	1d1a9b01 			; <UNDEFINED> instruction: 0x1d1a9b01
     b50:	9201681b 	andls	r6, r1, #1769472	; 0x1b0000
     b54:	2b004699 	blcs	0x125c0
     b58:	d000db6b 	andle	sp, r0, fp, ror #22
     b5c:	4d50e099 	ldclmi	0, cr14, [r0, #-612]	; 0xfffffd9c
     b60:	702b3330 	eorvc	r3, fp, r0, lsr r3
     b64:	23004a51 	tstcs	r0, #331776	; 0x51000
     b68:	78287013 	stmdavc	r8!, {r0, r1, r4, ip, sp, lr}
     b6c:	d0bc2800 	adcsle	r2, ip, r0, lsl #16
     b70:	21012701 	tstcs	r1, r1, lsl #14
     b74:	35014e4c 	strcc	r4, [r1, #-3660]	; 0xfffff1b4
     b78:	001a7823 	andseq	r7, sl, r3, lsr #16
     b7c:	400a085b 	andmi	r0, sl, fp, asr r8
     b80:	d1f9429a 			; <UNDEFINED> instruction: 0xd1f9429a
     b84:	78237030 	stmdavc	r3!, {r4, r5, ip, sp, lr}
     b88:	7023407b 	eorvc	r4, r3, fp, ror r0
     b8c:	1e6b3501 	cdpne	5, 6, cr3, cr11, cr1, {0}
     b90:	28007818 	stmdacs	r0, {r3, r4, fp, ip, sp, lr}
     b94:	4650d1f0 			; <UNDEFINED> instruction: 0x4650d1f0
     b98:	9b01e7a8 	blls	0x7aa40
     b9c:	78056818 	stmdavc	r5, {r3, r4, fp, sp, lr}
     ba0:	92011d1a 	andls	r1, r1, #1664	; 0x680
     ba4:	d0a02d00 	adcle	r2, r0, r0, lsl #26
     ba8:	21012701 	tstcs	r1, r1, lsl #14
     bac:	30014e3e 	andcc	r4, r1, lr, lsr lr
     bb0:	001a7823 	andseq	r7, sl, r3, lsr #16
     bb4:	400a085b 	andmi	r0, sl, fp, asr r8
     bb8:	d1f9429a 			; <UNDEFINED> instruction: 0xd1f9429a
     bbc:	78237035 	stmdavc	r3!, {r0, r2, r4, r5, ip, sp, lr}
     bc0:	7023407b 	eorvc	r4, r3, fp, ror r0
     bc4:	1e433001 	cdpne	0, 4, cr3, cr3, cr1, {0}
     bc8:	2d00781d 	stccs	8, cr7, [r0, #-116]	; 0xffffff8c
     bcc:	4650d1f0 			; <UNDEFINED> instruction: 0x4650d1f0
     bd0:	2300e78c 	tstcs	r0, #140, 14	; 0x2300000
     bd4:	4698464f 	ldrmi	r4, [r8], pc, asr #12
     bd8:	e00146d9 			; <UNDEFINED> instruction: 0xe00146d9
     bdc:	000746a8 	andeq	r4, r7, r8, lsr #13
     be0:	210a4643 	tstcs	sl, r3, asr #12
     be4:	1c5d0038 	ldclne	0, cr0, [sp], {56}	; 0x38
     be8:	fa66f004 			; <UNDEFINED> instruction: 0xfa66f004
     bec:	060e3130 			; <UNDEFINED> instruction: 0x060e3130
     bf0:	0e364b2f 			; <UNDEFINED> instruction: 0x0e364b2f
     bf4:	210a555e 	tstcs	sl, lr, asr r5
     bf8:	f0040038 			; <UNDEFINED> instruction: 0xf0040038
     bfc:	2f09fa61 	svccs	0x0009fa61
     c00:	4643d8ec 	strbmi	sp, [r3], -ip, ror #17
     c04:	464d002f 	strbmi	r0, [sp], -pc, lsr #32
     c08:	d0462b00 	suble	r2, r6, r0, lsl #22
     c0c:	2300465a 	tstcs	r0, #94371840	; 0x5a00000
     c10:	46404442 	strbmi	r4, [r0], -r2, asr #8
     c14:	e00046cc 	and	r4, r0, ip, asr #13
     c18:	46597816 			; <UNDEFINED> instruction: 0x46597816
     c1c:	5cc9465d 	stclpl	6, cr4, [r9], {93}	; 0x5d
     c20:	330154ee 	tstcc	r1, #-301989888	; 0xee000000
     c24:	3a017011 	bcc	0x5cc70
     c28:	428b1ac1 	addmi	r1, fp, #790528	; 0xc1000
     c2c:	4665d3f4 			; <UNDEFINED> instruction: 0x4665d3f4
     c30:	232de743 			; <UNDEFINED> instruction: 0x232de743
     c34:	702b4d1a 	eorvc	r4, fp, sl, lsl sp
     c38:	425b464b 	subsmi	r4, fp, #78643200	; 0x4b00000
     c3c:	23014699 	tstcs	r1, #160432128	; 0x9900000
     c40:	002b4698 	mlaeq	fp, r8, r6, r4
     c44:	464d4647 	strbmi	r4, [sp], -r7, asr #12
     c48:	e0004699 	mul	r0, r9, r6
     c4c:	0028001f 	eoreq	r0, r8, pc, lsl r0
     c50:	f004210a 			; <UNDEFINED> instruction: 0xf004210a
     c54:	464bfa25 	strbmi	pc, [fp], -r5, lsr #20	; <UNPREDICTABLE>
     c58:	060e3130 			; <UNDEFINED> instruction: 0x060e3130
     c5c:	55de0e36 	ldrbpl	r0, [lr, #3638]	; 0xe36
     c60:	210a0028 	tstcs	sl, r8, lsr #32
     c64:	fa20f004 			; <UNDEFINED> instruction: 0xfa20f004
     c68:	00054b10 	andeq	r4, r5, r0, lsl fp
     c6c:	1c7b19da 			; <UNDEFINED> instruction: 0x1c7b19da
     c70:	d1eb2800 	mvnle	r2, r0, lsl #16
     c74:	4547464d 	strbmi	r4, [r7, #-1613]	; 0xfffff9b3
     c78:	e774d800 	ldrb	sp, [r4, -r0, lsl #16]!
     c7c:	e0004643 	and	r4, r0, r3, asr #12
     c80:	5ce95dee 	stclpl	13, cr5, [r9], #952	; 0x3b8
     c84:	55e954ee 	strbpl	r5, [r9, #1262]!	; 0x4ee
     c88:	3f013301 	svccc	0x00013301
     c8c:	d3f742bb 	mvnsle	r4, #-1342177269	; 0xb000000b
     c90:	2300e769 	tstcs	r0, #27525120	; 0x1a40000
     c94:	46984d02 	ldrmi	r4, [r8], r2, lsl #26
     c98:	2701e7d3 			; <UNDEFINED> instruction: 0x2701e7d3
     c9c:	46c0e70d 	strbmi	lr, [r0], sp, lsl #14
     ca0:	03000020 	tsteq	r0, #32
     ca4:	04000401 	streq	r0, [r0], #-1025	; 0xfffffbff
     ca8:	04000400 	streq	r0, [r0], #-1024	; 0xfffffc00
     cac:	03000021 	tsteq	r0, #33	; 0x21
     cb0:	0300001f 	tsteq	r0, #31
     cb4:	b5f02280 	ldrblt	r2, [r0, #640]!	; 0x280
     cb8:	464f46d6 			; <UNDEFINED> instruction: 0x464f46d6
     cbc:	4d314646 	ldcmi	6, cr4, [r1, #-280]!	; 0xfffffee8
     cc0:	04924b31 	ldreq	r4, [r2], #2865	; 0xb31
     cc4:	665ab5c0 	ldrbvs	fp, [sl], -r0, asr #11
     cc8:	4f30682b 	svcmi	0x0030682b
     ccc:	000c681b 	andeq	r6, ip, fp, lsl r8
     cd0:	f8e0f000 			; <UNDEFINED> instruction: 0xf8e0f000
     cd4:	783a4b2e 	ldmdavc	sl!, {r1, r2, r3, r5, r8, r9, fp, lr}
     cd8:	781b469a 	ldmdavc	fp, {r1, r3, r4, r7, r9, sl, lr}
     cdc:	43130212 	tstmi	r3, #536870913	; 0x20000001
     ce0:	78114a2c 	ldmdavc	r1, {r2, r3, r5, r9, fp, lr}
     ce4:	4319021b 	tstmi	r9, #-1342177279	; 0xb0000001
     ce8:	46994b2b 	ldrmi	r4, [r9], fp, lsr #22
     cec:	469c781b 			; <UNDEFINED> instruction: 0x469c781b
     cf0:	02084666 	andeq	r4, r8, #106954752	; 0x6600000
     cf4:	43060e0b 	tstmi	r6, #11, 28	; 0xb0
     cf8:	00304690 	mlaseq	r0, r0, r6, r4
     cfc:	00190032 	andseq	r0, r9, r2, lsr r0
     d00:	41591880 	cmpmi	r9, r0, lsl #17
     d04:	41591880 	cmpmi	r9, r0, lsl #17
     d08:	0281028b 	addeq	r0, r1, #-1342177272	; 0xb0000008
     d0c:	0d82468c 	stceq	6, cr4, [r2, #560]	; 0x230
     d10:	4660431a 			; <UNDEFINED> instruction: 0x4660431a
     d14:	23000011 	tstcs	r0, #17
     d18:	f0044a20 			; <UNDEFINED> instruction: 0xf0044a20
     d1c:	682bf9c9 	stmdavs	fp!, {r0, r3, r6, r7, r8, fp, ip, sp, lr, pc}
     d20:	685b60a0 	ldmdavs	fp, {r5, r7, sp, lr}^
     d24:	f8b6f000 			; <UNDEFINED> instruction: 0xf8b6f000
     d28:	783a4653 	ldmdavc	sl!, {r0, r1, r4, r6, r9, sl, lr}
     d2c:	0212781b 	andseq	r7, r2, #1769472	; 0x1b0000
     d30:	46424313 			; <UNDEFINED> instruction: 0x46424313
     d34:	021b7811 	andseq	r7, fp, #1114112	; 0x110000
     d38:	464b4319 			; <UNDEFINED> instruction: 0x464b4319
     d3c:	0208781e 	andeq	r7, r8, #1966080	; 0x1e0000
     d40:	43060e0b 	tstmi	r6, #11, 28	; 0xb0
     d44:	00300032 	eorseq	r0, r0, r2, lsr r0
     d48:	18800019 	stmne	r0, {r0, r3, r4}
     d4c:	18804159 	stmne	r0, {r0, r3, r4, r6, r8, lr}
     d50:	028b4159 	addeq	r4, fp, #1073741846	; 0x40000016
     d54:	02860d82 	addeq	r0, r6, #8320	; 0x2080
     d58:	0030431a 	eorseq	r4, r0, sl, lsl r3
     d5c:	23000011 	tstcs	r0, #17
     d60:	f0044a0e 			; <UNDEFINED> instruction: 0xf0044a0e
     d64:	68a3f9a5 	stmiavs	r3!, {r0, r2, r5, r7, r8, fp, ip, sp, lr, pc}
     d68:	682b1ac0 	stmdavs	fp!, {r6, r7, r9, fp, ip}
     d6c:	689b60a0 	ldmvs	fp, {r5, r7, sp, lr}
     d70:	f890f000 			; <UNDEFINED> instruction: 0xf890f000
     d74:	bc1c6020 	ldclt	0, cr6, [ip], {32}
     d78:	46994690 			; <UNDEFINED> instruction: 0x46994690
     d7c:	bcf046a2 	ldcllt	6, cr4, [r0], #648	; 0x288
     d80:	4700bc01 	strmi	fp, [r0, -r1, lsl #24]
     d84:	03000154 	tsteq	r0, #84, 2
     d88:	03000020 	tsteq	r0, #32
     d8c:	04000105 	streq	r0, [r0], #-261	; 0xfffffefb
     d90:	04000104 	streq	r0, [r0], #-260	; 0xfffffefc
     d94:	04000101 	streq	r0, [r0], #-257	; 0xfffffeff
     d98:	04000100 	streq	r0, [r0], #-256	; 0xffffff00
     d9c:	0000c350 	andeq	ip, r0, r0, asr r3
     da0:	2a00b510 	bcs	0x2e1e8
     da4:	4b07d00c 	blmi	0x1f4ddc
     da8:	6898681b 	ldmvs	r8, {r0, r1, r3, r4, fp, sp, lr}
     dac:	00042364 	andeq	r2, r4, r4, ror #6
     db0:	0011435c 	andseq	r4, r1, ip, asr r3
     db4:	f0040020 			; <UNDEFINED> instruction: 0xf0040020
     db8:	bc10f983 			; <UNDEFINED> instruction: 0xbc10f983
     dbc:	4708bc02 	strmi	fp, [r8, -r2, lsl #24]
     dc0:	e7fa2000 	ldrb	r2, [sl, r0]!
     dc4:	03000158 	tsteq	r0, #88, 2
     dc8:	4a13230f 	bmi	0x4c9a0c
     dcc:	6e55b570 	mrcvs	5, 2, fp, cr5, cr0, {3}
     dd0:	d001402b 	andle	r4, r1, fp, lsr #32
     dd4:	35101aed 	ldrcc	r1, [r0, #-2797]	; 0xfffff513
     dd8:	182c23fe 	stmdane	ip!, {r1, r2, r3, r4, r5, r6, r7, r8, r9, sp}
     ddc:	061b2000 	ldreq	r2, [fp], -r0
     de0:	4b0e18e6 	blmi	0x387180
     de4:	414042b3 	strhmi	r4, [r0, #-35]	; 0xffffffdd
     de8:	f7ff6654 			; <UNDEFINED> instruction: 0xf7ff6654
     dec:	002bfe29 	eoreq	pc, fp, r9, lsr #28
     df0:	42ac2200 	adcmi	r2, ip, #0, 4
     df4:	701ad003 	andsvc	sp, sl, r3
     df8:	429c3301 	addsmi	r3, ip, #67108864	; 0x4000000
     dfc:	2000d1fb 			; <UNDEFINED> instruction: 0x2000d1fb
     e00:	681b4b07 	ldmdavs	fp, {r0, r1, r2, r8, r9, fp, lr}
     e04:	42b3685b 	adcsmi	r6, r3, #5963776	; 0x5b0000
     e08:	f7ff4140 			; <UNDEFINED> instruction: 0xf7ff4140
     e0c:	0028fe19 	eoreq	pc, r8, r9, lsl lr	; <UNPREDICTABLE>
     e10:	bc02bc70 	stclt	12, cr11, [r2], {112}	; 0x70
     e14:	46c04708 	strbmi	r4, [r0], r8, lsl #14
     e18:	03000020 	tsteq	r0, #32
     e1c:	0003ffff 			; <UNDEFINED> instruction: 0x0003ffff
     e20:	03000158 	tsteq	r0, #88, 2
     e24:	46c04770 			; <UNDEFINED> instruction: 0x46c04770
     e28:	4b022280 	blmi	0x89830
     e2c:	665a0492 			; <UNDEFINED> instruction: 0x665a0492
     e30:	46c04770 			; <UNDEFINED> instruction: 0x46c04770
     e34:	03000020 	tsteq	r0, #32
     e38:	04404b02 	strbeq	r4, [r0], #-2818	; 0xfffff4fe
     e3c:	60180c40 	andsvs	r0, r8, r0, asr #24
     e40:	46c04770 			; <UNDEFINED> instruction: 0x46c04770
     e44:	030001e8 	tsteq	r0, #232, 2	; 0x3a
     e48:	48064b05 	stmdami	r6, {r0, r2, r8, r9, fp, lr}
     e4c:	4342681a 	cmpmi	r2, #1703936	; 0x1a0000
     e50:	4a050010 	bmi	0x140e98
     e54:	44604694 	strbtmi	r4, [r0], #-1684	; 0xfffff96c
     e58:	00406018 	subeq	r6, r0, r8, lsl r0
     e5c:	47700c40 	ldrbmi	r0, [r0, -r0, asr #24]!
     e60:	030001e8 	tsteq	r0, #232, 2	; 0x3a
     e64:	000343fd 			; <UNDEFINED> instruction: 0x000343fd
     e68:	00269ec3 	eoreq	r9, r6, r3, asr #29
     e6c:	e0014b08 	and	r4, r1, r8, lsl #22
     e70:	061b2380 	ldreq	r2, [fp], -r0, lsl #7
     e74:	42883004 	addmi	r3, r8, #4
     e78:	0358d3fa 	cmpeq	r8, #-402653181	; 0xe8000003
     e7c:	11c318c0 	bicne	r1, r3, r0, asr #17
     e80:	00d84043 	sbcseq	r4, r8, r3, asr #32
     e84:	145818c3 	ldrbne	r1, [r8], #-2243	; 0xfffff73d
     e88:	01434058 	cmpeq	r3, r8, asr r0
     e8c:	47701818 			; <UNDEFINED> instruction: 0x47701818
     e90:	811c9dc5 	tsthi	ip, r5, asr #27
     e94:	46c04718 			; <UNDEFINED> instruction: 0x46c04718
     e98:	b5f04b53 	ldrblt	r4, [r0, #2899]!	; 0xb53
     e9c:	46984645 	ldrmi	r4, [r8], r5, asr #12
     ea0:	465746de 			; <UNDEFINED> instruction: 0x465746de
     ea4:	4642464e 	strbmi	r4, [r2], -lr, asr #12
     ea8:	6818b5e0 	ldmdavs	r8, {r5, r6, r7, r8, sl, ip, sp, pc}
     eac:	68557803 	ldmdavs	r5, {r0, r1, fp, ip, sp, lr}^
     eb0:	d1002b00 	tstle	r0, r0, lsl #22
     eb4:	6892e095 	ldmvs	r2, {r0, r2, r4, r7, sp, lr, pc}
     eb8:	46424692 			; <UNDEFINED> instruction: 0x46424692
     ebc:	220068d6 	andcs	r6, r0, #14024704	; 0xd60000
     ec0:	32014691 	andcc	r4, r1, #152043520	; 0x9100000
     ec4:	21002400 	tstcs	r0, r0, lsl #8
     ec8:	46d44693 			; <UNDEFINED> instruction: 0x46d44693
     ecc:	3b2b4f47 	blcc	0xad4bf0
     ed0:	0e1b061b 	mrceq	6, 0, r0, cr11, cr11, {0}
     ed4:	d8152b32 	ldmdale	r5, {r1, r4, r5, r8, r9, fp, sp}
     ed8:	58fb009b 	ldmpl	fp!, {r0, r1, r3, r4, r7}^
     edc:	2d00469f 	stccs	6, cr4, [r0, #-636]	; 0xfffffd84
     ee0:	4662d06d 	strbtmi	sp, [r2], -sp, rrx
     ee4:	006b3d01 	rsbeq	r3, fp, r1, lsl #26
     ee8:	22085a9b 	andcs	r5, r8, #634880	; 0x9b000
     eec:	1934008c 	ldmdbne	r4!, {r2, r3, r7}
     ef0:	009b8063 	addseq	r8, fp, r3, rrx
     ef4:	802218f3 			; <UNDEFINED> instruction: 0x802218f3
     ef8:	23018059 	tstcs	r1, #89	; 0x59
     efc:	31014699 			; <UNDEFINED> instruction: 0x31014699
     f00:	0c090409 	stceq	4, cr0, [r9], {9}
     f04:	4c3a3001 	ldcmi	0, cr3, [sl], #-4
     f08:	428c7803 	addmi	r7, ip, #196608	; 0x30000
     f0c:	425a41a4 	subsmi	r4, sl, #164, 2	; 0x29
     f10:	4264415a 	rsbmi	r4, r4, #-2147483626	; 0x80000016
     f14:	24014322 	strcs	r4, [r1], #-802	; 0xfffffcde
     f18:	d0d82a00 	sbcsle	r2, r8, r0, lsl #20
     f1c:	2b00464b 	blcs	0x12850
     f20:	4643d001 	strbmi	sp, [r3], -r1
     f24:	4643605d 			; <UNDEFINED> instruction: 0x4643605d
     f28:	685d6018 	ldmdavs	sp, {r3, r4, sp, lr}^
     f2c:	18cb4b31 	stmiane	fp, {r0, r4, r5, r8, r9, fp, lr}^
     f30:	4153425a 	cmpmi	r3, sl, asr r2
     f34:	d14b2d00 	cmple	fp, r0, lsl #26
     f38:	d1492b00 	cmple	r9, r0, lsl #22
     f3c:	68d24642 	ldmvs	r2, {r1, r6, r9, sl, lr}^
     f40:	528b0089 	addpl	r0, fp, #137	; 0x89
     f44:	e0442000 	sub	r2, r4, r0
     f48:	008b2207 	addeq	r2, fp, r7, lsl #4
     f4c:	2380539a 	orrcs	r5, r0, #1744830466	; 0x68000002
     f50:	429d009b 	addsmi	r0, sp, #155	; 0x9b
     f54:	4662d033 			; <UNDEFINED> instruction: 0x4662d033
     f58:	5299006b 	addspl	r0, r9, #107	; 0x6b
     f5c:	31012301 	tstcc	r1, r1, lsl #6
     f60:	0c090409 	stceq	4, cr0, [r9], {9}
     f64:	46993501 	ldrmi	r3, [r9], r1, lsl #10
     f68:	2204e7cc 	andcs	lr, r4, #204, 14	; 0x3300000
     f6c:	3101008b 	tstcc	r1, fp, lsl #1
     f70:	539a0409 	orrspl	r0, sl, #150994944	; 0x9000000
     f74:	e7c50c09 	strb	r0, [r5, r9, lsl #24]
     f78:	008b2403 	addeq	r2, fp, r3, lsl #8
     f7c:	04093101 	streq	r3, [r9], #-257	; 0xfffffeff
     f80:	0c09539c 	stceq	3, cr5, [r9], {156}	; 0x9c
     f84:	2206e7be 	andcs	lr, r6, #49807360	; 0x2f80000
     f88:	3101008b 	tstcc	r1, fp, lsl #1
     f8c:	539a0409 	orrspl	r0, sl, #150994944	; 0x9000000
     f90:	e7b70c09 	ldr	r0, [r7, r9, lsl #24]!
     f94:	008b2402 	addeq	r2, fp, r2, lsl #8
     f98:	04093101 	streq	r3, [r9], #-257	; 0xfffffeff
     f9c:	0c09539c 	stceq	3, cr5, [r9], {156}	; 0x9c
     fa0:	2205e7b0 	andcs	lr, r5, #176, 14	; 0x2c00000
     fa4:	3101008b 	tstcc	r1, fp, lsl #1
     fa8:	539a0409 	orrspl	r0, sl, #150994944	; 0x9000000
     fac:	e7a90c09 	str	r0, [r9, r9, lsl #24]!
     fb0:	008b465a 	addeq	r4, fp, sl, asr r6
     fb4:	04093101 	streq	r3, [r9], #-257	; 0xfffffeff
     fb8:	0c09539a 	stceq	3, cr5, [r9], {154}	; 0x9a
     fbc:	464be7a2 	strbmi	lr, [fp], -r2, lsr #15
     fc0:	d0012b00 	andle	r2, r1, r0, lsl #22
     fc4:	605d4643 	subsvs	r4, sp, r3, asr #12
     fc8:	d0012c00 	andle	r2, r1, r0, lsl #24
     fcc:	60184643 	andsvs	r4, r8, r3, asr #12
     fd0:	bc3c2001 	ldclt	0, cr2, [ip], #-4
     fd4:	46994690 			; <UNDEFINED> instruction: 0x46994690
     fd8:	46ab46a2 	strtmi	r4, [fp], r2, lsr #13
     fdc:	bc02bcf0 	stclt	12, cr11, [r2], {240}	; 0xf0
     fe0:	23004708 	tstcs	r0, #8, 14	; 0x200000
     fe4:	e7a52100 	str	r2, [r5, r0, lsl #2]!
     fe8:	03000088 	tsteq	r0, #136	; 0x88
     fec:	080050e0 	stmdaeq	r0, {r5, r6, r7, ip, lr}
     ff0:	00000fff 			; <UNDEFINED> instruction: 0x00000fff
     ff4:	fffff000 			; <UNDEFINED> instruction: 0xfffff000
     ff8:	464eb5f0 			; <UNDEFINED> instruction: 0x464eb5f0
     ffc:	465746de 			; <UNDEFINED> instruction: 0x465746de
    1000:	4b3b4645 	blmi	0xed291c
    1004:	68d9b5e0 	ldmvs	r9, {r5, r6, r7, r8, sl, ip, sp, pc}^
    1008:	b085880e 	addlt	r8, r5, lr, lsl #16
    100c:	d0242e00 	eorle	r2, r4, r0, lsl #28
    1010:	4c38691b 			; <UNDEFINED> instruction: 0x4c38691b
    1014:	4d389301 	ldcmi	3, cr9, [r8, #-4]!
    1018:	000f2300 	andeq	r2, pc, r0, lsl #6
    101c:	46a12200 	strtmi	r2, [r1], r0, lsl #4
    1020:	46aa46a0 	strtmi	r4, [sl], r0, lsr #13
    1024:	930246a4 	tstls	r2, #164, 12	; 0xa400000
    1028:	2e084834 	mcrcs	8, 0, r4, cr8, cr4, {1}
    102c:	00b6d80f 	adcseq	sp, r6, pc, lsl #16
    1030:	46b75986 	ldrtmi	r5, [r7], r6, lsl #19
    1034:	68244c2f 	stmdavs	r4!, {r0, r1, r2, r3, r5, sl, fp, lr}
    1038:	5b360056 	blpl	0xd81198
    103c:	d0272e00 	eorle	r2, r7, r0, lsl #28
    1040:	3301887b 	tstcc	r1, #8060928	; 0x7b0000
    1044:	19cf009f 	stmibne	pc, {r0, r1, r2, r3, r4, r7}^	; <UNPREDICTABLE>
    1048:	2e00883e 	mcrcs	8, 0, r8, cr0, cr14, {1}
    104c:	9b02d126 	blls	0xb54ec
    1050:	d0022b00 	andle	r2, r2, r0, lsl #22
    1054:	4a269b01 	bmi	0x9a7c60
    1058:	b0056113 	andlt	r6, r5, r3, lsl r1
    105c:	4690bc3c 			; <UNDEFINED> instruction: 0x4690bc3c
    1060:	46a24699 			; <UNDEFINED> instruction: 0x46a24699
    1064:	bcf046ab 	ldcllt	6, cr4, [r0], #684	; 0x2ac
    1068:	4700bc01 	strmi	fp, [r0, -r1, lsl #24]
    106c:	6824464c 	stmdavs	r4!, {r2, r3, r6, r9, sl, lr}
    1070:	5b360056 	blpl	0xd811d0
    1074:	d10b2e00 	tstle	fp, r0, lsl #28
    1078:	e7e2887b 			; <UNDEFINED> instruction: 0xe7e2887b
    107c:	9d014644 	stcls	6, cr4, [r1, #-272]	; 0xfffffef0
    1080:	782f6824 	stmdavc	pc!, {r2, r5, fp, sp, lr}	; <UNPREDICTABLE>
    1084:	53370056 	teqpl	r7, #86	; 0x56
    1088:	94011c6c 	strls	r1, [r1], #-3180	; 0xfffff394
    108c:	94022401 	strls	r2, [r2], #-1025	; 0xfffffbff
    1090:	009f3301 	addseq	r3, pc, r1, lsl #6
    1094:	883e19cf 	ldmdahi	lr!, {r0, r1, r2, r3, r6, r7, r8, fp, ip}
    1098:	d0d82e00 	sbcsle	r2, r8, r0, lsl #28
    109c:	42954d18 	addsmi	r4, r5, #24, 26	; 0x600
    10a0:	e7d4d2c3 	ldrb	sp, [r4, r3, asr #5]
    10a4:	682d4d13 	stmdavs	sp!, {r0, r1, r4, r8, sl, fp, lr}
    10a8:	5b770056 	blpl	0x1dc1208
    10ac:	682d4d15 	stmdavs	sp!, {r0, r2, r4, r8, sl, fp, lr}
    10b0:	46559503 	ldrbmi	r9, [r5], -r3, lsl #10
    10b4:	1c75682e 	ldclne	8, cr6, [r5], #-184	; 0xffffff48
    10b8:	465546ab 	ldrbmi	r4, [r5], -fp, lsr #13
    10bc:	602c465c 	eorvs	r4, ip, ip, asr r6
    10c0:	55a79c03 	strpl	r9, [r7, #3075]!	; 0xc03
    10c4:	4665e7e4 	strbtmi	lr, [r5], -r4, ror #15
    10c8:	46ab682d 	strtmi	r6, [fp], sp, lsr #16
    10cc:	445e0056 	ldrbmi	r0, [lr], #-86	; 0xffffffaa
    10d0:	3f018837 	svccc	0x00018837
    10d4:	e7db8037 			; <UNDEFINED> instruction: 0xe7db8037
    10d8:	68364e06 	ldmdavs	r6!, {r1, r2, r9, sl, fp, lr}
    10dc:	19f60057 	ldmibne	r6!, {r0, r1, r2, r4, r6}^
    10e0:	37018837 			; <UNDEFINED> instruction: 0x37018837
    10e4:	e7d38037 			; <UNDEFINED> instruction: 0xe7d38037
    10e8:	e7d13a01 	ldrb	r3, [r1, r1, lsl #20]
    10ec:	e7cf3201 	strb	r3, [pc, r1, lsl #4]
    10f0:	03000088 	tsteq	r0, #136	; 0x88
    10f4:	03000160 	tsteq	r0, #96, 2
    10f8:	03000164 	tsteq	r0, #100, 2
    10fc:	080051ac 	stmdaeq	r0, {r2, r3, r5, r7, r8, ip, lr}
    1100:	00000fff 			; <UNDEFINED> instruction: 0x00000fff
    1104:	0300015c 	tsteq	r0, #92, 2
    1108:	b5f82080 	ldrblt	r2, [r8, #128]!	; 0x80
    110c:	4b1d2400 	blmi	0x74a114
    1110:	4d1d681b 	ldcmi	8, cr6, [sp, #-108]	; 0xffffff94
    1114:	01c0681b 	biceq	r6, r0, fp, lsl r8
    1118:	606c616b 	rsbvs	r6, ip, fp, ror #2
    111c:	fe54f7ff 			; <UNDEFINED> instruction: 0xfe54f7ff
    1120:	208060e8 	addcs	r6, r0, r8, ror #1
    1124:	f7ff00c0 			; <UNDEFINED> instruction: 0xf7ff00c0
    1128:	60a8fe4f 	adcvs	pc, r8, pc, asr #28
    112c:	01802080 	orreq	r2, r0, r0, lsl #1
    1130:	fe4af7ff 			; <UNDEFINED> instruction: 0xfe4af7ff
    1134:	60184b15 	andsvs	r4, r8, r5, lsl fp
    1138:	602b4b15 	eorvs	r4, fp, r5, lsl fp
    113c:	1c58696b 			; <UNDEFINED> instruction: 0x1c58696b
    1140:	fe42f7ff 			; <UNDEFINED> instruction: 0xfe42f7ff
    1144:	20806128 	addcs	r6, r0, r8, lsr #2
    1148:	f7ff0140 			; <UNDEFINED> instruction: 0xf7ff0140
    114c:	4b11fe3d 	blmi	0x480a48
    1150:	4b116018 	blmi	0x4591b8
    1154:	601c2001 	andsvs	r2, ip, r1
    1158:	fe6ef7ff 			; <UNDEFINED> instruction: 0xfe6ef7ff
    115c:	2b00696b 	blcs	0x1b710
    1160:	4f0edd0c 	svcmi	0x000edd0c
    1164:	fe70f7ff 			; <UNDEFINED> instruction: 0xfe70f7ff
    1168:	f003213e 			; <UNDEFINED> instruction: 0xf003213e
    116c:	692eff99 	stmdbvs	lr!, {r0, r3, r4, r7, r8, r9, sl, fp, ip, sp, lr, pc}
    1170:	55335c7b 	ldrpl	r5, [r3, #-3195]!	; 0xfffff385
    1174:	3401696b 	strcc	r6, [r1], #-2411	; 0xfffff695
    1178:	dcf342a3 	lfmle	f4, 2, [r3], #652	; 0x28c
    117c:	bc01bcf8 	stclt	12, cr11, [r1], {248}	; 0xf8
    1180:	46c04700 	strbmi	r4, [r0], r0, lsl #14
    1184:	03000158 	tsteq	r0, #88, 2
    1188:	03000088 	tsteq	r0, #136	; 0x88
    118c:	03000160 	tsteq	r0, #96, 2
    1190:	08005640 	stmdaeq	r0, {r6, r9, sl, ip, lr}
    1194:	0300015c 	tsteq	r0, #92, 2
    1198:	03000164 	tsteq	r0, #100, 2
    119c:	080056f4 	stmdaeq	r0, {r2, r4, r5, r6, r7, r9, sl, ip, lr}
    11a0:	f7ffb510 			; <UNDEFINED> instruction: 0xf7ffb510
    11a4:	f7fffe79 			; <UNDEFINED> instruction: 0xf7fffe79
    11a8:	bc10ff27 	ldclt	15, cr15, [r0], {39}	; 0x27
    11ac:	4700bc01 	strmi	fp, [r0, -r1, lsl #24]
    11b0:	4b0bb570 	blmi	0x2ee778
    11b4:	68184c0b 	ldmdavs	r8, {r0, r1, r3, sl, fp, lr}
    11b8:	18c16823 	stmiane	r1, {r0, r1, r5, fp, sp, lr}^
    11bc:	fe56f7ff 			; <UNDEFINED> instruction: 0xfe56f7ff
    11c0:	68214a09 	stmdavs	r1!, {r0, r3, r9, fp, lr}
    11c4:	00056952 	andeq	r6, r5, r2, asr r9
    11c8:	42912000 	addsmi	r2, r1, #0
    11cc:	4b07d105 	blmi	0x1f55e8
    11d0:	68db681b 	ldmvs	fp, {r0, r1, r3, r4, fp, sp, lr}^
    11d4:	42581b5b 	subsmi	r1, r8, #93184	; 0x16c00
    11d8:	bc704158 	ldflte	f4, [r0], #-352	; 0xfffffea0
    11dc:	4708bc02 	strmi	fp, [r8, -r2, lsl #24]
    11e0:	0300015c 	tsteq	r0, #92, 2
    11e4:	03000164 	tsteq	r0, #100, 2
    11e8:	03000088 	tsteq	r0, #136	; 0x88
    11ec:	03000158 	tsteq	r0, #88, 2
    11f0:	464eb5f8 			; <UNDEFINED> instruction: 0x464eb5f8
    11f4:	46454657 			; <UNDEFINED> instruction: 0x46454657
    11f8:	4b2846de 	blmi	0xa12d78
    11fc:	b5e00089 	strblt	r0, [r0, #137]!	; 0x89
    1200:	58f41846 	ldmpl	r4!, {r1, r2, r6, fp, ip}^
    1204:	00052300 	andeq	r2, r5, r0, lsl #6
    1208:	46990017 			; <UNDEFINED> instruction: 0x46990017
    120c:	d03c1c63 	eorsle	r1, ip, r3, ror #24
    1210:	46984b23 	ldrmi	r4, [r8], r3, lsr #22
    1214:	469a2301 	ldrmi	r2, [sl], r1, lsl #6
    1218:	4b22e006 	blmi	0x8b9238
    121c:	4464469c 	strbtmi	r4, [r4], #-1692	; 0xfffff964
    1220:	596400a4 	stmdbpl	r4!, {r2, r5, r7}^
    1224:	d0301c63 	eorsle	r1, r0, r3, ror #24
    1228:	011b1c63 	tsteq	fp, r3, ror #24
    122c:	685918eb 	ldmdavs	r9, {r0, r1, r3, r5, r6, r7, fp, ip}^
    1230:	58f34643 	ldmpl	r3!, {r0, r1, r6, r9, sl, lr}^
    1234:	4b1c1c5a 	blmi	0x7083a4
    1238:	009b18cb 	addseq	r1, fp, fp, asr #17
    123c:	685b18eb 	ldmdavs	fp, {r0, r1, r3, r5, r6, r7, fp, ip}^
    1240:	d1ea429a 			; <UNDEFINED> instruction: 0xd1ea429a
    1244:	469b0123 	ldrmi	r0, [fp], r3, lsr #2
    1248:	331818eb 	tstcc	r8, #15400960	; 0xeb0000
    124c:	1a82cb05 	bne	0xfe0b3e68
    1250:	dd0042ba 	sfmle	f4, 4, [r0, #-744]	; 0xfffffd18
    1254:	68eb003a 	stmiavs	fp!, {r1, r3, r4, r5}^
    1258:	d0054299 	mulle	r5, r9, r2
    125c:	d0dc2a00 	sbcsle	r2, ip, r0, lsl #20
    1260:	f7ff0028 			; <UNDEFINED> instruction: 0xf7ff0028
    1264:	0002ffc5 	andeq	pc, r2, r5, asr #31
    1268:	ddd62a00 			; <UNDEFINED> instruction: 0xddd62a00
    126c:	18eb465b 	stmiane	fp!, {r0, r1, r3, r4, r6, r9, sl, lr}^
    1270:	188969d9 	stmne	r9, {r0, r3, r4, r6, r7, r8, fp, sp, lr}
    1274:	465361d9 			; <UNDEFINED> instruction: 0x465361d9
    1278:	011b4063 	tsteq	fp, r3, rrx
    127c:	69d918eb 	ldmibvs	r9, {r0, r1, r3, r5, r6, r7, fp, ip}^
    1280:	61d91a89 	bicsvs	r1, r9, r9, lsl #21
    1284:	1abf4491 	bne	0xfefd24d0
    1288:	4648d1c7 	strbmi	sp, [r8], -r7, asr #3
    128c:	4690bc3c 			; <UNDEFINED> instruction: 0x4690bc3c
    1290:	46a24699 			; <UNDEFINED> instruction: 0x46a24699
    1294:	bcf846ab 	ldcllt	6, cr4, [r8], #684	; 0x2ac
    1298:	4708bc02 	strmi	fp, [r8, -r2, lsl #24]
    129c:	000a3124 	andeq	r3, sl, r4, lsr #2
    12a0:	000a2d1c 	andeq	r2, sl, ip, lsl sp
    12a4:	00020906 	andeq	r0, r2, r6, lsl #18
    12a8:	00028b46 	andeq	r8, r2, r6, asr #22
    12ac:	b5f04b7b 	ldrblt	r4, [r0, #2939]!	; 0xb7b
    12b0:	46984645 	ldrmi	r4, [r8], r5, asr #12
    12b4:	465746de 			; <UNDEFINED> instruction: 0x465746de
    12b8:	4642464e 	strbmi	r4, [r2], -lr, asr #12
    12bc:	4b78b5e0 	blmi	0x1e2ea44
    12c0:	681b681b 	ldmdavs	fp, {r0, r1, r3, r4, fp, sp, lr}
    12c4:	2001b083 	andcs	fp, r1, r3, lsl #1
    12c8:	f7ff6013 			; <UNDEFINED> instruction: 0xf7ff6013
    12cc:	4643fdb5 			; <UNDEFINED> instruction: 0x4643fdb5
    12d0:	005b681b 	subseq	r6, fp, fp, lsl r8
    12d4:	48739300 	ldmdami	r3!, {r8, r9, ip, pc}^
    12d8:	93013301 	tstls	r1, #67108864	; 0x4000000
    12dc:	fd74f7ff 			; <UNDEFINED> instruction: 0xfd74f7ff
    12e0:	681c4643 	ldmdavs	ip, {r0, r1, r6, r9, sl, lr}
    12e4:	60581c62 	subsvs	r1, r8, r2, ror #24
    12e8:	60030053 	andvs	r0, r3, r3, asr r0
    12ec:	dd0b2b00 			; <UNDEFINED> instruction: 0xdd0b2b00
    12f0:	468c496d 	strmi	r4, [ip], sp, ror #18
    12f4:	4b6c2101 	blmi	0x1b09700
    12f8:	446200d2 	strbtmi	r0, [r2], #-210	; 0xffffff2e
    12fc:	188218c3 	stmne	r2, {r0, r1, r6, r7, fp, ip}
    1300:	c3024249 	tstgt	r2, #-1879048188	; 0x90000004
    1304:	d1fc4293 			; <UNDEFINED> instruction: 0xd1fc4293
    1308:	60432300 	subvs	r2, r3, r0, lsl #6
    130c:	dc002c00 	stcle	12, cr2, [r0], {-0}
    1310:	469ae0ba 			; <UNDEFINED> instruction: 0x469ae0ba
    1314:	4f644699 	svcmi	0x00644699
    1318:	009b4653 	addseq	r4, fp, r3, asr r6
    131c:	469b2600 	ldrmi	r2, [fp], r0, lsl #12
    1320:	685d4643 	ldmdavs	sp, {r0, r1, r6, r9, sl, lr}^
    1324:	fd90f7ff 			; <UNDEFINED> instruction: 0xfd90f7ff
    1328:	f003210a 			; <UNDEFINED> instruction: 0xf003210a
    132c:	2900feb9 	stmdbcs	r0, {r0, r3, r4, r5, r7, r9, sl, fp, ip, sp, lr, pc}
    1330:	4652d029 	ldrbmi	sp, [r2], -r9, lsr #32
    1334:	3301686b 	tstcc	r1, #7012352	; 0x6b0000
    1338:	18eb011b 	stmiane	fp!, {r0, r1, r3, r4, r8}^
    133c:	464a601a 			; <UNDEFINED> instruction: 0x464a601a
    1340:	465a60da 			; <UNDEFINED> instruction: 0x465a60da
    1344:	605c19a4 	subsvs	r1, ip, r4, lsr #19
    1348:	48586099 	ldmdami	r8, {r0, r3, r4, r7, sp, lr}^
    134c:	18a9686b 	stmiane	r9!, {r0, r1, r3, r5, r6, fp, sp, lr}
    1350:	59c8181a 	stmibpl	r8, {r1, r3, r4, fp, ip}^
    1354:	51500092 			; <UNDEFINED> instruction: 0x51500092
    1358:	606a1c5a 	rsbvs	r1, sl, sl, asr ip
    135c:	51cb4652 	bicpl	r4, fp, r2, asr r6
    1360:	011b3302 	tsteq	fp, r2, lsl #6
    1364:	605a18eb 	subsvs	r1, sl, fp, ror #17
    1368:	601c464a 	andsvs	r4, ip, sl, asr #12
    136c:	60da609a 	smullsvs	r6, sl, sl, r0
    1370:	686b00a4 	stmdavs	fp!, {r2, r5, r7}^
    1374:	192c484d 	stmdbne	ip!, {r0, r2, r3, r6, fp, lr}
    1378:	181a59e1 	ldmdane	sl, {r0, r5, r6, r7, r8, fp, ip, lr}
    137c:	51510092 			; <UNDEFINED> instruction: 0x51510092
    1380:	606a1c5a 	rsbvs	r1, sl, sl, asr ip
    1384:	464351e3 	strbmi	r5, [r3], -r3, ror #3
    1388:	3601681c 			; <UNDEFINED> instruction: 0x3601681c
    138c:	dcc742b4 	sfmle	f4, 2, [r7], {180}	; 0xb4
    1390:	469c2301 	ldrmi	r2, [ip], r1, lsl #6
    1394:	455444e2 	ldrbmi	r4, [r4, #-1250]	; 0xfffffb1e
    1398:	2c00dcbe 	stccs	12, cr13, [r0], {190}	; 0xbe
    139c:	9b00dd74 	blls	0x38974
    13a0:	2500009b 	strcs	r0, [r0, #-155]	; 0xffffff65
    13a4:	469a2600 	ldrmi	r2, [sl], r0, lsl #12
    13a8:	685c4643 	ldmdavs	ip, {r0, r1, r6, r9, sl, lr}^
    13ac:	fd4cf7ff 			; <UNDEFINED> instruction: 0xfd4cf7ff
    13b0:	008921fa 			; <UNDEFINED> instruction: 0x008921fa
    13b4:	fe74f003 			; <UNDEFINED> instruction: 0xfe74f003
    13b8:	d0272900 	eorle	r2, r7, r0, lsl #18
    13bc:	33016863 	tstcc	r1, #6488064	; 0x630000
    13c0:	011b9a00 	tsteq	fp, r0, lsl #20
    13c4:	601a18e3 	andsvs	r1, sl, r3, ror #17
    13c8:	60994652 	addsvs	r4, r9, r2, asr r6
    13cc:	60de605d 	sbcsvs	r6, lr, sp, asr r0
    13d0:	686318a0 	stmdavs	r3!, {r5, r7, fp, ip}^
    13d4:	49354a34 	ldmdbmi	r5!, {r2, r4, r5, r9, fp, lr}
    13d8:	18595887 	ldmdane	r9, {r0, r1, r2, r7, fp, ip, lr}^
    13dc:	510f0089 	tstpl	pc, r9, lsl #1
    13e0:	60611c59 	rsbvs	r1, r1, r9, asr ip
    13e4:	33025083 	tstcc	r2, #131	; 0x83
    13e8:	011b9900 	tsteq	fp, r0, lsl #18
    13ec:	601d18e3 	andsvs	r1, sp, r3, ror #17
    13f0:	609e6059 	addsvs	r6, lr, r9, asr r0
    13f4:	482d60de 	stmdami	sp!, {r1, r2, r3, r4, r6, r7, sp, lr}
    13f8:	00ab6861 	adceq	r6, fp, r1, ror #16
    13fc:	589f18e3 	ldmpl	pc, {r0, r1, r5, r6, r7, fp, ip}	; <UNPREDICTABLE>
    1400:	00801808 	addeq	r1, r0, r8, lsl #16
    1404:	1c485107 	stfnee	f5, [r8], {7}
    1408:	50996060 	addspl	r6, r9, r0, rrx
    140c:	685c4643 	ldmdavs	ip, {r0, r1, r6, r9, sl, lr}^
    1410:	4699681b 			; <UNDEFINED> instruction: 0x4699681b
    1414:	fd18f7ff 			; <UNDEFINED> instruction: 0xfd18f7ff
    1418:	008921fa 			; <UNDEFINED> instruction: 0x008921fa
    141c:	fe40f003 			; <UNDEFINED> instruction: 0xfe40f003
    1420:	d02c2900 	eorle	r2, ip, r0, lsl #18
    1424:	4f20464b 	svcmi	0x0020464b
    1428:	195a46bc 	ldmdbne	sl, {r2, r3, r4, r5, r7, r9, sl, lr}^
    142c:	33016863 	tstcc	r1, #6488064	; 0x630000
    1430:	011b9801 	tsteq	fp, r1, lsl #16
    1434:	601a18e3 	andsvs	r1, sl, r3, ror #17
    1438:	60996058 	addsvs	r6, r9, r8, asr r0
    143c:	009160de 	ldrsbeq	r6, [r1], lr
    1440:	481a6863 	ldmdami	sl, {r0, r1, r5, r6, fp, sp, lr}
    1444:	59cf1861 	stmibpl	pc, {r0, r5, r6, fp, ip}^	; <UNPREDICTABLE>
    1448:	00801818 	addeq	r1, r0, r8, lsl r8
    144c:	46675107 	strbtmi	r5, [r7], -r7, lsl #2
    1450:	60601c58 	rsbvs	r1, r0, r8, asr ip
    1454:	330251cb 	tstcc	r2, #-1073741774	; 0xc0000032
    1458:	18e3011b 	stmiane	r3!, {r0, r1, r3, r4, r8}^
    145c:	4652605a 			; <UNDEFINED> instruction: 0x4652605a
    1460:	609e9801 	addsvs	r9, lr, r1, lsl #16
    1464:	60de6018 	sbcsvs	r6, lr, r8, lsl r0
    1468:	686318a0 	stmdavs	r3!, {r5, r7, fp, ip}^
    146c:	4a0f4910 	bmi	0x3d38b4
    1470:	189a5847 	ldmne	sl, {r0, r1, r2, r6, fp, ip, lr}
    1474:	51170092 			; <UNDEFINED> instruction: 0x51170092
    1478:	60621c5a 	rsbvs	r1, r2, sl, asr ip
    147c:	46435043 	strbmi	r5, [r3], -r3, asr #32
    1480:	3501681b 	strcc	r6, [r1, #-2075]	; 0xfffff7e5
    1484:	dc8f42ab 	sfmle	f4, 4, [pc], {171}	; 0xab
    1488:	bc3cb003 	ldclt	0, cr11, [ip], #-12
    148c:	46994690 			; <UNDEFINED> instruction: 0x46994690
    1490:	46ab46a2 	strtmi	r4, [fp], r2, lsr #13
    1494:	bc01bcf0 	stclt	12, cr11, [r1], {240}	; 0xf0
    1498:	46c04700 	strbmi	r4, [r0], r0, lsl #14
    149c:	030000a0 	tsteq	r0, #160	; 0xa0
    14a0:	03000158 	tsteq	r0, #88, 2
    14a4:	000a3934 	andeq	r3, sl, r4, lsr r9
    14a8:	00082010 	andeq	r2, r8, r0, lsl r0
    14ac:	00020906 	andeq	r0, r2, r6, lsl #18
    14b0:	00082014 	andeq	r2, r8, r4, lsl r0
    14b4:	4645b5f0 			; <UNDEFINED> instruction: 0x4645b5f0
    14b8:	465746de 			; <UNDEFINED> instruction: 0x465746de
    14bc:	4b8c464e 	blmi	0xfe312dfc
    14c0:	469b685c 			; <UNDEFINED> instruction: 0x469b685c
    14c4:	005b681b 	subseq	r6, fp, fp, lsl r8
    14c8:	469ab5e0 	ldrmi	fp, [sl], r0, ror #11
    14cc:	60a31c5d 	adcvs	r1, r3, sp, asr ip
    14d0:	469c6823 	ldrmi	r6, [ip], r3, lsr #16
    14d4:	b08b2300 	addlt	r2, fp, r0, lsl #6
    14d8:	4b869301 	blmi	0xfe1a60e4
    14dc:	93034453 	tstls	r3, #1392508928	; 0x53000000
    14e0:	44530023 	ldrbmi	r0, [r3], #-35	; 0xffffffdd
    14e4:	4b849304 	blmi	0xfe1260fc
    14e8:	44a04698 	strtmi	r4, [r0], #1688	; 0x698
    14ec:	46524643 	ldrbmi	r4, [r2], -r3, asr #12
    14f0:	93074660 	tstls	r7, #96, 12	; 0x6000000
    14f4:	60e51963 	rscvs	r1, r5, r3, ror #18
    14f8:	4b809302 	blmi	0xfe026108
    14fc:	181918e3 	ldmdane	r9, {r0, r1, r5, r6, r7, fp, ip}
    1500:	dd042800 	stcle	8, cr2, [r4, #-0]
    1504:	701e2600 	andsvc	r2, lr, r0, lsl #12
    1508:	428b3301 	addmi	r3, fp, #67108864	; 0x4000000
    150c:	2100d1fa 			; <UNDEFINED> instruction: 0x2100d1fa
    1510:	50e24b7b 	rscpl	r4, r2, fp, ror fp
    1514:	009b9b03 	addseq	r9, fp, r3, lsl #22
    1518:	605918e3 	subsvs	r1, r9, r3, ror #17
    151c:	468c4977 			; <UNDEFINED> instruction: 0x468c4977
    1520:	9b042101 	blls	0x10992c
    1524:	70194463 	andsvc	r4, r9, r3, ror #8
    1528:	46989b07 	ldrmi	r9, [r8], r7, lsl #22
    152c:	95082300 	strls	r2, [r8, #-768]	; 0xfffffd00
    1530:	26010011 			; <UNDEFINED> instruction: 0x26010011
    1534:	4694001d 			; <UNDEFINED> instruction: 0x4694001d
    1538:	00894681 	addeq	r4, r9, r1, lsl #13
    153c:	18634a71 	stmdane	r3!, {r0, r4, r5, r6, r9, fp, lr}^
    1540:	589b9305 	ldmpl	fp, {r0, r2, r8, r9, ip, pc}
    1544:	1c5a3501 	ldclne	5, cr3, [sl], {1}
    1548:	4662d02d 	strbtmi	sp, [r2], -sp, lsr #32
    154c:	486b9209 	stmdami	fp!, {r0, r3, r9, ip, pc}^
    1550:	1c5a4684 	ldclne	6, cr4, [sl], {132}	; 0x84
    1554:	18a20112 	stmiane	r2!, {r1, r4, r8}
    1558:	18626851 	stmdane	r2!, {r0, r4, r6, fp, sp, lr}^
    155c:	78104462 	ldmdavc	r0, {r1, r5, r6, sl, lr}
    1560:	d1172800 	tstle	r7, r0, lsl #16
    1564:	18200118 	stmdane	r0!, {r3, r4, r8}
    1568:	69c06987 	stmibvs	r0, {r0, r1, r2, r7, r8, fp, sp, lr}^
    156c:	dd114287 	lfmle	f4, 4, [r1, #-540]	; 0xfffffde4
    1570:	4f652001 	svcmi	0x00652001
    1574:	4a5f7010 	bmi	0x17dd5bc
    1578:	188a9805 	stmne	sl, {r0, r2, fp, ip, pc}
    157c:	009259c0 	addseq	r5, r2, r0, asr #19
    1580:	900618a2 	andls	r1, r6, r2, lsr #17
    1584:	60503001 	subsvs	r3, r0, r1
    1588:	18b24a60 	ldmne	r2!, {r5, r6, r9, fp, lr}
    158c:	18a20092 	stmiane	r2!, {r1, r4, r7}
    1590:	36016051 			; <UNDEFINED> instruction: 0x36016051
    1594:	46944a5e 			; <UNDEFINED> instruction: 0x46944a5e
    1598:	009b4463 	addseq	r4, fp, r3, ror #8
    159c:	1c5a591b 			; <UNDEFINED> instruction: 0x1c5a591b
    15a0:	9b09d1d5 	blls	0x275cfc
    15a4:	42b5469c 	adcsmi	r4, r5, #156, 12	; 0x9c00000
    15a8:	4643d003 	strbmi	sp, [r3], -r3
    15ac:	4698cb02 	ldrmi	ip, [r8], r2, lsl #22
    15b0:	4952e7c3 	ldmdbmi	r2, {r0, r1, r6, r7, r8, r9, sl, sp, lr, pc}^
    15b4:	468c4662 	strmi	r4, [ip], r2, ror #12
    15b8:	44639b02 	strbtmi	r9, [r3], #-2818	; 0xfffff4fe
    15bc:	9d08781b 	stcls	8, cr7, [r8, #-108]	; 0xffffff94
    15c0:	2b004648 	blcs	0x12ee8
    15c4:	2800d06d 	stmdacs	r0, {r0, r2, r3, r5, r6, ip, lr, pc}
    15c8:	2300dd0c 	tstcs	r0, #12, 26	; 0x300
    15cc:	494d4694 	stmdbmi	sp, {r2, r4, r7, r9, sl, lr}^
    15d0:	49501866 	ldmdbmi	r0, {r1, r2, r5, r6, fp, ip}^
    15d4:	18610087 	stmdane	r1!, {r0, r1, r2, r7}^
    15d8:	50ca58f2 			; <UNDEFINED> instruction: 0x50ca58f2
    15dc:	42bb3304 	adcsmi	r3, fp, #4, 6	; 0x10000000
    15e0:	4662d1fa 			; <UNDEFINED> instruction: 0x4662d1fa
    15e4:	d06845aa 	rsble	r4, r8, sl, lsr #11
    15e8:	009b4653 	addseq	r4, fp, r3, asr r6
    15ec:	44a04698 	strtmi	r4, [r0], #1688	; 0x698
    15f0:	4b484641 	blmi	0x1212efc
    15f4:	1c7358ce 	ldclne	8, cr5, [r3], #-824	; 0xfffffcc8
    15f8:	e77ed100 	ldrb	sp, [lr, -r0, lsl #2]!
    15fc:	4f462300 	svcmi	0x00462300
    1600:	00284699 	mlaeq	r8, r9, r6, r4
    1604:	4b42e006 	blmi	0x10b9624
    1608:	4466469c 	strbtmi	r4, [r6], #-1692	; 0xfffff964
    160c:	593600b6 	ldmdbpl	r6!, {r1, r2, r4, r5, r7}
    1610:	d0321c73 	eorsle	r1, r2, r3, ror ip
    1614:	011b1c73 	tsteq	fp, r3, ror ip
    1618:	685918e3 	ldmdavs	r9, {r0, r1, r5, r6, r7, fp, ip}^
    161c:	4a3a4643 	bmi	0xe92f30
    1620:	9302589b 	tstls	r2, #10158080	; 0x9b0000
    1624:	4b331c5a 	blmi	0xcc8794
    1628:	009b18cb 	addseq	r1, fp, fp, asr #17
    162c:	685b18e3 	ldmdavs	fp, {r0, r1, r5, r6, r7, fp, ip}^
    1630:	d1e8429a 			; <UNDEFINED> instruction: 0xd1e8429a
    1634:	469c231c 			; <UNDEFINED> instruction: 0x469c231c
    1638:	19620135 	stmdbne	r2!, {r0, r2, r4, r5, r8}^
    163c:	449469d3 	ldrmi	r6, [r4], #2515	; 0x9d3
    1640:	1ad26992 	bne	0xff49bc90
    1644:	dc2842ba 	sfmle	f4, 4, [r8], #-744	; 0xfffffd18
    1648:	d0054281 	andle	r4, r5, r1, lsl #5
    164c:	d0da2a00 	sbcsle	r2, sl, r0, lsl #20
    1650:	f7ff0020 			; <UNDEFINED> instruction: 0xf7ff0020
    1654:	0002fdcd 	andeq	pc, r2, sp, asr #27
    1658:	dd342a00 			; <UNDEFINED> instruction: 0xdd342a00
    165c:	69eb1965 	stmibvs	fp!, {r0, r2, r5, r6, r8, fp, ip}^
    1660:	61eb189b 			; <UNDEFINED> instruction: 0x61eb189b
    1664:	40732301 	rsbsmi	r2, r3, r1, lsl #6
    1668:	18e3011b 	stmiane	r3!, {r0, r1, r3, r4, r8}^
    166c:	1a8969d9 	bne	0xfe25bdd8
    1670:	449161d9 	ldrmi	r6, [r1], #473	; 0x1d9
    1674:	68e01abf 	stmiavs	r0!, {r0, r1, r2, r3, r4, r5, r7, r9, fp, ip}^
    1678:	0005d1c5 	andeq	sp, r5, r5, asr #3
    167c:	444b9b01 	strbmi	r9, [fp], #-2817	; 0xfffff4ff
    1680:	4b1c9301 	blmi	0x72628c
    1684:	68a2469c 	stmiavs	r2!, {r2, r3, r4, r7, r9, sl, lr}
    1688:	46634494 			; <UNDEFINED> instruction: 0x46634494
    168c:	18a39303 	stmiane	r3!, {r0, r1, r8, r9, ip, pc}
    1690:	19639304 	stmdbne	r3!, {r2, r8, r9, ip, pc}^
    1694:	93026820 	tstls	r2, #32, 16	; 0x200000
    1698:	4281e72f 	addmi	lr, r1, #12320768	; 0xbc0000
    169c:	003ad015 	eorseq	sp, sl, r5, lsl r0
    16a0:	465be7d6 			; <UNDEFINED> instruction: 0x465be7d6
    16a4:	609a9a01 	addsvs	r9, sl, r1, lsl #20
    16a8:	bc3cb00b 	ldclt	0, cr11, [ip], #-44	; 0xffffffd4
    16ac:	46994690 			; <UNDEFINED> instruction: 0x46994690
    16b0:	46ab46a2 	strtmi	r4, [fp], r2, lsr #13
    16b4:	bc01bcf0 	stclt	12, cr11, [r1], {240}	; 0xf0
    16b8:	49174700 	ldmdbmi	r7, {r8, r9, sl, lr}
    16bc:	9b01468c 	blls	0x530f4
    16c0:	93014463 	tstls	r1, #1660944384	; 0x63000000
    16c4:	68e0e719 	stmiavs	r0!, {r0, r3, r4, r8, r9, sl, sp, lr, pc}^
    16c8:	2f00e79d 	svccs	0x0000e79d
    16cc:	0005dd9b 	muleq	r5, fp, sp
    16d0:	19db4660 	ldmibne	fp, {r5, r6, r9, sl, lr}^
    16d4:	23016003 	tstcs	r1, #3
    16d8:	0136405e 	teqeq	r6, lr, asr r0
    16dc:	69f319a6 	ldmibvs	r3!, {r1, r2, r5, r7, r8, fp, ip}^
    16e0:	61f31bdb 	ldrsbvs	r1, [r3, #187]!	; 0xbb
    16e4:	469c9b01 	ldrmi	r9, [ip], r1, lsl #22
    16e8:	44bc444f 	ldrtmi	r4, [ip], #1103	; 0x44f
    16ec:	e7c74663 	strb	r4, [r7, r3, ror #12]
    16f0:	030000a0 	tsteq	r0, #160	; 0xa0
    16f4:	00028b46 	andeq	r8, r2, r6, asr #22
    16f8:	000a3530 	andeq	r3, sl, r0, lsr r5
    16fc:	000a2c18 	andeq	r2, sl, r8, lsl ip
    1700:	000a352c 	andeq	r3, sl, ip, lsr #10
    1704:	00082010 	andeq	r2, r8, r0, lsl r0
    1708:	000a2d1c 	andeq	r2, sl, ip, lsl sp
    170c:	00028d4a 	andeq	r8, r2, sl, asr #26
    1710:	00020906 	andeq	r0, r2, r6, lsl #18
    1714:	000a3124 	andeq	r3, sl, r4, lsr #2
    1718:	003f3f3f 	eorseq	r3, pc, pc, lsr pc	; <UNPREDICTABLE>
    171c:	681b4b04 	ldmdavs	fp, {r2, r8, r9, fp, lr}
    1720:	4b0468d8 	blmi	0x11ba88
    1724:	1ac0689b 	bne	0xff01b998
    1728:	41584243 	cmpmi	r8, r3, asr #4
    172c:	46c04770 			; <UNDEFINED> instruction: 0x46c04770
    1730:	03000158 	tsteq	r0, #88, 2
    1734:	030000a0 	tsteq	r0, #160	; 0xa0
    1738:	681b4b0d 	ldmdavs	fp, {r0, r2, r3, r8, r9, fp, lr}
    173c:	681cb570 	ldmdavs	ip, {r4, r5, r6, r8, sl, ip, sp, pc}
    1740:	43630023 	cmnmi	r3, #35	; 0x23
    1744:	602c4d0b 	eorvs	r4, ip, fp, lsl #26
    1748:	0020009c 	mlaeq	r0, ip, r0, r0
    174c:	fb3cf7ff 			; <UNDEFINED> instruction: 0xfb3cf7ff
    1750:	00206068 	eoreq	r6, r0, r8, rrx
    1754:	fb38f7ff 			; <UNDEFINED> instruction: 0xfb38f7ff
    1758:	002060a8 	eoreq	r6, r0, r8, lsr #1
    175c:	fb34f7ff 			; <UNDEFINED> instruction: 0xfb34f7ff
    1760:	002060e8 	eoreq	r6, r0, r8, ror #1
    1764:	fb30f7ff 			; <UNDEFINED> instruction: 0xfb30f7ff
    1768:	bc706128 	ldflte	f6, [r0], #-160	; 0xffffff60
    176c:	4700bc01 	strmi	fp, [r0, -r1, lsl #24]
    1770:	03000158 	tsteq	r0, #88, 2
    1774:	030000ac 	tsteq	r0, #172	; 0xac
    1778:	4b80b5f0 	blmi	0xfe02ef40
    177c:	464e46de 			; <UNDEFINED> instruction: 0x464e46de
    1780:	46574645 	ldrbmi	r4, [r7], -r5, asr #12
    1784:	b5e04699 	strblt	r4, [r0, #1689]!	; 0x699
    1788:	689b681d 	ldmvs	fp, {r0, r2, r3, r4, fp, sp, lr}
    178c:	464b469b 			; <UNDEFINED> instruction: 0x464b469b
    1790:	b08d68db 			; <UNDEFINED> instruction: 0xb08d68db
    1794:	2d009308 	stccs	3, cr9, [r0, #-32]	; 0xffffffe0
    1798:	e0ebdc00 	rsc	sp, fp, r0, lsl #24
    179c:	685f464b 	ldmdavs	pc, {r0, r1, r3, r6, r9, sl, lr}^	; <UNPREDICTABLE>
    17a0:	469c00ab 	ldrmi	r0, [ip], fp, lsr #1
    17a4:	46982300 	ldrmi	r2, [r8], r0, lsl #6
    17a8:	93024663 	tstls	r2, #103809024	; 0x6300000
    17ac:	1e6e9b08 			; <UNDEFINED> instruction: 0x1e6e9b08
    17b0:	200046b2 			; <UNDEFINED> instruction: 0x200046b2
    17b4:	465e2400 	ldrbmi	r2, [lr], -r0, lsl #8
    17b8:	4661469c 			; <UNDEFINED> instruction: 0x4661469c
    17bc:	46433401 	strbmi	r3, [r3], -r1, lsl #8
    17c0:	46a42200 	strtmi	r2, [r4], r0, lsl #4
    17c4:	e0109101 	ands	r9, r0, r1, lsl #2
    17c8:	1a514661 	bne	0x1453154
    17cc:	414c424c 	cmpmi	ip, ip, asr #4
    17d0:	50f90021 	rscspl	r0, r9, r1, lsr #32
    17d4:	1a1150f1 	bne	0x455ba0
    17d8:	414c424c 	cmpmi	ip, ip, asr #4
    17dc:	9c010021 	stcls	0, cr0, [r1], {33}	; 0x21
    17e0:	50e13201 	rscpl	r3, r1, r1, lsl #4
    17e4:	42aa3304 	adcmi	r3, sl, #4, 6	; 0x10000000
    17e8:	4582d003 	strmi	sp, [r2, #3]
    17ec:	2101d1ec 	tstcs	r1, ip, ror #3
    17f0:	0023e7ef 	eoreq	lr, r3, pc, ror #15
    17f4:	469c4664 	ldrmi	r4, [ip], r4, ror #12
    17f8:	469b9b02 	ldrmi	r9, [fp], r2, lsl #22
    17fc:	44d83001 	ldrbmi	r3, [r8], #1
    1800:	d1da42a5 	bicsle	r4, sl, r5, lsr #5
    1804:	469c46b3 			; <UNDEFINED> instruction: 0x469c46b3
    1808:	691b464b 	ldmdbvs	fp, {r0, r1, r3, r6, r9, sl, lr}
    180c:	4463469a 	strbtmi	r4, [r3], #-1690	; 0xfffff966
    1810:	9b08930b 	blls	0x226444
    1814:	930a4463 	tstls	sl, #1660944384	; 0x63000000
    1818:	425b00ab 	subsmi	r0, fp, #171	; 0xab
    181c:	231f9306 	tstcs	pc, #402653184	; 0x18000000
    1820:	4b579304 	blmi	0x15e6438
    1824:	00eb9303 	rsceq	r9, fp, r3, lsl #6
    1828:	9309425b 	tstls	r9, #-1342177275	; 0xb0000005
    182c:	93054653 	tstls	r5, #87031808	; 0x5300000
    1830:	9302465b 	tstls	r2, #95420416	; 0x5b00000
    1834:	9a032301 	bls	0xca440
    1838:	d1514213 	cmple	r1, r3, lsl r2
    183c:	dd3e2d00 	ldcle	13, cr2, [lr, #-0]
    1840:	46919a02 	ldrmi	r9, [r1], r2, lsl #20
    1844:	9b052200 	blls	0x14a04c
    1848:	46a84692 			; <UNDEFINED> instruction: 0x46a84692
    184c:	464a469b 			; <UNDEFINED> instruction: 0x464a469b
    1850:	2700465c 			; <UNDEFINED> instruction: 0x2700465c
    1854:	9d024691 	stcls	6, cr4, [r2, #-580]	; 0xfffffdbc
    1858:	00282300 	eoreq	r2, r8, r0, lsl #6
    185c:	2100464e 	tstcs	r0, lr, asr #12
    1860:	60232200 	eorvs	r2, r3, r0, lsl #4
    1864:	68059501 	stmdavs	r5, {r0, r8, sl, ip, pc}
    1868:	435dce08 	cmpmi	sp, #8, 28	; 0x80
    186c:	19493201 	stmdbne	r9, {r0, r9, ip, sp}^
    1870:	44606021 	strbtmi	r6, [r0], #-33	; 0xffffffdf
    1874:	dbf64542 	blle	0xffd92d84
    1878:	37019d01 	strcc	r9, [r1, -r1, lsl #26]
    187c:	35043404 	strcc	r3, [r4, #-1028]	; 0xfffffbfc
    1880:	dbe94547 	blle	0xffa52da4
    1884:	464a2301 	strbmi	r2, [sl], -r1, lsl #6
    1888:	44ca4699 	strbmi	r4, [sl], #1689	; 0x699
    188c:	44e34462 	strbtmi	r4, [r3], #1122	; 0x462
    1890:	dbdd45c2 	blle	0xff752fa0
    1894:	20004645 	andcs	r4, r0, r5, asr #12
    1898:	46672100 	strbtmi	r2, [r7], -r0, lsl #2
    189c:	9e029c05 	cdpls	12, 0, cr9, cr2, cr5, {0}
    18a0:	22000003 	andcs	r0, r0, #3
    18a4:	58e1468c 	stmiapl	r1!, {r2, r3, r7, r9, sl, lr}^
    18a8:	50f13201 	rscspl	r3, r1, r1, lsl #4
    18ac:	42aa3304 	adcmi	r3, sl, #4, 6	; 0x10000000
    18b0:	4661dbf9 			; <UNDEFINED> instruction: 0x4661dbf9
    18b4:	19c03101 	stmibne	r0, {r0, r8, ip, sp}^
    18b8:	dbf142a9 	blle	0xffc52364
    18bc:	9b0346bc 	blls	0xd33b4
    18c0:	9303105b 	tstls	r3, #91	; 0x5b
    18c4:	3b019b04 	blcc	0x684dc
    18c8:	2b009304 	blcs	0x264e0
    18cc:	b00dd1b2 			; <UNDEFINED> instruction: 0xb00dd1b2
    18d0:	4690bc3c 			; <UNDEFINED> instruction: 0x4690bc3c
    18d4:	46a24699 			; <UNDEFINED> instruction: 0x46a24699
    18d8:	bcf046ab 	ldcllt	6, cr4, [r0], #684	; 0x2ac
    18dc:	4700bc01 	strmi	fp, [r0, -r1, lsl #24]
    18e0:	ddec2d00 	stclle	13, cr2, [ip]
    18e4:	46999b0b 	ldrmi	r9, [r9], fp, lsl #22
    18e8:	46982300 	ldrmi	r2, [r8], r0, lsl #6
    18ec:	95079b09 	strls	r9, [r7, #-2825]	; 0xfffff4f7
    18f0:	4665469b 			; <UNDEFINED> instruction: 0x4665469b
    18f4:	9b069e0a 	blls	0x1a9124
    18f8:	469c001a 			; <UNDEFINED> instruction: 0x469c001a
    18fc:	4692444a 	ldrmi	r4, [r2], sl, asr #8
    1900:	9f020014 	svcls	0x00020014
    1904:	230044b4 	tstcs	r0, #180, 8	; 0xb4000000
    1908:	46610038 			; <UNDEFINED> instruction: 0x46610038
    190c:	60232200 	eorvs	r2, r3, r0, lsl #4
    1910:	68079701 	stmdavs	r7, {r0, r8, r9, sl, ip, pc}
    1914:	435fc908 	cmpmi	pc, #8, 18	; 0x20000
    1918:	602219d2 			; <UNDEFINED> instruction: 0x602219d2
    191c:	42b11940 	adcsmi	r1, r1, #64, 18	; 0x100000
    1920:	9f01d1f7 	svcls	0x0001d1f7
    1924:	37043404 	strcc	r3, [r4, -r4, lsl #8]
    1928:	d1ec454c 	mvnle	r4, ip, asr #10
    192c:	465a2301 	ldrbmi	r2, [sl], -r1, lsl #6
    1930:	46534699 			; <UNDEFINED> instruction: 0x46534699
    1934:	44c81a9b 	strbmi	r1, [r8], #2715	; 0xa9b
    1938:	46634699 			; <UNDEFINED> instruction: 0x46634699
    193c:	9b071a9e 	blls	0x1c83bc
    1940:	d1d84598 			; <UNDEFINED> instruction: 0xd1d84598
    1944:	001d46ac 	andseq	r4, sp, ip, lsr #13
    1948:	46629b09 	strbtmi	r9, [r2], -r9, lsl #22
    194c:	46982100 	ldrmi	r2, [r8], r0, lsl #2
    1950:	9c089805 	stcls	8, cr9, [r8], {5}
    1954:	19d69f06 	ldmibne	r6, {r1, r2, r8, r9, sl, fp, ip, pc}^
    1958:	46890033 			; <UNDEFINED> instruction: 0x46890033
    195c:	50e158c1 	rscpl	r5, r1, r1, asr #17
    1960:	429a3304 	addsmi	r3, sl, #4, 6	; 0x10000000
    1964:	4649d1fa 			; <UNDEFINED> instruction: 0x4649d1fa
    1968:	31014643 	tstcc	r1, r3, asr #12
    196c:	42a91af2 	adcmi	r1, r9, #991232	; 0xf2000
    1970:	e765d1f1 			; <UNDEFINED> instruction: 0xe765d1f1
    1974:	469c00ab 	ldrmi	r0, [ip], fp, lsr #1
    1978:	46c0e746 	strbmi	lr, [r0], r6, asr #14
    197c:	030000ac 	tsteq	r0, #172	; 0xac
    1980:	7fffffd3 	svcvc	0x00ffffd3
    1984:	68104a07 	ldmdavs	r0, {r0, r1, r2, r9, fp, lr}
    1988:	00031e41 	andeq	r1, r3, r1, asr #28
    198c:	185b434b 	ldmdane	fp, {r0, r1, r3, r6, r8, r9, lr}^
    1990:	4a0568d1 	bmi	0x15bcdc
    1994:	009b6812 	addseq	r6, fp, r2, lsl r8
    1998:	68d35858 	ldmvs	r3, {r3, r4, r6, fp, ip, lr}^
    199c:	42431ac0 	submi	r1, r3, #192, 20	; 0xc0000
    19a0:	47704158 			; <UNDEFINED> instruction: 0x47704158
    19a4:	030000ac 	tsteq	r0, #172	; 0xac
    19a8:	03000158 	tsteq	r0, #88, 2
    19ac:	681b4b14 	ldmdavs	fp, {r2, r4, r8, r9, fp, lr}
    19b0:	681bb570 	ldmdavs	fp, {r4, r5, r6, r8, sl, ip, sp, pc}
    19b4:	20014d13 	andcs	r4, r1, r3, lsl sp
    19b8:	f7ff602b 			; <UNDEFINED> instruction: 0xf7ff602b
    19bc:	4812fa3d 	ldmdami	r2, {r0, r2, r3, r4, r5, r9, fp, ip, sp, lr, pc}
    19c0:	fa02f7ff 			; <UNDEFINED> instruction: 0xfa02f7ff
    19c4:	68286068 	stmdavs	r8!, {r3, r5, r6, sp, lr}
    19c8:	f9fef7ff 			; <UNDEFINED> instruction: 0xf9fef7ff
    19cc:	682860a8 	stmdavs	r8!, {r3, r5, r7, sp, lr}
    19d0:	30ff3091 	smlalscc	r3, pc, r1, r0	; <UNPREDICTABLE>
    19d4:	f9f8f7ff 			; <UNDEFINED> instruction: 0xf9f8f7ff
    19d8:	60e8682b 	rscvs	r6, r8, fp, lsr #16
    19dc:	dd0c2b00 			; <UNDEFINED> instruction: 0xdd0c2b00
    19e0:	f7ff2400 			; <UNDEFINED> instruction: 0xf7ff2400
    19e4:	211afa31 	tstpcs	sl, r1, lsr sl
    19e8:	fb5af003 			; <UNDEFINED> instruction: 0xfb5af003
    19ec:	316168ae 	cmncc	r1, lr, lsr #17
    19f0:	5531682b 	ldrpl	r6, [r1, #-2091]!	; 0xfffff7d5
    19f4:	42a33401 	adcmi	r3, r3, #16777216	; 0x1000000
    19f8:	bc70dcf3 	ldcllt	12, cr13, [r0], #-972	; 0xfffffc34
    19fc:	4700bc01 	strmi	fp, [r0, -r1, lsl #24]
    1a00:	03000158 	tsteq	r0, #88, 2
    1a04:	030000c0 	tsteq	r0, #192	; 0xc0
    1a08:	00041004 	andeq	r1, r4, r4
    1a0c:	4c05b510 	stcmi	5, cr11, [r5], {16}
    1a10:	68226863 	stmdavs	r2!, {r0, r1, r5, r6, fp, sp, lr}
    1a14:	68a068e1 	stmiavs	r0!, {r0, r5, r6, r7, fp, sp, lr}
    1a18:	fa8ef000 			; <UNDEFINED> instruction: 0xfa8ef000
    1a1c:	bc106120 	ldflts	f6, [r0], {32}
    1a20:	4700bc01 	strmi	fp, [r0, -r1, lsl #24]
    1a24:	030000c0 	tsteq	r0, #192	; 0xc0
    1a28:	330c4b07 	tstcc	ip, #7168	; 0x1c00
    1a2c:	b510cb03 	ldrlt	ip, [r0, #-2819]	; 0xfffff4fd
    1a30:	f7ff1841 			; <UNDEFINED> instruction: 0xf7ff1841
    1a34:	4b05fa1b 	blmi	0x1802a8
    1a38:	68db681b 	ldmvs	fp, {r0, r1, r3, r4, fp, sp, lr}^
    1a3c:	42431a18 	submi	r1, r3, #24, 20	; 0x18000
    1a40:	bc104158 	ldflts	f4, [r0], {88}	; 0x58
    1a44:	4708bc02 	strmi	fp, [r8, -r2, lsl #24]
    1a48:	030000c0 	tsteq	r0, #192	; 0xc0
    1a4c:	03000158 	tsteq	r0, #88, 2
    1a50:	681b4b0f 	ldmdavs	fp, {r0, r1, r2, r3, r8, r9, fp, lr}
    1a54:	681bb570 	ldmdavs	fp, {r4, r5, r6, r8, sl, ip, sp, pc}
    1a58:	20014d0e 	andcs	r4, r1, lr, lsl #26
    1a5c:	f7ff602b 			; <UNDEFINED> instruction: 0xf7ff602b
    1a60:	6828f9eb 	stmdavs	r8!, {r0, r1, r3, r5, r6, r7, r8, fp, ip, sp, lr, pc}
    1a64:	f9b0f7ff 			; <UNDEFINED> instruction: 0xf9b0f7ff
    1a68:	6068682b 	rsbvs	r6, r8, fp, lsr #16
    1a6c:	dd082b00 			; <UNDEFINED> instruction: 0xdd082b00
    1a70:	f7ff2400 			; <UNDEFINED> instruction: 0xf7ff2400
    1a74:	686bf9e9 	stmdavs	fp!, {r0, r3, r5, r6, r7, r8, fp, ip, sp, lr, pc}^
    1a78:	682b5518 	stmdavs	fp!, {r3, r4, r8, sl, ip, lr}
    1a7c:	42a33401 	adcmi	r3, r3, #16777216	; 0x1000000
    1a80:	2010dcf7 			; <UNDEFINED> instruction: 0x2010dcf7
    1a84:	f9a0f7ff 			; <UNDEFINED> instruction: 0xf9a0f7ff
    1a88:	bc7060a8 	ldcllt	0, cr6, [r0], #-672	; 0xfffffd60
    1a8c:	4700bc01 	strmi	fp, [r0, -r1, lsl #24]
    1a90:	03000158 	tsteq	r0, #88, 2
    1a94:	030000d4 	tsteq	r0, #212	; 0xd4
    1a98:	46deb5f0 			; <UNDEFINED> instruction: 0x46deb5f0
    1a9c:	464e4657 			; <UNDEFINED> instruction: 0x464e4657
    1aa0:	b5e04645 	strblt	r4, [r0, #1605]!	; 0x645
    1aa4:	68584b79 	ldmdavs	r8, {r0, r3, r4, r5, r6, r8, r9, fp, lr}^
    1aa8:	b0996819 	addslt	r6, r9, r9, lsl r8
    1aac:	18449002 	stmdane	r4, {r1, ip, pc}^
    1ab0:	689a203f 	ldmvs	sl, {r0, r1, r2, r3, r4, r5, sp}
    1ab4:	40181c4b 	andsmi	r1, r8, fp, asr #24
    1ab8:	d1002838 	tstle	r0, r8, lsr r8
    1abc:	253fe0df 	ldrcs	lr, [pc, #-223]!	; 0x19e5
    1ac0:	002e0018 	eoreq	r0, lr, r8, lsl r0
    1ac4:	40063001 	andmi	r3, r6, r1
    1ac8:	d1fa2e38 	mvnsle	r2, r8, lsr lr
    1acc:	20804680 	addcs	r4, r0, r0, lsl #13
    1ad0:	45437020 	strbmi	r7, [r3, #-32]	; 0xffffffe0
    1ad4:	e0d5d300 	sbcs	sp, r5, r0, lsl #6
    1ad8:	46849802 	strmi	r9, [r4], r2, lsl #16
    1adc:	44632400 	strbtmi	r2, [r3], #-1024	; 0xfffffc00
    1ae0:	701c4440 	andsvc	r4, ip, r0, asr #8
    1ae4:	42983301 	addsmi	r3, r8, #67108864	; 0x4000000
    1ae8:	00cbd1fb 			; <UNDEFINED> instruction: 0x00cbd1fb
    1aec:	70030a1c 	andvc	r0, r3, ip, lsl sl
    1af0:	0c1c7044 	ldceq	0, cr7, [ip], {68}	; 0x44
    1af4:	70840e1b 	addvc	r0, r4, fp, lsl lr
    1af8:	980270c3 	stmdals	r2, {r0, r1, r6, r7, ip, sp, lr}
    1afc:	46844643 	strmi	r4, [r4], r3, asr #12
    1b00:	44633304 	strbtmi	r3, [r3], #-772	; 0xfffffcfc
    1b04:	70190f49 	andsvc	r0, r9, r9, asr #30
    1b08:	70592100 	subsvc	r2, r9, r0, lsl #2
    1b0c:	70d97099 	smullsvc	r7, r9, r9, r0
    1b10:	469a4b5f 			; <UNDEFINED> instruction: 0x469a4b5f
    1b14:	469b4b5f 			; <UNDEFINED> instruction: 0x469b4b5f
    1b18:	4c5f2300 	ldclmi	3, cr2, [pc], {-0}
    1b1c:	93034d5f 	tstls	r3, #6080	; 0x17c0
    1b20:	46ac4643 	strtmi	r4, [ip], r3, asr #12
    1b24:	920146a0 	andls	r4, r1, #160, 12	; 0xa000000
    1b28:	9a039306 	bls	0xe6748
    1b2c:	9b024691 	blls	0x93578
    1b30:	444b9a01 	strbmi	r9, [fp], #-2561	; 0xfffff5ff
    1b34:	a8084691 	stmdage	r8, {r0, r4, r7, r9, sl, lr}
    1b38:	781a7859 	ldmdavc	sl, {r0, r3, r4, r6, fp, ip, sp, lr}
    1b3c:	43110209 	tstmi	r1, #-1879048192	; 0x90000000
    1b40:	0412789a 	ldreq	r7, [r2], #-2202	; 0xfffff766
    1b44:	78da4311 	ldmvc	sl, {r0, r4, r8, r9, lr}^
    1b48:	430a0612 	tstmi	sl, #18874368	; 0x1200000
    1b4c:	aa18c004 	bge	0x631b64
    1b50:	42823304 	addmi	r3, r2, #4, 6	; 0x10000000
    1b54:	464bd1f0 			; <UNDEFINED> instruction: 0x464bd1f0
    1b58:	4667465d 			; <UNDEFINED> instruction: 0x4667465d
    1b5c:	93012100 	tstls	r1, #0, 2
    1b60:	48504b4f 	ldmdami	r0, {r0, r1, r2, r3, r6, r8, r9, fp, lr}^
    1b64:	4b509305 	blmi	0x1426780
    1b68:	182b9304 	stmdane	fp!, {r2, r8, r9, ip, pc}
    1b6c:	46424656 			; <UNDEFINED> instruction: 0x46424656
    1b70:	97072407 	strls	r2, [r7, -r7, lsl #8]
    1b74:	290f469c 	stmdbcs	pc, {r2, r3, r4, r7, r9, sl, lr}	; <UNPREDICTABLE>
    1b78:	291fd922 	ldmdbcs	pc, {r1, r5, r8, fp, ip, lr, pc}	; <UNPREDICTABLE>
    1b7c:	0038d826 	eorseq	sp, r8, r6, lsr #16
    1b80:	008b250f 	addeq	r2, fp, pc, lsl #10
    1b84:	185b4070 	ldmdane	fp, {r4, r5, r6, lr}^
    1b88:	33014010 	tstcc	r1, #16
    1b8c:	402b4078 	eormi	r4, fp, r8, ror r0
    1b90:	ad08009b 	stcge	0, cr0, [r8, #-620]	; 0xfffffd94
    1b94:	446058eb 	strbtmi	r5, [r0], #-2283	; 0xfffff715
    1b98:	202018c3 	eorcs	r1, r0, r3, asr #17
    1b9c:	41e31b04 	mvnmi	r1, r4, lsl #22
    1ba0:	9c05199b 			; <UNDEFINED> instruction: 0x9c05199b
    1ba4:	cc019d04 	stcgt	13, cr9, [r1], {4}
    1ba8:	cd109405 	ldcgt	4, cr9, [r0, #-20]	; 0xffffffec
    1bac:	00159504 	andseq	r9, r5, r4, lsl #10
    1bb0:	003a3101 	eorseq	r3, sl, r1, lsl #2
    1bb4:	001e0037 	andseq	r0, lr, r7, lsr r0
    1bb8:	469c182b 	ldrmi	r1, [ip], fp, lsr #16
    1bbc:	d8dc290f 	ldmle	ip, {r0, r1, r2, r3, r8, fp, sp}^
    1bc0:	40500038 	subsmi	r0, r0, r8, lsr r0
    1bc4:	40504030 	subsmi	r4, r0, r0, lsr r0
    1bc8:	e7e1000b 	strb	r0, [r1, fp]!
    1bcc:	d808292f 	stmdale	r8, {r0, r1, r2, r3, r5, r8, fp, sp}
    1bd0:	250f0038 	strcs	r0, [pc, #-56]	; 0x1ba0
    1bd4:	185b004b 	ldmdane	fp, {r0, r1, r3, r6}^
    1bd8:	33054050 	tstcc	r5, #80	; 0x50
    1bdc:	402b4070 	eormi	r4, fp, r0, ror r0
    1be0:	43d0e7d6 	bicsmi	lr, r0, #56098816	; 0x3580000
    1be4:	40784330 	rsbsmi	r4, r8, r0, lsr r3
    1be8:	200f18c5 	andcs	r1, pc, r5, asr #17
    1bec:	1a5b00cb 	bne	0x16c1f20
    1bf0:	009b4003 	addseq	r4, fp, r3
    1bf4:	58c3a808 	stmiapl	r3, {r3, fp, sp, pc}^
    1bf8:	18eb2020 	stmiane	fp!, {r5, sp}^
    1bfc:	41e31b04 	mvnmi	r1, r4, lsl #22
    1c00:	293f199b 	ldmdbcs	pc!, {r0, r1, r3, r4, r7, r8, fp, ip}	; <UNPREDICTABLE>
    1c04:	4649d1cd 	strbmi	sp, [r9], -sp, asr #3
    1c08:	99079101 	stmdbls	r7, {r0, r8, ip, pc}
    1c0c:	449a468c 	ldrmi	r4, [sl], #1676	; 0x68c
    1c10:	44939b03 	ldrmi	r9, [r3], #2819	; 0xb03
    1c14:	33409a06 	cmpcc	r0, #24576	; 0x6000
    1c18:	44b844b4 	ldrtmi	r4, [r8], #1204	; 0x4b4
    1c1c:	429a9303 	addsmi	r9, sl, #201326592	; 0xc000000
    1c20:	465bd883 	ldrbmi	sp, [fp], -r3, lsl #17
    1c24:	70139a01 	andsvc	r9, r3, r1, lsl #20
    1c28:	70530a1b 	subsvc	r0, r3, fp, lsl sl
    1c2c:	0c1b465b 	ldceq	6, cr4, [fp], {91}	; 0x5b
    1c30:	465b7093 			; <UNDEFINED> instruction: 0x465b7093
    1c34:	70d30e1b 	sbcsvc	r0, r3, fp, lsl lr
    1c38:	71134653 	tstvc	r3, r3, asr r6
    1c3c:	71530a1b 	cmpvc	r3, fp, lsl sl
    1c40:	0c1b4653 	ldceq	6, cr4, [fp], {83}	; 0x53
    1c44:	46537193 			; <UNDEFINED> instruction: 0x46537193
    1c48:	46444665 	strbmi	r4, [r4], -r5, ror #12
    1c4c:	71d30e1b 	bicsvc	r0, r3, fp, lsl lr
    1c50:	72530a2b 	subsvc	r0, r3, #176128	; 0x2b000
    1c54:	72930c2b 	addsvc	r0, r3, #11008	; 0x2b00
    1c58:	72150a23 	andsvc	r0, r5, #143360	; 0x23000
    1c5c:	0e2d7314 	mcreq	3, 1, r7, cr13, cr4, {0}
    1c60:	0c237353 	stceq	3, cr7, [r3], #-332	; 0xfffffeb4
    1c64:	72d50e24 	sbcsvc	r0, r5, #36, 28	; 0x240
    1c68:	73d47393 	bicsvc	r7, r4, #1275068418	; 0x4c000002
    1c6c:	bc3cb019 	ldclt	0, cr11, [ip], #-100	; 0xffffff9c
    1c70:	46994690 			; <UNDEFINED> instruction: 0x46994690
    1c74:	46ab46a2 	strtmi	r4, [fp], r2, lsr #13
    1c78:	bc01bcf0 	stclt	12, cr11, [r1], {240}	; 0xf0
    1c7c:	20804700 	addcs	r4, r0, r0, lsl #14
    1c80:	70204698 	mlavc	r0, r8, r6, r4
    1c84:	44439b02 	strbmi	r9, [r3], #-2818	; 0xfffff4fe
    1c88:	e72e0018 			; <UNDEFINED> instruction: 0xe72e0018
    1c8c:	030000d4 	tsteq	r0, #212	; 0xd4
    1c90:	efcdab89 	svc	0x00cdab89
    1c94:	67452301 	strbvs	r2, [r5, -r1, lsl #6]
    1c98:	10325476 	eorsne	r5, r2, r6, ror r4
    1c9c:	98badcfe 	ldmls	sl!, {r1, r2, r3, r4, r5, r6, r7, sl, fp, ip, lr, pc}
    1ca0:	080052d4 	stmdaeq	r0, {r2, r4, r6, r7, r9, ip, lr}
    1ca4:	d76aa478 			; <UNDEFINED> instruction: 0xd76aa478
    1ca8:	080051d4 	stmdaeq	r0, {r2, r4, r6, r7, r8, ip, lr}
    1cac:	68984b07 	ldmvs	r8, {r0, r1, r2, r8, r9, fp, lr}
    1cb0:	b5100001 	ldrlt	r0, [r0, #-1]
    1cb4:	f7ff3110 			; <UNDEFINED> instruction: 0xf7ff3110
    1cb8:	4b05f8d9 	blmi	0x180024
    1cbc:	68db681b 	ldmvs	fp, {r0, r1, r3, r4, fp, sp, lr}^
    1cc0:	42431a18 	submi	r1, r3, #24, 20	; 0x18000
    1cc4:	bc104158 	ldflts	f4, [r0], {88}	; 0x58
    1cc8:	4708bc02 	strmi	fp, [r8, -r2, lsl #24]
    1ccc:	030000d4 	tsteq	r0, #212	; 0xd4
    1cd0:	03000158 	tsteq	r0, #88, 2
    1cd4:	4645b5f8 			; <UNDEFINED> instruction: 0x4645b5f8
    1cd8:	46de4657 			; <UNDEFINED> instruction: 0x46de4657
    1cdc:	4690464e 	ldrmi	r4, [r0], lr, asr #12
    1ce0:	0005b5e0 	andeq	fp, r5, r0, ror #11
    1ce4:	45b8000f 	ldrmi	r0, [r8, #15]!
    1ce8:	4643dd2c 	strbmi	sp, [r3], -ip, lsr #26
    1cec:	46b3009e 			; <UNDEFINED> instruction: 0x46b3009e
    1cf0:	00bb44ab 	adcseq	r4, fp, fp, lsr #9
    1cf4:	469118ea 	ldrmi	r1, [r1], sl, ror #17
    1cf8:	46946812 			; <UNDEFINED> instruction: 0x46946812
    1cfc:	45901c7a 	ldrmi	r1, [r0, #3194]	; 0xc7a
    1d00:	003add28 	eorseq	sp, sl, r8, lsr #26
    1d04:	18eb3304 	stmiane	fp!, {r2, r8, r9, ip, sp}^
    1d08:	1c546819 	ldclne	8, cr6, [r4], {25}
    1d0c:	da074561 	ble	0x1d3298
    1d10:	182800a0 	stmdane	r8!, {r5, r7}
    1d14:	60016806 	andvs	r6, r1, r6, lsl #16
    1d18:	00221c90 	mlaeq	r2, r0, ip, r1
    1d1c:	601e0004 	andsvs	r0, lr, r4
    1d20:	459b3304 	ldrmi	r3, [fp, #772]	; 0x304
    1d24:	4648d1f0 			; <UNDEFINED> instruction: 0x4648d1f0
    1d28:	68000093 	stmdavs	r0, {r0, r1, r4, r7}
    1d2c:	681918eb 	ldmdavs	r9, {r0, r1, r3, r5, r6, r7, fp, ip}
    1d30:	464b6018 			; <UNDEFINED> instruction: 0x464b6018
    1d34:	60190028 	andsvs	r0, r9, r8, lsr #32
    1d38:	f7ff0039 			; <UNDEFINED> instruction: 0xf7ff0039
    1d3c:	0027ffcb 	eoreq	pc, r7, fp, asr #31
    1d40:	dcd645a0 	ldclle	5, cr4, [r6], {160}	; 0xa0
    1d44:	4690bc3c 			; <UNDEFINED> instruction: 0x4690bc3c
    1d48:	46a24699 			; <UNDEFINED> instruction: 0x46a24699
    1d4c:	bcf846ab 	ldcllt	6, cr4, [r8], #684	; 0x2ac
    1d50:	4700bc01 	strmi	fp, [r0, -r1, lsl #24]
    1d54:	e7c646b8 			; <UNDEFINED> instruction: 0xe7c646b8
    1d58:	2001b570 	andcs	fp, r1, r0, ror r5
    1d5c:	f86cf7ff 			; <UNDEFINED> instruction: 0xf86cf7ff
    1d60:	681b4b0e 	ldmdavs	fp, {r1, r2, r3, r8, r9, fp, lr}
    1d64:	68184e0e 	ldmdavs	r8, {r1, r2, r3, r9, sl, fp, lr}
    1d68:	00806030 	addeq	r6, r0, r0, lsr r0
    1d6c:	f82cf7ff 			; <UNDEFINED> instruction: 0xf82cf7ff
    1d70:	60706833 	rsbsvs	r6, r0, r3, lsr r8
    1d74:	dd0e2b00 			; <UNDEFINED> instruction: 0xdd0e2b00
    1d78:	f7ff2500 			; <UNDEFINED> instruction: 0xf7ff2500
    1d7c:	0004f865 	andeq	pc, r4, r5, ror #16
    1d80:	f862f7ff 			; <UNDEFINED> instruction: 0xf862f7ff
    1d84:	68720424 	ldmdavs	r2!, {r2, r5, sl}^
    1d88:	430400ab 	tstmi	r4, #171	; 0xab
    1d8c:	6833509c 	ldmdavs	r3!, {r2, r3, r4, r7, ip, lr}
    1d90:	42ab3501 	adcmi	r3, fp, #4194304	; 0x400000
    1d94:	bc70dcf1 	ldcllt	12, cr13, [r0], #-964	; 0xfffffc3c
    1d98:	4700bc01 	strmi	fp, [r0, -r1, lsl #24]
    1d9c:	03000158 	tsteq	r0, #88, 2
    1da0:	030000e0 	tsteq	r0, #224	; 0xe0
    1da4:	4b04b510 	blmi	0x12f1ec
    1da8:	681a2100 	ldmdavs	sl, {r8, sp}
    1dac:	f7ff6858 			; <UNDEFINED> instruction: 0xf7ff6858
    1db0:	bc10ff91 	ldclt	15, cr15, [r0], {145}	; 0x91
    1db4:	4700bc01 	strmi	fp, [r0, -r1, lsl #24]
    1db8:	030000e0 	tsteq	r0, #224	; 0xe0
    1dbc:	68194b08 	ldmdavs	r9, {r3, r8, r9, fp, lr}
    1dc0:	00896858 	addeq	r6, r9, r8, asr r8
    1dc4:	1841b510 	stmdane	r1, {r4, r8, sl, ip, sp, pc}^
    1dc8:	f850f7ff 			; <UNDEFINED> instruction: 0xf850f7ff
    1dcc:	681b4b05 	ldmdavs	fp, {r0, r2, r8, r9, fp, lr}
    1dd0:	1a1868db 	bne	0x61c144
    1dd4:	41584243 	cmpmi	r8, r3, asr #4
    1dd8:	bc02bc10 	stclt	12, cr11, [r2], {16}
    1ddc:	46c04708 	strbmi	r4, [r0], r8, lsl #14
    1de0:	030000e0 	tsteq	r0, #224	; 0xe0
    1de4:	03000158 	tsteq	r0, #88, 2
    1de8:	46c6b5f0 			; <UNDEFINED> instruction: 0x46c6b5f0
    1dec:	681c4b12 	ldmdavs	ip, {r1, r4, r8, r9, fp, lr}
    1df0:	0006b500 	andeq	fp, r6, r0, lsl #10
    1df4:	4690000f 	ldrmi	r0, [r0], pc
    1df8:	d01b4284 	andsle	r4, fp, r4, lsl #5
    1dfc:	430b0013 	tstmi	fp, #19
    1e00:	439c4303 	orrsmi	r4, ip, #201326592	; 0xc000000
    1e04:	2c002500 	stccs	5, cr2, [r0], {-0}
    1e08:	4642d00e 	strbmi	sp, [r2], -lr
    1e0c:	42600039 	rsbmi	r0, r0, #57	; 0x39
    1e10:	43024020 	tstmi	r2, #32
    1e14:	1a244301 	bne	0x912a20
    1e18:	00490852 	subeq	r0, r9, r2, asr r8
    1e1c:	f7ff4330 			; <UNDEFINED> instruction: 0xf7ff4330
    1e20:	182dffe3 	stmdane	sp!, {r0, r1, r5, r6, r7, r8, r9, sl, fp, ip, sp, lr, pc}
    1e24:	d1f02c00 	mvnsle	r2, r0, lsl #24
    1e28:	bc040028 	stclt	0, cr0, [r4], {40}	; 0x28
    1e2c:	bcf04690 	ldcllt	6, cr4, [r0], #576	; 0x240
    1e30:	4708bc02 	strmi	fp, [r8, -r2, lsl #24]
    1e34:	e7f72501 	ldrb	r2, [r7, r1, lsl #10]!
    1e38:	030000e8 	tsteq	r0, #232	; 0xe8
    1e3c:	4a052300 	bmi	0x14aa44
    1e40:	4b056053 	blmi	0x159f94
    1e44:	6819681b 	ldmdavs	r9, {r0, r1, r3, r4, fp, sp, lr}
    1e48:	408b2301 	addmi	r2, fp, r1, lsl #6
    1e4c:	60133b01 	andsvs	r3, r3, r1, lsl #22
    1e50:	46c04770 			; <UNDEFINED> instruction: 0x46c04770
    1e54:	030000e8 	tsteq	r0, #232	; 0xe8
    1e58:	03000158 	tsteq	r0, #88, 2
    1e5c:	2200b510 	andcs	fp, r0, #16, 10	; 0x4000000
    1e60:	20002100 	andcs	r2, r0, r0, lsl #2
    1e64:	ffc0f7ff 			; <UNDEFINED> instruction: 0xffc0f7ff
    1e68:	60584b02 	subsvs	r4, r8, r2, lsl #22
    1e6c:	bc01bc10 	stclt	12, cr11, [r1], {16}
    1e70:	46c04700 	strbmi	r4, [r0], r0, lsl #14
    1e74:	030000e8 	tsteq	r0, #232	; 0xe8
    1e78:	681b4b04 	ldmdavs	fp, {r2, r8, r9, fp, lr}
    1e7c:	4b0468d8 	blmi	0x11c1e4
    1e80:	1ac0685b 	bne	0xff01bff4
    1e84:	41584243 	cmpmi	r8, r3, asr #4
    1e88:	46c04770 			; <UNDEFINED> instruction: 0x46c04770
    1e8c:	03000158 	tsteq	r0, #88, 2
    1e90:	030000e8 	tsteq	r0, #232	; 0xe8
    1e94:	d0002800 	andle	r2, r0, r0, lsl #16
    1e98:	23804770 	orrcs	r4, r0, #112, 14	; 0x1c00000
    1e9c:	04db2203 	ldrbeq	r2, [fp], #515	; 0x203
    1ea0:	4b04701a 	blmi	0x11df10
    1ea4:	701a3201 	andsvc	r3, sl, r1, lsl #4
    1ea8:	321b23c0 	andscc	r2, fp, #192, 6
    1eac:	801a04db 			; <UNDEFINED> instruction: 0x801a04db
    1eb0:	46c0e7fe 			; <UNDEFINED> instruction: 0x46c0e7fe
    1eb4:	04000001 	streq	r0, [r0], #-1
    1eb8:	d8032809 	stmdale	r3, {r0, r3, fp, sp}
    1ebc:	00804b03 	addeq	r4, r0, r3, lsl #22
    1ec0:	477058c0 	ldrbmi	r5, [r0, -r0, asr #17]!
    1ec4:	42402001 	submi	r2, r0, #1
    1ec8:	46c0e7fb 			; <UNDEFINED> instruction: 0x46c0e7fb
    1ecc:	080053d0 	stmdaeq	r0, {r4, r6, r7, r8, r9, ip, lr}
    1ed0:	7803b510 	stmdavc	r3, {r4, r8, sl, ip, sp, pc}
    1ed4:	d50c079b 	strle	r0, [ip, #-1947]	; 0xfffff865
    1ed8:	22002300 	andcs	r2, r0, #0, 6
    1edc:	5c813005 	stcpl	0, cr3, [r1], {5}
    1ee0:	40a100d4 			; <UNDEFINED> instruction: 0x40a100d4
    1ee4:	430b3201 	tstmi	fp, #268435456	; 0x10000000
    1ee8:	d1f82a04 	mvnsle	r2, r4, lsl #20
    1eec:	42402001 	submi	r2, r0, #1
    1ef0:	7883e001 	stmvc	r3, {r0, sp, lr, pc}
    1ef4:	401820ff 	ldrshmi	r2, [r8], -pc	; <UNPREDICTABLE>
    1ef8:	bc02bc10 	stclt	12, cr11, [r2], {16}
    1efc:	46c04708 	strbmi	r4, [r0], r8, lsl #14
    1f00:	7803b510 	stmdavc	r3, {r4, r8, sl, ip, sp, pc}
    1f04:	d50d079b 	strle	r0, [sp, #-1947]	; 0xfffff865
    1f08:	21002300 	mrscs	r2, LR_irq
    1f0c:	5cd01c42 	ldclpl	12, cr1, [r0], {66}	; 0x42
    1f10:	40a000dc 			; <UNDEFINED> instruction: 0x40a000dc
    1f14:	43013301 	tstmi	r1, #67108864	; 0x4000000
    1f18:	d1f82b04 	mvnsle	r2, r4, lsl #22
    1f1c:	bc100008 	ldclt	0, cr0, [r0], {8}
    1f20:	4708bc02 	strmi	fp, [r8, -r2, lsl #24]
    1f24:	e7f97841 	ldrb	r7, [r9, r1, asr #16]!
    1f28:	07807800 	streq	r7, [r0, r0, lsl #16]
    1f2c:	200617c3 	andcs	r1, r6, r3, asr #15
    1f30:	30034018 	andcc	r4, r3, r8, lsl r0
    1f34:	46c04770 			; <UNDEFINED> instruction: 0x46c04770
    1f38:	46deb5f0 			; <UNDEFINED> instruction: 0x46deb5f0
    1f3c:	464e4657 			; <UNDEFINED> instruction: 0x464e4657
    1f40:	b5e04645 	strblt	r4, [r0, #1605]!	; 0x645
    1f44:	9303b095 	tstls	r3, #149	; 0x95
    1f48:	91111e53 	tstls	r1, r3, asr lr
    1f4c:	0011920f 	andseq	r9, r1, pc, lsl #4
    1f50:	001a9312 	andseq	r9, sl, r2, lsl r3
    1f54:	900d4bc4 	andls	r4, sp, r4, asr #23
    1f58:	d900429a 	stmdble	r0, {r1, r3, r4, r7, r9, lr}
    1f5c:	3396e232 	orrscc	lr, r6, #536870915	; 0x20000003
    1f60:	931033ff 	tstls	r0, #-67108861	; 0xfc000003
    1f64:	d90029d7 	stmdble	r0, {r0, r1, r2, r4, r6, r7, r8, fp, sp}
    1f68:	9a03e229 	bls	0xfa814
    1f6c:	001349bf 			; <UNDEFINED> instruction: 0x001349bf
    1f70:	48bf468c 	ldmmi	pc!, {r2, r3, r7, r9, sl, lr}	; <UNPREDICTABLE>
    1f74:	46844463 	strmi	r4, [r4], r3, ror #8
    1f78:	00114462 	andseq	r4, r1, r2, ror #8
    1f7c:	701a2200 	andsvc	r2, sl, r0, lsl #4
    1f80:	42993301 	addsmi	r3, r9, #67108864	; 0x4000000
    1f84:	9b10d1fb 	blls	0x436778
    1f88:	9c11469c 	ldcls	6, cr4, [r1], {156}	; 0x9c
    1f8c:	990d9b12 	stmdbls	sp, {r1, r4, r8, r9, fp, ip, pc}
    1f90:	000a4464 	andeq	r4, sl, r4, ror #8
    1f94:	1d23469c 	stcne	6, cr4, [r3, #-624]!	; 0xfffffd90
    1f98:	469b4462 	ldrmi	r4, [fp], r2, ror #8
    1f9c:	3b0a0013 	blcc	0x281ff0
    1fa0:	9213940e 	andsls	r9, r3, #234881024	; 0xe000000
    1fa4:	4299930a 	addsmi	r9, r9, #671088640	; 0x28000000
    1fa8:	e263d900 	rsb	sp, r3, #0, 18
    1fac:	9b0f468c 	blls	0x3d39e4
    1fb0:	4463085b 	strbtmi	r0, [r3], #-2139	; 0xfffff7a5
    1fb4:	1f13930c 	svcne	0x0013930c
    1fb8:	2380930b 	orrcs	r9, r0, #738197504	; 0x2c000000
    1fbc:	9409061b 	strls	r0, [r9], #-1563	; 0xfffff9e5
    1fc0:	466446da 			; <UNDEFINED> instruction: 0x466446da
    1fc4:	9b0b469b 	blls	0x2d3a38
    1fc8:	2bfe1b1b 	blcs	0xfff88c3c
    1fcc:	23fedd00 	mvnscs	sp, #0, 26
    1fd0:	469c3301 	ldrmi	r3, [ip], r1, lsl #6
    1fd4:	78a37865 	stmiavc	r3!, {r0, r2, r5, r6, fp, ip, sp, lr}
    1fd8:	041b022d 	ldreq	r0, [fp], #-557	; 0xfffffdd3
    1fdc:	7823431d 	stmdavc	r3!, {r0, r2, r3, r4, r8, r9, lr}
    1fe0:	0b2b431d 	bleq	0xad2c5c
    1fe4:	051b406b 	ldreq	r4, [fp, #-107]	; 0xffffff95
    1fe8:	0d1a9e03 	ldceq	14, cr9, [sl, #-12]
    1fec:	00314690 	mlaseq	r1, r0, r6, r4
    1ff0:	46884441 	strmi	r4, [r8], r1, asr #8
    1ff4:	44434b9d 	strbmi	r4, [r3], #-2973	; 0xfffff463
    1ff8:	0190781b 	orrseq	r7, r0, fp, lsl r8
    1ffc:	18334698 	ldmdane	r3!, {r3, r4, r7, r9, sl, lr}
    2000:	9206685b 	andls	r6, r6, #5963776	; 0x5b0000
    2004:	91071ea2 	tstls	r7, r2, lsr #29
    2008:	92029305 	andls	r9, r2, #335544320	; 0x14000000
    200c:	42930019 	addsmi	r0, r3, #25
    2010:	4642d203 	strbmi	sp, [r2], -r3, lsl #4
    2014:	d0002a00 	andle	r2, r0, r0, lsl #20
    2018:	2300e0a5 	tstcs	r0, #165	; 0xa5
    201c:	9b039301 	blls	0xe6c28
    2020:	23034699 	tstcs	r3, #160432128	; 0x9900000
    2024:	44483008 	strbmi	r3, [r8], #-8
    2028:	45e14699 	strbmi	r4, [r1, #1689]!	; 0x699
    202c:	425b419b 	subsmi	r4, fp, #-1073741786	; 0xc0000026
    2030:	46639308 	strbtmi	r9, [r3], -r8, lsl #6
    2034:	9b029304 	blls	0xa6c4c
    2038:	46472101 	strbmi	r2, [r7], -r1, lsl #2
    203c:	94024699 	strls	r4, [r2], #-1689	; 0xfffff967
    2040:	3101e003 	tstcc	r1, r3
    2044:	29103004 	ldmdbcs	r0, {r2, ip, sp}
    2048:	428fd036 	addmi	sp, pc, #54	; 0x36
    204c:	6802d934 	stmdavs	r2, {r2, r4, r5, r8, fp, ip, lr, pc}
    2050:	78967853 	ldmvc	r6, {r0, r1, r4, r6, fp, ip, sp, lr}
    2054:	0436021b 	ldrteq	r0, [r6], #-539	; 0xfffffde5
    2058:	78164333 	ldmdavc	r6, {r0, r1, r4, r5, r8, r9, lr}
    205c:	42ab4333 	adcmi	r4, fp, #-872415232	; 0xcc000000
    2060:	454ad1ef 	strbmi	sp, [sl, #-495]	; 0xfffffe11
    2064:	78d3d2ed 	ldmvc	r3, {r0, r2, r3, r5, r6, r7, r9, ip, lr, pc}^
    2068:	9c02469c 	stcls	6, cr4, [r2], {156}	; 0x9c
    206c:	459c78e3 	ldrmi	r7, [ip, #2275]	; 0x8e3
    2070:	e180d000 	orr	sp, r0, r0
    2074:	2b009b08 	blcs	0x28c9c
    2078:	e17cd100 	cmn	ip, r0, lsl #2
    207c:	23034680 	tstcs	r3, #128, 12	; 0x8000000
    2080:	468c9e04 	strmi	r9, [ip], r4, lsl #28
    2084:	e0010010 	and	r0, r1, r0, lsl r0
    2088:	d20442b3 	andle	r4, r4, #805306379	; 0x3000000b
    208c:	5cc13301 	stclpl	3, cr3, [r1], {1}
    2090:	42915ce2 	addsmi	r5, r1, #57856	; 0xe200
    2094:	0002d0f8 			; <UNDEFINED> instruction: 0x0002d0f8
    2098:	46404661 	strbmi	r4, [r0], -r1, ror #12
    209c:	94029604 	strls	r9, [r2], #-1540	; 0xfffff9fc
    20a0:	429e9e01 	addsmi	r9, lr, #1, 28
    20a4:	d1ccd35c 	bicle	sp, ip, ip, asr r3
    20a8:	42939b05 	addsmi	r9, r3, #5120	; 0x1400
    20ac:	3101d2c9 	tstcc	r1, r9, asr #5
    20b0:	30049205 	andcc	r9, r4, r5, lsl #4
    20b4:	d1c82910 	bicle	r2, r8, r0, lsl r9
    20b8:	9b06220f 	blls	0x18a8fc
    20bc:	011b403a 	tsteq	fp, sl, lsr r0
    20c0:	9a03189b 	bls	0xc8334
    20c4:	49694694 	stmdbmi	r9!, {r2, r4, r7, r9, sl, lr}^
    20c8:	4463009b 	strbtmi	r0, [r3], #-155	; 0xffffff65
    20cc:	9c02468c 	stcls	6, cr4, [r2], {140}	; 0x8c
    20d0:	9b07605c 	blls	0x1da248
    20d4:	001a4463 	andseq	r4, sl, r3, ror #8
    20d8:	3301003b 	tstcc	r1, #59	; 0x3b
    20dc:	9b017013 	blls	0x5e130
    20e0:	d9042b02 	stmdble	r4, {r1, r8, r9, fp, sp}
    20e4:	1ae19b05 	bne	0xff868d00
    20e8:	42994b62 	addsmi	r4, r9, #100352	; 0x18800
    20ec:	4652dd68 	ldrbmi	sp, [r2], -r8, ror #26
    20f0:	70137823 	andsvc	r7, r3, r3, lsr #16
    20f4:	469c2301 	ldrmi	r2, [ip], r1, lsl #6
    20f8:	085b465b 	ldmdaeq	fp, {r0, r1, r3, r4, r6, r9, sl, lr}^
    20fc:	3401469b 	strcc	r4, [r1], #-1691	; 0xfffff965
    2100:	465a44e2 	ldrbmi	r4, [sl], -r2, ror #9
    2104:	40132301 	andsmi	r2, r3, r1, lsl #6
    2108:	42a29a0a 	adcmi	r9, r2, #40960	; 0xa000
    210c:	e096d200 	adds	sp, r6, r0, lsl #4
    2110:	d1002b00 	tstle	r0, r0, lsl #22
    2114:	9b0ce757 	blls	0x33be78
    2118:	d20942a3 	andle	r4, r9, #805306378	; 0x3000000a
    211c:	9b0d4652 	blls	0x353a6c
    2120:	1ae3990e 	bne	0xff8e8560
    2124:	11591a52 	cmpne	r9, r2, asr sl
    2128:	429a1a5b 	addsmi	r1, sl, #372736	; 0x5b000
    212c:	e17ddd00 	cmn	sp, r0, lsl #26
    2130:	2280465b 	addcs	r4, r0, #95420416	; 0x5b00000
    2134:	0612085b 			; <UNDEFINED> instruction: 0x0612085b
    2138:	99094313 	stmdbls	r9, {r0, r1, r4, r8, r9, lr}
    213c:	0e12041a 	mrceq	4, 0, r0, cr2, cr10, {0}
    2140:	704a700b 	subvc	r7, sl, fp
    2144:	0e1b021a 	mrceq	2, 0, r0, cr11, cr10, {0}
    2148:	465370cb 	ldrbmi	r7, [r3], -fp, asr #1
    214c:	23049309 	tstcs	r4, #603979776	; 0x24000000
    2150:	2380469c 	orrcs	r4, r0, #156, 12	; 0x9c00000
    2154:	061b0e12 			; <UNDEFINED> instruction: 0x061b0e12
    2158:	44e2708a 	strbtmi	r7, [r2], #138	; 0x8a
    215c:	e732469b 			; <UNDEFINED> instruction: 0xe732469b
    2160:	92059301 	andls	r9, r5, #67108864	; 0x4000000
    2164:	785ae76d 	ldmdavc	sl, {r0, r2, r3, r5, r6, r8, r9, sl, sp, lr, pc}^
    2168:	0212789b 	andseq	r7, r2, #10158080	; 0x9b0000
    216c:	4313041b 	tstmi	r3, #452984832	; 0x1b000000
    2170:	4313780a 	tstmi	r3, #655360	; 0xa0000
    2174:	92012200 	andls	r2, r1, #0, 4
    2178:	d00042ab 	andle	r4, r0, fp, lsr #5
    217c:	78cae74f 	stmiavc	sl, {r0, r1, r2, r3, r6, r8, r9, sl, sp, lr, pc}^
    2180:	78e32103 	stmiavc	r3!, {r0, r1, r8, sp}^
    2184:	429a9101 	addsmi	r9, sl, #1073741824	; 0x40000000
    2188:	e748d000 	strb	sp, [r8, -r0]
    218c:	79239e05 	stmdbvc	r3!, {r0, r2, r9, sl, fp, ip, pc}
    2190:	429a7932 	addsmi	r7, sl, #819200	; 0xc8000
    2194:	e182d000 	orr	sp, r2, r0
    2198:	45632304 	strbmi	r2, [r3, #-772]!	; 0xfffffcfc
    219c:	e17ed300 	cmn	lr, r0, lsl #6
    21a0:	46679a02 	strbtmi	r9, [r7], -r2, lsl #20
    21a4:	e0014691 	mul	r1, r1, r6
    21a8:	d20442bb 	andle	r4, r4, #-1342177269	; 0xb000000b
    21ac:	5cf13301 	ldclpl	3, cr3, [r1], #4
    21b0:	42915ce2 	addsmi	r5, r1, #57856	; 0xe200
    21b4:	464ad0f8 			; <UNDEFINED> instruction: 0x464ad0f8
    21b8:	920246bc 	andls	r4, r2, #188, 12	; 0xbc00000
    21bc:	e72e9301 	str	r9, [lr, -r1, lsl #6]!
    21c0:	469c9b01 	ldrmi	r9, [ip], r1, lsl #22
    21c4:	1c629803 	stclne	8, cr9, [r2], #-12
    21c8:	78534464 	ldmdavc	r3, {r2, r5, r6, sl, lr}^
    21cc:	021b7895 	andseq	r7, fp, #9764864	; 0x950000
    21d0:	432b042d 			; <UNDEFINED> instruction: 0x432b042d
    21d4:	431d7815 	tstmi	sp, #1376256	; 0x150000
    21d8:	406b0b2b 	rsbmi	r0, fp, fp, lsr #22
    21dc:	46ac4d23 	strtmi	r4, [ip], r3, lsr #26
    21e0:	0d1b051b 	ldceq	5, cr0, [fp, #-108]	; 0xffffff94
    21e4:	446618c6 	strbtmi	r1, [r6], #-2246	; 0xfffff73a
    21e8:	1c6f7835 	stclne	8, cr7, [pc], #-212	; 0x211c
    21ec:	260f7037 			; <UNDEFINED> instruction: 0x260f7037
    21f0:	4035011b 	eorsmi	r0, r5, fp, lsl r1
    21f4:	009b195b 	addseq	r1, fp, fp, asr r9
    21f8:	605a18c3 	subsvs	r1, sl, r3, asr #17
    21fc:	42943201 	addsmi	r3, r4, #268435456	; 0x10000000
    2200:	465bd1e3 	ldrbmi	sp, [fp], -r3, ror #3
    2204:	085b2280 	ldmdaeq	fp, {r7, r9, sp}^
    2208:	431a0612 	tstmi	sl, #18874368	; 0x1200000
    220c:	3b039b01 	blcc	0xe8e18
    2210:	425a4693 	subsmi	r4, sl, #154140672	; 0x9300000
    2214:	203f415a 	eorscs	r4, pc, sl, asr r1	; <UNPREDICTABLE>
    2218:	d2004288 	andle	r4, r0, #136, 4	; 0x80000008
    221c:	2a00e0ad 	bcs	0x3a4d8
    2220:	e0aad100 	adc	sp, sl, r0, lsl #2
    2224:	00894653 	addeq	r4, r9, r3, asr r6
    2228:	23017019 	tstcs	r1, #25
    222c:	469c465a 			; <UNDEFINED> instruction: 0x469c465a
    2230:	40132301 	andsmi	r2, r3, r1, lsl #6
    2234:	44e29a0a 	strbtmi	r9, [r2], #2570	; 0xa0a
    2238:	d30042a2 	tstle	r0, #536870922	; 0x2000000a
    223c:	46d9e768 	ldrbmi	lr, [r9], r8, ror #14
    2240:	9913464a 	ldmdbls	r3, {r1, r3, r6, r9, sl, lr}
    2244:	46d30852 			; <UNDEFINED> instruction: 0x46d30852
    2248:	46a20010 			; <UNDEFINED> instruction: 0x46a20010
    224c:	d34242a1 	cmple	r2, #268435466	; 0x1000000a
    2250:	468c990f 	strmi	r9, [ip], pc, lsl #18
    2254:	44639b0d 	strbtmi	r9, [r3], #-2829	; 0xfffff4f3
    2258:	2101001c 	tstcs	r1, ip, lsl r0
    225c:	465f464b 	ldrbmi	r4, [pc], -fp, asr #12
    2260:	46569809 	ldrbmi	r9, [r6], -r9, lsl #16
    2264:	46c0e015 			; <UNDEFINED> instruction: 0x46c0e015
    2268:	fffffe6e 			; <UNDEFINED> instruction: 0xfffffe6e
    226c:	00040004 	andeq	r0, r4, r4
    2270:	00041004 	andeq	r1, r4, r4
    2274:	0001fffe 			; <UNDEFINED> instruction: 0x0001fffe
    2278:	089b000d 	ldmeq	fp, {r0, r2, r3}
    227c:	469c4015 			; <UNDEFINED> instruction: 0x469c4015
    2280:	78320013 	ldmdavc	r2!, {r0, r1, r4}
    2284:	703a3601 	eorsvc	r3, sl, r1, lsl #12
    2288:	370146a8 	strcc	r4, [r1, -r8, lsr #13]
    228c:	d01d42a6 	andsle	r4, sp, r6, lsr #5
    2290:	4219085a 	andsmi	r0, r9, #5898240	; 0x5a0000
    2294:	2380d0f0 	orrcs	sp, r0, #240	; 0xf0
    2298:	431a061b 	tstmi	sl, #28311552	; 0x1b00000
    229c:	0e1b0413 	mrceq	4, 0, r0, cr11, cr3, {0}
    22a0:	02137043 	andseq	r7, r3, #67	; 0x43
    22a4:	70830e1b 	addvc	r0, r3, fp, lsl lr
    22a8:	059b2380 	ldreq	r2, [fp, #896]	; 0x380
    22ac:	2300469c 	tstcs	r0, #156, 12	; 0x9c00000
    22b0:	23804698 	orrcs	r4, r0, #152, 12	; 0x9800000
    22b4:	0e127002 	cdpeq	0, 1, cr7, cr2, cr2, {0}
    22b8:	783270c2 	ldmdavc	r2!, {r1, r6, r7, ip, sp, lr}
    22bc:	36010038 			; <UNDEFINED> instruction: 0x36010038
    22c0:	703a3704 	eorsvc	r3, sl, r4, lsl #14
    22c4:	370105db 			; <UNDEFINED> instruction: 0x370105db
    22c8:	d1e142a6 	mvnle	r4, r6, lsr #5
    22cc:	90094699 	mulls	r9, r9, r6
    22d0:	466046bb 			; <UNDEFINED> instruction: 0x466046bb
    22d4:	2b004643 	blcs	0x13be8
    22d8:	2201d107 	andcs	sp, r1, #-1073741823	; 0xc0000001
    22dc:	e0004649 	and	r4, r0, r9, asr #12
    22e0:	084b0019 	stmdaeq	fp, {r0, r3, r4}^
    22e4:	d0fb421a 	rscsle	r4, fp, sl, lsl r2
    22e8:	23800888 	orrcs	r0, r0, #136, 16	; 0x880000
    22ec:	4318061b 	tstmi	r8, #28311552	; 0x1b00000
    22f0:	04039a09 	streq	r9, [r3], #-2569	; 0xfffff5f7
    22f4:	70530e1b 	subsvc	r0, r3, fp, lsl lr
    22f8:	0e1b0203 	cdpeq	2, 1, cr0, cr11, cr3, {0}
    22fc:	465b7093 			; <UNDEFINED> instruction: 0x465b7093
    2300:	0e007010 	mcreq	0, 0, r7, cr0, cr0, {0}
    2304:	9a0e70d0 	bls	0x39e64c
    2308:	28091a98 	stmdacs	r9, {r3, r4, r7, r9, fp, ip}
    230c:	2009da00 	andcs	sp, r9, r0, lsl #20
    2310:	469c9b10 			; <UNDEFINED> instruction: 0x469c9b10
    2314:	44602301 	strbtmi	r2, [r0], #-769	; 0xfffffcff
    2318:	99032200 	stmdbls	r3, {r9, sp}
    231c:	9a0f600a 	bls	0x3da34c
    2320:	06019c10 			; <UNDEFINED> instruction: 0x06019c10
    2324:	0e090612 	mcreq	6, 0, r0, cr9, cr2, {0}
    2328:	2c030e12 	stccs	14, cr0, [r3], {18}
    232c:	2402d04c 	strcs	sp, [r2], #-76	; 0xffffffb4
    2330:	9c114323 	ldcls	3, cr4, [r1], {35}	; 0x23
    2334:	04017061 	streq	r7, [r1], #-97	; 0xffffff9f
    2338:	70a10e09 	adcvc	r0, r1, r9, lsl #28
    233c:	0e090201 	cdpeq	2, 0, cr0, cr9, cr1, {0}
    2340:	0e0170e1 	cdpeq	0, 0, cr7, cr1, cr1, {7}
    2344:	00217121 	eoreq	r7, r1, r1, lsr #2
    2348:	9c0f7162 	stflss	f7, [pc], {98}	; 0x62
    234c:	0e120422 	cdpeq	4, 1, cr0, cr2, cr2, {1}
    2350:	0222718a 	eoreq	r7, r2, #-2147483614	; 0x80000022
    2354:	71ca0e12 	bicvc	r0, sl, r2, lsl lr
    2358:	720a0e22 	andvc	r0, sl, #544	; 0x220
    235c:	4313224c 	tstmi	r3, #76, 4	; 0xc0000004
    2360:	70139a11 	andsvc	r9, r3, r1, lsl sl
    2364:	bc3cb015 	ldclt	0, cr11, [ip], #-84	; 0xffffffac
    2368:	46994690 			; <UNDEFINED> instruction: 0x46994690
    236c:	46ab46a2 	strtmi	r4, [fp], r2, lsr #13
    2370:	bc02bcf0 	stclt	12, cr11, [r2], {240}	; 0xf0
    2374:	23034708 	tstcs	r3, #8, 14	; 0x200000
    2378:	484de692 	stmdami	sp, {r1, r4, r7, r9, sl, sp, lr, pc}^
    237c:	d3014288 	tstle	r1, #136, 4	; 0x80000008
    2380:	d1472a00 	cmple	r7, r0, lsl #20
    2384:	2a129a01 	bcs	0x4a8b90
    2388:	4a4ad802 	bmi	0x12b8398
    238c:	d233428a 	eorsle	r4, r3, #-1610612728	; 0xa0000008
    2390:	2a219a01 	bcs	0x868b9c
    2394:	0013d81c 	andseq	sp, r3, ip, lsl r8
    2398:	3b022203 	blcc	0x8abac
    239c:	009b01c9 	addseq	r0, fp, r9, asr #3
    23a0:	4313430b 	tstmi	r3, #738197504	; 0x2c000000
    23a4:	46514652 			; <UNDEFINED> instruction: 0x46514652
    23a8:	041a7013 	ldreq	r7, [sl], #-19	; 0xffffffed
    23ac:	0e1b021b 	mrceq	2, 0, r0, cr11, cr11, {0}
    23b0:	2303708b 	tstcs	r3, #139	; 0x8b
    23b4:	0e12469c 	mrceq	6, 0, r4, cr2, cr12, {4}
    23b8:	44e2704a 	strbtmi	r7, [r2], #74	; 0x4a
    23bc:	3306e6a1 	tstcc	r6, #168820736	; 0xa100000
    23c0:	e5d29310 	ldrb	r9, [r2, #784]	; 0x310
    23c4:	e7cd2000 	strb	r2, [sp, r0]
    23c8:	70619c11 	rsbvc	r9, r1, r1, lsl ip
    23cc:	e7c570a2 	strb	r7, [r5, r2, lsr #1]
    23d0:	03c901db 	biceq	r0, r9, #-1073741770	; 0xc0000036
    23d4:	23034319 	tstcs	r3, #1677721600	; 0x64000000
    23d8:	46534319 			; <UNDEFINED> instruction: 0x46534319
    23dc:	70194652 	andsvc	r4, r9, r2, asr r6
    23e0:	0e1b040b 	cdpeq	4, 1, cr0, cr11, cr11, {0}
    23e4:	020b7053 	andeq	r7, fp, #83	; 0x53
    23e8:	70930e1b 	addsvc	r0, r3, fp, lsl lr
    23ec:	469c2304 	ldrmi	r2, [ip], r4, lsl #6
    23f0:	70d10e09 	sbcsvc	r0, r1, r9, lsl #28
    23f4:	e68444e2 	str	r4, [r4], r2, ror #9
    23f8:	009b2202 	addseq	r2, fp, r2, lsl #4
    23fc:	430b0189 	tstmi	fp, #1073741858	; 0x40000022
    2400:	46524313 			; <UNDEFINED> instruction: 0x46524313
    2404:	041b7013 	ldreq	r7, [fp], #-19	; 0xffffffed
    2408:	70530e1b 	subsvc	r0, r3, fp, lsl lr
    240c:	469c2302 	ldrmi	r2, [ip], r2, lsl #6
    2410:	e67644e2 	ldrbt	r4, [r6], -r2, ror #9
    2414:	00892301 	addeq	r2, r9, r1, lsl #6
    2418:	46534319 			; <UNDEFINED> instruction: 0x46534319
    241c:	04097019 	streq	r7, [r9], #-25	; 0xffffffe7
    2420:	70590e09 	subsvc	r0, r9, r9, lsl #28
    2424:	469c2302 	ldrmi	r2, [ip], r2, lsl #6
    2428:	e66a44e2 	strbt	r4, [sl], -r2, ror #9
    242c:	9d0d9c0e 	stcls	12, cr9, [sp, #-56]	; 0xffffffc8
    2430:	00280023 	eoreq	r0, r8, r3, lsr #32
    2434:	41931e5a 	orrsmi	r1, r3, sl, asr lr
    2438:	41901e42 	orrsmi	r1, r0, r2, asr #28
    243c:	f7ff4018 			; <UNDEFINED> instruction: 0xf7ff4018
    2440:	9a0ffd29 	bls	0x4018ec
    2444:	46940028 	ldrmi	r0, [r4], r8, lsr #32
    2448:	00214460 	eoreq	r4, r1, r0, ror #8
    244c:	d2014284 	andle	r4, r1, #132, 4	; 0x40000008
    2450:	d31d42a5 	tstle	sp, #1342177290	; 0x5000000a
    2454:	990e2300 	stmdbls	lr, {r8, r9, sp}
    2458:	9c0f980d 	stcls	8, cr9, [pc], {13}
    245c:	54ca5cc2 	strbpl	r5, [sl], #3266	; 0xcc2
    2460:	429c3301 	addsmi	r3, ip, #67108864	; 0x4000000
    2464:	9a0fd1fa 	bls	0x3f6c54
    2468:	9b104694 	blls	0x413ec0
    246c:	00184463 	andseq	r4, r8, r3, ror #8
    2470:	e7512300 	ldrb	r2, [r1, -r0, lsl #6]
    2474:	9a139b0d 	bls	0x4e90b0
    2478:	d8134293 	ldmdale	r3, {r0, r1, r4, r7, r9, lr}
    247c:	93099b0e 	tstls	r9, #14336	; 0x3800
    2480:	469a9b0d 	ldrmi	r9, [sl], sp, lsl #22
    2484:	22802380 	addcs	r2, r0, #128, 6
    2488:	4699061b 			; <UNDEFINED> instruction: 0x4699061b
    248c:	e6df05d2 			; <UNDEFINED> instruction: 0xe6df05d2
    2490:	9b120028 	blls	0x482538
    2494:	54ca5cc2 	strbpl	r5, [sl], #3266	; 0xcc2
    2498:	d2fb3b01 	rscsle	r3, fp, #1024	; 0x400
    249c:	2304e7e3 	tstcs	r4, #59506688	; 0x38c0000
    24a0:	e5bc9301 	ldr	r9, [ip, #769]!	; 0x301
    24a4:	93099b0e 	tstls	r9, #14336	; 0x3800
    24a8:	061b2380 	ldreq	r2, [fp], -r0, lsl #7
    24ac:	e7144699 			; <UNDEFINED> instruction: 0xe7144699
    24b0:	00003fff 			; <UNDEFINED> instruction: 0x00003fff
    24b4:	000003ff 			; <UNDEFINED> instruction: 0x000003ff
    24b8:	46deb5f0 			; <UNDEFINED> instruction: 0x46deb5f0
    24bc:	4645464e 	strbmi	r4, [r5], -lr, asr #12
    24c0:	b5e04657 	strblt	r4, [r0, #1623]!	; 0x657
    24c4:	b0830004 	addlt	r0, r3, r4
    24c8:	46884693 			; <UNDEFINED> instruction: 0x46884693
    24cc:	fd00f7ff 			; <UNDEFINED> instruction: 0xfd00f7ff
    24d0:	78222302 	stmdavc	r2!, {r1, r8, r9, sp}
    24d4:	40134681 	andsmi	r4, r3, r1, lsl #13
    24d8:	d43107d2 	ldrtle	r0, [r1], #-2002	; 0xfffff82e
    24dc:	41931e5a 	orrsmi	r1, r3, sl, asr lr
    24e0:	425b2206 	subsmi	r2, fp, #1610612736	; 0x60000000
    24e4:	33034013 	tstcc	r3, #19
    24e8:	002018e4 	eoreq	r1, r0, r4, ror #17
    24ec:	1e424643 	cdpne	6, 4, cr4, cr2, cr3, {2}
    24f0:	1e5a4190 	mrcne	1, 2, r4, cr10, cr0, {4}
    24f4:	40184193 	mulsmi	r8, r3, r1
    24f8:	fcccf7ff 			; <UNDEFINED> instruction: 0xfcccf7ff
    24fc:	464b464a 	strbmi	r4, [fp], -sl, asr #12
    2500:	3b0118a2 	blcc	0x48790
    2504:	d2024590 	andle	r4, r2, #144, 10	; 0x24000000
    2508:	d2004544 	andle	r4, r0, #68, 10	; 0x11000000
    250c:	464ae089 	strbmi	lr, [sl], -r9, lsl #1
    2510:	46492300 	strbmi	r2, [r9], -r0, lsl #6
    2514:	2a004640 	bcs	0x13e1c
    2518:	5ce2d005 	stclpl	0, cr13, [r2], #20
    251c:	330154c2 	tstcc	r1, #-1040187392	; 0xc2000000
    2520:	d1fa4299 			; <UNDEFINED> instruction: 0xd1fa4299
    2524:	23004689 	tstcs	r0, #143654912	; 0x8900000
    2528:	4648465a 			; <UNDEFINED> instruction: 0x4648465a
    252c:	b0036013 	andlt	r6, r3, r3, lsl r0
    2530:	4690bc3c 			; <UNDEFINED> instruction: 0x4690bc3c
    2534:	46a24699 			; <UNDEFINED> instruction: 0x46a24699
    2538:	bcf046ab 	ldcllt	6, cr4, [r0], #684	; 0x2ac
    253c:	4708bc02 	strmi	fp, [r8, -r2, lsl #24]
    2540:	41931e5a 	orrsmi	r1, r3, sl, asr lr
    2544:	425b2206 	subsmi	r2, fp, #1610612736	; 0x60000000
    2548:	33034013 	tstcc	r3, #19
    254c:	000318e4 	andeq	r1, r3, r4, ror #17
    2550:	44433b01 	strbmi	r3, [r3], #-2817	; 0xfffff4ff
    2554:	3b0a9301 	blcc	0x2a7160
    2558:	23019300 	tstcs	r1, #0, 6
    255c:	25014647 	strcs	r4, [r1, #-1607]	; 0xfffff9b9
    2560:	2d01469a 	stccs	6, cr4, [r1, #-616]	; 0xfffffd98
    2564:	2600d016 			; <UNDEFINED> instruction: 0x2600d016
    2568:	5ca32200 	sfmpl	f2, 4, [r3]
    256c:	408b00d1 			; <UNDEFINED> instruction: 0x408b00d1
    2570:	431e3201 	tstmi	lr, #268435456	; 0x10000000
    2574:	d1f82a04 	mvnsle	r2, r4, lsl #20
    2578:	422b4653 	eormi	r4, fp, #87031808	; 0x5300000
    257c:	086dd01a 	stmdaeq	sp!, {r1, r3, r4, ip, lr, pc}^
    2580:	d11207b3 			; <UNDEFINED> instruction: 0xd11207b3
    2584:	34012603 	strcc	r2, [r1], #-1539	; 0xfffff9fd
    2588:	f7ff2000 			; <UNDEFINED> instruction: 0xf7ff2000
    258c:	19bffc83 	ldmibne	pc!, {r0, r1, r7, sl, fp, ip, sp, lr, pc}	; <UNPREDICTABLE>
    2590:	d1e82d01 	mvnle	r2, r1, lsl #26
    2594:	23002500 	tstcs	r0, #0, 10
    2598:	00d95ce2 	sbcseq	r5, r9, r2, ror #25
    259c:	3301408a 	tstcc	r1, #138	; 0x8a
    25a0:	2b044315 	blcs	0x1131fc
    25a4:	3404d1f8 	strcc	sp, [r4], #-504	; 0xfffffe08
    25a8:	07b3e7dd 			; <UNDEFINED> instruction: 0x07b3e7dd
    25ac:	3402d413 	strcc	sp, [r2], #-1043	; 0xfffffbed
    25b0:	e7e92603 	strb	r2, [r9, r3, lsl #12]!
    25b4:	42bb9b00 	adcsmi	r9, fp, #0, 22
    25b8:	4a21d91f 	bmi	0x878a3c
    25bc:	4694230f 	ldrmi	r2, [r4], pc, lsl #6
    25c0:	009b402b 	addseq	r4, fp, fp, lsr #32
    25c4:	6a9e4463 	bvs	0xfe793758
    25c8:	f7ff2000 			; <UNDEFINED> instruction: 0xf7ff2000
    25cc:	40f5fc63 	rscsmi	pc, r5, r3, ror #24
    25d0:	19a419bf 	stmibne	r4!, {r0, r1, r2, r3, r4, r5, r7, r8, fp, ip}
    25d4:	4653e7c5 	ldrbmi	lr, [r3], -r5, asr #15
    25d8:	d1054233 	tstle	r5, r3, lsr r2
    25dc:	08b6230f 	ldmeq	r6!, {r0, r1, r2, r3, r8, r9, sp}
    25e0:	3603401e 			; <UNDEFINED> instruction: 0x3603401e
    25e4:	e7cf3402 	strb	r3, [pc, r2, lsl #8]
    25e8:	4032227f 	eorsmi	r2, r2, pc, ror r2
    25ec:	d0222a03 	eorle	r2, r2, r3, lsl #20
    25f0:	0ef60676 	mrceq	6, 7, r0, cr6, cr6, {3}
    25f4:	34033602 	strcc	r3, [r3], #-1538	; 0xfffff9fe
    25f8:	4642e7c6 	strbmi	lr, [r2], -r6, asr #15
    25fc:	444a9b01 	strbmi	r9, [sl], #-2817	; 0xfffff4ff
    2600:	d20842bb 	andle	r4, r8, #-1342177269	; 0xb000000b
    2604:	086de78f 	stmdaeq	sp!, {r0, r1, r2, r3, r7, r8, r9, sl, sp, lr, pc}^
    2608:	703b7823 	eorsvc	r7, fp, r3, lsr #16
    260c:	34013701 	strcc	r3, [r1], #-1793	; 0xfffff8ff
    2610:	d1004297 			; <UNDEFINED> instruction: 0xd1004297
    2614:	2d01e787 	stccs	7, cr14, [r1, #-540]	; 0xfffffde4
    2618:	2580d1f5 	strcs	sp, [r0, #501]	; 0x1f5
    261c:	05ed3404 	strbeq	r3, [sp, #1028]!	; 0x404
    2620:	464ae7f2 			; <UNDEFINED> instruction: 0x464ae7f2
    2624:	d1002a00 	tstle	r0, r0, lsl #20
    2628:	4641e77d 			; <UNDEFINED> instruction: 0x4641e77d
    262c:	54ca5ce2 	strbpl	r5, [sl], #3298	; 0xce2
    2630:	d2fb3b01 	rscsle	r3, fp, #1024	; 0x400
    2634:	0476e777 	ldrbteq	lr, [r6], #-1911	; 0xfffff889
    2638:	36030e36 			; <UNDEFINED> instruction: 0x36030e36
    263c:	e7a33404 	str	r3, [r3, r4, lsl #8]!
    2640:	080053d0 	stmdaeq	r0, {r4, r6, r7, r8, r9, ip, lr}
    2644:	4b102007 	blmi	0x40a668
    2648:	681b681b 	ldmdavs	fp, {r0, r1, r3, r4, fp, sp, lr}
    264c:	401017da 			; <UNDEFINED> instruction: 0x401017da
    2650:	b51018c0 	ldrlt	r1, [r0, #-2240]	; 0xfffff740
    2654:	4c0d10c0 	stcmi	0, cr1, [sp], {192}	; 0xc0
    2658:	60233080 	eorvs	r3, r3, r0, lsl #1
    265c:	fbb4f7fe 			; <UNDEFINED> instruction: 0xfbb4f7fe
    2660:	6823211f 	stmdavs	r3!, {r0, r1, r2, r3, r4, r8, sp}
    2664:	401117da 			; <UNDEFINED> instruction: 0x401117da
    2668:	606018c9 	rsbvs	r1, r0, r9, asr #17
    266c:	331f1149 	tstcc	pc, #1073741842	; 0x40000012
    2670:	2401db07 	strcs	sp, [r1], #-2823	; 0xfffff4f9
    2674:	42642300 	rsbmi	r2, r4, #0, 6
    2678:	3301009a 	tstcc	r1, #154	; 0x9a
    267c:	428b5084 	addmi	r5, fp, #132	; 0x84
    2680:	bc10ddfa 	ldclt	13, cr13, [r0], {250}	; 0xfa
    2684:	4700bc01 	strmi	fp, [r0, -r1, lsl #24]
    2688:	03000158 	tsteq	r0, #88, 2
    268c:	030000f0 	tsteq	r0, #240	; 0xf0
    2690:	46ceb5f0 			; <UNDEFINED> instruction: 0x46ceb5f0
    2694:	4b384647 	blmi	0xe13fb8
    2698:	b580681c 	strlt	r6, [r0, #2076]	; 0x81c
    269c:	2c004699 	stccs	6, cr4, [r0], {153}	; 0x99
    26a0:	6858dd62 	ldmdavs	r8, {r1, r5, r6, r8, sl, fp, ip, lr, pc}^
    26a4:	079b6803 	ldreq	r6, [fp, r3, lsl #16]
    26a8:	271f0fdb 			; <UNDEFINED> instruction: 0x271f0fdb
    26ac:	2b002601 	blcs	0xbeb8
    26b0:	e053d108 	subs	sp, r3, r8, lsl #2
    26b4:	115a0039 	cmpne	sl, r9, lsr r0
    26b8:	58120092 	ldmdapl	r2, {r1, r4, r7}
    26bc:	40ca4019 	sbcmi	r4, sl, r9, lsl r0
    26c0:	d04b4216 	suble	r4, fp, r6, lsl r2
    26c4:	42a33301 	adcmi	r3, r3, #67108864	; 0x4000000
    26c8:	2c03ddf4 	stccs	13, cr13, [r3], {244}	; 0xf4
    26cc:	464bdd4c 	strbmi	sp, [fp], -ip, asr #26
    26d0:	231f685e 	tstcs	pc, #6160384	; 0x5e0000
    26d4:	469c2002 	ldrmi	r2, [ip], r2
    26d8:	e0042701 	and	r2, r4, r1, lsl #14
    26dc:	00033001 	andeq	r3, r3, r1
    26e0:	42a34343 	adcmi	r4, r3, #201326593	; 0xc000001
    26e4:	4662dc1d 			; <UNDEFINED> instruction: 0x4662dc1d
    26e8:	009b1143 	addseq	r1, fp, r3, asr #2
    26ec:	4002599b 	mulmi	r2, fp, r9
    26f0:	421f40d3 	andsmi	r4, pc, #211	; 0xd3
    26f4:	0042d0f2 			; <UNDEFINED> instruction: 0x0042d0f2
    26f8:	dcef42a2 	sfmle	f4, 2, [pc], #648	; 0x2988
    26fc:	003d4661 	eorseq	r4, sp, r1, ror #12
    2700:	408d4011 	addmi	r4, sp, r1, lsl r0
    2704:	11530029 	cmpne	r3, r9, lsr #32
    2708:	18f3009b 	ldmne	r3!, {r0, r1, r3, r4, r7}^
    270c:	1812681d 	ldmdane	r2, {r0, r2, r3, r4, fp, sp, lr}
    2710:	601d438d 	andsvs	r4, sp, sp, lsl #7
    2714:	ddf142a2 	lfmle	f4, 2, [r1, #648]!	; 0x288
    2718:	00033001 	andeq	r3, r3, r1
    271c:	42a34343 	adcmi	r4, r3, #201326593	; 0xc000001
    2720:	2300dde1 	tstcs	r0, #14400	; 0x3840
    2724:	6093464a 	addsvs	r4, r3, sl, asr #12
    2728:	2300221f 	tstcs	r0, #-268435455	; 0xf0000001
    272c:	46942000 	ldrmi	r2, [r4], r0
    2730:	46982701 	ldrmi	r2, [r8], r1, lsl #14
    2734:	46613302 	strbtmi	r3, [r1], -r2, lsl #6
    2738:	0092115a 	addseq	r1, r2, sl, asr r1
    273c:	40195992 	mulsmi	r9, r2, r9
    2740:	421740ca 	andsmi	r4, r7, #202	; 0xca
    2744:	2201d002 	andcs	sp, r1, #2
    2748:	30014690 	mulcc	r1, r0, r6
    274c:	42a33301 	adcmi	r3, r3, #67108864	; 0x4000000
    2750:	4643ddf1 			; <UNDEFINED> instruction: 0x4643ddf1
    2754:	d0012b00 	andle	r2, r1, r0, lsl #22
    2758:	6098464b 	addsvs	r4, r8, fp, asr #12
    275c:	4690bc0c 	ldrmi	fp, [r0], ip, lsl #24
    2760:	bcf04699 	ldcllt	6, cr4, [r0], #612	; 0x264
    2764:	4700bc01 	strmi	fp, [r0, -r1, lsl #24]
    2768:	464a2300 	strbmi	r2, [sl], -r0, lsl #6
    276c:	2c016093 	stccs	0, cr6, [r1], {147}	; 0x93
    2770:	6856ddf4 	ldmdavs	r6, {r2, r4, r5, r6, r7, r8, sl, fp, ip, lr, pc}^
    2774:	46c0e7d8 			; <UNDEFINED> instruction: 0x46c0e7d8
    2778:	030000f0 	tsteq	r0, #240	; 0xf0
    277c:	681b4b04 	ldmdavs	fp, {r2, r8, r9, fp, lr}
    2780:	4b0468d8 	blmi	0x11cae8
    2784:	1ac0689b 	bne	0xff01c9f8
    2788:	41584243 	cmpmi	r8, r3, asr #4
    278c:	46c04770 			; <UNDEFINED> instruction: 0x46c04770
    2790:	03000158 	tsteq	r0, #88, 2
    2794:	030000f0 	tsteq	r0, #240	; 0xf0
    2798:	464fb5f0 			; <UNDEFINED> instruction: 0x464fb5f0
    279c:	464646d6 			; <UNDEFINED> instruction: 0x464646d6
    27a0:	9f08b5c0 	svcls	0x0008b5c0
    27a4:	1c7a0014 	ldclne	0, cr0, [sl], #-80	; 0xffffffb0
    27a8:	0093001d 	addseq	r0, r3, sp, lsl r0
    27ac:	00184680 	andseq	r4, r8, r0, lsl #13
    27b0:	4699468a 	ldrmi	r4, [r9], sl, lsl #13
    27b4:	fb08f7fe 			; <UNDEFINED> instruction: 0xfb08f7fe
    27b8:	db3c2f00 	blle	0xf0e3c0
    27bc:	0003464a 	andeq	r4, r3, sl, asr #12
    27c0:	18122100 	ldmdane	r2, {r8, sp}
    27c4:	429ac302 	addsmi	ip, sl, #134217728	; 0x8000000
    27c8:	2d00d1fc 	stfcsd	f5, [r0, #-1008]	; 0xfffffc10
    27cc:	00abdd0f 	adceq	sp, fp, pc, lsl #26
    27d0:	46414443 	strbmi	r4, [r1], -r3, asr #8
    27d4:	c908469c 	stmdbgt	r8, {r2, r3, r4, r7, r9, sl, lr}
    27d8:	591b009b 	ldmdbpl	fp, {r0, r1, r3, r4, r7}
    27dc:	18c3009b 	stmiane	r3, {r0, r1, r3, r4, r7}^
    27e0:	3201681a 	andcc	r6, r1, #1703936	; 0x1a0000
    27e4:	458c601a 	strmi	r6, [ip, #26]
    27e8:	2f00d1f5 	svccs	0x0000d1f5
    27ec:	0001db0b 	andeq	sp, r1, fp, lsl #22
    27f0:	23002200 	tstcs	r0, #0, 4
    27f4:	46b4680e 	ldrtmi	r6, [r4], lr, lsl #16
    27f8:	c1043301 	tstgt	r4, r1, lsl #6
    27fc:	429f4462 	addsmi	r4, pc, #1644167168	; 0x62000000
    2800:	2d00daf8 			; <UNDEFINED> instruction: 0x2d00daf8
    2804:	4647dd10 			; <UNDEFINED> instruction: 0x4647dd10
    2808:	683b2100 	ldmdavs	fp!, {r8, sp}
    280c:	591b009b 	ldmdbpl	fp, {r0, r1, r3, r4, r7}
    2810:	18c3009b 	stmiane	r3, {r0, r1, r3, r4, r7}^
    2814:	1c56681a 	ldclne	8, cr6, [r6], {26}
    2818:	4656601e 			; <UNDEFINED> instruction: 0x4656601e
    281c:	0092cf08 	addseq	ip, r2, r8, lsl #30
    2820:	51933101 	orrspl	r3, r3, r1, lsl #2
    2824:	dcf0428d 	lfmle	f4, 2, [r0], #564	; 0x234
    2828:	4690bc1c 			; <UNDEFINED> instruction: 0x4690bc1c
    282c:	46a24699 			; <UNDEFINED> instruction: 0x46a24699
    2830:	bc01bcf0 	stclt	12, cr11, [r1], {240}	; 0xf0
    2834:	2d004700 	stccs	7, cr4, [r0, #-0]
    2838:	e7f5dcc9 	ldrb	sp, [r5, r9, asr #25]!
    283c:	46deb5f0 			; <UNDEFINED> instruction: 0x46deb5f0
    2840:	464e4657 			; <UNDEFINED> instruction: 0x464e4657
    2844:	b5e04645 	strblt	r4, [r0, #1605]!	; 0x645
    2848:	910bb08f 	tstls	fp, pc, lsl #1
    284c:	21034682 	tstcs	r3, r2, lsl #13
    2850:	00141c90 	mulseq	r4, r0, ip
    2854:	f002930d 			; <UNDEFINED> instruction: 0xf002930d
    2858:	2103fc27 	tstpcs	r3, r7, lsr #24
    285c:	00200005 	eoreq	r0, r0, r5
    2860:	f0029409 			; <UNDEFINED> instruction: 0xf0029409
    2864:	1944fc21 	stmdbne	r4, {r0, r5, sl, fp, ip, sp, lr, pc}^
    2868:	009b1ce3 	addseq	r1, fp, r3, ror #25
    286c:	00b61ca6 	adcseq	r1, r6, r6, lsr #25
    2870:	46990018 			; <UNDEFINED> instruction: 0x46990018
    2874:	f7fe9408 			; <UNDEFINED> instruction: 0xf7fe9408
    2878:	1f33faa7 	svcne	0x0033faa7
    287c:	00374698 	mlaseq	r7, r8, r6, r4
    2880:	46422400 	strbmi	r2, [r2], -r0, lsl #8
    2884:	51843f08 	orrpl	r3, r4, r8, lsl #30
    2888:	50844683 	addpl	r4, r4, r3, lsl #13
    288c:	464851c4 	strbmi	r5, [r8], -r4, asr #3
    2890:	fa9af7fe 			; <UNDEFINED> instruction: 0xfa9af7fe
    2894:	51844642 	orrpl	r4, r4, r2, asr #12
    2898:	51c45084 	bicpl	r5, r4, r4, lsl #1
    289c:	900700ac 	andls	r0, r7, ip, lsr #1
    28a0:	f7fe0020 			; <UNDEFINED> instruction: 0xf7fe0020
    28a4:	900cfa91 	mulls	ip, r1, sl
    28a8:	f7fe0020 			; <UNDEFINED> instruction: 0xf7fe0020
    28ac:	9c09fa8d 			; <UNDEFINED> instruction: 0x9c09fa8d
    28b0:	2103900a 	tstcs	r3, sl
    28b4:	f0021c60 			; <UNDEFINED> instruction: 0xf0021c60
    28b8:	1a2bfbf7 	bne	0xb0189c
    28bc:	4464469c 	strbtmi	r4, [r4], #-1692	; 0xfffff964
    28c0:	93030027 	tstls	r3, #39	; 0x27
    28c4:	26002400 	strcs	r2, [r0], -r0, lsl #8
    28c8:	dd0f2f00 	stcle	15, cr2, [pc, #-0]	; 0x28d0
    28cc:	42bc3401 	adcsmi	r3, ip, #16777216	; 0x1000000
    28d0:	2103d00c 	tstcs	r3, ip
    28d4:	f0020020 			; <UNDEFINED> instruction: 0xf0020020
    28d8:	2900fbe3 	stmdbcs	r0, {r0, r1, r5, r6, r7, r8, r9, fp, ip, sp, lr, pc}
    28dc:	465ad0f6 			; <UNDEFINED> instruction: 0x465ad0f6
    28e0:	509c00b3 	ldrhpl	r0, [ip], r3
    28e4:	36013401 	strcc	r3, [r1], -r1, lsl #8
    28e8:	d1f242bc 	ldrhle	r4, [r2, #44]!	; 0x2c
    28ec:	9e084652 	mcrls	6, 0, r4, cr8, cr2, {2}
    28f0:	9f079c0d 	svcls	0x00079c0d
    28f4:	32080033 	andcc	r0, r8, #51	; 0x33
    28f8:	46580039 			; <UNDEFINED> instruction: 0x46580039
    28fc:	f7ff9400 			; <UNDEFINED> instruction: 0xf7ff9400
    2900:	4653ff4b 	ldrbmi	pc, [r3], -fp, asr #30	; <UNPREDICTABLE>
    2904:	1d1a4659 	ldcne	6, cr4, [sl, #-356]	; 0xfffffe9c
    2908:	00330038 	eorseq	r0, r3, r8, lsr r0
    290c:	f7ff9400 			; <UNDEFINED> instruction: 0xf7ff9400
    2910:	9400ff43 	strls	pc, [r0], #-3907	; 0xfffff0bd
    2914:	46520033 			; <UNDEFINED> instruction: 0x46520033
    2918:	46580039 			; <UNDEFINED> instruction: 0x46580039
    291c:	ff3cf7ff 			; <UNDEFINED> instruction: 0xff3cf7ff
    2920:	dd5d2e00 	ldclle	14, cr2, [sp, #-0]
    2924:	46949a07 	ldrmi	r9, [r4], r7, lsl #20
    2928:	009b9b08 	addseq	r9, fp, r8, lsl #22
    292c:	20014463 	andcs	r4, r1, r3, ror #8
    2930:	23009305 	tstcs	r0, #335544320	; 0x14000000
    2934:	00164240 	andseq	r4, r6, r0, asr #4
    2938:	90040001 	andls	r0, r4, r1
    293c:	9506001f 	strls	r0, [r6, #-31]	; 0xffffffe1
    2940:	9204e018 	andls	lr, r4, #24
    2944:	21033701 	tstcs	r3, r1, lsl #14
    2948:	f0020028 			; <UNDEFINED> instruction: 0xf0020028
    294c:	2103fbad 	tstpcs	r3, sp, lsr #23
    2950:	00280004 	eoreq	r0, r8, r4
    2954:	fba4f002 			; <UNDEFINED> instruction: 0xfba4f002
    2958:	d0022901 	andle	r2, r2, r1, lsl #18
    295c:	469c9b06 	ldrmi	r9, [ip], r6, lsl #22
    2960:	465b4464 	ldrbmi	r4, [fp], -r4, ror #8
    2964:	50e700a4 	rscpl	r0, r7, r4, lsr #1
    2968:	36049b05 	strcc	r9, [r4], -r5, lsl #22
    296c:	46484641 	strbmi	r4, [r8], -r1, asr #12
    2970:	d01042b3 			; <UNDEFINED> instruction: 0xd01042b3
    2974:	68354652 	ldmdavs	r5!, {r1, r4, r6, r9, sl, lr}
    2978:	58d200ab 	ldmpl	r2, {r0, r1, r3, r5, r7}^
    297c:	685c4453 	ldmdavs	ip, {r0, r1, r4, r6, sl, lr}^
    2980:	4699689b 			; <UNDEFINED> instruction: 0x4699689b
    2984:	46a09b04 	strtmi	r9, [r0], r4, lsl #22
    2988:	d1da429a 			; <UNDEFINED> instruction: 0xd1da429a
    298c:	d1d842a1 	bicsle	r4, r8, r1, lsr #5
    2990:	d1d64548 	bicsle	r4, r6, r8, asr #10
    2994:	9b08e7d7 	blls	0x23c8f8
    2998:	22009d06 	andcs	r9, r0, #384	; 0x180
    299c:	da00429f 	ble	0x13420
    29a0:	4658e0f6 			; <UNDEFINED> instruction: 0x4658e0f6
    29a4:	9c079908 			; <UNDEFINED> instruction: 0x9c079908
    29a8:	46b44e84 	ldrtmi	r4, [r4], r4, lsl #29
    29ac:	58c30093 	stmiapl	r3, {r0, r1, r4, r7}^
    29b0:	009b4463 	addseq	r4, fp, r3, ror #8
    29b4:	3201511a 	andcc	r5, r1, #-2147483642	; 0x80000006
    29b8:	d1f54291 			; <UNDEFINED> instruction: 0xd1f54291
    29bc:	21004683 	tstcs	r0, r3, lsl #13
    29c0:	9e082300 	cdpls	3, 0, cr2, cr8, cr0, {0}
    29c4:	009a9f07 	addseq	r9, sl, r7, lsl #30
    29c8:	42aa58ba 	adcmi	r5, sl, #12189696	; 0xba0000
    29cc:	0050da05 	subseq	sp, r0, r5, lsl #20
    29d0:	980c1882 	stmdals	ip, {r1, r7, fp, ip}
    29d4:	5022008c 	eorpl	r0, r2, ip, lsl #1
    29d8:	33013101 	tstcc	r1, #1073741824	; 0x40000000
    29dc:	dcf2429e 	lfmle	f4, 2, [r2], #632	; 0x278
    29e0:	46529b0d 	ldrbmi	r9, [r2], -sp, lsl #22
    29e4:	990a9300 	stmdbls	sl, {r8, r9, ip, pc}
    29e8:	980c002b 	stmdals	ip, {r0, r1, r3, r5}
    29ec:	fed4f7ff 			; <UNDEFINED> instruction: 0xfed4f7ff
    29f0:	2b009b09 	blcs	0x2961c
    29f4:	e0a1dc00 	adc	sp, r1, r0, lsl #24
    29f8:	002a2300 	eoreq	r2, sl, r0, lsl #6
    29fc:	001d9304 	andseq	r9, sp, r4, lsl #6
    2a00:	4690465b 			; <UNDEFINED> instruction: 0x4690465b
    2a04:	46d39306 	ldrbmi	r9, [r3], r6, lsl #6
    2a08:	4659e027 	ldrbmi	lr, [r9], -r7, lsr #32
    2a0c:	191b0063 	ldmdbne	fp, {r0, r1, r5, r6}
    2a10:	009a3301 	addseq	r3, sl, r1, lsl #6
    2a14:	44445851 	strbmi	r5, [r4], #-2129	; 0xfffff7af
    2a18:	00a49a06 	adceq	r9, r4, r6, lsl #20
    2a1c:	58a40080 	stmiapl	r4!, {r7}
    2a20:	42b95880 	adcsmi	r5, r9, #128, 16	; 0x800000
    2a24:	0fe2db08 	svceq	0x00e2db08
    2a28:	42a017c7 	adcmi	r1, r0, #52166656	; 0x31c0000
    2a2c:	0612417a 			; <UNDEFINED> instruction: 0x0612417a
    2a30:	9a05d04c 	bls	0x176b68
    2a34:	d1494291 			; <UNDEFINED> instruction: 0xd1494291
    2a38:	468c990b 	strmi	r9, [ip], fp, lsl #18
    2a3c:	00aa9903 	adceq	r9, sl, r3, lsl #18
    2a40:	44629808 	strbtmi	r9, [r2], #-2056	; 0xfffff7f8
    2a44:	60133101 	andsvs	r3, r3, r1, lsl #2
    2a48:	1c6b9103 	stfnep	f1, [fp], #-12
    2a4c:	d1004288 	tstle	r0, r8, lsl #5
    2a50:	001de07d 	andseq	lr, sp, sp, ror r0
    2a54:	42ab9b09 	adcmi	r9, fp, #9216	; 0x2400
    2a58:	9b03dd70 	blls	0xfa020
    2a5c:	9b07009f 	blls	0x1c2ce0
    2a60:	003b469c 	mlaseq	fp, ip, r6, r4
    2a64:	681c4463 	ldmdavs	ip, {r0, r1, r5, r6, sl, lr}
    2a68:	9b04930c 	blls	0x1276a0
    2a6c:	9b0a009e 	blls	0x282cec
    2a70:	4466469c 	strbtmi	r4, [r6], #-1692	; 0xfffff964
    2a74:	469a6833 			; <UNDEFINED> instruction: 0x469a6833
    2a78:	4699009b 			; <UNDEFINED> instruction: 0x4699009b
    2a7c:	464a465b 			; <UNDEFINED> instruction: 0x464a465b
    2a80:	2103589b 			; <UNDEFINED> instruction: 0x2103589b
    2a84:	001f4650 	andseq	r4, pc, r0, asr r6	; <UNPREDICTABLE>
    2a88:	f0029305 			; <UNDEFINED> instruction: 0xf0029305
    2a8c:	4544fb0d 	strbmi	pc, [r4, #-2829]	; 0xfffff4f3	; <UNPREDICTABLE>
    2a90:	4643dbbb 			; <UNDEFINED> instruction: 0x4643dbbb
    2a94:	1ae4465f 	bne	0xff914418
    2a98:	19090061 	stmdbne	r9, {r0, r5, r6}
    2a9c:	31031c8b 	tstcc	r3, fp, lsl #25
    2aa0:	0089009a 	umulleq	r0, r9, sl, r0
    2aa4:	59c959d2 	stmibpl	r9, {r1, r4, r6, r7, r8, fp, ip, lr}^
    2aa8:	9f063401 	svcls	0x00063401
    2aac:	44d900a4 	ldrbmi	r0, [r9], #164	; 0xa4
    2ab0:	464f59e4 	strbmi	r5, [pc], -r4, ror #19
    2ab4:	4440687f 	strbmi	r6, [r0], #-2175	; 0xfffff781
    2ab8:	9f0646bc 	svcls	0x000646bc
    2abc:	59c00080 	stmibpl	r0, {r7}^
    2ac0:	42ba9f05 	adcsmi	r9, sl, #5, 30
    2ac4:	9f05dbb8 	svcls	0x0005dbb8
    2ac8:	d05542ba 	ldrhle	r4, [r5], #-42	; 0xffffffd6
    2acc:	469c9b0b 	ldrmi	r9, [ip], fp, lsl #22
    2ad0:	00a84653 	adceq	r4, r8, r3, asr r6
    2ad4:	60034460 	andvs	r4, r3, r0, ror #8
    2ad8:	33019b04 	tstcc	r1, #4, 22	; 0x1000
    2adc:	9304001a 	tstls	r4, #26
    2ae0:	45901c6b 	ldrmi	r1, [r0, #3179]	; 0xc6b
    2ae4:	9a08d1b5 	bls	0x2371c0
    2ae8:	428a9903 	addmi	r9, sl, #49152	; 0xc000
    2aec:	9903dd63 	stmdbls	r3, {r0, r1, r5, r6, r8, sl, fp, ip, lr, pc}
    2af0:	1a549a08 	bne	0x1529318
    2af4:	300400a4 	andcc	r0, r4, r4, lsr #1
    2af8:	9f0c2100 	svcls	0x000c2100
    2afc:	e0064646 	and	r4, r6, r6, asr #12
    2b00:	1952006a 	ldmdbne	r2, {r1, r3, r5, r6}^
    2b04:	50423201 	subpl	r3, r2, r1, lsl #4
    2b08:	428c3104 	addmi	r3, ip, #4, 2
    2b0c:	587dd00a 	ldmdapl	sp!, {r1, r3, ip, lr, pc}^
    2b10:	dbf542b5 	blle	0xffd535ec
    2b14:	006a1bad 	rsbeq	r1, sl, sp, lsr #23
    2b18:	32021952 	andcc	r1, r2, #1343488	; 0x148000
    2b1c:	31045042 	tstcc	r4, r2, asr #32
    2b20:	d1f4428c 	mvnsle	r4, ip, lsl #5
    2b24:	1a9b9a03 	bne	0xfe6e9338
    2b28:	46949a08 	ldrmi	r9, [r4], r8, lsl #20
    2b2c:	33014463 	tstcc	r1, #1660944384	; 0x63000000
    2b30:	9b09001d 	blls	0x242bac
    2b34:	920346b0 	andls	r4, r3, #176, 12	; 0xb000000
    2b38:	dc8e42ab 	sfmle	f4, 4, [lr], {171}	; 0xab
    2b3c:	bc3cb00f 	ldclt	0, cr11, [ip], #-60	; 0xffffffc4
    2b40:	46994690 			; <UNDEFINED> instruction: 0x46994690
    2b44:	46ab46a2 	strtmi	r4, [fp], r2, lsr #13
    2b48:	bc01bcf0 	stclt	12, cr11, [r1], {240}	; 0xf0
    2b4c:	99044700 	stmdbls	r4, {r8, r9, sl, lr}
    2b50:	dd304588 	ldcle	5, cr4, [r0, #-544]!	; 0xfffffde0
    2b54:	98044641 	stmdals	r4, {r0, r6, r9, sl, lr}
    2b58:	1d111a08 			; <UNDEFINED> instruction: 0x1d111a08
    2b5c:	00802200 	addeq	r2, r0, r0, lsl #4
    2b60:	508c58b4 			; <UNDEFINED> instruction: 0x508c58b4
    2b64:	42903204 	addsmi	r3, r0, #4, 4	; 0x40000000
    2b68:	9a04d1fa 	bls	0x137358
    2b6c:	46421a9b 			; <UNDEFINED> instruction: 0x46421a9b
    2b70:	33014443 	tstcc	r1, #1124073472	; 0x43000000
    2b74:	e76c9204 	strb	r9, [ip, -r4, lsl #4]!
    2b78:	da004561 	ble	0x14104
    2b7c:	d1a5e75c 			; <UNDEFINED> instruction: 0xd1a5e75c
    2b80:	17c10fe2 	strbne	r0, [r1, r2, ror #31]
    2b84:	414a42a0 	cmpmi	sl, r0, lsr #5
    2b88:	d0000612 	andle	r0, r0, r2, lsl r6
    2b8c:	e79de754 			; <UNDEFINED> instruction: 0xe79de754
    2b90:	9c079e08 	stcls	14, cr9, [r7], {8}
    2b94:	0021003b 	eoreq	r0, r1, fp, lsr r0
    2b98:	00324658 	eorseq	r4, r2, r8, asr r6
    2b9c:	fe4ef7ff 			; <UNDEFINED> instruction: 0xfe4ef7ff
    2ba0:	00312300 	eorseq	r2, r1, r0, lsl #6
    2ba4:	009a4658 	addseq	r4, sl, r8, asr r6
    2ba8:	330158a2 	tstcc	r1, #10616832	; 0xa20000
    2bac:	50830092 	umullpl	r0, r3, r2, r0
    2bb0:	d1f8428b 	mvnsle	r4, fp, lsl #5
    2bb4:	1cabe702 	stcne	7, cr14, [fp], #8
    2bb8:	46c0e74b 	strbmi	lr, [r0], fp, asr #14
    2bbc:	3fffffff 	svccc	0x00ffffff
    2bc0:	4b13b5f8 	blmi	0x4f03a8
    2bc4:	4d13681b 	ldcmi	8, cr6, [r3, #-108]	; 0xffffff94
    2bc8:	2001681b 	andcs	r6, r1, fp, lsl r8
    2bcc:	f7fe602b 			; <UNDEFINED> instruction: 0xf7fe602b
    2bd0:	6828f933 	stmdavs	r8!, {r0, r1, r4, r5, r8, fp, ip, sp, lr, pc}
    2bd4:	0080300a 	addeq	r3, r0, sl
    2bd8:	f8f6f7fe 			; <UNDEFINED> instruction: 0xf8f6f7fe
    2bdc:	68286068 	stmdavs	r8!, {r3, r5, r6, sp, lr}
    2be0:	0080300a 	addeq	r3, r0, sl
    2be4:	f8f0f7fe 			; <UNDEFINED> instruction: 0xf8f0f7fe
    2be8:	60a8682b 	adcvs	r6, r8, fp, lsr #16
    2bec:	dd0c2b00 			; <UNDEFINED> instruction: 0xdd0c2b00
    2bf0:	f7fe2400 			; <UNDEFINED> instruction: 0xf7fe2400
    2bf4:	211af929 	tstpcs	sl, r9, lsr #18
    2bf8:	fa52f002 			; <UNDEFINED> instruction: 0xfa52f002
    2bfc:	682b686e 	stmdavs	fp!, {r1, r2, r3, r5, r6, fp, sp, lr}
    2c00:	340100a7 	strcc	r0, [r1], #-167	; 0xffffff59
    2c04:	42a351b9 	adcmi	r5, r3, #1073741870	; 0x4000002e
    2c08:	bcf8dcf3 	ldcllt	12, cr13, [r8], #972	; 0x3cc
    2c0c:	4700bc01 	strmi	fp, [r0, -r1, lsl #24]
    2c10:	03000158 	tsteq	r0, #88, 2
    2c14:	030000fc 	tsteq	r0, #252	; 0xfc
    2c18:	4b05b510 	blmi	0x170060
    2c1c:	3304681a 	tstcc	r4, #1703936	; 0x1a0000
    2c20:	231acb03 	tstcs	sl, #3072	; 0xc00
    2c24:	fe0af7ff 			; <UNDEFINED> instruction: 0xfe0af7ff
    2c28:	bc01bc10 	stclt	12, cr11, [r1], {16}
    2c2c:	46c04700 	strbmi	r4, [r0], r0, lsl #14
    2c30:	030000fc 	tsteq	r0, #252	; 0xfc
    2c34:	68194b08 	ldmdavs	r9, {r3, r8, r9, fp, lr}
    2c38:	00896898 	umulleq	r6, r9, r8, r8
    2c3c:	1841b510 	stmdane	r1, {r4, r8, sl, ip, sp, pc}^
    2c40:	f914f7fe 			; <UNDEFINED> instruction: 0xf914f7fe
    2c44:	681b4b05 	ldmdavs	fp, {r0, r2, r8, r9, fp, lr}
    2c48:	1a1868db 	bne	0x61cfbc
    2c4c:	41584243 	cmpmi	r8, r3, asr #4
    2c50:	bc02bc10 	stclt	12, cr11, [r2], {16}
    2c54:	46c04708 	strbmi	r4, [r0], r8, lsl #14
    2c58:	030000fc 	tsteq	r0, #252	; 0xfc
    2c5c:	03000158 	tsteq	r0, #88, 2
    2c60:	e2512001 	subs	r2, r1, #1
    2c64:	012fff1e 	bxeq	lr
    2c68:	3a000036 	bcc	0x2d48
    2c6c:	e1500001 	cmp	r0, r1
    2c70:	9a000022 	bls	0x2d00
    2c74:	e1110002 	tst	r1, r2
    2c78:	0a000023 	beq	0x2d0c
    2c7c:	e311020e 	tst	r1, #-536870912	; 0xe0000000
    2c80:	01a01181 	lsleq	r1, r1, #3
    2c84:	03a03008 	moveq	r3, #8
    2c88:	13a03001 	movne	r3, #1
    2c8c:	e3510201 	cmp	r1, #268435456	; 0x10000000
    2c90:	31510000 	cmpcc	r1, r0
    2c94:	31a01201 	lslcc	r1, r1, #4
    2c98:	31a03203 	lslcc	r3, r3, #4
    2c9c:	3afffffa 	bcc	0x2c8c
    2ca0:	e3510102 	cmp	r1, #-2147483648	; 0x80000000
    2ca4:	31510000 	cmpcc	r1, r0
    2ca8:	31a01081 	lslcc	r1, r1, #1
    2cac:	31a03083 	lslcc	r3, r3, #1
    2cb0:	3afffffa 	bcc	0x2ca0
    2cb4:	e3a02000 	mov	r2, #0
    2cb8:	e1500001 	cmp	r0, r1
    2cbc:	20400001 	subcs	r0, r0, r1
    2cc0:	21822003 	orrcs	r2, r2, r3
    2cc4:	e15000a1 	cmp	r0, r1, lsr #1
    2cc8:	204000a1 	subcs	r0, r0, r1, lsr #1
    2ccc:	218220a3 	orrcs	r2, r2, r3, lsr #1
    2cd0:	e1500121 	cmp	r0, r1, lsr #2
    2cd4:	20400121 	subcs	r0, r0, r1, lsr #2
    2cd8:	21822123 	orrcs	r2, r2, r3, lsr #2
    2cdc:	e15001a1 	cmp	r0, r1, lsr #3
    2ce0:	204001a1 	subcs	r0, r0, r1, lsr #3
    2ce4:	218221a3 	orrcs	r2, r2, r3, lsr #3
    2ce8:	e3500000 	cmp	r0, #0
    2cec:	11b03223 	lsrsne	r3, r3, #4
    2cf0:	11a01221 	lsrne	r1, r1, #4
    2cf4:	1affffef 	bne	0x2cb8
    2cf8:	e1a00002 	mov	r0, r2
    2cfc:	e12fff1e 	bx	lr
    2d00:	03a00001 	moveq	r0, #1
    2d04:	13a00000 	movne	r0, #0
    2d08:	e12fff1e 	bx	lr
    2d0c:	e3510801 	cmp	r1, #65536	; 0x10000
    2d10:	21a01821 	lsrcs	r1, r1, #16
    2d14:	23a02010 	movcs	r2, #16
    2d18:	33a02000 	movcc	r2, #0
    2d1c:	e3510c01 	cmp	r1, #256	; 0x100
    2d20:	21a01421 	lsrcs	r1, r1, #8
    2d24:	22822008 	addcs	r2, r2, #8
    2d28:	e3510010 	cmp	r1, #16
    2d2c:	21a01221 	lsrcs	r1, r1, #4
    2d30:	22822004 	addcs	r2, r2, #4
    2d34:	e3510004 	cmp	r1, #4
    2d38:	82822003 	addhi	r2, r2, #3
    2d3c:	908220a1 	addls	r2, r2, r1, lsr #1
    2d40:	e1a00230 	lsr	r0, r0, r2
    2d44:	e12fff1e 	bx	lr
    2d48:	e3500000 	cmp	r0, #0
    2d4c:	13e00000 	mvnne	r0, #0
    2d50:	ea000059 	b	0x2ebc
    2d54:	e3510000 	cmp	r1, #0
    2d58:	0afffffa 	beq	0x2d48
    2d5c:	e92d4003 	push	{r0, r1, lr}
    2d60:	ebffffbe 	bl	0x2c60
    2d64:	e8bd4006 	pop	{r1, r2, lr}
    2d68:	e0030092 	mul	r3, r2, r0
    2d6c:	e0411003 	sub	r1, r1, r3
    2d70:	e12fff1e 	bx	lr
    2d74:	e3510000 	cmp	r1, #0
    2d78:	0a000043 	beq	0x2e8c
    2d7c:	e020c001 	eor	ip, r0, r1
    2d80:	42611000 	rsbmi	r1, r1, #0
    2d84:	e2512001 	subs	r2, r1, #1
    2d88:	0a000027 	beq	0x2e2c
    2d8c:	e1b03000 	movs	r3, r0
    2d90:	42603000 	rsbmi	r3, r0, #0
    2d94:	e1530001 	cmp	r3, r1
    2d98:	9a000026 	bls	0x2e38
    2d9c:	e1110002 	tst	r1, r2
    2da0:	0a000028 	beq	0x2e48
    2da4:	e311020e 	tst	r1, #-536870912	; 0xe0000000
    2da8:	01a01181 	lsleq	r1, r1, #3
    2dac:	03a02008 	moveq	r2, #8
    2db0:	13a02001 	movne	r2, #1
    2db4:	e3510201 	cmp	r1, #268435456	; 0x10000000
    2db8:	31510003 	cmpcc	r1, r3
    2dbc:	31a01201 	lslcc	r1, r1, #4
    2dc0:	31a02202 	lslcc	r2, r2, #4
    2dc4:	3afffffa 	bcc	0x2db4
    2dc8:	e3510102 	cmp	r1, #-2147483648	; 0x80000000
    2dcc:	31510003 	cmpcc	r1, r3
    2dd0:	31a01081 	lslcc	r1, r1, #1
    2dd4:	31a02082 	lslcc	r2, r2, #1
    2dd8:	3afffffa 	bcc	0x2dc8
    2ddc:	e3a00000 	mov	r0, #0
    2de0:	e1530001 	cmp	r3, r1
    2de4:	20433001 	subcs	r3, r3, r1
    2de8:	21800002 	orrcs	r0, r0, r2
    2dec:	e15300a1 	cmp	r3, r1, lsr #1
    2df0:	204330a1 	subcs	r3, r3, r1, lsr #1
    2df4:	218000a2 	orrcs	r0, r0, r2, lsr #1
    2df8:	e1530121 	cmp	r3, r1, lsr #2
    2dfc:	20433121 	subcs	r3, r3, r1, lsr #2
    2e00:	21800122 	orrcs	r0, r0, r2, lsr #2
    2e04:	e15301a1 	cmp	r3, r1, lsr #3
    2e08:	204331a1 	subcs	r3, r3, r1, lsr #3
    2e0c:	218001a2 	orrcs	r0, r0, r2, lsr #3
    2e10:	e3530000 	cmp	r3, #0
    2e14:	11b02222 	lsrsne	r2, r2, #4
    2e18:	11a01221 	lsrne	r1, r1, #4
    2e1c:	1affffef 	bne	0x2de0
    2e20:	e35c0000 	cmp	ip, #0
    2e24:	42600000 	rsbmi	r0, r0, #0
    2e28:	e12fff1e 	bx	lr
    2e2c:	e13c0000 	teq	ip, r0
    2e30:	42600000 	rsbmi	r0, r0, #0
    2e34:	e12fff1e 	bx	lr
    2e38:	33a00000 	movcc	r0, #0
    2e3c:	01a00fcc 	asreq	r0, ip, #31
    2e40:	03800001 	orreq	r0, r0, #1
    2e44:	e12fff1e 	bx	lr
    2e48:	e3510801 	cmp	r1, #65536	; 0x10000
    2e4c:	21a01821 	lsrcs	r1, r1, #16
    2e50:	23a02010 	movcs	r2, #16
    2e54:	33a02000 	movcc	r2, #0
    2e58:	e3510c01 	cmp	r1, #256	; 0x100
    2e5c:	21a01421 	lsrcs	r1, r1, #8
    2e60:	22822008 	addcs	r2, r2, #8
    2e64:	e3510010 	cmp	r1, #16
    2e68:	21a01221 	lsrcs	r1, r1, #4
    2e6c:	22822004 	addcs	r2, r2, #4
    2e70:	e3510004 	cmp	r1, #4
    2e74:	82822003 	addhi	r2, r2, #3
    2e78:	908220a1 	addls	r2, r2, r1, lsr #1
    2e7c:	e35c0000 	cmp	ip, #0
    2e80:	e1a00233 	lsr	r0, r3, r2
    2e84:	42600000 	rsbmi	r0, r0, #0
    2e88:	e12fff1e 	bx	lr
    2e8c:	e3500000 	cmp	r0, #0
    2e90:	c3e00102 	mvngt	r0, #-2147483648	; 0x80000000
    2e94:	b3a00102 	movlt	r0, #-2147483648	; 0x80000000
    2e98:	ea000007 	b	0x2ebc
    2e9c:	e3510000 	cmp	r1, #0
    2ea0:	0afffff9 	beq	0x2e8c
    2ea4:	e92d4003 	push	{r0, r1, lr}
    2ea8:	ebffffb3 	bl	0x2d7c
    2eac:	e8bd4006 	pop	{r1, r2, lr}
    2eb0:	e0030092 	mul	r3, r2, r0
    2eb4:	e0411003 	sub	r1, r1, r3
    2eb8:	e12fff1e 	bx	lr
    2ebc:	e12fff1e 	bx	lr
    2ec0:	e3530000 	cmp	r3, #0
    2ec4:	03520000 	cmpeq	r2, #0
    2ec8:	1a000004 	bne	0x2ee0
    2ecc:	e3510000 	cmp	r1, #0
    2ed0:	03500000 	cmpeq	r0, #0
    2ed4:	13e01000 	mvnne	r1, #0
    2ed8:	13e00000 	mvnne	r0, #0
    2edc:	eafffff6 	b	0x2ebc
    2ee0:	e24dd008 	sub	sp, sp, #8
    2ee4:	e92d6000 	push	{sp, lr}
    2ee8:	eb00024c 	bl	0x3820
    2eec:	e59de004 	ldr	lr, [sp, #4]
    2ef0:	e28dd008 	add	sp, sp, #8
    2ef4:	e8bd000c 	pop	{r2, r3}
    2ef8:	e12fff1e 	bx	lr
    2efc:	e2801034 	add	r1, r0, #52	; 0x34
    2f00:	e8910038 	ldm	r1, {r3, r4, r5}
    2f04:	e1a02005 	mov	r2, r5
    2f08:	e92d001c 	push	{r2, r3, r4}
    2f0c:	e8900fff 	ldm	r0, {r0, r1, r2, r3, r4, r5, r6, r7, r8, r9, sl, fp}
    2f10:	e89d7000 	ldm	sp, {ip, sp, lr}
    2f14:	e12fff1c 	bx	ip
    2f18:	ec900b21 			; <UNDEFINED> instruction: 0xec900b21
    2f1c:	e12fff1e 	bx	lr
    2f20:	ec800b21 			; <UNDEFINED> instruction: 0xec800b21
    2f24:	e12fff1e 	bx	lr
    2f28:	ec900b20 			; <UNDEFINED> instruction: 0xec900b20
    2f2c:	e12fff1e 	bx	lr
    2f30:	ec800b20 			; <UNDEFINED> instruction: 0xec800b20
    2f34:	e12fff1e 	bx	lr
    2f38:	ecd00b20 			; <UNDEFINED> instruction: 0xecd00b20
    2f3c:	e12fff1e 	bx	lr
    2f40:	ecc00b20 			; <UNDEFINED> instruction: 0xecc00b20
    2f44:	e12fff1e 	bx	lr
    2f48:	ecf00102 	ldfe	f0, [r0], #8
    2f4c:	ecf01102 	ldfe	f1, [r0], #8
    2f50:	ecf02102 	ldfe	f2, [r0], #8
    2f54:	ecf03102 	ldfe	f3, [r0], #8
    2f58:	ecf04102 	ldfe	f4, [r0], #8
    2f5c:	ecf05102 	ldfe	f5, [r0], #8
    2f60:	ecf06102 	ldfe	f6, [r0], #8
    2f64:	ecf07102 	ldfe	f7, [r0], #8
    2f68:	ecf08102 	ldfp	f0, [r0], #8
    2f6c:	ecf09102 	ldfp	f1, [r0], #8
    2f70:	ecf0a102 	ldfp	f2, [r0], #8
    2f74:	ecf0b102 	ldfp	f3, [r0], #8
    2f78:	ecf0c102 	ldfp	f4, [r0], #8
    2f7c:	ecf0d102 	ldfp	f5, [r0], #8
    2f80:	ecf0e102 	ldfp	f6, [r0], #8
    2f84:	ecf0f102 	ldfp	f7, [r0], #8
    2f88:	e12fff1e 	bx	lr
    2f8c:	ece00102 	stfe	f0, [r0], #8
    2f90:	ece01102 	stfe	f1, [r0], #8
    2f94:	ece02102 	stfe	f2, [r0], #8
    2f98:	ece03102 	stfe	f3, [r0], #8
    2f9c:	ece04102 	stfe	f4, [r0], #8
    2fa0:	ece05102 	stfe	f5, [r0], #8
    2fa4:	ece06102 	stfe	f6, [r0], #8
    2fa8:	ece07102 	stfe	f7, [r0], #8
    2fac:	ece08102 	stfp	f0, [r0], #8
    2fb0:	ece09102 	stfp	f1, [r0], #8
    2fb4:	ece0a102 	stfp	f2, [r0], #8
    2fb8:	ece0b102 	stfp	f3, [r0], #8
    2fbc:	ece0c102 	stfp	f4, [r0], #8
    2fc0:	ece0d102 	stfp	f5, [r0], #8
    2fc4:	ece0e102 	stfp	f6, [r0], #8
    2fc8:	ece0f102 	stfp	f7, [r0], #8
    2fcc:	e12fff1e 	bx	lr
    2fd0:	fcb08101 			; <UNDEFINED> instruction: 0xfcb08101
    2fd4:	fcb09101 			; <UNDEFINED> instruction: 0xfcb09101
    2fd8:	fcb0a101 			; <UNDEFINED> instruction: 0xfcb0a101
    2fdc:	fcb0b101 			; <UNDEFINED> instruction: 0xfcb0b101
    2fe0:	e12fff1e 	bx	lr
    2fe4:	fca08101 			; <UNDEFINED> instruction: 0xfca08101
    2fe8:	fca09101 			; <UNDEFINED> instruction: 0xfca09101
    2fec:	fca0a101 			; <UNDEFINED> instruction: 0xfca0a101
    2ff0:	fca0b101 			; <UNDEFINED> instruction: 0xfca0b101
    2ff4:	e12fff1e 	bx	lr
    2ff8:	e92de000 	push	{sp, lr, pc}
    2ffc:	e92d1fff 	push	{r0, r1, r2, r3, r4, r5, r6, r7, r8, r9, sl, fp, ip}
    3000:	e3a03000 	mov	r3, #0
    3004:	e92d000c 	push	{r2, r3}
    3008:	e28d1004 	add	r1, sp, #4
    300c:	eb000370 	bl	0x3dd4
    3010:	e59de040 	ldr	lr, [sp, #64]	; 0x40
    3014:	e28dd048 	add	sp, sp, #72	; 0x48
    3018:	e12fff1e 	bx	lr
    301c:	e92de000 	push	{sp, lr, pc}
    3020:	e92d1fff 	push	{r0, r1, r2, r3, r4, r5, r6, r7, r8, r9, sl, fp, ip}
    3024:	e3a03000 	mov	r3, #0
    3028:	e92d000c 	push	{r2, r3}
    302c:	e28d1004 	add	r1, sp, #4
    3030:	eb00039b 	bl	0x3ea4
    3034:	e59de040 	ldr	lr, [sp, #64]	; 0x40
    3038:	e28dd048 	add	sp, sp, #72	; 0x48
    303c:	e12fff1e 	bx	lr
    3040:	e92de000 	push	{sp, lr, pc}
    3044:	e92d1fff 	push	{r0, r1, r2, r3, r4, r5, r6, r7, r8, r9, sl, fp, ip}
    3048:	e3a03000 	mov	r3, #0
    304c:	e92d000c 	push	{r2, r3}
    3050:	e28d1004 	add	r1, sp, #4
    3054:	eb0003b0 	bl	0x3f1c
    3058:	e59de040 	ldr	lr, [sp, #64]	; 0x40
    305c:	e28dd048 	add	sp, sp, #72	; 0x48
    3060:	e12fff1e 	bx	lr
    3064:	e92de000 	push	{sp, lr, pc}
    3068:	e92d1fff 	push	{r0, r1, r2, r3, r4, r5, r6, r7, r8, r9, sl, fp, ip}
    306c:	e3a03000 	mov	r3, #0
    3070:	e92d000c 	push	{r2, r3}
    3074:	e28d3004 	add	r3, sp, #4
    3078:	eb000380 	bl	0x3e80
    307c:	e59de040 	ldr	lr, [sp, #64]	; 0x40
    3080:	e28dd048 	add	sp, sp, #72	; 0x48
    3084:	e12fff1e 	bx	lr
    3088:	e92de000 	push	{sp, lr, pc}
    308c:	e92d1fff 	push	{r0, r1, r2, r3, r4, r5, r6, r7, r8, r9, sl, fp, ip}
    3090:	e3a03000 	mov	r3, #0
    3094:	e92d000c 	push	{r2, r3}
    3098:	e28d2004 	add	r2, sp, #4
    309c:	eb0003f1 	bl	0x4068
    30a0:	e59de040 	ldr	lr, [sp, #64]	; 0x40
    30a4:	e28dd048 	add	sp, sp, #72	; 0x48
    30a8:	e12fff1e 	bx	lr
    30ac:	e92d4010 	push	{r4, lr}
    30b0:	e3510000 	cmp	r1, #0
    30b4:	1a000002 	bne	0x30c4
    30b8:	eb000005 	bl	0x30d4
    30bc:	e2800020 	add	r0, r0, #32
    30c0:	ea000001 	b	0x30cc
    30c4:	e1a00001 	mov	r0, r1
    30c8:	eb000001 	bl	0x30d4
    30cc:	e8bd4010 	pop	{r4, lr}
    30d0:	e12fff1e 	bx	lr
    30d4:	e3a0101c 	mov	r1, #28
    30d8:	e3500801 	cmp	r0, #65536	; 0x10000
    30dc:	21a00820 	lsrcs	r0, r0, #16
    30e0:	22411010 	subcs	r1, r1, #16
    30e4:	e3500c01 	cmp	r0, #256	; 0x100
    30e8:	21a00420 	lsrcs	r0, r0, #8
    30ec:	22411008 	subcs	r1, r1, #8
    30f0:	e3500010 	cmp	r0, #16
    30f4:	21a00220 	lsrcs	r0, r0, #4
    30f8:	22411004 	subcs	r1, r1, #4
    30fc:	e28f2008 	add	r2, pc, #8
    3100:	e7d20000 	ldrb	r0, [r2, r0]
    3104:	e0800001 	add	r0, r0, r1
    3108:	e12fff1e 	bx	lr
    310c:	02020304 	andeq	r0, r2, #4, 6	; 0x10000000
    3110:	01010101 	tsteq	r1, r1, lsl #2
	...
    311c:	e59f0018 	ldr	r0, [pc, #24]	; 0x313c
    3120:	e59f3018 	ldr	r3, [pc, #24]	; 0x3140
    3124:	e1530000 	cmp	r3, r0
    3128:	012fff1e 	bxeq	lr
    312c:	e59f3010 	ldr	r3, [pc, #16]	; 0x3144
    3130:	e3530000 	cmp	r3, #0
    3134:	012fff1e 	bxeq	lr
    3138:	e12fff13 	bx	r3
    313c:	03000858 	tsteq	r0, #88, 16	; 0x580000
    3140:	03000858 	tsteq	r0, #88, 16	; 0x580000
    3144:	00000000 	andeq	r0, r0, r0
    3148:	e59f0024 	ldr	r0, [pc, #36]	; 0x3174
    314c:	e59f1024 	ldr	r1, [pc, #36]	; 0x3178
    3150:	e0411000 	sub	r1, r1, r0
    3154:	e1a01141 	asr	r1, r1, #2
    3158:	e0811fa1 	add	r1, r1, r1, lsr #31
    315c:	e1b010c1 	asrs	r1, r1, #1
    3160:	012fff1e 	bxeq	lr
    3164:	e59f3010 	ldr	r3, [pc, #16]	; 0x317c
    3168:	e3530000 	cmp	r3, #0
    316c:	012fff1e 	bxeq	lr
    3170:	e12fff13 	bx	r3
    3174:	03000858 	tsteq	r0, #88, 16	; 0x580000
    3178:	03000858 	tsteq	r0, #88, 16	; 0x580000
    317c:	00000000 	andeq	r0, r0, r0
    3180:	e92d4010 	push	{r4, lr}
    3184:	e59f402c 	ldr	r4, [pc, #44]	; 0x31b8
    3188:	e5d43000 	ldrb	r3, [r4]
    318c:	e3530000 	cmp	r3, #0
    3190:	1a000006 	bne	0x31b0
    3194:	ebffffe0 	bl	0x311c
    3198:	e59f301c 	ldr	r3, [pc, #28]	; 0x31bc
    319c:	e3530000 	cmp	r3, #0
    31a0:	159f0018 	ldrne	r0, [pc, #24]	; 0x31c0
    31a4:	11a00000 	movne	r0, r0
    31a8:	e3a03001 	mov	r3, #1
    31ac:	e5c43000 	strb	r3, [r4]
    31b0:	e8bd4010 	pop	{r4, lr}
    31b4:	e12fff1e 	bx	lr
    31b8:	03000000 	tsteq	r0, #0
    31bc:	00000000 	andeq	r0, r0, r0
    31c0:	080057d4 	stmdaeq	r0, {r2, r4, r6, r7, r8, r9, sl, ip, lr}
    31c4:	e59f3020 	ldr	r3, [pc, #32]	; 0x31ec
    31c8:	e3530000 	cmp	r3, #0
    31cc:	0a000005 	beq	0x31e8
    31d0:	e92d4010 	push	{r4, lr}
    31d4:	e59f1014 	ldr	r1, [pc, #20]	; 0x31f0
    31d8:	e59f0014 	ldr	r0, [pc, #20]	; 0x31f4
    31dc:	e1a00000 	nop			; (mov r0, r0)
    31e0:	e8bd4010 	pop	{r4, lr}
    31e4:	eaffffd7 	b	0x3148
    31e8:	eaffffd6 	b	0x3148
    31ec:	00000000 	andeq	r0, r0, r0
    31f0:	03000004 	tsteq	r0, #4
    31f4:	080057d4 	stmdaeq	r0, {r2, r4, r6, r7, r8, r9, sl, ip, lr}
    31f8:	2301b5f0 	tstcs	r1, #240, 10	; 0x3c000000
    31fc:	46de464e 	ldrbmi	r4, [lr], lr, asr #12
    3200:	46454657 			; <UNDEFINED> instruction: 0x46454657
    3204:	7003b5e0 	andvc	fp, r3, r0, ror #11
    3208:	00062300 	andeq	r2, r6, r0, lsl #6
    320c:	70c3b095 	smullvc	fp, r3, r5, r0
    3210:	c208aa04 	andgt	sl, r8, #4, 20	; 0x4000
    3214:	2b103301 	blcs	0x40fe20
    3218:	1d33d1fb 	ldfned	f5, [r3, #-1004]!	; 0xfffffc14
    321c:	46999303 	ldrmi	r9, [r9], r3, lsl #6
    3220:	46982300 	ldrmi	r2, [r8], r0, lsl #6
    3224:	469b3314 			; <UNDEFINED> instruction: 0x469b3314
    3228:	9302ab03 	tstls	r2, #3072	; 0xc00
    322c:	469a2303 	ldrmi	r2, [sl], r3, lsl #6
    3230:	465b44b3 			; <UNDEFINED> instruction: 0x465b44b3
    3234:	2400464a 	strcs	r4, [r0], #-1610	; 0xfffff9b6
    3238:	f7fd1a9d 			; <UNDEFINED> instruction: 0xf7fd1a9d
    323c:	0029fe05 	eoreq	pc, r9, r5, lsl #28
    3240:	ff2ef001 			; <UNDEFINED> instruction: 0xff2ef001
    3244:	0089464a 	addeq	r4, r9, sl, asr #12
    3248:	585bab04 	ldmdapl	fp, {r2, r8, r9, fp, sp, pc}^
    324c:	2b005513 	blcs	0x186a0
    3250:	4643d132 			; <UNDEFINED> instruction: 0x4643d132
    3254:	707370b4 	ldrhvc	r7, [r3], #-4	; <UNPREDICTABLE>
    3258:	00ab9a02 	adceq	r9, fp, r2, lsl #20
    325c:	930158d3 	tstls	r1, #13828096	; 0xd30000
    3260:	ab049a01 	blge	0x129a6c
    3264:	505a3401 	subspl	r3, sl, r1, lsl #8
    3268:	2c043d01 	stccs	13, cr3, [r4], {1}
    326c:	2301d1e5 	tstcs	r1, #1073741881	; 0x40000039
    3270:	3303469c 	tstcc	r3, #156, 12	; 0x9c00000
    3274:	469c44e0 	ldrmi	r4, [ip], r0, ror #9
    3278:	44e14643 	strbtmi	r4, [r1], #1603	; 0x643
    327c:	d1d82b04 	bicsle	r2, r8, r4, lsl #22
    3280:	20002300 	andcs	r2, r0, r0, lsl #6
    3284:	99036173 	stmdbls	r3, {r0, r1, r4, r5, r6, r8, sp, lr}
    3288:	1f0b4c18 	svcne	0x000b4c18
    328c:	43620002 	cmnmi	r2, #2
    3290:	56182004 	ldrpl	r2, [r8], -r4
    3294:	18103301 	ldmdane	r0, {r0, r8, r9, ip, sp}
    3298:	d1f7428b 	mvnsle	r4, fp, lsl #5
    329c:	458b1d19 	strmi	r1, [fp, #3353]	; 0xd19
    32a0:	6170d1f3 	ldrshvs	sp, [r0, #-19]!	; 0xffffffed
    32a4:	b0150030 	andslt	r0, r5, r0, lsr r0
    32a8:	4690bc3c 			; <UNDEFINED> instruction: 0x4690bc3c
    32ac:	46a24699 			; <UNDEFINED> instruction: 0x46a24699
    32b0:	bcf046ab 	ldcllt	6, cr4, [r0], #684	; 0x2ac
    32b4:	4708bc02 	strmi	fp, [r8, -r2, lsl #24]
    32b8:	46474650 			; <UNDEFINED> instruction: 0x46474650
    32bc:	17da3b01 	ldrbne	r3, [sl, r1, lsl #22]
    32c0:	18c04010 	stmiane	r0, {r4, lr}^
    32c4:	1bc01080 	blne	0xff0074cc
    32c8:	19c017c7 	stmibne	r0, {r0, r1, r2, r6, r7, r8, r9, sl, ip}^
    32cc:	46574078 			; <UNDEFINED> instruction: 0x46574078
    32d0:	189b0f92 	ldmne	fp, {r1, r4, r7, r8, r9, sl, fp}
    32d4:	1a9b403b 	bne	0xfe6d33c8
    32d8:	17da1b1b 			; <UNDEFINED> instruction: 0x17da1b1b
    32dc:	4053189b 			; <UNDEFINED> instruction: 0x4053189b
    32e0:	78f018c3 	ldmvc	r0!, {r0, r1, r6, r7, fp, ip}^
    32e4:	70f3181b 	rscsvc	r1, r3, fp, lsl r8
    32e8:	46c0e7b6 			; <UNDEFINED> instruction: 0x46c0e7b6
    32ec:	000007b5 			; <UNDEFINED> instruction: 0x000007b5
    32f0:	b5f02301 	ldrblt	r2, [r0, #769]!	; 0x301
    32f4:	46de4657 			; <UNDEFINED> instruction: 0x46de4657
    32f8:	4645464e 	strbmi	r4, [r5], -lr, asr #12
    32fc:	23007003 	tstcs	r0, #3
    3300:	b087b5e0 	addlt	fp, r7, r0, ror #11
    3304:	af0270c3 	svcge	0x000270c3
    3308:	469cab06 	ldrmi	sl, [ip], r6, lsl #22
    330c:	003b2200 	eorseq	r2, fp, r0, lsl #4
    3310:	3301701a 	tstcc	r1, #26
    3314:	d1fb4563 	mvnsle	r4, r3, ror #10
    3318:	46981d03 	ldrmi	r1, [r8], r3, lsl #26
    331c:	23019301 	tstcs	r1, #67108864	; 0x4000000
    3320:	469a468b 	ldrmi	r4, [sl], fp, lsl #13
    3324:	465e3302 	ldrbmi	r3, [lr], -r2, lsl #6
    3328:	46992100 	ldrmi	r2, [r9], r0, lsl #2
    332c:	464546bb 			; <UNDEFINED> instruction: 0x464546bb
    3330:	22000034 	andcs	r0, r0, #52	; 0x34
    3334:	46569600 	ldrbmi	r9, [r6], -r0, lsl #12
    3338:	54ab6823 	strtpl	r6, [fp], #2083	; 0x823
    333c:	ab026827 	blge	0x9d3e0
    3340:	2f0055de 	svccs	0x000055de
    3344:	7041d130 	subvc	sp, r1, r0, lsr r1
    3348:	32017082 	andcc	r7, r1, #130	; 0x82
    334c:	2a043404 	bcs	0x110364
    3350:	9e00d1f1 	mcrls	1, 0, sp, cr0, cr1, {7}
    3354:	36103101 	ldrcc	r3, [r0], -r1, lsl #2
    3358:	29043504 	stmdbcs	r4, {r2, r8, sl, ip, sp}
    335c:	465fd1e8 	ldrbmi	sp, [pc], -r8, ror #3
    3360:	2b00783b 	blcs	0x21454
    3364:	3701d040 	strcc	sp, [r1, -r0, asr #32]
    3368:	d1f94567 	mvnsle	r4, r7, ror #10
    336c:	23002200 	tstcs	r0, #0, 4
    3370:	00140006 	andseq	r0, r4, r6
    3374:	99016143 	stmdbls	r1, {r0, r1, r6, r8, sp, lr}
    3378:	36144d1c 			; <UNDEFINED> instruction: 0x36144d1c
    337c:	00221f0b 	eoreq	r1, r2, fp, lsl #30
    3380:	2404436a 	strcs	r4, [r4], #-874	; 0xfffffc96
    3384:	3301571c 	tstcc	r1, #28, 14	; 0x700000
    3388:	428b1914 	addmi	r1, fp, #20, 18	; 0x50000
    338c:	1d19d1f7 	ldfned	f5, [r9, #-988]	; 0xfffffc24
    3390:	d1f3428e 	mvnsle	r4, lr, lsl #5
    3394:	b0076144 	andlt	r6, r7, r4, asr #2
    3398:	4690bc3c 			; <UNDEFINED> instruction: 0x4690bc3c
    339c:	46a24699 			; <UNDEFINED> instruction: 0x46a24699
    33a0:	bcf046ab 	ldcllt	6, cr4, [r0], #684	; 0x2ac
    33a4:	4708bc02 	strmi	fp, [r8, -r2, lsl #24]
    33a8:	3f01464e 	svccc	0x0001464e
    33ac:	403317fb 			; <UNDEFINED> instruction: 0x403317fb
    33b0:	109b19db 			; <UNDEFINED> instruction: 0x109b19db
    33b4:	17de1a5b 			; <UNDEFINED> instruction: 0x17de1a5b
    33b8:	199b78c7 	ldmibne	fp, {r0, r1, r2, r6, r7, fp, ip, sp, lr}
    33bc:	19db4073 	ldmibne	fp, {r0, r1, r4, r5, r6, lr}^
    33c0:	0e1b061b 	mrceq	6, 0, r0, cr11, cr11, {0}
    33c4:	682670c3 	stmdavs	r6!, {r0, r1, r6, r7, ip, sp, lr}
    33c8:	17fe1e77 			; <UNDEFINED> instruction: 0x17fe1e77
    33cc:	46b00fb6 			; <UNDEFINED> instruction: 0x46b00fb6
    33d0:	4447464e 	strbmi	r4, [r7], #-1614	; 0xfffff9b2
    33d4:	46464037 			; <UNDEFINED> instruction: 0x46464037
    33d8:	1abf1bbf 	bne	0xfefca2dc
    33dc:	19bf17fe 	ldmibne	pc!, {r1, r2, r3, r4, r5, r6, r7, r8, r9, sl, ip}	; <UNPREDICTABLE>
    33e0:	19db4077 	ldmibne	fp, {r0, r1, r2, r4, r5, r6, lr}^
    33e4:	e7b070c3 	ldr	r7, [r0, r3, asr #1]!
    33e8:	e7d47003 	ldrb	r7, [r4, r3]
    33ec:	000007b5 			; <UNDEFINED> instruction: 0x000007b5
    33f0:	7802b570 	stmdavc	r2, {r4, r5, r6, r8, sl, ip, sp, pc}
    33f4:	d0152a00 	andsle	r2, r5, r0, lsl #20
    33f8:	2a00780a 	bcs	0x21428
    33fc:	694bd012 	stmdbvs	fp, {r1, r4, ip, lr, pc}^
    3400:	42a36944 	adcmi	r6, r3, #68, 18	; 0x110000
    3404:	1d06d112 	stfned	f5, [r6, #-72]	; 0xffffffb8
    3408:	30143104 	andscc	r3, r4, r4, lsl #2
    340c:	56f52300 	ldrbtpl	r2, [r5], r0, lsl #6
    3410:	42a556cc 	adcmi	r5, r5, #204, 12	; 0xcc00000
    3414:	3301d10a 	tstcc	r1, #-2147483646	; 0x80000002
    3418:	d1f82b04 	mvnsle	r2, r4, lsl #22
    341c:	31043604 	tstcc	r4, r4, lsl #12
    3420:	d1f34286 	mvnsle	r4, r6, lsl #5
    3424:	bc700010 	ldcllt	0, cr0, [r0], #-64	; 0xffffffc0
    3428:	4708bc02 	strmi	fp, [r8, -r2, lsl #24]
    342c:	e7f92200 	ldrb	r2, [r9, r0, lsl #4]!
    3430:	780ab570 	stmdavc	sl, {r4, r5, r6, r8, sl, ip, sp, pc}
    3434:	2300000d 	tstcs	r0, #13
    3438:	d0002a00 	andle	r2, r0, r0, lsl #20
    343c:	009b8a8b 	addseq	r8, fp, fp, lsl #21
    3440:	2c00581c 	stccs	8, cr5, [r0], {28}
    3444:	e008d103 	and	sp, r8, r3, lsl #2
    3448:	2c0069a4 			; <UNDEFINED> instruction: 0x2c0069a4
    344c:	0029d005 	eoreq	sp, r9, r5
    3450:	f7ff0020 			; <UNDEFINED> instruction: 0xf7ff0020
    3454:	2800ffcd 	stmdacs	r0, {r0, r2, r3, r6, r7, r8, r9, sl, fp, ip, sp, lr, pc}
    3458:	0020d0f6 			; <UNDEFINED> instruction: 0x0020d0f6
    345c:	bc02bc70 	stclt	12, cr11, [r2], {112}	; 0x70
    3460:	46c04708 	strbmi	r4, [r0], r8, lsl #14
    3464:	4646b5f0 			; <UNDEFINED> instruction: 0x4646b5f0
    3468:	464f46d6 			; <UNDEFINED> instruction: 0x464f46d6
    346c:	0004b5c0 	andeq	fp, r4, r0, asr #11
    3470:	0016000d 	andseq	r0, r6, sp
    3474:	ffdcf7ff 			; <UNDEFINED> instruction: 0xffdcf7ff
    3478:	d0442800 	suble	r2, r4, r0, lsl #16
    347c:	5cc32328 	stclpl	3, cr2, [r3], {40}	; 0x28
    3480:	d1392b00 	teqle	r9, r0, lsl #22
    3484:	2b007803 	blcs	0x21498
    3488:	e0c7d100 	sbc	sp, r7, r0, lsl #2
    348c:	56c32303 	strbpl	r2, [r3], r3, lsl #6
    3490:	6a4318f6 	bvs	0x10c9870
    3494:	da2f429e 	ble	0xbd3f14
    3498:	69c66246 	stmibvs	r6, {r1, r2, r6, r9, sp, lr}^
    349c:	d02b2e01 	eorle	r2, fp, r1, lsl #28
    34a0:	25802180 	strcs	r2, [r0, #384]	; 0x180
    34a4:	199b0ff3 	ldmibne	fp, {r0, r1, r4, r5, r6, r7, r8, r9, sl, fp}
    34a8:	105b0249 	subsne	r0, fp, r9, asr #4
    34ac:	0092185a 	addseq	r1, r2, sl, asr r8
    34b0:	18725917 	ldmdane	r2!, {r0, r1, r2, r4, r8, fp, ip, lr}^
    34b4:	59100092 	ldmdbpl	r0, {r1, r4, r7}
    34b8:	6a426a79 	bvs	0x109dea4
    34bc:	428a02ed 	addmi	r0, sl, #-805306354	; 0xd000000e
    34c0:	e019db0f 	ands	sp, r9, pc, lsl #22
    34c4:	0fda2080 	svceq	0x00da2080
    34c8:	105218d2 	ldrsbne	r1, [r2], #-130	; 0xffffff7e
    34cc:	18100240 	ldmdane	r0, {r6, r9}
    34d0:	59070080 	stmdbpl	r7, {r7}
    34d4:	001e5948 	andseq	r5, lr, r8, asr #18
    34d8:	6a7b6a41 	bvs	0x1eddde4
    34dc:	dd0b428b 	sfmle	f4, 4, [fp, #-556]	; 0xfffffdd4
    34e0:	00b20013 	adcseq	r0, r2, r3, lsl r0
    34e4:	18a20099 	stmiane	r2!, {r0, r3, r4, r7}
    34e8:	51571861 	cmppl	r7, r1, ror #16
    34ec:	61c35148 	bicvs	r5, r3, r8, asr #2
    34f0:	61d65952 	bicsvs	r5, r6, r2, asr r9
    34f4:	d1e52b01 	mvnle	r2, r1, lsl #22
    34f8:	4690bc1c 			; <UNDEFINED> instruction: 0x4690bc1c
    34fc:	46a24699 			; <UNDEFINED> instruction: 0x46a24699
    3500:	bc01bcf0 	stclt	12, cr11, [r1], {240}	; 0xf0
    3504:	4b464700 	blmi	0x119510c
    3508:	46982280 	ldrmi	r2, [r8], r0, lsl #5
    350c:	025258e7 	subseq	r5, r2, #15138816	; 0xe70000
    3510:	42ba0ffb 	adcsmi	r0, sl, #1004	; 0x3ec
    3514:	f7fc4158 			; <UNDEFINED> instruction: 0xf7fc4158
    3518:	4643fe87 	strbmi	pc, [r3], -r7, lsl #29	; <UNPREDICTABLE>
    351c:	50e73701 	rscpl	r3, r7, r1, lsl #14
    3520:	f7fd2030 			; <UNDEFINED> instruction: 0xf7fd2030
    3524:	782bfc51 	stmdavc	fp!, {r0, r4, r6, sl, fp, ip, sp, lr, pc}
    3528:	46424698 			; <UNDEFINED> instruction: 0x46424698
    352c:	2a002300 	bcs	0xc134
    3530:	8aabd000 	bhi	0xfeaf7538
    3534:	009b2114 	addseq	r2, fp, r4, lsl r1
    3538:	469a591b 			; <UNDEFINED> instruction: 0x469a591b
    353c:	58e34b38 	stmiapl	r3!, {r3, r4, r5, r8, r9, fp, lr}^
    3540:	46434699 			; <UNDEFINED> instruction: 0x46434699
    3544:	468c2703 	strmi	r2, [ip], r3, lsl #14
    3548:	786b7003 	stmdavc	fp!, {r0, r1, ip, sp, lr}^
    354c:	78ab7043 	stmiavc	fp!, {r0, r1, r6, ip, sp, lr}
    3550:	57ef7083 	strbpl	r7, [pc, r3, lsl #1]!
    3554:	696b70c7 	stmdbvs	fp!, {r0, r1, r2, r6, r7, ip, sp, lr}^
    3558:	61431d02 	cmpvs	r3, r2, lsl #26
    355c:	1d2b44ac 	stcne	4, cr4, [fp, #-688]!	; 0xfffffd50
    3560:	56592100 	ldrbpl	r2, [r9], -r0, lsl #2
    3564:	21017011 	tstcs	r1, r1, lsl r0
    3568:	70515659 	subsvc	r5, r1, r9, asr r6
    356c:	56592102 	ldrbpl	r2, [r9], -r2, lsl #2
    3570:	21037091 	swpcs	r7, r1, [r3]
    3574:	33045659 	tstcc	r4, #93323264	; 0x5900000
    3578:	320470d1 	andcc	r7, r4, #209	; 0xd1
    357c:	d1ef4563 	mvnle	r4, r3, ror #10
    3580:	61834653 	orrvs	r4, r3, r3, asr r6
    3584:	61c3464b 	bicvs	r4, r3, fp, asr #12
    3588:	62064643 	andvs	r4, r6, #70254592	; 0x4300000
    358c:	d1002b00 	tstle	r0, r0, lsl #22
    3590:	23002740 	tstcs	r0, #64, 14	; 0x1000000
    3594:	19be2228 	ldmibne	lr!, {r3, r5, r9, sp}
    3598:	54836246 	strpl	r6, [r3], #582	; 0x246
    359c:	782a62c3 	stmdavc	sl!, {r0, r1, r6, r7, r9, sp, lr}
    35a0:	d0002a00 	andle	r2, r0, r0, lsl #20
    35a4:	22808aab 	addcs	r8, r0, #700416	; 0xab000
    35a8:	5118009b 			; <UNDEFINED> instruction: 0x5118009b
    35ac:	58e64b1c 	stmiapl	r6!, {r2, r3, r4, r8, r9, fp, lr}^
    35b0:	18b30252 	ldmne	r3!, {r1, r4, r6, r9}
    35b4:	5118009b 			; <UNDEFINED> instruction: 0x5118009b
    35b8:	d0282e01 	eorle	r2, r8, r1, lsl #28
    35bc:	0ff32580 	svceq	0x00f32580
    35c0:	105b199b 			; <UNDEFINED> instruction: 0x105b199b
    35c4:	0092189a 	umullseq	r1, r2, sl, r8
    35c8:	6a415917 	bvs	0x1059a2c
    35cc:	02ed6a7a 	rsceq	r6, sp, #499712	; 0x7a000
    35d0:	dc0f428a 	sfmle	f4, 4, [pc], {138}	; 0x8a
    35d4:	2080e01b 	addcs	lr, r0, fp, lsl r0
    35d8:	18d20fda 	ldmne	r2, {r1, r3, r4, r6, r7, r8, r9, sl, fp}^
    35dc:	02401052 	subeq	r1, r0, #82	; 0x52
    35e0:	00801810 	addeq	r1, r0, r0, lsl r8
    35e4:	59485907 	stmdbpl	r8, {r0, r1, r2, r8, fp, ip, lr}^
    35e8:	6a79001e 	bvs	0x1e43668
    35ec:	428b6a43 	addmi	r6, fp, #274432	; 0x43000
    35f0:	0013da0b 	andseq	sp, r3, fp, lsl #20
    35f4:	009900b2 	ldrheq	r0, [r9], r2
    35f8:	186118a2 	stmdane	r1!, {r1, r5, r7, fp, ip}^
    35fc:	51485157 	cmppl	r8, r7, asr r1
    3600:	595261c3 	ldmdbpl	r2, {r0, r1, r6, r7, r8, sp, lr}^
    3604:	2b0161d6 	blcs	0x5bd64
    3608:	4b05d1e5 	blmi	0x177da4
    360c:	4a0558e6 	bmi	0x1599ac
    3610:	42b358a3 	adcsmi	r5, r3, #10682368	; 0xa30000
    3614:	0033da00 	eorseq	sp, r3, r0, lsl #20
    3618:	e76d50a3 	strb	r5, [sp, -r3, lsr #1]!
    361c:	e7372340 	ldr	r2, [r7, -r0, asr #6]!
    3620:	00080004 	andeq	r0, r8, r4
    3624:	00080008 	andeq	r0, r8, r8
    3628:	46deb5f0 			; <UNDEFINED> instruction: 0x46deb5f0
    362c:	464e4657 			; <UNDEFINED> instruction: 0x464e4657
    3630:	23804645 	orrcs	r4, r0, #72351744	; 0x4500000
    3634:	22002181 	andcs	r2, r0, #1073741856	; 0x40000020
    3638:	049bb5e0 	ldreq	fp, [fp], #1504	; 0x5e0
    363c:	0489b089 	streq	fp, [r9], #137	; 0x89
    3640:	3301701a 	tstcc	r1, #26
    3644:	d1fb428b 	mvnsle	r4, fp, lsl #5
    3648:	4b542183 	blmi	0x150bc5c
    364c:	4b54701a 	blmi	0x151f6bc
    3650:	4b54701a 	blmi	0x151f6c0
    3654:	4b547019 	blmi	0x151f6c0
    3658:	4b54701a 	blmi	0x151f6c8
    365c:	2384701a 	orrcs	r7, r4, #26
    3660:	700b4953 	andvc	r4, fp, r3, asr r9
    3664:	700a4953 	andvc	r4, sl, r3, asr r9
    3668:	700a4953 	andvc	r4, sl, r3, asr r9
    366c:	700b4953 	andvc	r4, fp, r3, asr r9
    3670:	700a4953 	andvc	r4, sl, r3, asr r9
    3674:	700a4953 	andvc	r4, sl, r3, asr r9
    3678:	70134a53 	andsvc	r4, r3, r3, asr sl
    367c:	33ff3385 	mvnscc	r3, #335544322	; 0x14000002
    3680:	2301469b 	tstcs	r1, #162529280	; 0x9b00000
    3684:	23009302 	tstcs	r0, #134217728	; 0x8000000
    3688:	4b509303 	blmi	0x142829c
    368c:	2380469a 	orrcs	r4, r0, #161480704	; 0x9a00000
    3690:	02db4c4f 	sbcseq	r4, fp, #20224	; 0x4f00
    3694:	4e4f44a3 	cdpmi	4, 4, cr4, cr15, cr3, {5}
    3698:	46994f4f 	ldrmi	r4, [r9], pc, asr #30
    369c:	f7fde008 			; <UNDEFINED> instruction: 0xf7fde008
    36a0:	3434f9e1 	ldrtcc	pc, [r4], #-2529	; 0xfffff61f	; <UNPREDICTABLE>
    36a4:	484e494d 	stmdami	lr, {r0, r2, r3, r6, r8, fp, lr}^
    36a8:	f9dcf7fd 			; <UNDEFINED> instruction: 0xf9dcf7fd
    36ac:	d04345a3 	suble	r4, r3, r3, lsr #11
    36b0:	601c4653 	andsvs	r4, ip, r3, asr r6
    36b4:	33240023 			; <UNDEFINED> instruction: 0x33240023
    36b8:	6aa36033 	bvs	0xfe8db78c
    36bc:	692268e1 	stmdbvs	r2!, {r0, r5, r6, r7, fp, sp, lr}
    36c0:	454b0038 	strbmi	r0, [fp, #-56]	; 0xffffffc8
    36c4:	f7fdd8eb 			; <UNDEFINED> instruction: 0xf7fdd8eb
    36c8:	0020f9cd 	eoreq	pc, r0, sp, asr #19
    36cc:	f7fda905 			; <UNDEFINED> instruction: 0xf7fda905
    36d0:	9b05faf1 	blls	0x18229c
    36d4:	93014843 	tstls	r1, #4390912	; 0x430000
    36d8:	d1002b00 	tstle	r0, r0, lsl #22
    36dc:	f7fd4842 			; <UNDEFINED> instruction: 0xf7fd4842
    36e0:	9b05f9c1 	blls	0x181dec
    36e4:	9301001d 	tstls	r1, #29
    36e8:	401d2301 	andsmi	r2, sp, r1, lsl #6
    36ec:	46989b07 	ldrmi	r9, [r8], r7, lsl #22
    36f0:	483ed148 	ldmdami	lr!, {r3, r6, r8, ip, lr, pc}
    36f4:	f9b6f7fd 			; <UNDEFINED> instruction: 0xf9b6f7fd
    36f8:	402b9b02 	eormi	r9, fp, r2, lsl #22
    36fc:	46439302 	strbmi	r9, [r3], -r2, lsl #6
    3700:	d0482b00 	suble	r2, r8, r0, lsl #22
    3704:	68986833 	ldmvs	r8, {r0, r1, r4, r5, fp, sp, lr}
    3708:	00022364 	andeq	r2, r2, r4, ror #6
    370c:	4641435a 			; <UNDEFINED> instruction: 0x4641435a
    3710:	f0010010 			; <UNDEFINED> instruction: 0xf0010010
    3714:	9b03fcd5 	blls	0x102a70
    3718:	4484469c 	strmi	r4, [r4], #1692	; 0x69c
    371c:	00054663 	andeq	r4, r5, r3, ror #12
    3720:	48339303 	ldmdami	r3!, {r0, r1, r8, r9, ip, pc}
    3724:	f99ef7fd 			; <UNDEFINED> instruction: 0xf99ef7fd
    3728:	002a3434 	eoreq	r3, sl, r4, lsr r4
    372c:	48314641 	ldmdami	r1!, {r0, r6, r9, sl, lr}
    3730:	f998f7fd 			; <UNDEFINED> instruction: 0xf998f7fd
    3734:	d1bb45a3 			; <UNDEFINED> instruction: 0xd1bb45a3
    3738:	9803210a 	stmdals	r3, {r1, r3, r8, sp}
    373c:	fcc0f001 			; <UNDEFINED> instruction: 0xfcc0f001
    3740:	482d0004 	stmdami	sp!, {r2}
    3744:	f98ef7fd 			; <UNDEFINED> instruction: 0xf98ef7fd
    3748:	492c9b02 	stmdbmi	ip!, {r1, r8, r9, fp, ip, pc}
    374c:	d1002b00 	tstle	r0, r0, lsl #22
    3750:	482c492b 	stmdami	ip!, {r0, r1, r3, r5, r8, fp, lr}
    3754:	f986f7fd 			; <UNDEFINED> instruction: 0xf986f7fd
    3758:	482b0021 	stmdami	fp!, {r0, r5}
    375c:	f982f7fd 			; <UNDEFINED> instruction: 0xf982f7fd
    3760:	492b4a2a 	stmdbmi	fp!, {r1, r3, r5, r9, fp, lr}
    3764:	f7fd482b 			; <UNDEFINED> instruction: 0xf7fd482b
    3768:	2380f97d 	orrcs	pc, r0, #2048000	; 0x1f4000
    376c:	04db2203 	ldrbeq	r2, [fp], #515	; 0x203
    3770:	4b29701a 	blmi	0xa5f7e0
    3774:	701a3201 	andsvc	r3, sl, r1, lsl #4
    3778:	22f823c0 	rscscs	r2, r8, #192, 6
    377c:	009204db 			; <UNDEFINED> instruction: 0x009204db
    3780:	e7fe801a 			; <UNDEFINED> instruction: 0xe7fe801a
    3784:	f7fd4825 			; <UNDEFINED> instruction: 0xf7fd4825
    3788:	9b02f96d 	blls	0xc1d44
    378c:	9302402b 	tstls	r2, #43	; 0x2b
    3790:	2b004643 	blcs	0x150a4
    3794:	2500d1b6 	strcs	sp, [r0, #-438]	; 0xfffffe4a
    3798:	46c0e7c3 	strbmi	lr, [r0], r3, asr #15
    379c:	04000100 	streq	r0, [r0], #-256	; 0xffffff00
    37a0:	04000101 	streq	r0, [r0], #-257	; 0xfffffeff
    37a4:	04000102 	streq	r0, [r0], #-258	; 0xfffffefe
    37a8:	04000104 	streq	r0, [r0], #-260	; 0xfffffefc
    37ac:	04000105 	streq	r0, [r0], #-261	; 0xfffffefb
    37b0:	04000106 	streq	r0, [r0], #-262	; 0xfffffefa
    37b4:	04000108 	streq	r0, [r0], #-264	; 0xfffffef8
    37b8:	04000109 	streq	r0, [r0], #-265	; 0xfffffef7
    37bc:	0400010a 	streq	r0, [r0], #-266	; 0xfffffef6
    37c0:	0400010c 	streq	r0, [r0], #-268	; 0xfffffef4
    37c4:	0400010d 	streq	r0, [r0], #-269	; 0xfffffef3
    37c8:	0400010e 	streq	r0, [r0], #-270	; 0xfffffef2
    37cc:	03000154 	tsteq	r0, #84, 2
    37d0:	030001ec 	tsteq	r0, #236, 2	; 0x3b
    37d4:	03000158 	tsteq	r0, #88, 2
    37d8:	08005450 	stmdaeq	r0, {r4, r6, sl, ip, lr}
    37dc:	0800545c 	stmdaeq	r0, {r2, r3, r4, r6, sl, ip, lr}
    37e0:	08005474 	stmdaeq	r0, {r2, r4, r5, r6, sl, ip, lr}
    37e4:	08005438 	stmdaeq	r0, {r3, r4, r5, sl, ip, lr}
    37e8:	0800543c 	stmdaeq	r0, {r2, r3, r4, r5, sl, ip, lr}
    37ec:	0800548c 	stmdaeq	r0, {r2, r3, r7, sl, ip, lr}
    37f0:	08005540 	stmdaeq	r0, {r6, r8, sl, ip, lr}
    37f4:	08005498 	stmdaeq	r0, {r3, r4, r7, sl, ip, lr}
    37f8:	080054b0 	stmdaeq	r0, {r4, r5, r7, sl, ip, lr}
    37fc:	08005440 	stmdaeq	r0, {r6, sl, ip, lr}
    3800:	08005448 	stmdaeq	r0, {r3, r6, sl, ip, lr}
    3804:	080054e4 	stmdaeq	r0, {r2, r5, r6, r7, sl, ip, lr}
    3808:	080054f4 	stmdaeq	r0, {r2, r4, r5, r6, r7, sl, ip, lr}
    380c:	08005508 	stmdaeq	r0, {r3, r8, sl, ip, lr}
    3810:	000186a0 	andeq	r8, r1, r0, lsr #13
    3814:	0800551c 	stmdaeq	r0, {r2, r3, r4, r8, sl, ip, lr}
    3818:	04000001 	streq	r0, [r0], #-1
    381c:	08005480 	stmdaeq	r0, {r7, sl, ip, lr}
    3820:	e1510003 	cmp	r1, r3
    3824:	01500002 	cmpeq	r0, r2
    3828:	e92d4ff8 	push	{r3, r4, r5, r6, r7, r8, r9, sl, fp, lr}
    382c:	e1a04000 	mov	r4, r0
    3830:	33a00000 	movcc	r0, #0
    3834:	e1a05001 	mov	r5, r1
    3838:	e59d8028 	ldr	r8, [sp, #40]	; 0x28
    383c:	31a01000 	movcc	r1, r0
    3840:	3a00003e 	bcc	0x3940
    3844:	e1a01003 	mov	r1, r3
    3848:	e1a00002 	mov	r0, r2
    384c:	e1a06002 	mov	r6, r2
    3850:	e1a07003 	mov	r7, r3
    3854:	ebfffe14 	bl	0x30ac
    3858:	e1a01005 	mov	r1, r5
    385c:	e1a09000 	mov	r9, r0
    3860:	e1a00004 	mov	r0, r4
    3864:	ebfffe10 	bl	0x30ac
    3868:	e049c000 	sub	ip, r9, r0
    386c:	e24ce020 	sub	lr, ip, #32
    3870:	e1a0bc17 	lsl	fp, r7, ip
    3874:	e18bbe16 	orr	fp, fp, r6, lsl lr
    3878:	e26c9020 	rsb	r9, ip, #32
    387c:	e18bb936 	orr	fp, fp, r6, lsr r9
    3880:	e155000b 	cmp	r5, fp
    3884:	e1a0ac16 	lsl	sl, r6, ip
    3888:	0154000a 	cmpeq	r4, sl
    388c:	33a00000 	movcc	r0, #0
    3890:	31a01000 	movcc	r1, r0
    3894:	3a000005 	bcc	0x38b0
    3898:	e3a00001 	mov	r0, #1
    389c:	e054400a 	subs	r4, r4, sl
    38a0:	e1a01e10 	lsl	r1, r0, lr
    38a4:	e1811930 	orr	r1, r1, r0, lsr r9
    38a8:	e0c5500b 	sbc	r5, r5, fp
    38ac:	e1a00c10 	lsl	r0, r0, ip
    38b0:	e35c0000 	cmp	ip, #0
    38b4:	0a000021 	beq	0x3940
    38b8:	e1a060aa 	lsr	r6, sl, #1
    38bc:	e1a0200c 	mov	r2, ip
    38c0:	e1866f8b 	orr	r6, r6, fp, lsl #31
    38c4:	e1a070ab 	lsr	r7, fp, #1
    38c8:	ea000007 	b	0x38ec
    38cc:	e0543006 	subs	r3, r4, r6
    38d0:	e0c5a007 	sbc	sl, r5, r7
    38d4:	e0933003 	adds	r3, r3, r3
    38d8:	e0aaa00a 	adc	sl, sl, sl
    38dc:	e2934001 	adds	r4, r3, #1
    38e0:	e2aa5000 	adc	r5, sl, #0
    38e4:	e2522001 	subs	r2, r2, #1
    38e8:	0a000006 	beq	0x3908
    38ec:	e1550007 	cmp	r5, r7
    38f0:	01540006 	cmpeq	r4, r6
    38f4:	2afffff4 	bcs	0x38cc
    38f8:	e0944004 	adds	r4, r4, r4
    38fc:	e0a55005 	adc	r5, r5, r5
    3900:	e2522001 	subs	r2, r2, #1
    3904:	1afffff8 	bne	0x38ec
    3908:	e1a03c34 	lsr	r3, r4, ip
    390c:	e1833915 	orr	r3, r3, r5, lsl r9
    3910:	e1833e35 	orr	r3, r3, r5, lsr lr
    3914:	e0900004 	adds	r0, r0, r4
    3918:	e1a04003 	mov	r4, r3
    391c:	e1a02c35 	lsr	r2, r5, ip
    3920:	e0a11005 	adc	r1, r1, r5
    3924:	e1a05002 	mov	r5, r2
    3928:	e1a03c12 	lsl	r3, r2, ip
    392c:	e1833e14 	orr	r3, r3, r4, lsl lr
    3930:	e1a0cc14 	lsl	ip, r4, ip
    3934:	e050000c 	subs	r0, r0, ip
    3938:	e1833934 	orr	r3, r3, r4, lsr r9
    393c:	e0c11003 	sbc	r1, r1, r3
    3940:	e3580000 	cmp	r8, #0
    3944:	18880030 	stmne	r8, {r4, r5}
    3948:	e8bd4ff8 	pop	{r3, r4, r5, r6, r7, r8, r9, sl, fp, lr}
    394c:	e12fff1e 	bx	lr
    3950:	e5903000 	ldr	r3, [r0]
    3954:	e3130101 	tst	r3, #1073741824	; 0x40000000
    3958:	13833102 	orrne	r3, r3, #-2147483648	; 0x80000000
    395c:	03c33102 	biceq	r3, r3, #-2147483648	; 0x80000000
    3960:	e0800003 	add	r0, r0, r3
    3964:	e12fff1e 	bx	lr
    3968:	e3510000 	cmp	r1, #0
    396c:	0a000021 	beq	0x39f8
    3970:	e92d47f0 	push	{r4, r5, r6, r7, r8, r9, sl, lr}
    3974:	e2418001 	sub	r8, r1, #1
    3978:	e1a06000 	mov	r6, r0
    397c:	e1a07008 	mov	r7, r8
    3980:	e3a09000 	mov	r9, #0
    3984:	e0894007 	add	r4, r9, r7
    3988:	e0844fa4 	add	r4, r4, r4, lsr #31
    398c:	e1a040c4 	asr	r4, r4, #1
    3990:	e1a05184 	lsl	r5, r4, #3
    3994:	e0861005 	add	r1, r6, r5
    3998:	e1a00001 	mov	r0, r1
    399c:	ebffffeb 	bl	0x3950
    39a0:	e1580004 	cmp	r8, r4
    39a4:	e1a03000 	mov	r3, r0
    39a8:	e2850008 	add	r0, r5, #8
    39ac:	e0860000 	add	r0, r6, r0
    39b0:	0a000007 	beq	0x39d4
    39b4:	e1530002 	cmp	r3, r2
    39b8:	8a000007 	bhi	0x39dc
    39bc:	ebffffe3 	bl	0x3950
    39c0:	e2400001 	sub	r0, r0, #1
    39c4:	e1500002 	cmp	r0, r2
    39c8:	2a000007 	bcs	0x39ec
    39cc:	e2849001 	add	r9, r4, #1
    39d0:	eaffffeb 	b	0x3984
    39d4:	e1530002 	cmp	r3, r2
    39d8:	9a000003 	bls	0x39ec
    39dc:	e1590004 	cmp	r9, r4
    39e0:	12447001 	subne	r7, r4, #1
    39e4:	1affffe6 	bne	0x3984
    39e8:	e3a01000 	mov	r1, #0
    39ec:	e1a00001 	mov	r0, r1
    39f0:	e8bd47f0 	pop	{r4, r5, r6, r7, r8, r9, sl, lr}
    39f4:	e12fff1e 	bx	lr
    39f8:	e1a00001 	mov	r0, r1
    39fc:	e12fff1e 	bx	lr
    3a00:	e3500001 	cmp	r0, #1
    3a04:	0a000006 	beq	0x3a24
    3a08:	e3500002 	cmp	r0, #2
    3a0c:	0a000006 	beq	0x3a2c
    3a10:	e59f301c 	ldr	r3, [pc, #28]	; 0x3a34
    3a14:	e3500000 	cmp	r0, #0
    3a18:	01a00003 	moveq	r0, r3
    3a1c:	13a00000 	movne	r0, #0
    3a20:	e12fff1e 	bx	lr
    3a24:	e59f000c 	ldr	r0, [pc, #12]	; 0x3a38
    3a28:	e12fff1e 	bx	lr
    3a2c:	e59f0008 	ldr	r0, [pc, #8]	; 0x3a3c
    3a30:	e12fff1e 	bx	lr
    3a34:	08004588 	stmdaeq	r0, {r3, r7, r8, sl, lr}
    3a38:	08004590 	stmdaeq	r0, {r4, r7, r8, sl, lr}
    3a3c:	08004598 	stmdaeq	r0, {r3, r4, r7, r8, sl, lr}
    3a40:	e92d4030 	push	{r4, r5, lr}
    3a44:	e59f3110 	ldr	r3, [pc, #272]	; 0x3b5c
    3a48:	e3530000 	cmp	r3, #0
    3a4c:	e24dd00c 	sub	sp, sp, #12
    3a50:	e1a04000 	mov	r4, r0
    3a54:	e2415002 	sub	r5, r1, #2
    3a58:	0a000029 	beq	0x3b04
    3a5c:	e28d1004 	add	r1, sp, #4
    3a60:	e1a00005 	mov	r0, r5
    3a64:	e1a00000 	nop			; (mov r0, r0)
    3a68:	e3500000 	cmp	r0, #0
    3a6c:	0a00001d 	beq	0x3ae8
    3a70:	e59d1004 	ldr	r1, [sp, #4]
    3a74:	e1a02005 	mov	r2, r5
    3a78:	ebffffba 	bl	0x3968
    3a7c:	e2502000 	subs	r2, r0, #0
    3a80:	0a000018 	beq	0x3ae8
    3a84:	ebffffb1 	bl	0x3950
    3a88:	e5923004 	ldr	r3, [r2, #4]
    3a8c:	e3530001 	cmp	r3, #1
    3a90:	03a02000 	moveq	r2, #0
    3a94:	e5840048 	str	r0, [r4, #72]	; 0x48
    3a98:	03a03005 	moveq	r3, #5
    3a9c:	05842010 	streq	r2, [r4, #16]
    3aa0:	0a00000c 	beq	0x3ad8
    3aa4:	e3530000 	cmp	r3, #0
    3aa8:	e2820004 	add	r0, r2, #4
    3aac:	ba000026 	blt	0x3b4c
    3ab0:	ebffffa6 	bl	0x3950
    3ab4:	e3a03000 	mov	r3, #0
    3ab8:	e584004c 	str	r0, [r4, #76]	; 0x4c
    3abc:	e5843050 	str	r3, [r4, #80]	; 0x50
    3ac0:	e5903000 	ldr	r3, [r0]
    3ac4:	e3530000 	cmp	r3, #0
    3ac8:	ba000014 	blt	0x3b20
    3acc:	ebffff9f 	bl	0x3950
    3ad0:	e3a03000 	mov	r3, #0
    3ad4:	e5840010 	str	r0, [r4, #16]
    3ad8:	e1a00003 	mov	r0, r3
    3adc:	e28dd00c 	add	sp, sp, #12
    3ae0:	e8bd4030 	pop	{r4, r5, lr}
    3ae4:	e12fff1e 	bx	lr
    3ae8:	e3a03009 	mov	r3, #9
    3aec:	e3a02000 	mov	r2, #0
    3af0:	e1a00003 	mov	r0, r3
    3af4:	e5842010 	str	r2, [r4, #16]
    3af8:	e28dd00c 	add	sp, sp, #12
    3afc:	e8bd4030 	pop	{r4, r5, lr}
    3b00:	e12fff1e 	bx	lr
    3b04:	e59f3054 	ldr	r3, [pc, #84]	; 0x3b60
    3b08:	e59f1054 	ldr	r1, [pc, #84]	; 0x3b64
    3b0c:	e0411003 	sub	r1, r1, r3
    3b10:	e1a011c1 	asr	r1, r1, #3
    3b14:	e1a00003 	mov	r0, r3
    3b18:	e58d1004 	str	r1, [sp, #4]
    3b1c:	eaffffd4 	b	0x3a74
    3b20:	e1a00c23 	lsr	r0, r3, #24
    3b24:	e200000f 	and	r0, r0, #15
    3b28:	ebffffb4 	bl	0x3a00
    3b2c:	e3500000 	cmp	r0, #0
    3b30:	13a03000 	movne	r3, #0
    3b34:	03a03009 	moveq	r3, #9
    3b38:	e5840010 	str	r0, [r4, #16]
    3b3c:	e1a00003 	mov	r0, r3
    3b40:	e28dd00c 	add	sp, sp, #12
    3b44:	e8bd4030 	pop	{r4, r5, lr}
    3b48:	e12fff1e 	bx	lr
    3b4c:	e3a03001 	mov	r3, #1
    3b50:	e584004c 	str	r0, [r4, #76]	; 0x4c
    3b54:	e5843050 	str	r3, [r4, #80]	; 0x50
    3b58:	eaffffd8 	b	0x3ac0
    3b5c:	00000000 	andeq	r0, r0, r0
    3b60:	08005764 	stmdaeq	r0, {r2, r5, r6, r8, r9, sl, ip, lr}
    3b64:	080057d4 	stmdaeq	r0, {r2, r4, r6, r7, r8, r9, sl, ip, lr}
    3b68:	e5903000 	ldr	r3, [r0]
    3b6c:	e3130001 	tst	r3, #1
    3b70:	e92d4010 	push	{r4, lr}
    3b74:	e1a04000 	mov	r4, r0
    3b78:	1a000004 	bne	0x3b90
    3b7c:	e3130002 	tst	r3, #2
    3b80:	e2800048 	add	r0, r0, #72	; 0x48
    3b84:	0a000009 	beq	0x3bb0
    3b88:	ebfffce6 	bl	0x2f28
    3b8c:	e5943000 	ldr	r3, [r4]
    3b90:	e3130004 	tst	r3, #4
    3b94:	0a000009 	beq	0x3bc0
    3b98:	e3130008 	tst	r3, #8
    3b9c:	0a00000c 	beq	0x3bd4
    3ba0:	e3130010 	tst	r3, #16
    3ba4:	0a00000f 	beq	0x3be8
    3ba8:	e8bd4010 	pop	{r4, lr}
    3bac:	e12fff1e 	bx	lr
    3bb0:	ebfffcd8 	bl	0x2f18
    3bb4:	e5943000 	ldr	r3, [r4]
    3bb8:	e3130004 	tst	r3, #4
    3bbc:	1afffff5 	bne	0x3b98
    3bc0:	e28400d0 	add	r0, r4, #208	; 0xd0
    3bc4:	ebfffcdb 	bl	0x2f38
    3bc8:	e5943000 	ldr	r3, [r4]
    3bcc:	e3130008 	tst	r3, #8
    3bd0:	1afffff2 	bne	0x3ba0
    3bd4:	e2840e15 	add	r0, r4, #336	; 0x150
    3bd8:	ebfffcda 	bl	0x2f48
    3bdc:	e5943000 	ldr	r3, [r4]
    3be0:	e3130010 	tst	r3, #16
    3be4:	1affffef 	bne	0x3ba8
    3be8:	e2840e1d 	add	r0, r4, #464	; 0x1d0
    3bec:	ebfffcf7 	bl	0x2fd0
    3bf0:	e8bd4010 	pop	{r4, lr}
    3bf4:	e12fff1e 	bx	lr
    3bf8:	e5903000 	ldr	r3, [r0]
    3bfc:	e3530000 	cmp	r3, #0
    3c00:	10833000 	addne	r3, r3, r0
    3c04:	e1a00003 	mov	r0, r3
    3c08:	e12fff1e 	bx	lr
    3c0c:	e12fff1e 	bx	lr
    3c10:	e92d4010 	push	{r4, lr}
    3c14:	e1a05001 	mov	r5, r1
    3c18:	e1a04000 	mov	r4, r0
    3c1c:	e5951040 	ldr	r1, [r5, #64]	; 0x40
    3c20:	e1a00004 	mov	r0, r4
    3c24:	ebffff85 	bl	0x3a40
    3c28:	e2506000 	subs	r6, r0, #0
    3c2c:	1a000010 	bne	0x3c74
    3c30:	e5952040 	ldr	r2, [r5, #64]	; 0x40
    3c34:	e5943010 	ldr	r3, [r4, #16]
    3c38:	e5842014 	str	r2, [r4, #20]
    3c3c:	e1a01004 	mov	r1, r4
    3c40:	e1a02005 	mov	r2, r5
    3c44:	e3a00001 	mov	r0, #1
    3c48:	e1a0e00f 	mov	lr, pc
    3c4c:	e12fff13 	bx	r3
    3c50:	e3500008 	cmp	r0, #8
    3c54:	0afffff0 	beq	0x3c1c
    3c58:	e3500007 	cmp	r0, #7
    3c5c:	1a000004 	bne	0x3c74
    3c60:	e1a00006 	mov	r0, r6
    3c64:	e5951040 	ldr	r1, [r5, #64]	; 0x40
    3c68:	ebffffe7 	bl	0x3c0c
    3c6c:	e2850004 	add	r0, r5, #4
    3c70:	ebfffca1 	bl	0x2efc
    3c74:	eb000454 	bl	0x4dcc
    3c78:	e92d47f0 	push	{r4, r5, r6, r7, r8, r9, sl, lr}
    3c7c:	e1a04000 	mov	r4, r0
    3c80:	e3a05000 	mov	r5, #0
    3c84:	e281e004 	add	lr, r1, #4
    3c88:	e24ddff2 	sub	sp, sp, #968	; 0x3c8
    3c8c:	e1a06002 	mov	r6, r2
    3c90:	e8be000f 	ldm	lr!, {r0, r1, r2, r3}
    3c94:	e28dc00c 	add	ip, sp, #12
    3c98:	e8ac000f 	stmia	ip!, {r0, r1, r2, r3}
    3c9c:	e8be000f 	ldm	lr!, {r0, r1, r2, r3}
    3ca0:	e8ac000f 	stmia	ip!, {r0, r1, r2, r3}
    3ca4:	e8be000f 	ldm	lr!, {r0, r1, r2, r3}
    3ca8:	e8ac000f 	stmia	ip!, {r0, r1, r2, r3}
    3cac:	e89e000f 	ldm	lr, {r0, r1, r2, r3}
    3cb0:	e594900c 	ldr	r9, [r4, #12]
    3cb4:	e594a018 	ldr	sl, [r4, #24]
    3cb8:	e88c000f 	stm	ip, {r0, r1, r2, r3}
    3cbc:	e1a00004 	mov	r0, r4
    3cc0:	e59d1048 	ldr	r1, [sp, #72]	; 0x48
    3cc4:	e58d5008 	str	r5, [sp, #8]
    3cc8:	ebffff5c 	bl	0x3a40
    3ccc:	e3560000 	cmp	r6, #0
    3cd0:	e1a05000 	mov	r5, r0
    3cd4:	13a0700a 	movne	r7, #10
    3cd8:	03a07009 	moveq	r7, #9
    3cdc:	e28d6008 	add	r6, sp, #8
    3ce0:	ea000022 	b	0x3d70
    3ce4:	e59d3048 	ldr	r3, [sp, #72]	; 0x48
    3ce8:	e3a02e1e 	mov	r2, #480	; 0x1e0
    3cec:	e5843014 	str	r3, [r4, #20]
    3cf0:	e1a01006 	mov	r1, r6
    3cf4:	e28d0f7a 	add	r0, sp, #488	; 0x1e8
    3cf8:	eb00045a 	bl	0x4e68
    3cfc:	e5943010 	ldr	r3, [r4, #16]
    3d00:	e28d2f7a 	add	r2, sp, #488	; 0x1e8
    3d04:	e1a01004 	mov	r1, r4
    3d08:	e1a00007 	mov	r0, r7
    3d0c:	e1a0e00f 	mov	lr, pc
    3d10:	e12fff13 	bx	r3
    3d14:	e59d3220 	ldr	r3, [sp, #544]	; 0x220
    3d18:	e1a08000 	mov	r8, r0
    3d1c:	e58d304c 	str	r3, [sp, #76]	; 0x4c
    3d20:	e88d0440 	stm	sp, {r6, sl}
    3d24:	e1a01007 	mov	r1, r7
    3d28:	e1a03004 	mov	r3, r4
    3d2c:	e1a02004 	mov	r2, r4
    3d30:	e3a00001 	mov	r0, #1
    3d34:	e1a0e00f 	mov	lr, pc
    3d38:	e12fff19 	bx	r9
    3d3c:	e3500000 	cmp	r0, #0
    3d40:	1a000017 	bne	0x3da4
    3d44:	e3a02e1e 	mov	r2, #480	; 0x1e0
    3d48:	e28d1f7a 	add	r1, sp, #488	; 0x1e8
    3d4c:	e1a00006 	mov	r0, r6
    3d50:	eb000444 	bl	0x4e68
    3d54:	e3580008 	cmp	r8, #8
    3d58:	1a000016 	bne	0x3db8
    3d5c:	e59d1048 	ldr	r1, [sp, #72]	; 0x48
    3d60:	e1a00004 	mov	r0, r4
    3d64:	ebffff35 	bl	0x3a40
    3d68:	e3a07009 	mov	r7, #9
    3d6c:	e1a05000 	mov	r5, r0
    3d70:	e3550000 	cmp	r5, #0
    3d74:	0affffda 	beq	0x3ce4
    3d78:	e59d3040 	ldr	r3, [sp, #64]	; 0x40
    3d7c:	e88d0440 	stm	sp, {r6, sl}
    3d80:	e58d304c 	str	r3, [sp, #76]	; 0x4c
    3d84:	e3871010 	orr	r1, r7, #16
    3d88:	e1a03004 	mov	r3, r4
    3d8c:	e1a02004 	mov	r2, r4
    3d90:	e3a00001 	mov	r0, #1
    3d94:	e1a0e00f 	mov	lr, pc
    3d98:	e12fff19 	bx	r9
    3d9c:	e3500000 	cmp	r0, #0
    3da0:	0a000000 	beq	0x3da8
    3da4:	e3a05009 	mov	r5, #9
    3da8:	e1a00005 	mov	r0, r5
    3dac:	e28ddff2 	add	sp, sp, #968	; 0x3c8
    3db0:	e8bd47f0 	pop	{r4, r5, r6, r7, r8, r9, sl, lr}
    3db4:	e12fff1e 	bx	lr
    3db8:	e3580007 	cmp	r8, #7
    3dbc:	1afffff8 	bne	0x3da4
    3dc0:	e1a00005 	mov	r0, r5
    3dc4:	e59d1048 	ldr	r1, [sp, #72]	; 0x48
    3dc8:	ebffff8f 	bl	0x3c0c
    3dcc:	e28d000c 	add	r0, sp, #12
    3dd0:	ebfffc49 	bl	0x2efc
    3dd4:	e92d4070 	push	{r4, r5, r6, lr}
    3dd8:	e3e05000 	mvn	r5, #0
    3ddc:	e591303c 	ldr	r3, [r1, #60]	; 0x3c
    3de0:	e5813040 	str	r3, [r1, #64]	; 0x40
    3de4:	e281e004 	add	lr, r1, #4
    3de8:	e24dde1e 	sub	sp, sp, #480	; 0x1e0
    3dec:	e1a06001 	mov	r6, r1
    3df0:	e1a04000 	mov	r4, r0
    3df4:	e8be000f 	ldm	lr!, {r0, r1, r2, r3}
    3df8:	e28dc004 	add	ip, sp, #4
    3dfc:	e8ac000f 	stmia	ip!, {r0, r1, r2, r3}
    3e00:	e8be000f 	ldm	lr!, {r0, r1, r2, r3}
    3e04:	e8ac000f 	stmia	ip!, {r0, r1, r2, r3}
    3e08:	e8be000f 	ldm	lr!, {r0, r1, r2, r3}
    3e0c:	e8ac000f 	stmia	ip!, {r0, r1, r2, r3}
    3e10:	e89e000f 	ldm	lr, {r0, r1, r2, r3}
    3e14:	e88c000f 	stm	ip, {r0, r1, r2, r3}
    3e18:	e58d5000 	str	r5, [sp]
    3e1c:	ea000007 	b	0x3e40
    3e20:	e5943010 	ldr	r3, [r4, #16]
    3e24:	e1a0200d 	mov	r2, sp
    3e28:	e1a01004 	mov	r1, r4
    3e2c:	e1a0e00f 	mov	lr, pc
    3e30:	e12fff13 	bx	r3
    3e34:	e3500008 	cmp	r0, #8
    3e38:	e1a05000 	mov	r5, r0
    3e3c:	1a000008 	bne	0x3e64
    3e40:	e59d1040 	ldr	r1, [sp, #64]	; 0x40
    3e44:	e1a00004 	mov	r0, r4
    3e48:	ebfffefc 	bl	0x3a40
    3e4c:	e3500000 	cmp	r0, #0
    3e50:	0afffff2 	beq	0x3e20
    3e54:	e3a00009 	mov	r0, #9
    3e58:	e28dde1e 	add	sp, sp, #480	; 0x1e0
    3e5c:	e8bd4070 	pop	{r4, r5, r6, lr}
    3e60:	e12fff1e 	bx	lr
    3e64:	e1a0000d 	mov	r0, sp
    3e68:	ebffff3e 	bl	0x3b68
    3e6c:	e3550006 	cmp	r5, #6
    3e70:	1afffff7 	bne	0x3e54
    3e74:	e1a01006 	mov	r1, r6
    3e78:	e1a00004 	mov	r0, r4
    3e7c:	ebffff63 	bl	0x3c10
    3e80:	e52de004 	push	{lr}		; (str lr, [sp, #-4]!)
    3e84:	e593e03c 	ldr	lr, [r3, #60]	; 0x3c
    3e88:	e580100c 	str	r1, [r0, #12]
    3e8c:	e5802018 	str	r2, [r0, #24]
    3e90:	e1a01003 	mov	r1, r3
    3e94:	e583e040 	str	lr, [r3, #64]	; 0x40
    3e98:	e3a02000 	mov	r2, #0
    3e9c:	e49de004 	pop	{lr}		; (ldr lr, [sp], #4)
    3ea0:	eaffff74 	b	0x3c78
    3ea4:	e92d4070 	push	{r4, r5, r6, lr}
    3ea8:	e590600c 	ldr	r6, [r0, #12]
    3eac:	e5903014 	ldr	r3, [r0, #20]
    3eb0:	e3560000 	cmp	r6, #0
    3eb4:	e5813040 	str	r3, [r1, #64]	; 0x40
    3eb8:	1a000013 	bne	0x3f0c
    3ebc:	e5903010 	ldr	r3, [r0, #16]
    3ec0:	e1a02001 	mov	r2, r1
    3ec4:	e1a04000 	mov	r4, r0
    3ec8:	e1a05001 	mov	r5, r1
    3ecc:	e1a01000 	mov	r1, r0
    3ed0:	e3a00002 	mov	r0, #2
    3ed4:	e1a0e00f 	mov	lr, pc
    3ed8:	e12fff13 	bx	r3
    3edc:	e3500007 	cmp	r0, #7
    3ee0:	0a000004 	beq	0x3ef8
    3ee4:	e3500008 	cmp	r0, #8
    3ee8:	1a00000a 	bne	0x3f18
    3eec:	e1a01005 	mov	r1, r5
    3ef0:	e1a00004 	mov	r0, r4
    3ef4:	ebffff45 	bl	0x3c10
    3ef8:	e1a00006 	mov	r0, r6
    3efc:	e5951040 	ldr	r1, [r5, #64]	; 0x40
    3f00:	ebffff41 	bl	0x3c0c
    3f04:	e2850004 	add	r0, r5, #4
    3f08:	ebfffbfb 	bl	0x2efc
    3f0c:	e3a02001 	mov	r2, #1
    3f10:	ebffff58 	bl	0x3c78
    3f14:	eb0003ac 	bl	0x4dcc
    3f18:	eb0003ab 	bl	0x4dcc
    3f1c:	e590300c 	ldr	r3, [r0, #12]
    3f20:	e3530000 	cmp	r3, #0
    3f24:	1591c03c 	ldrne	ip, [r1, #60]	; 0x3c
    3f28:	13a02000 	movne	r2, #0
    3f2c:	1581c040 	strne	ip, [r1, #64]	; 0x40
    3f30:	1affff50 	bne	0x3c78
    3f34:	eaffffa6 	b	0x3dd4
    3f38:	e3510004 	cmp	r1, #4
    3f3c:	979ff101 	ldrls	pc, [pc, r1, lsl #2]
    3f40:	ea000014 	b	0x3f98
    3f44:	08003f60 	stmdaeq	r0, {r5, r6, r8, r9, sl, fp, ip, sp}
    3f48:	08003f58 	stmdaeq	r0, {r3, r4, r6, r8, r9, sl, fp, ip, sp}
    3f4c:	08003f98 	stmdaeq	r0, {r3, r4, r7, r8, r9, sl, fp, ip, sp}
    3f50:	08003f58 	stmdaeq	r0, {r3, r4, r6, r8, r9, sl, fp, ip, sp}
    3f54:	08003f58 	stmdaeq	r0, {r3, r4, r6, r8, r9, sl, fp, ip, sp}
    3f58:	e3a00001 	mov	r0, #1
    3f5c:	e12fff1e 	bx	lr
    3f60:	e352000f 	cmp	r2, #15
    3f64:	93a01000 	movls	r1, #0
    3f68:	83a01001 	movhi	r1, #1
    3f6c:	e3530000 	cmp	r3, #0
    3f70:	01a03001 	moveq	r3, r1
    3f74:	13a03001 	movne	r3, #1
    3f78:	e3530000 	cmp	r3, #0
    3f7c:	1a000005 	bne	0x3f98
    3f80:	e0800102 	add	r0, r0, r2, lsl #2
    3f84:	e5902004 	ldr	r2, [r0, #4]
    3f88:	e1a00003 	mov	r0, r3
    3f8c:	e59d3000 	ldr	r3, [sp]
    3f90:	e5832000 	str	r2, [r3]
    3f94:	e12fff1e 	bx	lr
    3f98:	e3a00002 	mov	r0, #2
    3f9c:	e12fff1e 	bx	lr
    3fa0:	e3a03000 	mov	r3, #0
    3fa4:	e52de004 	push	{lr}		; (str lr, [sp, #-4]!)
    3fa8:	e24dd014 	sub	sp, sp, #20
    3fac:	e28dc00c 	add	ip, sp, #12
    3fb0:	e1a02001 	mov	r2, r1
    3fb4:	e58dc000 	str	ip, [sp]
    3fb8:	e1a01003 	mov	r1, r3
    3fbc:	ebffffdd 	bl	0x3f38
    3fc0:	e59d000c 	ldr	r0, [sp, #12]
    3fc4:	e28dd014 	add	sp, sp, #20
    3fc8:	e49de004 	pop	{lr}		; (ldr lr, [sp], #4)
    3fcc:	e12fff1e 	bx	lr
    3fd0:	e3510004 	cmp	r1, #4
    3fd4:	979ff101 	ldrls	pc, [pc, r1, lsl #2]
    3fd8:	ea000014 	b	0x4030
    3fdc:	08003ff8 	stmdaeq	r0, {r3, r4, r5, r6, r7, r8, r9, sl, fp, ip, sp}
    3fe0:	08003ff0 	stmdaeq	r0, {r4, r5, r6, r7, r8, r9, sl, fp, ip, sp}
    3fe4:	08004030 	stmdaeq	r0, {r4, r5, lr}
    3fe8:	08003ff0 	stmdaeq	r0, {r4, r5, r6, r7, r8, r9, sl, fp, ip, sp}
    3fec:	08003ff0 	stmdaeq	r0, {r4, r5, r6, r7, r8, r9, sl, fp, ip, sp}
    3ff0:	e3a00001 	mov	r0, #1
    3ff4:	e12fff1e 	bx	lr
    3ff8:	e352000f 	cmp	r2, #15
    3ffc:	93a01000 	movls	r1, #0
    4000:	83a01001 	movhi	r1, #1
    4004:	e3530000 	cmp	r3, #0
    4008:	01a03001 	moveq	r3, r1
    400c:	13a03001 	movne	r3, #1
    4010:	e3530000 	cmp	r3, #0
    4014:	1a000005 	bne	0x4030
    4018:	e59d1000 	ldr	r1, [sp]
    401c:	e5911000 	ldr	r1, [r1]
    4020:	e0802102 	add	r2, r0, r2, lsl #2
    4024:	e5821004 	str	r1, [r2, #4]
    4028:	e1a00003 	mov	r0, r3
    402c:	e12fff1e 	bx	lr
    4030:	e3a00002 	mov	r0, #2
    4034:	e12fff1e 	bx	lr
    4038:	e3a03000 	mov	r3, #0
    403c:	e52de004 	push	{lr}		; (str lr, [sp, #-4]!)
    4040:	e24dd014 	sub	sp, sp, #20
    4044:	e28dc00c 	add	ip, sp, #12
    4048:	e58d200c 	str	r2, [sp, #12]
    404c:	e58dc000 	str	ip, [sp]
    4050:	e1a02001 	mov	r2, r1
    4054:	e1a01003 	mov	r1, r3
    4058:	ebffffdc 	bl	0x3fd0
    405c:	e28dd014 	add	sp, sp, #20
    4060:	e49de004 	pop	{lr}		; (ldr lr, [sp], #4)
    4064:	e12fff1e 	bx	lr
    4068:	e92d4070 	push	{r4, r5, r6, lr}
    406c:	e3e04000 	mvn	r4, #0
    4070:	e592303c 	ldr	r3, [r2, #60]	; 0x3c
    4074:	e5823040 	str	r3, [r2, #64]	; 0x40
    4078:	e282c004 	add	ip, r2, #4
    407c:	e24ddf8e 	sub	sp, sp, #568	; 0x238
    4080:	e1a06000 	mov	r6, r0
    4084:	e1a05001 	mov	r5, r1
    4088:	e8bc000f 	ldm	ip!, {r0, r1, r2, r3}
    408c:	e28de05c 	add	lr, sp, #92	; 0x5c
    4090:	e8ae000f 	stmia	lr!, {r0, r1, r2, r3}
    4094:	e8bc000f 	ldm	ip!, {r0, r1, r2, r3}
    4098:	e8ae000f 	stmia	lr!, {r0, r1, r2, r3}
    409c:	e8bc000f 	ldm	ip!, {r0, r1, r2, r3}
    40a0:	e8ae000f 	stmia	lr!, {r0, r1, r2, r3}
    40a4:	e89c000f 	ldm	ip, {r0, r1, r2, r3}
    40a8:	e88e000f 	stm	lr, {r0, r1, r2, r3}
    40ac:	e58d4058 	str	r4, [sp, #88]	; 0x58
    40b0:	ea000013 	b	0x4104
    40b4:	e1a0200d 	mov	r2, sp
    40b8:	e3a0100c 	mov	r1, #12
    40bc:	e28d0058 	add	r0, sp, #88	; 0x58
    40c0:	ebffffdc 	bl	0x4038
    40c4:	e1a01005 	mov	r1, r5
    40c8:	e28d0058 	add	r0, sp, #88	; 0x58
    40cc:	e1a0e00f 	mov	lr, pc
    40d0:	e12fff16 	bx	r6
    40d4:	e3500000 	cmp	r0, #0
    40d8:	1a00000e 	bne	0x4118
    40dc:	e59d3010 	ldr	r3, [sp, #16]
    40e0:	e28d2058 	add	r2, sp, #88	; 0x58
    40e4:	e1a0100d 	mov	r1, sp
    40e8:	e3a00008 	mov	r0, #8
    40ec:	e1a0e00f 	mov	lr, pc
    40f0:	e12fff13 	bx	r3
    40f4:	e2403005 	sub	r3, r0, #5
    40f8:	e31300fb 	tst	r3, #251	; 0xfb
    40fc:	e1a04000 	mov	r4, r0
    4100:	0a000005 	beq	0x411c
    4104:	e59d1098 	ldr	r1, [sp, #152]	; 0x98
    4108:	e1a0000d 	mov	r0, sp
    410c:	ebfffe4b 	bl	0x3a40
    4110:	e3500000 	cmp	r0, #0
    4114:	0affffe6 	beq	0x40b4
    4118:	e3a04009 	mov	r4, #9
    411c:	e28d0058 	add	r0, sp, #88	; 0x58
    4120:	ebfffe90 	bl	0x3b68
    4124:	e1a00004 	mov	r0, r4
    4128:	e28ddf8e 	add	sp, sp, #568	; 0x238
    412c:	e8bd4070 	pop	{r4, r5, r6, lr}
    4130:	e12fff1e 	bx	lr
    4134:	e92d4ff0 	push	{r4, r5, r6, r7, r8, r9, sl, fp, lr}
    4138:	e591404c 	ldr	r4, [r1, #76]	; 0x4c
    413c:	e1a05001 	mov	r5, r1
    4140:	e4941004 	ldr	r1, [r4], #4
    4144:	e24dd024 	sub	sp, sp, #36	; 0x24
    4148:	e2538000 	subs	r8, r3, #0
    414c:	e1a06002 	mov	r6, r2
    4150:	e58d4018 	str	r4, [sp, #24]
    4154:	e2007003 	and	r7, r0, #3
    4158:	0a000065 	beq	0x42f4
    415c:	e3a02002 	mov	r2, #2
    4160:	e1a03821 	lsr	r3, r1, #16
    4164:	e1a01801 	lsl	r1, r1, #16
    4168:	e5cd301d 	strb	r3, [sp, #29]
    416c:	e58d1014 	str	r1, [sp, #20]
    4170:	e20330ff 	and	r3, r3, #255	; 0xff
    4174:	e5cd201c 	strb	r2, [sp, #28]
    4178:	e0844213 	add	r4, r4, r3, lsl r2
    417c:	e5953050 	ldr	r3, [r5, #80]	; 0x50
    4180:	e3570002 	cmp	r7, #2
    4184:	05954038 	ldreq	r4, [r5, #56]	; 0x38
    4188:	e2133001 	ands	r3, r3, #1
    418c:	1a000065 	bne	0x4328
    4190:	e1a001a0 	lsr	r0, r0, #3
    4194:	e2200001 	eor	r0, r0, #1
    4198:	e58d3004 	str	r3, [sp, #4]
    419c:	e2003001 	and	r3, r0, #1
    41a0:	e58d3008 	str	r3, [sp, #8]
    41a4:	e594b000 	ldr	fp, [r4]
    41a8:	e35b0000 	cmp	fp, #0
    41ac:	0a0000df 	beq	0x4530
    41b0:	e3580002 	cmp	r8, #2
    41b4:	0594a004 	ldreq	sl, [r4, #4]
    41b8:	11d4a0b2 	ldrhne	sl, [r4, #2]
    41bc:	e5953048 	ldr	r3, [r5, #72]	; 0x48
    41c0:	e3ca9001 	bic	r9, sl, #1
    41c4:	e3a0100f 	mov	r1, #15
    41c8:	e1a00006 	mov	r0, r6
    41cc:	11d4b0b0 	ldrhne	fp, [r4]
    41d0:	e0899003 	add	r9, r9, r3
    41d4:	02844008 	addeq	r4, r4, #8
    41d8:	12844004 	addne	r4, r4, #4
    41dc:	ebffff6f 	bl	0x3fa0
    41e0:	e1a0308a 	lsl	r3, sl, #1
    41e4:	e2033002 	and	r3, r3, #2
    41e8:	e20b2001 	and	r2, fp, #1
    41ec:	e1590000 	cmp	r9, r0
    41f0:	e1833002 	orr	r3, r3, r2
    41f4:	8a00002b 	bhi	0x42a8
    41f8:	e3cbb001 	bic	fp, fp, #1
    41fc:	e08b9009 	add	r9, fp, r9
    4200:	e1590000 	cmp	r9, r0
    4204:	9a000027 	bls	0x42a8
    4208:	e3530001 	cmp	r3, #1
    420c:	0a00006b 	beq	0x43c0
    4210:	e3530000 	cmp	r3, #0
    4214:	0a00003b 	beq	0x4308
    4218:	e3530002 	cmp	r3, #2
    421c:	1a000030 	bne	0x42e4
    4220:	e5943000 	ldr	r3, [r4]
    4224:	e3570000 	cmp	r7, #0
    4228:	e3c39102 	bic	r9, r3, #-2147483648	; 0x80000000
    422c:	1a000046 	bne	0x434c
    4230:	e3590000 	cmp	r9, #0
    4234:	e59d2008 	ldr	r2, [sp, #8]
    4238:	03a02001 	moveq	r2, #1
    423c:	e3520000 	cmp	r2, #0
    4240:	0a000022 	beq	0x42d0
    4244:	e3590000 	cmp	r9, #0
    4248:	0a0000a2 	beq	0x44d8
    424c:	e2853058 	add	r3, r5, #88	; 0x58
    4250:	e1a0a007 	mov	sl, r7
    4254:	e58d700c 	str	r7, [sp, #12]
    4258:	e284b004 	add	fp, r4, #4
    425c:	e1a07003 	mov	r7, r3
    4260:	ea000002 	b	0x4270
    4264:	e15a0009 	cmp	sl, r9
    4268:	e28bb004 	add	fp, fp, #4
    426c:	0a000099 	beq	0x44d8
    4270:	e1a0000b 	mov	r0, fp
    4274:	e58d7010 	str	r7, [sp, #16]
    4278:	ebfffe5e 	bl	0x3bf8
    427c:	e28d3010 	add	r3, sp, #16
    4280:	e1a01000 	mov	r1, r0
    4284:	e3a02000 	mov	r2, #0
    4288:	e1a00005 	mov	r0, r5
    428c:	e1a00000 	nop			; (mov r0, r0)
    4290:	e3500000 	cmp	r0, #0
    4294:	e28aa001 	add	sl, sl, #1
    4298:	0afffff1 	beq	0x4264
    429c:	e59d700c 	ldr	r7, [sp, #12]
    42a0:	e5943000 	ldr	r3, [r4]
    42a4:	ea000009 	b	0x42d0
    42a8:	e3530001 	cmp	r3, #1
    42ac:	0a000019 	beq	0x4318
    42b0:	e3530000 	cmp	r3, #0
    42b4:	0a000015 	beq	0x4310
    42b8:	e3530002 	cmp	r3, #2
    42bc:	1a000008 	bne	0x42e4
    42c0:	e5943000 	ldr	r3, [r4]
    42c4:	e3570000 	cmp	r7, #0
    42c8:	e3c39102 	bic	r9, r3, #-2147483648	; 0x80000000
    42cc:	1a00001e 	bne	0x434c
    42d0:	e3530000 	cmp	r3, #0
    42d4:	b2844004 	addlt	r4, r4, #4
    42d8:	e2899001 	add	r9, r9, #1
    42dc:	e0844109 	add	r4, r4, r9, lsl #2
    42e0:	eaffffaf 	b	0x41a4
    42e4:	e3a00009 	mov	r0, #9
    42e8:	e28dd024 	add	sp, sp, #36	; 0x24
    42ec:	e8bd4ff0 	pop	{r4, r5, r6, r7, r8, r9, sl, fp, lr}
    42f0:	e12fff1e 	bx	lr
    42f4:	e3a03003 	mov	r3, #3
    42f8:	e1a01401 	lsl	r1, r1, #8
    42fc:	e58d1014 	str	r1, [sp, #20]
    4300:	e1cd31bc 	strh	r3, [sp, #28]
    4304:	eaffff9c 	b	0x417c
    4308:	e3570000 	cmp	r7, #0
    430c:	1a00004b 	bne	0x4440
    4310:	e2844004 	add	r4, r4, #4
    4314:	eaffffa2 	b	0x41a4
    4318:	e3570000 	cmp	r7, #0
    431c:	1a000012 	bne	0x436c
    4320:	e2844008 	add	r4, r4, #8
    4324:	eaffff9e 	b	0x41a4
    4328:	e1a00006 	mov	r0, r6
    432c:	e28d1014 	add	r1, sp, #20
    4330:	eb0001b0 	bl	0x49f8
    4334:	e3500000 	cmp	r0, #0
    4338:	1affffe9 	bne	0x42e4
    433c:	e3a00008 	mov	r0, #8
    4340:	e28dd024 	add	sp, sp, #36	; 0x24
    4344:	e8bd4ff0 	pop	{r4, r5, r6, r7, r8, r9, sl, fp, lr}
    4348:	e12fff1e 	bx	lr
    434c:	e3a0100d 	mov	r1, #13
    4350:	e1a00006 	mov	r0, r6
    4354:	e595a020 	ldr	sl, [r5, #32]
    4358:	ebffff10 	bl	0x3fa0
    435c:	e15a0000 	cmp	sl, r0
    4360:	0a000045 	beq	0x447c
    4364:	e5943000 	ldr	r3, [r4]
    4368:	eaffffd8 	b	0x42d0
    436c:	e3a0100d 	mov	r1, #13
    4370:	e1a00006 	mov	r0, r6
    4374:	e5959020 	ldr	r9, [r5, #32]
    4378:	ebffff08 	bl	0x3fa0
    437c:	e1590000 	cmp	r9, r0
    4380:	1affffe6 	bne	0x4320
    4384:	e5953028 	ldr	r3, [r5, #40]	; 0x28
    4388:	e1540003 	cmp	r4, r3
    438c:	1affffe3 	bne	0x4320
    4390:	e1a00004 	mov	r0, r4
    4394:	ebfffd6d 	bl	0x3950
    4398:	e3a0100f 	mov	r1, #15
    439c:	e1a02000 	mov	r2, r0
    43a0:	e1a00006 	mov	r0, r6
    43a4:	ebffff23 	bl	0x4038
    43a8:	e1a00006 	mov	r0, r6
    43ac:	e1a02005 	mov	r2, r5
    43b0:	e3a01000 	mov	r1, #0
    43b4:	ebffff1f 	bl	0x4038
    43b8:	e3a00007 	mov	r0, #7
    43bc:	eaffffc9 	b	0x42e8
    43c0:	e3570000 	cmp	r7, #0
    43c4:	1affffe8 	bne	0x436c
    43c8:	e894000c 	ldm	r4, {r2, r3}
    43cc:	e3730002 	cmn	r3, #2
    43d0:	e1a02fa2 	lsr	r2, r2, #31
    43d4:	0affffc2 	beq	0x42e4
    43d8:	e3730001 	cmn	r3, #1
    43dc:	e2853058 	add	r3, r5, #88	; 0x58
    43e0:	e58d3010 	str	r3, [sp, #16]
    43e4:	0a000034 	beq	0x44bc
    43e8:	e2840004 	add	r0, r4, #4
    43ec:	ebfffe01 	bl	0x3bf8
    43f0:	e28d3010 	add	r3, sp, #16
    43f4:	e1a01000 	mov	r1, r0
    43f8:	e1a00005 	mov	r0, r5
    43fc:	e1a00000 	nop			; (mov r0, r0)
    4400:	e3500000 	cmp	r0, #0
    4404:	0affffc5 	beq	0x4320
    4408:	e1a09000 	mov	r9, r0
    440c:	e3a0100d 	mov	r1, #13
    4410:	e1a00006 	mov	r0, r6
    4414:	ebfffee1 	bl	0x3fa0
    4418:	e3590002 	cmp	r9, #2
    441c:	e5850020 	str	r0, [r5, #32]
    4420:	1a000029 	bne	0x44cc
    4424:	e1a03005 	mov	r3, r5
    4428:	e59d2010 	ldr	r2, [sp, #16]
    442c:	e5a3202c 	str	r2, [r3, #44]!	; 0x2c
    4430:	e5853024 	str	r3, [r5, #36]	; 0x24
    4434:	e5854028 	str	r4, [r5, #40]	; 0x28
    4438:	e3a00006 	mov	r0, #6
    443c:	eaffffa9 	b	0x42e8
    4440:	e1a00004 	mov	r0, r4
    4444:	ebfffd41 	bl	0x3950
    4448:	e2844004 	add	r4, r4, #4
    444c:	e1a07000 	mov	r7, r0
    4450:	e5854038 	str	r4, [r5, #56]	; 0x38
    4454:	e1a00005 	mov	r0, r5
    4458:	e1a00000 	nop			; (mov r0, r0)
    445c:	e3500000 	cmp	r0, #0
    4460:	0affff9f 	beq	0x42e4
    4464:	e1a00006 	mov	r0, r6
    4468:	e1a02007 	mov	r2, r7
    446c:	e3a0100f 	mov	r1, #15
    4470:	ebfffef0 	bl	0x4038
    4474:	e3a00007 	mov	r0, #7
    4478:	eaffff9a 	b	0x42e8
    447c:	e5953028 	ldr	r3, [r5, #40]	; 0x28
    4480:	e1540003 	cmp	r4, r3
    4484:	1affffb6 	bne	0x4364
    4488:	e3a02004 	mov	r2, #4
    448c:	e3a0a000 	mov	sl, #0
    4490:	e0843002 	add	r3, r4, r2
    4494:	e5859028 	str	r9, [r5, #40]	; 0x28
    4498:	e585a02c 	str	sl, [r5, #44]	; 0x2c
    449c:	e5852030 	str	r2, [r5, #48]	; 0x30
    44a0:	e5853034 	str	r3, [r5, #52]	; 0x34
    44a4:	e5943000 	ldr	r3, [r4]
    44a8:	e153000a 	cmp	r3, sl
    44ac:	ba000012 	blt	0x44fc
    44b0:	e3a03001 	mov	r3, #1
    44b4:	e58d3004 	str	r3, [sp, #4]
    44b8:	eaffff86 	b	0x42d8
    44bc:	e1a00006 	mov	r0, r6
    44c0:	e3a0100d 	mov	r1, #13
    44c4:	ebfffeb5 	bl	0x3fa0
    44c8:	e5850020 	str	r0, [r5, #32]
    44cc:	e59d3010 	ldr	r3, [sp, #16]
    44d0:	e5853024 	str	r3, [r5, #36]	; 0x24
    44d4:	eaffffd6 	b	0x4434
    44d8:	e1a00006 	mov	r0, r6
    44dc:	e3a0100d 	mov	r1, #13
    44e0:	ebfffeae 	bl	0x3fa0
    44e4:	e59d3010 	ldr	r3, [sp, #16]
    44e8:	e5850020 	str	r0, [r5, #32]
    44ec:	e5854028 	str	r4, [r5, #40]	; 0x28
    44f0:	e5853024 	str	r3, [r5, #36]	; 0x24
    44f4:	e3a00006 	mov	r0, #6
    44f8:	eaffff7a 	b	0x42e8
    44fc:	e2890001 	add	r0, r9, #1
    4500:	e0840100 	add	r0, r4, r0, lsl #2
    4504:	ebfffd11 	bl	0x3950
    4508:	e3a0100f 	mov	r1, #15
    450c:	e1a02000 	mov	r2, r0
    4510:	e1a00006 	mov	r0, r6
    4514:	ebfffec7 	bl	0x4038
    4518:	e1a00006 	mov	r0, r6
    451c:	e1a02005 	mov	r2, r5
    4520:	e1a0100a 	mov	r1, sl
    4524:	ebfffec3 	bl	0x4038
    4528:	e3a00007 	mov	r0, #7
    452c:	eaffff6d 	b	0x42e8
    4530:	e28d1014 	add	r1, sp, #20
    4534:	e1a00006 	mov	r0, r6
    4538:	eb00012e 	bl	0x49f8
    453c:	e3500000 	cmp	r0, #0
    4540:	1affff67 	bne	0x42e4
    4544:	e59d3004 	ldr	r3, [sp, #4]
    4548:	e3530000 	cmp	r3, #0
    454c:	0affff7a 	beq	0x433c
    4550:	e3a0100f 	mov	r1, #15
    4554:	e1a00006 	mov	r0, r6
    4558:	ebfffe90 	bl	0x3fa0
    455c:	e3a0100e 	mov	r1, #14
    4560:	e1a02000 	mov	r2, r0
    4564:	e1a00006 	mov	r0, r6
    4568:	ebfffeb2 	bl	0x4038
    456c:	e1a00006 	mov	r0, r6
    4570:	e59f200c 	ldr	r2, [pc, #12]	; 0x4584
    4574:	e3a0100f 	mov	r1, #15
    4578:	ebfffeae 	bl	0x4038
    457c:	e3a00007 	mov	r0, #7
    4580:	eaffff58 	b	0x42e8
    4584:	00000000 	andeq	r0, r0, r0
    4588:	e3a03000 	mov	r3, #0
    458c:	eafffee8 	b	0x4134
    4590:	e3a03001 	mov	r3, #1
    4594:	eafffee6 	b	0x4134
    4598:	e3a03002 	mov	r3, #2
    459c:	eafffee4 	b	0x4134
    45a0:	e92d40f0 	push	{r4, r5, r6, r7, lr}
    45a4:	e1a05000 	mov	r5, r0
    45a8:	e24ddf45 	sub	sp, sp, #276	; 0x114
    45ac:	e1a04002 	mov	r4, r2
    45b0:	e3510004 	cmp	r1, #4
    45b4:	979ff101 	ldrls	pc, [pc, r1, lsl #2]
    45b8:	ea000096 	b	0x4818
    45bc:	080047c0 	stmdaeq	r0, {r6, r7, r8, r9, sl, lr}
    45c0:	080046bc 	stmdaeq	r0, {r2, r3, r4, r5, r7, r9, sl, lr}
    45c4:	08004818 	stmdaeq	r0, {r3, r4, fp, lr}
    45c8:	08004634 	stmdaeq	r0, {r2, r4, r5, r9, sl, lr}
    45cc:	080045d0 	stmdaeq	r0, {r4, r6, r7, r8, sl, lr}
    45d0:	e3520010 	cmp	r2, #16
    45d4:	93530000 	cmpls	r3, #0
    45d8:	1a00008e 	bne	0x4818
    45dc:	e5903000 	ldr	r3, [r0]
    45e0:	e3130010 	tst	r3, #16
    45e4:	1a00008f 	bne	0x4828
    45e8:	e28d6088 	add	r6, sp, #136	; 0x88
    45ec:	e1a00006 	mov	r0, r6
    45f0:	ebfffa7b 	bl	0x2fe4
    45f4:	e3a03000 	mov	r3, #0
    45f8:	e3a01001 	mov	r1, #1
    45fc:	e5952038 	ldr	r2, [r5, #56]	; 0x38
    4600:	e0140311 	ands	r0, r4, r1, lsl r3
    4604:	14920004 	ldrne	r0, [r2], #4
    4608:	17860103 	strne	r0, [r6, r3, lsl #2]
    460c:	e2833001 	add	r3, r3, #1
    4610:	e3530004 	cmp	r3, #4
    4614:	1afffff9 	bne	0x4600
    4618:	e1a00006 	mov	r0, r6
    461c:	e5852038 	str	r2, [r5, #56]	; 0x38
    4620:	ebfffa6a 	bl	0x2fd0
    4624:	e3a00000 	mov	r0, #0
    4628:	e28ddf45 	add	sp, sp, #276	; 0x114
    462c:	e8bd40f0 	pop	{r4, r5, r6, r7, lr}
    4630:	e12fff1e 	bx	lr
    4634:	e3530003 	cmp	r3, #3
    4638:	1a000076 	bne	0x4818
    463c:	e1a07802 	lsl	r7, r2, #16
    4640:	e1a07827 	lsr	r7, r7, #16
    4644:	e1a04822 	lsr	r4, r2, #16
    4648:	e0843007 	add	r3, r4, r7
    464c:	e3530010 	cmp	r3, #16
    4650:	8a000070 	bhi	0x4818
    4654:	e5903000 	ldr	r3, [r0]
    4658:	e3130008 	tst	r3, #8
    465c:	1a00009b 	bne	0x48d0
    4660:	e28d6088 	add	r6, sp, #136	; 0x88
    4664:	e1a00006 	mov	r0, r6
    4668:	ebfffa47 	bl	0x2f8c
    466c:	e3570000 	cmp	r7, #0
    4670:	e0864184 	add	r4, r6, r4, lsl #3
    4674:	e595c038 	ldr	ip, [r5, #56]	; 0x38
    4678:	0a000008 	beq	0x46a0
    467c:	e1a03004 	mov	r3, r4
    4680:	e1a07187 	lsl	r7, r7, #3
    4684:	e0841007 	add	r1, r4, r7
    4688:	e04c0004 	sub	r0, ip, r4
    468c:	e7932000 	ldr	r2, [r3, r0]
    4690:	e4832004 	str	r2, [r3], #4
    4694:	e1530001 	cmp	r3, r1
    4698:	1afffffb 	bne	0x468c
    469c:	e08cc007 	add	ip, ip, r7
    46a0:	e1a00006 	mov	r0, r6
    46a4:	e585c038 	str	ip, [r5, #56]	; 0x38
    46a8:	ebfffa26 	bl	0x2f48
    46ac:	e3a00000 	mov	r0, #0
    46b0:	e28ddf45 	add	sp, sp, #276	; 0x114
    46b4:	e8bd40f0 	pop	{r4, r5, r6, r7, lr}
    46b8:	e12fff1e 	bx	lr
    46bc:	e20320fb 	and	r2, r3, #251	; 0xfb
    46c0:	e1a06804 	lsl	r6, r4, #16
    46c4:	e3520001 	cmp	r2, #1
    46c8:	e1a06826 	lsr	r6, r6, #16
    46cc:	e1a04824 	lsr	r4, r4, #16
    46d0:	1a000050 	bne	0x4818
    46d4:	e3530001 	cmp	r3, #1
    46d8:	e0847006 	add	r7, r4, r6
    46dc:	0a00004b 	beq	0x4810
    46e0:	e3570020 	cmp	r7, #32
    46e4:	8a00004b 	bhi	0x4818
    46e8:	e354000f 	cmp	r4, #15
    46ec:	9a000067 	bls	0x4890
    46f0:	e3530005 	cmp	r3, #5
    46f4:	13560000 	cmpne	r6, #0
    46f8:	e1a07006 	mov	r7, r6
    46fc:	1a000045 	bne	0x4818
    4700:	e3570000 	cmp	r7, #0
    4704:	0a000082 	beq	0x4914
    4708:	e5952000 	ldr	r2, [r5]
    470c:	e3120004 	tst	r2, #4
    4710:	1a000092 	bne	0x4960
    4714:	e354000f 	cmp	r4, #15
    4718:	9a000097 	bls	0x497c
    471c:	e28d6008 	add	r6, sp, #8
    4720:	e1a00006 	mov	r0, r6
    4724:	e58d3004 	str	r3, [sp, #4]
    4728:	ebfffa04 	bl	0x2f40
    472c:	e2640010 	rsb	r0, r4, #16
    4730:	e5951038 	ldr	r1, [r5, #56]	; 0x38
    4734:	e3500000 	cmp	r0, #0
    4738:	e59d3004 	ldr	r3, [sp, #4]
    473c:	d1a00001 	movle	r0, r1
    4740:	da00000a 	ble	0x4770
    4744:	e28d2e11 	add	r2, sp, #272	; 0x110
    4748:	e082c184 	add	ip, r2, r4, lsl #3
    474c:	e0810180 	add	r0, r1, r0, lsl #3
    4750:	e24cc08c 	sub	ip, ip, #140	; 0x8c
    4754:	e4912004 	ldr	r2, [r1], #4
    4758:	e1500001 	cmp	r0, r1
    475c:	e5ac2004 	str	r2, [ip, #4]!
    4760:	1afffffb 	bne	0x4754
    4764:	e3570000 	cmp	r7, #0
    4768:	0a00000a 	beq	0x4798
    476c:	e28d6008 	add	r6, sp, #8
    4770:	e3540010 	cmp	r4, #16
    4774:	21a0c004 	movcs	ip, r4
    4778:	33a0c010 	movcc	ip, #16
    477c:	e086c18c 	add	ip, r6, ip, lsl #3
    4780:	e24cc084 	sub	ip, ip, #132	; 0x84
    4784:	e0801187 	add	r1, r0, r7, lsl #3
    4788:	e4902004 	ldr	r2, [r0], #4
    478c:	e1510000 	cmp	r1, r0
    4790:	e5ac2004 	str	r2, [ip, #4]!
    4794:	1afffffb 	bne	0x4788
    4798:	e3530001 	cmp	r3, #1
    479c:	0a000065 	beq	0x4938
    47a0:	e354000f 	cmp	r4, #15
    47a4:	e5851038 	str	r1, [r5, #56]	; 0x38
    47a8:	9a000067 	bls	0x494c
    47ac:	e3570000 	cmp	r7, #0
    47b0:	0a000012 	beq	0x4800
    47b4:	e28d0008 	add	r0, sp, #8
    47b8:	ebfff9de 	bl	0x2f38
    47bc:	ea00000f 	b	0x4800
    47c0:	e3530000 	cmp	r3, #0
    47c4:	1a000013 	bne	0x4818
    47c8:	e3a00001 	mov	r0, #1
    47cc:	e1a02802 	lsl	r2, r2, #16
    47d0:	e5951038 	ldr	r1, [r5, #56]	; 0x38
    47d4:	e1a02822 	lsr	r2, r2, #16
    47d8:	e285e004 	add	lr, r5, #4
    47dc:	e012c310 	ands	ip, r2, r0, lsl r3
    47e0:	1491c004 	ldrne	ip, [r1], #4
    47e4:	178ec103 	strne	ip, [lr, r3, lsl #2]
    47e8:	e2833001 	add	r3, r3, #1
    47ec:	e3530010 	cmp	r3, #16
    47f0:	1afffff9 	bne	0x47dc
    47f4:	e2140a02 	ands	r0, r4, #8192	; 0x2000
    47f8:	05851038 	streq	r1, [r5, #56]	; 0x38
    47fc:	0a000006 	beq	0x481c
    4800:	e3a00000 	mov	r0, #0
    4804:	e28ddf45 	add	sp, sp, #276	; 0x114
    4808:	e8bd40f0 	pop	{r4, r5, r6, r7, lr}
    480c:	e12fff1e 	bx	lr
    4810:	e3570010 	cmp	r7, #16
    4814:	9a000007 	bls	0x4838
    4818:	e3a00002 	mov	r0, #2
    481c:	e28ddf45 	add	sp, sp, #276	; 0x114
    4820:	e8bd40f0 	pop	{r4, r5, r6, r7, lr}
    4824:	e12fff1e 	bx	lr
    4828:	e3c33010 	bic	r3, r3, #16
    482c:	e48031d0 	str	r3, [r0], #464	; 0x1d0
    4830:	ebfff9eb 	bl	0x2fe4
    4834:	eaffff6b 	b	0x45e8
    4838:	e354000f 	cmp	r4, #15
    483c:	8afffff5 	bhi	0x4818
    4840:	e5902000 	ldr	r2, [r0]
    4844:	e3120001 	tst	r2, #1
    4848:	0a000005 	beq	0x4864
    484c:	e1a00005 	mov	r0, r5
    4850:	e3c22003 	bic	r2, r2, #3
    4854:	e4802048 	str	r2, [r0], #72	; 0x48
    4858:	e58d3004 	str	r3, [sp, #4]
    485c:	ebfff9af 	bl	0x2f20
    4860:	e59d3004 	ldr	r3, [sp, #4]
    4864:	e28d0088 	add	r0, sp, #136	; 0x88
    4868:	e58d3004 	str	r3, [sp, #4]
    486c:	ebfff9ab 	bl	0x2f20
    4870:	e59d3004 	ldr	r3, [sp, #4]
    4874:	e3560000 	cmp	r6, #0
    4878:	e1a00006 	mov	r0, r6
    487c:	e5951038 	ldr	r1, [r5, #56]	; 0x38
    4880:	01a07006 	moveq	r7, r6
    4884:	0affffc3 	beq	0x4798
    4888:	e3a07000 	mov	r7, #0
    488c:	eaffffac 	b	0x4744
    4890:	e3570010 	cmp	r7, #16
    4894:	9a000011 	bls	0x48e0
    4898:	e3530005 	cmp	r3, #5
    489c:	1affffdd 	bne	0x4818
    48a0:	e5952000 	ldr	r2, [r5]
    48a4:	e3120001 	tst	r2, #1
    48a8:	e2477010 	sub	r7, r7, #16
    48ac:	13c22001 	bicne	r2, r2, #1
    48b0:	12850048 	addne	r0, r5, #72	; 0x48
    48b4:	0a000027 	beq	0x4958
    48b8:	e3822002 	orr	r2, r2, #2
    48bc:	e5852000 	str	r2, [r5]
    48c0:	e58d3004 	str	r3, [sp, #4]
    48c4:	ebfff999 	bl	0x2f30
    48c8:	e59d3004 	ldr	r3, [sp, #4]
    48cc:	eaffff8b 	b	0x4700
    48d0:	e3c33008 	bic	r3, r3, #8
    48d4:	e4803150 	str	r3, [r0], #336	; 0x150
    48d8:	ebfff9ab 	bl	0x2f8c
    48dc:	eaffff5f 	b	0x4660
    48e0:	e5951000 	ldr	r1, [r5]
    48e4:	e3110001 	tst	r1, #1
    48e8:	0a000009 	beq	0x4914
    48ec:	e1a00005 	mov	r0, r5
    48f0:	e3c12001 	bic	r2, r1, #1
    48f4:	e3530005 	cmp	r3, #5
    48f8:	e4802048 	str	r2, [r0], #72	; 0x48
    48fc:	0a000023 	beq	0x4990
    4900:	e3c11003 	bic	r1, r1, #3
    4904:	e5851000 	str	r1, [r5]
    4908:	e58d3004 	str	r3, [sp, #4]
    490c:	ebfff983 	bl	0x2f20
    4910:	e59d3004 	ldr	r3, [sp, #4]
    4914:	e3530001 	cmp	r3, #1
    4918:	0affffd1 	beq	0x4864
    491c:	e354000f 	cmp	r4, #15
    4920:	8affffd3 	bhi	0x4874
    4924:	e28d0088 	add	r0, sp, #136	; 0x88
    4928:	e58d3004 	str	r3, [sp, #4]
    492c:	ebfff97f 	bl	0x2f30
    4930:	e59d3004 	ldr	r3, [sp, #4]
    4934:	eaffffce 	b	0x4874
    4938:	e2811004 	add	r1, r1, #4
    493c:	e5851038 	str	r1, [r5, #56]	; 0x38
    4940:	e28d0088 	add	r0, sp, #136	; 0x88
    4944:	ebfff973 	bl	0x2f18
    4948:	eaffffac 	b	0x4800
    494c:	e28d0088 	add	r0, sp, #136	; 0x88
    4950:	ebfff974 	bl	0x2f28
    4954:	eaffff94 	b	0x47ac
    4958:	e3120004 	tst	r2, #4
    495c:	0a000006 	beq	0x497c
    4960:	e1a00005 	mov	r0, r5
    4964:	e3c22004 	bic	r2, r2, #4
    4968:	e48020d0 	str	r2, [r0], #208	; 0xd0
    496c:	e58d3004 	str	r3, [sp, #4]
    4970:	ebfff972 	bl	0x2f40
    4974:	e59d3004 	ldr	r3, [sp, #4]
    4978:	eaffff65 	b	0x4714
    497c:	e28d0088 	add	r0, sp, #136	; 0x88
    4980:	e58d3004 	str	r3, [sp, #4]
    4984:	ebfff969 	bl	0x2f30
    4988:	e59d3004 	ldr	r3, [sp, #4]
    498c:	eaffff62 	b	0x471c
    4990:	e3a07000 	mov	r7, #0
    4994:	eaffffc7 	b	0x48b8
    4998:	e5d03008 	ldrb	r3, [r0, #8]
    499c:	e3530000 	cmp	r3, #0
    49a0:	1a00000e 	bne	0x49e0
    49a4:	e5d03009 	ldrb	r3, [r0, #9]
    49a8:	e3530000 	cmp	r3, #0
    49ac:	0a00000f 	beq	0x49f0
    49b0:	e3a01003 	mov	r1, #3
    49b4:	e5902004 	ldr	r2, [r0, #4]
    49b8:	e2433001 	sub	r3, r3, #1
    49bc:	e5c03009 	strb	r3, [r0, #9]
    49c0:	e282c004 	add	ip, r2, #4
    49c4:	e5923000 	ldr	r3, [r2]
    49c8:	e580c004 	str	ip, [r0, #4]
    49cc:	e5c01008 	strb	r1, [r0, #8]
    49d0:	e1a02403 	lsl	r2, r3, #8
    49d4:	e5802000 	str	r2, [r0]
    49d8:	e1a00c23 	lsr	r0, r3, #24
    49dc:	e12fff1e 	bx	lr
    49e0:	e2433001 	sub	r3, r3, #1
    49e4:	e5c03008 	strb	r3, [r0, #8]
    49e8:	e5903000 	ldr	r3, [r0]
    49ec:	eafffff7 	b	0x49d0
    49f0:	e3a000b0 	mov	r0, #176	; 0xb0
    49f4:	e12fff1e 	bx	lr
    49f8:	e92d47f0 	push	{r4, r5, r6, r7, r8, r9, sl, lr}
    49fc:	e1a06000 	mov	r6, r0
    4a00:	e1a05001 	mov	r5, r1
    4a04:	e3a07000 	mov	r7, #0
    4a08:	e59f83b8 	ldr	r8, [pc, #952]	; 0x4dc8
    4a0c:	e24dd010 	sub	sp, sp, #16
    4a10:	e1a00005 	mov	r0, r5
    4a14:	ebffffdf 	bl	0x4998
    4a18:	e35000b0 	cmp	r0, #176	; 0xb0
    4a1c:	e1a04000 	mov	r4, r0
    4a20:	0a000083 	beq	0x4c34
    4a24:	e3100080 	tst	r0, #128	; 0x80
    4a28:	0a00001a 	beq	0x4a98
    4a2c:	e20030f0 	and	r3, r0, #240	; 0xf0
    4a30:	e3530080 	cmp	r3, #128	; 0x80
    4a34:	0a00003e 	beq	0x4b34
    4a38:	e3530090 	cmp	r3, #144	; 0x90
    4a3c:	0a00002b 	beq	0x4af0
    4a40:	e35300a0 	cmp	r3, #160	; 0xa0
    4a44:	0a00004b 	beq	0x4b78
    4a48:	e35300b0 	cmp	r3, #176	; 0xb0
    4a4c:	0a000057 	beq	0x4bb0
    4a50:	e35300c0 	cmp	r3, #192	; 0xc0
    4a54:	0a000063 	beq	0x4be8
    4a58:	e20030f8 	and	r3, r0, #248	; 0xf8
    4a5c:	e35300d0 	cmp	r3, #208	; 0xd0
    4a60:	1a000008 	bne	0x4a88
    4a64:	e2002007 	and	r2, r0, #7
    4a68:	e2822001 	add	r2, r2, #1
    4a6c:	e3822702 	orr	r2, r2, #524288	; 0x80000
    4a70:	e3a03005 	mov	r3, #5
    4a74:	e3a01001 	mov	r1, #1
    4a78:	e1a00006 	mov	r0, r6
    4a7c:	ebfffec7 	bl	0x45a0
    4a80:	e3500000 	cmp	r0, #0
    4a84:	0affffe1 	beq	0x4a10
    4a88:	e3a00009 	mov	r0, #9
    4a8c:	e28dd010 	add	sp, sp, #16
    4a90:	e8bd47f0 	pop	{r4, r5, r6, r7, r8, r9, sl, lr}
    4a94:	e12fff1e 	bx	lr
    4a98:	e3a03000 	mov	r3, #0
    4a9c:	e28d900c 	add	r9, sp, #12
    4aa0:	e1a0c100 	lsl	ip, r0, #2
    4aa4:	e20cc0ff 	and	ip, ip, #255	; 0xff
    4aa8:	e1a01003 	mov	r1, r3
    4aac:	e58d9000 	str	r9, [sp]
    4ab0:	e3a0200d 	mov	r2, #13
    4ab4:	e1a00006 	mov	r0, r6
    4ab8:	e28ca004 	add	sl, ip, #4
    4abc:	ebfffd1d 	bl	0x3f38
    4ac0:	e3a03000 	mov	r3, #0
    4ac4:	e59dc00c 	ldr	ip, [sp, #12]
    4ac8:	e3140040 	tst	r4, #64	; 0x40
    4acc:	104cc00a 	subne	ip, ip, sl
    4ad0:	008ac00c 	addeq	ip, sl, ip
    4ad4:	e58d9000 	str	r9, [sp]
    4ad8:	e1a01003 	mov	r1, r3
    4adc:	e3a0200d 	mov	r2, #13
    4ae0:	e1a00006 	mov	r0, r6
    4ae4:	e58dc00c 	str	ip, [sp, #12]
    4ae8:	ebfffd38 	bl	0x3fd0
    4aec:	eaffffc7 	b	0x4a10
    4af0:	e200300d 	and	r3, r0, #13
    4af4:	e353000d 	cmp	r3, #13
    4af8:	0affffe2 	beq	0x4a88
    4afc:	e3a03000 	mov	r3, #0
    4b00:	e28d900c 	add	r9, sp, #12
    4b04:	e200200f 	and	r2, r0, #15
    4b08:	e1a01003 	mov	r1, r3
    4b0c:	e58d9000 	str	r9, [sp]
    4b10:	e1a00006 	mov	r0, r6
    4b14:	ebfffd07 	bl	0x3f38
    4b18:	e3a03000 	mov	r3, #0
    4b1c:	e58d9000 	str	r9, [sp]
    4b20:	e1a01003 	mov	r1, r3
    4b24:	e3a0200d 	mov	r2, #13
    4b28:	e1a00006 	mov	r0, r6
    4b2c:	ebfffd27 	bl	0x3fd0
    4b30:	eaffffb6 	b	0x4a10
    4b34:	e1a00005 	mov	r0, r5
    4b38:	ebffff96 	bl	0x4998
    4b3c:	e1a04404 	lsl	r4, r4, #8
    4b40:	e1804004 	orr	r4, r0, r4
    4b44:	e3540902 	cmp	r4, #32768	; 0x8000
    4b48:	0affffce 	beq	0x4a88
    4b4c:	e3a03000 	mov	r3, #0
    4b50:	e1a04204 	lsl	r4, r4, #4
    4b54:	e0042008 	and	r2, r4, r8
    4b58:	e1a01003 	mov	r1, r3
    4b5c:	e1a00006 	mov	r0, r6
    4b60:	ebfffe8e 	bl	0x45a0
    4b64:	e3500000 	cmp	r0, #0
    4b68:	1affffc6 	bne	0x4a88
    4b6c:	e3140902 	tst	r4, #32768	; 0x8000
    4b70:	13a07001 	movne	r7, #1
    4b74:	eaffffa5 	b	0x4a10
    4b78:	e1e03000 	mvn	r3, r0
    4b7c:	e3a02eff 	mov	r2, #4080	; 0xff0
    4b80:	e2033007 	and	r3, r3, #7
    4b84:	e1a02352 	asr	r2, r2, r3
    4b88:	e3a03000 	mov	r3, #0
    4b8c:	e3100008 	tst	r0, #8
    4b90:	e2022eff 	and	r2, r2, #4080	; 0xff0
    4b94:	13822901 	orrne	r2, r2, #16384	; 0x4000
    4b98:	e1a01003 	mov	r1, r3
    4b9c:	e1a00006 	mov	r0, r6
    4ba0:	ebfffe7e 	bl	0x45a0
    4ba4:	e3500000 	cmp	r0, #0
    4ba8:	0affff98 	beq	0x4a10
    4bac:	eaffffb5 	b	0x4a88
    4bb0:	e35000b1 	cmp	r0, #177	; 0xb1
    4bb4:	0a000030 	beq	0x4c7c
    4bb8:	e35000b2 	cmp	r0, #178	; 0xb2
    4bbc:	0a000060 	beq	0x4d44
    4bc0:	e35000b3 	cmp	r0, #179	; 0xb3
    4bc4:	0a000033 	beq	0x4c98
    4bc8:	e20030fc 	and	r3, r0, #252	; 0xfc
    4bcc:	e35300b4 	cmp	r3, #180	; 0xb4
    4bd0:	0affffac 	beq	0x4a88
    4bd4:	e3a03001 	mov	r3, #1
    4bd8:	e2002007 	and	r2, r0, #7
    4bdc:	e0822003 	add	r2, r2, r3
    4be0:	e3822702 	orr	r2, r2, #524288	; 0x80000
    4be4:	eaffffeb 	b	0x4b98
    4be8:	e35000c6 	cmp	r0, #198	; 0xc6
    4bec:	0a000032 	beq	0x4cbc
    4bf0:	e35000c7 	cmp	r0, #199	; 0xc7
    4bf4:	0a000039 	beq	0x4ce0
    4bf8:	e20030f8 	and	r3, r0, #248	; 0xf8
    4bfc:	e35300c0 	cmp	r3, #192	; 0xc0
    4c00:	0a000042 	beq	0x4d10
    4c04:	e35000c8 	cmp	r0, #200	; 0xc8
    4c08:	0a000045 	beq	0x4d24
    4c0c:	e35000c9 	cmp	r0, #201	; 0xc9
    4c10:	1affff9c 	bne	0x4a88
    4c14:	e1a00005 	mov	r0, r5
    4c18:	ebffff5e 	bl	0x4998
    4c1c:	e1a02600 	lsl	r2, r0, #12
    4c20:	e200000f 	and	r0, r0, #15
    4c24:	e202280f 	and	r2, r2, #983040	; 0xf0000
    4c28:	e2800001 	add	r0, r0, #1
    4c2c:	e1802002 	orr	r2, r0, r2
    4c30:	eaffff8e 	b	0x4a70
    4c34:	e3570000 	cmp	r7, #0
    4c38:	13a00000 	movne	r0, #0
    4c3c:	1affff92 	bne	0x4a8c
    4c40:	e28d400c 	add	r4, sp, #12
    4c44:	e1a03007 	mov	r3, r7
    4c48:	e3a0200e 	mov	r2, #14
    4c4c:	e1a01007 	mov	r1, r7
    4c50:	e58d4000 	str	r4, [sp]
    4c54:	e1a00006 	mov	r0, r6
    4c58:	ebfffcb6 	bl	0x3f38
    4c5c:	e58d4000 	str	r4, [sp]
    4c60:	e1a00006 	mov	r0, r6
    4c64:	e1a03007 	mov	r3, r7
    4c68:	e3a0200f 	mov	r2, #15
    4c6c:	e1a01007 	mov	r1, r7
    4c70:	ebfffcd6 	bl	0x3fd0
    4c74:	e1a00007 	mov	r0, r7
    4c78:	eaffff83 	b	0x4a8c
    4c7c:	e1a00005 	mov	r0, r5
    4c80:	ebffff44 	bl	0x4998
    4c84:	e2502000 	subs	r2, r0, #0
    4c88:	0affff7e 	beq	0x4a88
    4c8c:	e21230f0 	ands	r3, r2, #240	; 0xf0
    4c90:	0affffc0 	beq	0x4b98
    4c94:	eaffff7b 	b	0x4a88
    4c98:	e1a00005 	mov	r0, r5
    4c9c:	ebffff3d 	bl	0x4998
    4ca0:	e3a03001 	mov	r3, #1
    4ca4:	e1a02600 	lsl	r2, r0, #12
    4ca8:	e200000f 	and	r0, r0, #15
    4cac:	e202180f 	and	r1, r2, #983040	; 0xf0000
    4cb0:	e0802003 	add	r2, r0, r3
    4cb4:	e1822001 	orr	r2, r2, r1
    4cb8:	eaffffb6 	b	0x4b98
    4cbc:	e1a00005 	mov	r0, r5
    4cc0:	ebffff34 	bl	0x4998
    4cc4:	e1a02600 	lsl	r2, r0, #12
    4cc8:	e200000f 	and	r0, r0, #15
    4ccc:	e202180f 	and	r1, r2, #983040	; 0xf0000
    4cd0:	e2802001 	add	r2, r0, #1
    4cd4:	e3a03003 	mov	r3, #3
    4cd8:	e1822001 	orr	r2, r2, r1
    4cdc:	eaffffad 	b	0x4b98
    4ce0:	e1a00005 	mov	r0, r5
    4ce4:	ebffff2b 	bl	0x4998
    4ce8:	e2502000 	subs	r2, r0, #0
    4cec:	0affff65 	beq	0x4a88
    4cf0:	e21230f0 	ands	r3, r2, #240	; 0xf0
    4cf4:	1affff63 	bne	0x4a88
    4cf8:	e3a01004 	mov	r1, #4
    4cfc:	e1a00006 	mov	r0, r6
    4d00:	ebfffe26 	bl	0x45a0
    4d04:	e3500000 	cmp	r0, #0
    4d08:	0affff40 	beq	0x4a10
    4d0c:	eaffff5d 	b	0x4a88
    4d10:	e200200f 	and	r2, r0, #15
    4d14:	e2822001 	add	r2, r2, #1
    4d18:	e3a03003 	mov	r3, #3
    4d1c:	e382280a 	orr	r2, r2, #655360	; 0xa0000
    4d20:	eaffff9c 	b	0x4b98
    4d24:	e1a00005 	mov	r0, r5
    4d28:	ebffff1a 	bl	0x4998
    4d2c:	e20020f0 	and	r2, r0, #240	; 0xf0
    4d30:	e200300f 	and	r3, r0, #15
    4d34:	e2822010 	add	r2, r2, #16
    4d38:	e2833001 	add	r3, r3, #1
    4d3c:	e1832602 	orr	r2, r3, r2, lsl #12
    4d40:	eaffff4a 	b	0x4a70
    4d44:	e3a03000 	mov	r3, #0
    4d48:	e28d900c 	add	r9, sp, #12
    4d4c:	e1a01003 	mov	r1, r3
    4d50:	e3a0200d 	mov	r2, #13
    4d54:	e58d9000 	str	r9, [sp]
    4d58:	e1a00006 	mov	r0, r6
    4d5c:	ebfffc75 	bl	0x3f38
    4d60:	e1a00005 	mov	r0, r5
    4d64:	ebffff0b 	bl	0x4998
    4d68:	e3100080 	tst	r0, #128	; 0x80
    4d6c:	e3a04002 	mov	r4, #2
    4d70:	0a000008 	beq	0x4d98
    4d74:	e59d300c 	ldr	r3, [sp, #12]
    4d78:	e200007f 	and	r0, r0, #127	; 0x7f
    4d7c:	e0833410 	add	r3, r3, r0, lsl r4
    4d80:	e1a00005 	mov	r0, r5
    4d84:	e58d300c 	str	r3, [sp, #12]
    4d88:	ebffff02 	bl	0x4998
    4d8c:	e3100080 	tst	r0, #128	; 0x80
    4d90:	e2844007 	add	r4, r4, #7
    4d94:	1afffff6 	bne	0x4d74
    4d98:	e3a03000 	mov	r3, #0
    4d9c:	e59d200c 	ldr	r2, [sp, #12]
    4da0:	e200007f 	and	r0, r0, #127	; 0x7f
    4da4:	e2822f81 	add	r2, r2, #516	; 0x204
    4da8:	e0824410 	add	r4, r2, r0, lsl r4
    4dac:	e58d9000 	str	r9, [sp]
    4db0:	e1a01003 	mov	r1, r3
    4db4:	e3a0200d 	mov	r2, #13
    4db8:	e1a00006 	mov	r0, r6
    4dbc:	e58d400c 	str	r4, [sp, #12]
    4dc0:	ebfffc82 	bl	0x3fd0
    4dc4:	eaffff11 	b	0x4a10
    4dc8:	0000ffff 			; <UNDEFINED> instruction: 0x0000ffff
    4dcc:	e92d4010 	push	{r4, lr}
    4dd0:	e3a00006 	mov	r0, #6
    4dd4:	eb000090 	bl	0x501c
    4dd8:	e3a00001 	mov	r0, #1
    4ddc:	eb00009c 	bl	0x5054
    4de0:	e92d4070 	push	{r4, r5, r6, lr}
    4de4:	e59f606c 	ldr	r6, [pc, #108]	; 0x4e58
    4de8:	e59f506c 	ldr	r5, [pc, #108]	; 0x4e5c
    4dec:	e0466005 	sub	r6, r6, r5
    4df0:	e1b06146 	asrs	r6, r6, #2
    4df4:	0a000007 	beq	0x4e18
    4df8:	e3a04000 	mov	r4, #0
    4dfc:	e2455004 	sub	r5, r5, #4
    4e00:	e2844001 	add	r4, r4, #1
    4e04:	e5b53004 	ldr	r3, [r5, #4]!
    4e08:	e1a0e00f 	mov	lr, pc
    4e0c:	e12fff13 	bx	r3
    4e10:	e1560004 	cmp	r6, r4
    4e14:	1afffff9 	bne	0x4e00
    4e18:	e59f6040 	ldr	r6, [pc, #64]	; 0x4e60
    4e1c:	e59f5040 	ldr	r5, [pc, #64]	; 0x4e64
    4e20:	e0466005 	sub	r6, r6, r5
    4e24:	ebffecf9 	bl	0x210
    4e28:	e1b06146 	asrs	r6, r6, #2
    4e2c:	0a000007 	beq	0x4e50
    4e30:	e3a04000 	mov	r4, #0
    4e34:	e2455004 	sub	r5, r5, #4
    4e38:	e2844001 	add	r4, r4, #1
    4e3c:	e5b53004 	ldr	r3, [r5, #4]!
    4e40:	e1a0e00f 	mov	lr, pc
    4e44:	e12fff13 	bx	r3
    4e48:	e1560004 	cmp	r6, r4
    4e4c:	1afffff9 	bne	0x4e38
    4e50:	e8bd4070 	pop	{r4, r5, r6, lr}
    4e54:	e12fff1e 	bx	lr
    4e58:	03000858 	tsteq	r0, #88, 16	; 0x580000
    4e5c:	03000858 	tsteq	r0, #88, 16	; 0x580000
    4e60:	0300085c 	tsteq	r0, #92, 16	; 0x5c0000
    4e64:	03000858 	tsteq	r0, #88, 16	; 0x580000
    4e68:	e352000f 	cmp	r2, #15
    4e6c:	9a000035 	bls	0x4f48
    4e70:	e1803001 	orr	r3, r0, r1
    4e74:	e3130003 	tst	r3, #3
    4e78:	1a00003e 	bne	0x4f78
    4e7c:	e92d41f0 	push	{r4, r5, r6, r7, r8, lr}
    4e80:	e2428010 	sub	r8, r2, #16
    4e84:	e1a08228 	lsr	r8, r8, #4
    4e88:	e2817020 	add	r7, r1, #32
    4e8c:	e0877208 	add	r7, r7, r8, lsl #4
    4e90:	e2813010 	add	r3, r1, #16
    4e94:	e280c010 	add	ip, r0, #16
    4e98:	e5136010 	ldr	r6, [r3, #-16]
    4e9c:	e513500c 	ldr	r5, [r3, #-12]
    4ea0:	e9134010 	ldmdb	r3, {r4, lr}
    4ea4:	e2833010 	add	r3, r3, #16
    4ea8:	e1530007 	cmp	r3, r7
    4eac:	e50c6010 	str	r6, [ip, #-16]
    4eb0:	e50c500c 	str	r5, [ip, #-12]
    4eb4:	e90c4010 	stmdb	ip, {r4, lr}
    4eb8:	e28cc010 	add	ip, ip, #16
    4ebc:	1afffff5 	bne	0x4e98
    4ec0:	e288c001 	add	ip, r8, #1
    4ec4:	e1a0c20c 	lsl	ip, ip, #4
    4ec8:	e312000c 	tst	r2, #12
    4ecc:	e202e00f 	and	lr, r2, #15
    4ed0:	e081100c 	add	r1, r1, ip
    4ed4:	01a0200e 	moveq	r2, lr
    4ed8:	e080c00c 	add	ip, r0, ip
    4edc:	0a00000d 	beq	0x4f18
    4ee0:	e1a04001 	mov	r4, r1
    4ee4:	e24ee004 	sub	lr, lr, #4
    4ee8:	e1a0e12e 	lsr	lr, lr, #2
    4eec:	e08c610e 	add	r6, ip, lr, lsl #2
    4ef0:	e24c3004 	sub	r3, ip, #4
    4ef4:	e4945004 	ldr	r5, [r4], #4
    4ef8:	e5a35004 	str	r5, [r3, #4]!
    4efc:	e1530006 	cmp	r3, r6
    4f00:	1afffffb 	bne	0x4ef4
    4f04:	e28ee001 	add	lr, lr, #1
    4f08:	e1a0e10e 	lsl	lr, lr, #2
    4f0c:	e08cc00e 	add	ip, ip, lr
    4f10:	e081100e 	add	r1, r1, lr
    4f14:	e2022003 	and	r2, r2, #3
    4f18:	e3520000 	cmp	r2, #0
    4f1c:	e2422001 	sub	r2, r2, #1
    4f20:	12822001 	addne	r2, r2, #1
    4f24:	10813002 	addne	r3, r1, r2
    4f28:	124c2001 	subne	r2, ip, #1
    4f2c:	0a000003 	beq	0x4f40
    4f30:	e4d1c001 	ldrb	ip, [r1], #1
    4f34:	e1510003 	cmp	r1, r3
    4f38:	e5e2c001 	strb	ip, [r2, #1]!
    4f3c:	1afffffb 	bne	0x4f30
    4f40:	e8bd41f0 	pop	{r4, r5, r6, r7, r8, lr}
    4f44:	e12fff1e 	bx	lr
    4f48:	e3520000 	cmp	r2, #0
    4f4c:	e1a0c000 	mov	ip, r0
    4f50:	e2422001 	sub	r2, r2, #1
    4f54:	012fff1e 	bxeq	lr
    4f58:	e2822001 	add	r2, r2, #1
    4f5c:	e0813002 	add	r3, r1, r2
    4f60:	e24c2001 	sub	r2, ip, #1
    4f64:	e4d1c001 	ldrb	ip, [r1], #1
    4f68:	e1510003 	cmp	r1, r3
    4f6c:	e5e2c001 	strb	ip, [r2, #1]!
    4f70:	1afffffb 	bne	0x4f64
    4f74:	e12fff1e 	bx	lr
    4f78:	e2422001 	sub	r2, r2, #1
    4f7c:	e1a0c000 	mov	ip, r0
    4f80:	eafffff4 	b	0x4f58
    4f84:	e351001f 	cmp	r1, #31
    4f88:	e92d4070 	push	{r4, r5, r6, lr}
    4f8c:	83a03016 	movhi	r3, #22
    4f90:	e1a05000 	mov	r5, r0
    4f94:	83e00000 	mvnhi	r0, #0
    4f98:	85853000 	strhi	r3, [r5]
    4f9c:	8a000014 	bhi	0x4ff4
    4fa0:	e59522dc 	ldr	r2, [r5, #732]	; 0x2dc
    4fa4:	e3520000 	cmp	r2, #0
    4fa8:	e1a04001 	mov	r4, r1
    4fac:	0a000012 	beq	0x4ffc
    4fb0:	e7923101 	ldr	r3, [r2, r1, lsl #2]
    4fb4:	e3530000 	cmp	r3, #0
    4fb8:	0a00000f 	beq	0x4ffc
    4fbc:	e3530001 	cmp	r3, #1
    4fc0:	03a00000 	moveq	r0, #0
    4fc4:	0a00000a 	beq	0x4ff4
    4fc8:	e3730001 	cmn	r3, #1
    4fcc:	03a03016 	moveq	r3, #22
    4fd0:	03a00001 	moveq	r0, #1
    4fd4:	05853000 	streq	r3, [r5]
    4fd8:	0a000005 	beq	0x4ff4
    4fdc:	e3a05000 	mov	r5, #0
    4fe0:	e1a00001 	mov	r0, r1
    4fe4:	e7825101 	str	r5, [r2, r1, lsl #2]
    4fe8:	e1a0e00f 	mov	lr, pc
    4fec:	e12fff13 	bx	r3
    4ff0:	e1a00005 	mov	r0, r5
    4ff4:	e8bd4070 	pop	{r4, r5, r6, lr}
    4ff8:	e12fff1e 	bx	lr
    4ffc:	e1a00005 	mov	r0, r5
    5000:	eb00000b 	bl	0x5034
    5004:	e1a02004 	mov	r2, r4
    5008:	e1a01000 	mov	r1, r0
    500c:	e1a00005 	mov	r0, r5
    5010:	eb00000b 	bl	0x5044
    5014:	e8bd4070 	pop	{r4, r5, r6, lr}
    5018:	e12fff1e 	bx	lr
    501c:	e92d4010 	push	{r4, lr}
    5020:	e1a04000 	mov	r4, r0
    5024:	eb000014 	bl	0x507c
    5028:	e1a01004 	mov	r1, r4
    502c:	e8bd4010 	pop	{r4, lr}
    5030:	eaffffd3 	b	0x4f84
    5034:	e3a03058 	mov	r3, #88	; 0x58
    5038:	e5803000 	str	r3, [r0]
    503c:	e3e00000 	mvn	r0, #0
    5040:	e12fff1e 	bx	lr
    5044:	e3a03058 	mov	r3, #88	; 0x58
    5048:	e5803000 	str	r3, [r0]
    504c:	e3e00000 	mvn	r0, #0
    5050:	e12fff1e 	bx	lr
    5054:	e59f301c 	ldr	r3, [pc, #28]	; 0x5078
    5058:	e5933004 	ldr	r3, [r3, #4]
    505c:	e3530000 	cmp	r3, #0
    5060:	0a000003 	beq	0x5074
    5064:	e92d4010 	push	{r4, lr}
    5068:	e1a0e00f 	mov	lr, pc
    506c:	e12fff13 	bx	r3
    5070:	eafffffe 	b	0x5070
    5074:	eafffffe 	b	0x5074
    5078:	0300010c 	tsteq	r0, #12, 2
    507c:	e59f3014 	ldr	r3, [pc, #20]	; 0x5098
    5080:	e5933034 	ldr	r3, [r3, #52]	; 0x34
    5084:	e3530000 	cmp	r3, #0
    5088:	112fff13 	bxne	r3
    508c:	e59f3008 	ldr	r3, [pc, #8]	; 0x509c
    5090:	e5930000 	ldr	r0, [r3]
    5094:	e12fff1e 	bx	lr
    5098:	0300010c 	tsteq	r0, #12, 2
    509c:	030003f4 	tsteq	r0, #244, 6	; 0xd0000003
    50a0:	46c04778 			; <UNDEFINED> instruction: 0x46c04778
    50a4:	eafff77c 	b	0x2e9c
    50a8:	46c04778 			; <UNDEFINED> instruction: 0x46c04778
    50ac:	eafff730 	b	0x2d74
    50b0:	46c04778 			; <UNDEFINED> instruction: 0x46c04778
    50b4:	eafff781 	b	0x2ec0
    50b8:	46c04778 			; <UNDEFINED> instruction: 0x46c04778
    50bc:	eafff724 	b	0x2d54
    50c0:	46c04778 			; <UNDEFINED> instruction: 0x46c04778
    50c4:	eafff6e5 	b	0x2c60
    50c8:	e1a0c00d 	mov	ip, sp
    50cc:	e92ddff8 	push	{r3, r4, r5, r6, r7, r8, r9, sl, fp, ip, lr, pc}
    50d0:	e24cb004 	sub	fp, ip, #4
    50d4:	e24bd028 	sub	sp, fp, #40	; 0x28
    50d8:	e89d6ff0 	ldm	sp, {r4, r5, r6, r7, r8, r9, sl, fp, sp, lr}
    50dc:	e12fff1e 	bx	lr
    50e0:	08000f78 	stmdaeq	r0, {r3, r4, r5, r6, r8, r9, sl, fp}
    50e4:	08000f86 	stmdaeq	r0, {r1, r2, r7, r8, r9, sl, fp}
    50e8:	08000f6a 	stmdaeq	r0, {r1, r3, r5, r6, r8, r9, sl, fp}
    50ec:	08000fa2 	stmdaeq	r0, {r1, r5, r7, r8, r9, sl, fp}
    50f0:	08000f04 	stmdaeq	r0, {r2, r8, r9, sl, fp}
    50f4:	08000f04 	stmdaeq	r0, {r2, r8, r9, sl, fp}
    50f8:	08000f04 	stmdaeq	r0, {r2, r8, r9, sl, fp}
    50fc:	08000f04 	stmdaeq	r0, {r2, r8, r9, sl, fp}
    5100:	08000f04 	stmdaeq	r0, {r2, r8, r9, sl, fp}
    5104:	08000f04 	stmdaeq	r0, {r2, r8, r9, sl, fp}
    5108:	08000f04 	stmdaeq	r0, {r2, r8, r9, sl, fp}
    510c:	08000f04 	stmdaeq	r0, {r2, r8, r9, sl, fp}
    5110:	08000f04 	stmdaeq	r0, {r2, r8, r9, sl, fp}
    5114:	08000f04 	stmdaeq	r0, {r2, r8, r9, sl, fp}
    5118:	08000f04 	stmdaeq	r0, {r2, r8, r9, sl, fp}
    511c:	08000f04 	stmdaeq	r0, {r2, r8, r9, sl, fp}
    5120:	08000f04 	stmdaeq	r0, {r2, r8, r9, sl, fp}
    5124:	08000f94 	stmdaeq	r0, {r2, r4, r7, r8, r9, sl, fp}
    5128:	08000f04 	stmdaeq	r0, {r2, r8, r9, sl, fp}
    512c:	08000fb0 	stmdaeq	r0, {r4, r5, r7, r8, r9, sl, fp}
    5130:	08000f04 	stmdaeq	r0, {r2, r8, r9, sl, fp}
    5134:	08000f04 	stmdaeq	r0, {r2, r8, r9, sl, fp}
    5138:	08000f04 	stmdaeq	r0, {r2, r8, r9, sl, fp}
    513c:	08000f04 	stmdaeq	r0, {r2, r8, r9, sl, fp}
    5140:	08000f04 	stmdaeq	r0, {r2, r8, r9, sl, fp}
    5144:	08000f04 	stmdaeq	r0, {r2, r8, r9, sl, fp}
    5148:	08000f04 	stmdaeq	r0, {r2, r8, r9, sl, fp}
    514c:	08000f04 	stmdaeq	r0, {r2, r8, r9, sl, fp}
    5150:	08000f04 	stmdaeq	r0, {r2, r8, r9, sl, fp}
    5154:	08000f04 	stmdaeq	r0, {r2, r8, r9, sl, fp}
    5158:	08000f04 	stmdaeq	r0, {r2, r8, r9, sl, fp}
    515c:	08000f04 	stmdaeq	r0, {r2, r8, r9, sl, fp}
    5160:	08000f04 	stmdaeq	r0, {r2, r8, r9, sl, fp}
    5164:	08000f04 	stmdaeq	r0, {r2, r8, r9, sl, fp}
    5168:	08000f04 	stmdaeq	r0, {r2, r8, r9, sl, fp}
    516c:	08000f04 	stmdaeq	r0, {r2, r8, r9, sl, fp}
    5170:	08000f04 	stmdaeq	r0, {r2, r8, r9, sl, fp}
    5174:	08000f04 	stmdaeq	r0, {r2, r8, r9, sl, fp}
    5178:	08000f04 	stmdaeq	r0, {r2, r8, r9, sl, fp}
    517c:	08000f04 	stmdaeq	r0, {r2, r8, r9, sl, fp}
    5180:	08000f04 	stmdaeq	r0, {r2, r8, r9, sl, fp}
    5184:	08000f04 	stmdaeq	r0, {r2, r8, r9, sl, fp}
    5188:	08000f04 	stmdaeq	r0, {r2, r8, r9, sl, fp}
    518c:	08000f04 	stmdaeq	r0, {r2, r8, r9, sl, fp}
    5190:	08000f04 	stmdaeq	r0, {r2, r8, r9, sl, fp}
    5194:	08000f04 	stmdaeq	r0, {r2, r8, r9, sl, fp}
    5198:	08000f04 	stmdaeq	r0, {r2, r8, r9, sl, fp}
    519c:	08000f04 	stmdaeq	r0, {r2, r8, r9, sl, fp}
    51a0:	08000f48 	stmdaeq	r0, {r3, r6, r8, r9, sl, fp}
    51a4:	08000f04 	stmdaeq	r0, {r2, r8, r9, sl, fp}
    51a8:	08000ede 	stmdaeq	r0, {r1, r2, r3, r4, r6, r7, r9, sl, fp}
    51ac:	0800104e 	stmdaeq	r0, {r1, r2, r3, r6, ip}
    51b0:	080010ec 	stmdaeq	r0, {r2, r3, r5, r6, r7, ip}
    51b4:	080010e8 	stmdaeq	r0, {r3, r5, r6, r7, ip}
    51b8:	080010d8 	stmdaeq	r0, {r3, r4, r6, r7, ip}
    51bc:	080010c6 	stmdaeq	r0, {r1, r2, r6, r7, ip}
    51c0:	080010a4 	stmdaeq	r0, {r2, r5, r7, ip}
    51c4:	0800107c 	stmdaeq	r0, {r2, r3, r4, r5, r6, ip}
    51c8:	0800106c 	stmdaeq	r0, {r2, r3, r5, r6, ip}
    51cc:	08001034 	stmdaeq	r0, {r2, r4, r5, ip}
    51d0:	00000007 	andeq	r0, r0, r7
    51d4:	0000000c 	andeq	r0, r0, ip
    51d8:	00000011 	andeq	r0, r0, r1, lsl r0
    51dc:	00000016 	andeq	r0, r0, r6, lsl r0
    51e0:	00000007 	andeq	r0, r0, r7
    51e4:	0000000c 	andeq	r0, r0, ip
    51e8:	00000011 	andeq	r0, r0, r1, lsl r0
    51ec:	00000016 	andeq	r0, r0, r6, lsl r0
    51f0:	00000007 	andeq	r0, r0, r7
    51f4:	0000000c 	andeq	r0, r0, ip
    51f8:	00000011 	andeq	r0, r0, r1, lsl r0
    51fc:	00000016 	andeq	r0, r0, r6, lsl r0
    5200:	00000007 	andeq	r0, r0, r7
    5204:	0000000c 	andeq	r0, r0, ip
    5208:	00000011 	andeq	r0, r0, r1, lsl r0
    520c:	00000016 	andeq	r0, r0, r6, lsl r0
    5210:	00000005 	andeq	r0, r0, r5
    5214:	00000009 	andeq	r0, r0, r9
    5218:	0000000e 	andeq	r0, r0, lr
    521c:	00000014 	andeq	r0, r0, r4, lsl r0
    5220:	00000005 	andeq	r0, r0, r5
    5224:	00000009 	andeq	r0, r0, r9
    5228:	0000000e 	andeq	r0, r0, lr
    522c:	00000014 	andeq	r0, r0, r4, lsl r0
    5230:	00000005 	andeq	r0, r0, r5
    5234:	00000009 	andeq	r0, r0, r9
    5238:	0000000e 	andeq	r0, r0, lr
    523c:	00000014 	andeq	r0, r0, r4, lsl r0
    5240:	00000005 	andeq	r0, r0, r5
    5244:	00000009 	andeq	r0, r0, r9
    5248:	0000000e 	andeq	r0, r0, lr
    524c:	00000014 	andeq	r0, r0, r4, lsl r0
    5250:	00000004 	andeq	r0, r0, r4
    5254:	0000000b 	andeq	r0, r0, fp
    5258:	00000010 	andeq	r0, r0, r0, lsl r0
    525c:	00000017 	andeq	r0, r0, r7, lsl r0
    5260:	00000004 	andeq	r0, r0, r4
    5264:	0000000b 	andeq	r0, r0, fp
    5268:	00000010 	andeq	r0, r0, r0, lsl r0
    526c:	00000017 	andeq	r0, r0, r7, lsl r0
    5270:	00000004 	andeq	r0, r0, r4
    5274:	0000000b 	andeq	r0, r0, fp
    5278:	00000010 	andeq	r0, r0, r0, lsl r0
    527c:	00000017 	andeq	r0, r0, r7, lsl r0
    5280:	00000004 	andeq	r0, r0, r4
    5284:	0000000b 	andeq	r0, r0, fp
    5288:	00000010 	andeq	r0, r0, r0, lsl r0
    528c:	00000017 	andeq	r0, r0, r7, lsl r0
    5290:	00000006 	andeq	r0, r0, r6
    5294:	0000000a 	andeq	r0, r0, sl
    5298:	0000000f 	andeq	r0, r0, pc
    529c:	00000015 	andeq	r0, r0, r5, lsl r0
    52a0:	00000006 	andeq	r0, r0, r6
    52a4:	0000000a 	andeq	r0, r0, sl
    52a8:	0000000f 	andeq	r0, r0, pc
    52ac:	00000015 	andeq	r0, r0, r5, lsl r0
    52b0:	00000006 	andeq	r0, r0, r6
    52b4:	0000000a 	andeq	r0, r0, sl
    52b8:	0000000f 	andeq	r0, r0, pc
    52bc:	00000015 	andeq	r0, r0, r5, lsl r0
    52c0:	00000006 	andeq	r0, r0, r6
    52c4:	0000000a 	andeq	r0, r0, sl
    52c8:	0000000f 	andeq	r0, r0, pc
    52cc:	00000015 	andeq	r0, r0, r5, lsl r0
    52d0:	d76aa478 			; <UNDEFINED> instruction: 0xd76aa478
    52d4:	e8c7b756 	stmia	r7, {r1, r2, r4, r6, r8, r9, sl, ip, sp, pc}^
    52d8:	242070db 	strtcs	r7, [r0], #-219	; 0xffffff25
    52dc:	c1bdceee 			; <UNDEFINED> instruction: 0xc1bdceee
    52e0:	f57c0faf 			; <UNDEFINED> instruction: 0xf57c0faf
    52e4:	4787c62a 	strmi	ip, [r7, sl, lsr #12]
    52e8:	a8304613 	ldmdage	r0!, {r0, r1, r4, r9, sl, lr}
    52ec:	fd469501 			; <UNDEFINED> instruction: 0xfd469501
    52f0:	698098d8 	stmibvs	r0, {r3, r4, r6, r7, fp, ip, pc}
    52f4:	8b44f7af 	blhi	0x11431b8
    52f8:	ffff5bb1 			; <UNDEFINED> instruction: 0xffff5bb1
    52fc:	895cd7be 	ldmdbhi	ip, {r1, r2, r3, r4, r5, r7, r8, r9, sl, ip, lr, pc}^
    5300:	6b901122 	blvs	0xfe409790
    5304:	fd987193 			; <UNDEFINED> instruction: 0xfd987193
    5308:	a679438e 	ldrbtge	r4, [r9], -lr, lsl #7
    530c:	49b40821 	ldmibmi	r4!, {r0, r5, fp}
    5310:	f61e2562 			; <UNDEFINED> instruction: 0xf61e2562
    5314:	c040b340 	subgt	fp, r0, r0, asr #6
    5318:	265e5a51 			; <UNDEFINED> instruction: 0x265e5a51
    531c:	e9b6c7aa 	ldmib	r6!, {r1, r3, r5, r7, r8, r9, sl, lr, pc}
    5320:	d62f105d 			; <UNDEFINED> instruction: 0xd62f105d
    5324:	02441453 	subeq	r1, r4, #1392508928	; 0x53000000
    5328:	d8a1e681 	stmiale	r1!, {r0, r7, r9, sl, sp, lr, pc}
    532c:	e7d3fbc8 	ldrb	pc, [r3, r8, asr #23]	; <UNPREDICTABLE>
    5330:	21e1cde6 	mvncs	ip, r6, ror #27
    5334:	c33707d6 	teqgt	r7, #56098816	; 0x3580000
    5338:	f4d50d87 			; <UNDEFINED> instruction: 0xf4d50d87
    533c:	455a14ed 	ldrbmi	r1, [sl, #-1261]	; 0xfffffb13
    5340:	a9e3e905 	stmibge	r3!, {r0, r2, r8, fp, sp, lr, pc}^
    5344:	fcefa3f8 			; <UNDEFINED> instruction: 0xfcefa3f8
    5348:	676f02d9 			; <UNDEFINED> instruction: 0x676f02d9
    534c:	8d2a4c8a 	stchi	12, cr4, [sl, #-552]!	; 0xfffffdd8
    5350:	fffa3942 			; <UNDEFINED> instruction: 0xfffa3942
    5354:	8771f681 	ldrbhi	pc, [r1, -r1, lsl #13]!	; <UNPREDICTABLE>
    5358:	6d9d6122 	ldfvss	f6, [sp, #136]	; 0x88
    535c:	fde5380c 			; <UNDEFINED> instruction: 0xfde5380c
    5360:	a4beea44 	ldrtge	lr, [lr], #2628	; 0xa44
    5364:	4bdecfa9 	blmi	0xff7b9210
    5368:	f6bb4b60 			; <UNDEFINED> instruction: 0xf6bb4b60
    536c:	bebfbc70 	mrclt	12, 5, fp, cr15, cr0, {3}
    5370:	289b7ec6 	ldmcs	fp, {r1, r2, r6, r7, r9, sl, fp, ip, sp, lr}
    5374:	eaa127fa 	b	0xfe84f364
    5378:	d4ef3085 	strbtle	r3, [pc], #133	; 0x5380
    537c:	04881d05 	streq	r1, [r8], #3333	; 0xd05
    5380:	d9d4d039 	ldmible	r4, {r0, r3, r4, r5, ip, lr, pc}^
    5384:	e6db99e5 	ldrb	r9, [fp], r5, ror #19
    5388:	1fa27cf8 	svcne	0x00a27cf8
    538c:	c4ac5665 	strtgt	r5, [ip], #1637	; 0x665
    5390:	f4292244 	vld1.16	{d2-d5}, [r9], r4
    5394:	432aff97 	msrmi	CPSR_fx, #604	; 0x25c
    5398:	ab9423a7 	blge	0xfe50e23c
    539c:	fc93a039 			; <UNDEFINED> instruction: 0xfc93a039
    53a0:	655b59c3 	ldrbvs	r5, [fp, #-2499]	; 0xfffff63d
    53a4:	8f0ccc92 	svchi	0x000ccc92
    53a8:	ffeff47d 			; <UNDEFINED> instruction: 0xffeff47d
    53ac:	85845dd1 	strhi	r5, [r4, #3537]	; 0xdd1
    53b0:	6fa87e4f 	svcvs	0x00a87e4f
    53b4:	fe2ce6e0 			; <UNDEFINED> instruction: 0xfe2ce6e0
    53b8:	a3014314 	tstge	r1, #20, 6	; 0x50000000
    53bc:	4e0811a1 	adfmi<illegal precision>p	f1, f0, f1
    53c0:	f7537e82 			; <UNDEFINED> instruction: 0xf7537e82
    53c4:	bd3af235 	lfmlt	f7, 1, [sl, #-212]!	; 0xffffff2c
    53c8:	2ad7d2bb 	bcs	0xff5f9ebc
    53cc:	eb86d391 	bl	0xfe1ba218
    53d0:	00000003 	andeq	r0, r0, r3
    53d4:	00041004 	andeq	r1, r4, r4
    53d8:	00000004 	andeq	r0, r0, r4
    53dc:	00000000 	andeq	r0, r0, r0
    53e0:	ffffffff 			; <UNDEFINED> instruction: 0xffffffff
    53e4:	ffffffff 			; <UNDEFINED> instruction: 0xffffffff
    53e8:	00000000 	andeq	r0, r0, r0
    53ec:	00000001 	andeq	r0, r0, r1
    53f0:	00000005 	andeq	r0, r0, r5
    53f4:	00000000 	andeq	r0, r0, r0
    53f8:	00000004 	andeq	r0, r0, r4
    53fc:	00000000 	andeq	r0, r0, r0
    5400:	00000001 	andeq	r0, r0, r1
    5404:	00000000 	andeq	r0, r0, r0
    5408:	00000002 	andeq	r0, r0, r2
    540c:	00000000 	andeq	r0, r0, r0
    5410:	00000001 	andeq	r0, r0, r1
    5414:	00000000 	andeq	r0, r0, r0
    5418:	00000003 	andeq	r0, r0, r3
    541c:	00000000 	andeq	r0, r0, r0
    5420:	00000001 	andeq	r0, r0, r1
    5424:	00000000 	andeq	r0, r0, r0
    5428:	00000002 	andeq	r0, r0, r2
    542c:	00000000 	andeq	r0, r0, r0
    5430:	00000001 	andeq	r0, r0, r1
    5434:	00000000 	andeq	r0, r0, r0
    5438:	0000002a 	andeq	r0, r0, sl, lsr #32
    543c:	00000058 	andeq	r0, r0, r8, asr r0
    5440:	53534150 	cmppl	r3, #80, 2
    5444:	00000000 	andeq	r0, r0, r0
    5448:	4c494146 	stfmie	f4, [r9], {70}	; 0x46
    544c:	00000000 	andeq	r0, r0, r0
    5450:	5d73255b 	ldclpl	5, cr2, [r3, #-364]!	; 0xfffffe94
    5454:	3a732520 	bcc	0x1cce8dc
    5458:	00000020 	andeq	r0, r0, r0, lsr #32
    545c:	736e6928 	cmnvc	lr, #40, 18	; 0xa0000
    5460:	69666675 	stmdbvs	r6!, {r0, r2, r4, r5, r6, r9, sl, sp, lr}^
    5464:	6e656963 			; <UNDEFINED> instruction: 0x6e656963
    5468:	656d2074 	strbvs	r2, [sp, #-116]!	; 0xffffff8c
    546c:	79726f6d 	ldmdbvc	r2!, {r0, r2, r3, r5, r6, r8, r9, sl, fp, sp, lr}^
    5470:	00000029 	andeq	r0, r0, r9, lsr #32
    5474:	6f6e6749 	svcvs	0x006e6749
    5478:	20646572 	rsbcs	r6, r4, r2, ror r5
    547c:	000a7325 	andeq	r7, sl, r5, lsr #6
    5480:	73615020 	cmnvc	r1, #32
    5484:	2e646573 	mcrcs	5, 3, r6, cr4, cr3, {3}
    5488:	00000000 	andeq	r0, r0, r0
    548c:	69614620 	stmdbvs	r1!, {r5, r9, sl, lr}^
    5490:	2e64656c 	cdpcs	5, 6, cr6, cr4, cr12, {3}
    5494:	00000000 	andeq	r0, r0, r0
    5498:	696d2020 	stmdbvs	sp!, {r5, sp}^
    549c:	6974206e 	ldmdbvs	r4!, {r1, r2, r3, r5, r6, sp}^
    54a0:	203a656d 	eorscs	r6, sl, sp, ror #10
    54a4:	6d206425 	stcvs	4, cr6, [r0, #-148]!	; 0xffffff6c
    54a8:	255b2073 	ldrbcs	r2, [fp, #-115]	; 0xffffff8d
    54ac:	000a5d64 	andeq	r5, sl, r4, ror #26
    54b0:	3d3d3d3d 	ldccc	13, cr3, [sp, #-244]!	; 0xffffff0c
    54b4:	3d3d3d3d 	ldccc	13, cr3, [sp, #-244]!	; 0xffffff0c
    54b8:	3d3d3d3d 	ldccc	13, cr3, [sp, #-244]!	; 0xffffff0c
    54bc:	3d3d3d3d 	ldccc	13, cr3, [sp, #-244]!	; 0xffffff0c
    54c0:	3d3d3d3d 	ldccc	13, cr3, [sp, #-244]!	; 0xffffff0c
    54c4:	3d3d3d3d 	ldccc	13, cr3, [sp, #-244]!	; 0xffffff0c
    54c8:	3d3d3d3d 	ldccc	13, cr3, [sp, #-244]!	; 0xffffff0c
    54cc:	3d3d3d3d 	ldccc	13, cr3, [sp, #-244]!	; 0xffffff0c
    54d0:	3d3d3d3d 	ldccc	13, cr3, [sp, #-244]!	; 0xffffff0c
    54d4:	3d3d3d3d 	ldccc	13, cr3, [sp, #-244]!	; 0xffffff0c
    54d8:	3d3d3d3d 	ldccc	13, cr3, [sp, #-244]!	; 0xffffff0c
    54dc:	3d3d3d3d 	ldccc	13, cr3, [sp, #-244]!	; 0xffffff0c
    54e0:	000a3d3d 	andeq	r3, sl, sp, lsr sp
    54e4:	7263694d 	rsbvc	r6, r3, #1261568	; 0x134000
    54e8:	6e65426f 	cdpvs	2, 6, cr4, cr5, cr15, {3}
    54ec:	25206863 	strcs	r6, [r0, #-2147]!	; 0xfffff79d
    54f0:	00000073 	andeq	r0, r0, r3, ror r0
    54f4:	20202020 	eorcs	r2, r0, r0, lsr #32
    54f8:	20202020 	eorcs	r2, r0, r0, lsr #32
    54fc:	4d206425 	stcmi	4, cr6, [r0, #-148]!	; 0xffffff6c
    5500:	736b7261 	cmnvc	fp, #268435462	; 0x10000006
    5504:	0000000a 	andeq	r0, r0, sl
    5508:	362d3769 	strtcc	r3, [sp], -r9, ror #14
    550c:	20303037 	eorscs	r3, r0, r7, lsr r0
    5510:	2e332040 	cdpcs	0, 3, cr2, cr3, cr0, {2}
    5514:	48473034 	stmdami	r7, {r2, r4, r5, ip, sp}^
    5518:	0000007a 	andeq	r0, r0, sl, ror r0
    551c:	20202020 	eorcs	r2, r0, r0, lsr #32
    5520:	20202020 	eorcs	r2, r0, r0, lsr #32
    5524:	20202020 	eorcs	r2, r0, r0, lsr #32
    5528:	20202020 	eorcs	r2, r0, r0, lsr #32
    552c:	76202020 	strtvc	r2, [r0], -r0, lsr #32
    5530:	25202e73 	strcs	r2, [r0, #-3699]!	; 0xfffff18d
    5534:	614d2064 	cmpvs	sp, r4, rrx
    5538:	20736b72 	rsbscs	r6, r3, r2, ror fp
    553c:	29732528 	ldmdbcs	r3!, {r3, r5, r8, sl, sp}^
    5540:	0000000a 	andeq	r0, r0, sl
    5544:	726f7371 	rsbvc	r7, pc, #-1006632959	; 0xc4000001
    5548:	00000074 	andeq	r0, r0, r4, ror r0
    554c:	63697551 	cmnvs	r9, #339738624	; 0x14400000
    5550:	6f73206b 	svcvs	0x0073206b
    5554:	00007472 	andeq	r7, r0, r2, ror r4
    5558:	65657571 	strbvs	r7, [r5, #-1393]!	; 0xfffffa8f
    555c:	0000006e 	andeq	r0, r0, lr, rrx
    5560:	65657551 	strbvs	r7, [r5, #-1361]!	; 0xfffffaaf
    5564:	6c70206e 	ldclvs	0, cr2, [r0], #-440	; 0xfffffe48
    5568:	6d656361 	stclvs	3, cr6, [r5, #-388]!	; 0xfffffe7c
    556c:	00746e65 	rsbseq	r6, r4, r5, ror #28
    5570:	00006662 	andeq	r6, r0, r2, ror #12
    5574:	69617242 	stmdbvs	r1!, {r1, r6, r9, ip, sp, lr}^
    5578:	2a2a666e 	bcs	0xa9ef38
    557c:	6e69206b 	cdpvs	0, 6, cr2, cr9, cr11, {3}
    5580:	70726574 	rsbsvc	r6, r2, r4, ror r5
    5584:	65746572 	ldrbvs	r6, [r4, #-1394]!	; 0xfffffa8e
    5588:	00000072 	andeq	r0, r0, r2, ror r0
    558c:	00626966 	rsbeq	r6, r2, r6, ror #18
    5590:	6f626946 	svcvs	0x00626946
    5594:	6363616e 	cmnvs	r3, #-2147483621	; 0x8000001b
    5598:	756e2069 	strbvc	r2, [lr, #-105]!	; 0xffffff97
    559c:	7265626d 	rsbvc	r6, r5, #-805306362	; 0xd0000006
    55a0:	00000000 	andeq	r0, r0, r0
    55a4:	76656973 			; <UNDEFINED> instruction: 0x76656973
    55a8:	00000065 	andeq	r0, r0, r5, rrx
    55ac:	74617245 	strbtvc	r7, [r1], #-581	; 0xfffffdbb
    55b0:	6874736f 	ldmdavs	r4!, {r0, r1, r2, r3, r5, r6, r8, r9, ip, sp, lr}^
    55b4:	73656e65 	cmnvc	r5, #1616	; 0x650
    55b8:	65697320 	strbvs	r7, [r9, #-800]!	; 0xfffffce0
    55bc:	00006576 	andeq	r6, r0, r6, ror r5
    55c0:	7a703531 	bvc	0x1c12a8c
    55c4:	00000000 	andeq	r0, r0, r0
    55c8:	31202a41 			; <UNDEFINED> instruction: 0x31202a41
    55cc:	75702d35 	ldrbvc	r2, [r0, #-3381]!	; 0xfffff2cb
    55d0:	656c7a7a 	strbvs	r7, [ip, #-2682]!	; 0xfffff586
    55d4:	61657320 	cmnvs	r5, r0, lsr #6
    55d8:	00686372 	rsbeq	r6, r8, r2, ror r3
    55dc:	696e6964 	stmdbvs	lr!, {r2, r5, r6, r8, fp, sp, lr}^
    55e0:	00000063 	andeq	r0, r0, r3, rrx
    55e4:	696e6944 	stmdbvs	lr!, {r2, r6, r8, fp, sp, lr}^
    55e8:	20732763 	rsbscs	r2, r3, r3, ror #14
    55ec:	6678616d 	ldrbtvs	r6, [r8], -sp, ror #2
    55f0:	20776f6c 	rsbscs	r6, r7, ip, ror #30
    55f4:	6f676c61 	svcvs	0x00676c61
    55f8:	68746972 	ldmdavs	r4!, {r1, r4, r5, r6, r8, fp, sp, lr}^
    55fc:	0000006d 	andeq	r0, r0, sp, rrx
    5600:	70697a6c 	rsbvc	r7, r9, ip, ror #20
    5604:	00000000 	andeq	r0, r0, r0
    5608:	70697a4c 	rsbvc	r7, r9, ip, asr #20
    560c:	6d6f6320 	stclvs	3, cr6, [pc, #-128]!	; 0x5594
    5610:	73657270 	cmnvc	r5, #112, 4
    5614:	6e6f6973 			; <UNDEFINED> instruction: 0x6e6f6973
    5618:	00000000 	andeq	r0, r0, r0
    561c:	726f7373 	rsbvc	r7, pc, #-872415231	; 0xcc000001
    5620:	00000074 	andeq	r0, r0, r4, ror r0
    5624:	66667553 			; <UNDEFINED> instruction: 0x66667553
    5628:	73207869 			; <UNDEFINED> instruction: 0x73207869
    562c:	0074726f 	rsbseq	r7, r4, pc, ror #4
    5630:	0035646d 	eorseq	r6, r5, sp, ror #8
    5634:	2035444d 	eorscs	r4, r5, sp, asr #8
    5638:	65676964 	strbvs	r6, [r7, #-2404]!	; 0xfffff69c
    563c:	ff007473 			; <UNDEFINED> instruction: 0xff007473
    5640:	3e2b3e3e 	mcrcc	14, 1, r3, cr11, cr14, {1}
    5644:	3e3e3e3e 	mrccc	14, 1, r3, cr14, cr14, {1}
    5648:	2b3e5b2c 	blcs	0xf9c300
    564c:	5d2c3e3e 	stcpl	14, cr3, [ip, #-248]!	; 0xffffff08
    5650:	2d5b2b3e 			; <UNDEFINED> instruction: 0x2d5b2b3e
    5654:	3c2b5b2d 			; <UNDEFINED> instruction: 0x3c2b5b2d
    5658:	5d2d3c3c 	stcpl	12, cr3, [sp, #-240]!	; 0xffffff10
    565c:	2b3c5b3c 	blcs	0xf1c354
    5660:	3c5d2d3e 	ldclcc	13, cr2, [sp], {62}	; 0x3e
    5664:	2d5b3c5b 	ldclcs	12, cr3, [fp, #-364]	; 0xfffffe94
    5668:	3c3c5b3e 			; <UNDEFINED> instruction: 0x3c3c5b3e
    566c:	3e3e2b3c 			; <UNDEFINED> instruction: 0x3e3e2b3c
    5670:	3c2b3e3e 	stccc	14, cr3, [fp], #-248	; 0xffffff08
    5674:	3c3c5d2d 	ldccc	13, cr5, [ip], #-180	; 0xffffff4c
    5678:	2b3e3e5b 	blcs	0xf94fec
    567c:	3e2d5b3e 			; <UNDEFINED> instruction: 0x3e2d5b3e
    5680:	5b3c3c5d 	blpl	0xf147fc
    5684:	2d3c5d3c 	ldccs	13, cr5, [ip, #-240]!	; 0xffffff10
    5688:	3e5d3e5d 	mrccc	14, 2, r3, cr13, cr13, {2}
    568c:	3c2b3e3e 	stccc	14, cr3, [fp], #-248	; 0xffffff08
    5690:	5d2d5b5b 			; <UNDEFINED> instruction: 0x5d2d5b5b
    5694:	2b3e5b3c 	blcs	0xf9c38c
    5698:	3c5d2d3c 	ldclcc	13, cr2, [sp], {60}	; 0x3c
    569c:	5b5b3e5d 	blpl	0x16d5018
    56a0:	5d3e3e3e 	ldcpl	14, cr3, [lr, #-248]!	; 0xffffff08
    56a4:	3c3c3c2b 	ldccc	12, cr3, [ip], #-172	; 0xffffff54
    56a8:	3c5b3c2d 	ldclcc	12, cr3, [fp], {45}	; 0x2d
    56ac:	3c3c5b3c 			; <UNDEFINED> instruction: 0x3c3c5b3c
    56b0:	3e3e5d3c 	mrccc	13, 1, r5, cr14, cr12, {1}
    56b4:	3e5b3e2b 	cdpcc	14, 5, cr3, cr11, cr11, {1}
    56b8:	3c5d3e3e 	ldclcc	14, cr3, [sp], {62}	; 0x3e
    56bc:	3c3c5d2d 	ldccc	13, cr5, [ip], #-180	; 0xffffff4c
    56c0:	3c3c3c5b 	ldccc	12, cr3, [ip], #-364	; 0xfffffe94
    56c4:	3e5b3e5d 	mrccc	14, 2, r3, cr11, cr13, {2}
    56c8:	3e3e5b3e 			; <UNDEFINED> instruction: 0x3e3e5b3e
    56cc:	2b3c5d3e 	blcs	0xf1cbcc
    56d0:	3c5b3c3c 	ldclcc	12, cr3, [fp], {60}	; 0x3c
    56d4:	3e5d3c3c 	mrccc	12, 2, r3, cr13, cr12, {1}
    56d8:	2b5d5d2d 	blcs	0x175cb94
    56dc:	5d3c3c3c 	ldcpl	12, cr3, [ip, #-240]!	; 0xffffff10
    56e0:	3e2d5b2b 			; <UNDEFINED> instruction: 0x3e2d5b2b
    56e4:	3e5d3e3e 	mrccc	14, 2, r3, cr13, cr14, {1}
    56e8:	3e3e5d3e 	mrccc	13, 1, r5, cr14, cr14, {1}
    56ec:	3e3e2e5b 	mrccc	14, 1, r2, cr14, cr11, {2}
    56f0:	00005d3e 	andeq	r5, r0, lr, lsr sp
    56f4:	33323130 	teqcc	r2, #48, 2
    56f8:	37363534 			; <UNDEFINED> instruction: 0x37363534
    56fc:	62613938 	rsbvs	r3, r1, #56, 18	; 0xe0000
    5700:	66656463 	strbtvs	r6, [r5], -r3, ror #8
    5704:	6a696867 	bvs	0x1a5f8a8
    5708:	6e6d6c6b 	cdpvs	12, 6, cr6, cr13, cr11, {3}
    570c:	7271706f 	rsbsvc	r7, r1, #111	; 0x6f
    5710:	76757473 			; <UNDEFINED> instruction: 0x76757473
    5714:	7a797877 	bvc	0x1e638f8
    5718:	44434241 	strbmi	r4, [r3], #-577	; 0xfffffdbf
    571c:	48474645 	stmdami	r7, {r0, r2, r6, r9, sl, lr}^
    5720:	4c4b4a49 			; <UNDEFINED> instruction: 0x4c4b4a49
    5724:	504f4e4d 	subpl	r4, pc, sp, asr #28
    5728:	54535251 	ldrbpl	r5, [r3], #-593	; 0xfffffdaf
    572c:	58575655 	ldmdapl	r7, {r0, r2, r4, r6, r9, sl, ip, lr}^
    5730:	00005a59 	andeq	r5, r0, r9, asr sl
    5734:	81013080 	tsthi	r1, r0, lsl #1
    5738:	f0abb0b0 			; <UNDEFINED> instruction: 0xf0abb0b0
    573c:	00000000 	andeq	r0, r0, r0
    5740:	81011480 	tsthi	r1, r0, lsl #9
    5744:	f0abb0b0 			; <UNDEFINED> instruction: 0xf0abb0b0
    5748:	00000000 	andeq	r0, r0, r0
    574c:	81010280 	tsthi	r1, r0, lsl #5
    5750:	f0abb0b0 			; <UNDEFINED> instruction: 0xf0abb0b0
    5754:	00000000 	andeq	r0, r0, r0
    5758:	81010e80 	tsthi	r1, r0, lsl #29
    575c:	f0abb0b0 			; <UNDEFINED> instruction: 0xf0abb0b0
    5760:	00000000 	andeq	r0, r0, r0
    5764:	7fffaac4 	svcvc	0x00ffaac4
    5768:	00000001 	andeq	r0, r0, r1
    576c:	7fffab00 	svcvc	0x00ffab00
    5770:	7fffffc4 	svcvc	0x00ffffc4
    5774:	7fffb2cc 	svcvc	0x00ffb2cc
    5778:	00000001 	andeq	r0, r0, r1
    577c:	7fffbb30 	svcvc	0x00ffbb30
    5780:	7fffffcc 	svcvc	0x00ffffcc
    5784:	7fffbd30 	svcvc	0x00ffbd30
    5788:	00000001 	andeq	r0, r0, r1
    578c:	7fffd00c 	svcvc	0x00ffd00c
    5790:	808070ab 	addhi	r7, r0, fp, lsr #1
    5794:	7fffd0a8 	svcvc	0x00ffd0a8
    5798:	7fffffc0 	svcvc	0x00ffffc0
    579c:	7fffd424 	svcvc	0x00ffd424
    57a0:	80b108ab 	adcshi	r0, r1, fp, lsr #17
    57a4:	7fffd474 	svcvc	0x00ffd474
    57a8:	80a8b0b0 	strhhi	fp, [r8], r0	; <UNPREDICTABLE>
    57ac:	7fffd4b4 	svcvc	0x00ffd4b4
    57b0:	00000001 	andeq	r0, r0, r1
    57b4:	7fffda44 	svcvc	0x00ffda44
    57b8:	7fffff88 	svcvc	0x00ffff88
    57bc:	7fffdb34 	svcvc	0x00ffdb34
    57c0:	00000001 	andeq	r0, r0, r1
    57c4:	7fffdca0 	svcvc	0x00ffdca0
    57c8:	808070ab 	addhi	r7, r0, fp, lsr #1
    57cc:	7fffde5c 	svcvc	0x00ffde5c
    57d0:	00000001 	andeq	r0, r0, r1
    57d4:	00000000 	andeq	r0, r0, r0
    57d8:	00000001 	andeq	r0, r0, r1
    57dc:	00000002 	andeq	r0, r0, r2
    57e0:	00000003 	andeq	r0, r0, r3
    57e4:	00000004 	andeq	r0, r0, r4
    57e8:	00000005 	andeq	r0, r0, r5
    57ec:	00000006 	andeq	r0, r0, r6
    57f0:	00000007 	andeq	r0, r0, r7
    57f4:	00000008 	andeq	r0, r0, r8
    57f8:	00000009 	andeq	r0, r0, r9
    57fc:	0000000a 	andeq	r0, r0, sl
    5800:	00000000 	andeq	r0, r0, r0
    5804:	0000000b 	andeq	r0, r0, fp
    5808:	0000000d 	andeq	r0, r0, sp
    580c:	0000000e 	andeq	r0, r0, lr
    5810:	0000000f 	andeq	r0, r0, pc
    5814:	0000000c 	andeq	r0, r0, ip
    5818:	00000000 	andeq	r0, r0, r0
    581c:	00000002 	andeq	r0, r0, r2
    5820:	00000003 	andeq	r0, r0, r3
    5824:	00000004 	andeq	r0, r0, r4
    5828:	00000009 	andeq	r0, r0, r9
    582c:	00000006 	andeq	r0, r0, r6
    5830:	00000007 	andeq	r0, r0, r7
    5834:	00000008 	andeq	r0, r0, r8
    5838:	00000005 	andeq	r0, r0, r5
    583c:	0000000b 	andeq	r0, r0, fp
    5840:	0000000a 	andeq	r0, r0, sl
    5844:	0000000c 	andeq	r0, r0, ip
    5848:	00000001 	andeq	r0, r0, r1
    584c:	0000000f 	andeq	r0, r0, pc
    5850:	0000000d 	andeq	r0, r0, sp
    5854:	0000000e 	andeq	r0, r0, lr
    5858:	00000001 	andeq	r0, r0, r1
    585c:	08001d59 	stmdaeq	r0, {r0, r3, r4, r6, r8, sl, fp, ip}
    5860:	08001da5 	stmdaeq	r0, {r0, r2, r5, r7, r8, sl, fp, ip}
    5864:	08001dbd 	stmdaeq	r0, {r0, r2, r3, r4, r5, r7, r8, sl, fp, ip}
    5868:	08005544 	stmdaeq	r0, {r2, r6, r8, sl, ip, lr}
    586c:	0800554c 	stmdaeq	r0, {r2, r3, r6, r8, sl, ip, lr}
    5870:	00000064 	andeq	r0, r0, r4, rrx
    5874:	00000400 	andeq	r0, r0, r0, lsl #8
    5878:	00000000 	andeq	r0, r0, r0
    587c:	08467105 	stmdaeq	r6, {r0, r2, r8, ip, sp, lr}^
    5880:	000186a0 	andeq	r8, r1, r0, lsr #13
    5884:	000a0000 	andeq	r0, sl, r0
    5888:	0000158f 	andeq	r1, r0, pc, lsl #11
    588c:	ed8cff89 	stc	15, cr15, [ip, #548]	; 0x224
    5890:	08001e3d 	stmdaeq	r0, {r0, r2, r3, r4, r5, r9, sl, fp, ip}
    5894:	08001e5d 	stmdaeq	r0, {r0, r2, r3, r4, r6, r9, sl, fp, ip}
    5898:	08001e79 	stmdaeq	r0, {r0, r3, r4, r5, r6, r9, sl, fp, ip}
    589c:	08005558 	stmdaeq	r0, {r3, r4, r6, r8, sl, ip, lr}
    58a0:	08005560 	stmdaeq	r0, {r5, r6, r8, sl, ip, lr}
    58a4:	00000008 	andeq	r0, r0, r8
	...
    58b0:	0000005c 	andeq	r0, r0, ip, asr r0
    58b4:	0000000c 	andeq	r0, r0, ip
    58b8:	00000000 	andeq	r0, r0, r0
    58bc:	00001427 	andeq	r1, r0, r7, lsr #8
    58c0:	00003778 	andeq	r3, r0, r8, ror r7
    58c4:	08001109 	stmdaeq	r0, {r0, r3, r8, ip}
    58c8:	080011a1 	stmdaeq	r0, {r0, r5, r7, r8, ip}
    58cc:	080011b1 	stmdaeq	r0, {r0, r4, r5, r7, r8, ip}
    58d0:	08005570 	stmdaeq	r0, {r4, r5, r6, r8, sl, ip, lr}
    58d4:	08005574 	stmdaeq	r0, {r2, r4, r5, r6, r8, sl, ip, lr}
    58d8:	00000004 	andeq	r0, r0, r4
    58dc:	00008000 	andeq	r8, r0, r0
    58e0:	00000000 	andeq	r0, r0, r0
    58e4:	a6f0079e 			; <UNDEFINED> instruction: 0xa6f0079e
    58e8:	000000b4 	strheq	r0, [r0], -r4
    58ec:	00008000 	andeq	r8, r0, r0
    58f0:	00006661 	andeq	r6, r0, r1, ror #12
    58f4:	9221e2b3 	eorls	lr, r1, #805306379	; 0x3000000b
    58f8:	08001739 	stmdaeq	r0, {r0, r3, r4, r5, r8, r9, sl, ip}
    58fc:	08001779 	stmdaeq	r0, {r0, r3, r4, r5, r6, r8, r9, sl, ip}
    5900:	08001985 	stmdaeq	r0, {r0, r2, r7, r8, fp, ip}
    5904:	0800558c 	stmdaeq	r0, {r2, r3, r7, r8, sl, ip, lr}
    5908:	08005590 	stmdaeq	r0, {r4, r7, r8, sl, ip, lr}
    590c:	00000002 	andeq	r0, r0, r2
    5910:	00000400 	andeq	r0, r0, r0, lsl #8
    5914:	00000000 	andeq	r0, r0, r0
    5918:	7cfeddf0 	ldclvc	13, cr13, [lr], #960	; 0x3c0
    591c:	0000005b 	andeq	r0, r0, fp, asr r0
    5920:	00040000 	andeq	r0, r4, r0
    5924:	00006f9f 	muleq	r0, pc, pc	; <UNPREDICTABLE>
    5928:	ebdc5f80 	bl	0xff71d730
    592c:	08002645 	stmdaeq	r0, {r0, r2, r6, r9, sl, sp}
    5930:	08002691 	stmdaeq	r0, {r0, r4, r7, r9, sl, sp}
    5934:	0800277d 	stmdaeq	r0, {r0, r2, r3, r4, r5, r6, r8, r9, sl, sp}
    5938:	080055a4 	stmdaeq	r0, {r2, r5, r7, r8, sl, ip, lr}
    593c:	080055ac 	stmdaeq	r0, {r2, r3, r5, r7, r8, sl, ip, lr}
    5940:	00000064 	andeq	r0, r0, r4, rrx
    5944:	00000400 	andeq	r0, r0, r0, lsl #8
    5948:	00000000 	andeq	r0, r0, r0
    594c:	00000019 	andeq	r0, r0, r9, lsl r0
    5950:	00989680 	addseq	r9, r8, r0, lsl #13
    5954:	00200000 	eoreq	r0, r0, r0
    5958:	0000a5a6 	andeq	sl, r0, r6, lsr #11
    595c:	000a2403 	andeq	r2, sl, r3, lsl #8
    5960:	0800024d 	stmdaeq	r0, {r0, r2, r3, r6, r9}
    5964:	0800026d 	stmdaeq	r0, {r0, r2, r3, r5, r6, r9}
    5968:	08000251 	stmdaeq	r0, {r0, r4, r6, r9}
    596c:	080055c0 	stmdaeq	r0, {r6, r7, r8, sl, ip, lr}
    5970:	080055c8 	stmdaeq	r0, {r3, r6, r7, r8, sl, ip, lr}
    5974:	00000000 	andeq	r0, r0, r0
    5978:	00200000 	eoreq	r0, r0, r0
    597c:	00000000 	andeq	r0, r0, r0
    5980:	00000006 	andeq	r0, r0, r6
    5984:	00000001 	andeq	r0, r0, r1
    5988:	00800000 	addeq	r0, r0, r0
    598c:	000016a0 	andeq	r1, r0, r0, lsr #13
    5990:	00068b8c 	andeq	r8, r6, ip, lsl #23
    5994:	080012ad 	stmdaeq	r0, {r0, r2, r3, r5, r7, r9, ip}
    5998:	080014b5 	stmdaeq	r0, {r0, r2, r4, r5, r7, sl, ip}
    599c:	0800171d 	stmdaeq	r0, {r0, r2, r3, r4, r8, r9, sl, ip}
    59a0:	080055dc 	stmdaeq	r0, {r2, r3, r4, r6, r7, r8, sl, ip, lr}
    59a4:	080055e4 	stmdaeq	r0, {r2, r5, r6, r7, r8, sl, ip, lr}
    59a8:	0000000a 	andeq	r0, r0, sl
    59ac:	00100000 	andseq	r0, r0, r0
    59b0:	00000000 	andeq	r0, r0, r0
    59b4:	0000019c 	muleq	r0, ip, r1
    59b8:	00000080 	andeq	r0, r0, r0, lsl #1
    59bc:	00100000 	andseq	r0, r0, r0
    59c0:	000034e0 	andeq	r3, r0, r0, ror #9
    59c4:	0000c248 	andeq	ip, r0, r8, asr #4
    59c8:	080019ad 	stmdaeq	r0, {r0, r2, r3, r5, r7, r8, fp, ip}
    59cc:	08001a0d 	stmdaeq	r0, {r0, r2, r3, r9, fp, ip}
    59d0:	08001a29 	stmdaeq	r0, {r0, r3, r5, r9, fp, ip}
    59d4:	08005600 	stmdaeq	r0, {r9, sl, ip, lr}
    59d8:	08005608 	stmdaeq	r0, {r3, r9, sl, ip, lr}
    59dc:	00000080 	andeq	r0, r0, r0, lsl #1
    59e0:	00100000 	andseq	r0, r0, r0
    59e4:	00000000 	andeq	r0, r0, r0
    59e8:	03e9fa7d 	mvneq	pc, #512000	; 0x7d000
    59ec:	00100000 	andseq	r0, r0, r0
    59f0:	00400000 	subeq	r0, r0, r0
    59f4:	00006765 	andeq	r6, r0, r5, ror #14
    59f8:	43601310 	cmnmi	r0, #16, 6	; 0x40000000
    59fc:	08002bc1 	stmdaeq	r0, {r0, r6, r7, r8, r9, fp, sp}
    5a00:	08002c19 	stmdaeq	r0, {r0, r3, r4, sl, fp, sp}
    5a04:	08002c35 	stmdaeq	r0, {r0, r2, r4, r5, sl, fp, sp}
    5a08:	0800561c 	stmdaeq	r0, {r2, r3, r4, r9, sl, ip, lr}
    5a0c:	08005624 	stmdaeq	r0, {r2, r5, r9, sl, ip, lr}
    5a10:	00000064 	andeq	r0, r0, r4, rrx
    5a14:	00001000 	andeq	r1, r0, r0
    5a18:	00000000 	andeq	r0, r0, r0
    5a1c:	4c555e09 	ldclmi	14, cr5, [r5], {9}
    5a20:	000186a0 	andeq	r8, r1, r0, lsr #13
    5a24:	00400000 	subeq	r0, r0, r0
    5a28:	0000171b 	andeq	r1, r0, fp, lsl r7
    5a2c:	4f0ab431 	svcmi	0x000ab431
    5a30:	08001a51 	stmdaeq	r0, {r0, r4, r6, r9, fp, ip}
    5a34:	08001a99 	stmdaeq	r0, {r0, r3, r4, r7, r9, fp, ip}
    5a38:	08001cad 	stmdaeq	r0, {r0, r2, r3, r5, r7, sl, fp, ip}
    5a3c:	08005630 	stmdaeq	r0, {r4, r5, r9, sl, ip, lr}
    5a40:	08005634 	stmdaeq	r0, {r2, r4, r5, r9, sl, ip, lr}
    5a44:	00000064 	andeq	r0, r0, r4, rrx
    5a48:	00000400 	andeq	r0, r0, r0, lsl #8
    5a4c:	00000000 	andeq	r0, r0, r0
    5a50:	f902f28f 			; <UNDEFINED> instruction: 0xf902f28f
    5a54:	00989680 	addseq	r9, r8, r0, lsl #13
    5a58:	01000000 	mrseq	r0, (UNDEF: 0)
    5a5c:	00004c89 	andeq	r4, r0, r9, lsl #25
    5a60:	27286a42 	strcs	r6, [r8, -r2, asr #20]!
    5a64:	030003f8 	tsteq	r0, #248, 6	; 0xe0000003
    5a68:	00000000 	andeq	r0, r0, r0
    5a6c:	030006e8 	tsteq	r0, #232, 12	; 0xe800000
    5a70:	03000760 	tsteq	r0, #96, 14	; 0x1800000
    5a74:	030007d8 	tsteq	r0, #216, 14	; 0x3600000
	...
    5b10:	00000001 	andeq	r0, r0, r1
    5b14:	00000000 	andeq	r0, r0, r0
    5b18:	abcd330e 	blge	0xff352758
    5b1c:	e66d1234 			; <UNDEFINED> instruction: 0xe66d1234
    5b20:	0005deec 	andeq	sp, r5, ip, ror #29
    5b24:	0000000b 	andeq	r0, r0, fp
	...
    5ec8:	080031c4 	stmdaeq	r0, {r2, r6, r7, r8, ip, sp}
    5ecc:	08003180 	stmdaeq	r0, {r7, r8, ip, sp}
    5ed0:	52416b64 	subpl	r6, r1, #100, 22	; 0x19000
    5ed4:	0000004d 	andeq	r0, r0, sp, asr #32
