
test.gba:     file format binary


Disassembly of section .data:

00000000 <.data>:
       0:	002e      	movs	r6, r5
       2:	ea00 0000 	and.w	r0, r0, r0
	...
      ae:	0000      	movs	r0, r0
      b0:	3130      	adds	r1, #48	; 0x30
      b2:	0096      	lsls	r6, r2, #2
	...
      bc:	f000 0000 	and.w	r0, r0, #0
      c0:	0006      	movs	r6, r0
      c2:	ea00 0000 	and.w	r0, r0, r0
	...
      de:	0000      	movs	r0, r0
      e0:	0301      	lsls	r1, r0, #12
      e2:	e3a0      	b.n	0x826
      e4:	0208      	lsls	r0, r1, #8
      e6:	e580      	b.n	0xfffffbea
      e8:	0012      	movs	r2, r2
      ea:	e3a0      	b.n	0x82e
      ec:	f000 e129 			; <UNDEFINED> instruction: 0xf000e129
      f0:	d0b8      	beq.n	0x64
      f2:	e59f      	b.n	0xfffffc34
      f4:	001f      	movs	r7, r3
      f6:	e3a0      	b.n	0x83a
      f8:	f000 e129 			; <UNDEFINED> instruction: 0xf000e129
      fc:	d0b0      	beq.n	0x60
      fe:	e59f      	b.n	0xfffffc40
     100:	0001      	movs	r1, r0
     102:	e28f      	b.n	0x624
     104:	ff10 e12f 	vrhadd.u16	d14, d0, d31
     108:	482b      	ldr	r0, [pc, #172]	; (0x1b8)
     10a:	0140      	lsls	r0, r0, #5
     10c:	d20b      	bcs.n	0x126
     10e:	4678      	mov	r0, pc
     110:	0140      	lsls	r0, r0, #5
     112:	d30d      	bcc.n	0x130
     114:	2202      	movs	r2, #2
     116:	0612      	lsls	r2, r2, #24
     118:	4b28      	ldr	r3, [pc, #160]	; (0x1bc)
     11a:	1a9b      	subs	r3, r3, r2
     11c:	1c16      	adds	r6, r2, #0
     11e:	0091      	lsls	r1, r2, #2
     120:	f000 f83c 	bl	0x19c
     124:	4730      	bx	r6
     126:	2140      	movs	r1, #64	; 0x40
     128:	0309      	lsls	r1, r1, #12
     12a:	01c8      	lsls	r0, r1, #7
     12c:	f000 f82b 	bl	0x186
     130:	4823      	ldr	r0, [pc, #140]	; (0x1c0)
     132:	4924      	ldr	r1, [pc, #144]	; (0x1c4)
     134:	1a09      	subs	r1, r1, r0
     136:	f000 f826 	bl	0x186
     13a:	4823      	ldr	r0, [pc, #140]	; (0x1c8)
     13c:	4923      	ldr	r1, [pc, #140]	; (0x1cc)
     13e:	1a09      	subs	r1, r1, r0
     140:	f000 f821 	bl	0x186
     144:	4922      	ldr	r1, [pc, #136]	; (0x1d0)
     146:	4a23      	ldr	r2, [pc, #140]	; (0x1d4)
     148:	4c23      	ldr	r4, [pc, #140]	; (0x1d8)
     14a:	f000 f826 	bl	0x19a
     14e:	4923      	ldr	r1, [pc, #140]	; (0x1dc)
     150:	4a23      	ldr	r2, [pc, #140]	; (0x1e0)
     152:	4c24      	ldr	r4, [pc, #144]	; (0x1e4)
     154:	f000 f821 	bl	0x19a
     158:	4a23      	ldr	r2, [pc, #140]	; (0x1e8)
     15a:	4924      	ldr	r1, [pc, #144]	; (0x1ec)
     15c:	1a53      	subs	r3, r2, r1
     15e:	d002      	beq.n	0x166
     160:	4a23      	ldr	r2, [pc, #140]	; (0x1f0)
     162:	f000 f81b 	bl	0x19c
     166:	4923      	ldr	r1, [pc, #140]	; (0x1f4)
     168:	4a23      	ldr	r2, [pc, #140]	; (0x1f8)
     16a:	4c24      	ldr	r4, [pc, #144]	; (0x1fc)
     16c:	f000 f815 	bl	0x19a
     170:	4923      	ldr	r1, [pc, #140]	; (0x200)
     172:	4824      	ldr	r0, [pc, #144]	; (0x204)
     174:	6008      	str	r0, [r1, #0]
     176:	4b24      	ldr	r3, [pc, #144]	; (0x208)
     178:	f000 f80e 	bl	0x198
     17c:	2000      	movs	r0, #0
     17e:	2100      	movs	r1, #0
     180:	4b22      	ldr	r3, [pc, #136]	; (0x20c)
     182:	f000 f809 	bl	0x198
     186:	2203      	movs	r2, #3
     188:	1889      	adds	r1, r1, r2
     18a:	4391      	bics	r1, r2
     18c:	d003      	beq.n	0x196
     18e:	2200      	movs	r2, #0
     190:	c004      	stmia	r0!, {r2}
     192:	3904      	subs	r1, #4
     194:	d1fc      	bne.n	0x190
     196:	4770      	bx	lr
     198:	4718      	bx	r3
     19a:	1aa3      	subs	r3, r4, r2
     19c:	2003      	movs	r0, #3
     19e:	181b      	adds	r3, r3, r0
     1a0:	4383      	bics	r3, r0
     1a2:	d003      	beq.n	0x1ac
     1a4:	c901      	ldmia	r1!, {r0}
     1a6:	c201      	stmia	r2!, {r0}
     1a8:	3b04      	subs	r3, #4
     1aa:	d1fb      	bne.n	0x1a4
     1ac:	4770      	bx	lr
     1ae:	46c0      	nop			; (mov r8, r8)
     1b0:	7fa0      	ldrb	r0, [r4, #30]
     1b2:	0300      	lsls	r0, r0, #12
     1b4:	7f00      	ldrb	r0, [r0, #28]
     1b6:	0300      	lsls	r0, r0, #12
     1b8:	0000      	movs	r0, r0
     1ba:	0800      	lsrs	r0, r0, #32
     1bc:	0000      	movs	r0, r0
     1be:	0200      	lsls	r0, r0, #8
     1c0:	0000      	movs	r0, r0
     1c2:	0300      	lsls	r0, r0, #12
     1c4:	0168      	lsls	r0, r5, #5
     1c6:	0300      	lsls	r0, r0, #12
     1c8:	0000      	movs	r0, r0
     1ca:	0200      	lsls	r0, r0, #8
     1cc:	0000      	movs	r0, r0
     1ce:	0200      	lsls	r0, r0, #8
     1d0:	6a4c      	ldr	r4, [r1, #36]	; 0x24
     1d2:	0800      	lsrs	r0, r0, #32
     1d4:	0168      	lsls	r0, r5, #5
     1d6:	0300      	lsls	r0, r0, #12
     1d8:	0860      	lsrs	r0, r4, #1
     1da:	0300      	lsls	r0, r0, #12
     1dc:	6a4c      	ldr	r4, [r1, #36]	; 0x24
     1de:	0800      	lsrs	r0, r0, #32
     1e0:	0000      	movs	r0, r0
     1e2:	0300      	lsls	r0, r0, #12
     1e4:	0000      	movs	r0, r0
     1e6:	0300      	lsls	r0, r0, #12
     1e8:	7144      	strb	r4, [r0, #5]
     1ea:	0800      	lsrs	r0, r0, #32
     1ec:	7144      	strb	r4, [r0, #5]
     1ee:	0800      	lsrs	r0, r0, #32
     1f0:	0860      	lsrs	r0, r4, #1
     1f2:	0300      	lsls	r0, r0, #12
     1f4:	7144      	strb	r4, [r0, #5]
     1f6:	0800      	lsrs	r0, r0, #32
     1f8:	0000      	movs	r0, r0
     1fa:	0200      	lsls	r0, r0, #8
     1fc:	0000      	movs	r0, r0
     1fe:	0200      	lsls	r0, r0, #8
     200:	0108      	lsls	r0, r1, #4
     202:	0300      	lsls	r0, r0, #12
     204:	0000      	movs	r0, r0
     206:	0204      	lsls	r4, r0, #8
     208:	6194      	str	r4, [r2, #24]
     20a:	0800      	lsrs	r0, r0, #32
     20c:	4988      	ldr	r1, [pc, #544]	; (0x430)
     20e:	0800      	lsrs	r0, r0, #32
     210:	c00d      	stmia	r0!, {r0, r2, r3}
     212:	e1a0      	b.n	0x556
     214:	dff8      	svc	248	; 0xf8
     216:	e92d b004 	stmdb	sp!, {r2, ip, sp, pc}
     21a:	e24c      	b.n	0x6b6
     21c:	d028      	beq.n	0x270
     21e:	e24b      	b.n	0x6b8
     220:	6ff0      	ldr	r0, [r6, #124]	; 0x7c
     222:	e89d ff1e 	ldmia.w	sp, {r1, r2, r3, r4, r8, r9, sl, fp, ip, sp, lr, pc}
     226:	e12f      	b.n	0x488
     228:	0000      	movs	r0, r0
     22a:	e350      	b.n	0x8ce
     22c:	ff1e 112f 	vrhadd.u16	d1, d14, d31
     230:	3301      	adds	r3, #1
     232:	e3a0      	b.n	0x976
     234:	c003      	stmia	r0!, {r0, r1}
     236:	e3a0      	b.n	0x97a
     238:	0004      	movs	r4, r0
     23a:	e3a0      	b.n	0x97e
     23c:	2406      	movs	r4, #6
     23e:	e3a0      	b.n	0x982
     240:	101f      	asrs	r7, r3, #32
     242:	e3a0      	b.n	0x986
     244:	c000      	stmia	r0!, {}
     246:	e5c3      	b.n	0xfffffdd0
     248:	0001      	movs	r1, r0
     24a:	e5c3      	b.n	0xfffffdd4
     24c:	10b0      	asrs	r0, r6, #2
     24e:	e1c2      	b.n	0x5d6
     250:	fffe eaff 			; <UNDEFINED> instruction: 0xfffeeaff
     254:	ff1e e12f 	vrhadd.u16	d14, d14, d31
     258:	201c      	movs	r0, #28
     25a:	e59f      	b.n	0xfffffd9c
     25c:	301c      	adds	r0, #28
     25e:	e59f      	b.n	0xfffffda0
     260:	2000      	movs	r0, #0
     262:	e592      	b.n	0xfffffd8a
     264:	3000      	adds	r0, #0
     266:	e593      	b.n	0xfffffd90
     268:	000c      	movs	r4, r1
     26a:	e592      	b.n	0xfffffd92
     26c:	3003      	adds	r0, #3
     26e:	e040      	b.n	0x2f2
     270:	0000      	movs	r0, r0
     272:	e273      	b.n	0x75c
     274:	0003      	movs	r3, r0
     276:	e0a0      	b.n	0x3ba
     278:	ff1e e12f 	vrhadd.u16	d14, d14, d31
     27c:	0158      	lsls	r0, r3, #5
     27e:	0300      	lsls	r0, r0, #12
     280:	001c      	movs	r4, r3
     282:	0300      	lsls	r0, r0, #12
     284:	4ff0      	ldr	r7, [pc, #960]	; (0x648)
     286:	e92d d0b4 	stmdb	sp!, {r2, r4, r5, r7, ip, lr, pc}
     28a:	e24d      	b.n	0x728
     28c:	0028      	movs	r0, r5
     28e:	e28d      	b.n	0x7ac
     290:	1041      	asrs	r1, r0, #1
     292:	eb00 3aa4 	add.w	sl, r0, r4, asr #14
     296:	e59f      	b.n	0xfffffdd8
     298:	3000      	adds	r0, #0
     29a:	e593      	b.n	0xfffffdc4
     29c:	3000      	adds	r0, #0
     29e:	e593      	b.n	0xfffffdc8
     2a0:	0000      	movs	r0, r0
     2a2:	e353      	b.n	0x94c
     2a4:	3070      	adds	r0, #112	; 0x70
     2a6:	e28d      	b.n	0x7c4
     2a8:	4003      	ands	r3, r0
     2aa:	e1a0      	b.n	0x5ee
     2ac:	3000      	adds	r0, #0
     2ae:	e58d      	b.n	0xfffffdcc
     2b0:	0003      	movs	r3, r0
     2b2:	e1a0      	b.n	0x5f6
     2b4:	027c      	lsls	r4, r7, #9
     2b6:	1a00      	subs	r0, r0, r0
     2b8:	1a84      	subs	r4, r0, r2
     2ba:	e59f      	b.n	0xfffffdfc
     2bc:	1089      	asrs	r1, r1, #2
     2be:	eb00 3004 	add.w	r0, r0, r4, lsl #12
     2c2:	e1a0      	b.n	0x606
     2c4:	1084      	asrs	r4, r0, #2
     2c6:	e59d      	b.n	0xfffffe04
     2c8:	0070      	lsls	r0, r6, #1
     2ca:	e59d      	b.n	0xfffffe08
     2cc:	103c      	asrs	r4, r7, #32
     2ce:	e58d      	b.n	0xfffffdec
     2d0:	0028      	movs	r0, r5
     2d2:	e58d      	b.n	0xfffffdf0
     2d4:	1070      	asrs	r0, r6, #1
     2d6:	e5dd      	b.n	0xfffffe94
     2d8:	2028      	movs	r0, #40	; 0x28
     2da:	e28d      	b.n	0x7f8
     2dc:	5080      	str	r0, [r0, r2]
     2de:	e28d      	b.n	0x7fc
     2e0:	4004      	ands	r4, r0
     2e2:	e5d3      	b.n	0xfffffe8c
     2e4:	e005      	b.n	0x2f2
     2e6:	e5d3      	b.n	0xfffffe90
     2e8:	c006      	stmia	r0!, {r1, r2}
     2ea:	e5d3      	b.n	0xfffffe94
     2ec:	0007      	movs	r7, r0
     2ee:	e5d3      	b.n	0xfffffe98
     2f0:	3004      	adds	r0, #4
     2f2:	e283      	b.n	0x7fc
     2f4:	0003      	movs	r3, r0
     2f6:	e155      	b.n	0x5a4
     2f8:	4004      	ands	r4, r0
     2fa:	e5c2      	b.n	0xfffffe82
     2fc:	e005      	b.n	0x30a
     2fe:	e5c2      	b.n	0xfffffe86
     300:	c006      	stmia	r0!, {r1, r2}
     302:	e5c2      	b.n	0xfffffe8a
     304:	0007      	movs	r7, r0
     306:	e5c2      	b.n	0xfffffe8e
     308:	2004      	movs	r0, #4
     30a:	e282      	b.n	0x812
     30c:	fff3 1aff 			; <UNDEFINED> instruction: 0xfff31aff
     310:	0000      	movs	r0, r0
     312:	e351      	b.n	0x9b8
     314:	0001      	movs	r1, r0
     316:	01a0      	lsls	r0, r4, #6
     318:	002b      	movs	r3, r5
     31a:	0a00      	lsrs	r0, r0, #8
     31c:	e010      	b.n	0x340
     31e:	e3a0      	b.n	0xa62
     320:	c000      	stmia	r0!, {}
     322:	e59d      	b.n	0xfffffe60
     324:	40b0      	lsls	r0, r6
     326:	e28d      	b.n	0x844
     328:	0030      	movs	r0, r6
     32a:	e28d      	b.n	0x848
     32c:	200c      	movs	r0, #12
     32e:	e1a0      	b.n	0x672
     330:	3004      	adds	r0, #4
     332:	e240      	b.n	0x7b6
     334:	10d1      	asrs	r1, r2, #3
     336:	e0d3      	b.n	0x4e0
     338:	0000      	movs	r0, r0
     33a:	e351      	b.n	0x9e0
     33c:	e000      	b.n	0x340
     33e:	0582      	lsls	r2, r0, #22
     340:	1000      	asrs	r0, r0, #32
     342:	1582      	asrs	r2, r0, #22
     344:	0003      	movs	r3, r0
     346:	e150      	b.n	0x5ea
     348:	2004      	movs	r0, #4
     34a:	e282      	b.n	0x852
     34c:	fff8 1aff 			; <UNDEFINED> instruction: 0xfff81aff
     350:	c010      	stmia	r0!, {r4}
     352:	e28c      	b.n	0x86e
     354:	000c      	movs	r4, r1
     356:	e154      	b.n	0x602
     358:	0004      	movs	r4, r0
     35a:	e280      	b.n	0x85e
     35c:	fff2 1aff 			; <UNDEFINED> instruction: 0xfff21aff
     360:	c001      	stmia	r0!, {r0}
     362:	e3a0      	b.n	0xaa6
     364:	0000      	movs	r0, r0
     366:	e3a0      	b.n	0xaaa
     368:	300c      	adds	r0, #12
     36a:	e1a0      	b.n	0x6ae
     36c:	1070      	asrs	r0, r6, #1
     36e:	e59d      	b.n	0xfffffeac
     370:	20b0      	movs	r0, #176	; 0xb0
     372:	e28d      	b.n	0x890
     374:	2103      	movs	r1, #3
     376:	e082      	b.n	0x47e
     378:	2040      	movs	r0, #64	; 0x40
     37a:	e512      	b.n	0xfffffda2
     37c:	3001      	adds	r0, #1
     37e:	e283      	b.n	0x888
     380:	0001      	movs	r1, r0
     382:	e152      	b.n	0x62a
     384:	0001      	movs	r1, r0
     386:	b280      	uxth	r0, r0
     388:	0010      	movs	r0, r2
     38a:	e353      	b.n	0xa34
     38c:	fff7 1aff 			; <UNDEFINED> instruction: 0xfff71aff
     390:	3001      	adds	r0, #1
     392:	e28c      	b.n	0x8ae
     394:	0010      	movs	r0, r2
     396:	e353      	b.n	0xa40
     398:	0004      	movs	r4, r0
     39a:	0a00      	lsrs	r0, r0, #8
     39c:	20b0      	movs	r0, #176	; 0xb0
     39e:	e28d      	b.n	0x8bc
     3a0:	210c      	movs	r1, #12
     3a2:	e082      	b.n	0x4aa
     3a4:	1040      	asrs	r0, r0, #1
     3a6:	e512      	b.n	0xfffffdce
     3a8:	c003      	stmia	r0!, {r0, r1}
     3aa:	e1a0      	b.n	0x6ee
     3ac:	ffef eaff 			; <UNDEFINED> instruction: 0xffefeaff
     3b0:	1029      	asrs	r1, r5, #32
     3b2:	e5dd      	b.n	0xffffff70
     3b4:	302a      	adds	r0, #42	; 0x2a
     3b6:	e5dd      	b.n	0xffffff74
     3b8:	1006      	asrs	r6, r0, #32
     3ba:	e261      	b.n	0x880
     3bc:	1003      	asrs	r3, r0, #32
     3be:	e041      	b.n	0x444
     3c0:	0000      	movs	r0, r0
     3c2:	e081      	b.n	0x4c8
     3c4:	1000      	asrs	r0, r0, #32
     3c6:	e1e0      	b.n	0x78a
     3c8:	0001      	movs	r1, r0
     3ca:	e201      	b.n	0x7d0
     3cc:	ff95 ebff 			; <UNDEFINED> instruction: 0xff95ebff
     3d0:	0970      	lsrs	r0, r6, #5
     3d2:	e59f      	b.n	0xffffff14
     3d4:	037f      	lsls	r7, r7, #13
     3d6:	eb00 3000 	add.w	r0, r0, r0, lsl #12
     3da:	e3a0      	b.n	0xb1e
     3dc:	8000      	strh	r0, [r0, #0]
     3de:	e1a0      	b.n	0x722
     3e0:	9702      	str	r7, [sp, #8]
     3e2:	e280      	b.n	0x8e6
     3e4:	2bff      	cmp	r3, #255	; 0xff
     3e6:	e280      	b.n	0x8ea
     3e8:	1003      	asrs	r3, r0, #32
     3ea:	e1a0      	b.n	0x72e
     3ec:	3004      	adds	r0, #4
     3ee:	e589      	b.n	0xffffff04
     3f0:	3008      	adds	r0, #8
     3f2:	e589      	b.n	0xffffff08
     3f4:	2fff      	cmp	r7, #255	; 0xff
     3f6:	e282      	b.n	0x8fe
     3f8:	3004      	adds	r0, #4
     3fa:	e240      	b.n	0x87e
     3fc:	1004      	asrs	r4, r0, #32
     3fe:	e5a3      	b.n	0xffffff48
     400:	0003      	movs	r3, r0
     402:	e152      	b.n	0x6aa
     404:	fffc 1aff 			; <UNDEFINED> instruction: 0xfffc1aff
     408:	2000      	movs	r0, #0
     40a:	e3a0      	b.n	0xb4e
     40c:	1028      	asrs	r0, r5, #32
     40e:	e28d      	b.n	0x92c
     410:	0008      	movs	r0, r1
     412:	e1a0      	b.n	0x756
     414:	10c1      	asrs	r1, r0, #3
     416:	eb00 3000 	add.w	r0, r0, r0, lsl #12
     41a:	e3e0      	b.n	0xbde
     41c:	4004      	ands	r4, r0
     41e:	e599      	b.n	0xffffff54
     420:	2924      	cmp	r1, #36	; 0x24
     422:	e59f      	b.n	0xffffff64
     424:	0000      	movs	r0, r0
     426:	e354      	b.n	0xad2
     428:	3000      	adds	r0, #0
     42a:	e582      	b.n	0xffffff32
     42c:	014f      	lsls	r7, r1, #5
     42e:	0a00      	lsrs	r0, r0, #8
     430:	3000      	adds	r0, #0
     432:	e3a0      	b.n	0xb76
     434:	3004      	adds	r0, #4
     436:	e58d      	b.n	0xffffff54
     438:	3701      	adds	r7, #1
     43a:	e288      	b.n	0x94e
     43c:	301c      	adds	r0, #28
     43e:	e58d      	b.n	0xffffff5c
     440:	301c      	adds	r0, #28
     442:	e59d      	b.n	0xffffff80
     444:	1004      	asrs	r4, r0, #32
     446:	e593      	b.n	0xffffff70
     448:	2000      	movs	r0, #0
     44a:	e59d      	b.n	0xffffff88
     44c:	3001      	adds	r0, #1
     44e:	e1a0      	b.n	0x792
     450:	7002      	strb	r2, [r0, #0]
     452:	e1a0      	b.n	0x796
     454:	0000      	movs	r0, r0
     456:	e5d1      	b.n	0xfffffffc
     458:	0010      	movs	r0, r2
     45a:	e58d      	b.n	0xffffff78
     45c:	0001      	movs	r1, r0
     45e:	e5d1      	b.n	0x4
     460:	0008      	movs	r0, r1
     462:	e58d      	b.n	0xffffff80
     464:	0002      	movs	r2, r0
     466:	e5d1      	b.n	0xc
     468:	000c      	movs	r4, r1
     46a:	e58d      	b.n	0xffffff88
     46c:	00d3      	lsls	r3, r2, #3
     46e:	e1d1      	b.n	0x814
     470:	0020      	movs	r0, r4
     472:	e58d      	b.n	0xffffff90
     474:	0000      	movs	r0, r0
     476:	e591      	b.n	0xffffff9c
     478:	1014      	asrs	r4, r2, #32
     47a:	e591      	b.n	0xffffffa0
     47c:	0018      	movs	r0, r3
     47e:	e58d      	b.n	0xffffff9c
     480:	1014      	asrs	r4, r2, #32
     482:	e58d      	b.n	0xffffffa0
     484:	c010      	stmia	r0!, {r4}
     486:	e283      	b.n	0x990
     488:	0004      	movs	r4, r0
     48a:	e5d3      	b.n	0x34
     48c:	1005      	asrs	r5, r0, #32
     48e:	e5d3      	b.n	0x38
     490:	0004      	movs	r4, r0
     492:	e5c2      	b.n	0x1a
     494:	1005      	asrs	r5, r0, #32
     496:	e5c2      	b.n	0x1e
     498:	0006      	movs	r6, r0
     49a:	e5d3      	b.n	0x44
     49c:	1007      	asrs	r7, r0, #32
     49e:	e5d3      	b.n	0x48
     4a0:	3004      	adds	r0, #4
     4a2:	e283      	b.n	0x9ac
     4a4:	000c      	movs	r4, r1
     4a6:	e153      	b.n	0x750
     4a8:	0006      	movs	r6, r0
     4aa:	e5c2      	b.n	0x32
     4ac:	1007      	asrs	r7, r0, #32
     4ae:	e5c2      	b.n	0x36
     4b0:	2004      	movs	r0, #4
     4b2:	e282      	b.n	0x9ba
     4b4:	fff3 1aff 			; <UNDEFINED> instruction: 0xfff31aff
     4b8:	0001      	movs	r1, r0
     4ba:	e354      	b.n	0xb66
     4bc:	3000      	adds	r0, #0
     4be:	03a0      	lsls	r0, r4, #14
     4c0:	3004      	adds	r0, #4
     4c2:	0589      	lsls	r1, r1, #22
     4c4:	0033      	movs	r3, r6
     4c6:	0a00      	lsrs	r0, r0, #8
     4c8:	0001      	movs	r1, r0
     4ca:	c3a0      	stmia	r3!, {r5, r7}
     4cc:	0000      	movs	r0, r0
     4ce:	d3a0      	bcc.n	0x412
     4d0:	4801      	ldr	r0, [pc, #4]	; (0x4d8)
     4d2:	e284      	b.n	0x9de
     4d4:	ff53 ebff 	vqrdmlah.s16	q15, <illegal reg q9.5>, <illegal reg q15.5>
     4d8:	3104      	adds	r1, #4
     4da:	e798      	b.n	0x40e
     4dc:	201c      	movs	r0, #28
     4de:	e59d      	b.n	0x1c
     4e0:	3004      	adds	r0, #4
     4e2:	e582      	b.n	0xffffffea
     4e4:	2001      	movs	r0, #1
     4e6:	e3a0      	b.n	0xc2a
     4e8:	201c      	movs	r0, #28
     4ea:	e583      	b.n	0xfffffff4
     4ec:	2004      	movs	r0, #4
     4ee:	e599      	b.n	0x24
     4f0:	2001      	movs	r0, #1
     4f2:	e242      	b.n	0x97a
     4f4:	2004      	movs	r0, #4
     4f6:	e589      	b.n	0xc
     4f8:	6001      	str	r1, [r0, #0]
     4fa:	e3a0      	b.n	0xc3e
     4fc:	7024      	strb	r4, [r4, #0]
     4fe:	e58d      	b.n	0x1c
     500:	000a      	movs	r2, r1
     502:	ea00 000e 	and.w	r0, r0, lr
     506:	e15c      	b.n	0x7c2
     508:	0021      	movs	r1, r4
     50a:	ba00      	rev	r0, r0
     50c:	0001      	movs	r1, r0
     50e:	e3a0      	b.n	0xc52
     510:	ff44 ebff 	vqrdmlah.s<illegal width 8>	q15, q10, <illegal reg q15.5>
     514:	a004      	add	r0, pc, #16	; (adr r0, 0x528)
     516:	e585      	b.n	0x24
     518:	b000      	add	sp, #0
     51a:	e584      	b.n	0x26
     51c:	601c      	str	r4, [r3, #0]
     51e:	e58b      	b.n	0x38
     520:	6007      	str	r7, [r0, #0]
     522:	e1a0      	b.n	0x866
     524:	3004      	adds	r0, #4
     526:	e595      	b.n	0x54
     528:	701c      	strb	r4, [r3, #0]
     52a:	e583      	b.n	0x34
     52c:	2004      	movs	r0, #4
     52e:	e599      	b.n	0x64
     530:	3086      	adds	r0, #134	; 0x86
     532:	e1a0      	b.n	0x876
     534:	4106      	asrs	r6, r0
     536:	e088      	b.n	0x64a
     538:	5186      	str	r6, [r0, r6]
     53a:	e088      	b.n	0x64e
     53c:	0002      	movs	r2, r0
     53e:	e153      	b.n	0x7e8
     540:	5701      	ldrsb	r1, [r0, r4]
     542:	e285      	b.n	0xa50
     544:	4701      	bx	r0
     546:	e284      	b.n	0xa52
     548:	010b      	lsls	r3, r1, #4
     54a:	aa00      	add	r2, sp, #0
     54c:	a000      	add	r0, pc, #0	; (adr r0, 0x550)
     54e:	e594      	b.n	0x7a
     550:	2000      	movs	r0, #0
     552:	e595      	b.n	0x80
     554:	c024      	stmia	r0!, {r2, r5}
     556:	e59a      	b.n	0x8e
     558:	0024      	movs	r4, r4
     55a:	e592      	b.n	0x82
     55c:	b004      	add	sp, #16
     55e:	e595      	b.n	0x8c
     560:	0000      	movs	r0, r0
     562:	e15c      	b.n	0x81e
     564:	e024      	b.n	0x5b0
     566:	e59b      	b.n	0xa0
     568:	7001      	strb	r1, [r0, #0]
     56a:	e283      	b.n	0xa74
     56c:	ffe4 baff 			; <UNDEFINED> instruction: 0xffe4baff
     570:	000e      	movs	r6, r1
     572:	e150      	b.n	0x816
     574:	ffe4 aaff 			; <UNDEFINED> instruction: 0xffe4aaff
     578:	a000      	add	r0, pc, #0	; (adr r0, 0x57c)
     57a:	e585      	b.n	0x88
     57c:	2000      	movs	r0, #0
     57e:	e584      	b.n	0x8a
     580:	601c      	str	r4, [r3, #0]
     582:	e582      	b.n	0x8a
     584:	2000      	movs	r0, #0
     586:	e595      	b.n	0xb4
     588:	6003      	str	r3, [r0, #0]
     58a:	e1a0      	b.n	0x8ce
     58c:	301c      	adds	r0, #28
     58e:	e582      	b.n	0x96
     590:	ffe5 eaff 			; <UNDEFINED> instruction: 0xffe5eaff
     594:	7024      	strb	r4, [r4, #0]
     596:	e59d      	b.n	0xd4
     598:	4040      	eors	r0, r0
     59a:	e28d      	b.n	0xab8
     59c:	3004      	adds	r0, #4
     59e:	e1a0      	b.n	0x8e2
     5a0:	2018      	movs	r0, #24
     5a2:	e59d      	b.n	0xe0
     5a4:	2040      	movs	r0, #64	; 0x40
     5a6:	e58d      	b.n	0xc4
     5a8:	2014      	movs	r0, #20
     5aa:	e59d      	b.n	0xe8
     5ac:	2054      	movs	r0, #84	; 0x54
     5ae:	e58d      	b.n	0xcc
     5b0:	2000      	movs	r0, #0
     5b2:	e59d      	b.n	0xf0
     5b4:	0010      	movs	r0, r2
     5b6:	e282      	b.n	0xabe
     5b8:	1004      	asrs	r4, r0, #32
     5ba:	e5d7      	b.n	0x16c
     5bc:	2005      	movs	r0, #5
     5be:	e5d7      	b.n	0x170
     5c0:	1004      	asrs	r4, r0, #32
     5c2:	e5c3      	b.n	0x14c
     5c4:	2005      	movs	r0, #5
     5c6:	e5c3      	b.n	0x150
     5c8:	1006      	asrs	r6, r0, #32
     5ca:	e5d7      	b.n	0x17c
     5cc:	2007      	movs	r0, #7
     5ce:	e5d7      	b.n	0x180
     5d0:	7004      	strb	r4, [r0, #0]
     5d2:	e287      	b.n	0xae4
     5d4:	0007      	movs	r7, r0
     5d6:	e150      	b.n	0x87a
     5d8:	1006      	asrs	r6, r0, #32
     5da:	e5c3      	b.n	0x164
     5dc:	2007      	movs	r0, #7
     5de:	e5c3      	b.n	0x168
     5e0:	3004      	adds	r0, #4
     5e2:	e283      	b.n	0xaec
     5e4:	fff3 1aff 			; <UNDEFINED> instruction: 0xfff31aff
     5e8:	3000      	adds	r0, #0
     5ea:	e3a0      	b.n	0xd2e
     5ec:	1004      	asrs	r4, r0, #32
     5ee:	e59d      	b.n	0x12c
     5f0:	1001      	asrs	r1, r0, #32
     5f2:	e281      	b.n	0xaf8
     5f4:	2000      	movs	r0, #0
     5f6:	e59d      	b.n	0x134
     5f8:	1004      	asrs	r4, r0, #32
     5fa:	e58d      	b.n	0x118
     5fc:	3001      	adds	r0, #1
     5fe:	e283      	b.n	0xb08
     600:	000f      	movs	r7, r1
     602:	e353      	b.n	0xcac
     604:	3004      	adds	r0, #4
     606:	e482      	b.n	0xffffff0e
     608:	fffb 1aff 			; <UNDEFINED> instruction: 0xfffb1aff
     60c:	3000      	adds	r0, #0
     60e:	e3a0      	b.n	0xd52
     610:	1000      	asrs	r0, r0, #32
     612:	e59d      	b.n	0x150
     614:	0058      	lsls	r0, r3, #1
     616:	e28d      	b.n	0xb34
     618:	30ac      	adds	r0, #172	; 0xac
     61a:	e58d      	b.n	0x138
     61c:	0fb1      	lsrs	r1, r6, #30
     61e:	eb00 1058 	add.w	r0, r0, r8, lsr #5
     622:	e28d      	b.n	0xb40
     624:	0040      	lsls	r0, r0, #1
     626:	e28d      	b.n	0xb44
     628:	1006      	asrs	r6, r0, #32
     62a:	eb00 0000 	add.w	r0, r0, r0
     62e:	e350      	b.n	0xcd2
     630:	01b4      	lsls	r4, r6, #6
     632:	1a00      	subs	r0, r0, r0
     634:	3010      	adds	r0, #16
     636:	e59d      	b.n	0x174
     638:	0000      	movs	r0, r0
     63a:	e353      	b.n	0xce4
     63c:	00c6      	lsls	r6, r0, #3
     63e:	0a00      	lsrs	r0, r0, #8
     640:	300c      	adds	r0, #12
     642:	e59d      	b.n	0x180
     644:	0003      	movs	r3, r0
     646:	e353      	b.n	0xcf0
     648:	00dc      	lsls	r4, r3, #3
     64a:	0a00      	lsrs	r0, r0, #8
     64c:	2000      	movs	r0, #0
     64e:	e59d      	b.n	0x18c
     650:	e002      	b.n	0x658
     652:	e1a0      	b.n	0x996
     654:	3040      	adds	r0, #64	; 0x40
     656:	e28d      	b.n	0xb74
     658:	5050      	str	r0, [r2, r1]
     65a:	e28d      	b.n	0xb78
     65c:	0004      	movs	r4, r0
     65e:	e5d3      	b.n	0x208
     660:	1005      	asrs	r5, r0, #32
     662:	e5d3      	b.n	0x20c
     664:	0004      	movs	r4, r0
     666:	e5c2      	b.n	0x1ee
     668:	1005      	asrs	r5, r0, #32
     66a:	e5c2      	b.n	0x1f2
     66c:	0006      	movs	r6, r0
     66e:	e5d3      	b.n	0x218
     670:	1007      	asrs	r7, r0, #32
     672:	e5d3      	b.n	0x21c
     674:	3004      	adds	r0, #4
     676:	e283      	b.n	0xb80
     678:	0003      	movs	r3, r0
     67a:	e155      	b.n	0x928
     67c:	0006      	movs	r6, r0
     67e:	e5c2      	b.n	0x206
     680:	1007      	asrs	r7, r0, #32
     682:	e5c2      	b.n	0x20a
     684:	2004      	movs	r0, #4
     686:	e282      	b.n	0xb8e
     688:	fff3 1aff 			; <UNDEFINED> instruction: 0xfff31aff
     68c:	3008      	adds	r0, #8
     68e:	e59d      	b.n	0x1cc
     690:	c00c      	stmia	r0!, {r2, r3}
     692:	e59d      	b.n	0x1d0
     694:	b103      	cbz	r3, 0x698
     696:	e1a0      	b.n	0x9da
     698:	30b0      	adds	r0, #176	; 0xb0
     69a:	e28d      	b.n	0xbb8
     69c:	7001      	strb	r1, [r0, #0]
     69e:	e28c      	b.n	0xbba
     6a0:	200b      	movs	r0, #11
     6a2:	e083      	b.n	0x7ac
     6a4:	3007      	adds	r0, #7
     6a6:	e082      	b.n	0x7ae
     6a8:	16dc      	asrs	r4, r3, #27
     6aa:	e153      	b.n	0x954
     6ac:	0001      	movs	r1, r0
     6ae:	e241      	b.n	0xb34
     6b0:	3000      	adds	r0, #0
     6b2:	e270      	b.n	0xb96
     6b4:	3003      	adds	r0, #3
     6b6:	e203      	b.n	0xac0
     6b8:	0003      	movs	r3, r0
     6ba:	e200      	b.n	0xabe
     6bc:	0000      	movs	r0, r0
     6be:	5263      	strh	r3, [r4, r1]
     6c0:	600c      	str	r4, [r1, #0]
     6c2:	e040      	b.n	0x746
     6c4:	0000      	movs	r0, r0
     6c6:	e356      	b.n	0xd76
     6c8:	0007      	movs	r7, r0
     6ca:	e040      	b.n	0x74e
     6cc:	6000      	str	r0, [r0, #0]
     6ce:	b266      	sxtb	r6, r4
     6d0:	0000      	movs	r0, r0
     6d2:	e350      	b.n	0xd76
     6d4:	0000      	movs	r0, r0
     6d6:	b260      	sxtb	r0, r4
     6d8:	6000      	str	r0, [r0, #0]
     6da:	e046      	b.n	0x76a
     6dc:	000c      	movs	r4, r1
     6de:	e082      	b.n	0x7e6
     6e0:	103c      	asrs	r4, r7, #32
     6e2:	e540      	b.n	0x166
     6e4:	1000      	asrs	r0, r0, #32
     6e6:	e3a0      	b.n	0xe2a
     6e8:	3000      	adds	r0, #0
     6ea:	e3a0      	b.n	0xe2e
     6ec:	70ff      	strb	r7, [r7, #3]
     6ee:	e207      	b.n	0xb00
     6f0:	c020      	stmia	r0!, {r5}
     6f2:	e59d      	b.n	0x230
     6f4:	2007      	movs	r0, #7
     6f6:	e082      	b.n	0x7fe
     6f8:	600c      	str	r4, [r1, #0]
     6fa:	e086      	b.n	0x80a
     6fc:	103c      	asrs	r4, r7, #32
     6fe:	e542      	b.n	0x186
     700:	2000      	movs	r0, #0
     702:	e59d      	b.n	0x240
     704:	6c06      	ldr	r6, [r0, #64]	; 0x40
     706:	e1a0      	b.n	0xa4a
     708:	6c46      	ldr	r6, [r0, #68]	; 0x44
     70a:	e1a0      	b.n	0xa4e
     70c:	0008      	movs	r0, r1
     70e:	e282      	b.n	0xc16
     710:	a018      	add	r0, pc, #96	; (adr r0, 0x774)
     712:	e282      	b.n	0xc1a
     714:	1004      	asrs	r4, r0, #32
     716:	e240      	b.n	0xb9a
     718:	2183      	movs	r1, #131	; 0x83
     71a:	e063      	b.n	0x7e4
     71c:	2102      	movs	r1, #2
     71e:	e083      	b.n	0x828
     720:	c0d1      	stmia	r0!, {r0, r4, r6, r7}
     722:	e0d1      	b.n	0x8c8
     724:	2202      	movs	r2, #2
     726:	e082      	b.n	0x82e
     728:	2102      	movs	r1, #2
     72a:	e083      	b.n	0x834
     72c:	0001      	movs	r1, r0
     72e:	e150      	b.n	0x9d2
     730:	300c      	adds	r0, #12
     732:	e082      	b.n	0x83a
     734:	fff7 1aff 			; <UNDEFINED> instruction: 0xfff71aff
     738:	0004      	movs	r4, r0
     73a:	e280      	b.n	0xc3e
     73c:	0000      	movs	r0, r0
     73e:	e15a      	b.n	0x9f6
     740:	fff3 1aff 			; <UNDEFINED> instruction: 0xfff31aff
     744:	1001      	asrs	r1, r0, #32
     746:	e3a0      	b.n	0xe8a
     748:	1058      	asrs	r0, r3, #1
     74a:	e5cd      	b.n	0x2e8
     74c:	1008      	asrs	r0, r1, #32
     74e:	e59d      	b.n	0x28c
     750:	306c      	adds	r0, #108	; 0x6c
     752:	e58d      	b.n	0x270
     754:	3000      	adds	r0, #0
     756:	e59d      	b.n	0x294
     758:	1059      	asrs	r1, r3, #1
     75a:	e5cd      	b.n	0x2f8
     75c:	705a      	strb	r2, [r3, #1]
     75e:	e5cd      	b.n	0x2fc
     760:	605b      	str	r3, [r3, #4]
     762:	e5cd      	b.n	0x300
     764:	2058      	movs	r0, #88	; 0x58
     766:	e28d      	b.n	0xc84
     768:	0010      	movs	r0, r2
     76a:	e283      	b.n	0xc74
     76c:	1004      	asrs	r4, r0, #32
     76e:	e5de      	b.n	0x32e
     770:	3005      	adds	r0, #5
     772:	e5de      	b.n	0x332
     774:	1004      	asrs	r4, r0, #32
     776:	e5c2      	b.n	0x2fe
     778:	3005      	adds	r0, #5
     77a:	e5c2      	b.n	0x302
     77c:	1006      	asrs	r6, r0, #32
     77e:	e5de      	b.n	0x33e
     780:	3007      	adds	r0, #7
     782:	e5de      	b.n	0x342
     784:	e004      	b.n	0x790
     786:	e28e      	b.n	0xca6
     788:	000e      	movs	r6, r1
     78a:	e150      	b.n	0xa2e
     78c:	1006      	asrs	r6, r0, #32
     78e:	e5c2      	b.n	0x316
     790:	3007      	adds	r0, #7
     792:	e5c2      	b.n	0x31a
     794:	2004      	movs	r0, #4
     796:	e282      	b.n	0xc9e
     798:	fff3 1aff 			; <UNDEFINED> instruction: 0xfff31aff
     79c:	1040      	asrs	r0, r0, #1
     79e:	e28d      	b.n	0xcbc
     7a0:	0008      	movs	r0, r1
     7a2:	e1a0      	b.n	0xae6
     7a4:	0fc9      	lsrs	r1, r1, #31
     7a6:	eb00 0000 	add.w	r0, r0, r0
     7aa:	e350      	b.n	0xe4e
     7ac:	2020      	movs	r0, #32
     7ae:	1590      	asrs	r0, r2, #22
     7b0:	2102      	movs	r1, #2
     7b2:	03a0      	lsls	r0, r4, #14
     7b4:	2001      	movs	r0, #1
     7b6:	1282      	asrs	r2, r0, #10
     7b8:	1058      	asrs	r0, r3, #1
     7ba:	e28d      	b.n	0xcd8
     7bc:	0008      	movs	r0, r1
     7be:	e1a0      	b.n	0xb02
     7c0:	0fd6      	lsrs	r6, r2, #31
     7c2:	eb00 300c 	add.w	r0, r0, ip, lsl #12
     7c6:	e59d      	b.n	0x304
     7c8:	0000      	movs	r0, r0
     7ca:	e353      	b.n	0xe74
     7cc:	007e      	lsls	r6, r7, #1
     7ce:	1a00      	subs	r0, r0, r0
     7d0:	3008      	adds	r0, #8
     7d2:	e59d      	b.n	0x310
     7d4:	0003      	movs	r3, r0
     7d6:	e353      	b.n	0xe80
     7d8:	00d8      	lsls	r0, r3, #3
     7da:	0a00      	lsrs	r0, r0, #8
     7dc:	2000      	movs	r0, #0
     7de:	e59d      	b.n	0x31c
     7e0:	c002      	stmia	r0!, {r1}
     7e2:	e1a0      	b.n	0xb26
     7e4:	3040      	adds	r0, #64	; 0x40
     7e6:	e28d      	b.n	0xd04
     7e8:	0004      	movs	r4, r0
     7ea:	e5d3      	b.n	0x394
     7ec:	1005      	asrs	r5, r0, #32
     7ee:	e5d3      	b.n	0x398
     7f0:	0004      	movs	r4, r0
     7f2:	e5c2      	b.n	0x37a
     7f4:	1005      	asrs	r5, r0, #32
     7f6:	e5c2      	b.n	0x37e
     7f8:	0006      	movs	r6, r0
     7fa:	e5d3      	b.n	0x3a4
     7fc:	1007      	asrs	r7, r0, #32
     7fe:	e5d3      	b.n	0x3a8
     800:	3004      	adds	r0, #4
     802:	e283      	b.n	0xd0c
     804:	0005      	movs	r5, r0
     806:	e153      	b.n	0xab0
     808:	0006      	movs	r6, r0
     80a:	e5c2      	b.n	0x392
     80c:	1007      	asrs	r7, r0, #32
     80e:	e5c2      	b.n	0x396
     810:	2004      	movs	r0, #4
     812:	e282      	b.n	0xd1a
     814:	fff3 1aff 			; <UNDEFINED> instruction: 0xfff31aff
     818:	1008      	asrs	r0, r1, #32
     81a:	e59d      	b.n	0x358
     81c:	e00c      	b.n	0x838
     81e:	e59d      	b.n	0x35c
     820:	7001      	strb	r1, [r0, #0]
     822:	e281      	b.n	0xd28
     824:	30b0      	adds	r0, #176	; 0xb0
     826:	e28d      	b.n	0xd44
     828:	3107      	adds	r1, #7
     82a:	e083      	b.n	0x934
     82c:	300e      	adds	r0, #14
     82e:	e083      	b.n	0x938
     830:	06dc      	lsls	r4, r3, #27
     832:	e153      	b.n	0xadc
     834:	6001      	str	r1, [r0, #0]
     836:	e250      	b.n	0xcda
     838:	6002      	str	r2, [r0, #0]
     83a:	4280      	cmp	r0, r0
     83c:	6146      	str	r6, [r0, #20]
     83e:	e1a0      	b.n	0xb82
     840:	2007      	movs	r0, #7
     842:	e046      	b.n	0x8d2
     844:	0000      	movs	r0, r0
     846:	e352      	b.n	0xeee
     848:	6001      	str	r1, [r0, #0]
     84a:	e046      	b.n	0x8da
     84c:	2000      	movs	r0, #0
     84e:	b262      	sxtb	r2, r4
     850:	0000      	movs	r0, r0
     852:	e356      	b.n	0xf02
     854:	6000      	str	r0, [r0, #0]
     856:	b266      	sxtb	r6, r4
     858:	6002      	str	r2, [r0, #0]
     85a:	e046      	b.n	0x8ea
     85c:	70ff      	strb	r7, [r7, #3]
     85e:	e207      	b.n	0xc70
     860:	20b0      	movs	r0, #176	; 0xb0
     862:	e28d      	b.n	0xd80
     864:	1107      	asrs	r7, r0, #4
     866:	e082      	b.n	0x96e
     868:	200b      	movs	r0, #11
     86a:	e082      	b.n	0x972
     86c:	200e      	movs	r0, #14
     86e:	e082      	b.n	0x976
     870:	003c      	movs	r4, r7
     872:	e542      	b.n	0x2fa
     874:	2000      	movs	r0, #0
     876:	e3a0      	b.n	0xfba
     878:	3000      	adds	r0, #0
     87a:	e3a0      	b.n	0xfbe
     87c:	a020      	add	r0, pc, #128	; (adr r0, 0x900)
     87e:	e59d      	b.n	0x3bc
     880:	100e      	asrs	r6, r1, #32
     882:	e081      	b.n	0x988
     884:	600a      	str	r2, [r1, #0]
     886:	e086      	b.n	0x996
     888:	203c      	movs	r0, #60	; 0x3c
     88a:	e541      	b.n	0x310
     88c:	2000      	movs	r0, #0
     88e:	e59d      	b.n	0x3cc
     890:	6c06      	ldr	r6, [r0, #64]	; 0x40
     892:	e1a0      	b.n	0xbd6
     894:	6c46      	ldr	r6, [r0, #68]	; 0x44
     896:	e1a0      	b.n	0xbda
     898:	e008      	b.n	0x8ac
     89a:	e282      	b.n	0xda2
     89c:	a018      	add	r0, pc, #96	; (adr r0, 0x900)
     89e:	e282      	b.n	0xda6
     8a0:	1004      	asrs	r4, r0, #32
     8a2:	e24e      	b.n	0xd42
     8a4:	2183      	movs	r1, #131	; 0x83
     8a6:	e063      	b.n	0x970
     8a8:	2102      	movs	r1, #2
     8aa:	e083      	b.n	0x9b4
     8ac:	00d1      	lsls	r1, r2, #3
     8ae:	e0d1      	b.n	0xa54
     8b0:	2202      	movs	r2, #2
     8b2:	e082      	b.n	0x9ba
     8b4:	2102      	movs	r1, #2
     8b6:	e083      	b.n	0x9c0
     8b8:	000e      	movs	r6, r1
     8ba:	e151      	b.n	0xb60
     8bc:	3000      	adds	r0, #0
     8be:	e082      	b.n	0x9c6
     8c0:	fff7 1aff 			; <UNDEFINED> instruction: 0xfff71aff
     8c4:	e004      	b.n	0x8d0
     8c6:	e281      	b.n	0xdcc
     8c8:	000a      	movs	r2, r1
     8ca:	e15e      	b.n	0xb8a
     8cc:	fff3 1aff 			; <UNDEFINED> instruction: 0xfff31aff
     8d0:	1001      	asrs	r1, r0, #32
     8d2:	e3a0      	b.n	0x1016
     8d4:	1058      	asrs	r0, r3, #1
     8d6:	e5cd      	b.n	0x474
     8d8:	100c      	asrs	r4, r1, #32
     8da:	e59d      	b.n	0x418
     8dc:	306c      	adds	r0, #108	; 0x6c
     8de:	e58d      	b.n	0x3fc
     8e0:	3000      	adds	r0, #0
     8e2:	e59d      	b.n	0x420
     8e4:	7059      	strb	r1, [r3, #1]
     8e6:	e5cd      	b.n	0x484
     8e8:	105a      	asrs	r2, r3, #1
     8ea:	e5cd      	b.n	0x488
     8ec:	605b      	str	r3, [r3, #4]
     8ee:	e5cd      	b.n	0x48c
     8f0:	2058      	movs	r0, #88	; 0x58
     8f2:	e28d      	b.n	0xe10
     8f4:	0010      	movs	r0, r2
     8f6:	e283      	b.n	0xe00
     8f8:	1004      	asrs	r4, r0, #32
     8fa:	e5dc      	b.n	0x4b6
     8fc:	3005      	adds	r0, #5
     8fe:	e5dc      	b.n	0x4ba
     900:	1004      	asrs	r4, r0, #32
     902:	e5c2      	b.n	0x48a
     904:	3005      	adds	r0, #5
     906:	e5c2      	b.n	0x48e
     908:	1006      	asrs	r6, r0, #32
     90a:	e5dc      	b.n	0x4c6
     90c:	3007      	adds	r0, #7
     90e:	e5dc      	b.n	0x4ca
     910:	c004      	stmia	r0!, {r2}
     912:	e28c      	b.n	0xe2e
     914:	000c      	movs	r4, r1
     916:	e150      	b.n	0xbba
     918:	1006      	asrs	r6, r0, #32
     91a:	e5c2      	b.n	0x4a2
     91c:	3007      	adds	r0, #7
     91e:	e5c2      	b.n	0x4a6
     920:	2004      	movs	r0, #4
     922:	e282      	b.n	0xe2a
     924:	fff3 1aff 			; <UNDEFINED> instruction: 0xfff31aff
     928:	1040      	asrs	r0, r0, #1
     92a:	e28d      	b.n	0xe48
     92c:	0008      	movs	r0, r1
     92e:	e1a0      	b.n	0xc72
     930:	0f66      	lsrs	r6, r4, #29
     932:	eb00 0000 	add.w	r0, r0, r0
     936:	e350      	b.n	0xfda
     938:	2020      	movs	r0, #32
     93a:	1590      	asrs	r0, r2, #22
     93c:	2102      	movs	r1, #2
     93e:	03a0      	lsls	r0, r4, #14
     940:	2001      	movs	r0, #1
     942:	1282      	asrs	r2, r0, #10
     944:	1058      	asrs	r0, r3, #1
     946:	e28d      	b.n	0xe64
     948:	0008      	movs	r0, r1
     94a:	e1a0      	b.n	0xc8e
     94c:	0f73      	lsrs	r3, r6, #29
     94e:	eb00 3008 	add.w	r0, r0, r8, lsl #12
     952:	e59d      	b.n	0x490
     954:	0000      	movs	r0, r0
     956:	e353      	b.n	0x1000
     958:	0078      	lsls	r0, r7, #1
     95a:	1a00      	subs	r0, r0, r0
     95c:	4004      	ands	r4, r0
     95e:	e599      	b.n	0x494
     960:	3004      	adds	r0, #4
     962:	e59d      	b.n	0x4a0
     964:	0801      	lsrs	r1, r0, #32
     966:	e353      	b.n	0x1010
     968:	0000      	movs	r0, r0
     96a:	1354      	asrs	r4, r2, #13
     96c:	feb3 1aff 			; <UNDEFINED> instruction: 0xfeb31aff
     970:	d0b4      	beq.n	0x8dc
     972:	e28d      	b.n	0xe90
     974:	4ff0      	ldr	r7, [pc, #960]	; (0xd38)
     976:	e8bd ff1e 	ldmia.w	sp!, {r1, r2, r3, r4, r8, r9, sl, fp, ip, sp, lr, pc}
     97a:	e12f      	b.n	0xbdc
     97c:	7024      	strb	r4, [r4, #0]
     97e:	e59d      	b.n	0x4bc
     980:	ff04 1aff 	vpmin.u8	<illegal reg q0.5>, q10, <illegal reg q15.5>
     984:	4186      	sbcs	r6, r0
     986:	e088      	b.n	0xa9a
     988:	3106      	adds	r1, #6
     98a:	e088      	b.n	0xa9e
     98c:	3701      	adds	r7, #1
     98e:	e283      	b.n	0xe98
     990:	4701      	bx	r0
     992:	e284      	b.n	0xe9e
     994:	1000      	asrs	r0, r0, #32
     996:	e594      	b.n	0x4c2
     998:	0000      	movs	r0, r0
     99a:	e593      	b.n	0x4c4
     99c:	e024      	b.n	0x9e8
     99e:	e591      	b.n	0x4c4
     9a0:	c024      	stmia	r0!, {r2, r5}
     9a2:	e590      	b.n	0x4c6
     9a4:	000c      	movs	r4, r1
     9a6:	e15e      	b.n	0xc66
     9a8:	0000      	movs	r0, r0
     9aa:	b584      	push	{r2, r7, lr}
     9ac:	1000      	asrs	r0, r0, #32
     9ae:	b583      	push	{r0, r1, r7, lr}
     9b0:	601c      	str	r4, [r3, #0]
     9b2:	b581      	push	{r0, r7, lr}
     9b4:	3000      	adds	r0, #0
     9b6:	b594      	push	{r2, r4, r7, lr}
     9b8:	201c      	movs	r0, #28
     9ba:	b583      	push	{r0, r1, r7, lr}
     9bc:	fef5 eaff 			; <UNDEFINED> instruction: 0xfef5eaff
     9c0:	3008      	adds	r0, #8
     9c2:	e59d      	b.n	0x500
     9c4:	5050      	str	r0, [r2, r1]
     9c6:	e28d      	b.n	0xee4
     9c8:	b103      	cbz	r3, 0x9cc
     9ca:	e1a0      	b.n	0xd0e
     9cc:	2000      	movs	r0, #0
     9ce:	e59d      	b.n	0x50c
     9d0:	e002      	b.n	0x9d8
     9d2:	e1a0      	b.n	0xd16
     9d4:	3040      	adds	r0, #64	; 0x40
     9d6:	e28d      	b.n	0xef4
     9d8:	0004      	movs	r4, r0
     9da:	e5d3      	b.n	0x584
     9dc:	1005      	asrs	r5, r0, #32
     9de:	e5d3      	b.n	0x588
     9e0:	0004      	movs	r4, r0
     9e2:	e5c2      	b.n	0x56a
     9e4:	1005      	asrs	r5, r0, #32
     9e6:	e5c2      	b.n	0x56e
     9e8:	0006      	movs	r6, r0
     9ea:	e5d3      	b.n	0x594
     9ec:	1007      	asrs	r7, r0, #32
     9ee:	e5d3      	b.n	0x598
     9f0:	3004      	adds	r0, #4
     9f2:	e283      	b.n	0xefc
     9f4:	0005      	movs	r5, r0
     9f6:	e153      	b.n	0xca0
     9f8:	0006      	movs	r6, r0
     9fa:	e5c2      	b.n	0x582
     9fc:	1007      	asrs	r7, r0, #32
     9fe:	e5c2      	b.n	0x586
     a00:	2004      	movs	r0, #4
     a02:	e282      	b.n	0xf0a
     a04:	fff3 1aff 			; <UNDEFINED> instruction: 0xfff31aff
     a08:	600c      	str	r4, [r1, #0]
     a0a:	e59d      	b.n	0x548
     a0c:	30b0      	adds	r0, #176	; 0xb0
     a0e:	e28d      	b.n	0xf2c
     a10:	1001      	asrs	r1, r0, #32
     a12:	e246      	b.n	0xea2
     a14:	000b      	movs	r3, r1
     a16:	e083      	b.n	0xb20
     a18:	7001      	strb	r1, [r0, #0]
     a1a:	e080      	b.n	0xb1e
     a1c:	a6dc      	add	r6, pc, #880	; (adr r6, 0xd90)
     a1e:	e157      	b.n	0xcd0
     a20:	2001      	movs	r0, #1
     a22:	e24a      	b.n	0xeba
     a24:	3000      	adds	r0, #0
     a26:	e272      	b.n	0xf0e
     a28:	3003      	adds	r0, #3
     a2a:	e203      	b.n	0xe34
     a2c:	2003      	movs	r0, #3
     a2e:	e202      	b.n	0xe36
     a30:	2000      	movs	r0, #0
     a32:	5263      	strh	r3, [r4, r1]
     a34:	c006      	stmia	r0!, {r1, r2}
     a36:	e042      	b.n	0xabe
     a38:	0000      	movs	r0, r0
     a3a:	e35c      	b.n	0x10f6
     a3c:	2001      	movs	r0, #1
     a3e:	e042      	b.n	0xac6
     a40:	c000      	stmia	r0!, {}
     a42:	b26c      	sxtb	r4, r5
     a44:	0000      	movs	r0, r0
     a46:	e352      	b.n	0x10ee
     a48:	2000      	movs	r0, #0
     a4a:	b262      	sxtb	r2, r4
     a4c:	2002      	movs	r0, #2
     a4e:	e04c      	b.n	0xaea
     a50:	c020      	stmia	r0!, {r5}
     a52:	e59d      	b.n	0x590
     a54:	200c      	movs	r0, #12
     a56:	e082      	b.n	0xb5e
     a58:	0006      	movs	r6, r0
     a5a:	e080      	b.n	0xb5e
     a5c:	6c02      	ldr	r2, [r0, #64]	; 0x40
     a5e:	e1a0      	b.n	0xda2
     a60:	2000      	movs	r0, #0
     a62:	e3a0      	b.n	0x11a6
     a64:	3000      	adds	r0, #0
     a66:	e3a0      	b.n	0x11aa
     a68:	a03c      	add	r0, pc, #240	; (adr r0, 0xb5c)
     a6a:	e540      	b.n	0x4ee
     a6c:	203c      	movs	r0, #60	; 0x3c
     a6e:	e547      	b.n	0x500
     a70:	2000      	movs	r0, #0
     a72:	e59d      	b.n	0x5b0
     a74:	6c46      	ldr	r6, [r0, #68]	; 0x44
     a76:	e1a0      	b.n	0xdba
     a78:	a0ff      	add	r0, pc, #1020	; (adr r0, 0xe78)
     a7a:	e201      	b.n	0xe80
     a7c:	0008      	movs	r0, r1
     a7e:	e282      	b.n	0xf86
     a80:	7018      	strb	r0, [r3, #0]
     a82:	e282      	b.n	0xf8a
     a84:	1004      	asrs	r4, r0, #32
     a86:	e240      	b.n	0xf0a
     a88:	2183      	movs	r1, #131	; 0x83
     a8a:	e063      	b.n	0xb54
     a8c:	2102      	movs	r1, #2
     a8e:	e083      	b.n	0xb98
     a90:	c0d1      	stmia	r0!, {r0, r4, r6, r7}
     a92:	e0d1      	b.n	0xc38
     a94:	2202      	movs	r2, #2
     a96:	e082      	b.n	0xb9e
     a98:	2102      	movs	r1, #2
     a9a:	e083      	b.n	0xba4
     a9c:	0001      	movs	r1, r0
     a9e:	e150      	b.n	0xd42
     aa0:	300c      	adds	r0, #12
     aa2:	e082      	b.n	0xbaa
     aa4:	fff7 1aff 			; <UNDEFINED> instruction: 0xfff71aff
     aa8:	0004      	movs	r4, r0
     aaa:	e280      	b.n	0xfae
     aac:	0000      	movs	r0, r0
     aae:	e157      	b.n	0xd60
     ab0:	fff3 1aff 			; <UNDEFINED> instruction: 0xfff31aff
     ab4:	1001      	asrs	r1, r0, #32
     ab6:	e3a0      	b.n	0x11fa
     ab8:	1058      	asrs	r0, r3, #1
     aba:	e5cd      	b.n	0x658
     abc:	1008      	asrs	r0, r1, #32
     abe:	e59d      	b.n	0x5fc
     ac0:	306c      	adds	r0, #108	; 0x6c
     ac2:	e58d      	b.n	0x5e0
     ac4:	3000      	adds	r0, #0
     ac6:	e59d      	b.n	0x604
     ac8:	1059      	asrs	r1, r3, #1
     aca:	e5cd      	b.n	0x668
     acc:	a05a      	add	r0, pc, #360	; (adr r0, 0xc38)
     ace:	e5cd      	b.n	0x66c
     ad0:	605b      	str	r3, [r3, #4]
     ad2:	e5cd      	b.n	0x670
     ad4:	2058      	movs	r0, #88	; 0x58
     ad6:	e28d      	b.n	0xff4
     ad8:	0010      	movs	r0, r2
     ada:	e283      	b.n	0xfe4
     adc:	1004      	asrs	r4, r0, #32
     ade:	e5de      	b.n	0x69e
     ae0:	3005      	adds	r0, #5
     ae2:	e5de      	b.n	0x6a2
     ae4:	1004      	asrs	r4, r0, #32
     ae6:	e5c2      	b.n	0x66e
     ae8:	3005      	adds	r0, #5
     aea:	e5c2      	b.n	0x672
     aec:	1006      	asrs	r6, r0, #32
     aee:	e5de      	b.n	0x6ae
     af0:	3007      	adds	r0, #7
     af2:	e5de      	b.n	0x6b2
     af4:	e004      	b.n	0xb00
     af6:	e28e      	b.n	0x1016
     af8:	0000      	movs	r0, r0
     afa:	e15e      	b.n	0xdba
     afc:	1006      	asrs	r6, r0, #32
     afe:	e5c2      	b.n	0x686
     b00:	3007      	adds	r0, #7
     b02:	e5c2      	b.n	0x68a
     b04:	2004      	movs	r0, #4
     b06:	e282      	b.n	0x100e
     b08:	fff3 1aff 			; <UNDEFINED> instruction: 0xfff31aff
     b0c:	1040      	asrs	r0, r0, #1
     b0e:	e28d      	b.n	0x102c
     b10:	0008      	movs	r0, r1
     b12:	e1a0      	b.n	0xe56
     b14:	0eed      	lsrs	r5, r5, #27
     b16:	eb00 0000 	add.w	r0, r0, r0
     b1a:	e350      	b.n	0x11be
     b1c:	2020      	movs	r0, #32
     b1e:	1590      	asrs	r0, r2, #22
     b20:	2102      	movs	r1, #2
     b22:	03a0      	lsls	r0, r4, #14
     b24:	2001      	movs	r0, #1
     b26:	1282      	asrs	r2, r0, #10
     b28:	1058      	asrs	r0, r3, #1
     b2a:	e28d      	b.n	0x1048
     b2c:	0008      	movs	r0, r1
     b2e:	e1a0      	b.n	0xe72
     b30:	0efa      	lsrs	r2, r7, #27
     b32:	eb00 3008 	add.w	r0, r0, r8, lsl #12
     b36:	e59d      	b.n	0x674
     b38:	0003      	movs	r3, r0
     b3a:	e353      	b.n	0x11e4
     b3c:	ff26 1aff 	vpmin.u32	<illegal reg q0.5>, q11, <illegal reg q15.5>
     b40:	3000      	adds	r0, #0
     b42:	e59d      	b.n	0x680
     b44:	c003      	stmia	r0!, {r0, r1}
     b46:	e1a0      	b.n	0xe8a
     b48:	1004      	asrs	r4, r0, #32
     b4a:	e5d4      	b.n	0x6f6
     b4c:	2005      	movs	r0, #5
     b4e:	e5d4      	b.n	0x6fa
     b50:	1004      	asrs	r4, r0, #32
     b52:	e5c3      	b.n	0x6dc
     b54:	2005      	movs	r0, #5
     b56:	e5c3      	b.n	0x6e0
     b58:	1006      	asrs	r6, r0, #32
     b5a:	e5d4      	b.n	0x706
     b5c:	2007      	movs	r0, #7
     b5e:	e5d4      	b.n	0x70a
     b60:	4004      	ands	r4, r0
     b62:	e284      	b.n	0x106e
     b64:	0005      	movs	r5, r0
     b66:	e154      	b.n	0xe12
     b68:	1006      	asrs	r6, r0, #32
     b6a:	e5c3      	b.n	0x6f4
     b6c:	2007      	movs	r0, #7
     b6e:	e5c3      	b.n	0x6f8
     b70:	3004      	adds	r0, #4
     b72:	e283      	b.n	0x107c
     b74:	fff3 1aff 			; <UNDEFINED> instruction: 0xfff31aff
     b78:	2008      	movs	r0, #8
     b7a:	e59d      	b.n	0x6b8
     b7c:	600c      	str	r4, [r1, #0]
     b7e:	e59d      	b.n	0x6bc
     b80:	5001      	str	r1, [r0, r0]
     b82:	e242      	b.n	0x100a
     b84:	30b0      	adds	r0, #176	; 0xb0
     b86:	e28d      	b.n	0x10a4
     b88:	0105      	lsls	r5, r0, #4
     b8a:	e083      	b.n	0xc94
     b8c:	0006      	movs	r6, r0
     b8e:	e080      	b.n	0xc92
     b90:	e6dc      	b.n	0x94c
     b92:	e150      	b.n	0xe36
     b94:	3001      	adds	r0, #1
     b96:	e25e      	b.n	0x1056
     b98:	3002      	adds	r0, #2
     b9a:	428e      	cmp	r6, r1
     b9c:	3143      	adds	r1, #67	; 0x43
     b9e:	e1a0      	b.n	0xee2
     ba0:	2002      	movs	r0, #2
     ba2:	e043      	b.n	0xc2c
     ba4:	3005      	adds	r0, #5
     ba6:	e043      	b.n	0xc30
     ba8:	0000      	movs	r0, r0
     baa:	e352      	b.n	0x1252
     bac:	4fc3      	ldr	r7, [pc, #780]	; (0xebc)
     bae:	e023      	b.n	0xbf8
     bb0:	4fc3      	ldr	r7, [pc, #780]	; (0xec0)
     bb2:	e044      	b.n	0xc3e
     bb4:	2000      	movs	r0, #0
     bb6:	b262      	sxtb	r2, r4
     bb8:	2004      	movs	r0, #4
     bba:	e042      	b.n	0xc42
     bbc:	4020      	ands	r0, r4
     bbe:	e59d      	b.n	0x6fc
     bc0:	2004      	movs	r0, #4
     bc2:	e082      	b.n	0xcca
     bc4:	4c02      	ldr	r4, [pc, #8]	; (0xbd0)
     bc6:	e1a0      	b.n	0xf0a
     bc8:	2000      	movs	r0, #0
     bca:	e3a0      	b.n	0x130e
     bcc:	3000      	adds	r0, #0
     bce:	e3a0      	b.n	0x1312
     bd0:	10b0      	asrs	r0, r6, #2
     bd2:	e28d      	b.n	0x10f0
     bd4:	100b      	asrs	r3, r1, #32
     bd6:	e081      	b.n	0xcdc
     bd8:	1006      	asrs	r6, r0, #32
     bda:	e081      	b.n	0xce0
     bdc:	e03c      	b.n	0xc58
     bde:	e541      	b.n	0x664
     be0:	203c      	movs	r0, #60	; 0x3c
     be2:	e540      	b.n	0x666
     be4:	2000      	movs	r0, #0
     be6:	e59d      	b.n	0x724
     be8:	4c44      	ldr	r4, [pc, #272]	; (0xcfc)
     bea:	e1a0      	b.n	0xf2e
     bec:	50ff      	str	r7, [r7, r3]
     bee:	e205      	b.n	0xffc
     bf0:	e008      	b.n	0xc04
     bf2:	e282      	b.n	0x10fa
     bf4:	6018      	str	r0, [r3, #0]
     bf6:	e282      	b.n	0x10fe
     bf8:	1004      	asrs	r4, r0, #32
     bfa:	e24e      	b.n	0x109a
     bfc:	2183      	movs	r1, #131	; 0x83
     bfe:	e063      	b.n	0xcc8
     c00:	2102      	movs	r1, #2
     c02:	e083      	b.n	0xd0c
     c04:	00d1      	lsls	r1, r2, #3
     c06:	e0d1      	b.n	0xdac
     c08:	2202      	movs	r2, #2
     c0a:	e082      	b.n	0xd12
     c0c:	3102      	adds	r1, #2
     c0e:	e083      	b.n	0xd18
     c10:	000e      	movs	r6, r1
     c12:	e151      	b.n	0xeb8
     c14:	3000      	adds	r0, #0
     c16:	e083      	b.n	0xd20
     c18:	fff7 1aff 			; <UNDEFINED> instruction: 0xfff71aff
     c1c:	e004      	b.n	0xc28
     c1e:	e281      	b.n	0x1124
     c20:	000e      	movs	r6, r1
     c22:	e156      	b.n	0xed2
     c24:	fff3 1aff 			; <UNDEFINED> instruction: 0xfff31aff
     c28:	1001      	asrs	r1, r0, #32
     c2a:	e3a0      	b.n	0x136e
     c2c:	1058      	asrs	r0, r3, #1
     c2e:	e5cd      	b.n	0x7cc
     c30:	100c      	asrs	r4, r1, #32
     c32:	e59d      	b.n	0x770
     c34:	306c      	adds	r0, #108	; 0x6c
     c36:	e58d      	b.n	0x754
     c38:	3000      	adds	r0, #0
     c3a:	e59d      	b.n	0x778
     c3c:	5059      	str	r1, [r3, r1]
     c3e:	e5cd      	b.n	0x7dc
     c40:	105a      	asrs	r2, r3, #1
     c42:	e5cd      	b.n	0x7e0
     c44:	405b      	eors	r3, r3
     c46:	e5cd      	b.n	0x7e4
     c48:	2058      	movs	r0, #88	; 0x58
     c4a:	e28d      	b.n	0x1168
     c4c:	0010      	movs	r0, r2
     c4e:	e283      	b.n	0x1158
     c50:	1004      	asrs	r4, r0, #32
     c52:	e5dc      	b.n	0x80e
     c54:	3005      	adds	r0, #5
     c56:	e5dc      	b.n	0x812
     c58:	1004      	asrs	r4, r0, #32
     c5a:	e5c2      	b.n	0x7e2
     c5c:	3005      	adds	r0, #5
     c5e:	e5c2      	b.n	0x7e6
     c60:	1006      	asrs	r6, r0, #32
     c62:	e5dc      	b.n	0x81e
     c64:	3007      	adds	r0, #7
     c66:	e5dc      	b.n	0x822
     c68:	c004      	stmia	r0!, {r2}
     c6a:	e28c      	b.n	0x1186
     c6c:	000c      	movs	r4, r1
     c6e:	e150      	b.n	0xf12
     c70:	1006      	asrs	r6, r0, #32
     c72:	e5c2      	b.n	0x7fa
     c74:	3007      	adds	r0, #7
     c76:	e5c2      	b.n	0x7fe
     c78:	2004      	movs	r0, #4
     c7a:	e282      	b.n	0x1182
     c7c:	fff3 1aff 			; <UNDEFINED> instruction: 0xfff31aff
     c80:	1040      	asrs	r0, r0, #1
     c82:	e28d      	b.n	0x11a0
     c84:	0008      	movs	r0, r1
     c86:	e1a0      	b.n	0xfca
     c88:	0e90      	lsrs	r0, r2, #26
     c8a:	eb00 0000 	add.w	r0, r0, r0
     c8e:	e350      	b.n	0x1332
     c90:	2020      	movs	r0, #32
     c92:	1590      	asrs	r0, r2, #22
     c94:	2102      	movs	r1, #2
     c96:	03a0      	lsls	r0, r4, #14
     c98:	2001      	movs	r0, #1
     c9a:	1282      	asrs	r2, r0, #10
     c9c:	1058      	asrs	r0, r3, #1
     c9e:	e28d      	b.n	0x11bc
     ca0:	0008      	movs	r0, r1
     ca2:	e1a0      	b.n	0xfe6
     ca4:	0e9d      	lsrs	r5, r3, #26
     ca6:	eb00 ff2b 			; <UNDEFINED> instruction: 0xeb00ff2b
     caa:	eaff 109c 			; <UNDEFINED> instruction: 0xeaff109c
     cae:	e59f      	b.n	0x7f0
     cb0:	0e0c      	lsrs	r4, r1, #24
     cb2:	eb00 3004 	add.w	r0, r0, r4, lsl #12
     cb6:	e1a0      	b.n	0xffa
     cb8:	1084      	asrs	r4, r0, #2
     cba:	e59d      	b.n	0x7f8
     cbc:	0070      	lsls	r0, r6, #1
     cbe:	e59d      	b.n	0x7fc
     cc0:	103c      	asrs	r4, r7, #32
     cc2:	e58d      	b.n	0x7e0
     cc4:	0028      	movs	r0, r5
     cc6:	e58d      	b.n	0x7e4
     cc8:	1070      	asrs	r0, r6, #1
     cca:	e5dd      	b.n	0x888
     ccc:	2028      	movs	r0, #40	; 0x28
     cce:	e28d      	b.n	0x11ec
     cd0:	5080      	str	r0, [r0, r2]
     cd2:	e28d      	b.n	0x11f0
     cd4:	4004      	ands	r4, r0
     cd6:	e5d3      	b.n	0x880
     cd8:	e005      	b.n	0xce6
     cda:	e5d3      	b.n	0x884
     cdc:	c006      	stmia	r0!, {r1, r2}
     cde:	e5d3      	b.n	0x888
     ce0:	0007      	movs	r7, r0
     ce2:	e5d3      	b.n	0x88c
     ce4:	3004      	adds	r0, #4
     ce6:	e283      	b.n	0x11f0
     ce8:	0005      	movs	r5, r0
     cea:	e153      	b.n	0xf94
     cec:	4004      	ands	r4, r0
     cee:	e5c2      	b.n	0x876
     cf0:	e005      	b.n	0xcfe
     cf2:	e5c2      	b.n	0x87a
     cf4:	c006      	stmia	r0!, {r1, r2}
     cf6:	e5c2      	b.n	0x87e
     cf8:	0007      	movs	r7, r0
     cfa:	e5c2      	b.n	0x882
     cfc:	2004      	movs	r0, #4
     cfe:	e282      	b.n	0x1206
     d00:	fff3 1aff 			; <UNDEFINED> instruction: 0xfff31aff
     d04:	fd81 eaff 			; <UNDEFINED> instruction: 0xfd81eaff
     d08:	1040      	asrs	r0, r0, #1
     d0a:	e28d      	b.n	0x1228
     d0c:	0008      	movs	r0, r1
     d0e:	e1a0      	b.n	0x1052
     d10:	0e6e      	lsrs	r6, r5, #25
     d12:	eb00 0000 	add.w	r0, r0, r0
     d16:	e350      	b.n	0x13ba
     d18:	3102      	adds	r1, #2
     d1a:	03e0      	lsls	r0, r4, #15
     d1c:	3020      	adds	r0, #32
     d1e:	1590      	asrs	r0, r2, #22
     d20:	2004      	movs	r0, #4
     d22:	e59d      	b.n	0x860
     d24:	0293      	lsls	r3, r2, #10
     d26:	e002      	b.n	0xd2e
     d28:	3002      	adds	r0, #2
     d2a:	e1a0      	b.n	0x106e
     d2c:	2018      	movs	r0, #24
     d2e:	e59f      	b.n	0x870
     d30:	3000      	adds	r0, #0
     d32:	e582      	b.n	0x83a
     d34:	d0b4      	beq.n	0xca0
     d36:	e28d      	b.n	0x1254
     d38:	4ff0      	ldr	r7, [pc, #960]	; (0x10fc)
     d3a:	e8bd ff1e 	ldmia.w	sp!, {r1, r2, r3, r4, r8, r9, sl, fp, ip, sp, lr, pc}
     d3e:	e12f      	b.n	0xfa0
     d40:	0158      	lsls	r0, r3, #5
     d42:	0300      	lsls	r0, r0, #12
     d44:	0168      	lsls	r0, r5, #5
     d46:	0300      	lsls	r0, r0, #12
     d48:	000c      	movs	r4, r1
     d4a:	0008      	movs	r0, r1
     d4c:	001c      	movs	r4, r3
     d4e:	0300      	lsls	r0, r0, #12
     d50:	01a8      	lsls	r0, r5, #6
     d52:	0300      	lsls	r0, r0, #12
     d54:	0000      	movs	r0, r0
     d56:	e350      	b.n	0x13fa
     d58:	ff1e 112f 	vrhadd.u16	d1, d14, d31
     d5c:	3301      	adds	r3, #1
     d5e:	e3a0      	b.n	0x14a2
     d60:	c003      	stmia	r0!, {r0, r1}
     d62:	e3a0      	b.n	0x14a6
     d64:	0004      	movs	r4, r0
     d66:	e3a0      	b.n	0x14aa
     d68:	2406      	movs	r4, #6
     d6a:	e3a0      	b.n	0x14ae
     d6c:	101f      	asrs	r7, r3, #32
     d6e:	e3a0      	b.n	0x14b2
     d70:	c000      	stmia	r0!, {}
     d72:	e5c3      	b.n	0x8fc
     d74:	0001      	movs	r1, r0
     d76:	e5c3      	b.n	0x900
     d78:	10b0      	asrs	r0, r6, #2
     d7a:	e1c2      	b.n	0x1102
     d7c:	fffe eaff 			; <UNDEFINED> instruction: 0xfffeeaff
     d80:	000f      	movs	r7, r1
     d82:	e92d 4ff0 	stmdb	sp!, {r4, r5, r6, r7, r8, r9, sl, fp, lr}
     d86:	e92d b000 	stmdb	sp!, {ip, sp, pc}
     d8a:	e3a0      	b.n	0x14ce
     d8c:	d00c      	beq.n	0xda8
     d8e:	e24d      	b.n	0x122c
     d90:	3034      	adds	r0, #52	; 0x34
     d92:	e28d      	b.n	0x12b0
     d94:	3004      	adds	r0, #4
     d96:	e58d      	b.n	0x8b4
     d98:	82e4      	strh	r4, [r4, #22]
     d9a:	e59f      	b.n	0x8dc
     d9c:	1030      	asrs	r0, r6, #32
     d9e:	e59d      	b.n	0x8dc
     da0:	32e0      	adds	r2, #224	; 0xe0
     da2:	e59f      	b.n	0x8e4
     da4:	62e0      	str	r0, [r4, #44]	; 0x2c
     da6:	e59f      	b.n	0x8e8
     da8:	0000      	movs	r0, r0
     daa:	e5d1      	b.n	0x950
     dac:	0000      	movs	r0, r0
     dae:	e350      	b.n	0x1452
     db0:	0026      	movs	r6, r4
     db2:	0a00      	lsrs	r0, r0, #8
     db4:	0025      	movs	r5, r4
     db6:	e350      	b.n	0x145a
     db8:	0028      	movs	r0, r5
     dba:	1a00      	subs	r0, r0, r0
     dbc:	2001      	movs	r0, #1
     dbe:	e5d1      	b.n	0x964
     dc0:	0064      	lsls	r4, r4, #1
     dc2:	e352      	b.n	0x146a
     dc4:	1002      	asrs	r2, r0, #32
     dc6:	e281      	b.n	0x12cc
     dc8:	003a      	movs	r2, r7
     dca:	0a00      	lsrs	r0, r0, #8
     dcc:	002d      	movs	r5, r5
     dce:	9a00      	ldr	r2, [sp, #0]
     dd0:	0073      	lsls	r3, r6, #1
     dd2:	e352      	b.n	0x147a
     dd4:	0052      	lsls	r2, r2, #1
     dd6:	0a00      	lsrs	r0, r0, #8
     dd8:	0075      	lsls	r5, r6, #1
     dda:	e352      	b.n	0x1482
     ddc:	fff1 1aff 			; <UNDEFINED> instruction: 0xfff11aff
     de0:	2004      	movs	r0, #4
     de2:	e59d      	b.n	0x920
     de4:	c000      	stmia	r0!, {}
     de6:	e592      	b.n	0x90e
     de8:	2004      	movs	r0, #4
     dea:	e282      	b.n	0x12f2
     dec:	0000      	movs	r0, r0
     dee:	e35c      	b.n	0x14aa
     df0:	2004      	movs	r0, #4
     df2:	e58d      	b.n	0x910
     df4:	005d      	lsls	r5, r3, #1
     df6:	1a00      	subs	r0, r0, r0
     df8:	2030      	movs	r0, #48	; 0x30
     dfa:	e3a0      	b.n	0x153e
     dfc:	7001      	strb	r1, [r0, #0]
     dfe:	e3a0      	b.n	0x1542
     e00:	2000      	movs	r0, #0
     e02:	e5c8      	b.n	0x996
     e04:	b007      	add	sp, #28
     e06:	e7c8      	b.n	0xd9a
     e08:	c000      	stmia	r0!, {}
     e0a:	e5d8      	b.n	0x9be
     e0c:	0000      	movs	r0, r0
     e0e:	e35c      	b.n	0x14ca
     e10:	ffe4 0aff 			; <UNDEFINED> instruction: 0xffe40aff
     e14:	e274      	b.n	0x1300
     e16:	e59f      	b.n	0x958
     e18:	2001      	movs	r0, #1
     e1a:	e5d3      	b.n	0x9c4
     e1c:	0001      	movs	r1, r0
     e1e:	e202      	b.n	0x1226
     e20:	00a2      	lsls	r2, r4, #2
     e22:	e150      	b.n	0x10c6
     e24:	fffb 1aff 			; <UNDEFINED> instruction: 0xfffb1aff
     e28:	c000      	stmia	r0!, {}
     e2a:	e5c3      	b.n	0x9b4
     e2c:	2001      	movs	r0, #1
     e2e:	e5d3      	b.n	0x9d8
     e30:	2001      	movs	r0, #1
     e32:	e222      	b.n	0x127a
     e34:	2001      	movs	r0, #1
     e36:	e5c3      	b.n	0x9c0
     e38:	c001      	stmia	r0!, {r0}
     e3a:	e4de      	b.n	0x7fa
     e3c:	0000      	movs	r0, r0
     e3e:	e35c      	b.n	0x14fa
     e40:	fff4 1aff 			; <UNDEFINED> instruction: 0xfff41aff
     e44:	0000      	movs	r0, r0
     e46:	e5d1      	b.n	0x9ec
     e48:	0000      	movs	r0, r0
     e4a:	e350      	b.n	0x14ee
     e4c:	ffd8 1aff 			; <UNDEFINED> instruction: 0xffd81aff
     e50:	d00c      	beq.n	0xe6c
     e52:	e28d      	b.n	0x1370
     e54:	4ff0      	ldr	r7, [pc, #960]	; (0x1218)
     e56:	e8bd d010 	ldmia.w	sp!, {r4, ip, lr, pc}
     e5a:	e28d      	b.n	0x1378
     e5c:	ff1e e12f 	vrhadd.u16	d14, d14, d31
     e60:	2001      	movs	r0, #1
     e62:	e5d3      	b.n	0xa0c
     e64:	c001      	stmia	r0!, {r0}
     e66:	e202      	b.n	0x126e
     e68:	00a2      	lsls	r2, r4, #2
     e6a:	e15c      	b.n	0x1126
     e6c:	fffb 1aff 			; <UNDEFINED> instruction: 0xfffb1aff
     e70:	0000      	movs	r0, r0
     e72:	e5c3      	b.n	0x9fc
     e74:	2001      	movs	r0, #1
     e76:	e5d3      	b.n	0xa20
     e78:	2001      	movs	r0, #1
     e7a:	e222      	b.n	0x12c2
     e7c:	2001      	movs	r0, #1
     e7e:	e5c3      	b.n	0xa08
     e80:	1001      	asrs	r1, r0, #32
     e82:	e281      	b.n	0x1388
     e84:	ffc7 eaff 			; <UNDEFINED> instruction: 0xffc7eaff
     e88:	0025      	movs	r5, r4
     e8a:	e352      	b.n	0x1532
     e8c:	ffc5 1aff 			; <UNDEFINED> instruction: 0xffc51aff
     e90:	2001      	movs	r0, #1
     e92:	e5d3      	b.n	0xa3c
     e94:	0001      	movs	r1, r0
     e96:	e202      	b.n	0x129e
     e98:	00a2      	lsls	r2, r4, #2
     e9a:	e150      	b.n	0x113e
     e9c:	fffb 1aff 			; <UNDEFINED> instruction: 0xfffb1aff
     ea0:	2025      	movs	r0, #37	; 0x25
     ea2:	e3a0      	b.n	0x15e6
     ea4:	2000      	movs	r0, #0
     ea6:	e5c3      	b.n	0xa30
     ea8:	2001      	movs	r0, #1
     eaa:	e5d3      	b.n	0xa54
     eac:	2001      	movs	r0, #1
     eae:	e222      	b.n	0x12f6
     eb0:	2001      	movs	r0, #1
     eb2:	e5c3      	b.n	0xa3c
     eb4:	ffbb eaff 			; <UNDEFINED> instruction: 0xffbbeaff
     eb8:	2004      	movs	r0, #4
     eba:	e59d      	b.n	0x9f8
     ebc:	0000      	movs	r0, r0
     ebe:	e592      	b.n	0x9e6
     ec0:	2004      	movs	r0, #4
     ec2:	e282      	b.n	0x13ca
     ec4:	0000      	movs	r0, r0
     ec6:	e350      	b.n	0x156a
     ec8:	2004      	movs	r0, #4
     eca:	e58d      	b.n	0x9e8
     ecc:	0045      	lsls	r5, r0, #1
     ece:	ba00      	rev	r0, r0
     ed0:	0067      	lsls	r7, r4, #1
     ed2:	1a00      	subs	r0, r0, r0
     ed4:	2030      	movs	r0, #48	; 0x30
     ed6:	e3a0      	b.n	0x161a
     ed8:	91b0      	str	r1, [sp, #704]	; 0x2c0
     eda:	e59f      	b.n	0xa1c
     edc:	2000      	movs	r0, #0
     ede:	e5c8      	b.n	0xa72
     ee0:	b000      	add	sp, #0
     ee2:	e5c9      	b.n	0xa78
     ee4:	c000      	stmia	r0!, {}
     ee6:	e5d8      	b.n	0xa9a
     ee8:	0000      	movs	r0, r0
     eea:	e35c      	b.n	0x15a6
     eec:	ffad 0aff 			; <UNDEFINED> instruction: 0xffad0aff
     ef0:	e198      	b.n	0x1224
     ef2:	e59f      	b.n	0xa34
     ef4:	2001      	movs	r0, #1
     ef6:	e5d3      	b.n	0xaa0
     ef8:	0001      	movs	r1, r0
     efa:	e202      	b.n	0x1302
     efc:	00a2      	lsls	r2, r4, #2
     efe:	e150      	b.n	0x11a2
     f00:	fffb 1aff 			; <UNDEFINED> instruction: 0xfffb1aff
     f04:	c000      	stmia	r0!, {}
     f06:	e5c3      	b.n	0xa90
     f08:	2001      	movs	r0, #1
     f0a:	e5d3      	b.n	0xab4
     f0c:	2001      	movs	r0, #1
     f0e:	e222      	b.n	0x1356
     f10:	2001      	movs	r0, #1
     f12:	e5c3      	b.n	0xa9c
     f14:	c001      	stmia	r0!, {r0}
     f16:	e4de      	b.n	0x8d6
     f18:	0000      	movs	r0, r0
     f1a:	e35c      	b.n	0x15d6
     f1c:	fff4 1aff 			; <UNDEFINED> instruction: 0xfff41aff
     f20:	ffa0 eaff 			; <UNDEFINED> instruction: 0xffa0eaff
     f24:	2004      	movs	r0, #4
     f26:	e59d      	b.n	0xa64
     f28:	e000      	b.n	0xf2c
     f2a:	e592      	b.n	0xa52
     f2c:	c000      	stmia	r0!, {}
     f2e:	e5de      	b.n	0xaee
     f30:	2004      	movs	r0, #4
     f32:	e282      	b.n	0x143a
     f34:	0000      	movs	r0, r0
     f36:	e35c      	b.n	0x15f2
     f38:	2004      	movs	r0, #4
     f3a:	e58d      	b.n	0xa58
     f3c:	ff99 0aff 			; <UNDEFINED> instruction: 0xff990aff
     f40:	2001      	movs	r0, #1
     f42:	e5d3      	b.n	0xaec
     f44:	0001      	movs	r1, r0
     f46:	e202      	b.n	0x134e
     f48:	00a2      	lsls	r2, r4, #2
     f4a:	e150      	b.n	0x11ee
     f4c:	fffb 1aff 			; <UNDEFINED> instruction: 0xfffb1aff
     f50:	c000      	stmia	r0!, {}
     f52:	e5c3      	b.n	0xadc
     f54:	2001      	movs	r0, #1
     f56:	e5d3      	b.n	0xb00
     f58:	2001      	movs	r0, #1
     f5a:	e222      	b.n	0x13a2
     f5c:	2001      	movs	r0, #1
     f5e:	e5c3      	b.n	0xae8
     f60:	c001      	stmia	r0!, {r0}
     f62:	e5fe      	b.n	0xb62
     f64:	0000      	movs	r0, r0
     f66:	e35c      	b.n	0x1622
     f68:	fff4 1aff 			; <UNDEFINED> instruction: 0xfff41aff
     f6c:	ff8d eaff 			; <UNDEFINED> instruction: 0xff8deaff
     f70:	411c      	asrs	r4, r3
     f72:	e59f      	b.n	0xab4
     f74:	e000      	b.n	0xf78
     f76:	e3a0      	b.n	0x16ba
     f78:	5004      	str	r4, [r0, r0]
     f7a:	e1a0      	b.n	0x12be
     f7c:	0001      	movs	r1, r0
     f7e:	ea00 e007 			; <UNDEFINED> instruction: 0xea00e007
     f82:	e1a0      	b.n	0x12c6
     f84:	c000      	stmia	r0!, {}
     f86:	e1a0      	b.n	0x12ca
     f88:	2c96      	cmp	r4, #150	; 0x96
     f8a:	e080      	b.n	0x108e
     f8c:	01a0      	lsls	r0, r4, #6
     f8e:	e1a0      	b.n	0x12d2
     f90:	2100      	movs	r1, #0
     f92:	e080      	b.n	0x1096
     f94:	2082      	movs	r0, #130	; 0x82
     f96:	e04c      	b.n	0x1032
     f98:	2030      	movs	r0, #48	; 0x30
     f9a:	e282      	b.n	0x14a2
     f9c:	20ff      	movs	r0, #255	; 0xff
     f9e:	e202      	b.n	0x13a6
     fa0:	0009      	movs	r1, r1
     fa2:	e35c      	b.n	0x165e
     fa4:	2001      	movs	r0, #1
     fa6:	e5e5      	b.n	0xb74
     fa8:	7001      	strb	r1, [r0, #0]
     faa:	e28e      	b.n	0x14ca
     fac:	fff3 8aff 			; <UNDEFINED> instruction: 0xfff38aff
     fb0:	0000      	movs	r0, r0
     fb2:	e35e      	b.n	0x1672
     fb4:	0030      	movs	r0, r6
     fb6:	0a00      	lsrs	r0, r0, #8
     fb8:	000e      	movs	r6, r1
     fba:	e1a0      	b.n	0x12fe
     fbc:	c00e      	stmia	r0!, {r1, r2, r3}
     fbe:	e088      	b.n	0x10d2
     fc0:	0000      	movs	r0, r0
     fc2:	ea00 2001 	and.w	r0, r0, r1, lsl #8
     fc6:	e57c      	b.n	0xac2
     fc8:	0001      	movs	r1, r0
     fca:	e240      	b.n	0x144e
     fcc:	5001      	str	r1, [r0, r0]
     fce:	e5f4      	b.n	0xbba
     fd0:	9000      	str	r0, [sp, #0]
     fd2:	e04e      	b.n	0x1072
     fd4:	0009      	movs	r1, r1
     fd6:	e150      	b.n	0x127a
     fd8:	2000      	movs	r0, #0
     fda:	e5c4      	b.n	0xb66
     fdc:	5000      	str	r0, [r0, r0]
     fde:	e5cc      	b.n	0xb7a
     fe0:	fff7 8aff 			; <UNDEFINED> instruction: 0xfff78aff
     fe4:	ff86 eaff 			; <UNDEFINED> instruction: 0xff86eaff
     fe8:	202d      	movs	r0, #45	; 0x2d
     fea:	e3a0      	b.n	0x172e
     fec:	7001      	strb	r1, [r0, #0]
     fee:	e3a0      	b.n	0x1732
     ff0:	2000      	movs	r0, #0
     ff2:	e5c8      	b.n	0xb86
     ff4:	0000      	movs	r0, r0
     ff6:	e260      	b.n	0x14ba
     ff8:	e007      	b.n	0x100a
     ffa:	e088      	b.n	0x110e
     ffc:	500e      	str	r6, [r1, r0]
     ffe:	e1a0      	b.n	0x1342
    1000:	4007      	ands	r7, r0
    1002:	e1a0      	b.n	0x1346
    1004:	0000      	movs	r0, r0
    1006:	ea00 400c 	and.w	r0, r0, ip, lsl #16
    100a:	e1a0      	b.n	0x134e
    100c:	2096      	movs	r0, #150	; 0x96
    100e:	e08c      	b.n	0x112a
    1010:	c1ac      	stmia	r1!, {r2, r3, r5, r7}
    1012:	e1a0      	b.n	0x1356
    1014:	210c      	movs	r1, #12
    1016:	e08c      	b.n	0x1132
    1018:	2082      	movs	r0, #130	; 0x82
    101a:	e040      	b.n	0x109e
    101c:	2030      	movs	r0, #48	; 0x30
    101e:	e282      	b.n	0x1526
    1020:	20ff      	movs	r0, #255	; 0xff
    1022:	e202      	b.n	0x142a
    1024:	2001      	movs	r0, #1
    1026:	e4c5      	b.n	0x9b4
    1028:	0000      	movs	r0, r0
    102a:	e25c      	b.n	0x14e6
    102c:	9005      	str	r0, [sp, #20]
    102e:	e1a0      	b.n	0x1372
    1030:	c001      	stmia	r0!, {r0}
    1032:	e284      	b.n	0x153e
    1034:	fff3 1aff 			; <UNDEFINED> instruction: 0xfff31aff
    1038:	0004      	movs	r4, r0
    103a:	e157      	b.n	0x12ec
    103c:	ffa7 2aff 			; <UNDEFINED> instruction: 0xffa72aff
    1040:	0007      	movs	r7, r0
    1042:	e1a0      	b.n	0x1386
    1044:	5004      	str	r4, [r0, r0]
    1046:	e088      	b.n	0x115a
    1048:	0000      	movs	r0, r0
    104a:	ea00 2000 	and.w	r0, r0, r0, lsl #8
    104e:	e5d5      	b.n	0xbfc
    1050:	0001      	movs	r1, r0
    1052:	e280      	b.n	0x1556
    1054:	c000      	stmia	r0!, {}
    1056:	e047      	b.n	0x10e8
    1058:	a000      	add	r0, pc, #0	; (adr r0, 0x105c)
    105a:	e5de      	b.n	0xc1a
    105c:	c004      	stmia	r0!, {r2}
    105e:	e08c      	b.n	0x117a
    1060:	0000      	movs	r0, r0
    1062:	e15c      	b.n	0x131e
    1064:	2001      	movs	r0, #1
    1066:	e4ce      	b.n	0xa06
    1068:	a001      	add	r0, pc, #4	; (adr r0, 0x1070)
    106a:	e445      	b.n	0x8f8
    106c:	fff6 8aff 			; <UNDEFINED> instruction: 0xfff68aff
    1070:	ff9a eaff 			; <UNDEFINED> instruction: 0xff9aeaff
    1074:	7000      	strb	r0, [r0, #0]
    1076:	e3a0      	b.n	0x17ba
    1078:	ffde eaff 			; <UNDEFINED> instruction: 0xffdeeaff
    107c:	7001      	strb	r1, [r0, #0]
    107e:	e3a0      	b.n	0x17c2
    1080:	ff5f eaff 	vpmin.u16	q15, <illegal reg q15.5>, <illegal reg q15.5>
    1084:	0020      	movs	r0, r4
    1086:	0300      	lsls	r0, r0, #12
    1088:	0400      	lsls	r0, r0, #16
    108a:	0400      	lsls	r0, r0, #16
    108c:	cccd      	ldmia	r4!, {r0, r2, r3, r6, r7}
    108e:	cccc      	ldmia	r4!, {r2, r3, r6, r7}
    1090:	0021      	movs	r1, r4
    1092:	0300      	lsls	r0, r0, #12
    1094:	001f      	movs	r7, r3
    1096:	0300      	lsls	r0, r0, #12
    1098:	0402      	lsls	r2, r0, #16
    109a:	e3a0      	b.n	0x17de
    109c:	4070      	eors	r0, r6
    109e:	e92d 50e8 	stmdb	sp!, {r3, r5, r6, r7, ip, lr}
    10a2:	e59f      	b.n	0xbe4
    10a4:	3000      	adds	r0, #0
    10a6:	e595      	b.n	0xbd4
    10a8:	20e4      	movs	r0, #228	; 0xe4
    10aa:	e59f      	b.n	0xbec
    10ac:	3000      	adds	r0, #0
    10ae:	e593      	b.n	0xbd8
    10b0:	4001      	ands	r1, r0
    10b2:	e1a0      	b.n	0x13f6
    10b4:	0064      	lsls	r4, r4, #1
    10b6:	e582      	b.n	0xbbe
    10b8:	e00f      	b.n	0x10da
    10ba:	e1a0      	b.n	0x13fe
    10bc:	ff13 e12f 	vrhadd.u16	d14, d3, d31
    10c0:	2000      	movs	r0, #0
    10c2:	e3a0      	b.n	0x1806
    10c4:	60cc      	str	r4, [r1, #12]
    10c6:	e59f      	b.n	0xc08
    10c8:	0005      	movs	r5, r0
    10ca:	e5d6      	b.n	0xc7a
    10cc:	1004      	asrs	r4, r0, #32
    10ce:	e5d6      	b.n	0xc7e
    10d0:	3001      	adds	r0, #1
    10d2:	e5d6      	b.n	0xc82
    10d4:	1400      	asrs	r0, r0, #16
    10d6:	e181      	b.n	0x13dc
    10d8:	0000      	movs	r0, r0
    10da:	e5d6      	b.n	0xc8a
    10dc:	3401      	adds	r4, #1
    10de:	e183      	b.n	0x13e8
    10e0:	3403      	adds	r4, #3
    10e2:	e180      	b.n	0x13e6
    10e4:	0003      	movs	r3, r0
    10e6:	e093      	b.n	0x1210
    10e8:	1002      	asrs	r2, r0, #32
    10ea:	e0a2      	b.n	0x1232
    10ec:	0003      	movs	r3, r0
    10ee:	e090      	b.n	0x1212
    10f0:	1002      	asrs	r2, r0, #32
    10f2:	e0a1      	b.n	0x1238
    10f4:	1501      	asrs	r1, r0, #20
    10f6:	e1a0      	b.n	0x143a
    10f8:	209c      	movs	r0, #156	; 0x9c
    10fa:	e59f      	b.n	0xc3c
    10fc:	1b20      	subs	r0, r4, r4
    10fe:	e181      	b.n	0x1404
    1100:	3000      	adds	r0, #0
    1102:	e3a0      	b.n	0x1846
    1104:	0500      	lsls	r0, r0, #20
    1106:	e1a0      	b.n	0x144a
    1108:	0bd5      	lsrs	r5, r2, #15
    110a:	eb00 3000 	add.w	r0, r0, r0, lsl #12
    110e:	e595      	b.n	0xc3c
    1110:	0008      	movs	r0, r1
    1112:	e584      	b.n	0xc1e
    1114:	3004      	adds	r0, #4
    1116:	e593      	b.n	0xc40
    1118:	e00f      	b.n	0x113a
    111a:	e1a0      	b.n	0x145e
    111c:	ff13 e12f 	vrhadd.u16	d14, d3, d31
    1120:	2000      	movs	r0, #0
    1122:	e3a0      	b.n	0x1866
    1124:	0005      	movs	r5, r0
    1126:	e5d6      	b.n	0xcd6
    1128:	1004      	asrs	r4, r0, #32
    112a:	e5d6      	b.n	0xcda
    112c:	3001      	adds	r0, #1
    112e:	e5d6      	b.n	0xcde
    1130:	1400      	asrs	r0, r0, #16
    1132:	e181      	b.n	0x1438
    1134:	0000      	movs	r0, r0
    1136:	e5d6      	b.n	0xce6
    1138:	3401      	adds	r4, #1
    113a:	e183      	b.n	0x1444
    113c:	3403      	adds	r4, #3
    113e:	e180      	b.n	0x1442
    1140:	0003      	movs	r3, r0
    1142:	e093      	b.n	0x126c
    1144:	1002      	asrs	r2, r0, #32
    1146:	e0a2      	b.n	0x128e
    1148:	0003      	movs	r3, r0
    114a:	e090      	b.n	0x126e
    114c:	1002      	asrs	r2, r0, #32
    114e:	e0a1      	b.n	0x1294
    1150:	1501      	asrs	r1, r0, #20
    1152:	e1a0      	b.n	0x1496
    1154:	1b20      	subs	r0, r4, r4
    1156:	e181      	b.n	0x145c
    1158:	203c      	movs	r0, #60	; 0x3c
    115a:	e59f      	b.n	0xc9c
    115c:	3000      	adds	r0, #0
    115e:	e3a0      	b.n	0x18a2
    1160:	0500      	lsls	r0, r0, #20
    1162:	e1a0      	b.n	0x14a6
    1164:	0bbe      	lsrs	r6, r7, #14
    1166:	eb00 3008 	add.w	r0, r0, r8, lsl #12
    116a:	e594      	b.n	0xc96
    116c:	2000      	movs	r0, #0
    116e:	e595      	b.n	0xc9c
    1170:	0003      	movs	r3, r0
    1172:	e040      	b.n	0x11f6
    1174:	3008      	adds	r0, #8
    1176:	e592      	b.n	0xc9e
    1178:	0008      	movs	r0, r1
    117a:	e584      	b.n	0xc86
    117c:	e00f      	b.n	0x119e
    117e:	e1a0      	b.n	0x14c2
    1180:	ff13 e12f 	vrhadd.u16	d14, d3, d31
    1184:	0000      	movs	r0, r0
    1186:	e584      	b.n	0xc92
    1188:	4070      	eors	r0, r6
    118a:	e8bd ff1e 	ldmia.w	sp!, {r1, r2, r3, r4, r8, r9, sl, fp, ip, sp, lr, pc}
    118e:	e12f      	b.n	0x13f0
    1190:	0154      	lsls	r4, r2, #5
    1192:	0300      	lsls	r0, r0, #12
    1194:	0020      	movs	r0, r4
    1196:	0300      	lsls	r0, r0, #12
    1198:	0100      	lsls	r0, r0, #4
    119a:	0400      	lsls	r0, r0, #16
    119c:	c350      	stmia	r3!, {r4, r6}
    119e:	0000      	movs	r0, r0
    11a0:	0000      	movs	r0, r0
    11a2:	e252      	b.n	0x164a
    11a4:	ff1e 012f 	vrhadd.u16	d0, d14, d31
    11a8:	3024      	adds	r0, #36	; 0x24
    11aa:	e59f      	b.n	0xcec
    11ac:	3000      	adds	r0, #0
    11ae:	e593      	b.n	0xcd8
    11b0:	4010      	ands	r0, r2
    11b2:	e92d 3008 	stmdb	sp!, {r3, ip, sp}
    11b6:	e593      	b.n	0xce0
    11b8:	3103      	adds	r1, #3
    11ba:	e083      	b.n	0x12c4
    11bc:	3103      	adds	r1, #3
    11be:	e083      	b.n	0x12c8
    11c0:	1000      	asrs	r0, r0, #32
    11c2:	e1a0      	b.n	0x1506
    11c4:	0103      	lsls	r3, r0, #4
    11c6:	e1a0      	b.n	0x150a
    11c8:	0b0d      	lsrs	r5, r1, #12
    11ca:	eb00 4010 	add.w	r0, r0, r0, lsr #16
    11ce:	e8bd ff1e 	ldmia.w	sp!, {r1, r2, r3, r4, r8, r9, sl, fp, ip, sp, lr, pc}
    11d2:	e12f      	b.n	0x1434
    11d4:	0158      	lsls	r0, r3, #5
    11d6:	0300      	lsls	r0, r0, #12
    11d8:	3070      	adds	r0, #112	; 0x70
    11da:	e59f      	b.n	0xd1c
    11dc:	4070      	eors	r0, r6
    11de:	e92d 5064 	stmdb	sp!, {r2, r5, r6, ip, lr}
    11e2:	e593      	b.n	0xd0c
    11e4:	200f      	movs	r0, #15
    11e6:	e215      	b.n	0x1614
    11e8:	2010      	movs	r0, #16
    11ea:	1262      	asrs	r2, r4, #9
    11ec:	5002      	str	r2, [r0, r0]
    11ee:	1085      	asrs	r5, r0, #2
    11f0:	4000      	ands	r0, r0
    11f2:	e085      	b.n	0x1300
    11f4:	64fe      	str	r6, [r7, #76]	; 0x4c
    11f6:	e284      	b.n	0x1702
    11f8:	0701      	lsls	r1, r0, #28
    11fa:	e356      	b.n	0x18aa
    11fc:	0000      	movs	r0, r0
    11fe:	23a0      	movs	r3, #160	; 0xa0
    1200:	0001      	movs	r1, r0
    1202:	33a0      	adds	r3, #160	; 0xa0
    1204:	4064      	eors	r4, r4
    1206:	e583      	b.n	0xd10
    1208:	fed1 ebff 			; <UNDEFINED> instruction: 0xfed1ebff
    120c:	0005      	movs	r5, r0
    120e:	e154      	b.n	0x14ba
    1210:	0004      	movs	r4, r0
    1212:	0a00      	lsrs	r0, r0, #8
    1214:	3005      	adds	r0, #5
    1216:	e1a0      	b.n	0x155a
    1218:	2000      	movs	r0, #0
    121a:	e3a0      	b.n	0x195e
    121c:	2001      	movs	r0, #1
    121e:	e4c3      	b.n	0xba8
    1220:	0003      	movs	r3, r0
    1222:	e154      	b.n	0x14ce
    1224:	fffc 1aff 			; <UNDEFINED> instruction: 0xfffc1aff
    1228:	3024      	adds	r0, #36	; 0x24
    122a:	e59f      	b.n	0xd6c
    122c:	3000      	adds	r0, #0
    122e:	e593      	b.n	0xd58
    1230:	0004      	movs	r4, r0
    1232:	e593      	b.n	0xd5c
    1234:	0000      	movs	r0, r0
    1236:	e156      	b.n	0x14e6
    1238:	0000      	movs	r0, r0
    123a:	83a0      	strh	r0, [r4, #28]
    123c:	0001      	movs	r1, r0
    123e:	93a0      	str	r3, [sp, #640]	; 0x280
    1240:	fec3 ebff 			; <UNDEFINED> instruction: 0xfec3ebff
    1244:	0005      	movs	r5, r0
    1246:	e1a0      	b.n	0x158a
    1248:	4070      	eors	r0, r6
    124a:	e8bd ff1e 	ldmia.w	sp!, {r1, r2, r3, r4, r8, r9, sl, fp, ip, sp, lr, pc}
    124e:	e12f      	b.n	0x14b0
    1250:	0020      	movs	r0, r4
    1252:	0300      	lsls	r0, r0, #12
    1254:	0158      	lsls	r0, r3, #5
    1256:	0300      	lsls	r0, r0, #12
    1258:	ff1e e12f 	vrhadd.u16	d14, d14, d31
    125c:	2402      	movs	r4, #2
    125e:	e3a0      	b.n	0x19a2
    1260:	3004      	adds	r0, #4
    1262:	e59f      	b.n	0xda4
    1264:	2064      	movs	r0, #100	; 0x64
    1266:	e583      	b.n	0xd70
    1268:	ff1e e12f 	vrhadd.u16	d14, d14, d31
    126c:	0020      	movs	r0, r4
    126e:	0300      	lsls	r0, r0, #12
    1270:	0880      	lsrs	r0, r0, #2
    1272:	e1a0      	b.n	0x15b6
    1274:	3008      	adds	r0, #8
    1276:	e59f      	b.n	0xdb8
    1278:	08a0      	lsrs	r0, r4, #2
    127a:	e1a0      	b.n	0x15be
    127c:	0208      	lsls	r0, r1, #8
    127e:	e583      	b.n	0xd88
    1280:	ff1e e12f 	vrhadd.u16	d14, d14, d31
    1284:	01e8      	lsls	r0, r5, #7
    1286:	0300      	lsls	r0, r0, #12
    1288:	201c      	movs	r0, #28
    128a:	e59f      	b.n	0xdcc
    128c:	101c      	asrs	r4, r3, #32
    128e:	e59f      	b.n	0xdd0
    1290:	3208      	adds	r2, #8
    1292:	e592      	b.n	0xdba
    1294:	0018      	movs	r0, r3
    1296:	e59f      	b.n	0xdd8
    1298:	0391      	lsls	r1, r2, #14
    129a:	e02c      	b.n	0x12f6
    129c:	0014      	movs	r4, r2
    129e:	e59f      	b.n	0xde0
    12a0:	c208      	stmia	r2!, {r3}
    12a2:	e582      	b.n	0xdaa
    12a4:	084c      	lsrs	r4, r1, #1
    12a6:	e000      	b.n	0x12aa
    12a8:	ff1e e12f 	vrhadd.u16	d14, d14, d31
    12ac:	01e8      	lsls	r0, r5, #7
    12ae:	0300      	lsls	r0, r0, #12
    12b0:	43fd      	mvns	r5, r7
    12b2:	0003      	movs	r3, r0
    12b4:	9ec3      	ldr	r6, [sp, #780]	; 0x30c
    12b6:	0026      	movs	r6, r4
    12b8:	7fff      	ldrb	r7, [r7, #31]
    12ba:	0000      	movs	r0, r0
    12bc:	3028      	adds	r0, #40	; 0x28
    12be:	e59f      	b.n	0xe00
    12c0:	0000      	movs	r0, r0
    12c2:	ea00 3102 	and.w	r1, r0, r2, lsl #12
    12c6:	e3a0      	b.n	0x1a0a
    12c8:	0004      	movs	r4, r0
    12ca:	e280      	b.n	0x17ce
    12cc:	0001      	movs	r1, r0
    12ce:	e150      	b.n	0x1572
    12d0:	fffb 3aff 			; <UNDEFINED> instruction: 0xfffb3aff
    12d4:	0683      	lsls	r3, r0, #26
    12d6:	e083      	b.n	0x13e0
    12d8:	03c0      	lsls	r0, r0, #15
    12da:	e020      	b.n	0x131e
    12dc:	0180      	lsls	r0, r0, #6
    12de:	e080      	b.n	0x13e2
    12e0:	08c0      	lsrs	r0, r0, #3
    12e2:	e020      	b.n	0x1326
    12e4:	0280      	lsls	r0, r0, #10
    12e6:	e080      	b.n	0x13ea
    12e8:	ff1e e12f 	vrhadd.u16	d14, d14, d31
    12ec:	9dc5      	ldr	r5, [sp, #788]	; 0x314
    12ee:	811c      	strh	r4, [r3, #8]
    12f0:	4ff0      	ldr	r7, [pc, #960]	; (0x16b4)
    12f2:	e92d 52ac 	stmdb	sp!, {r2, r3, r5, r7, r9, ip, lr}
    12f6:	e59f      	b.n	0xe38
    12f8:	0000      	movs	r0, r0
    12fa:	e595      	b.n	0xe28
    12fc:	3000      	adds	r0, #0
    12fe:	e5d0      	b.n	0xea2
    1300:	0000      	movs	r0, r0
    1302:	e353      	b.n	0x19ac
    1304:	e004      	b.n	0x1310
    1306:	e595      	b.n	0xe34
    1308:	00a4      	lsls	r4, r4, #2
    130a:	0a00      	lsrs	r0, r0, #8
    130c:	1000      	asrs	r0, r0, #32
    130e:	e3a0      	b.n	0x1a52
    1310:	b001      	add	sp, #4
    1312:	e3a0      	b.n	0x1a56
    1314:	6001      	str	r1, [r0, #0]
    1316:	e1a0      	b.n	0x165a
    1318:	2001      	movs	r0, #1
    131a:	e1a0      	b.n	0x165e
    131c:	a007      	add	r0, pc, #28	; (adr r0, 0x133c)
    131e:	e3a0      	b.n	0x1a62
    1320:	9006      	str	r0, [sp, #24]
    1322:	e3a0      	b.n	0x1a66
    1324:	7008      	strb	r0, [r1, #0]
    1326:	e285      	b.n	0x1834
    1328:	1080      	asrs	r0, r0, #2
    132a:	e897 4278 	ldmia.w	r7, {r3, r4, r5, r6, r9, lr}
    132e:	e59f      	b.n	0xe70
    1330:	302b      	adds	r0, #43	; 0x2b
    1332:	e243      	b.n	0x17bc
    1334:	0032      	movs	r2, r6
    1336:	e353      	b.n	0x19e0
    1338:	f103 979f 	b.w	0xd0527a
    133c:	0042      	lsls	r2, r0, #1
    133e:	ea00 1500 	and.w	r5, r0, r0, lsl #4
    1342:	0800      	lsrs	r0, r0, #32
    1344:	151c      	asrs	r4, r3, #20
    1346:	0800      	lsrs	r0, r0, #32
    1348:	14e4      	asrs	r4, r4, #19
    134a:	0800      	lsrs	r0, r0, #32
    134c:	1550      	asrs	r0, r2, #21
    134e:	0800      	lsrs	r0, r0, #32
    1350:	144c      	asrs	r4, r1, #17
    1352:	0800      	lsrs	r0, r0, #32
    1354:	144c      	asrs	r4, r1, #17
    1356:	0800      	lsrs	r0, r0, #32
    1358:	144c      	asrs	r4, r1, #17
    135a:	0800      	lsrs	r0, r0, #32
    135c:	144c      	asrs	r4, r1, #17
    135e:	0800      	lsrs	r0, r0, #32
    1360:	144c      	asrs	r4, r1, #17
    1362:	0800      	lsrs	r0, r0, #32
    1364:	144c      	asrs	r4, r1, #17
    1366:	0800      	lsrs	r0, r0, #32
    1368:	144c      	asrs	r4, r1, #17
    136a:	0800      	lsrs	r0, r0, #32
    136c:	144c      	asrs	r4, r1, #17
    136e:	0800      	lsrs	r0, r0, #32
    1370:	144c      	asrs	r4, r1, #17
    1372:	0800      	lsrs	r0, r0, #32
    1374:	144c      	asrs	r4, r1, #17
    1376:	0800      	lsrs	r0, r0, #32
    1378:	144c      	asrs	r4, r1, #17
    137a:	0800      	lsrs	r0, r0, #32
    137c:	144c      	asrs	r4, r1, #17
    137e:	0800      	lsrs	r0, r0, #32
    1380:	144c      	asrs	r4, r1, #17
    1382:	0800      	lsrs	r0, r0, #32
    1384:	1534      	asrs	r4, r6, #20
    1386:	0800      	lsrs	r0, r0, #32
    1388:	144c      	asrs	r4, r1, #17
    138a:	0800      	lsrs	r0, r0, #32
    138c:	156c      	asrs	r4, r5, #21
    138e:	0800      	lsrs	r0, r0, #32
    1390:	144c      	asrs	r4, r1, #17
    1392:	0800      	lsrs	r0, r0, #32
    1394:	144c      	asrs	r4, r1, #17
    1396:	0800      	lsrs	r0, r0, #32
    1398:	144c      	asrs	r4, r1, #17
    139a:	0800      	lsrs	r0, r0, #32
    139c:	144c      	asrs	r4, r1, #17
    139e:	0800      	lsrs	r0, r0, #32
    13a0:	144c      	asrs	r4, r1, #17
    13a2:	0800      	lsrs	r0, r0, #32
    13a4:	144c      	asrs	r4, r1, #17
    13a6:	0800      	lsrs	r0, r0, #32
    13a8:	144c      	asrs	r4, r1, #17
    13aa:	0800      	lsrs	r0, r0, #32
    13ac:	144c      	asrs	r4, r1, #17
    13ae:	0800      	lsrs	r0, r0, #32
    13b0:	144c      	asrs	r4, r1, #17
    13b2:	0800      	lsrs	r0, r0, #32
    13b4:	144c      	asrs	r4, r1, #17
    13b6:	0800      	lsrs	r0, r0, #32
    13b8:	144c      	asrs	r4, r1, #17
    13ba:	0800      	lsrs	r0, r0, #32
    13bc:	144c      	asrs	r4, r1, #17
    13be:	0800      	lsrs	r0, r0, #32
    13c0:	144c      	asrs	r4, r1, #17
    13c2:	0800      	lsrs	r0, r0, #32
    13c4:	144c      	asrs	r4, r1, #17
    13c6:	0800      	lsrs	r0, r0, #32
    13c8:	144c      	asrs	r4, r1, #17
    13ca:	0800      	lsrs	r0, r0, #32
    13cc:	144c      	asrs	r4, r1, #17
    13ce:	0800      	lsrs	r0, r0, #32
    13d0:	144c      	asrs	r4, r1, #17
    13d2:	0800      	lsrs	r0, r0, #32
    13d4:	144c      	asrs	r4, r1, #17
    13d6:	0800      	lsrs	r0, r0, #32
    13d8:	144c      	asrs	r4, r1, #17
    13da:	0800      	lsrs	r0, r0, #32
    13dc:	144c      	asrs	r4, r1, #17
    13de:	0800      	lsrs	r0, r0, #32
    13e0:	144c      	asrs	r4, r1, #17
    13e2:	0800      	lsrs	r0, r0, #32
    13e4:	144c      	asrs	r4, r1, #17
    13e6:	0800      	lsrs	r0, r0, #32
    13e8:	144c      	asrs	r4, r1, #17
    13ea:	0800      	lsrs	r0, r0, #32
    13ec:	144c      	asrs	r4, r1, #17
    13ee:	0800      	lsrs	r0, r0, #32
    13f0:	144c      	asrs	r4, r1, #17
    13f2:	0800      	lsrs	r0, r0, #32
    13f4:	144c      	asrs	r4, r1, #17
    13f6:	0800      	lsrs	r0, r0, #32
    13f8:	144c      	asrs	r4, r1, #17
    13fa:	0800      	lsrs	r0, r0, #32
    13fc:	144c      	asrs	r4, r1, #17
    13fe:	0800      	lsrs	r0, r0, #32
    1400:	14b4      	asrs	r4, r6, #18
    1402:	0800      	lsrs	r0, r0, #32
    1404:	144c      	asrs	r4, r1, #17
    1406:	0800      	lsrs	r0, r0, #32
    1408:	140c      	asrs	r4, r1, #16
    140a:	0800      	lsrs	r0, r0, #32
    140c:	0000      	movs	r0, r0
    140e:	e35e      	b.n	0x1ace
    1410:	005b      	lsls	r3, r3, #1
    1412:	0a00      	lsrs	r0, r0, #8
    1414:	6001      	str	r1, [r0, #0]
    1416:	e3a0      	b.n	0x1b5a
    1418:	8008      	strh	r0, [r1, #0]
    141a:	e3a0      	b.n	0x1b5e
    141c:	e001      	b.n	0x1422
    141e:	e24e      	b.n	0x18be
    1420:	361e      	adds	r6, #30
    1422:	e1a0      	b.n	0x1766
    1424:	30b3      	adds	r0, #179	; 0xb3
    1426:	e197      	b.n	0x1758
    1428:	1102      	asrs	r2, r0, #4
    142a:	e1a0      	b.n	0x176e
    142c:	80b1      	strh	r1, [r6, #4]
    142e:	e18c      	b.n	0x174a
    1430:	1001      	asrs	r1, r0, #32
    1432:	e08c      	b.n	0x154e
    1434:	30b2      	adds	r0, #178	; 0xb2
    1436:	e1c1      	b.n	0x17bc
    1438:	3103      	adds	r1, #3
    143a:	e08c      	b.n	0x1556
    143c:	1006      	asrs	r6, r0, #32
    143e:	e082      	b.n	0x1546
    1440:	20b2      	movs	r0, #178	; 0xb2
    1442:	e1c3      	b.n	0x17cc
    1444:	2801      	cmp	r0, #1
    1446:	e1a0      	b.n	0x178a
    1448:	2822      	cmp	r0, #34	; 0x22
    144a:	e1a0      	b.n	0x178e
    144c:	3001      	adds	r0, #1
    144e:	e5f0      	b.n	0x1032
    1450:	1001      	asrs	r1, r0, #32
    1452:	e273      	b.n	0x193c
    1454:	1000      	asrs	r0, r0, #32
    1456:	33a0      	adds	r3, #160	; 0xa0
    1458:	0004      	movs	r4, r0
    145a:	e152      	b.n	0x1702
    145c:	1001      	asrs	r1, r0, #32
    145e:	8381      	strh	r1, [r0, #28]
    1460:	0000      	movs	r0, r0
    1462:	e351      	b.n	0x1b08
    1464:	1001      	asrs	r1, r0, #32
    1466:	e3a0      	b.n	0x1baa
    1468:	ffb0 0aff 			; <UNDEFINED> instruction: 0xffb00aff
    146c:	0000      	movs	r0, r0
    146e:	e356      	b.n	0x1b1e
    1470:	e004      	b.n	0x147c
    1472:	1585      	asrs	r5, r0, #22
    1474:	1a01      	subs	r1, r0, r0
    1476:	e242      	b.n	0x18fe
    1478:	3000      	adds	r0, #0
    147a:	e271      	b.n	0x1960
    147c:	0000      	movs	r0, r0
    147e:	e585      	b.n	0xf8c
    1480:	e004      	b.n	0x148c
    1482:	e595      	b.n	0xfb0
    1484:	3001      	adds	r0, #1
    1486:	e0a3      	b.n	0x15d0
    1488:	0000      	movs	r0, r0
    148a:	e35e      	b.n	0x1b4a
    148c:	e003      	b.n	0x1496
    148e:	01a0      	lsls	r0, r4, #6
    1490:	e001      	b.n	0x1496
    1492:	13a0      	asrs	r0, r4, #14
    1494:	0000      	movs	r0, r0
    1496:	e35e      	b.n	0x1b56
    1498:	003d      	movs	r5, r7
    149a:	1a00      	subs	r0, r0, r0
    149c:	300c      	adds	r0, #12
    149e:	e595      	b.n	0xfcc
    14a0:	2102      	movs	r1, #2
    14a2:	e1a0      	b.n	0x17e6
    14a4:	000e      	movs	r6, r1
    14a6:	e1a0      	b.n	0x17ea
    14a8:	e0b2      	b.n	0x1610
    14aa:	e183      	b.n	0x17b4
    14ac:	4ff0      	ldr	r7, [pc, #960]	; (0x1870)
    14ae:	e8bd ff1e 	ldmia.w	sp!, {r1, r2, r3, r4, r8, r9, sl, fp, ip, sp, lr, pc}
    14b2:	e12f      	b.n	0x1714
    14b4:	3102      	adds	r1, #2
    14b6:	e1a0      	b.n	0x17fa
    14b8:	0c02      	lsrs	r2, r0, #16
    14ba:	e35e      	b.n	0x1b7a
    14bc:	a0b3      	add	r0, pc, #716	; (adr r0, 0x178c)
    14be:	e18c      	b.n	0x17da
    14c0:	002f      	movs	r7, r5
    14c2:	0a00      	lsrs	r0, r0, #8
    14c4:	108e      	asrs	r6, r1, #2
    14c6:	e1a0      	b.n	0x180a
    14c8:	3001      	adds	r0, #1
    14ca:	e282      	b.n	0x19d2
    14cc:	20b1      	movs	r0, #177	; 0xb1
    14ce:	e187      	b.n	0x17e0
    14d0:	2803      	cmp	r0, #3
    14d2:	e1a0      	b.n	0x1816
    14d4:	2822      	cmp	r0, #34	; 0x22
    14d6:	e1a0      	b.n	0x181a
    14d8:	e001      	b.n	0x14de
    14da:	e28e      	b.n	0x19fa
    14dc:	6001      	str	r1, [r0, #0]
    14de:	e3a0      	b.n	0x1c22
    14e0:	ffd9 eaff 			; <UNDEFINED> instruction: 0xffd9eaff
    14e4:	1001      	asrs	r1, r0, #32
    14e6:	e282      	b.n	0x19ee
    14e8:	3102      	adds	r1, #2
    14ea:	e1a0      	b.n	0x182e
    14ec:	2801      	cmp	r0, #1
    14ee:	e1a0      	b.n	0x1832
    14f0:	1004      	asrs	r4, r0, #32
    14f2:	e3a0      	b.n	0x1c36
    14f4:	2822      	cmp	r0, #34	; 0x22
    14f6:	e1a0      	b.n	0x183a
    14f8:	10b3      	asrs	r3, r6, #2
    14fa:	e18c      	b.n	0x1816
    14fc:	ffd2 eaff 			; <UNDEFINED> instruction: 0xffd2eaff
    1500:	1001      	asrs	r1, r0, #32
    1502:	e282      	b.n	0x1a0a
    1504:	3102      	adds	r1, #2
    1506:	e1a0      	b.n	0x184a
    1508:	2801      	cmp	r0, #1
    150a:	e1a0      	b.n	0x184e
    150c:	1003      	asrs	r3, r0, #32
    150e:	e3a0      	b.n	0x1c52
    1510:	2822      	cmp	r0, #34	; 0x22
    1512:	e1a0      	b.n	0x1856
    1514:	10b3      	asrs	r3, r6, #2
    1516:	e18c      	b.n	0x1832
    1518:	ffcb eaff 			; <UNDEFINED> instruction: 0xffcbeaff
    151c:	1001      	asrs	r1, r0, #32
    151e:	e282      	b.n	0x1a26
    1520:	3102      	adds	r1, #2
    1522:	e1a0      	b.n	0x1866
    1524:	2801      	cmp	r0, #1
    1526:	e1a0      	b.n	0x186a
    1528:	2822      	cmp	r0, #34	; 0x22
    152a:	e1a0      	b.n	0x186e
    152c:	90b3      	str	r0, [sp, #716]	; 0x2cc
    152e:	e18c      	b.n	0x184a
    1530:	ffc5 eaff 			; <UNDEFINED> instruction: 0xffc5eaff
    1534:	1001      	asrs	r1, r0, #32
    1536:	e282      	b.n	0x1a3e
    1538:	3102      	adds	r1, #2
    153a:	e1a0      	b.n	0x187e
    153c:	2801      	cmp	r0, #1
    153e:	e1a0      	b.n	0x1882
    1540:	1002      	asrs	r2, r0, #32
    1542:	e3a0      	b.n	0x1c86
    1544:	2822      	cmp	r0, #34	; 0x22
    1546:	e1a0      	b.n	0x188a
    1548:	10b3      	asrs	r3, r6, #2
    154a:	e18c      	b.n	0x1866
    154c:	ffbe eaff 			; <UNDEFINED> instruction: 0xffbeeaff
    1550:	1001      	asrs	r1, r0, #32
    1552:	e282      	b.n	0x1a5a
    1554:	3102      	adds	r1, #2
    1556:	e1a0      	b.n	0x189a
    1558:	2801      	cmp	r0, #1
    155a:	e1a0      	b.n	0x189e
    155c:	1005      	asrs	r5, r0, #32
    155e:	e3a0      	b.n	0x1ca2
    1560:	2822      	cmp	r0, #34	; 0x22
    1562:	e1a0      	b.n	0x18a6
    1564:	10b3      	asrs	r3, r6, #2
    1566:	e18c      	b.n	0x1882
    1568:	ffb7 eaff 			; <UNDEFINED> instruction: 0xffb7eaff
    156c:	1001      	asrs	r1, r0, #32
    156e:	e282      	b.n	0x1a76
    1570:	3102      	adds	r1, #2
    1572:	e1a0      	b.n	0x18b6
    1574:	2801      	cmp	r0, #1
    1576:	e1a0      	b.n	0x18ba
    1578:	2822      	cmp	r0, #34	; 0x22
    157a:	e1a0      	b.n	0x18be
    157c:	b0b3      	sub	sp, #204	; 0xcc
    157e:	e18c      	b.n	0x189a
    1580:	ffb1 eaff 			; <UNDEFINED> instruction: 0xffb1eaff
    1584:	0000      	movs	r0, r0
    1586:	e356      	b.n	0x1c36
    1588:	e004      	b.n	0x1594
    158a:	1585      	asrs	r5, r0, #22
    158c:	0000      	movs	r0, r0
    158e:	e351      	b.n	0x1c34
    1590:	0000      	movs	r0, r0
    1592:	1585      	asrs	r5, r0, #22
    1594:	0001      	movs	r1, r0
    1596:	e3a0      	b.n	0x1cda
    1598:	4ff0      	ldr	r7, [pc, #960]	; (0x195c)
    159a:	e8bd ff1e 	ldmia.w	sp!, {r1, r2, r3, r4, r8, r9, sl, fp, ip, sp, lr, pc}
    159e:	e12f      	b.n	0x1800
    15a0:	2003      	movs	r0, #3
    15a2:	e1a0      	b.n	0x18e6
    15a4:	ffb7 eaff 			; <UNDEFINED> instruction: 0xffb7eaff
    15a8:	0088      	lsls	r0, r1, #2
    15aa:	0300      	lsls	r0, r0, #12
    15ac:	0fff      	lsrs	r7, r7, #31
    15ae:	0000      	movs	r0, r0
    15b0:	4ff0      	ldr	r7, [pc, #960]	; (0x1974)
    15b2:	e92d 7144 	stmdb	sp!, {r2, r6, r8, ip, sp, lr}
    15b6:	e59f      	b.n	0x10f8
    15b8:	000c      	movs	r4, r1
    15ba:	e597      	b.n	0x10ec
    15bc:	30b0      	adds	r0, #176	; 0xb0
    15be:	e1d0      	b.n	0x1962
    15c0:	0000      	movs	r0, r0
    15c2:	e353      	b.n	0x1c6c
    15c4:	0032      	movs	r2, r6
    15c6:	0a00      	lsrs	r0, r0, #8
    15c8:	6000      	str	r0, [r0, #0]
    15ca:	e3a0      	b.n	0x1d0e
    15cc:	a000      	add	r0, pc, #0	; (adr r0, 0x15d0)
    15ce:	e1a0      	b.n	0x1912
    15d0:	c006      	stmia	r0!, {r1, r2}
    15d2:	e1a0      	b.n	0x1916
    15d4:	1006      	asrs	r6, r0, #32
    15d6:	e1a0      	b.n	0x191a
    15d8:	4010      	ands	r0, r2
    15da:	e597      	b.n	0x110c
    15dc:	5120      	str	r0, [r4, r4]
    15de:	e59f      	b.n	0x1120
    15e0:	9120      	str	r1, [sp, #128]	; 0x80
    15e2:	e59f      	b.n	0x1124
    15e4:	8120      	strh	r0, [r4, #8]
    15e6:	e59f      	b.n	0x1128
    15e8:	e120      	b.n	0x182c
    15ea:	e59f      	b.n	0x112c
    15ec:	3001      	adds	r0, #1
    15ee:	e243      	b.n	0x1a78
    15f0:	0007      	movs	r7, r0
    15f2:	e353      	b.n	0x1c9c
    15f4:	f103 979f 	b.w	0xd05536
    15f8:	0023      	movs	r3, r4
    15fa:	ea00 16f8 	and.w	r6, r0, r8, ror #7
    15fe:	0800      	lsrs	r0, r0, #32
    1600:	16b4      	asrs	r4, r6, #26
    1602:	0800      	lsrs	r0, r0, #32
    1604:	169c      	asrs	r4, r3, #26
    1606:	0800      	lsrs	r0, r0, #32
    1608:	16e0      	asrs	r0, r4, #27
    160a:	0800      	lsrs	r0, r0, #32
    160c:	16bc      	asrs	r4, r7, #26
    160e:	0800      	lsrs	r0, r0, #32
    1610:	164c      	asrs	r4, r1, #25
    1612:	0800      	lsrs	r0, r0, #32
    1614:	1634      	asrs	r4, r6, #24
    1616:	0800      	lsrs	r0, r0, #32
    1618:	161c      	asrs	r4, r3, #24
    161a:	0800      	lsrs	r0, r0, #32
    161c:	2000      	movs	r0, #0
    161e:	e595      	b.n	0x114c
    1620:	308c      	adds	r0, #140	; 0x8c
    1622:	e1a0      	b.n	0x1966
    1624:	30b3      	adds	r0, #179	; 0xb3
    1626:	e192      	b.n	0x194e
    1628:	0000      	movs	r0, r0
    162a:	e353      	b.n	0x1cd4
    162c:	10b2      	asrs	r2, r6, #2
    162e:	11da      	asrs	r2, r3, #7
    1630:	000a      	movs	r2, r1
    1632:	ea00 2000 	and.w	r0, r0, r0, lsl #8
    1636:	e595      	b.n	0x1164
    1638:	308c      	adds	r0, #140	; 0x8c
    163a:	e1a0      	b.n	0x197e
    163c:	30b3      	adds	r0, #179	; 0xb3
    163e:	e192      	b.n	0x1966
    1640:	0000      	movs	r0, r0
    1642:	e353      	b.n	0x1cec
    1644:	10b2      	asrs	r2, r6, #2
    1646:	01da      	lsls	r2, r3, #7
    1648:	0004      	movs	r4, r0
    164a:	ea00 6001 	and.w	r0, r0, r1, lsl #24
    164e:	e4d4      	b.n	0xffa
    1650:	2000      	movs	r0, #0
    1652:	e595      	b.n	0x1180
    1654:	308c      	adds	r0, #140	; 0x8c
    1656:	e1a0      	b.n	0x199a
    1658:	60b3      	str	r3, [r6, #8]
    165a:	e182      	b.n	0x1962
    165c:	6001      	str	r1, [r0, #0]
    165e:	e3a0      	b.n	0x1da2
    1660:	1001      	asrs	r1, r0, #32
    1662:	e281      	b.n	0x1b68
    1664:	a101      	add	r1, pc, #4	; (adr r1, 0x166c)
    1666:	e1a0      	b.n	0x19aa
    1668:	30ba      	adds	r0, #186	; 0xba
    166a:	e190      	b.n	0x198e
    166c:	000e      	movs	r6, r1
    166e:	e15c      	b.n	0x192a
    1670:	2000      	movs	r0, #0
    1672:	83a0      	strh	r0, [r4, #28]
    1674:	2001      	movs	r0, #1
    1676:	93a0      	str	r3, [sp, #640]	; 0x280
    1678:	0000      	movs	r0, r0
    167a:	e353      	b.n	0x1d24
    167c:	2000      	movs	r0, #0
    167e:	03a0      	lsls	r0, r4, #14
    1680:	0000      	movs	r0, r0
    1682:	e352      	b.n	0x1d2a
    1684:	a00a      	add	r0, pc, #40	; (adr r0, 0x16b0)
    1686:	e080      	b.n	0x178a
    1688:	ffd7 1aff 			; <UNDEFINED> instruction: 0xffd71aff
    168c:	0000      	movs	r0, r0
    168e:	e356      	b.n	0x1d3e
    1690:	4010      	ands	r0, r2
    1692:	1587      	asrs	r7, r0, #22
    1694:	4ff0      	ldr	r7, [pc, #960]	; (0x1a58)
    1696:	e8bd ff1e 	ldmia.w	sp!, {r1, r2, r3, r4, r8, r9, sl, fp, ip, sp, lr, pc}
    169a:	e12f      	b.n	0x18fc
    169c:	a000      	add	r0, pc, #0	; (adr r0, 0x16a0)
    169e:	e595      	b.n	0x11cc
    16a0:	208c      	movs	r0, #140	; 0x8c
    16a2:	e1a0      	b.n	0x19e6
    16a4:	30b2      	adds	r0, #178	; 0xb2
    16a6:	e19a      	b.n	0x19de
    16a8:	3001      	adds	r0, #1
    16aa:	e283      	b.n	0x1bb4
    16ac:	30b2      	adds	r0, #178	; 0xb2
    16ae:	e18a      	b.n	0x19c6
    16b0:	ffea eaff 			; <UNDEFINED> instruction: 0xffeaeaff
    16b4:	c001      	stmia	r0!, {r0}
    16b6:	e24c      	b.n	0x1b52
    16b8:	ffe8 eaff 			; <UNDEFINED> instruction: 0xffe8eaff
    16bc:	a000      	add	r0, pc, #0	; (adr r0, 0x16c0)
    16be:	e595      	b.n	0x11ec
    16c0:	2000      	movs	r0, #0
    16c2:	e598      	b.n	0x11f6
    16c4:	308c      	adds	r0, #140	; 0x8c
    16c6:	e1a0      	b.n	0x1a0a
    16c8:	a0b3      	add	r0, pc, #716	; (adr r0, 0x1998)
    16ca:	e19a      	b.n	0x1a02
    16cc:	3000      	adds	r0, #0
    16ce:	e599      	b.n	0x1204
    16d0:	b001      	add	sp, #4
    16d2:	e282      	b.n	0x1bda
    16d4:	b000      	add	sp, #0
    16d6:	e588      	b.n	0x11ea
    16d8:	a002      	add	r0, pc, #8	; (adr r0, 0x16e4)
    16da:	e7c3      	b.n	0x1664
    16dc:	ffdf eaff 			; <UNDEFINED> instruction: 0xffdfeaff
    16e0:	a000      	add	r0, pc, #0	; (adr r0, 0x16e4)
    16e2:	e595      	b.n	0x1210
    16e4:	208c      	movs	r0, #140	; 0x8c
    16e6:	e1a0      	b.n	0x1a2a
    16e8:	30b2      	adds	r0, #178	; 0xb2
    16ea:	e19a      	b.n	0x1a22
    16ec:	3001      	adds	r0, #1
    16ee:	e243      	b.n	0x1b78
    16f0:	30b2      	adds	r0, #178	; 0xb2
    16f2:	e18a      	b.n	0x1a0a
    16f4:	ffd9 eaff 			; <UNDEFINED> instruction: 0xffd9eaff
    16f8:	c001      	stmia	r0!, {r0}
    16fa:	e28c      	b.n	0x1c16
    16fc:	ffd7 eaff 			; <UNDEFINED> instruction: 0xffd7eaff
    1700:	0088      	lsls	r0, r1, #2
    1702:	0300      	lsls	r0, r0, #12
    1704:	0160      	lsls	r0, r4, #5
    1706:	0300      	lsls	r0, r0, #12
    1708:	015c      	lsls	r4, r3, #5
    170a:	0300      	lsls	r0, r0, #12
    170c:	0164      	lsls	r4, r4, #5
    170e:	0300      	lsls	r0, r0, #12
    1710:	0fff      	lsrs	r7, r7, #31
    1712:	0000      	movs	r0, r0
    1714:	41f0      	rors	r0, r6
    1716:	e92d 4000 	stmdb	sp!, {lr}
    171a:	e3a0      	b.n	0x1e5e
    171c:	30c4      	adds	r0, #196	; 0xc4
    171e:	e59f      	b.n	0x1260
    1720:	3000      	adds	r0, #0
    1722:	e593      	b.n	0x124c
    1724:	70c0      	strb	r0, [r0, #3]
    1726:	e59f      	b.n	0x1268
    1728:	3000      	adds	r0, #0
    172a:	e593      	b.n	0x1254
    172c:	0901      	lsrs	r1, r0, #4
    172e:	e3a0      	b.n	0x1e72
    1730:	3014      	adds	r0, #20
    1732:	e587      	b.n	0x1244
    1734:	4004      	ands	r4, r0
    1736:	e587      	b.n	0x1248
    1738:	fea6 ebff 			; <UNDEFINED> instruction: 0xfea6ebff
    173c:	000c      	movs	r4, r1
    173e:	e587      	b.n	0x1250
    1740:	0b01      	lsrs	r1, r0, #12
    1742:	e3a0      	b.n	0x1e86
    1744:	fea3 ebff 			; <UNDEFINED> instruction: 0xfea3ebff
    1748:	0008      	movs	r0, r1
    174a:	e587      	b.n	0x125c
    174c:	0a02      	lsrs	r2, r0, #8
    174e:	e3a0      	b.n	0x1e92
    1750:	fea0 ebff 			; <UNDEFINED> instruction: 0xfea0ebff
    1754:	1094      	asrs	r4, r2, #2
    1756:	e59f      	b.n	0x1298
    1758:	2014      	movs	r0, #20
    175a:	e597      	b.n	0x128c
    175c:	3090      	adds	r0, #144	; 0x90
    175e:	e59f      	b.n	0x12a0
    1760:	0000      	movs	r0, r0
    1762:	e581      	b.n	0x1268
    1764:	0001      	movs	r1, r0
    1766:	e282      	b.n	0x1c6e
    1768:	3000      	adds	r0, #0
    176a:	e587      	b.n	0x127c
    176c:	fe99 ebff 			; <UNDEFINED> instruction: 0xfe99ebff
    1770:	0010      	movs	r0, r2
    1772:	e587      	b.n	0x1284
    1774:	0a01      	lsrs	r1, r0, #8
    1776:	e3a0      	b.n	0x1eba
    1778:	fe96 ebff 			; <UNDEFINED> instruction: 0xfe96ebff
    177c:	2074      	movs	r0, #116	; 0x74
    177e:	e59f      	b.n	0x12c0
    1780:	3074      	adds	r0, #116	; 0x74
    1782:	e59f      	b.n	0x12c4
    1784:	0000      	movs	r0, r0
    1786:	e582      	b.n	0x128e
    1788:	0001      	movs	r1, r0
    178a:	e3a0      	b.n	0x1ece
    178c:	4000      	ands	r0, r0
    178e:	e583      	b.n	0x1298
    1790:	feb6 ebff 			; <UNDEFINED> instruction: 0xfeb6ebff
    1794:	3014      	adds	r0, #20
    1796:	e597      	b.n	0x12c8
    1798:	0004      	movs	r4, r0
    179a:	e153      	b.n	0x1a44
    179c:	000f      	movs	r7, r1
    179e:	da00      	bge.n	0x17a2
    17a0:	6058      	str	r0, [r3, #4]
    17a2:	e59f      	b.n	0x12e4
    17a4:	5058      	str	r0, [r3, r1]
    17a6:	e59f      	b.n	0x12e8
    17a8:	feb6 ebff 			; <UNDEFINED> instruction: 0xfeb6ebff
    17ac:	3095      	adds	r0, #149	; 0x95
    17ae:	e0c2      	b.n	0x1936
    17b0:	3fc0      	subs	r7, #192	; 0xc0
    17b2:	e1a0      	b.n	0x1af6
    17b4:	2000      	movs	r0, #0
    17b6:	e082      	b.n	0x18be
    17b8:	32c2      	adds	r2, #194	; 0xc2
    17ba:	e063      	b.n	0x1884
    17bc:	3283      	adds	r2, #131	; 0x83
    17be:	e063      	b.n	0x1888
    17c0:	0083      	lsls	r3, r0, #2
    17c2:	e040      	b.n	0x1846
    17c4:	2010      	movs	r0, #16
    17c6:	e287      	b.n	0x1cd8
    17c8:	000c      	movs	r4, r1
    17ca:	e892 1000 	ldmia.w	r2, {ip}
    17ce:	e7d6      	b.n	0x177e
    17d0:	1004      	asrs	r4, r0, #32
    17d2:	e7c2      	b.n	0x175a
    17d4:	4001      	ands	r1, r0
    17d6:	e284      	b.n	0x1ce2
    17d8:	0004      	movs	r4, r0
    17da:	e153      	b.n	0x1a84
    17dc:	fff1 caff 			; <UNDEFINED> instruction: 0xfff1caff
    17e0:	41f0      	rors	r0, r6
    17e2:	e8bd ff1e 	ldmia.w	sp!, {r1, r2, r3, r4, r8, r9, sl, fp, ip, sp, lr, pc}
    17e6:	e12f      	b.n	0x1a48
    17e8:	0158      	lsls	r0, r3, #5
    17ea:	0300      	lsls	r0, r0, #12
    17ec:	0088      	lsls	r0, r1, #2
    17ee:	0300      	lsls	r0, r0, #12
    17f0:	0160      	lsls	r0, r4, #5
    17f2:	0300      	lsls	r0, r0, #12
    17f4:	68dc      	ldr	r4, [r3, #12]
    17f6:	0800      	lsrs	r0, r0, #32
    17f8:	015c      	lsls	r4, r3, #5
    17fa:	0300      	lsls	r0, r0, #12
    17fc:	0164      	lsls	r4, r4, #5
    17fe:	0300      	lsls	r0, r0, #12
    1800:	6990      	ldr	r0, [r2, #24]
    1802:	0800      	lsrs	r0, r0, #32
    1804:	0843      	lsrs	r3, r0, #1
    1806:	8421      	strh	r1, [r4, #32]
    1808:	4010      	ands	r0, r2
    180a:	e92d feb7 	stmdb	sp!, {r0, r1, r2, r4, r5, r7, r9, sl, fp, ip, sp, lr, pc}
    180e:	ebff 4010 			; <UNDEFINED> instruction: 0xebff4010
    1812:	e8bd ff65 	ldmia.w	sp!, {r0, r2, r5, r6, r8, r9, sl, fp, ip, sp, lr, pc}
    1816:	eaff 4010 			; <UNDEFINED> instruction: 0xeaff4010
    181a:	e92d 304c 	stmdb	sp!, {r2, r3, r6, ip, sp}
    181e:	e59f      	b.n	0x1360
    1820:	404c      	eors	r4, r1
    1822:	e59f      	b.n	0x1364
    1824:	3000      	adds	r0, #0
    1826:	e593      	b.n	0x1350
    1828:	1000      	asrs	r0, r0, #32
    182a:	e594      	b.n	0x1356
    182c:	0003      	movs	r3, r0
    182e:	e1a0      	b.n	0x1b72
    1830:	1001      	asrs	r1, r0, #32
    1832:	e083      	b.n	0x193c
    1834:	fea0 ebff 			; <UNDEFINED> instruction: 0xfea0ebff
    1838:	3038      	adds	r0, #56	; 0x38
    183a:	e59f      	b.n	0x137c
    183c:	2000      	movs	r0, #0
    183e:	e594      	b.n	0x136a
    1840:	3014      	adds	r0, #20
    1842:	e593      	b.n	0x136c
    1844:	0003      	movs	r3, r0
    1846:	e152      	b.n	0x1aee
    1848:	0000      	movs	r0, r0
    184a:	13a0      	asrs	r0, r4, #14
    184c:	0005      	movs	r5, r0
    184e:	1a00      	subs	r0, r0, r0
    1850:	3024      	adds	r0, #36	; 0x24
    1852:	e59f      	b.n	0x1394
    1854:	3000      	adds	r0, #0
    1856:	e593      	b.n	0x1380
    1858:	300c      	adds	r0, #12
    185a:	e593      	b.n	0x1384
    185c:	3000      	adds	r0, #0
    185e:	e043      	b.n	0x18e8
    1860:	0000      	movs	r0, r0
    1862:	e273      	b.n	0x1d4c
    1864:	0003      	movs	r3, r0
    1866:	e0a0      	b.n	0x19aa
    1868:	4010      	ands	r0, r2
    186a:	e8bd ff1e 	ldmia.w	sp!, {r1, r2, r3, r4, r8, r9, sl, fp, ip, sp, lr, pc}
    186e:	e12f      	b.n	0x1ad0
    1870:	015c      	lsls	r4, r3, #5
    1872:	0300      	lsls	r0, r0, #12
    1874:	0164      	lsls	r4, r4, #5
    1876:	0300      	lsls	r0, r0, #12
    1878:	0088      	lsls	r0, r1, #2
    187a:	0300      	lsls	r0, r0, #12
    187c:	0158      	lsls	r0, r3, #5
    187e:	0300      	lsls	r0, r0, #12
    1880:	1101      	asrs	r1, r0, #4
    1882:	e080      	b.n	0x1986
    1884:	4ff8      	ldr	r7, [pc, #992]	; (0x1c68)
    1886:	e92d 3aa3 	stmdb	sp!, {r0, r1, r5, r7, r9, fp, ip, sp}
    188a:	e281      	b.n	0x1d90
    188c:	4124      	asrs	r4, r4
    188e:	e593      	b.n	0x13b8
    1890:	0001      	movs	r1, r0
    1892:	e374      	b.n	0x1f7e
    1894:	0033      	movs	r3, r6
    1896:	0a00      	lsrs	r0, r0, #8
    1898:	5000      	str	r0, [r0, r0]
    189a:	e1a0      	b.n	0x1bde
    189c:	7002      	strb	r2, [r0, #0]
    189e:	e1a0      	b.n	0x1be2
    18a0:	a000      	add	r0, pc, #0	; (adr r0, 0x18a4)
    18a2:	e3a0      	b.n	0x1fe6
    18a4:	80cc      	strh	r4, [r1, #6]
    18a6:	e59f      	b.n	0x13e8
    18a8:	90cc      	str	r0, [sp, #816]	; 0x330
    18aa:	e59f      	b.n	0x13ec
    18ac:	6aa2      	ldr	r2, [r4, #40]	; 0x28
    18ae:	e281      	b.n	0x1db4
    18b0:	0003      	movs	r3, r0
    18b2:	ea00 4009 	and.w	r0, r0, r9, lsl #16
    18b6:	e084      	b.n	0x19c2
    18b8:	4104      	asrs	r4, r0
    18ba:	e795      	b.n	0x17e8
    18bc:	0001      	movs	r1, r0
    18be:	e374      	b.n	0x1faa
    18c0:	0025      	movs	r5, r4
    18c2:	0a00      	lsrs	r0, r0, #8
    18c4:	3204      	adds	r2, #4
    18c6:	e085      	b.n	0x19d4
    18c8:	1014      	asrs	r4, r2, #32
    18ca:	e593      	b.n	0x13f4
    18cc:	2008      	movs	r0, #8
    18ce:	e081      	b.n	0x19d4
    18d0:	2102      	movs	r1, #2
    18d2:	e085      	b.n	0x19e0
    18d4:	3d1c      	subs	r5, #28
    18d6:	e596      	b.n	0x1406
    18d8:	2004      	movs	r0, #4
    18da:	e592      	b.n	0x1402
    18dc:	3001      	adds	r0, #1
    18de:	e283      	b.n	0x1de8
    18e0:	0002      	movs	r2, r0
    18e2:	e153      	b.n	0x1b8c
    18e4:	fff2 1aff 			; <UNDEFINED> instruction: 0xfff21aff
    18e8:	b204      	sxth	r4, r0
    18ea:	e1a0      	b.n	0x1c2e
    18ec:	300b      	adds	r0, #11
    18ee:	e085      	b.n	0x19fc
    18f0:	3018      	adds	r0, #24
    18f2:	e283      	b.n	0x1dfc
    18f4:	000c      	movs	r4, r1
    18f6:	e893 2003 	ldmia.w	r3, {r0, r1, sp}
    18fa:	e042      	b.n	0x1982
    18fc:	300c      	adds	r0, #12
    18fe:	e595      	b.n	0x142c
    1900:	0007      	movs	r7, r0
    1902:	e152      	b.n	0x1baa
    1904:	2007      	movs	r0, #7
    1906:	a1a0      	add	r1, pc, #640	; (adr r1, 0x1b88)
    1908:	0003      	movs	r3, r0
    190a:	e151      	b.n	0x1bb0
    190c:	0004      	movs	r4, r0
    190e:	0a00      	lsrs	r0, r0, #8
    1910:	0000      	movs	r0, r0
    1912:	e352      	b.n	0x1fba
    1914:	ffe6 0aff 			; <UNDEFINED> instruction: 0xffe60aff
    1918:	0005      	movs	r5, r0
    191a:	e1a0      	b.n	0x1c5e
    191c:	ffd7 ebff 			; <UNDEFINED> instruction: 0xffd7ebff
    1920:	2000      	movs	r0, #0
    1922:	e1a0      	b.n	0x1c66
    1924:	3001      	adds	r0, #1
    1926:	e224      	b.n	0x1d72
    1928:	0000      	movs	r0, r0
    192a:	e352      	b.n	0x1fd2
    192c:	b00b      	add	sp, #44	; 0x2c
    192e:	e085      	b.n	0x1a3c
    1930:	3203      	adds	r2, #3
    1932:	e085      	b.n	0x1a40
    1934:	ffde daff 			; <UNDEFINED> instruction: 0xffdedaff
    1938:	101c      	asrs	r4, r3, #32
    193a:	e59b      	b.n	0x1474
    193c:	1002      	asrs	r2, r0, #32
    193e:	e081      	b.n	0x1a44
    1940:	101c      	asrs	r4, r3, #32
    1942:	e58b      	b.n	0x145c
    1944:	101c      	asrs	r4, r3, #32
    1946:	e593      	b.n	0x1470
    1948:	7002      	strb	r2, [r0, #0]
    194a:	e057      	b.n	0x19fc
    194c:	1002      	asrs	r2, r0, #32
    194e:	e041      	b.n	0x19d4
    1950:	a002      	add	r0, pc, #8	; (adr r0, 0x195c)
    1952:	e08a      	b.n	0x1a6a
    1954:	101c      	asrs	r4, r3, #32
    1956:	e583      	b.n	0x1460
    1958:	ffd5 1aff 			; <UNDEFINED> instruction: 0xffd51aff
    195c:	000a      	movs	r2, r1
    195e:	e1a0      	b.n	0x1ca2
    1960:	4ff8      	ldr	r7, [pc, #992]	; (0x1d44)
    1962:	e8bd ff1e 	ldmia.w	sp!, {r1, r2, r3, r4, r8, r9, sl, fp, ip, sp, lr, pc}
    1966:	e12f      	b.n	0x1bc8
    1968:	a000      	add	r0, pc, #0	; (adr r0, 0x196c)
    196a:	e3a0      	b.n	0x20ae
    196c:	000a      	movs	r2, r1
    196e:	e1a0      	b.n	0x1cb2
    1970:	4ff8      	ldr	r7, [pc, #992]	; (0x1d54)
    1972:	e8bd ff1e 	ldmia.w	sp!, {r1, r2, r3, r4, r8, r9, sl, fp, ip, sp, lr, pc}
    1976:	e12f      	b.n	0x1bd8
    1978:	8b46      	ldrh	r6, [r0, #26]
    197a:	0002      	movs	r2, r0
    197c:	0906      	lsrs	r6, r0, #4
    197e:	0002      	movs	r2, r0
    1980:	4ff0      	ldr	r7, [pc, #960]	; (0x1d44)
    1982:	e92d 32c8 	stmdb	sp!, {r3, r6, r7, r9, ip, sp}
    1986:	e59f      	b.n	0x14c8
    1988:	3000      	adds	r0, #0
    198a:	e593      	b.n	0x14b4
    198c:	92c4      	str	r2, [sp, #784]	; 0x310
    198e:	e59f      	b.n	0x14d0
    1990:	3000      	adds	r0, #0
    1992:	e593      	b.n	0x14bc
    1994:	d00c      	beq.n	0x19b0
    1996:	e24d      	b.n	0x1e34
    1998:	0001      	movs	r1, r0
    199a:	e3a0      	b.n	0x20de
    199c:	3000      	adds	r0, #0
    199e:	e589      	b.n	0x14b4
    19a0:	fe32 ebff 			; <UNDEFINED> instruction: 0xfe32ebff
    19a4:	8000      	strh	r0, [r0, #0]
    19a6:	e599      	b.n	0x14dc
    19a8:	3088      	adds	r0, #136	; 0x88
    19aa:	e1a0      	b.n	0x1cee
    19ac:	4003      	ands	r3, r0
    19ae:	e1a0      	b.n	0x1cf2
    19b0:	02a4      	lsls	r4, r4, #10
    19b2:	e59f      	b.n	0x14f4
    19b4:	3004      	adds	r0, #4
    19b6:	e58d      	b.n	0x14d4
    19b8:	fe06 ebff 			; <UNDEFINED> instruction: 0xfe06ebff
    19bc:	8000      	strh	r0, [r0, #0]
    19be:	e599      	b.n	0x14f4
    19c0:	2001      	movs	r0, #1
    19c2:	e288      	b.n	0x1ed6
    19c4:	1082      	asrs	r2, r0, #2
    19c6:	e1a0      	b.n	0x1d0a
    19c8:	3001      	adds	r0, #1
    19ca:	e284      	b.n	0x1ed6
    19cc:	0000      	movs	r0, r0
    19ce:	e351      	b.n	0x2074
    19d0:	0004      	movs	r4, r0
    19d2:	e589      	b.n	0x14e8
    19d4:	1000      	asrs	r0, r0, #32
    19d6:	e580      	b.n	0x14da
    19d8:	3000      	adds	r0, #0
    19da:	e58d      	b.n	0x14f8
    19dc:	0008      	movs	r0, r1
    19de:	da00      	bge.n	0x19e2
    19e0:	c000      	stmia	r0!, {}
    19e2:	e3e0      	b.n	0x21a6
    19e4:	2182      	movs	r1, #130	; 0x82
    19e6:	e080      	b.n	0x1aea
    19e8:	1a82      	subs	r2, r0, r2
    19ea:	e282      	b.n	0x1ef2
    19ec:	2a82      	cmp	r2, #130	; 0x82
    19ee:	e280      	b.n	0x1ef2
    19f0:	100c      	asrs	r4, r1, #32
    19f2:	e281      	b.n	0x1ef8
    19f4:	200c      	movs	r0, #12
    19f6:	e282      	b.n	0x1efe
    19f8:	c004      	stmia	r0!, {r2}
    19fa:	e5a2      	b.n	0x1542
    19fc:	0001      	movs	r1, r0
    19fe:	e152      	b.n	0x1ca6
    1a00:	fffc 1aff 			; <UNDEFINED> instruction: 0xfffc1aff
    1a04:	a000      	add	r0, pc, #0	; (adr r0, 0x1a08)
    1a06:	e3a0      	b.n	0x214a
    1a08:	000a      	movs	r2, r1
    1a0a:	e158      	b.n	0x1cbe
    1a0c:	a004      	add	r0, pc, #16	; (adr r0, 0x1a20)
    1a0e:	e580      	b.n	0x1512
    1a10:	008c      	lsls	r4, r1, #2
    1a12:	da00      	bge.n	0x1a16
    1a14:	7244      	strb	r4, [r0, #9]
    1a16:	e59f      	b.n	0x1558
    1a18:	6244      	str	r4, [r0, #36]	; 0x24
    1a1a:	e59f      	b.n	0x155c
    1a1c:	5000      	str	r0, [r0, r0]
    1a1e:	e3a0      	b.n	0x2162
    1a20:	b005      	add	sp, #20
    1a22:	e1a0      	b.n	0x1d66
    1a24:	4004      	ands	r4, r0
    1a26:	e599      	b.n	0x155c
    1a28:	fe16 ebff 			; <UNDEFINED> instruction: 0xfe16ebff
    1a2c:	3097      	adds	r0, #151	; 0x97
    1a2e:	e0c2      	b.n	0x1bb6
    1a30:	3fc0      	subs	r7, #192	; 0xc0
    1a32:	e1a0      	b.n	0x1d76
    1a34:	3142      	adds	r1, #66	; 0x42
    1a36:	e063      	b.n	0x1b00
    1a38:	3103      	adds	r1, #3
    1a3a:	e083      	b.n	0x1b44
    1a3c:	3083      	adds	r0, #131	; 0x83
    1a3e:	e050      	b.n	0x1ae2
    1a40:	001e      	movs	r6, r3
    1a42:	0a00      	lsrs	r0, r0, #8
    1a44:	2004      	movs	r0, #4
    1a46:	e594      	b.n	0x1572
    1a48:	2001      	movs	r0, #1
    1a4a:	e282      	b.n	0x1f52
    1a4c:	1202      	asrs	r2, r0, #8
    1a4e:	e084      	b.n	0x1b5a
    1a50:	8005      	strh	r5, [r0, #0]
    1a52:	e088      	b.n	0x1b66
    1a54:	a202      	add	r2, pc, #8	; (adr r2, 0x1a60)
    1a56:	e784      	b.n	0x1962
    1a58:	8004      	strh	r4, [r0, #0]
    1a5a:	e581      	b.n	0x1560
    1a5c:	3008      	adds	r0, #8
    1a5e:	e581      	b.n	0x1564
    1a60:	b00c      	add	sp, #48	; 0x30
    1a62:	e581      	b.n	0x1568
    1a64:	310a      	adds	r1, #10
    1a66:	e084      	b.n	0x1b72
    1a68:	2004      	movs	r0, #4
    1a6a:	e594      	b.n	0x1596
    1a6c:	3a82      	subs	r2, #130	; 0x82
    1a6e:	e283      	b.n	0x1f78
    1a70:	c010      	stmia	r0!, {r4}
    1a72:	e593      	b.n	0x159c
    1a74:	0002      	movs	r2, r0
    1a76:	e282      	b.n	0x1f7e
    1a78:	1006      	asrs	r6, r0, #32
    1a7a:	e082      	b.n	0x1b82
    1a7c:	c101      	stmia	r1!, {r0}
    1a7e:	e784      	b.n	0x198a
    1a80:	1200      	asrs	r0, r0, #8
    1a82:	e084      	b.n	0x1b8e
    1a84:	c001      	stmia	r0!, {r0}
    1a86:	e282      	b.n	0x1f8e
    1a88:	c004      	stmia	r0!, {r2}
    1a8a:	e584      	b.n	0x1596
    1a8c:	2010      	movs	r0, #16
    1a8e:	e583      	b.n	0x1598
    1a90:	8200      	strh	r0, [r0, #16]
    1a92:	e784      	b.n	0x199e
    1a94:	0c00      	lsrs	r0, r0, #16
    1a96:	e981 b00c 			; <UNDEFINED> instruction: 0xe981b00c
    1a9a:	e581      	b.n	0x15a0
    1a9c:	8108      	strh	r0, [r1, #8]
    1a9e:	e084      	b.n	0x1baa
    1aa0:	3004      	adds	r0, #4
    1aa2:	e594      	b.n	0x15ce
    1aa4:	8a82      	ldrh	r2, [r0, #20]
    1aa6:	e288      	b.n	0x1fba
    1aa8:	0010      	movs	r0, r2
    1aaa:	e598      	b.n	0x15de
    1aac:	1006      	asrs	r6, r0, #32
    1aae:	e083      	b.n	0x1bb8
    1ab0:	2001      	movs	r0, #1
    1ab2:	e283      	b.n	0x1fbc
    1ab4:	0101      	lsls	r1, r0, #4
    1ab6:	e784      	b.n	0x19c2
    1ab8:	2004      	movs	r0, #4
    1aba:	e584      	b.n	0x15c6
    1abc:	3010      	adds	r0, #16
    1abe:	e588      	b.n	0x15d2
    1ac0:	8000      	strh	r0, [r0, #0]
    1ac2:	e599      	b.n	0x15f8
    1ac4:	5001      	str	r1, [r0, r0]
    1ac6:	e285      	b.n	0x1fd4
    1ac8:	0005      	movs	r5, r0
    1aca:	e158      	b.n	0x1d7e
    1acc:	ffd4 caff 			; <UNDEFINED> instruction: 0xffd4caff
    1ad0:	a001      	add	r0, pc, #4	; (adr r0, 0x1ad8)
    1ad2:	e28a      	b.n	0x1fea
    1ad4:	000a      	movs	r2, r1
    1ad6:	e158      	b.n	0x1d8a
    1ad8:	ffcf caff 			; <UNDEFINED> instruction: 0xffcfcaff
    1adc:	0000      	movs	r0, r0
    1ade:	e358      	b.n	0x2192
    1ae0:	0058      	lsls	r0, r3, #1
    1ae2:	da00      	bge.n	0x1ae6
    1ae4:	5000      	str	r0, [r0, r0]
    1ae6:	e3a0      	b.n	0x222a
    1ae8:	b005      	add	sp, #20
    1aea:	e1a0      	b.n	0x1e2e
    1aec:	a174      	add	r1, pc, #464	; (adr r1, 0x1cc0)
    1aee:	e59f      	b.n	0x1630
    1af0:	716c      	strb	r4, [r5, #5]
    1af2:	e59f      	b.n	0x1634
    1af4:	6004      	str	r4, [r0, #0]
    1af6:	e59d      	b.n	0x1634
    1af8:	4004      	ands	r4, r0
    1afa:	e599      	b.n	0x1630
    1afc:	fde1 ebff 			; <UNDEFINED> instruction: 0xfde1ebff
    1b00:	309a      	adds	r0, #154	; 0x9a
    1b02:	e0c2      	b.n	0x1c8a
    1b04:	3fc0      	subs	r7, #192	; 0xc0
    1b06:	e1a0      	b.n	0x1e4a
    1b08:	3342      	adds	r3, #66	; 0x42
    1b0a:	e063      	b.n	0x1bd4
    1b0c:	2283      	movs	r2, #131	; 0x83
    1b0e:	e063      	b.n	0x1bd8
    1b10:	3102      	adds	r1, #2
    1b12:	e083      	b.n	0x1c1c
    1b14:	3183      	adds	r1, #131	; 0x83
    1b16:	e050      	b.n	0x1bba
    1b18:	8000      	strh	r0, [r0, #0]
    1b1a:	e599      	b.n	0x1650
    1b1c:	001d      	movs	r5, r3
    1b1e:	0a00      	lsrs	r0, r0, #8
    1b20:	2004      	movs	r0, #4
    1b22:	e594      	b.n	0x164e
    1b24:	2001      	movs	r0, #1
    1b26:	e282      	b.n	0x202e
    1b28:	1202      	asrs	r2, r0, #8
    1b2a:	e084      	b.n	0x1c36
    1b2c:	6202      	str	r2, [r0, #32]
    1b2e:	e784      	b.n	0x1a3a
    1b30:	3008      	adds	r0, #8
    1b32:	e581      	b.n	0x1638
    1b34:	5004      	str	r4, [r0, r0]
    1b36:	e581      	b.n	0x163c
    1b38:	b00c      	add	sp, #48	; 0x30
    1b3a:	e581      	b.n	0x1640
    1b3c:	3106      	adds	r1, #6
    1b3e:	e084      	b.n	0x1c4a
    1b40:	2004      	movs	r0, #4
    1b42:	e594      	b.n	0x166e
    1b44:	3a82      	subs	r2, #130	; 0x82
    1b46:	e283      	b.n	0x2050
    1b48:	c010      	stmia	r0!, {r4}
    1b4a:	e593      	b.n	0x1674
    1b4c:	0002      	movs	r2, r0
    1b4e:	e282      	b.n	0x2056
    1b50:	1007      	asrs	r7, r0, #32
    1b52:	e082      	b.n	0x1c5a
    1b54:	c101      	stmia	r1!, {r0}
    1b56:	e784      	b.n	0x1a62
    1b58:	1200      	asrs	r0, r0, #8
    1b5a:	e084      	b.n	0x1c66
    1b5c:	c001      	stmia	r0!, {r0}
    1b5e:	e282      	b.n	0x2066
    1b60:	c004      	stmia	r0!, {r2}
    1b62:	e584      	b.n	0x166e
    1b64:	2010      	movs	r0, #16
    1b66:	e583      	b.n	0x1670
    1b68:	5200      	strh	r0, [r0, r0]
    1b6a:	e784      	b.n	0x1a76
    1b6c:	0840      	lsrs	r0, r0, #1
    1b6e:	e981 b00c 			; <UNDEFINED> instruction: 0xe981b00c
    1b72:	e581      	b.n	0x1678
    1b74:	3105      	adds	r1, #5
    1b76:	e084      	b.n	0x1c82
    1b78:	2004      	movs	r0, #4
    1b7a:	e594      	b.n	0x16a6
    1b7c:	3a82      	subs	r2, #130	; 0x82
    1b7e:	e283      	b.n	0x2088
    1b80:	c010      	stmia	r0!, {r4}
    1b82:	e593      	b.n	0x16ac
    1b84:	0007      	movs	r7, r0
    1b86:	e082      	b.n	0x1c8e
    1b88:	1001      	asrs	r1, r0, #32
    1b8a:	e282      	b.n	0x2092
    1b8c:	c100      	stmia	r1!, {}
    1b8e:	e784      	b.n	0x1a9a
    1b90:	1004      	asrs	r4, r0, #32
    1b92:	e584      	b.n	0x169e
    1b94:	2010      	movs	r0, #16
    1b96:	e583      	b.n	0x16a0
    1b98:	4004      	ands	r4, r0
    1b9a:	e599      	b.n	0x16d0
    1b9c:	fdb9 ebff 			; <UNDEFINED> instruction: 0xfdb9ebff
    1ba0:	209a      	movs	r0, #154	; 0x9a
    1ba2:	e0c3      	b.n	0x1d2c
    1ba4:	2fc0      	cmp	r7, #192	; 0xc0
    1ba6:	e1a0      	b.n	0x1eea
    1ba8:	2343      	movs	r3, #67	; 0x43
    1baa:	e062      	b.n	0x1c72
    1bac:	3282      	adds	r2, #130	; 0x82
    1bae:	e062      	b.n	0x1c76
    1bb0:	2103      	movs	r1, #3
    1bb2:	e082      	b.n	0x1cba
    1bb4:	2182      	movs	r1, #130	; 0x82
    1bb6:	e050      	b.n	0x1c5a
    1bb8:	c000      	stmia	r0!, {}
    1bba:	e599      	b.n	0x16f0
    1bbc:	001e      	movs	r6, r3
    1bbe:	0a00      	lsrs	r0, r0, #8
    1bc0:	1004      	asrs	r4, r0, #32
    1bc2:	e594      	b.n	0x16ee
    1bc4:	3005      	adds	r0, #5
    1bc6:	e088      	b.n	0x1cda
    1bc8:	1001      	asrs	r1, r0, #32
    1bca:	e281      	b.n	0x20d0
    1bcc:	3201      	adds	r2, #1
    1bce:	e784      	b.n	0x1ada
    1bd0:	0201      	lsls	r1, r0, #8
    1bd2:	e084      	b.n	0x1cde
    1bd4:	1000      	asrs	r0, r0, #32
    1bd6:	e59d      	b.n	0x1714
    1bd8:	0806      	lsrs	r6, r0, #32
    1bda:	e980 2103 			; <UNDEFINED> instruction: 0xe9802103
    1bde:	e084      	b.n	0x1cea
    1be0:	1004      	asrs	r4, r0, #32
    1be2:	e594      	b.n	0x170e
    1be4:	2a82      	cmp	r2, #130	; 0x82
    1be6:	e282      	b.n	0x20ee
    1be8:	8010      	strh	r0, [r2, #0]
    1bea:	e592      	b.n	0x1712
    1bec:	0007      	movs	r7, r0
    1bee:	e081      	b.n	0x1cf4
    1bf0:	8100      	strh	r0, [r0, #8]
    1bf2:	e784      	b.n	0x1afe
    1bf4:	8001      	strh	r1, [r0, #0]
    1bf6:	e281      	b.n	0x20fc
    1bf8:	8004      	strh	r4, [r0, #0]
    1bfa:	e584      	b.n	0x1706
    1bfc:	e002      	b.n	0x1c04
    1bfe:	e281      	b.n	0x2104
    1c00:	1010      	asrs	r0, r2, #32
    1c02:	e582      	b.n	0x170a
    1c04:	1000      	asrs	r0, r0, #32
    1c06:	e59d      	b.n	0x1744
    1c08:	020e      	lsls	r6, r1, #8
    1c0a:	e084      	b.n	0x1d16
    1c0c:	120e      	asrs	r6, r1, #8
    1c0e:	e784      	b.n	0x1b1a
    1c10:	0808      	lsrs	r0, r1, #32
    1c12:	e980 b00c 			; <UNDEFINED> instruction: 0xe980b00c
    1c16:	e580      	b.n	0x171a
    1c18:	3106      	adds	r1, #6
    1c1a:	e084      	b.n	0x1d26
    1c1c:	2004      	movs	r0, #4
    1c1e:	e594      	b.n	0x174a
    1c20:	3a82      	subs	r2, #130	; 0x82
    1c22:	e283      	b.n	0x212c
    1c24:	e014      	b.n	0x1c50
    1c26:	e593      	b.n	0x1750
    1c28:	0007      	movs	r7, r0
    1c2a:	e082      	b.n	0x1d32
    1c2c:	1001      	asrs	r1, r0, #32
    1c2e:	e282      	b.n	0x2136
    1c30:	e100      	b.n	0x1e34
    1c32:	e784      	b.n	0x1b3e
    1c34:	1004      	asrs	r4, r0, #32
    1c36:	e584      	b.n	0x1742
    1c38:	2014      	movs	r0, #20
    1c3a:	e583      	b.n	0x1744
    1c3c:	5001      	str	r1, [r0, r0]
    1c3e:	e285      	b.n	0x214c
    1c40:	0005      	movs	r5, r0
    1c42:	e15c      	b.n	0x1efe
    1c44:	ffab caff 			; <UNDEFINED> instruction: 0xffabcaff
    1c48:	d00c      	beq.n	0x1c64
    1c4a:	e28d      	b.n	0x2168
    1c4c:	4ff0      	ldr	r7, [pc, #960]	; (0x2010)
    1c4e:	e8bd ff1e 	ldmia.w	sp!, {r1, r2, r3, r4, r8, r9, sl, fp, ip, sp, lr, pc}
    1c52:	e12f      	b.n	0x1eb4
    1c54:	0158      	lsls	r0, r3, #5
    1c56:	0300      	lsls	r0, r0, #12
    1c58:	00a0      	lsls	r0, r4, #2
    1c5a:	0300      	lsls	r0, r0, #12
    1c5c:	3934      	subs	r1, #52	; 0x34
    1c5e:	000a      	movs	r2, r1
    1c60:	6667      	str	r7, [r4, #100]	; 0x64
    1c62:	6666      	str	r6, [r4, #100]	; 0x64
    1c64:	0906      	lsrs	r6, r0, #4
    1c66:	0002      	movs	r2, r0
    1c68:	4dd3      	ldr	r5, [pc, #844]	; (0x1fb8)
    1c6a:	1062      	asrs	r2, r4, #1
    1c6c:	4ff0      	ldr	r7, [pc, #960]	; (0x2030)
    1c6e:	e92d a000 	stmdb	sp!, {sp, pc}
    1c72:	e3a0      	b.n	0x23b6
    1c74:	2310      	movs	r3, #16
    1c76:	e59f      	b.n	0x17b8
    1c78:	3000      	adds	r0, #0
    1c7a:	e592      	b.n	0x17a2
    1c7c:	4004      	ands	r4, r0
    1c7e:	e592      	b.n	0x17a6
    1c80:	2308      	movs	r3, #8
    1c82:	e59f      	b.n	0x17c4
    1c84:	3083      	adds	r0, #131	; 0x83
    1c86:	e1a0      	b.n	0x1fca
    1c88:	d01c      	beq.n	0x1cc4
    1c8a:	e24d      	b.n	0x2128
    1c8c:	0300      	lsls	r0, r0, #12
    1c8e:	e59f      	b.n	0x17d0
    1c90:	e001      	b.n	0x1c96
    1c92:	e283      	b.n	0x219c
    1c94:	3004      	adds	r0, #4
    1c96:	e58d      	b.n	0x17b4
    1c98:	1003      	asrs	r3, r0, #32
    1c9a:	e1a0      	b.n	0x1fde
    1c9c:	3008      	adds	r0, #8
    1c9e:	e584      	b.n	0x17aa
    1ca0:	2002      	movs	r0, #2
    1ca2:	e083      	b.n	0x1dac
    1ca4:	8003      	strh	r3, [r0, #0]
    1ca6:	e084      	b.n	0x1db2
    1ca8:	3aa3      	subs	r2, #163	; 0xa3
    1caa:	e284      	b.n	0x21b6
    1cac:	c00e      	stmia	r0!, {r1, r2, r3}
    1cae:	e084      	b.n	0x1dba
    1cb0:	300c      	adds	r0, #12
    1cb2:	e58d      	b.n	0x17d0
    1cb4:	3000      	adds	r0, #0
    1cb6:	e084      	b.n	0x1dc2
    1cb8:	e00c      	b.n	0x1cd4
    1cba:	e584      	b.n	0x17c6
    1cbc:	7000      	strb	r0, [r0, #0]
    1cbe:	e594      	b.n	0x17ea
    1cc0:	c000      	stmia	r0!, {}
    1cc2:	e58d      	b.n	0x17e0
    1cc4:	3014      	adds	r0, #20
    1cc6:	e58d      	b.n	0x17e4
    1cc8:	0000      	movs	r0, r0
    1cca:	e357      	b.n	0x237c
    1ccc:	0006      	movs	r6, r0
    1cce:	da00      	bge.n	0x1cd2
    1cd0:	c000      	stmia	r0!, {}
    1cd2:	e3a0      	b.n	0x2416
    1cd4:	32bc      	adds	r2, #188	; 0xbc
    1cd6:	e59f      	b.n	0x1818
    1cd8:	3003      	adds	r0, #3
    1cda:	e084      	b.n	0x1de6
    1cdc:	0007      	movs	r7, r0
    1cde:	e083      	b.n	0x1de8
    1ce0:	c001      	stmia	r0!, {r0}
    1ce2:	e5e3      	b.n	0x18ac
    1ce4:	0000      	movs	r0, r0
    1ce6:	e153      	b.n	0x1f90
    1ce8:	fffc 1aff 			; <UNDEFINED> instruction: 0xfffc1aff
    1cec:	0000      	movs	r0, r0
    1cee:	e3a0      	b.n	0x2432
    1cf0:	c00c      	stmia	r0!, {r2, r3}
    1cf2:	e59d      	b.n	0x1830
    1cf4:	3102      	adds	r1, #2
    1cf6:	e084      	b.n	0x1e02
    1cf8:	152c      	asrs	r4, r5, #20
    1cfa:	e58c      	b.n	0x1816
    1cfc:	9000      	str	r0, [sp, #0]
    1cfe:	e1a0      	b.n	0x2042
    1d00:	0004      	movs	r4, r0
    1d02:	e583      	b.n	0x180c
    1d04:	0001      	movs	r1, r0
    1d06:	e3a0      	b.n	0x244a
    1d08:	3014      	adds	r0, #20
    1d0a:	e59d      	b.n	0x1848
    1d0c:	3008      	adds	r0, #8
    1d0e:	e58d      	b.n	0x182c
    1d10:	3284      	adds	r2, #132	; 0x84
    1d12:	e59f      	b.n	0x1854
    1d14:	c001      	stmia	r0!, {r0}
    1d16:	e3a0      	b.n	0x245a
    1d18:	0003      	movs	r3, r0
    1d1a:	e7c8      	b.n	0x1cae
    1d1c:	0001      	movs	r1, r0
    1d1e:	e1a0      	b.n	0x2062
    1d20:	0100      	lsls	r0, r0, #4
    1d22:	e084      	b.n	0x1e2e
    1d24:	3a82      	subs	r2, #130	; 0x82
    1d26:	e280      	b.n	0x222a
    1d28:	3010      	adds	r0, #16
    1d2a:	e593      	b.n	0x1854
    1d2c:	0001      	movs	r1, r0
    1d2e:	e373      	b.n	0x2418
    1d30:	9001      	str	r0, [sp, #4]
    1d32:	e289      	b.n	0x2248
    1d34:	0021      	movs	r1, r4
    1d36:	0a00      	lsrs	r0, r0, #8
    1d38:	0aa2      	lsrs	r2, r4, #10
    1d3a:	e280      	b.n	0x223e
    1d3c:	b25c      	sxtb	r4, r3
    1d3e:	e59f      	b.n	0x1880
    1d40:	5203      	strh	r3, [r0, r0]
    1d42:	e084      	b.n	0x1e4e
    1d44:	b00b      	add	sp, #44	; 0x2c
    1d46:	e083      	b.n	0x1e50
    1d48:	5014      	str	r4, [r2, r0]
    1d4a:	e595      	b.n	0x1878
    1d4c:	b010      	add	sp, #64	; 0x40
    1d4e:	e58d      	b.n	0x186c
    1d50:	b244      	sxtb	r4, r0
    1d52:	e59f      	b.n	0x1894
    1d54:	6005      	str	r5, [r0, #0]
    1d56:	e084      	b.n	0x1e62
    1d58:	b00b      	add	sp, #44	; 0x2c
    1d5a:	e7d6      	b.n	0x1d0a
    1d5c:	0000      	movs	r0, r0
    1d5e:	e35b      	b.n	0x2418
    1d60:	3203      	adds	r2, #3
    1d62:	e084      	b.n	0x1e6e
    1d64:	0011      	movs	r1, r2
    1d66:	1a00      	subs	r0, r0, r0
    1d68:	b018      	add	sp, #96	; 0x60
    1d6a:	e593      	b.n	0x1894
    1d6c:	301c      	adds	r0, #28
    1d6e:	e593      	b.n	0x1898
    1d70:	0003      	movs	r3, r0
    1d72:	e15b      	b.n	0x202c
    1d74:	000d      	movs	r5, r1
    1d76:	da00      	bge.n	0x1d7a
    1d78:	3001      	adds	r0, #1
    1d7a:	e3a0      	b.n	0x24be
    1d7c:	b218      	sxth	r0, r3
    1d7e:	e59f      	b.n	0x18c0
    1d80:	300b      	adds	r0, #11
    1d82:	e7c6      	b.n	0x1d12
    1d84:	3218      	adds	r2, #24
    1d86:	e59f      	b.n	0x18c8
    1d88:	6200      	str	r0, [r0, #32]
    1d8a:	e59f      	b.n	0x18cc
    1d8c:	bd1c      	pop	{r2, r3, r4, pc}
    1d8e:	e590      	b.n	0x18b2
    1d90:	3003      	adds	r0, #3
    1d92:	e08c      	b.n	0x1eae
    1d94:	6006      	str	r6, [r0, #0]
    1d96:	e085      	b.n	0x1ea4
    1d98:	b001      	add	sp, #4
    1d9a:	e28b      	b.n	0x22b4
    1d9c:	6106      	str	r6, [r0, #16]
    1d9e:	e084      	b.n	0x1eaa
    1da0:	3103      	adds	r1, #3
    1da2:	e084      	b.n	0x1eae
    1da4:	b004      	add	sp, #16
    1da6:	e586      	b.n	0x18b6
    1da8:	5004      	str	r4, [r0, r0]
    1daa:	e583      	b.n	0x18b4
    1dac:	c001      	stmia	r0!, {r0}
    1dae:	e28c      	b.n	0x22ca
    1db0:	3010      	adds	r0, #16
    1db2:	e59d      	b.n	0x18f0
    1db4:	3103      	adds	r1, #3
    1db6:	e794      	b.n	0x1ce2
    1db8:	0001      	movs	r1, r0
    1dba:	e373      	b.n	0x24a4
    1dbc:	ffde 1aff 			; <UNDEFINED> instruction: 0xffde1aff
    1dc0:	000c      	movs	r4, r1
    1dc2:	e159      	b.n	0x2078
    1dc4:	3008      	adds	r0, #8
    1dc6:	159d      	asrs	r5, r3, #22
    1dc8:	0004      	movs	r4, r0
    1dca:	15b3      	asrs	r3, r6, #22
    1dcc:	3008      	adds	r0, #8
    1dce:	158d      	asrs	r5, r1, #22
    1dd0:	ffd2 1aff 			; <UNDEFINED> instruction: 0xffd21aff
    1dd4:	3000      	adds	r0, #0
    1dd6:	e59d      	b.n	0x1914
    1dd8:	01bc      	lsls	r4, r7, #6
    1dda:	e59f      	b.n	0x191c
    1ddc:	3000      	adds	r0, #0
    1dde:	e7d3      	b.n	0x1d88
    1de0:	0000      	movs	r0, r0
    1de2:	e353      	b.n	0x248c
    1de4:	0063      	lsls	r3, r4, #1
    1de6:	0a00      	lsrs	r0, r0, #8
    1de8:	0000      	movs	r0, r0
    1dea:	e357      	b.n	0x249c
    1dec:	0008      	movs	r0, r1
    1dee:	da00      	bge.n	0x1df2
    1df0:	3a82      	subs	r2, #130	; 0x82
    1df2:	e284      	b.n	0x22fe
    1df4:	000c      	movs	r4, r1
    1df6:	e59d      	b.n	0x1934
    1df8:	300c      	adds	r0, #12
    1dfa:	e283      	b.n	0x2304
    1dfc:	c107      	stmia	r1!, {r0, r1, r2}
    1dfe:	e083      	b.n	0x1f08
    1e00:	0e12      	lsrs	r2, r2, #24
    1e02:	e280      	b.n	0x2306
    1e04:	5004      	str	r4, [r0, r0]
    1e06:	e5b3      	b.n	0x1970
    1e08:	000c      	movs	r4, r1
    1e0a:	e153      	b.n	0x20b4
    1e0c:	5004      	str	r4, [r0, r0]
    1e0e:	e5a0      	b.n	0x1952
    1e10:	fffb 1aff 			; <UNDEFINED> instruction: 0xfffb1aff
    1e14:	3004      	adds	r0, #4
    1e16:	e59d      	b.n	0x1954
    1e18:	000e      	movs	r6, r1
    1e1a:	e153      	b.n	0x20c4
    1e1c:	0051      	lsls	r1, r2, #1
    1e1e:	0a00      	lsrs	r0, r0, #8
    1e20:	3004      	adds	r0, #4
    1e22:	e59d      	b.n	0x1960
    1e24:	9103      	str	r1, [sp, #12]
    1e26:	e084      	b.n	0x1f32
    1e28:	3aa3      	subs	r2, #163	; 0xa3
    1e2a:	e289      	b.n	0x2340
    1e2c:	5124      	str	r4, [r4, r4]
    1e2e:	e593      	b.n	0x1958
    1e30:	0001      	movs	r1, r0
    1e32:	e375      	b.n	0x2520
    1e34:	ffa3 0aff 			; <UNDEFINED> instruction: 0xffa30aff
    1e38:	7000      	strb	r0, [r0, #0]
    1e3a:	e3a0      	b.n	0x257e
    1e3c:	6164      	str	r4, [r4, #20]
    1e3e:	e59f      	b.n	0x1980
    1e40:	3148      	adds	r1, #72	; 0x48
    1e42:	e59f      	b.n	0x1984
    1e44:	b154      	cbz	r4, 0x1e5c
    1e46:	e59f      	b.n	0x1988
    1e48:	9aa2      	ldr	r2, [sp, #648]	; 0x288
    1e4a:	e289      	b.n	0x2360
    1e4c:	0003      	movs	r3, r0
    1e4e:	ea00 500b 	and.w	r0, r0, fp, lsl #20
    1e52:	e085      	b.n	0x1f60
    1e54:	5105      	str	r5, [r0, r4]
    1e56:	e794      	b.n	0x1d82
    1e58:	0001      	movs	r1, r0
    1e5a:	e375      	b.n	0x2548
    1e5c:	0027      	movs	r7, r4
    1e5e:	0a00      	lsrs	r0, r0, #8
    1e60:	2205      	movs	r2, #5
    1e62:	e084      	b.n	0x1f6e
    1e64:	1014      	asrs	r4, r2, #32
    1e66:	e592      	b.n	0x198e
    1e68:	0003      	movs	r3, r0
    1e6a:	e081      	b.n	0x1f70
    1e6c:	0100      	lsls	r0, r0, #4
    1e6e:	e084      	b.n	0x1f7a
    1e70:	2d1c      	cmp	r5, #28
    1e72:	e599      	b.n	0x19a8
    1e74:	0004      	movs	r4, r0
    1e76:	e590      	b.n	0x199a
    1e78:	2001      	movs	r0, #1
    1e7a:	e282      	b.n	0x2382
    1e7c:	0000      	movs	r0, r0
    1e7e:	e152      	b.n	0x2126
    1e80:	fff2 1aff 			; <UNDEFINED> instruction: 0xfff21aff
    1e84:	8205      	strh	r5, [r0, #16]
    1e86:	e1a0      	b.n	0x21ca
    1e88:	0008      	movs	r0, r1
    1e8a:	e084      	b.n	0x1f96
    1e8c:	2018      	movs	r0, #24
    1e8e:	e280      	b.n	0x2392
    1e90:	1004      	asrs	r4, r0, #32
    1e92:	e892 200c 	ldmia.w	r2, {r2, r3, sp}
    1e96:	e042      	b.n	0x1f1e
    1e98:	0006      	movs	r6, r0
    1e9a:	e152      	b.n	0x2142
    1e9c:	001b      	movs	r3, r3
    1e9e:	ca00      	ldmia	r2!, {}
    1ea0:	000e      	movs	r6, r1
    1ea2:	e151      	b.n	0x2148
    1ea4:	0005      	movs	r5, r0
    1ea6:	0a00      	lsrs	r0, r0, #8
    1ea8:	0000      	movs	r0, r0
    1eaa:	e352      	b.n	0x2552
    1eac:	ffe7 0aff 			; <UNDEFINED> instruction: 0xffe70aff
    1eb0:	0004      	movs	r4, r0
    1eb2:	e1a0      	b.n	0x21f6
    1eb4:	fe71 ebff 			; <UNDEFINED> instruction: 0xfe71ebff
    1eb8:	2000      	movs	r0, #0
    1eba:	e1a0      	b.n	0x21fe
    1ebc:	30cc      	adds	r0, #204	; 0xcc
    1ebe:	e59f      	b.n	0x1a00
    1ec0:	0000      	movs	r0, r0
    1ec2:	e352      	b.n	0x256a
    1ec4:	e00c      	b.n	0x1ee0
    1ec6:	d594      	bpl.n	0x1df2
    1ec8:	ffe0 daff 			; <UNDEFINED> instruction: 0xffe0daff
    1ecc:	8008      	strh	r0, [r1, #0]
    1ece:	e084      	b.n	0x1fda
    1ed0:	101c      	asrs	r4, r3, #32
    1ed2:	e598      	b.n	0x1a06
    1ed4:	1002      	asrs	r2, r0, #32
    1ed6:	e081      	b.n	0x1fdc
    1ed8:	101c      	asrs	r4, r3, #32
    1eda:	e588      	b.n	0x19ee
    1edc:	1001      	asrs	r1, r0, #32
    1ede:	e225      	b.n	0x232c
    1ee0:	1201      	asrs	r1, r0, #8
    1ee2:	e084      	b.n	0x1fee
    1ee4:	001c      	movs	r4, r3
    1ee6:	e591      	b.n	0x1a0c
    1ee8:	6002      	str	r2, [r0, #0]
    1eea:	e056      	b.n	0x1f9a
    1eec:	0002      	movs	r2, r0
    1eee:	e040      	b.n	0x1f72
    1ef0:	7002      	strb	r2, [r0, #0]
    1ef2:	e087      	b.n	0x2004
    1ef4:	001c      	movs	r4, r3
    1ef6:	e581      	b.n	0x19fc
    1ef8:	e00c      	b.n	0x1f14
    1efa:	e594      	b.n	0x1a26
    1efc:	ffd3 1aff 			; <UNDEFINED> instruction: 0xffd31aff
    1f00:	1008      	asrs	r0, r1, #32
    1f02:	e594      	b.n	0x1a2e
    1f04:	2084      	movs	r0, #132	; 0x84
    1f06:	e59f      	b.n	0x1a48
    1f08:	a007      	add	r0, pc, #28	; (adr r0, 0x1f28)
    1f0a:	e08a      	b.n	0x2022
    1f0c:	000f      	movs	r7, r1
    1f0e:	ea00 000e 	and.w	r0, r0, lr
    1f12:	e151      	b.n	0x21b8
    1f14:	2006      	movs	r0, #6
    1f16:	11a0      	asrs	r0, r4, #6
    1f18:	ffe4 1aff 			; <UNDEFINED> instruction: 0xffe41aff
    1f1c:	0000      	movs	r0, r0
    1f1e:	e356      	b.n	0x25ce
    1f20:	ffca daff 			; <UNDEFINED> instruction: 0xffcadaff
    1f24:	c006      	stmia	r0!, {r1, r2}
    1f26:	e08c      	b.n	0x2042
    1f28:	c01c      	stmia	r0!, {r2, r3, r4}
    1f2a:	e580      	b.n	0x1a2e
    1f2c:	5001      	str	r1, [r0, r0]
    1f2e:	e225      	b.n	0x237c
    1f30:	5205      	strh	r5, [r0, r0]
    1f32:	e084      	b.n	0x203e
    1f34:	301c      	adds	r0, #28
    1f36:	e595      	b.n	0x1a64
    1f38:	7007      	strb	r7, [r0, #0]
    1f3a:	e086      	b.n	0x204a
    1f3c:	6006      	str	r6, [r0, #0]
    1f3e:	e043      	b.n	0x1fc8
    1f40:	1008      	asrs	r0, r1, #32
    1f42:	e594      	b.n	0x1a6e
    1f44:	2044      	movs	r0, #68	; 0x44
    1f46:	e59f      	b.n	0x1a88
    1f48:	601c      	str	r4, [r3, #0]
    1f4a:	e585      	b.n	0x1a58
    1f4c:	a007      	add	r0, pc, #28	; (adr r0, 0x1f6c)
    1f4e:	e08a      	b.n	0x2066
    1f50:	300e      	adds	r0, #14
    1f52:	e084      	b.n	0x205e
    1f54:	2002      	movs	r0, #2
    1f56:	e081      	b.n	0x205c
    1f58:	8001      	strh	r1, [r0, #0]
    1f5a:	e084      	b.n	0x2066
    1f5c:	7000      	strb	r0, [r0, #0]
    1f5e:	e594      	b.n	0x1a8a
    1f60:	3000      	adds	r0, #0
    1f62:	e58d      	b.n	0x1a80
    1f64:	ff57 eaff 	vpmin.u16	q15, <illegal reg q11.5>, <illegal reg q15.5>
    1f68:	a83f      	add	r0, sp, #252	; 0xfc
    1f6a:	e28a      	b.n	0x2482
    1f6c:	ac3f      	add	r4, sp, #252	; 0xfc
    1f6e:	e28a      	b.n	0x2486
    1f70:	a03f      	add	r0, pc, #252	; (adr r0, 0x2070)
    1f72:	e28a      	b.n	0x248a
    1f74:	ff53 eaff 	vpmin.u16	q15, <illegal reg q9.5>, <illegal reg q15.5>
    1f78:	300c      	adds	r0, #12
    1f7a:	e59f      	b.n	0x1abc
    1f7c:	a008      	add	r0, pc, #32	; (adr r0, 0x1fa0)
    1f7e:	e583      	b.n	0x1a88
    1f80:	d01c      	beq.n	0x1fbc
    1f82:	e28d      	b.n	0x24a0
    1f84:	4ff0      	ldr	r7, [pc, #960]	; (0x2348)
    1f86:	e8bd ff1e 	ldmia.w	sp!, {r1, r2, r3, r4, r8, r9, sl, fp, ip, sp, lr, pc}
    1f8a:	e12f      	b.n	0x21ec
    1f8c:	00a0      	lsls	r0, r4, #2
    1f8e:	0300      	lsls	r0, r0, #12
    1f90:	8b46      	ldrh	r6, [r0, #26]
    1f92:	0002      	movs	r2, r0
    1f94:	352c      	adds	r5, #44	; 0x2c
    1f96:	000a      	movs	r2, r1
    1f98:	2c17      	cmp	r4, #23
    1f9a:	000a      	movs	r2, r1
    1f9c:	2c18      	cmp	r4, #24
    1f9e:	000a      	movs	r2, r1
    1fa0:	0906      	lsrs	r6, r0, #4
    1fa2:	0002      	movs	r2, r0
    1fa4:	8d4a      	ldrh	r2, [r1, #42]	; 0x2a
    1fa6:	0002      	movs	r2, r0
    1fa8:	3f3f      	subs	r7, #63	; 0x3f
    1faa:	003f      	movs	r7, r7
    1fac:	201c      	movs	r0, #28
    1fae:	e59f      	b.n	0x1af0
    1fb0:	301c      	adds	r0, #28
    1fb2:	e59f      	b.n	0x1af4
    1fb4:	2000      	movs	r0, #0
    1fb6:	e592      	b.n	0x1ade
    1fb8:	3008      	adds	r0, #8
    1fba:	e593      	b.n	0x1ae4
    1fbc:	000c      	movs	r4, r1
    1fbe:	e592      	b.n	0x1ae6
    1fc0:	3003      	adds	r0, #3
    1fc2:	e040      	b.n	0x2046
    1fc4:	0000      	movs	r0, r0
    1fc6:	e273      	b.n	0x24b0
    1fc8:	0003      	movs	r3, r0
    1fca:	e0a0      	b.n	0x210e
    1fcc:	ff1e e12f 	vrhadd.u16	d14, d14, d31
    1fd0:	0158      	lsls	r0, r3, #5
    1fd2:	0300      	lsls	r0, r0, #12
    1fd4:	00a0      	lsls	r0, r4, #2
    1fd6:	0300      	lsls	r0, r0, #12
    1fd8:	3050      	adds	r0, #80	; 0x50
    1fda:	e59f      	b.n	0x1b1c
    1fdc:	3000      	adds	r0, #0
    1fde:	e593      	b.n	0x1b08
    1fe0:	3000      	adds	r0, #0
    1fe2:	e593      	b.n	0x1b0c
    1fe4:	4070      	eors	r0, r6
    1fe6:	e92d 0393 	stmdb	sp!, {r0, r1, r4, r7, r8, r9}
    1fea:	e004      	b.n	0x1ff6
    1fec:	5040      	str	r0, [r0, r1]
    1fee:	e59f      	b.n	0x1b30
    1ff0:	4104      	asrs	r4, r0
    1ff2:	e1a0      	b.n	0x2336
    1ff4:	0004      	movs	r4, r0
    1ff6:	e1a0      	b.n	0x233a
    1ff8:	3000      	adds	r0, #0
    1ffa:	e585      	b.n	0x1b08
    1ffc:	fc75 ebff 			; <UNDEFINED> instruction: 0xfc75ebff
    2000:	0004      	movs	r4, r0
    2002:	e585      	b.n	0x1b10
    2004:	0004      	movs	r4, r0
    2006:	e1a0      	b.n	0x234a
    2008:	fc72 ebff 			; <UNDEFINED> instruction: 0xfc72ebff
    200c:	0008      	movs	r0, r1
    200e:	e585      	b.n	0x1b1c
    2010:	0004      	movs	r4, r0
    2012:	e1a0      	b.n	0x2356
    2014:	fc6f ebff 			; <UNDEFINED> instruction: 0xfc6febff
    2018:	000c      	movs	r4, r1
    201a:	e585      	b.n	0x1b28
    201c:	0004      	movs	r4, r0
    201e:	e1a0      	b.n	0x2362
    2020:	fc6c ebff 			; <UNDEFINED> instruction: 0xfc6cebff
    2024:	0010      	movs	r0, r2
    2026:	e585      	b.n	0x1b34
    2028:	4070      	eors	r0, r6
    202a:	e8bd ff1e 	ldmia.w	sp!, {r1, r2, r3, r4, r8, r9, sl, fp, ip, sp, lr, pc}
    202e:	e12f      	b.n	0x2290
    2030:	0158      	lsls	r0, r3, #5
    2032:	0300      	lsls	r0, r0, #12
    2034:	00ac      	lsls	r4, r5, #2
    2036:	0300      	lsls	r0, r0, #12
    2038:	4ff0      	ldr	r7, [pc, #960]	; (0x23fc)
    203a:	e92d 32e8 	stmdb	sp!, {r3, r5, r6, r7, r9, ip, sp}
    203e:	e59f      	b.n	0x1b80
    2040:	b000      	add	sp, #0
    2042:	e593      	b.n	0x1b6c
    2044:	2008      	movs	r0, #8
    2046:	e593      	b.n	0x1b70
    2048:	300c      	adds	r0, #12
    204a:	e593      	b.n	0x1b74
    204c:	d044      	beq.n	0x20d8
    204e:	e24d      	b.n	0x24ec
    2050:	0000      	movs	r0, r0
    2052:	e35b      	b.n	0x270c
    2054:	2008      	movs	r0, #8
    2056:	e58d      	b.n	0x1b74
    2058:	3024      	adds	r0, #36	; 0x24
    205a:	e58d      	b.n	0x1b78
    205c:	00b0      	lsls	r0, r6, #2
    205e:	da00      	bge.n	0x2062
    2060:	1000      	asrs	r0, r0, #32
    2062:	e3a0      	b.n	0x27a6
    2064:	6001      	str	r1, [r0, #0]
    2066:	e1a0      	b.n	0x23aa
    2068:	32bc      	adds	r2, #188	; 0xbc
    206a:	e59f      	b.n	0x1bac
    206c:	7004      	strb	r4, [r0, #0]
    206e:	e593      	b.n	0x1b98
    2070:	3008      	adds	r0, #8
    2072:	e59d      	b.n	0x1bb0
    2074:	8004      	strh	r4, [r0, #0]
    2076:	e243      	b.n	0x2500
    2078:	3024      	adds	r0, #36	; 0x24
    207a:	e59d      	b.n	0x1bb8
    207c:	5001      	str	r1, [r0, r0]
    207e:	e24b      	b.n	0x2518
    2080:	7004      	strb	r4, [r0, #0]
    2082:	e247      	b.n	0x2514
    2084:	a10b      	add	r1, pc, #44	; (adr r1, 0x20b4)
    2086:	e1a0      	b.n	0x23ca
    2088:	9004      	str	r0, [sp, #16]
    208a:	e243      	b.n	0x2514
    208c:	e009      	b.n	0x20a2
    208e:	e1a0      	b.n	0x23d2
    2090:	c008      	stmia	r0!, {r3}
    2092:	e1a0      	b.n	0x23d6
    2094:	0007      	movs	r7, r0
    2096:	e1a0      	b.n	0x23da
    2098:	3000      	adds	r0, #0
    209a:	e3a0      	b.n	0x27de
    209c:	6001      	str	r1, [r0, #0]
    209e:	e286      	b.n	0x25ae
    20a0:	0001      	movs	r1, r0
    20a2:	e155      	b.n	0x2350
    20a4:	2001      	movs	r0, #1
    20a6:	03a0      	lsls	r0, r4, #14
    20a8:	0002      	movs	r2, r0
    20aa:	0a00      	lsrs	r0, r0, #8
    20ac:	0006      	movs	r6, r0
    20ae:	e153      	b.n	0x2358
    20b0:	2000      	movs	r0, #0
    20b2:	13a0      	asrs	r0, r4, #14
    20b4:	2001      	movs	r0, #1
    20b6:	03a0      	lsls	r0, r4, #14
    20b8:	0001      	movs	r1, r0
    20ba:	e153      	b.n	0x2364
    20bc:	4000      	ands	r0, r0
    20be:	13a0      	asrs	r0, r4, #14
    20c0:	4001      	ands	r1, r0
    20c2:	03a0      	lsls	r0, r4, #14
    20c4:	3001      	adds	r0, #1
    20c6:	e283      	b.n	0x25d0
    20c8:	000b      	movs	r3, r1
    20ca:	e153      	b.n	0x2374
    20cc:	2004      	movs	r0, #4
    20ce:	e5a0      	b.n	0x1c12
    20d0:	2004      	movs	r0, #4
    20d2:	e5ac      	b.n	0x1c2e
    20d4:	4004      	ands	r4, r0
    20d6:	e5ae      	b.n	0x1c36
    20d8:	fff0 1aff 			; <UNDEFINED> instruction: 0xfff01aff
    20dc:	0006      	movs	r6, r0
    20de:	e15b      	b.n	0x2398
    20e0:	1001      	asrs	r1, r0, #32
    20e2:	e281      	b.n	0x25e8
    20e4:	700a      	strb	r2, [r1, #0]
    20e6:	e087      	b.n	0x21f8
    20e8:	800a      	strh	r2, [r1, #0]
    20ea:	e088      	b.n	0x21fe
    20ec:	900a      	str	r0, [sp, #40]	; 0x28
    20ee:	e089      	b.n	0x2204
    20f0:	ffe5 1aff 			; <UNDEFINED> instruction: 0xffe51aff
    20f4:	3230      	adds	r2, #48	; 0x30
    20f6:	e59f      	b.n	0x1c38
    20f8:	e024      	b.n	0x2144
    20fa:	e59d      	b.n	0x1c38
    20fc:	c010      	stmia	r0!, {r4}
    20fe:	e593      	b.n	0x1c28
    2100:	3e8b      	subs	r6, #139	; 0x8b
    2102:	e06b      	b.n	0x21dc
    2104:	3183      	adds	r1, #131	; 0x83
    2106:	e1a0      	b.n	0x244a
    2108:	303c      	adds	r0, #60	; 0x3c
    210a:	e58d      	b.n	0x1c28
    210c:	300a      	adds	r0, #10
    210e:	e08e      	b.n	0x222e
    2110:	302c      	adds	r0, #44	; 0x2c
    2112:	e58d      	b.n	0x1c30
    2114:	3008      	adds	r0, #8
    2116:	e59d      	b.n	0x1c54
    2118:	300a      	adds	r0, #10
    211a:	e083      	b.n	0x2224
    211c:	3028      	adds	r0, #40	; 0x28
    211e:	e58d      	b.n	0x1c3c
    2120:	301f      	adds	r0, #31
    2122:	e3a0      	b.n	0x2866
    2124:	3010      	adds	r0, #16
    2126:	e58d      	b.n	0x1c44
    2128:	31b2      	adds	r1, #178	; 0xb2
    212a:	e3e0      	b.n	0x28ee
    212c:	8000      	strh	r0, [r0, #0]
    212e:	e3a0      	b.n	0x2872
    2130:	100c      	asrs	r4, r1, #32
    2132:	e04e      	b.n	0x21d2
    2134:	000e      	movs	r6, r1
    2136:	e04c      	b.n	0x21d2
    2138:	100a      	asrs	r2, r1, #32
    213a:	e041      	b.n	0x21c0
    213c:	1004      	asrs	r4, r0, #32
    213e:	e241      	b.n	0x25c4
    2140:	000a      	movs	r2, r1
    2142:	e040      	b.n	0x21c6
    2144:	2f0b      	cmp	r7, #11
    2146:	e06b      	b.n	0x2220
    2148:	0004      	movs	r4, r0
    214a:	e240      	b.n	0x25ce
    214c:	1038      	asrs	r0, r7, #32
    214e:	e58d      	b.n	0x1c6c
    2150:	2102      	movs	r1, #2
    2152:	e1a0      	b.n	0x2496
    2154:	100a      	asrs	r2, r1, #32
    2156:	e08c      	b.n	0x2272
    2158:	c020      	stmia	r0!, {r5}
    215a:	e58d      	b.n	0x1c78
    215c:	001c      	movs	r4, r3
    215e:	e58d      	b.n	0x1c7c
    2160:	1030      	asrs	r0, r6, #32
    2162:	e58d      	b.n	0x1c80
    2164:	2034      	movs	r0, #52	; 0x34
    2166:	e58d      	b.n	0x1c84
    2168:	300c      	adds	r0, #12
    216a:	e58d      	b.n	0x1c88
    216c:	300c      	adds	r0, #12
    216e:	e59d      	b.n	0x1cac
    2170:	0001      	movs	r1, r0
    2172:	e313      	b.n	0x279c
    2174:	003f      	movs	r7, r7
    2176:	1a00      	subs	r0, r0, r0
    2178:	0000      	movs	r0, r0
    217a:	e35b      	b.n	0x2834
    217c:	0033      	movs	r3, r6
    217e:	da00      	bge.n	0x2182
    2180:	3008      	adds	r0, #8
    2182:	e59d      	b.n	0x1cc0
    2184:	9004      	str	r0, [sp, #16]
    2186:	e243      	b.n	0x2610
    2188:	3020      	adds	r0, #32
    218a:	e59d      	b.n	0x1cc8
    218c:	2000      	movs	r0, #0
    218e:	e3a0      	b.n	0x28d2
    2190:	3004      	adds	r0, #4
    2192:	e243      	b.n	0x261c
    2194:	7009      	strb	r1, [r1, #0]
    2196:	e1a0      	b.n	0x24da
    2198:	9018      	str	r0, [sp, #96]	; 0x60
    219a:	e58d      	b.n	0x1cb8
    219c:	9003      	str	r0, [sp, #12]
    219e:	e1a0      	b.n	0x24e2
    21a0:	3014      	adds	r0, #20
    21a2:	e58d      	b.n	0x1cc0
    21a4:	2004      	movs	r0, #4
    21a6:	e58d      	b.n	0x1cc4
    21a8:	1009      	asrs	r1, r1, #32
    21aa:	e1a0      	b.n	0x24ee
    21ac:	e000      	b.n	0x21b0
    21ae:	e3a0      	b.n	0x28f2
    21b0:	4008      	ands	r0, r1
    21b2:	e59d      	b.n	0x1cf0
    21b4:	3000      	adds	r0, #0
    21b6:	e3a0      	b.n	0x28fa
    21b8:	c004      	stmia	r0!, {r2}
    21ba:	e1a0      	b.n	0x24fe
    21bc:	2003      	movs	r0, #3
    21be:	e1a0      	b.n	0x2502
    21c0:	0007      	movs	r7, r0
    21c2:	e1a0      	b.n	0x2506
    21c4:	8004      	strh	r4, [r0, #0]
    21c6:	e5a1      	b.n	0x1d0c
    21c8:	5004      	str	r4, [r0, r0]
    21ca:	e5b0      	b.n	0x1d2e
    21cc:	600a      	str	r2, [r1, #0]
    21ce:	e69c      	b.n	0x1f0a
    21d0:	3596      	adds	r5, #150	; 0x96
    21d2:	e023      	b.n	0x221c
    21d4:	2001      	movs	r0, #1
    21d6:	e282      	b.n	0x26de
    21d8:	000b      	movs	r3, r1
    21da:	e152      	b.n	0x2482
    21dc:	3000      	adds	r0, #0
    21de:	e581      	b.n	0x1ce4
    21e0:	fff8 baff 			; <UNDEFINED> instruction: 0xfff8baff
    21e4:	e001      	b.n	0x21ea
    21e6:	e28e      	b.n	0x2706
    21e8:	000b      	movs	r3, r1
    21ea:	e15e      	b.n	0x24aa
    21ec:	4004      	ands	r4, r0
    21ee:	e284      	b.n	0x26fa
    21f0:	ffef baff 			; <UNDEFINED> instruction: 0xffefbaff
    21f4:	3004      	adds	r0, #4
    21f6:	e59d      	b.n	0x1d34
    21f8:	3001      	adds	r0, #1
    21fa:	e283      	b.n	0x2704
    21fc:	000b      	movs	r3, r1
    21fe:	e153      	b.n	0x24a8
    2200:	3004      	adds	r0, #4
    2202:	e58d      	b.n	0x1d20
    2204:	700a      	strb	r2, [r1, #0]
    2206:	e087      	b.n	0x2318
    2208:	900a      	str	r0, [sp, #40]	; 0x28
    220a:	e089      	b.n	0x2320
    220c:	ffe5 baff 			; <UNDEFINED> instruction: 0xffe5baff
    2210:	c000      	stmia	r0!, {}
    2212:	e3a0      	b.n	0x2956
    2214:	9018      	str	r0, [sp, #96]	; 0x60
    2216:	e59d      	b.n	0x1d54
    2218:	e014      	b.n	0x2244
    221a:	e59d      	b.n	0x1d58
    221c:	1009      	asrs	r1, r1, #32
    221e:	e1a0      	b.n	0x2562
    2220:	200e      	movs	r0, #14
    2222:	e1a0      	b.n	0x2566
    2224:	3000      	adds	r0, #0
    2226:	e3a0      	b.n	0x296a
    2228:	3001      	adds	r0, #1
    222a:	e283      	b.n	0x2734
    222c:	0004      	movs	r4, r0
    222e:	e5b2      	b.n	0x1d96
    2230:	000b      	movs	r3, r1
    2232:	e153      	b.n	0x24dc
    2234:	0004      	movs	r4, r0
    2236:	e5a1      	b.n	0x1d7c
    2238:	fffa baff 			; <UNDEFINED> instruction: 0xfffabaff
    223c:	c001      	stmia	r0!, {r0}
    223e:	e28c      	b.n	0x275a
    2240:	000b      	movs	r3, r1
    2242:	e15c      	b.n	0x24fe
    2244:	e00a      	b.n	0x225c
    2246:	e08e      	b.n	0x2366
    2248:	900a      	str	r0, [sp, #40]	; 0x28
    224a:	e089      	b.n	0x2360
    224c:	fff2 baff 			; <UNDEFINED> instruction: 0xfff2baff
    2250:	3010      	adds	r0, #16
    2252:	e59d      	b.n	0x1d90
    2254:	3001      	adds	r0, #1
    2256:	e253      	b.n	0x2700
    2258:	3010      	adds	r0, #16
    225a:	e58d      	b.n	0x1d78
    225c:	300c      	adds	r0, #12
    225e:	e59d      	b.n	0x1d9c
    2260:	30c3      	adds	r0, #195	; 0xc3
    2262:	e1a0      	b.n	0x25a6
    2264:	300c      	adds	r0, #12
    2266:	e58d      	b.n	0x1d84
    2268:	ffbf 1aff 			; <UNDEFINED> instruction: 0xffbf1aff
    226c:	d044      	beq.n	0x22f8
    226e:	e28d      	b.n	0x278c
    2270:	4ff0      	ldr	r7, [pc, #960]	; (0x2634)
    2272:	e8bd ff1e 	ldmia.w	sp!, {r1, r2, r3, r4, r8, r9, sl, fp, ip, sp, lr, pc}
    2276:	e12f      	b.n	0x24d8
    2278:	0000      	movs	r0, r0
    227a:	e35b      	b.n	0x2934
    227c:	fff3 daff 			; <UNDEFINED> instruction: 0xfff3daff
    2280:	7000      	strb	r0, [r0, #0]
    2282:	e3a0      	b.n	0x29c6
    2284:	402c      	ands	r4, r5
    2286:	e59d      	b.n	0x1dc4
    2288:	6024      	str	r4, [r4, #0]
    228a:	e59d      	b.n	0x1dc8
    228c:	9028      	str	r0, [sp, #160]	; 0xa0
    228e:	e59d      	b.n	0x1dcc
    2290:	301c      	adds	r0, #28
    2292:	e59d      	b.n	0x1dd0
    2294:	5008      	str	r0, [r1, r0]
    2296:	e59d      	b.n	0x1dd4
    2298:	e004      	b.n	0x22a4
    229a:	e083      	b.n	0x23a4
    229c:	1005      	asrs	r5, r0, #32
    229e:	e1a0      	b.n	0x25e2
    22a0:	2006      	movs	r0, #6
    22a2:	e1a0      	b.n	0x25e6
    22a4:	3000      	adds	r0, #0
    22a6:	e3a0      	b.n	0x29ea
    22a8:	8004      	strh	r4, [r0, #0]
    22aa:	e5ae      	b.n	0x1e0a
    22ac:	0004      	movs	r4, r0
    22ae:	e492      	b.n	0x1bd6
    22b0:	c00a      	stmia	r0!, {r1, r3}
    22b2:	e691      	b.n	0x1fd8
    22b4:	309c      	adds	r0, #156	; 0x9c
    22b6:	e023      	b.n	0x2300
    22b8:	0002      	movs	r2, r0
    22ba:	e154      	b.n	0x2566
    22bc:	3000      	adds	r0, #0
    22be:	e58e      	b.n	0x1dde
    22c0:	fff9 1aff 			; <UNDEFINED> instruction: 0xfff91aff
    22c4:	5004      	str	r4, [r0, r0]
    22c6:	e285      	b.n	0x27d4
    22c8:	0005      	movs	r5, r0
    22ca:	e159      	b.n	0x2580
    22cc:	fff2 1aff 			; <UNDEFINED> instruction: 0xfff21aff
    22d0:	7001      	strb	r1, [r0, #0]
    22d2:	e287      	b.n	0x27e4
    22d4:	000b      	movs	r3, r1
    22d6:	e157      	b.n	0x2588
    22d8:	600a      	str	r2, [r1, #0]
    22da:	e086      	b.n	0x23ea
    22dc:	400a      	ands	r2, r1
    22de:	e084      	b.n	0x23ea
    22e0:	ffea 1aff 			; <UNDEFINED> instruction: 0xffea1aff
    22e4:	c000      	stmia	r0!, {}
    22e6:	e3a0      	b.n	0x2a2a
    22e8:	4034      	ands	r4, r6
    22ea:	e28d      	b.n	0x2808
    22ec:	0030      	movs	r0, r6
    22ee:	e59d      	b.n	0x1e2c
    22f0:	0070      	lsls	r0, r6, #1
    22f2:	e894 e004 	ldmia.w	r4, {r2, sp, lr, pc}
    22f6:	e080      	b.n	0x23fa
    22f8:	300e      	adds	r0, #14
    22fa:	e1a0      	b.n	0x263e
    22fc:	2000      	movs	r0, #0
    22fe:	e085      	b.n	0x240c
    2300:	1004      	asrs	r4, r0, #32
    2302:	e493      	b.n	0x1c2c
    2304:	0003      	movs	r3, r0
    2306:	e150      	b.n	0x25aa
    2308:	1004      	asrs	r4, r0, #32
    230a:	e5a2      	b.n	0x1e52
    230c:	fffb 1aff 			; <UNDEFINED> instruction: 0xfffb1aff
    2310:	c001      	stmia	r0!, {r0}
    2312:	e28c      	b.n	0x282e
    2314:	000b      	movs	r3, r1
    2316:	e15c      	b.n	0x25d2
    2318:	0006      	movs	r6, r0
    231a:	e04e      	b.n	0x23ba
    231c:	fff4 1aff 			; <UNDEFINED> instruction: 0xfff41aff
    2320:	ff96 eaff 			; <UNDEFINED> instruction: 0xff96eaff
    2324:	a10b      	add	r1, pc, #44	; (adr r1, 0x2354)
    2326:	e1a0      	b.n	0x266a
    2328:	ff71 eaff 	vpmin.u<illegal width 64>	q15, <illegal reg q8.5>, <illegal reg q15.5>
    232c:	00ac      	lsls	r4, r5, #2
    232e:	0300      	lsls	r0, r0, #12
    2330:	202c      	movs	r0, #44	; 0x2c
    2332:	e59f      	b.n	0x1e74
    2334:	1000      	asrs	r0, r0, #32
    2336:	e592      	b.n	0x1e5e
    2338:	0001      	movs	r1, r0
    233a:	e241      	b.n	0x27c0
    233c:	0091      	lsls	r1, r2, #2
    233e:	e023      	b.n	0x2388
    2340:	0020      	movs	r0, r4
    2342:	e59f      	b.n	0x1e84
    2344:	100c      	asrs	r4, r1, #32
    2346:	e592      	b.n	0x1e6e
    2348:	2000      	movs	r0, #0
    234a:	e590      	b.n	0x1e6e
    234c:	0103      	lsls	r3, r0, #4
    234e:	e791      	b.n	0x2274
    2350:	300c      	adds	r0, #12
    2352:	e592      	b.n	0x1e7a
    2354:	3003      	adds	r0, #3
    2356:	e040      	b.n	0x23da
    2358:	0000      	movs	r0, r0
    235a:	e273      	b.n	0x2844
    235c:	0003      	movs	r3, r0
    235e:	e0a0      	b.n	0x24a2
    2360:	ff1e e12f 	vrhadd.u16	d14, d14, d31
    2364:	00ac      	lsls	r4, r5, #2
    2366:	0300      	lsls	r0, r0, #12
    2368:	0158      	lsls	r0, r3, #5
    236a:	0300      	lsls	r0, r0, #12
    236c:	3094      	adds	r0, #148	; 0x94
    236e:	e59f      	b.n	0x1eb0
    2370:	3000      	adds	r0, #0
    2372:	e593      	b.n	0x1e9c
    2374:	4070      	eors	r0, r6
    2376:	e92d 3000 	stmdb	sp!, {ip, sp}
    237a:	e593      	b.n	0x1ea4
    237c:	6088      	str	r0, [r1, #8]
    237e:	e59f      	b.n	0x1ec0
    2380:	0001      	movs	r1, r0
    2382:	e3a0      	b.n	0x2ac6
    2384:	3000      	adds	r0, #0
    2386:	e586      	b.n	0x1e96
    2388:	fbb8 ebff 			; <UNDEFINED> instruction: 0xfbb8ebff
    238c:	007c      	lsls	r4, r7, #1
    238e:	e59f      	b.n	0x1ed0
    2390:	fb90 ebff 			; <UNDEFINED> instruction: 0xfb90ebff
    2394:	0004      	movs	r4, r0
    2396:	e586      	b.n	0x1ea6
    2398:	0000      	movs	r0, r0
    239a:	e596      	b.n	0x1eca
    239c:	fb8d ebff 			; <UNDEFINED> instruction: 0xfb8debff
    23a0:	3000      	adds	r0, #0
    23a2:	e596      	b.n	0x1ed2
    23a4:	0008      	movs	r0, r1
    23a6:	e586      	b.n	0x1eb6
    23a8:	0e19      	lsrs	r1, r3, #24
    23aa:	e283      	b.n	0x28b4
    23ac:	fb89 ebff 			; <UNDEFINED> instruction: 0xfb89ebff
    23b0:	3000      	adds	r0, #0
    23b2:	e596      	b.n	0x1ee2
    23b4:	0000      	movs	r0, r0
    23b6:	e353      	b.n	0x2a60
    23b8:	000c      	movs	r4, r1
    23ba:	e586      	b.n	0x1eca
    23bc:	000f      	movs	r7, r1
    23be:	da00      	bge.n	0x23c2
    23c0:	4000      	ands	r0, r0
    23c2:	e3a0      	b.n	0x2b06
    23c4:	5048      	str	r0, [r1, r1]
    23c6:	e59f      	b.n	0x1f08
    23c8:	fbae ebff 			; <UNDEFINED> instruction: 0xfbaeebff
    23cc:	3095      	adds	r0, #149	; 0x95
    23ce:	e0c2      	b.n	0x2556
    23d0:	3fc0      	subs	r7, #192	; 0xc0
    23d2:	e1a0      	b.n	0x2716
    23d4:	31c2      	adds	r1, #194	; 0xc2
    23d6:	e063      	b.n	0x24a0
    23d8:	2083      	movs	r0, #131	; 0x83
    23da:	e083      	b.n	0x24e4
    23dc:	3102      	adds	r1, #2
    23de:	e083      	b.n	0x24e8
    23e0:	0083      	lsls	r3, r0, #2
    23e2:	e040      	b.n	0x2466
    23e4:	2008      	movs	r0, #8
    23e6:	e596      	b.n	0x1f16
    23e8:	0061      	lsls	r1, r4, #1
    23ea:	e280      	b.n	0x28ee
    23ec:	3000      	adds	r0, #0
    23ee:	e596      	b.n	0x1f1e
    23f0:	0004      	movs	r4, r0
    23f2:	e7c2      	b.n	0x237a
    23f4:	4001      	ands	r1, r0
    23f6:	e284      	b.n	0x2902
    23f8:	0004      	movs	r4, r0
    23fa:	e153      	b.n	0x26a4
    23fc:	fff1 caff 			; <UNDEFINED> instruction: 0xfff1caff
    2400:	4070      	eors	r0, r6
    2402:	e8bd ff1e 	ldmia.w	sp!, {r1, r2, r3, r4, r8, r9, sl, fp, ip, sp, lr, pc}
    2406:	e12f      	b.n	0x2668
    2408:	0158      	lsls	r0, r3, #5
    240a:	0300      	lsls	r0, r0, #12
    240c:	00c0      	lsls	r0, r0, #3
    240e:	0300      	lsls	r0, r0, #12
    2410:	1004      	asrs	r4, r0, #32
    2412:	0004      	movs	r4, r0
    2414:	ec4f 4ec4 	stcl	14, cr4, [pc], {196}	; 0xc4
    2418:	4010      	ands	r0, r2
    241a:	e92d 4018 	stmdb	sp!, {r3, r4, lr}
    241e:	e59f      	b.n	0x1f60
    2420:	0008      	movs	r0, r1
    2422:	e284      	b.n	0x292e
    2424:	000c      	movs	r4, r1
    2426:	e894 0003 	ldmia.w	r4, {r0, r1}
    242a:	e890 01cc 	ldmia.w	r0, {r2, r3, r6, r7, r8}
    242e:	eb00 0010 	add.w	r0, r0, r0, lsr #32
    2432:	e584      	b.n	0x1f3e
    2434:	4010      	ands	r0, r2
    2436:	e8bd ff1e 	ldmia.w	sp!, {r1, r2, r3, r4, r8, r9, sl, fp, ip, sp, lr, pc}
    243a:	e12f      	b.n	0x269c
    243c:	00c0      	lsls	r0, r0, #3
    243e:	0300      	lsls	r0, r0, #12
    2440:	2034      	movs	r0, #52	; 0x34
    2442:	e59f      	b.n	0x1f84
    2444:	300c      	adds	r0, #12
    2446:	e592      	b.n	0x1f6e
    2448:	1010      	asrs	r0, r2, #32
    244a:	e592      	b.n	0x1f72
    244c:	4010      	ands	r0, r2
    244e:	e92d 0003 	stmdb	sp!, {r0, r1}
    2452:	e1a0      	b.n	0x2796
    2454:	1001      	asrs	r1, r0, #32
    2456:	e083      	b.n	0x2560
    2458:	fb97 ebff 			; <UNDEFINED> instruction: 0xfb97ebff
    245c:	301c      	adds	r0, #28
    245e:	e59f      	b.n	0x1fa0
    2460:	3000      	adds	r0, #0
    2462:	e593      	b.n	0x1f8c
    2464:	300c      	adds	r0, #12
    2466:	e593      	b.n	0x1f90
    2468:	3000      	adds	r0, #0
    246a:	e043      	b.n	0x24f4
    246c:	0000      	movs	r0, r0
    246e:	e273      	b.n	0x2958
    2470:	0003      	movs	r3, r0
    2472:	e0a0      	b.n	0x25b6
    2474:	4010      	ands	r0, r2
    2476:	e8bd ff1e 	ldmia.w	sp!, {r1, r2, r3, r4, r8, r9, sl, fp, ip, sp, lr, pc}
    247a:	e12f      	b.n	0x26dc
    247c:	00c0      	lsls	r0, r0, #3
    247e:	0300      	lsls	r0, r0, #12
    2480:	0158      	lsls	r0, r3, #5
    2482:	0300      	lsls	r0, r0, #12
    2484:	3064      	adds	r0, #100	; 0x64
    2486:	e59f      	b.n	0x1fc8
    2488:	3000      	adds	r0, #0
    248a:	e593      	b.n	0x1fb4
    248c:	4070      	eors	r0, r6
    248e:	e92d 3000 	stmdb	sp!, {ip, sp}
    2492:	e593      	b.n	0x1fbc
    2494:	5058      	str	r0, [r3, r1]
    2496:	e59f      	b.n	0x1fd8
    2498:	0001      	movs	r1, r0
    249a:	e3a0      	b.n	0x2bde
    249c:	3000      	adds	r0, #0
    249e:	e585      	b.n	0x1fac
    24a0:	fb72 ebff 			; <UNDEFINED> instruction: 0xfb72ebff
    24a4:	0000      	movs	r0, r0
    24a6:	e595      	b.n	0x1fd4
    24a8:	fb4a ebff 			; <UNDEFINED> instruction: 0xfb4aebff
    24ac:	3000      	adds	r0, #0
    24ae:	e595      	b.n	0x1fdc
    24b0:	0000      	movs	r0, r0
    24b2:	e353      	b.n	0x2b5c
    24b4:	0004      	movs	r4, r0
    24b6:	e585      	b.n	0x1fc4
    24b8:	0007      	movs	r7, r0
    24ba:	da00      	bge.n	0x24be
    24bc:	4000      	ands	r0, r0
    24be:	e3a0      	b.n	0x2c02
    24c0:	fb70 ebff 			; <UNDEFINED> instruction: 0xfb70ebff
    24c4:	2004      	movs	r0, #4
    24c6:	e595      	b.n	0x1ff4
    24c8:	3000      	adds	r0, #0
    24ca:	e595      	b.n	0x1ff8
    24cc:	0004      	movs	r4, r0
    24ce:	e7c2      	b.n	0x2456
    24d0:	4001      	ands	r1, r0
    24d2:	e284      	b.n	0x29de
    24d4:	0004      	movs	r4, r0
    24d6:	e153      	b.n	0x2780
    24d8:	fff8 caff 			; <UNDEFINED> instruction: 0xfff8caff
    24dc:	0010      	movs	r0, r2
    24de:	e3a0      	b.n	0x2c22
    24e0:	fb3c ebff 			; <UNDEFINED> instruction: 0xfb3cebff
    24e4:	0008      	movs	r0, r1
    24e6:	e585      	b.n	0x1ff4
    24e8:	4070      	eors	r0, r6
    24ea:	e8bd ff1e 	ldmia.w	sp!, {r1, r2, r3, r4, r8, r9, sl, fp, ip, sp, lr, pc}
    24ee:	e12f      	b.n	0x2750
    24f0:	0158      	lsls	r0, r3, #5
    24f2:	0300      	lsls	r0, r0, #12
    24f4:	00d4      	lsls	r4, r2, #3
    24f6:	0300      	lsls	r0, r0, #12
    24f8:	22c4      	movs	r2, #196	; 0xc4
    24fa:	e59f      	b.n	0x203c
    24fc:	4ff0      	ldr	r7, [pc, #960]	; (0x28c0)
    24fe:	e92d 3000 	stmdb	sp!, {ip, sp}
    2502:	e592      	b.n	0x202a
    2504:	1001      	asrs	r1, r0, #32
    2506:	e283      	b.n	0x2a10
    2508:	003f      	movs	r7, r7
    250a:	e201      	b.n	0x2910
    250c:	8004      	strh	r4, [r0, #0]
    250e:	e592      	b.n	0x2036
    2510:	0038      	movs	r0, r7
    2512:	e350      	b.n	0x2bb6
    2514:	d05c      	beq.n	0x25d0
    2516:	e24d      	b.n	0x29b4
    2518:	0008      	movs	r0, r1
    251a:	e592      	b.n	0x2042
    251c:	2003      	movs	r0, #3
    251e:	e088      	b.n	0x2632
    2520:	00a3      	lsls	r3, r4, #2
    2522:	0a00      	lsrs	r0, r0, #8
    2524:	5001      	str	r1, [r0, r0]
    2526:	e1a0      	b.n	0x286a
    2528:	5001      	str	r1, [r0, r0]
    252a:	e285      	b.n	0x2a38
    252c:	c03f      	stmia	r0!, {r0, r1, r2, r3, r4, r5}
    252e:	e205      	b.n	0x293c
    2530:	0038      	movs	r0, r7
    2532:	e35c      	b.n	0x2bee
    2534:	fffb 1aff 			; <UNDEFINED> instruction: 0xfffb1aff
    2538:	c07f      	stmia	r0!, {r0, r1, r2, r3, r4, r5, r6}
    253a:	e3e0      	b.n	0x2cfe
    253c:	0005      	movs	r5, r0
    253e:	e151      	b.n	0x27e4
    2540:	c003      	stmia	r0!, {r0, r1}
    2542:	e7c8      	b.n	0x24d6
    2544:	0005      	movs	r5, r0
    2546:	2a00      	cmp	r2, #0
    2548:	c000      	stmia	r0!, {}
    254a:	e3a0      	b.n	0x2c8e
    254c:	1001      	asrs	r1, r0, #32
    254e:	e248      	b.n	0x29e2
    2550:	1005      	asrs	r5, r0, #32
    2552:	e081      	b.n	0x2658
    2554:	c001      	stmia	r0!, {r0}
    2556:	e5e2      	b.n	0x211e
    2558:	0002      	movs	r2, r0
    255a:	e151      	b.n	0x2800
    255c:	fffc 1aff 			; <UNDEFINED> instruction: 0xfffc1aff
    2560:	1000      	asrs	r0, r0, #32
    2562:	e3a0      	b.n	0x2ca6
    2564:	e183      	b.n	0x286e
    2566:	e1a0      	b.n	0x28aa
    2568:	c004      	stmia	r0!, {r2}
    256a:	e285      	b.n	0x2a78
    256c:	942e      	str	r4, [sp, #184]	; 0xb8
    256e:	e1a0      	b.n	0x28b2
    2570:	2005      	movs	r0, #5
    2572:	e088      	b.n	0x2686
    2574:	400c      	ands	r4, r1
    2576:	e088      	b.n	0x268a
    2578:	782e      	ldrb	r6, [r5, #0]
    257a:	e1a0      	b.n	0x28be
    257c:	6c2e      	ldr	r6, [r5, #64]	; 0x40
    257e:	e1a0      	b.n	0x28c2
    2580:	3ea3      	subs	r6, #163	; 0xa3
    2582:	e1a0      	b.n	0x28c6
    2584:	e005      	b.n	0x2592
    2586:	e7c8      	b.n	0x251a
    2588:	1004      	asrs	r4, r0, #32
    258a:	e58d      	b.n	0x20a8
    258c:	9001      	str	r0, [sp, #4]
    258e:	e5c2      	b.n	0x2116
    2590:	7002      	strb	r2, [r0, #0]
    2592:	e5c2      	b.n	0x211a
    2594:	6003      	str	r3, [r0, #0]
    2596:	e5c2      	b.n	0x211e
    2598:	b228      	sxth	r0, r5
    259a:	e59f      	b.n	0x20dc
    259c:	300c      	adds	r0, #12
    259e:	e7c8      	b.n	0x2532
    25a0:	a224      	add	r2, pc, #144	; (adr r2, 0x2634)
    25a2:	e59f      	b.n	0x20e4
    25a4:	1001      	asrs	r1, r0, #32
    25a6:	e5c4      	b.n	0x2132
    25a8:	1002      	asrs	r2, r0, #32
    25aa:	e5c4      	b.n	0x2136
    25ac:	1003      	asrs	r3, r0, #32
    25ae:	e5c4      	b.n	0x213a
    25b0:	9218      	str	r2, [sp, #96]	; 0x60
    25b2:	e59f      	b.n	0x20f4
    25b4:	e218      	b.n	0x29e8
    25b6:	e59f      	b.n	0x20f8
    25b8:	800c      	strh	r4, [r1, #0]
    25ba:	e58d      	b.n	0x20d8
    25bc:	0010      	movs	r0, r2
    25be:	e58d      	b.n	0x20dc
    25c0:	5014      	str	r4, [r2, r0]
    25c2:	e58d      	b.n	0x20e0
    25c4:	300c      	adds	r0, #12
    25c6:	e59d      	b.n	0x2104
    25c8:	2004      	movs	r0, #4
    25ca:	e59d      	b.n	0x2108
    25cc:	1018      	asrs	r0, r3, #32
    25ce:	e28d      	b.n	0x2aec
    25d0:	2002      	movs	r0, #2
    25d2:	e083      	b.n	0x26dc
    25d4:	0001      	movs	r1, r0
    25d6:	e5d2      	b.n	0x217e
    25d8:	3000      	adds	r0, #0
    25da:	e5d2      	b.n	0x2182
    25dc:	c002      	stmia	r0!, {r1}
    25de:	e5d2      	b.n	0x2186
    25e0:	3400      	adds	r4, #0
    25e2:	e183      	b.n	0x28ec
    25e4:	0003      	movs	r3, r0
    25e6:	e5d2      	b.n	0x218e
    25e8:	380c      	subs	r0, #12
    25ea:	e183      	b.n	0x28f4
    25ec:	3c00      	subs	r4, #0
    25ee:	e183      	b.n	0x28f8
    25f0:	3004      	adds	r0, #4
    25f2:	e481      	b.n	0x1ef8
    25f4:	3058      	adds	r0, #88	; 0x58
    25f6:	e28d      	b.n	0x2b14
    25f8:	0001      	movs	r1, r0
    25fa:	e153      	b.n	0x28a4
    25fc:	2004      	movs	r0, #4
    25fe:	e282      	b.n	0x2b06
    2600:	fff3 1aff 			; <UNDEFINED> instruction: 0xfff31aff
    2604:	c000      	stmia	r0!, {}
    2606:	e3a0      	b.n	0x2d4a
    2608:	700e      	strb	r6, [r1, #0]
    260a:	e1a0      	b.n	0x294e
    260c:	81c4      	strh	r4, [r0, #14]
    260e:	e59f      	b.n	0x2150
    2610:	21c4      	movs	r1, #196	; 0xc4
    2612:	e59f      	b.n	0x2154
    2614:	0c01      	lsrs	r1, r0, #16
    2616:	e288      	b.n	0x2b2a
    2618:	000f      	movs	r7, r1
    261a:	e35c      	b.n	0x2cd6
    261c:	4009      	ands	r1, r1
    261e:	e1a0      	b.n	0x2962
    2620:	600b      	str	r3, [r1, #0]
    2622:	e1a0      	b.n	0x2966
    2624:	500a      	str	r2, [r1, r0]
    2626:	e1a0      	b.n	0x296a
    2628:	3007      	adds	r0, #7
    262a:	e3a0      	b.n	0x2d6e
    262c:	0008      	movs	r0, r1
    262e:	e58d      	b.n	0x214c
    2630:	7002      	strb	r2, [r0, #0]
    2632:	e087      	b.n	0x2744
    2634:	001a      	movs	r2, r3
    2636:	9a00      	ldr	r2, [sp, #0]
    2638:	1004      	asrs	r4, r0, #32
    263a:	e025      	b.n	0x2688
    263c:	210c      	movs	r1, #12
    263e:	e08c      	b.n	0x275a
    2640:	001f      	movs	r7, r3
    2642:	e35c      	b.n	0x2cfe
    2644:	1006      	asrs	r6, r0, #32
    2646:	e001      	b.n	0x264c
    2648:	2001      	movs	r0, #1
    264a:	e282      	b.n	0x2b52
    264c:	1005      	asrs	r5, r0, #32
    264e:	9021      	str	r0, [sp, #132]	; 0x84
    2650:	200f      	movs	r0, #15
    2652:	9202      	str	r2, [sp, #8]
    2654:	0017      	movs	r7, r2
    2656:	8a00      	ldrh	r0, [r0, #16]
    2658:	0058      	lsls	r0, r3, #1
    265a:	e28d      	b.n	0x2b78
    265c:	2102      	movs	r1, #2
    265e:	e080      	b.n	0x2762
    2660:	2040      	movs	r0, #64	; 0x40
    2662:	e512      	b.n	0x208a
    2664:	1007      	asrs	r7, r0, #32
    2666:	e081      	b.n	0x276c
    2668:	1002      	asrs	r2, r0, #32
    266a:	e081      	b.n	0x2770
    266c:	3020      	adds	r0, #32
    266e:	e263      	b.n	0x2b38
    2670:	3371      	adds	r3, #113	; 0x71
    2672:	e084      	b.n	0x277e
    2674:	7006      	strb	r6, [r0, #0]
    2676:	e1a0      	b.n	0x29ba
    2678:	1008      	asrs	r0, r1, #32
    267a:	e59d      	b.n	0x21b8
    267c:	6005      	str	r5, [r0, #0]
    267e:	e1a0      	b.n	0x29c2
    2680:	2004      	movs	r0, #4
    2682:	e5b8      	b.n	0x21f6
    2684:	5004      	str	r4, [r0, r0]
    2686:	e1a0      	b.n	0x29ca
    2688:	c001      	stmia	r0!, {r0}
    268a:	e28c      	b.n	0x2ba6
    268c:	4003      	ands	r3, r0
    268e:	e1a0      	b.n	0x29d2
    2690:	3004      	adds	r0, #4
    2692:	e5b1      	b.n	0x21f8
    2694:	000f      	movs	r7, r1
    2696:	e35c      	b.n	0x2d52
    2698:	1008      	asrs	r0, r1, #32
    269a:	e58d      	b.n	0x21b8
    269c:	7002      	strb	r2, [r0, #0]
    269e:	e087      	b.n	0x27b0
    26a0:	ffe4 8aff 			; <UNDEFINED> instruction: 0xffe48aff
    26a4:	1006      	asrs	r6, r0, #32
    26a6:	e025      	b.n	0x26f4
    26a8:	1004      	asrs	r4, r0, #32
    26aa:	e001      	b.n	0x26b0
    26ac:	1006      	asrs	r6, r0, #32
    26ae:	e021      	b.n	0x26f4
    26b0:	200c      	movs	r0, #12
    26b2:	e1a0      	b.n	0x29f6
    26b4:	ffe7 eaff 			; <UNDEFINED> instruction: 0xffe7eaff
    26b8:	208c      	movs	r0, #140	; 0x8c
    26ba:	e08c      	b.n	0x27d6
    26bc:	002f      	movs	r7, r5
    26be:	e35c      	b.n	0x2d7a
    26c0:	1006      	asrs	r6, r0, #32
    26c2:	e025      	b.n	0x2710
    26c4:	2005      	movs	r0, #5
    26c6:	e282      	b.n	0x2bce
    26c8:	1004      	asrs	r4, r0, #32
    26ca:	9021      	str	r0, [sp, #132]	; 0x84
    26cc:	200f      	movs	r0, #15
    26ce:	9202      	str	r2, [sp, #8]
    26d0:	ffe0 9aff 			; <UNDEFINED> instruction: 0xffe09aff
    26d4:	1006      	asrs	r6, r0, #32
    26d6:	e1e0      	b.n	0x2a9a
    26d8:	218c      	movs	r1, #140	; 0x8c
    26da:	e06c      	b.n	0x27b6
    26dc:	200f      	movs	r0, #15
    26de:	e202      	b.n	0x2ae6
    26e0:	0058      	lsls	r0, r3, #1
    26e2:	e28d      	b.n	0x2c00
    26e4:	1004      	asrs	r4, r0, #32
    26e6:	e181      	b.n	0x29ec
    26e8:	2102      	movs	r1, #2
    26ea:	e080      	b.n	0x27ee
    26ec:	1005      	asrs	r5, r0, #32
    26ee:	e021      	b.n	0x2734
    26f0:	2040      	movs	r0, #64	; 0x40
    26f2:	e512      	b.n	0x211a
    26f4:	1007      	asrs	r7, r0, #32
    26f6:	e081      	b.n	0x27fc
    26f8:	003f      	movs	r7, r7
    26fa:	e35c      	b.n	0x2db6
    26fc:	7020      	strb	r0, [r4, #0]
    26fe:	e263      	b.n	0x2bc8
    2700:	3002      	adds	r0, #2
    2702:	e081      	b.n	0x2808
    2704:	3773      	adds	r7, #115	; 0x73
    2706:	e084      	b.n	0x2812
    2708:	ffd9 1aff 			; <UNDEFINED> instruction: 0xffd91aff
    270c:	2004      	movs	r0, #4
    270e:	e59d      	b.n	0x224c
    2710:	1014      	asrs	r4, r2, #32
    2712:	e59d      	b.n	0x2250
    2714:	2040      	movs	r0, #64	; 0x40
    2716:	e282      	b.n	0x2c1e
    2718:	0002      	movs	r2, r0
    271a:	e151      	b.n	0x29c0
    271c:	2004      	movs	r0, #4
    271e:	e58d      	b.n	0x223c
    2720:	e006      	b.n	0x2730
    2722:	e08e      	b.n	0x2842
    2724:	9003      	str	r0, [sp, #12]
    2726:	e089      	b.n	0x283c
    2728:	a004      	add	r0, pc, #16	; (adr r0, 0x273c)
    272a:	e08a      	b.n	0x2842
    272c:	b005      	add	sp, #20
    272e:	e08b      	b.n	0x2848
    2730:	ffa3 8aff 			; <UNDEFINED> instruction: 0xffa38aff
    2734:	0010      	movs	r0, r2
    2736:	e59d      	b.n	0x2274
    2738:	242e      	movs	r4, #46	; 0x2e
    273a:	e1a0      	b.n	0x2a7e
    273c:	382e      	subs	r0, #46	; 0x2e
    273e:	e1a0      	b.n	0x2a82
    2740:	1829      	adds	r1, r5, r0
    2742:	e1a0      	b.n	0x2a86
    2744:	e000      	b.n	0x2748
    2746:	e5c0      	b.n	0x22ca
    2748:	2001      	movs	r0, #1
    274a:	e5c0      	b.n	0x22ce
    274c:	ec2e e1a0 	stfd	f6, [lr], #-640	; 0xfffffd80
    2750:	2429      	movs	r4, #41	; 0x29
    2752:	e1a0      	b.n	0x2a96
    2754:	3002      	adds	r0, #2
    2756:	e5c0      	b.n	0x22da
    2758:	3c29      	subs	r4, #41	; 0x29
    275a:	e1a0      	b.n	0x2a9e
    275c:	e003      	b.n	0x2766
    275e:	e5c0      	b.n	0x22e2
    2760:	442a      	add	r2, r5
    2762:	e1a0      	b.n	0x2aa6
    2764:	2005      	movs	r0, #5
    2766:	e5c0      	b.n	0x22ea
    2768:	e82a e1a0 			; <UNDEFINED> instruction: 0xe82ae1a0
    276c:	2c2a      	cmp	r4, #42	; 0x2a
    276e:	e1a0      	b.n	0x2ab2
    2770:	1006      	asrs	r6, r0, #32
    2772:	e5c0      	b.n	0x22f6
    2774:	c42b      	stmia	r4!, {r0, r1, r3, r5}
    2776:	e1a0      	b.n	0x2aba
    2778:	3007      	adds	r0, #7
    277a:	e5c0      	b.n	0x22fe
    277c:	182b      	adds	r3, r5, r0
    277e:	e1a0      	b.n	0x2ac2
    2780:	3c2b      	subs	r4, #43	; 0x2b
    2782:	e1a0      	b.n	0x2ac6
    2784:	9004      	str	r0, [sp, #16]
    2786:	e5c0      	b.n	0x230a
    2788:	a008      	add	r0, pc, #32	; (adr r0, 0x27ac)
    278a:	e5c0      	b.n	0x230e
    278c:	b00c      	add	sp, #48	; 0x30
    278e:	e5c0      	b.n	0x2312
    2790:	4009      	ands	r1, r1
    2792:	e5c0      	b.n	0x2316
    2794:	e00a      	b.n	0x27ac
    2796:	e5c0      	b.n	0x231a
    2798:	200b      	movs	r0, #11
    279a:	e5c0      	b.n	0x231e
    279c:	c00d      	stmia	r0!, {r0, r2, r3}
    279e:	e5c0      	b.n	0x2322
    27a0:	100e      	asrs	r6, r1, #32
    27a2:	e5c0      	b.n	0x2326
    27a4:	300f      	adds	r0, #15
    27a6:	e5c0      	b.n	0x232a
    27a8:	d05c      	beq.n	0x2864
    27aa:	e28d      	b.n	0x2cc8
    27ac:	4ff0      	ldr	r7, [pc, #960]	; (0x2b70)
    27ae:	e8bd ff1e 	ldmia.w	sp!, {r1, r2, r3, r4, r8, r9, sl, fp, ip, sp, lr, pc}
    27b2:	e12f      	b.n	0x2a14
    27b4:	207f      	movs	r0, #127	; 0x7f
    27b6:	e3e0      	b.n	0x2f7a
    27b8:	5001      	str	r1, [r0, r0]
    27ba:	e1a0      	b.n	0x2afe
    27bc:	2003      	movs	r0, #3
    27be:	e7c8      	b.n	0x2752
    27c0:	ff66 eaff 	vpmin.u32	q15, q11, <illegal reg q15.5>
    27c4:	00d4      	lsls	r4, r2, #3
    27c6:	0300      	lsls	r0, r0, #12
    27c8:	5476      	strb	r6, [r6, r1]
    27ca:	1032      	asrs	r2, r6, #32
    27cc:	dcfe      	bgt.n	0x27cc
    27ce:	98ba      	ldr	r0, [sp, #744]	; 0x2e8
    27d0:	ab89      	add	r3, sp, #548	; 0x224
    27d2:	efcd 2301 	vsubw.s8	q9, <illegal reg q6.5>, d1
    27d6:	6745      	str	r5, [r0, #116]	; 0x74
    27d8:	646c      	str	r4, [r5, #68]	; 0x44
    27da:	0800      	lsrs	r0, r0, #32
    27dc:	a478      	add	r4, pc, #480	; (adr r4, 0x29c0)
    27de:	d76a      	bvc.n	0x28b6
    27e0:	302c      	adds	r0, #44	; 0x2c
    27e2:	e59f      	b.n	0x2324
    27e4:	0008      	movs	r0, r1
    27e6:	e593      	b.n	0x2310
    27e8:	4010      	ands	r0, r2
    27ea:	e92d 1010 	stmdb	sp!, {r4, ip}
    27ee:	e280      	b.n	0x2cf2
    27f0:	fab1 ebff 			; <UNDEFINED> instruction: 0xfab1ebff
    27f4:	301c      	adds	r0, #28
    27f6:	e59f      	b.n	0x2338
    27f8:	3000      	adds	r0, #0
    27fa:	e593      	b.n	0x2324
    27fc:	300c      	adds	r0, #12
    27fe:	e593      	b.n	0x2328
    2800:	3000      	adds	r0, #0
    2802:	e043      	b.n	0x288c
    2804:	0000      	movs	r0, r0
    2806:	e273      	b.n	0x2cf0
    2808:	0003      	movs	r3, r0
    280a:	e0a0      	b.n	0x294e
    280c:	4010      	ands	r0, r2
    280e:	e8bd ff1e 	ldmia.w	sp!, {r1, r2, r3, r4, r8, r9, sl, fp, ip, sp, lr, pc}
    2812:	e12f      	b.n	0x2a74
    2814:	00d4      	lsls	r4, r2, #3
    2816:	0300      	lsls	r0, r0, #12
    2818:	0158      	lsls	r0, r3, #5
    281a:	0300      	lsls	r0, r0, #12
    281c:	47f0      	blx	lr
    281e:	e92d 5000 	stmdb	sp!, {ip, lr}
    2822:	e1a0      	b.n	0x2b66
    2824:	8002      	strh	r2, [r0, #0]
    2826:	e1a0      	b.n	0x2b6a
    2828:	7004      	strb	r4, [r0, #0]
    282a:	e240      	b.n	0x2cae
    282c:	0001      	movs	r1, r0
    282e:	e158      	b.n	0x2ae2
    2830:	001b      	movs	r3, r3
    2832:	da00      	bge.n	0x2836
    2834:	6108      	str	r0, [r1, #16]
    2836:	e087      	b.n	0x2948
    2838:	3001      	adds	r0, #1
    283a:	e281      	b.n	0x2d40
    283c:	0003      	movs	r3, r0
    283e:	e158      	b.n	0x2af2
    2840:	9101      	str	r1, [sp, #4]
    2842:	e1a0      	b.n	0x2b86
    2844:	3009      	adds	r0, #9
    2846:	e085      	b.n	0x2954
    2848:	a101      	add	r1, pc, #4	; (adr r1, 0x2850)
    284a:	e795      	b.n	0x2778
    284c:	0016      	movs	r6, r2
    284e:	da00      	bge.n	0x2852
    2850:	2001      	movs	r0, #1
    2852:	e1a0      	b.n	0x2b96
    2854:	0004      	movs	r4, r0
    2856:	e5b3      	b.n	0x23c0
    2858:	4001      	ands	r1, r0
    285a:	e282      	b.n	0x2d62
    285c:	000a      	movs	r2, r1
    285e:	e150      	b.n	0x2b02
    2860:	e104      	b.n	0x2a6c
    2862:	b795      			; <UNDEFINED> instruction: 0xb795
    2864:	c002      	stmia	r0!, {r1}
    2866:	e282      	b.n	0x2d6e
    2868:	0104      	lsls	r4, r0, #4
    286a:	b785      			; <UNDEFINED> instruction: 0xb785
    286c:	2004      	movs	r0, #4
    286e:	b1a0      	cbz	r0, 0x289a
    2870:	e000      	b.n	0x2874
    2872:	b583      	push	{r0, r1, r7, lr}
    2874:	400c      	ands	r4, r1
    2876:	b1a0      	cbz	r0, 0x28a2
    2878:	0003      	movs	r3, r0
    287a:	e156      	b.n	0x2b2a
    287c:	fff4 1aff 			; <UNDEFINED> instruction: 0xfff41aff
    2880:	0009      	movs	r1, r1
    2882:	e795      	b.n	0x27b0
    2884:	3102      	adds	r1, #2
    2886:	e795      	b.n	0x27b4
    2888:	0102      	lsls	r2, r0, #4
    288a:	e785      	b.n	0x2798
    288c:	3009      	adds	r0, #9
    288e:	e785      	b.n	0x279c
    2890:	0005      	movs	r5, r0
    2892:	e1a0      	b.n	0x2bd6
    2894:	ffe0 ebff 			; <UNDEFINED> instruction: 0xffe0ebff
    2898:	0004      	movs	r4, r0
    289a:	e158      	b.n	0x2b4e
    289c:	1004      	asrs	r4, r0, #32
    289e:	e1a0      	b.n	0x2be2
    28a0:	ffe4 caff 			; <UNDEFINED> instruction: 0xffe4caff
    28a4:	47f0      	blx	lr
    28a6:	e8bd ff1e 	ldmia.w	sp!, {r1, r2, r3, r4, r8, r9, sl, fp, ip, sp, lr, pc}
    28aa:	e12f      	b.n	0x2b0c
    28ac:	8001      	strh	r1, [r0, #0]
    28ae:	e1a0      	b.n	0x2bf2
    28b0:	ffdd eaff 			; <UNDEFINED> instruction: 0xffddeaff
    28b4:	4070      	eors	r0, r6
    28b6:	e92d 0001 	stmdb	sp!, {r0}
    28ba:	e3a0      	b.n	0x2ffe
    28bc:	fa6b ebff 			; <UNDEFINED> instruction: 0xfa6bebff
    28c0:	3058      	adds	r0, #88	; 0x58
    28c2:	e59f      	b.n	0x2404
    28c4:	3000      	adds	r0, #0
    28c6:	e593      	b.n	0x23f0
    28c8:	3000      	adds	r0, #0
    28ca:	e593      	b.n	0x23f4
    28cc:	6050      	str	r0, [r2, #4]
    28ce:	e59f      	b.n	0x2410
    28d0:	0103      	lsls	r3, r0, #4
    28d2:	e1a0      	b.n	0x2c16
    28d4:	3000      	adds	r0, #0
    28d6:	e586      	b.n	0x23e6
    28d8:	fa3e ebff 			; <UNDEFINED> instruction: 0xfa3eebff
    28dc:	3000      	adds	r0, #0
    28de:	e596      	b.n	0x240e
    28e0:	0000      	movs	r0, r0
    28e2:	e353      	b.n	0x2f8c
    28e4:	0004      	movs	r4, r0
    28e6:	e586      	b.n	0x23f6
    28e8:	000a      	movs	r2, r1
    28ea:	da00      	bge.n	0x28ee
    28ec:	4000      	ands	r0, r0
    28ee:	e3a0      	b.n	0x3032
    28f0:	fa64 ebff 			; <UNDEFINED> instruction: 0xfa64ebff
    28f4:	5000      	str	r0, [r0, r0]
    28f6:	e1a0      	b.n	0x2c3a
    28f8:	fa62 ebff 			; <UNDEFINED> instruction: 0xfa62ebff
    28fc:	2004      	movs	r0, #4
    28fe:	e596      	b.n	0x242e
    2900:	0805      	lsrs	r5, r0, #32
    2902:	e180      	b.n	0x2c06
    2904:	3000      	adds	r0, #0
    2906:	e596      	b.n	0x2436
    2908:	0104      	lsls	r4, r0, #4
    290a:	e782      	b.n	0x2812
    290c:	4001      	ands	r1, r0
    290e:	e284      	b.n	0x2e1a
    2910:	0004      	movs	r4, r0
    2912:	e153      	b.n	0x2bbc
    2914:	fff5 caff 			; <UNDEFINED> instruction: 0xfff5caff
    2918:	4070      	eors	r0, r6
    291a:	e8bd ff1e 	ldmia.w	sp!, {r1, r2, r3, r4, r8, r9, sl, fp, ip, sp, lr, pc}
    291e:	e12f      	b.n	0x2b80
    2920:	0158      	lsls	r0, r3, #5
    2922:	0300      	lsls	r0, r0, #12
    2924:	00e0      	lsls	r0, r4, #3
    2926:	0300      	lsls	r0, r0, #12
    2928:	300c      	adds	r0, #12
    292a:	e59f      	b.n	0x246c
    292c:	1000      	asrs	r0, r0, #32
    292e:	e3a0      	b.n	0x3072
    2930:	2000      	movs	r0, #0
    2932:	e593      	b.n	0x245c
    2934:	0004      	movs	r4, r0
    2936:	e593      	b.n	0x2460
    2938:	ffb7 eaff 			; <UNDEFINED> instruction: 0xffb7eaff
    293c:	00e0      	lsls	r0, r4, #3
    293e:	0300      	lsls	r0, r0, #12
    2940:	2030      	movs	r0, #48	; 0x30
    2942:	e59f      	b.n	0x2484
    2944:	000a      	movs	r2, r1
    2946:	e892 4010 	ldmia.w	r2, {r4, lr}
    294a:	e92d 0003 	stmdb	sp!, {r0, r1}
    294e:	e1a0      	b.n	0x2c92
    2950:	1101      	asrs	r1, r0, #4
    2952:	e083      	b.n	0x2a5c
    2954:	fa58 ebff 			; <UNDEFINED> instruction: 0xfa58ebff
    2958:	301c      	adds	r0, #28
    295a:	e59f      	b.n	0x249c
    295c:	3000      	adds	r0, #0
    295e:	e593      	b.n	0x2488
    2960:	300c      	adds	r0, #12
    2962:	e593      	b.n	0x248c
    2964:	3000      	adds	r0, #0
    2966:	e043      	b.n	0x29f0
    2968:	0000      	movs	r0, r0
    296a:	e273      	b.n	0x2e54
    296c:	0003      	movs	r3, r0
    296e:	e0a0      	b.n	0x2ab2
    2970:	4010      	ands	r0, r2
    2972:	e8bd ff1e 	ldmia.w	sp!, {r1, r2, r3, r4, r8, r9, sl, fp, ip, sp, lr, pc}
    2976:	e12f      	b.n	0x2bd8
    2978:	00e0      	lsls	r0, r4, #3
    297a:	0300      	lsls	r0, r0, #12
    297c:	0158      	lsls	r0, r3, #5
    297e:	0300      	lsls	r0, r0, #12
    2980:	3070      	adds	r0, #112	; 0x70
    2982:	e59f      	b.n	0x24c4
    2984:	41f0      	rors	r0, r6
    2986:	e92d 4000 	stmdb	sp!, {lr}
    298a:	e593      	b.n	0x24b4
    298c:	0000      	movs	r0, r0
    298e:	e154      	b.n	0x2c3a
    2990:	5001      	str	r1, [r0, r0]
    2992:	03a0      	lsls	r0, r4, #14
    2994:	0014      	movs	r4, r2
    2996:	0a00      	lsrs	r0, r0, #8
    2998:	3002      	adds	r0, #2
    299a:	e181      	b.n	0x2ca0
    299c:	3000      	adds	r0, #0
    299e:	e183      	b.n	0x2ca8
    29a0:	4003      	ands	r3, r0
    29a2:	e1d4      	b.n	0x2d4e
    29a4:	5004      	str	r4, [r0, r0]
    29a6:	01a0      	lsls	r0, r4, #6
    29a8:	000f      	movs	r7, r1
    29aa:	0a00      	lsrs	r0, r0, #8
    29ac:	8002      	strh	r2, [r0, #0]
    29ae:	e1a0      	b.n	0x2cf2
    29b0:	7001      	strb	r1, [r0, #0]
    29b2:	e1a0      	b.n	0x2cf6
    29b4:	6000      	str	r0, [r0, #0]
    29b6:	e1a0      	b.n	0x2cfa
    29b8:	5000      	str	r0, [r0, r0]
    29ba:	e3a0      	b.n	0x30fe
    29bc:	3000      	adds	r0, #0
    29be:	e264      	b.n	0x2e8a
    29c0:	3004      	adds	r0, #4
    29c2:	e003      	b.n	0x29cc
    29c4:	2003      	movs	r0, #3
    29c6:	e188      	b.n	0x2cda
    29c8:	1003      	asrs	r3, r0, #32
    29ca:	e187      	b.n	0x2cdc
    29cc:	20a2      	movs	r0, #162	; 0xa2
    29ce:	e1a0      	b.n	0x2d12
    29d0:	1081      	asrs	r1, r0, #2
    29d2:	e1a0      	b.n	0x2d16
    29d4:	0003      	movs	r3, r0
    29d6:	e186      	b.n	0x2ce6
    29d8:	4003      	ands	r3, r0
    29da:	e044      	b.n	0x2a66
    29dc:	ffe7 ebff 			; <UNDEFINED> instruction: 0xffe7ebff
    29e0:	0000      	movs	r0, r0
    29e2:	e354      	b.n	0x308e
    29e4:	5000      	str	r0, [r0, r0]
    29e6:	e085      	b.n	0x2af4
    29e8:	fff3 1aff 			; <UNDEFINED> instruction: 0xfff31aff
    29ec:	0005      	movs	r5, r0
    29ee:	e1a0      	b.n	0x2d32
    29f0:	41f0      	rors	r0, r6
    29f2:	e8bd ff1e 	ldmia.w	sp!, {r1, r2, r3, r4, r8, r9, sl, fp, ip, sp, lr, pc}
    29f6:	e12f      	b.n	0x2c58
    29f8:	00e8      	lsls	r0, r5, #3
    29fa:	0300      	lsls	r0, r0, #12
    29fc:	3000      	adds	r0, #0
    29fe:	e3e0      	b.n	0x31c2
    2a00:	201c      	movs	r0, #28
    2a02:	e59f      	b.n	0x2544
    2a04:	2000      	movs	r0, #0
    2a06:	e592      	b.n	0x252e
    2a08:	2000      	movs	r0, #0
    2a0a:	e592      	b.n	0x2532
    2a0c:	1000      	asrs	r0, r0, #32
    2a0e:	e3a0      	b.n	0x3152
    2a10:	3213      	adds	r2, #19
    2a12:	e1e0      	b.n	0x2dd6
    2a14:	200c      	movs	r0, #12
    2a16:	e59f      	b.n	0x2558
    2a18:	3000      	adds	r0, #0
    2a1a:	e582      	b.n	0x2522
    2a1c:	1004      	asrs	r4, r0, #32
    2a1e:	e582      	b.n	0x2526
    2a20:	ff1e e12f 	vrhadd.u16	d14, d14, d31
    2a24:	0158      	lsls	r0, r3, #5
    2a26:	0300      	lsls	r0, r0, #12
    2a28:	00e8      	lsls	r0, r5, #3
    2a2a:	0300      	lsls	r0, r0, #12
    2a2c:	2000      	movs	r0, #0
    2a2e:	e3a0      	b.n	0x3172
    2a30:	4010      	ands	r0, r2
    2a32:	e92d 1002 	stmdb	sp!, {r1, ip}
    2a36:	e1a0      	b.n	0x2d7a
    2a38:	0002      	movs	r2, r0
    2a3a:	e1a0      	b.n	0x2d7e
    2a3c:	ffcf ebff 			; <UNDEFINED> instruction: 0xffcfebff
    2a40:	3008      	adds	r0, #8
    2a42:	e59f      	b.n	0x2584
    2a44:	4010      	ands	r0, r2
    2a46:	e8bd 0004 	ldmia.w	sp!, {r2}
    2a4a:	e583      	b.n	0x2554
    2a4c:	ff1e e12f 	vrhadd.u16	d14, d14, d31
    2a50:	00e8      	lsls	r0, r5, #3
    2a52:	0300      	lsls	r0, r0, #12
    2a54:	201c      	movs	r0, #28
    2a56:	e59f      	b.n	0x2598
    2a58:	301c      	adds	r0, #28
    2a5a:	e59f      	b.n	0x259c
    2a5c:	2000      	movs	r0, #0
    2a5e:	e592      	b.n	0x2586
    2a60:	3004      	adds	r0, #4
    2a62:	e593      	b.n	0x258c
    2a64:	000c      	movs	r4, r1
    2a66:	e592      	b.n	0x258e
    2a68:	3003      	adds	r0, #3
    2a6a:	e040      	b.n	0x2aee
    2a6c:	0000      	movs	r0, r0
    2a6e:	e273      	b.n	0x2f58
    2a70:	0003      	movs	r3, r0
    2a72:	e0a0      	b.n	0x2bb6
    2a74:	ff1e e12f 	vrhadd.u16	d14, d14, d31
    2a78:	0158      	lsls	r0, r3, #5
    2a7a:	0300      	lsls	r0, r0, #12
    2a7c:	00e8      	lsls	r0, r5, #3
    2a7e:	0300      	lsls	r0, r0, #12
    2a80:	0000      	movs	r0, r0
    2a82:	e350      	b.n	0x3126
    2a84:	ff1e 112f 	vrhadd.u16	d1, d14, d31
    2a88:	3301      	adds	r3, #1
    2a8a:	e3a0      	b.n	0x31ce
    2a8c:	c003      	stmia	r0!, {r0, r1}
    2a8e:	e3a0      	b.n	0x31d2
    2a90:	0004      	movs	r4, r0
    2a92:	e3a0      	b.n	0x31d6
    2a94:	2406      	movs	r4, #6
    2a96:	e3a0      	b.n	0x31da
    2a98:	101f      	asrs	r7, r3, #32
    2a9a:	e3a0      	b.n	0x31de
    2a9c:	c000      	stmia	r0!, {}
    2a9e:	e5c3      	b.n	0x2628
    2aa0:	0001      	movs	r1, r0
    2aa2:	e5c3      	b.n	0x262c
    2aa4:	10b0      	asrs	r0, r6, #2
    2aa6:	e1c2      	b.n	0x2e2e
    2aa8:	fffe eaff 			; <UNDEFINED> instruction: 0xfffeeaff
    2aac:	0009      	movs	r1, r1
    2aae:	e350      	b.n	0x3152
    2ab0:	3008      	adds	r0, #8
    2ab2:	959f      	str	r5, [sp, #636]	; 0x27c
    2ab4:	0100      	lsls	r0, r0, #4
    2ab6:	9793      	str	r7, [sp, #588]	; 0x24c
    2ab8:	0000      	movs	r0, r0
    2aba:	83e0      	strh	r0, [r4, #30]
    2abc:	ff1e e12f 	vrhadd.u16	d14, d14, d31
    2ac0:	666c      	str	r4, [r5, #100]	; 0x64
    2ac2:	0800      	lsrs	r0, r0, #32
    2ac4:	2000      	movs	r0, #0
    2ac6:	e3a0      	b.n	0x320a
    2ac8:	e004      	b.n	0x2ad4
    2aca:	e52d      	b.n	0x2528
    2acc:	3000      	adds	r0, #0
    2ace:	e5d0      	b.n	0x2672
    2ad0:	3002      	adds	r0, #2
    2ad2:	e203      	b.n	0x2edc
    2ad4:	0002      	movs	r2, r0
    2ad6:	e153      	b.n	0x2d80
    2ad8:	3005      	adds	r0, #5
    2ada:	13a0      	asrs	r0, r4, #14
    2adc:	3002      	adds	r0, #2
    2ade:	03a0      	lsls	r0, r4, #14
    2ae0:	c000      	stmia	r0!, {}
    2ae2:	13e0      	asrs	r0, r4, #15
    2ae4:	c0ff      	stmia	r0!, {r0, r1, r2, r3, r4, r5, r6, r7}
    2ae6:	03a0      	lsls	r0, r4, #14
    2ae8:	e020      	b.n	0x2b2c
    2aea:	13a0      	asrs	r0, r4, #14
    2aec:	e008      	b.n	0x2b00
    2aee:	03a0      	lsls	r0, r4, #14
    2af0:	1002      	asrs	r2, r0, #32
    2af2:	e1a0      	b.n	0x2e36
    2af4:	3003      	adds	r0, #3
    2af6:	e080      	b.n	0x2bfa
    2af8:	0001      	movs	r1, r0
    2afa:	e4d3      	b.n	0x24a4
    2afc:	1210      	asrs	r0, r2, #8
    2afe:	e181      	b.n	0x2e04
    2b00:	2008      	movs	r0, #8
    2b02:	e282      	b.n	0x300a
    2b04:	0002      	movs	r2, r0
    2b06:	e15e      	b.n	0x2dc6
    2b08:	fffa 1aff 			; <UNDEFINED> instruction: 0xfffa1aff
    2b0c:	000c      	movs	r4, r1
    2b0e:	e001      	b.n	0x2b14
    2b10:	e004      	b.n	0x2b1c
    2b12:	e49d      	b.n	0x2450
    2b14:	ff1e e12f 	vrhadd.u16	d14, d14, d31
    2b18:	3000      	adds	r0, #0
    2b1a:	e5d0      	b.n	0x26be
    2b1c:	0002      	movs	r2, r0
    2b1e:	e313      	b.n	0x3148
    2b20:	0008      	movs	r0, r1
    2b22:	0a00      	lsrs	r0, r0, #8
    2b24:	2000      	movs	r0, #0
    2b26:	e3a0      	b.n	0x326a
    2b28:	3000      	adds	r0, #0
    2b2a:	e1a0      	b.n	0x2e6e
    2b2c:	0002      	movs	r2, r0
    2b2e:	e1a0      	b.n	0x2e72
    2b30:	1001      	asrs	r1, r0, #32
    2b32:	e5f3      	b.n	0x271c
    2b34:	0211      	lsls	r1, r2, #8
    2b36:	e180      	b.n	0x2e3a
    2b38:	2008      	movs	r0, #8
    2b3a:	e282      	b.n	0x3042
    2b3c:	0020      	movs	r0, r4
    2b3e:	e352      	b.n	0x31e6
    2b40:	fffa 1aff 			; <UNDEFINED> instruction: 0xfffa1aff
    2b44:	ff1e e12f 	vrhadd.u16	d14, d14, d31
    2b48:	0001      	movs	r1, r0
    2b4a:	e5d0      	b.n	0x26ee
    2b4c:	ff1e e12f 	vrhadd.u16	d14, d14, d31
    2b50:	3000      	adds	r0, #0
    2b52:	e5d0      	b.n	0x26f6
    2b54:	0002      	movs	r2, r0
    2b56:	e313      	b.n	0x3180
    2b58:	0009      	movs	r1, r1
    2b5a:	13a0      	asrs	r0, r4, #14
    2b5c:	0003      	movs	r3, r0
    2b5e:	03a0      	lsls	r0, r4, #14
    2b60:	ff1e e12f 	vrhadd.u16	d14, d14, d31
    2b64:	4ff0      	ldr	r7, [pc, #960]	; (0x2f28)
    2b66:	e92d e002 	stmdb	sp!, {r1, sp, lr, pc}
    2b6a:	e1a0      	b.n	0x2eae
    2b6c:	d044      	beq.n	0x2bf8
    2b6e:	e24d      	b.n	0x300c
    2b70:	2030      	movs	r0, #48	; 0x30
    2b72:	e58d      	b.n	0x2690
    2b74:	279c      	movs	r7, #156	; 0x9c
    2b76:	e59f      	b.n	0x26b8
    2b78:	c001      	stmia	r0!, {r0}
    2b7a:	e24e      	b.n	0x301a
    2b7c:	0002      	movs	r2, r0
    2b7e:	e15c      	b.n	0x2e3a
    2b80:	0028      	movs	r0, r5
    2b82:	e58d      	b.n	0x26a0
    2b84:	1034      	asrs	r4, r6, #32
    2b86:	e58d      	b.n	0x26a4
    2b88:	300c      	adds	r0, #12
    2b8a:	e58d      	b.n	0x26a8
    2b8c:	0000      	movs	r0, r0
    2b8e:	83a0      	strh	r0, [r4, #28]
    2b90:	0146      	lsls	r6, r0, #5
    2b92:	8a00      	ldrh	r0, [r0, #16]
    2b94:	00d8      	lsls	r0, r3, #3
    2b96:	e35e      	b.n	0x3256
    2b98:	2003      	movs	r0, #3
    2b9a:	33a0      	adds	r3, #160	; 0xa0
    2b9c:	2009      	movs	r0, #9
    2b9e:	23a0      	movs	r3, #160	; 0xa0
    2ba0:	2038      	movs	r0, #56	; 0x38
    2ba2:	e58d      	b.n	0x26c0
    2ba4:	2003      	movs	r0, #3
    2ba6:	e1a0      	b.n	0x2eea
    2ba8:	1000      	asrs	r0, r0, #32
    2baa:	e3a0      	b.n	0x32ee
    2bac:	3701      	adds	r7, #1
    2bae:	e283      	b.n	0x30b8
    2bb0:	2a41      	cmp	r2, #65	; 0x41
    2bb2:	e282      	b.n	0x30ba
    2bb4:	3003      	adds	r0, #3
    2bb6:	e283      	b.n	0x30c0
    2bb8:	2003      	movs	r0, #3
    2bba:	e282      	b.n	0x30c2
    2bbc:	1001      	asrs	r1, r0, #32
    2bbe:	e5e3      	b.n	0x2788
    2bc0:	0003      	movs	r3, r0
    2bc2:	e152      	b.n	0x2e6a
    2bc4:	fffc 1aff 			; <UNDEFINED> instruction: 0xfffc1aff
    2bc8:	3028      	adds	r0, #40	; 0x28
    2bca:	e59d      	b.n	0x2708
    2bcc:	200c      	movs	r0, #12
    2bce:	e083      	b.n	0x2cd8
    2bd0:	100a      	asrs	r2, r1, #32
    2bd2:	e242      	b.n	0x305a
    2bd4:	0034      	movs	r4, r6
    2bd6:	e28d      	b.n	0x30f4
    2bd8:	101c      	asrs	r4, r3, #32
    2bda:	e58d      	b.n	0x26f8
    2bdc:	0001      	movs	r1, r0
    2bde:	e153      	b.n	0x2e88
    2be0:	0003      	movs	r3, r0
    2be2:	e890 1000 	ldmia.w	r0, {ip}
    2be6:	e081      	b.n	0x2cec
    2be8:	0004      	movs	r4, r0
    2bea:	e281      	b.n	0x30f0
    2bec:	203c      	movs	r0, #60	; 0x3c
    2bee:	e58d      	b.n	0x270c
    2bf0:	102c      	asrs	r4, r5, #32
    2bf2:	e58d      	b.n	0x2710
    2bf4:	0008      	movs	r0, r1
    2bf6:	e58d      	b.n	0x2714
    2bf8:	01ae      	lsls	r6, r5, #6
    2bfa:	8a00      	ldrh	r0, [r0, #16]
    2bfc:	0030      	movs	r0, r6
    2bfe:	e59d      	b.n	0x273c
    2c00:	b003      	add	sp, #12
    2c02:	e1a0      	b.n	0x2f46
    2c04:	00a0      	lsls	r0, r4, #2
    2c06:	e083      	b.n	0x2d10
    2c08:	3102      	adds	r1, #2
    2c0a:	e3a0      	b.n	0x334e
    2c0c:	2004      	movs	r0, #4
    2c0e:	e242      	b.n	0x3096
    2c10:	0024      	movs	r4, r4
    2c12:	e58d      	b.n	0x2730
    2c14:	2020      	movs	r0, #32
    2c16:	e58d      	b.n	0x2734
    2c18:	1018      	asrs	r0, r3, #32
    2c1a:	e58d      	b.n	0x2738
    2c1c:	3000      	adds	r0, #0
    2c1e:	e58d      	b.n	0x273c
    2c20:	900b      	str	r0, [sp, #44]	; 0x2c
    2c22:	e1a0      	b.n	0x2f66
    2c24:	e002      	b.n	0x2c2c
    2c26:	e5db      	b.n	0x27e0
    2c28:	2001      	movs	r0, #1
    2c2a:	e5db      	b.n	0x27e4
    2c2c:	3002      	adds	r0, #2
    2c2e:	e459      	b.n	0x24e4
    2c30:	e80e e1a0 			; <UNDEFINED> instruction: 0xe80ee1a0
    2c34:	e402      	b.n	0x243c
    2c36:	e18e      	b.n	0x2f56
    2c38:	e003      	b.n	0x2c42
    2c3a:	e18e      	b.n	0x2f5a
    2c3c:	362e      	adds	r6, #46	; 0x2e
    2c3e:	e02e      	b.n	0x2c9e
    2c40:	3a03      	subs	r2, #3
    2c42:	e1a0      	b.n	0x2f86
    2c44:	3a23      	subs	r2, #35	; 0x23
    2c46:	e1a0      	b.n	0x2f8a
    2c48:	100c      	asrs	r4, r1, #32
    2c4a:	e59d      	b.n	0x2788
    2c4c:	c303      	stmia	r3!, {r0, r1}
    2c4e:	e1a0      	b.n	0x2f92
    2c50:	2003      	movs	r0, #3
    2c52:	e081      	b.n	0x2d58
    2c54:	3010      	adds	r0, #16
    2c56:	e58d      	b.n	0x2774
    2c58:	300c      	adds	r0, #12
    2c5a:	e081      	b.n	0x2d60
    2c5c:	a004      	add	r0, pc, #16	; (adr r0, 0x2c70)
    2c5e:	e593      	b.n	0x2788
    2c60:	3020      	adds	r0, #32
    2c62:	e59d      	b.n	0x27a0
    2c64:	2014      	movs	r0, #20
    2c66:	e58d      	b.n	0x2784
    2c68:	2701      	movs	r7, #1
    2c6a:	e282      	b.n	0x3172
    2c6c:	700b      	strb	r3, [r1, #0]
    2c6e:	e043      	b.n	0x2cf8
    2c70:	8004      	strh	r4, [r0, #0]
    2c72:	e5d2      	b.n	0x281a
    2c74:	00fe      	lsls	r6, r7, #3
    2c76:	e357      	b.n	0x3328
    2c78:	70fe      	strb	r6, [r7, #3]
    2c7a:	a3a0      	add	r3, pc, #640	; (adr r3, 0x2efc)
    2c7c:	0000      	movs	r0, r0
    2c7e:	e358      	b.n	0x3332
    2c80:	0009      	movs	r1, r1
    2c82:	115a      	asrs	r2, r3, #5
    2c84:	7001      	strb	r1, [r0, #0]
    2c86:	e287      	b.n	0x3198
    2c88:	3001      	adds	r0, #1
    2c8a:	33a0      	adds	r3, #160	; 0xa0
    2c8c:	3000      	adds	r0, #0
    2c8e:	23a0      	movs	r3, #160	; 0xa0
    2c90:	007a      	lsls	r2, r7, #1
    2c92:	3a00      	subs	r2, #0
    2c94:	3004      	adds	r0, #4
    2c96:	e58d      	b.n	0x27b4
    2c98:	300c      	adds	r0, #12
    2c9a:	e59d      	b.n	0x27d8
    2c9c:	c008      	stmia	r0!, {r3}
    2c9e:	e28c      	b.n	0x31ba
    2ca0:	2001      	movs	r0, #1
    2ca2:	e3a0      	b.n	0x33e6
    2ca4:	c00c      	stmia	r0!, {r2, r3}
    2ca6:	e083      	b.n	0x2db0
    2ca8:	0002      	movs	r2, r0
    2caa:	ea00 2001 	and.w	r0, r0, r1, lsl #8
    2cae:	e282      	b.n	0x31b6
    2cb0:	0010      	movs	r0, r2
    2cb2:	e352      	b.n	0x335a
    2cb4:	0034      	movs	r4, r6
    2cb6:	0a00      	lsrs	r0, r0, #8
    2cb8:	0002      	movs	r2, r0
    2cba:	e158      	b.n	0x2f6e
    2cbc:	0032      	movs	r2, r6
    2cbe:	9a00      	ldr	r2, [sp, #0]
    2cc0:	1004      	asrs	r4, r0, #32
    2cc2:	e49c      	b.n	0x25fe
    2cc4:	3002      	adds	r0, #2
    2cc6:	e5d1      	b.n	0x286c
    2cc8:	4001      	ands	r1, r0
    2cca:	e5d1      	b.n	0x2870
    2ccc:	3803      	subs	r0, #3
    2cce:	e1a0      	b.n	0x3012
    2cd0:	0000      	movs	r0, r0
    2cd2:	e5d1      	b.n	0x2878
    2cd4:	3404      	adds	r4, #4
    2cd6:	e183      	b.n	0x2fe0
    2cd8:	0000      	movs	r0, r0
    2cda:	e183      	b.n	0x2fe4
    2cdc:	400e      	ands	r6, r1
    2cde:	e040      	b.n	0x2d62
    2ce0:	3000      	adds	r0, #0
    2ce2:	e274      	b.n	0x31ce
    2ce4:	3004      	adds	r0, #4
    2ce6:	e0a3      	b.n	0x2e30
    2ce8:	0001      	movs	r1, r0
    2cea:	e159      	b.n	0x2fa0
    2cec:	3000      	adds	r0, #0
    2cee:	93a0      	str	r3, [sp, #640]	; 0x280
    2cf0:	0000      	movs	r0, r0
    2cf2:	e353      	b.n	0x339c
    2cf4:	ffec 0aff 			; <UNDEFINED> instruction: 0xffec0aff
    2cf8:	4003      	ands	r3, r0
    2cfa:	e5d1      	b.n	0x28a0
    2cfc:	0003      	movs	r3, r0
    2cfe:	e5db      	b.n	0x28b8
    2d00:	0000      	movs	r0, r0
    2d02:	e044      	b.n	0x2d8e
    2d04:	3000      	adds	r0, #0
    2d06:	e270      	b.n	0x31ea
    2d08:	3000      	adds	r0, #0
    2d0a:	e0a3      	b.n	0x2e54
    2d0c:	0003      	movs	r3, r0
    2d0e:	e357      	b.n	0x33c0
    2d10:	3000      	adds	r0, #0
    2d12:	93a0      	str	r3, [sp, #640]	; 0x280
    2d14:	0000      	movs	r0, r0
    2d16:	e353      	b.n	0x33c0
    2d18:	0003      	movs	r3, r0
    2d1a:	e3a0      	b.n	0x345e
    2d1c:	000b      	movs	r3, r1
    2d1e:	0a00      	lsrs	r0, r0, #8
    2d20:	5000      	str	r0, [r0, r0]
    2d22:	e081      	b.n	0x2e28
    2d24:	4000      	ands	r0, r0
    2d26:	e08b      	b.n	0x2e40
    2d28:	3001      	adds	r0, #1
    2d2a:	e5f5      	b.n	0x2918
    2d2c:	6001      	str	r1, [r0, #0]
    2d2e:	e5f4      	b.n	0x291a
    2d30:	6006      	str	r6, [r0, #0]
    2d32:	e043      	b.n	0x2dbc
    2d34:	3000      	adds	r0, #0
    2d36:	e276      	b.n	0x3226
    2d38:	0001      	movs	r1, r0
    2d3a:	e280      	b.n	0x323e
    2d3c:	3006      	adds	r0, #6
    2d3e:	e0a3      	b.n	0x2e88
    2d40:	0000      	movs	r0, r0
    2d42:	e157      	b.n	0x2ff4
    2d44:	3000      	adds	r0, #0
    2d46:	93a0      	str	r3, [sp, #640]	; 0x280
    2d48:	0000      	movs	r0, r0
    2d4a:	e353      	b.n	0x33f4
    2d4c:	fff5 1aff 			; <UNDEFINED> instruction: 0xfff51aff
    2d50:	3004      	adds	r0, #4
    2d52:	e59d      	b.n	0x2890
    2d54:	0000      	movs	r0, r0
    2d56:	e153      	b.n	0x3000
    2d58:	0004      	movs	r4, r0
    2d5a:	358d      	adds	r5, #141	; 0x8d
    2d5c:	a001      	add	r0, pc, #4	; (adr r0, 0x2d64)
    2d5e:	31a0      	adds	r1, #160	; 0xa0
    2d60:	ffd1 3aff 			; <UNDEFINED> instruction: 0xffd13aff
    2d64:	3001      	adds	r0, #1
    2d66:	03a0      	lsls	r0, r4, #14
    2d68:	3000      	adds	r0, #0
    2d6a:	13a0      	asrs	r0, r4, #14
    2d6c:	0001      	movs	r1, r0
    2d6e:	e15a      	b.n	0x3026
    2d70:	3000      	adds	r0, #0
    2d72:	23a0      	movs	r3, #160	; 0xa0
    2d74:	3001      	adds	r0, #1
    2d76:	3203      	adds	r2, #3
    2d78:	2001      	movs	r0, #1
    2d7a:	e282      	b.n	0x3282
    2d7c:	0000      	movs	r0, r0
    2d7e:	e353      	b.n	0x3428
    2d80:	a001      	add	r0, pc, #4	; (adr r0, 0x2d88)
    2d82:	11a0      	asrs	r0, r4, #6
    2d84:	0010      	movs	r0, r2
    2d86:	e352      	b.n	0x342e
    2d88:	ffca 1aff 			; <UNDEFINED> instruction: 0xffca1aff
    2d8c:	2010      	movs	r0, #16
    2d8e:	e59d      	b.n	0x28cc
    2d90:	1004      	asrs	r4, r0, #32
    2d92:	e59d      	b.n	0x28d0
    2d94:	300f      	adds	r0, #15
    2d96:	e208      	b.n	0x31aa
    2d98:	3202      	adds	r2, #2
    2d9a:	e083      	b.n	0x2ea4
    2d9c:	0002      	movs	r2, r0
    2d9e:	e351      	b.n	0x3444
    2da0:	2014      	movs	r0, #20
    2da2:	e59d      	b.n	0x28e0
    2da4:	100c      	asrs	r4, r1, #32
    2da6:	e59d      	b.n	0x28e4
    2da8:	2701      	movs	r7, #1
    2daa:	e282      	b.n	0x32b2
    2dac:	3103      	adds	r1, #3
    2dae:	e081      	b.n	0x2eb4
    2db0:	8001      	strh	r1, [r0, #0]
    2db2:	e288      	b.n	0x32c6
    2db4:	b004      	add	sp, #16
    2db6:	e583      	b.n	0x28c0
    2db8:	8004      	strh	r4, [r0, #0]
    2dba:	e5c2      	b.n	0x2942
    2dbc:	0003      	movs	r3, r0
    2dbe:	9a00      	ldr	r2, [sp, #0]
    2dc0:	3554      	adds	r5, #84	; 0x54
    2dc2:	e59f      	b.n	0x2904
    2dc4:	a00a      	add	r0, pc, #40	; (adr r0, 0x2df0)
    2dc6:	e04b      	b.n	0x2e60
    2dc8:	0003      	movs	r3, r0
    2dca:	e15a      	b.n	0x3082
    2dcc:	0053      	lsls	r3, r2, #1
    2dce:	da00      	bge.n	0x2dd2
    2dd0:	3001      	adds	r0, #1
    2dd2:	e4db      	b.n	0x278c
    2dd4:	2008      	movs	r0, #8
    2dd6:	e59d      	b.n	0x2914
    2dd8:	3001      	adds	r0, #1
    2dda:	e4c2      	b.n	0x2762
    2ddc:	3000      	adds	r0, #0
    2dde:	e59d      	b.n	0x291c
    2de0:	30a3      	adds	r0, #163	; 0xa3
    2de2:	e1a0      	b.n	0x3126
    2de4:	2008      	movs	r0, #8
    2de6:	e58d      	b.n	0x2904
    2de8:	3000      	adds	r0, #0
    2dea:	e58d      	b.n	0x2908
    2dec:	301c      	adds	r0, #28
    2dee:	e59d      	b.n	0x292c
    2df0:	000b      	movs	r3, r1
    2df2:	e153      	b.n	0x309c
    2df4:	3000      	adds	r0, #0
    2df6:	e59d      	b.n	0x2934
    2df8:	3001      	adds	r0, #1
    2dfa:	e203      	b.n	0x3204
    2dfc:	2003      	movs	r0, #3
    2dfe:	e1a0      	b.n	0x3142
    2e00:	00d5      	lsls	r5, r2, #3
    2e02:	3a00      	subs	r2, #0
    2e04:	0000      	movs	r0, r0
    2e06:	e353      	b.n	0x34b0
    2e08:	ff84 0aff 			; <UNDEFINED> instruction: 0xff840aff
    2e0c:	3024      	adds	r0, #36	; 0x24
    2e0e:	e59d      	b.n	0x294c
    2e10:	000b      	movs	r3, r1
    2e12:	e153      	b.n	0x30bc
    2e14:	0007      	movs	r7, r0
    2e16:	2a00      	cmp	r2, #0
    2e18:	3028      	adds	r0, #40	; 0x28
    2e1a:	e59d      	b.n	0x2958
    2e1c:	2008      	movs	r0, #8
    2e1e:	e59d      	b.n	0x295c
    2e20:	102c      	asrs	r4, r5, #32
    2e22:	e59d      	b.n	0x2960
    2e24:	3003      	adds	r0, #3
    2e26:	e04b      	b.n	0x2ec0
    2e28:	32c3      	adds	r2, #195	; 0xc3
    2e2a:	e043      	b.n	0x2eb4
    2e2c:	2001      	movs	r0, #1
    2e2e:	e042      	b.n	0x2eb6
    2e30:	0003      	movs	r3, r0
    2e32:	e152      	b.n	0x30da
    2e34:	0102      	lsls	r2, r0, #4
    2e36:	ca00      	ldmia	r2!, {}
    2e38:	2102      	movs	r1, #2
    2e3a:	e3a0      	b.n	0x357e
    2e3c:	3000      	adds	r0, #0
    2e3e:	e59d      	b.n	0x297c
    2e40:	30a3      	adds	r0, #163	; 0xa3
    2e42:	e1a0      	b.n	0x3186
    2e44:	1018      	asrs	r0, r3, #32
    2e46:	e59d      	b.n	0x2984
    2e48:	3002      	adds	r0, #2
    2e4a:	e183      	b.n	0x3154
    2e4c:	2000      	movs	r0, #0
    2e4e:	e58d      	b.n	0x296c
    2e50:	2423      	movs	r4, #35	; 0x23
    2e52:	e1a0      	b.n	0x3196
    2e54:	3000      	adds	r0, #0
    2e56:	e5c1      	b.n	0x29dc
    2e58:	2001      	movs	r0, #1
    2e5a:	e5c1      	b.n	0x29e0
    2e5c:	2823      	cmp	r0, #35	; 0x23
    2e5e:	e1a0      	b.n	0x31a2
    2e60:	3c23      	subs	r4, #35	; 0x23
    2e62:	e1a0      	b.n	0x31a6
    2e64:	3003      	adds	r0, #3
    2e66:	e5c1      	b.n	0x29ec
    2e68:	3008      	adds	r0, #8
    2e6a:	e59d      	b.n	0x29a8
    2e6c:	3018      	adds	r0, #24
    2e6e:	e58d      	b.n	0x298c
    2e70:	3004      	adds	r0, #4
    2e72:	e283      	b.n	0x337c
    2e74:	2002      	movs	r0, #2
    2e76:	e5c1      	b.n	0x29fc
    2e78:	3008      	adds	r0, #8
    2e7a:	e58d      	b.n	0x2998
    2e7c:	ff67 eaff 	vpmin.u32	q15, <illegal reg q11.5>, <illegal reg q15.5>
    2e80:	3002      	adds	r0, #2
    2e82:	e5da      	b.n	0x2a3a
    2e84:	1001      	asrs	r1, r0, #32
    2e86:	e5da      	b.n	0x2a3e
    2e88:	3803      	subs	r0, #3
    2e8a:	e1a0      	b.n	0x31ce
    2e8c:	2000      	movs	r0, #0
    2e8e:	e5da      	b.n	0x2a46
    2e90:	3401      	adds	r4, #1
    2e92:	e183      	b.n	0x319c
    2e94:	3002      	adds	r0, #2
    2e96:	e183      	b.n	0x31a0
    2e98:	000e      	movs	r6, r1
    2e9a:	e153      	b.n	0x3144
    2e9c:	3000      	adds	r0, #0
    2e9e:	13a0      	asrs	r0, r4, #14
    2ea0:	3004      	adds	r0, #4
    2ea2:	158d      	asrs	r5, r1, #22
    2ea4:	ff7b 1aff 	vpmin.u<illegal width 64>	<illegal reg q8.5>, <illegal reg q13.5>, <illegal reg q15.5>
    2ea8:	3003      	adds	r0, #3
    2eaa:	e5db      	b.n	0x2a64
    2eac:	2003      	movs	r0, #3
    2eae:	e5da      	b.n	0x2a66
    2eb0:	0003      	movs	r3, r0
    2eb2:	e152      	b.n	0x315a
    2eb4:	3003      	adds	r0, #3
    2eb6:	13a0      	asrs	r0, r4, #14
    2eb8:	3004      	adds	r0, #4
    2eba:	158d      	asrs	r5, r1, #22
    2ebc:	ff75 1aff 	vpmin.u<illegal width 64>	<illegal reg q8.5>, <illegal reg q10.5>, <illegal reg q15.5>
    2ec0:	1004      	asrs	r4, r0, #32
    2ec2:	e5da      	b.n	0x2a7a
    2ec4:	2004      	movs	r0, #4
    2ec6:	e5db      	b.n	0x2a80
    2ec8:	6002      	str	r2, [r0, #0]
    2eca:	e041      	b.n	0x2f50
    2ecc:	3000      	adds	r0, #0
    2ece:	e276      	b.n	0x33be
    2ed0:	3006      	adds	r0, #6
    2ed2:	e0a3      	b.n	0x301c
    2ed4:	0004      	movs	r4, r0
    2ed6:	e357      	b.n	0x3588
    2ed8:	3000      	adds	r0, #0
    2eda:	93a0      	str	r3, [sp, #640]	; 0x280
    2edc:	0000      	movs	r0, r0
    2ede:	e353      	b.n	0x3588
    2ee0:	0108      	lsls	r0, r1, #4
    2ee2:	0a00      	lsrs	r0, r0, #8
    2ee4:	0004      	movs	r4, r0
    2ee6:	e3a0      	b.n	0x362a
    2ee8:	1000      	asrs	r0, r0, #32
    2eea:	e08a      	b.n	0x3002
    2eec:	2000      	movs	r0, #0
    2eee:	e08b      	b.n	0x3008
    2ef0:	5001      	str	r1, [r0, r0]
    2ef2:	e5f1      	b.n	0x2ad8
    2ef4:	4001      	ands	r1, r0
    2ef6:	e5f2      	b.n	0x2ade
    2ef8:	5004      	str	r4, [r0, r0]
    2efa:	e045      	b.n	0x2f88
    2efc:	3000      	adds	r0, #0
    2efe:	e275      	b.n	0x33ec
    2f00:	0001      	movs	r1, r0
    2f02:	e280      	b.n	0x3406
    2f04:	3005      	adds	r0, #5
    2f06:	e0a3      	b.n	0x3050
    2f08:	0000      	movs	r0, r0
    2f0a:	e157      	b.n	0x31bc
    2f0c:	3000      	adds	r0, #0
    2f0e:	93a0      	str	r3, [sp, #640]	; 0x280
    2f10:	0000      	movs	r0, r0
    2f12:	e353      	b.n	0x35bc
    2f14:	fff5 1aff 			; <UNDEFINED> instruction: 0xfff51aff
    2f18:	0004      	movs	r4, r0
    2f1a:	e58d      	b.n	0x2a38
    2f1c:	ff5d eaff 	vpmin.u16	q15, <illegal reg q14.5>, <illegal reg q15.5>
    2f20:	c001      	stmia	r0!, {r0}
    2f22:	e1a0      	b.n	0x3266
    2f24:	3004      	adds	r0, #4
    2f26:	e59d      	b.n	0x2a64
    2f28:	2001      	movs	r0, #1
    2f2a:	e28b      	b.n	0x3444
    2f2c:	b003      	add	sp, #12
    2f2e:	e08b      	b.n	0x3048
    2f30:	0002      	movs	r2, r0
    2f32:	e1a0      	b.n	0x3276
    2f34:	e001      	b.n	0x2f3a
    2f36:	e5f2      	b.n	0x2b1e
    2f38:	3001      	adds	r0, #1
    2f3a:	e5d2      	b.n	0x2ae2
    2f3c:	1000      	asrs	r0, r0, #32
    2f3e:	e5d0      	b.n	0x2ae2
    2f40:	3803      	subs	r0, #3
    2f42:	e1a0      	b.n	0x3286
    2f44:	340e      	adds	r4, #14
    2f46:	e183      	b.n	0x3250
    2f48:	3001      	adds	r0, #1
    2f4a:	e183      	b.n	0x3254
    2f4c:	3623      	adds	r6, #35	; 0x23
    2f4e:	e023      	b.n	0x2f98
    2f50:	3a03      	subs	r2, #3
    2f52:	e1a0      	b.n	0x3296
    2f54:	3a23      	subs	r2, #35	; 0x23
    2f56:	e1a0      	b.n	0x329a
    2f58:	e003      	b.n	0x2f62
    2f5a:	e08c      	b.n	0x3076
    2f5c:	e701      	b.n	0x2d62
    2f5e:	e28e      	b.n	0x347e
    2f60:	4004      	ands	r4, r0
    2f62:	e5de      	b.n	0x2b22
    2f64:	100f      	asrs	r7, r1, #32
    2f66:	e204      	b.n	0x3372
    2f68:	3203      	adds	r2, #3
    2f6a:	e081      	b.n	0x3070
    2f6c:	4001      	ands	r1, r0
    2f6e:	e284      	b.n	0x347a
    2f70:	3103      	adds	r1, #3
    2f72:	e08c      	b.n	0x308e
    2f74:	0002      	movs	r2, r0
    2f76:	e15b      	b.n	0x3230
    2f78:	4004      	ands	r4, r0
    2f7a:	e5ce      	b.n	0x2b1a
    2f7c:	0004      	movs	r4, r0
    2f7e:	e583      	b.n	0x2a88
    2f80:	ffea 1aff 			; <UNDEFINED> instruction: 0xffea1aff
    2f84:	2004      	movs	r0, #4
    2f86:	e59d      	b.n	0x2ac4
    2f88:	1003      	asrs	r3, r0, #32
    2f8a:	e242      	b.n	0x3412
    2f8c:	3000      	adds	r0, #0
    2f8e:	e271      	b.n	0x3474
    2f90:	3001      	adds	r0, #1
    2f92:	e0a3      	b.n	0x30dc
    2f94:	003f      	movs	r7, r7
    2f96:	e35a      	b.n	0x364e
    2f98:	0003      	movs	r3, r0
    2f9a:	9352      	str	r3, [sp, #328]	; 0x148
    2f9c:	2000      	movs	r0, #0
    2f9e:	e59d      	b.n	0x2adc
    2fa0:	20a2      	movs	r0, #162	; 0xa2
    2fa2:	e1a0      	b.n	0x32e6
    2fa4:	2102      	movs	r1, #2
    2fa6:	e382      	b.n	0x36ae
    2fa8:	2000      	movs	r0, #0
    2faa:	e58d      	b.n	0x2ac8
    2fac:	0042      	lsls	r2, r0, #1
    2fae:	1a00      	subs	r0, r0, r0
    2fb0:	3008      	adds	r0, #8
    2fb2:	e59d      	b.n	0x2af0
    2fb4:	a10a      	add	r1, pc, #40	; (adr r1, 0x2fe0)
    2fb6:	e1a0      	b.n	0x32fa
    2fb8:	a001      	add	r0, pc, #4	; (adr r0, 0x2fc0)
    2fba:	e4c3      	b.n	0x2944
    2fbc:	3008      	adds	r0, #8
    2fbe:	e58d      	b.n	0x2adc
    2fc0:	ff89 eaff 			; <UNDEFINED> instruction: 0xff89eaff
    2fc4:	e000      	b.n	0x2fc8
    2fc6:	e58d      	b.n	0x2ae4
    2fc8:	4008      	ands	r0, r1
    2fca:	e58d      	b.n	0x2ae8
    2fcc:	5018      	str	r0, [r3, r0]
    2fce:	e58d      	b.n	0x2aec
    2fd0:	0000      	movs	r0, r0
    2fd2:	e352      	b.n	0x367a
    2fd4:	2000      	movs	r0, #0
    2fd6:	059d      	lsls	r5, r3, #22
    2fd8:	0001      	movs	r1, r0
    2fda:	0a00      	lsrs	r0, r0, #8
    2fdc:	0004      	movs	r4, r0
    2fde:	ea00 2003 	and.w	r0, r0, r3, lsl #8
    2fe2:	e1a0      	b.n	0x3326
    2fe4:	30a2      	adds	r0, #162	; 0xa2
    2fe6:	e1a0      	b.n	0x332a
    2fe8:	0001      	movs	r1, r0
    2fea:	e313      	b.n	0x3614
    2fec:	fffb 0aff 			; <UNDEFINED> instruction: 0xfffb0aff
    2ff0:	0122      	lsls	r2, r4, #4
    2ff2:	e1a0      	b.n	0x3336
    2ff4:	e018      	b.n	0x3028
    2ff6:	e59d      	b.n	0x2b34
    2ff8:	3008      	adds	r0, #8
    2ffa:	e59d      	b.n	0x2b38
    2ffc:	202c      	movs	r0, #44	; 0x2c
    2ffe:	e59d      	b.n	0x2b3c
    3000:	0102      	lsls	r2, r0, #4
    3002:	e380      	b.n	0x3706
    3004:	c002      	stmia	r0!, {r1}
    3006:	e043      	b.n	0x3090
    3008:	1420      	asrs	r0, r4, #16
    300a:	e1a0      	b.n	0x334e
    300c:	3c20      	subs	r4, #32
    300e:	e1a0      	b.n	0x3352
    3010:	2820      	cmp	r0, #32
    3012:	e1a0      	b.n	0x3356
    3014:	0000      	movs	r0, r0
    3016:	e5ce      	b.n	0x2bb6
    3018:	0038      	movs	r0, r7
    301a:	e59d      	b.n	0x2b58
    301c:	3003      	adds	r0, #3
    301e:	e5ce      	b.n	0x2bbe
    3020:	0009      	movs	r1, r1
    3022:	e35c      	b.n	0x36de
    3024:	000c      	movs	r4, r1
    3026:	a080      	add	r0, pc, #512	; (adr r0, 0x3228)
    3028:	0009      	movs	r1, r1
    302a:	b280      	uxth	r0, r0
    302c:	3001      	adds	r0, #1
    302e:	e3a0      	b.n	0x3772
    3030:	1001      	asrs	r1, r0, #32
    3032:	e5ce      	b.n	0x2bd2
    3034:	2002      	movs	r0, #2
    3036:	e5ce      	b.n	0x2bd6
    3038:	2000      	movs	r0, #0
    303a:	e3a0      	b.n	0x377e
    303c:	1038      	asrs	r0, r7, #32
    303e:	e59d      	b.n	0x2b7c
    3040:	0003      	movs	r3, r0
    3042:	e351      	b.n	0x36e8
    3044:	100c      	asrs	r4, r1, #32
    3046:	e59d      	b.n	0x2b84
    3048:	2000      	movs	r0, #0
    304a:	e581      	b.n	0x2b50
    304c:	2030      	movs	r0, #48	; 0x30
    304e:	e59d      	b.n	0x2b8c
    3050:	10ff      	asrs	r7, r7, #3
    3052:	e200      	b.n	0x3456
    3054:	20ff      	movs	r0, #255	; 0xff
    3056:	e202      	b.n	0x345e
    3058:	0065      	lsls	r5, r4, #1
    305a:	0a00      	lsrs	r0, r0, #8
    305c:	4034      	ands	r4, r6
    305e:	e59d      	b.n	0x2b9c
    3060:	c420      	stmia	r4!, {r5}
    3062:	e1a0      	b.n	0x33a6
    3064:	c002      	stmia	r0!, {r1}
    3066:	e5c4      	b.n	0x2bf2
    3068:	c030      	stmia	r0!, {r4, r5}
    306a:	e59d      	b.n	0x2ba8
    306c:	1001      	asrs	r1, r0, #32
    306e:	e5c4      	b.n	0x2bfa
    3070:	1820      	adds	r0, r4, r0
    3072:	e1a0      	b.n	0x33b6
    3074:	1003      	asrs	r3, r0, #32
    3076:	e5c4      	b.n	0x2c02
    3078:	100c      	asrs	r4, r1, #32
    307a:	e1a0      	b.n	0x33be
    307c:	e42c      	b.n	0x28d8
    307e:	e1a0      	b.n	0x33c2
    3080:	2005      	movs	r0, #5
    3082:	e5c4      	b.n	0x2c0e
    3084:	c82c      	ldmia	r0!, {r2, r3, r5}
    3086:	e1a0      	b.n	0x33ca
    3088:	2c20      	cmp	r4, #32
    308a:	e1a0      	b.n	0x33ce
    308c:	1c21      	adds	r1, r4, #0
    308e:	e1a0      	b.n	0x33d2
    3090:	2004      	movs	r0, #4
    3092:	e5c4      	b.n	0x2c1e
    3094:	e006      	b.n	0x30a4
    3096:	e5c4      	b.n	0x2c22
    3098:	c007      	stmia	r0!, {r0, r1, r2}
    309a:	e5c4      	b.n	0x2c26
    309c:	1008      	asrs	r0, r1, #32
    309e:	e5c4      	b.n	0x2c2a
    30a0:	3002      	adds	r0, #2
    30a2:	e383      	b.n	0x37ac
    30a4:	2034      	movs	r0, #52	; 0x34
    30a6:	e59d      	b.n	0x2be4
    30a8:	304c      	adds	r0, #76	; 0x4c
    30aa:	e383      	b.n	0x37b4
    30ac:	3000      	adds	r0, #0
    30ae:	e5c2      	b.n	0x2c36
    30b0:	d044      	beq.n	0x313c
    30b2:	e28d      	b.n	0x35d0
    30b4:	4ff0      	ldr	r7, [pc, #960]	; (0x3478)
    30b6:	e8bd ff1e 	ldmia.w	sp!, {r1, r2, r3, r4, r8, r9, sl, fp, ip, sp, lr, pc}
    30ba:	e12f      	b.n	0x331c
    30bc:	225c      	movs	r2, #92	; 0x5c
    30be:	e59f      	b.n	0x2c00
    30c0:	0002      	movs	r2, r0
    30c2:	e15a      	b.n	0x337a
    30c4:	3000      	adds	r0, #0
    30c6:	83a0      	strh	r0, [r4, #28]
    30c8:	3001      	adds	r0, #1
    30ca:	9203      	str	r2, [sp, #12]
    30cc:	0000      	movs	r0, r0
    30ce:	e353      	b.n	0x3778
    30d0:	a10a      	add	r1, pc, #40	; (adr r1, 0x30fc)
    30d2:	11a0      	asrs	r0, r4, #6
    30d4:	3001      	adds	r0, #1
    30d6:	138a      	asrs	r2, r1, #14
    30d8:	0018      	movs	r0, r3
    30da:	1a00      	subs	r0, r0, r0
    30dc:	3004      	adds	r0, #4
    30de:	e59d      	b.n	0x2c1c
    30e0:	223c      	movs	r2, #60	; 0x3c
    30e2:	e59f      	b.n	0x2c24
    30e4:	0012      	movs	r2, r2
    30e6:	e353      	b.n	0x3790
    30e8:	0002      	movs	r2, r0
    30ea:	915a      	str	r1, [sp, #360]	; 0x168
    30ec:	000f      	movs	r7, r1
    30ee:	9a00      	ldr	r2, [sp, #0]
    30f0:	3004      	adds	r0, #4
    30f2:	e59d      	b.n	0x2c30
    30f4:	0021      	movs	r1, r4
    30f6:	e353      	b.n	0x37a0
    30f8:	0041      	lsls	r1, r0, #1
    30fa:	8a00      	ldrh	r0, [r0, #16]
    30fc:	2002      	movs	r0, #2
    30fe:	e243      	b.n	0x3588
    3100:	338a      	adds	r3, #138	; 0x8a
    3102:	e1a0      	b.n	0x3446
    3104:	0008      	movs	r0, r1
    3106:	e59d      	b.n	0x2c44
    3108:	3102      	adds	r1, #2
    310a:	e183      	b.n	0x3414
    310c:	3003      	adds	r0, #3
    310e:	e383      	b.n	0x3818
    3110:	1423      	asrs	r3, r4, #16
    3112:	e1a0      	b.n	0x3456
    3114:	2823      	cmp	r0, #35	; 0x23
    3116:	e1a0      	b.n	0x345a
    3118:	3000      	adds	r0, #0
    311a:	e5c0      	b.n	0x2c9e
    311c:	3003      	adds	r0, #3
    311e:	e280      	b.n	0x3622
    3120:	1001      	asrs	r1, r0, #32
    3122:	e5c0      	b.n	0x2ca6
    3124:	2002      	movs	r0, #2
    3126:	e5c0      	b.n	0x2caa
    3128:	3008      	adds	r0, #8
    312a:	e58d      	b.n	0x2c48
    312c:	ff2e eaff 	vpmin.u32	q7, q15, <illegal reg q15.5>
    3130:	2003      	movs	r0, #3
    3132:	e243      	b.n	0x35bc
    3134:	330a      	adds	r3, #10
    3136:	e1a0      	b.n	0x347a
    3138:	3102      	adds	r1, #2
    313a:	e183      	b.n	0x3444
    313c:	3002      	adds	r0, #2
    313e:	e383      	b.n	0x3848
    3140:	1008      	asrs	r0, r1, #32
    3142:	e59d      	b.n	0x2c80
    3144:	2423      	movs	r4, #35	; 0x23
    3146:	e1a0      	b.n	0x348a
    3148:	3000      	adds	r0, #0
    314a:	e5c1      	b.n	0x2cd0
    314c:	3002      	adds	r0, #2
    314e:	e281      	b.n	0x3654
    3150:	2001      	movs	r0, #1
    3152:	e5c1      	b.n	0x2cd8
    3154:	3008      	adds	r0, #8
    3156:	e58d      	b.n	0x2c74
    3158:	ff23 eaff 	vpmin.u32	q7, <illegal reg q9.5>, <illegal reg q15.5>
    315c:	103c      	asrs	r4, r7, #32
    315e:	e59d      	b.n	0x2c9c
    3160:	000b      	movs	r3, r1
    3162:	e151      	b.n	0x3408
    3164:	1000      	asrs	r0, r0, #32
    3166:	e59d      	b.n	0x2ca4
    3168:	10a1      	asrs	r1, r4, #2
    316a:	e1a0      	b.n	0x34ae
    316c:	0001      	movs	r1, r0
    316e:	e1a0      	b.n	0x34b2
    3170:	ff96 3aff 			; <UNDEFINED> instruction: 0xff963aff
    3174:	2028      	movs	r0, #40	; 0x28
    3176:	e59d      	b.n	0x2cb4
    3178:	0030      	movs	r0, r6
    317a:	e59d      	b.n	0x2cb8
    317c:	e000      	b.n	0x3180
    317e:	e59d      	b.n	0x2cbc
    3180:	c000      	stmia	r0!, {}
    3182:	e082      	b.n	0x328a
    3184:	4008      	ands	r0, r1
    3186:	e59d      	b.n	0x2cc4
    3188:	5018      	str	r0, [r3, r0]
    318a:	e59d      	b.n	0x2cc8
    318c:	0008      	movs	r0, r1
    318e:	ea00 012e 	and.w	r1, r0, lr, asr #32
    3192:	e1a0      	b.n	0x34d6
    3194:	e001      	b.n	0x319a
    3196:	e1a0      	b.n	0x34da
    3198:	2001      	movs	r0, #1
    319a:	e201      	b.n	0x35a0
    319c:	3001      	adds	r0, #1
    319e:	e4db      	b.n	0x2b58
    31a0:	000c      	movs	r4, r1
    31a2:	e15b      	b.n	0x345c
    31a4:	3001      	adds	r0, #1
    31a6:	e4c4      	b.n	0x2b32
    31a8:	ff85 0aff 			; <UNDEFINED> instruction: 0xff850aff
    31ac:	10ae      	asrs	r6, r5, #2
    31ae:	e1a0      	b.n	0x34f2
    31b0:	3001      	adds	r0, #1
    31b2:	e20e      	b.n	0x35d2
    31b4:	0000      	movs	r0, r0
    31b6:	e353      	b.n	0x3860
    31b8:	fff4 0aff 			; <UNDEFINED> instruction: 0xfff40aff
    31bc:	1102      	asrs	r2, r0, #4
    31be:	e381      	b.n	0x38c4
    31c0:	3421      	adds	r4, #33	; 0x21
    31c2:	e1a0      	b.n	0x3506
    31c4:	1000      	asrs	r0, r0, #32
    31c6:	e5c5      	b.n	0x2d54
    31c8:	3001      	adds	r0, #1
    31ca:	e5c5      	b.n	0x2d58
    31cc:	3821      	subs	r0, #33	; 0x21
    31ce:	e1a0      	b.n	0x3512
    31d0:	1c21      	adds	r1, r4, #0
    31d2:	e1a0      	b.n	0x3516
    31d4:	3002      	adds	r0, #2
    31d6:	e5c5      	b.n	0x2d64
    31d8:	1003      	asrs	r3, r0, #32
    31da:	e5c5      	b.n	0x2d68
    31dc:	0202      	lsls	r2, r0, #8
    31de:	e3a0      	b.n	0x3922
    31e0:	5004      	str	r4, [r0, r0]
    31e2:	e1a0      	b.n	0x3526
    31e4:	2000      	movs	r0, #0
    31e6:	e3a0      	b.n	0x392a
    31e8:	e101      	b.n	0x33ee
    31ea:	e3a0      	b.n	0x392e
    31ec:	4004      	ands	r4, r0
    31ee:	e284      	b.n	0x36fa
    31f0:	ffe9 eaff 			; <UNDEFINED> instruction: 0xffe9eaff
    31f4:	c034      	stmia	r0!, {r2, r4, r5}
    31f6:	e59d      	b.n	0x2d34
    31f8:	1001      	asrs	r1, r0, #32
    31fa:	e5cc      	b.n	0x2d96
    31fc:	2002      	movs	r0, #2
    31fe:	e5cc      	b.n	0x2d9a
    3200:	ffa7 eaff 			; <UNDEFINED> instruction: 0xffa7eaff
    3204:	3004      	adds	r0, #4
    3206:	e59d      	b.n	0x2d44
    3208:	a78a      	add	r7, pc, #552	; (adr r7, 0x3434)
    320a:	e1a0      	b.n	0x354e
    320c:	3003      	adds	r0, #3
    320e:	e243      	b.n	0x3698
    3210:	0008      	movs	r0, r1
    3212:	e59d      	b.n	0x2d50
    3214:	3383      	adds	r3, #131	; 0x83
    3216:	e18a      	b.n	0x352e
    3218:	3003      	adds	r0, #3
    321a:	e383      	b.n	0x3924
    321c:	1423      	asrs	r3, r4, #16
    321e:	e1a0      	b.n	0x3562
    3220:	2823      	cmp	r0, #35	; 0x23
    3222:	e1a0      	b.n	0x3566
    3224:	3000      	adds	r0, #0
    3226:	e5c0      	b.n	0x2daa
    3228:	3c23      	subs	r4, #35	; 0x23
    322a:	e1a0      	b.n	0x356e
    322c:	3003      	adds	r0, #3
    322e:	e5c0      	b.n	0x2db2
    3230:	3004      	adds	r0, #4
    3232:	e280      	b.n	0x3736
    3234:	1001      	asrs	r1, r0, #32
    3236:	e5c0      	b.n	0x2dba
    3238:	2002      	movs	r0, #2
    323a:	e5c0      	b.n	0x2dbe
    323c:	3008      	adds	r0, #8
    323e:	e58d      	b.n	0x2d5c
    3240:	fee9 eaff 			; <UNDEFINED> instruction: 0xfee9eaff
    3244:	5028      	str	r0, [r5, r0]
    3246:	e59d      	b.n	0x2d84
    3248:	402c      	ands	r4, r5
    324a:	e59d      	b.n	0x2d88
    324c:	0000      	movs	r0, r0
    324e:	e295      	b.n	0x377c
    3250:	0001      	movs	r1, r0
    3252:	13a0      	asrs	r0, r4, #14
    3254:	0000      	movs	r0, r0
    3256:	e354      	b.n	0x3902
    3258:	0000      	movs	r0, r0
    325a:	03a0      	lsls	r0, r4, #14
    325c:	fe07 ebff 			; <UNDEFINED> instruction: 0xfe07ebff
    3260:	3030      	adds	r0, #48	; 0x30
    3262:	e59d      	b.n	0x2da0
    3264:	3003      	adds	r0, #3
    3266:	e085      	b.n	0x3374
    3268:	0003      	movs	r3, r0
    326a:	e154      	b.n	0x3516
    326c:	2004      	movs	r0, #4
    326e:	e1a0      	b.n	0x35b2
    3270:	2000      	movs	r0, #0
    3272:	23a0      	movs	r3, #160	; 0xa0
    3274:	2001      	movs	r0, #1
    3276:	33a0      	adds	r3, #160	; 0xa0
    3278:	0005      	movs	r5, r0
    327a:	e154      	b.n	0x3526
    327c:	2000      	movs	r0, #0
    327e:	93a0      	str	r3, [sp, #640]	; 0x280
    3280:	0000      	movs	r0, r0
    3282:	e352      	b.n	0x392a
    3284:	202c      	movs	r0, #44	; 0x2c
    3286:	e59d      	b.n	0x2dc4
    3288:	0016      	movs	r6, r2
    328a:	1a00      	subs	r0, r0, r0
    328c:	1028      	asrs	r0, r5, #32
    328e:	e59d      	b.n	0x2dcc
    3290:	2001      	movs	r0, #1
    3292:	e242      	b.n	0x371a
    3294:	0001      	movs	r1, r0
    3296:	e4d1      	b.n	0x2c3c
    3298:	0001      	movs	r1, r0
    329a:	e153      	b.n	0x3544
    329c:	0001      	movs	r1, r0
    329e:	e5e2      	b.n	0x2e66
    32a0:	fffb 1aff 			; <UNDEFINED> instruction: 0xfffb1aff
    32a4:	3038      	adds	r0, #56	; 0x38
    32a6:	e59d      	b.n	0x2de4
    32a8:	2030      	movs	r0, #48	; 0x30
    32aa:	e59d      	b.n	0x2de8
    32ac:	0002      	movs	r2, r0
    32ae:	e083      	b.n	0x33b8
    32b0:	3000      	adds	r0, #0
    32b2:	e3a0      	b.n	0x39f6
    32b4:	ff5f eaff 	vpmin.u16	q15, <illegal reg q15.5>, <illegal reg q15.5>
    32b8:	3028      	adds	r0, #40	; 0x28
    32ba:	e59d      	b.n	0x2df8
    32bc:	203c      	movs	r0, #60	; 0x3c
    32be:	e59d      	b.n	0x2dfc
    32c0:	0002      	movs	r2, r0
    32c2:	e153      	b.n	0x356c
    32c4:	302c      	adds	r0, #44	; 0x2c
    32c6:	e59d      	b.n	0x2e04
    32c8:	3018      	adds	r0, #24
    32ca:	e58d      	b.n	0x2de8
    32cc:	000f      	movs	r7, r1
    32ce:	8a00      	ldrh	r0, [r0, #16]
    32d0:	3102      	adds	r1, #2
    32d2:	e3a0      	b.n	0x3a16
    32d4:	b028      	add	sp, #160	; 0xa0
    32d6:	e59d      	b.n	0x2e14
    32d8:	3000      	adds	r0, #0
    32da:	e58d      	b.n	0x2df8
    32dc:	1101      	asrs	r1, r0, #4
    32de:	e3a0      	b.n	0x3a22
    32e0:	3000      	adds	r0, #0
    32e2:	e3a0      	b.n	0x3a26
    32e4:	ffa2 eaff 			; <UNDEFINED> instruction: 0xffa2eaff
    32e8:	1030      	asrs	r0, r6, #32
    32ea:	e59d      	b.n	0x2e28
    32ec:	0028      	movs	r0, r5
    32ee:	e59d      	b.n	0x2e2c
    32f0:	2001      	movs	r0, #1
    32f2:	e082      	b.n	0x33fa
    32f4:	1001      	asrs	r1, r0, #32
    32f6:	e573      	b.n	0x2de0
    32f8:	0003      	movs	r3, r0
    32fa:	e150      	b.n	0x359e
    32fc:	1001      	asrs	r1, r0, #32
    32fe:	e562      	b.n	0x2dc6
    3300:	fffb 1aff 			; <UNDEFINED> instruction: 0xfffb1aff
    3304:	ffe6 eaff 			; <UNDEFINED> instruction: 0xffe6eaff
    3308:	3004      	adds	r0, #4
    330a:	e3a0      	b.n	0x3a4e
    330c:	fe60 eaff 			; <UNDEFINED> instruction: 0xfe60eaff
    3310:	3102      	adds	r1, #2
    3312:	e3a0      	b.n	0x3a56
    3314:	ff31 eaff 	vpmin.u<illegal width 64>	q7, <illegal reg q8.5>, <illegal reg q15.5>
    3318:	fe6e ffff 			; <UNDEFINED> instruction: 0xfe6effff
    331c:	fffe 0001 	vaddl.u<illegal width 64>	q8, d14, d1
    3320:	3fff      	subs	r7, #255	; 0xff
    3322:	0000      	movs	r0, r0
    3324:	03ff      	lsls	r7, r7, #15
    3326:	0000      	movs	r0, r0
    3328:	4ff0      	ldr	r7, [pc, #960]	; (0x36ec)
    332a:	e92d 4000 	stmdb	sp!, {lr}
    332e:	e1a0      	b.n	0x3672
    3330:	d00c      	beq.n	0x334c
    3332:	e24d      	b.n	0x37d0
    3334:	6001      	str	r1, [r0, #0]
    3336:	e1a0      	b.n	0x367a
    3338:	8002      	strh	r2, [r0, #0]
    333a:	e1a0      	b.n	0x367e
    333c:	fde0 ebff 			; <UNDEFINED> instruction: 0xfde0ebff
    3340:	3000      	adds	r0, #0
    3342:	e5d4      	b.n	0x2eee
    3344:	0001      	movs	r1, r0
    3346:	e313      	b.n	0x3970
    3348:	7000      	strb	r0, [r0, #0]
    334a:	e1a0      	b.n	0x368e
    334c:	3002      	adds	r0, #2
    334e:	e203      	b.n	0x3758
    3350:	0019      	movs	r1, r3
    3352:	1a00      	subs	r0, r0, r0
    3354:	0000      	movs	r0, r0
    3356:	e353      	b.n	0x3a00
    3358:	3009      	adds	r0, #9
    335a:	13a0      	asrs	r0, r4, #14
    335c:	3003      	adds	r0, #3
    335e:	03a0      	lsls	r0, r4, #14
    3360:	4003      	ands	r3, r0
    3362:	e094      	b.n	0x348e
    3364:	0001      	movs	r1, r0
    3366:	13a0      	asrs	r0, r4, #14
    3368:	0000      	movs	r0, r0
    336a:	03a0      	lsls	r0, r4, #14
    336c:	0000      	movs	r0, r0
    336e:	e356      	b.n	0x3a1e
    3370:	0000      	movs	r0, r0
    3372:	03a0      	lsls	r0, r4, #14
    3374:	fdc1 ebff 			; <UNDEFINED> instruction: 0xfdc1ebff
    3378:	3007      	adds	r0, #7
    337a:	e084      	b.n	0x3486
    337c:	0003      	movs	r3, r0
    337e:	e156      	b.n	0x362e
    3380:	0006      	movs	r6, r0
    3382:	3154      	adds	r1, #84	; 0x54
    3384:	0065      	lsls	r5, r4, #1
    3386:	3a00      	subs	r2, #0
    3388:	0000      	movs	r0, r0
    338a:	e357      	b.n	0x3a3c
    338c:	6001      	str	r1, [r0, #0]
    338e:	1246      	asrs	r6, r0, #9
    3390:	0003      	movs	r3, r0
    3392:	0a00      	lsrs	r0, r0, #8
    3394:	2001      	movs	r0, #1
    3396:	e4d4      	b.n	0x2d42
    3398:	0004      	movs	r4, r0
    339a:	e153      	b.n	0x3644
    339c:	2001      	movs	r0, #1
    339e:	e5e6      	b.n	0x2f6e
    33a0:	fffb 1aff 			; <UNDEFINED> instruction: 0xfffb1aff
    33a4:	3000      	adds	r0, #0
    33a6:	e3a0      	b.n	0x3aea
    33a8:	0007      	movs	r7, r0
    33aa:	e1a0      	b.n	0x36ee
    33ac:	3000      	adds	r0, #0
    33ae:	e588      	b.n	0x2ec2
    33b0:	d00c      	beq.n	0x33cc
    33b2:	e28d      	b.n	0x38d0
    33b4:	4ff0      	ldr	r7, [pc, #960]	; (0x3778)
    33b6:	e8bd ff1e 	ldmia.w	sp!, {r1, r2, r3, r4, r8, r9, sl, fp, ip, sp, lr, pc}
    33ba:	e12f      	b.n	0x361c
    33bc:	0000      	movs	r0, r0
    33be:	e353      	b.n	0x3a68
    33c0:	3009      	adds	r0, #9
    33c2:	13a0      	asrs	r0, r4, #14
    33c4:	3003      	adds	r0, #3
    33c6:	03a0      	lsls	r0, r4, #14
    33c8:	a006      	add	r0, pc, #24	; (adr r0, 0x33e4)
    33ca:	e1a0      	b.n	0x370e
    33cc:	5001      	str	r1, [r0, r0]
    33ce:	e3a0      	b.n	0x3b12
    33d0:	9001      	str	r0, [sp, #4]
    33d2:	e240      	b.n	0x3856
    33d4:	2009      	movs	r0, #9
    33d6:	e086      	b.n	0x34e6
    33d8:	4003      	ands	r3, r0
    33da:	e084      	b.n	0x34e6
    33dc:	300a      	adds	r0, #10
    33de:	e242      	b.n	0x3866
    33e0:	2004      	movs	r0, #4
    33e2:	e58d      	b.n	0x2f00
    33e4:	b154      	cbz	r4, 0x33fc
    33e6:	e59f      	b.n	0x2f28
    33e8:	3000      	adds	r0, #0
    33ea:	e58d      	b.n	0x2f08
    33ec:	0001      	movs	r1, r0
    33ee:	e355      	b.n	0x3a9c
    33f0:	001d      	movs	r5, r3
    33f2:	0a00      	lsrs	r0, r0, #8
    33f4:	1000      	asrs	r0, r0, #32
    33f6:	e3a0      	b.n	0x3b3a
    33f8:	3001      	adds	r0, #1
    33fa:	e1a0      	b.n	0x373e
    33fc:	0001      	movs	r1, r0
    33fe:	e244      	b.n	0x388a
    3400:	c001      	stmia	r0!, {r0}
    3402:	e5f0      	b.n	0x2fe6
    3404:	311c      	adds	r1, #28
    3406:	e183      	b.n	0x3710
    3408:	1008      	asrs	r0, r1, #32
    340a:	e281      	b.n	0x3910
    340c:	0020      	movs	r0, r4
    340e:	e351      	b.n	0x3ab4
    3410:	fffa 1aff 			; <UNDEFINED> instruction: 0xfffa1aff
    3414:	0001      	movs	r1, r0
    3416:	e215      	b.n	0x3844
    3418:	001d      	movs	r5, r3
    341a:	0a00      	lsrs	r0, r0, #8
    341c:	0003      	movs	r3, r0
    341e:	e313      	b.n	0x3a48
    3420:	50a5      	str	r5, [r4, r2]
    3422:	e1a0      	b.n	0x3766
    3424:	4001      	ands	r1, r0
    3426:	0284      	lsls	r4, r0, #10
    3428:	3003      	adds	r0, #3
    342a:	03a0      	lsls	r0, r4, #14
    342c:	0009      	movs	r1, r1
    342e:	0a00      	lsrs	r0, r0, #8
    3430:	0002      	movs	r2, r0
    3432:	e313      	b.n	0x3a5c
    3434:	4002      	ands	r2, r0
    3436:	0284      	lsls	r4, r0, #10
    3438:	3003      	adds	r0, #3
    343a:	03a0      	lsls	r0, r4, #14
    343c:	0005      	movs	r5, r0
    343e:	0a00      	lsrs	r0, r0, #8
    3440:	0001      	movs	r1, r0
    3442:	e313      	b.n	0x3a6c
    3444:	001d      	movs	r5, r3
    3446:	1a00      	subs	r0, r0, r0
    3448:	3123      	adds	r1, #35	; 0x23
    344a:	e1a0      	b.n	0x378e
    344c:	300f      	adds	r0, #15
    344e:	e203      	b.n	0x3858
    3450:	3003      	adds	r0, #3
    3452:	e283      	b.n	0x395c
    3454:	4002      	ands	r2, r0
    3456:	e284      	b.n	0x3962
    3458:	0000      	movs	r0, r0
    345a:	e3a0      	b.n	0x3b9e
    345c:	a003      	add	r0, pc, #12	; (adr r0, 0x346c)
    345e:	e08a      	b.n	0x3576
    3460:	fd86 ebff 			; <UNDEFINED> instruction: 0xfd86ebff
    3464:	0001      	movs	r1, r0
    3466:	e355      	b.n	0x3b14
    3468:	ffe1 1aff 			; <UNDEFINED> instruction: 0xffe11aff
    346c:	5000      	str	r0, [r0, r0]
    346e:	e3a0      	b.n	0x3bb2
    3470:	3005      	adds	r0, #5
    3472:	e1a0      	b.n	0x37b6
    3474:	1001      	asrs	r1, r0, #32
    3476:	e244      	b.n	0x3902
    3478:	0001      	movs	r1, r0
    347a:	e5f1      	b.n	0x3060
    347c:	5310      	strh	r0, [r2, r4]
    347e:	e185      	b.n	0x378c
    3480:	3008      	adds	r0, #8
    3482:	e283      	b.n	0x398c
    3484:	0020      	movs	r0, r4
    3486:	e353      	b.n	0x3b30
    3488:	fffa 1aff 			; <UNDEFINED> instruction: 0xfffa1aff
    348c:	4004      	ands	r4, r0
    348e:	e284      	b.n	0x399a
    3490:	ffd7 eaff 			; <UNDEFINED> instruction: 0xffd7eaff
    3494:	3000      	adds	r0, #0
    3496:	e59d      	b.n	0x2fd4
    3498:	000a      	movs	r2, r1
    349a:	e153      	b.n	0x3744
    349c:	0012      	movs	r2, r2
    349e:	9a00      	ldr	r2, [sp, #0]
    34a0:	300f      	adds	r0, #15
    34a2:	e205      	b.n	0x38b0
    34a4:	3103      	adds	r1, #3
    34a6:	e08b      	b.n	0x35c0
    34a8:	9028      	str	r0, [sp, #160]	; 0xa0
    34aa:	e593      	b.n	0x2fd4
    34ac:	fd73 ebff 			; <UNDEFINED> instruction: 0xfd73ebff
    34b0:	5935      	ldr	r5, [r6, r4]
    34b2:	e1a0      	b.n	0x37f6
    34b4:	a009      	add	r0, pc, #36	; (adr r0, 0x34dc)
    34b6:	e08a      	b.n	0x35ce
    34b8:	4009      	ands	r1, r1
    34ba:	e084      	b.n	0x35c6
    34bc:	ffca eaff 			; <UNDEFINED> instruction: 0xffcaeaff
    34c0:	107f      	asrs	r7, r7, #1
    34c2:	e203      	b.n	0x38cc
    34c4:	0003      	movs	r3, r0
    34c6:	e351      	b.n	0x3b6c
    34c8:	3123      	adds	r1, #35	; 0x23
    34ca:	11a0      	asrs	r0, r4, #6
    34cc:	33a3      	adds	r3, #163	; 0xa3
    34ce:	01a0      	lsls	r0, r4, #6
    34d0:	301f      	adds	r0, #31
    34d2:	1203      	asrs	r3, r0, #8
    34d4:	30ff      	adds	r0, #255	; 0xff
    34d6:	0203      	lsls	r3, r0, #8
    34d8:	3002      	adds	r0, #2
    34da:	1283      	asrs	r3, r0, #10
    34dc:	4003      	ands	r3, r0
    34de:	1284      	asrs	r4, r0, #10
    34e0:	3003      	adds	r0, #3
    34e2:	0283      	lsls	r3, r0, #10
    34e4:	4004      	ands	r4, r0
    34e6:	0284      	lsls	r4, r0, #10
    34e8:	ffda eaff 			; <UNDEFINED> instruction: 0xffdaeaff
    34ec:	3004      	adds	r0, #4
    34ee:	e59d      	b.n	0x302c
    34f0:	000a      	movs	r2, r1
    34f2:	e153      	b.n	0x379c
    34f4:	6007      	str	r7, [r0, #0]
    34f6:	2086      	movs	r0, #134	; 0x86
    34f8:	ffa9 3aff 			; <UNDEFINED> instruction: 0xffa93aff
    34fc:	0001      	movs	r1, r0
    34fe:	e355      	b.n	0x3bac
    3500:	4004      	ands	r4, r0
    3502:	0284      	lsls	r4, r0, #10
    3504:	3001      	adds	r0, #1
    3506:	e4d4      	b.n	0x2eb2
    3508:	3001      	adds	r0, #1
    350a:	e4ca      	b.n	0x2ea2
    350c:	50a5      	str	r5, [r4, r2]
    350e:	11a0      	asrs	r0, r4, #6
    3510:	5101      	str	r1, [r0, r4]
    3512:	03a0      	lsls	r0, r4, #14
    3514:	0006      	movs	r6, r0
    3516:	e15a      	b.n	0x37ce
    3518:	fff7 1aff 			; <UNDEFINED> instruction: 0xfff71aff
    351c:	ffa0 eaff 			; <UNDEFINED> instruction: 0xffa0eaff
    3520:	0000      	movs	r0, r0
    3522:	e357      	b.n	0x3bd4
    3524:	6007      	str	r7, [r0, #0]
    3526:	e086      	b.n	0x3636
    3528:	ff9d 0aff 			; <UNDEFINED> instruction: 0xff9d0aff
    352c:	2001      	movs	r0, #1
    352e:	e573      	b.n	0x3018
    3530:	0003      	movs	r3, r0
    3532:	e154      	b.n	0x37de
    3534:	2001      	movs	r0, #1
    3536:	e566      	b.n	0x3006
    3538:	fffb 1aff 			; <UNDEFINED> instruction: 0xfffb1aff
    353c:	ff98 eaff 			; <UNDEFINED> instruction: 0xff98eaff
    3540:	666c      	str	r4, [r5, #100]	; 0x64
    3542:	0800      	lsrs	r0, r0, #32
    3544:	306c      	adds	r0, #108	; 0x6c
    3546:	e59f      	b.n	0x3088
    3548:	3000      	adds	r0, #0
    354a:	e593      	b.n	0x3074
    354c:	3000      	adds	r0, #0
    354e:	e593      	b.n	0x3078
    3550:	0000      	movs	r0, r0
    3552:	e353      	b.n	0x3bfc
    3554:	0007      	movs	r7, r0
    3556:	e283      	b.n	0x3a60
    3558:	0003      	movs	r3, r0
    355a:	a1a0      	add	r1, pc, #640	; (adr r1, 0x37dc)
    355c:	4010      	ands	r0, r2
    355e:	e92d 01c0 	stmdb	sp!, {r6, r7, r8}
    3562:	e1a0      	b.n	0x38a6
    3564:	4050      	eors	r0, r2
    3566:	e59f      	b.n	0x30a8
    3568:	0080      	lsls	r0, r0, #2
    356a:	e280      	b.n	0x3a6e
    356c:	3000      	adds	r0, #0
    356e:	e584      	b.n	0x307a
    3570:	f718 ebff 			; <UNDEFINED> instruction: 0xf718ebff
    3574:	3000      	adds	r0, #0
    3576:	e594      	b.n	0x30a2
    3578:	0000      	movs	r0, r0
    357a:	e353      	b.n	0x3c24
    357c:	201f      	movs	r0, #31
    357e:	e283      	b.n	0x3a88
    3580:	2003      	movs	r0, #3
    3582:	a1a0      	add	r1, pc, #640	; (adr r1, 0x3804)
    3584:	001f      	movs	r7, r3
    3586:	e373      	b.n	0x3c70
    3588:	0004      	movs	r4, r0
    358a:	e584      	b.n	0x3096
    358c:	0007      	movs	r7, r0
    358e:	ba00      	rev	r0, r0
    3590:	3000      	adds	r0, #0
    3592:	e3a0      	b.n	0x3cd6
    3594:	1000      	asrs	r0, r0, #32
    3596:	e3e0      	b.n	0x3d5a
    3598:	22c2      	movs	r2, #194	; 0xc2
    359a:	e1a0      	b.n	0x38de
    359c:	0004      	movs	r4, r0
    359e:	e240      	b.n	0x3a22
    35a0:	3001      	adds	r0, #1
    35a2:	e283      	b.n	0x3aac
    35a4:	0002      	movs	r2, r0
    35a6:	e153      	b.n	0x3850
    35a8:	1004      	asrs	r4, r0, #32
    35aa:	e5a0      	b.n	0x30ee
    35ac:	fffb daff 			; <UNDEFINED> instruction: 0xfffbdaff
    35b0:	4010      	ands	r0, r2
    35b2:	e8bd ff1e 	ldmia.w	sp!, {r1, r2, r3, r4, r8, r9, sl, fp, ip, sp, lr, pc}
    35b6:	e12f      	b.n	0x3818
    35b8:	0158      	lsls	r0, r3, #5
    35ba:	0300      	lsls	r0, r0, #12
    35bc:	00f0      	lsls	r0, r6, #3
    35be:	0300      	lsls	r0, r0, #12
    35c0:	4070      	eors	r0, r6
    35c2:	e92d 4124 	stmdb	sp!, {r2, r5, r8, lr}
    35c6:	e59f      	b.n	0x3108
    35c8:	0000      	movs	r0, r0
    35ca:	e594      	b.n	0x30f6
    35cc:	0000      	movs	r0, r0
    35ce:	e350      	b.n	0x3c72
    35d0:	0040      	lsls	r0, r0, #1
    35d2:	da00      	bge.n	0x35d6
    35d4:	c004      	stmia	r0!, {r2}
    35d6:	e594      	b.n	0x3102
    35d8:	3000      	adds	r0, #0
    35da:	e59c      	b.n	0x3116
    35dc:	30a3      	adds	r0, #163	; 0xa3
    35de:	e1a0      	b.n	0x3922
    35e0:	3001      	adds	r0, #1
    35e2:	e213      	b.n	0x3a0c
    35e4:	0004      	movs	r4, r0
    35e6:	1a00      	subs	r0, r0, r0
    35e8:	0038      	movs	r0, r7
    35ea:	ea00 2102 	and.w	r1, r0, r2, lsl #8
    35ee:	e79c      	b.n	0x352a
    35f0:	2132      	movs	r1, #50	; 0x32
    35f2:	e1a0      	b.n	0x3936
    35f4:	0001      	movs	r1, r0
    35f6:	e312      	b.n	0x3c1e
    35f8:	0034      	movs	r4, r6
    35fa:	0a00      	lsrs	r0, r0, #8
    35fc:	3001      	adds	r0, #1
    35fe:	e283      	b.n	0x3b08
    3600:	0000      	movs	r0, r0
    3602:	e153      	b.n	0x38ac
    3604:	22c3      	movs	r2, #195	; 0xc3
    3606:	e1a0      	b.n	0x394a
    3608:	101f      	asrs	r7, r3, #32
    360a:	e203      	b.n	0x3a14
    360c:	fff6 daff 			; <UNDEFINED> instruction: 0xfff6daff
    3610:	0003      	movs	r3, r0
    3612:	e350      	b.n	0x3cb6
    3614:	002f      	movs	r7, r5
    3616:	da00      	bge.n	0x361a
    3618:	1002      	asrs	r2, r0, #32
    361a:	e3a0      	b.n	0x3d5e
    361c:	6001      	str	r1, [r0, #0]
    361e:	e3a0      	b.n	0x3d62
    3620:	e004      	b.n	0x362c
    3622:	e594      	b.n	0x314e
    3624:	0003      	movs	r3, r0
    3626:	ea00 1001 	and.w	r0, r0, r1, lsl #4
    362a:	e281      	b.n	0x3b30
    362c:	0191      	lsls	r1, r2, #6
    362e:	e003      	b.n	0x3638
    3630:	0000      	movs	r0, r0
    3632:	e153      	b.n	0x38dc
    3634:	0014      	movs	r4, r2
    3636:	ca00      	ldmia	r2!, {}
    3638:	32c1      	adds	r2, #193	; 0xc1
    363a:	e1a0      	b.n	0x397e
    363c:	3103      	adds	r1, #3
    363e:	e79e      	b.n	0x357e
    3640:	201f      	movs	r0, #31
    3642:	e201      	b.n	0x3a48
    3644:	3233      	adds	r2, #51	; 0x33
    3646:	e1a0      	b.n	0x398a
    3648:	0001      	movs	r1, r0
    364a:	e313      	b.n	0x3c74
    364c:	fff5 0aff 			; <UNDEFINED> instruction: 0xfff50aff
    3650:	3081      	adds	r0, #129	; 0x81
    3652:	e1a0      	b.n	0x3996
    3654:	0000      	movs	r0, r0
    3656:	e153      	b.n	0x3900
    3658:	fff2 caff 			; <UNDEFINED> instruction: 0xfff2caff
    365c:	c2c3      	stmia	r2!, {r0, r1, r6, r7}
    365e:	e1a0      	b.n	0x39a2
    3660:	210c      	movs	r1, #12
    3662:	e79e      	b.n	0x35a2
    3664:	501f      	str	r7, [r3, r0]
    3666:	e203      	b.n	0x3a70
    3668:	3001      	adds	r0, #1
    366a:	e083      	b.n	0x3774
    366c:	2516      	movs	r5, #22
    366e:	e1c2      	b.n	0x39f6
    3670:	0000      	movs	r0, r0
    3672:	e153      	b.n	0x391c
    3674:	210c      	movs	r1, #12
    3676:	e78e      	b.n	0x3596
    3678:	fff7 daff 			; <UNDEFINED> instruction: 0xfff7daff
    367c:	1001      	asrs	r1, r0, #32
    367e:	e281      	b.n	0x3b84
    3680:	0191      	lsls	r1, r2, #6
    3682:	e003      	b.n	0x368c
    3684:	0000      	movs	r0, r0
    3686:	e153      	b.n	0x3930
    3688:	ffea daff 			; <UNDEFINED> instruction: 0xffeadaff
    368c:	3000      	adds	r0, #0
    368e:	e3a0      	b.n	0x3dd2
    3690:	3008      	adds	r0, #8
    3692:	e584      	b.n	0x319e
    3694:	5000      	str	r0, [r0, r0]
    3696:	e3a0      	b.n	0x3dda
    3698:	3002      	adds	r0, #2
    369a:	e3a0      	b.n	0x3dde
    369c:	c005      	stmia	r0!, {r0, r2}
    369e:	e1a0      	b.n	0x39e2
    36a0:	22c3      	movs	r2, #195	; 0xc3
    36a2:	e1a0      	b.n	0x39e6
    36a4:	2102      	movs	r1, #2
    36a6:	e79e      	b.n	0x35e6
    36a8:	101f      	asrs	r7, r3, #32
    36aa:	e203      	b.n	0x3ab4
    36ac:	2132      	movs	r1, #50	; 0x32
    36ae:	e1a0      	b.n	0x39f2
    36b0:	0001      	movs	r1, r0
    36b2:	e312      	b.n	0x3cda
    36b4:	5001      	str	r1, [r0, r0]
    36b6:	13a0      	asrs	r0, r4, #14
    36b8:	3001      	adds	r0, #1
    36ba:	e283      	b.n	0x3bc4
    36bc:	c005      	stmia	r0!, {r0, r2}
    36be:	108c      	asrs	r4, r1, #2
    36c0:	0000      	movs	r0, r0
    36c2:	e153      	b.n	0x396c
    36c4:	fff5 daff 			; <UNDEFINED> instruction: 0xfff5daff
    36c8:	0000      	movs	r0, r0
    36ca:	e355      	b.n	0x3d78
    36cc:	c008      	stmia	r0!, {r3}
    36ce:	1584      	asrs	r4, r0, #22
    36d0:	4070      	eors	r0, r6
    36d2:	e8bd ff1e 	ldmia.w	sp!, {r1, r2, r3, r4, r8, r9, sl, fp, ip, sp, lr, pc}
    36d6:	e12f      	b.n	0x3938
    36d8:	3000      	adds	r0, #0
    36da:	e3a0      	b.n	0x3e1e
    36dc:	0001      	movs	r1, r0
    36de:	e350      	b.n	0x3d82
    36e0:	3008      	adds	r0, #8
    36e2:	e584      	b.n	0x31ee
    36e4:	fff9 daff 			; <UNDEFINED> instruction: 0xfff9daff
    36e8:	e004      	b.n	0x36f4
    36ea:	e594      	b.n	0x3216
    36ec:	ffe8 eaff 			; <UNDEFINED> instruction: 0xffe8eaff
    36f0:	00f0      	lsls	r0, r6, #3
    36f2:	0300      	lsls	r0, r0, #12
    36f4:	201c      	movs	r0, #28
    36f6:	e59f      	b.n	0x3238
    36f8:	301c      	adds	r0, #28
    36fa:	e59f      	b.n	0x323c
    36fc:	2000      	movs	r0, #0
    36fe:	e592      	b.n	0x3226
    3700:	3008      	adds	r0, #8
    3702:	e593      	b.n	0x322c
    3704:	000c      	movs	r4, r1
    3706:	e592      	b.n	0x322e
    3708:	3003      	adds	r0, #3
    370a:	e040      	b.n	0x378e
    370c:	0000      	movs	r0, r0
    370e:	e273      	b.n	0x3bf8
    3710:	0003      	movs	r3, r0
    3712:	e0a0      	b.n	0x3856
    3714:	ff1e e12f 	vrhadd.u16	d14, d14, d31
    3718:	0158      	lsls	r0, r3, #5
    371a:	0300      	lsls	r0, r0, #12
    371c:	00f0      	lsls	r0, r6, #3
    371e:	0300      	lsls	r0, r0, #12
    3720:	47f0      	blx	lr
    3722:	e92d 4020 	stmdb	sp!, {r5, lr}
    3726:	e59d      	b.n	0x3264
    3728:	9001      	str	r0, [sp, #4]
    372a:	e284      	b.n	0x3c36
    372c:	9109      	str	r1, [sp, #36]	; 0x24
    372e:	e1a0      	b.n	0x3a72
    3730:	6000      	str	r0, [r0, #0]
    3732:	e1a0      	b.n	0x3a76
    3734:	0009      	movs	r1, r1
    3736:	e1a0      	b.n	0x3a7a
    3738:	5001      	str	r1, [r0, r0]
    373a:	e1a0      	b.n	0x3a7e
    373c:	7002      	strb	r2, [r0, #0]
    373e:	e1a0      	b.n	0x3a82
    3740:	8003      	strh	r3, [r0, #0]
    3742:	e1a0      	b.n	0x3a86
    3744:	f6a3 ebff 			; <UNDEFINED> instruction: 0xf6a3ebff
    3748:	0000      	movs	r0, r0
    374a:	e354      	b.n	0x3df6
    374c:	002f      	movs	r7, r5
    374e:	ba00      	rev	r0, r0
    3750:	c004      	stmia	r0!, {r2}
    3752:	e240      	b.n	0x3bd6
    3754:	300c      	adds	r0, #12
    3756:	e1a0      	b.n	0x3a9a
    3758:	2000      	movs	r0, #0
    375a:	e3a0      	b.n	0x3e9e
    375c:	9004      	str	r0, [sp, #16]
    375e:	e249      	b.n	0x3bf4
    3760:	9009      	str	r0, [sp, #36]	; 0x24
    3762:	e080      	b.n	0x3866
    3764:	2004      	movs	r0, #4
    3766:	e5a3      	b.n	0x32b0
    3768:	0003      	movs	r3, r0
    376a:	e159      	b.n	0x3a20
    376c:	fffc 1aff 			; <UNDEFINED> instruction: 0xfffc1aff
    3770:	0000      	movs	r0, r0
    3772:	e358      	b.n	0x3e26
    3774:	000c      	movs	r4, r1
    3776:	da00      	bge.n	0x377a
    3778:	e004      	b.n	0x3784
    377a:	e246      	b.n	0x3c0a
    377c:	300e      	adds	r0, #14
    377e:	e1a0      	b.n	0x3ac2
    3780:	1108      	asrs	r0, r1, #4
    3782:	e08e      	b.n	0x38a2
    3784:	2004      	movs	r0, #4
    3786:	e5b3      	b.n	0x32f0
    3788:	2102      	movs	r1, #2
    378a:	e797      	b.n	0x36bc
    378c:	c102      	stmia	r1!, {r1}
    378e:	e790      	b.n	0x36b2
    3790:	0003      	movs	r3, r0
    3792:	e151      	b.n	0x3a38
    3794:	c001      	stmia	r0!, {r0}
    3796:	e28c      	b.n	0x3cb2
    3798:	c102      	stmia	r1!, {r1}
    379a:	e780      	b.n	0x369e
    379c:	fff8 1aff 			; <UNDEFINED> instruction: 0xfff81aff
    37a0:	0000      	movs	r0, r0
    37a2:	e354      	b.n	0x3e4e
    37a4:	000b      	movs	r3, r1
    37a6:	ba00      	rev	r0, r0
    37a8:	c004      	stmia	r0!, {r2}
    37aa:	e240      	b.n	0x3c2e
    37ac:	3000      	adds	r0, #0
    37ae:	e3a0      	b.n	0x3ef2
    37b0:	2003      	movs	r0, #3
    37b2:	e1a0      	b.n	0x3af6
    37b4:	1004      	asrs	r4, r0, #32
    37b6:	e5bc      	b.n	0x3332
    37b8:	2001      	movs	r0, #1
    37ba:	e282      	b.n	0x3cc2
    37bc:	0002      	movs	r2, r0
    37be:	e154      	b.n	0x3a6a
    37c0:	3000      	adds	r0, #0
    37c2:	e58c      	b.n	0x32de
    37c4:	3001      	adds	r0, #1
    37c6:	e083      	b.n	0x38d0
    37c8:	fff9 aaff 			; <UNDEFINED> instruction: 0xfff9aaff
    37cc:	0000      	movs	r0, r0
    37ce:	e358      	b.n	0x3e82
    37d0:	000c      	movs	r4, r1
    37d2:	da00      	bge.n	0x37d6
    37d4:	e004      	b.n	0x37e0
    37d6:	e246      	b.n	0x3c66
    37d8:	c00e      	stmia	r0!, {r1, r2, r3}
    37da:	e1a0      	b.n	0x3b1e
    37dc:	3000      	adds	r0, #0
    37de:	e3a0      	b.n	0x3f22
    37e0:	2004      	movs	r0, #4
    37e2:	e5bc      	b.n	0x335e
    37e4:	1102      	asrs	r2, r0, #4
    37e6:	e797      	b.n	0x3718
    37e8:	2101      	movs	r1, #1
    37ea:	e790      	b.n	0x370e
    37ec:	e001      	b.n	0x37f2
    37ee:	e282      	b.n	0x3cf6
    37f0:	e101      	b.n	0x39f6
    37f2:	e780      	b.n	0x36f6
    37f4:	3001      	adds	r0, #1
    37f6:	e283      	b.n	0x3d00
    37f8:	1000      	asrs	r0, r0, #32
    37fa:	e59c      	b.n	0x3336
    37fc:	0003      	movs	r3, r0
    37fe:	e158      	b.n	0x3ab2
    3800:	1102      	asrs	r2, r0, #4
    3802:	e785      	b.n	0x3710
    3804:	fff5 caff 			; <UNDEFINED> instruction: 0xfff5caff
    3808:	47f0      	blx	lr
    380a:	e8bd ff1e 	ldmia.w	sp!, {r1, r2, r3, r4, r8, r9, sl, fp, ip, sp, lr, pc}
    380e:	e12f      	b.n	0x3a70
    3810:	0000      	movs	r0, r0
    3812:	e358      	b.n	0x3ec6
    3814:	ffd7 caff 			; <UNDEFINED> instruction: 0xffd7caff
    3818:	fffa eaff 			; <UNDEFINED> instruction: 0xfffaeaff
    381c:	4ff0      	ldr	r7, [pc, #960]	; (0x3be0)
    381e:	e92d 8002 	stmdb	sp!, {r1, pc}
    3822:	e1a0      	b.n	0x3b66
    3824:	44d0      	add	r8, sl
    3826:	e59f      	b.n	0x3368
    3828:	54cc      	strb	r4, [r1, r3]
    382a:	e59f      	b.n	0x336c
    382c:	d03c      	beq.n	0x38a8
    382e:	e24d      	b.n	0x3ccc
    3830:	c002      	stmia	r0!, {r1}
    3832:	e282      	b.n	0x3d3a
    3834:	2018      	movs	r0, #24
    3836:	e58d      	b.n	0x3354
    3838:	e598      	b.n	0x336c
    383a:	e0c5      	b.n	0x39c8
    383c:	249c      	movs	r4, #156	; 0x9c
    383e:	e0c4      	b.n	0x39ca
    3840:	2fc8      	cmp	r7, #200	; 0xc8
    3842:	e045      	b.n	0x38d0
    3844:	4fcc      	ldr	r7, [pc, #816]	; (0x3b78)
    3846:	e044      	b.n	0x38d2
    3848:	9004      	str	r0, [sp, #16]
    384a:	e082      	b.n	0x3952
    384c:	a003      	add	r0, pc, #12	; (adr r0, 0x385c)
    384e:	e289      	b.n	0x3d64
    3850:	a10a      	add	r1, pc, #40	; (adr r1, 0x387c)
    3852:	e1a0      	b.n	0x3b96
    3854:	5000      	str	r0, [r0, r0]
    3856:	e1a0      	b.n	0x3b9a
    3858:	000a      	movs	r2, r1
    385a:	e1a0      	b.n	0x3b9e
    385c:	101c      	asrs	r4, r3, #32
    385e:	e58d      	b.n	0x337c
    3860:	900c      	str	r0, [sp, #48]	; 0x30
    3862:	e58d      	b.n	0x3380
    3864:	3020      	adds	r0, #32
    3866:	e58d      	b.n	0x3384
    3868:	f65a ebff 			; <UNDEFINED> instruction: 0xf65aebff
    386c:	7000      	strb	r0, [r0, #0]
    386e:	e3a0      	b.n	0x3fb2
    3870:	6000      	str	r0, [r0, #0]
    3872:	e1a0      	b.n	0x3bb6
    3874:	b002      	add	sp, #8
    3876:	e289      	b.n	0x3d8c
    3878:	910b      	str	r1, [sp, #44]	; 0x2c
    387a:	e1a0      	b.n	0x3bbe
    387c:	3004      	adds	r0, #4
    387e:	e249      	b.n	0x3d14
    3880:	9008      	str	r0, [sp, #32]
    3882:	e249      	b.n	0x3d18
    3884:	710b      	strb	r3, [r1, #4]
    3886:	e786      	b.n	0x3796
    3888:	000a      	movs	r2, r1
    388a:	e1a0      	b.n	0x3bce
    388c:	7003      	strb	r3, [r0, #0]
    388e:	e786      	b.n	0x379e
    3890:	7009      	strb	r1, [r1, #0]
    3892:	e786      	b.n	0x37a2
    3894:	3014      	adds	r0, #20
    3896:	e58d      	b.n	0x33b4
    3898:	f64e ebff 			; <UNDEFINED> instruction: 0xf64eebff
    389c:	2000      	movs	r0, #0
    389e:	e1a0      	b.n	0x3be2
    38a0:	3014      	adds	r0, #20
    38a2:	e59d      	b.n	0x33e0
    38a4:	a104      	add	r1, pc, #16	; (adr r1, 0x38b8)
    38a6:	e1a0      	b.n	0x3bea
    38a8:	710b      	strb	r3, [r1, #4]
    38aa:	e780      	b.n	0x37ae
    38ac:	0010      	movs	r0, r2
    38ae:	e58d      	b.n	0x33cc
    38b0:	7003      	strb	r3, [r0, #0]
    38b2:	e782      	b.n	0x37ba
    38b4:	000a      	movs	r2, r1
    38b6:	e1a0      	b.n	0x3bfa
    38b8:	7009      	strb	r1, [r1, #0]
    38ba:	e782      	b.n	0x37c2
    38bc:	a028      	add	r0, pc, #160	; (adr r0, 0x3960)
    38be:	e58d      	b.n	0x33dc
    38c0:	f644 ebff 			; <UNDEFINED> instruction: 0xf644ebff
    38c4:	0024      	movs	r4, r4
    38c6:	e58d      	b.n	0x33e4
    38c8:	000a      	movs	r2, r1
    38ca:	e1a0      	b.n	0x3c0e
    38cc:	f641 ebff 			; <UNDEFINED> instruction: 0xf641ebff
    38d0:	2008      	movs	r0, #8
    38d2:	e1a0      	b.n	0x3c16
    38d4:	3001      	adds	r0, #1
    38d6:	e288      	b.n	0x3dea
    38d8:	841c      	strh	r4, [r3, #32]
    38da:	e59f      	b.n	0x341c
    38dc:	1893      	adds	r3, r2, r2
    38de:	e0c8      	b.n	0x3a72
    38e0:	8fc3      	ldrh	r3, [r0, #62]	; 0x3e
    38e2:	e048      	b.n	0x3976
    38e4:	b008      	add	sp, #32
    38e6:	e044      	b.n	0x3972
    38e8:	100b      	asrs	r3, r1, #32
    38ea:	e082      	b.n	0x39f2
    38ec:	0007      	movs	r7, r0
    38ee:	e151      	b.n	0x3b94
    38f0:	0014      	movs	r4, r2
    38f2:	e58d      	b.n	0x3410
    38f4:	000b      	movs	r3, r1
    38f6:	da00      	bge.n	0x38fa
    38f8:	2007      	movs	r0, #7
    38fa:	e1a0      	b.n	0x3c3e
    38fc:	03fc      	lsls	r4, r7, #15
    38fe:	e59f      	b.n	0x3440
    3900:	0005      	movs	r5, r0
    3902:	ea00 c790 			; <UNDEFINED> instruction: 0xea00c790
    3906:	e083      	b.n	0x3a10
    3908:	30a3      	adds	r0, #163	; 0xa3
    390a:	e1a0      	b.n	0x3c4e
    390c:	3083      	adds	r0, #131	; 0x83
    390e:	e083      	b.n	0x3a18
    3910:	0003      	movs	r3, r0
    3912:	e157      	b.n	0x3bc4
    3914:	7102      	strb	r2, [r0, #4]
    3916:	1786      	asrs	r6, r0, #30
    3918:	2001      	movs	r0, #1
    391a:	1282      	asrs	r2, r0, #10
    391c:	7001      	strb	r1, [r0, #0]
    391e:	e287      	b.n	0x3e30
    3920:	0001      	movs	r1, r0
    3922:	e157      	b.n	0x3bd4
    3924:	fff6 1aff 			; <UNDEFINED> instruction: 0xfff61aff
    3928:	700c      	strb	r4, [r1, #0]
    392a:	e59d      	b.n	0x3468
    392c:	8020      	strh	r0, [r4, #0]
    392e:	e59d      	b.n	0x346c
    3930:	9010      	str	r0, [sp, #64]	; 0x40
    3932:	e59d      	b.n	0x3470
    3934:	3007      	adds	r0, #7
    3936:	e1a0      	b.n	0x3c7a
    3938:	2008      	movs	r0, #8
    393a:	e285      	b.n	0x3e48
    393c:	1009      	asrs	r1, r1, #32
    393e:	e1a0      	b.n	0x3c82
    3940:	0006      	movs	r6, r0
    3942:	e1a0      	b.n	0x3c86
    3944:	8000      	strh	r0, [r0, #0]
    3946:	e58d      	b.n	0x3464
    3948:	ff74 ebff 	vqrdmlah.s<illegal width 64>	q15, q10, <illegal reg q15.5>
    394c:	3007      	adds	r0, #7
    394e:	e1a0      	b.n	0x3c92
    3950:	2004      	movs	r0, #4
    3952:	e285      	b.n	0x3e60
    3954:	1006      	asrs	r6, r0, #32
    3956:	e1a0      	b.n	0x3c9a
    3958:	0009      	movs	r1, r1
    395a:	e1a0      	b.n	0x3c9e
    395c:	8000      	strh	r0, [r0, #0]
    395e:	e58d      	b.n	0x347c
    3960:	ff6e ebff 	vqrdmlah.s32	q15, q15, <illegal reg q15.5>
    3964:	8000      	strh	r0, [r0, #0]
    3966:	e58d      	b.n	0x3484
    3968:	3007      	adds	r0, #7
    396a:	e1a0      	b.n	0x3cae
    396c:	2005      	movs	r0, #5
    396e:	e1a0      	b.n	0x3cb2
    3970:	1009      	asrs	r1, r1, #32
    3972:	e1a0      	b.n	0x3cb6
    3974:	0006      	movs	r6, r0
    3976:	e1a0      	b.n	0x3cba
    3978:	ff68 ebff 	vqrdmlah.s32	q15, q12, <illegal reg q15.5>
    397c:	0000      	movs	r0, r0
    397e:	e357      	b.n	0x4030
    3980:	0043      	lsls	r3, r0, #1
    3982:	da00      	bge.n	0x3986
    3984:	2000      	movs	r0, #0
    3986:	e3e0      	b.n	0x414a
    3988:	1010      	asrs	r0, r2, #32
    398a:	e59d      	b.n	0x34c8
    398c:	000c      	movs	r4, r1
    398e:	e59d      	b.n	0x34cc
    3990:	3004      	adds	r0, #4
    3992:	e241      	b.n	0x3e18
    3994:	9100      	str	r1, [sp, #0]
    3996:	e081      	b.n	0x3a9c
    3998:	302c      	adds	r0, #44	; 0x2c
    399a:	e58d      	b.n	0x34b8
    399c:	3034      	adds	r0, #52	; 0x34
    399e:	e58d      	b.n	0x34bc
    39a0:	c003      	stmia	r0!, {r0, r1}
    39a2:	e1a0      	b.n	0x3ce6
    39a4:	b030      	add	sp, #192	; 0xc0
    39a6:	e58d      	b.n	0x34c4
    39a8:	a002      	add	r0, pc, #8	; (adr r0, 0x39b4)
    39aa:	e1a0      	b.n	0x3cee
    39ac:	8002      	strh	r2, [r0, #0]
    39ae:	e1a0      	b.n	0x3cf2
    39b0:	3000      	adds	r0, #0
    39b2:	e3a0      	b.n	0x40f6
    39b4:	9004      	str	r0, [sp, #16]
    39b6:	e249      	b.n	0x3e4c
    39b8:	b002      	add	sp, #8
    39ba:	e1a0      	b.n	0x3cfe
    39bc:	0008      	movs	r0, r1
    39be:	ea00 800e 			; <UNDEFINED> instruction: 0xea00800e
    39c2:	e1a0      	b.n	0x3d06
    39c4:	3001      	adds	r0, #1
    39c6:	e283      	b.n	0x3ed0
    39c8:	0001      	movs	r1, r0
    39ca:	e350      	b.n	0x406e
    39cc:	1001      	asrs	r1, r0, #32
    39ce:	1084      	asrs	r4, r0, #2
    39d0:	0009      	movs	r1, r1
    39d2:	e15c      	b.n	0x3c8e
    39d4:	3101      	adds	r1, #1
    39d6:	e786      	b.n	0x38e6
    39d8:	a007      	add	r0, pc, #28	; (adr r0, 0x39f8)
    39da:	e1a0      	b.n	0x3d1e
    39dc:	b002      	add	sp, #8
    39de:	e1a0      	b.n	0x3d22
    39e0:	0010      	movs	r0, r2
    39e2:	0a00      	lsrs	r0, r0, #8
    39e4:	2004      	movs	r0, #4
    39e6:	e5bc      	b.n	0x3562
    39e8:	130c      	asrs	r4, r1, #12
    39ea:	e59f      	b.n	0x352c
    39ec:	0192      	lsls	r2, r2, #6
    39ee:	e0c1      	b.n	0x3b74
    39f0:	e102      	b.n	0x3bf8
    39f2:	e795      	b.n	0x3920
    39f4:	1fc2      	subs	r2, r0, #7
    39f6:	e041      	b.n	0x3a7c
    39f8:	0081      	lsls	r1, r0, #2
    39fa:	e081      	b.n	0x3b00
    39fc:	0000      	movs	r0, r0
    39fe:	e042      	b.n	0x3a86
    3a00:	0008      	movs	r0, r1
    3a02:	e15e      	b.n	0x3cc2
    3a04:	2102      	movs	r1, #2
    3a06:	e085      	b.n	0x3b14
    3a08:	7004      	strb	r4, [r0, #0]
    3a0a:	e592      	b.n	0x3532
    3a0c:	2008      	movs	r0, #8
    3a0e:	e592      	b.n	0x3536
    3a10:	ffea 1aff 			; <UNDEFINED> instruction: 0xffea1aff
    3a14:	0007      	movs	r7, r0
    3a16:	e15a      	b.n	0x3cce
    3a18:	ffe8 1aff 			; <UNDEFINED> instruction: 0xffe81aff
    3a1c:	0002      	movs	r2, r0
    3a1e:	e15b      	b.n	0x3cd8
    3a20:	ffe6 1aff 			; <UNDEFINED> instruction: 0xffe61aff
    3a24:	ffe7 eaff 			; <UNDEFINED> instruction: 0xffe7eaff
    3a28:	200c      	movs	r0, #12
    3a2a:	e59d      	b.n	0x3568
    3a2c:	0002      	movs	r2, r0
    3a2e:	e153      	b.n	0x3cd8
    3a30:	b030      	add	sp, #192	; 0xc0
    3a32:	e59d      	b.n	0x3570
    3a34:	0089      	lsls	r1, r1, #2
    3a36:	ba00      	rev	r0, r0
    3a38:	3000      	adds	r0, #0
    3a3a:	e3a0      	b.n	0x417e
    3a3c:	000c      	movs	r4, r1
    3a3e:	e28d      	b.n	0x3f5c
    3a40:	1001      	asrs	r1, r0, #32
    3a42:	e890 1004 	ldmia.w	r0, {r2, ip}
    3a46:	e246      	b.n	0x3ed6
    3a48:	2004      	movs	r0, #4
    3a4a:	e5b1      	b.n	0x35b0
    3a4c:	2107      	movs	r1, #7
    3a4e:	e242      	b.n	0x3ed6
    3a50:	3102      	adds	r1, #2
    3a52:	e78c      	b.n	0x396e
    3a54:	3001      	adds	r0, #1
    3a56:	e283      	b.n	0x3f60
    3a58:	0003      	movs	r3, r0
    3a5a:	e150      	b.n	0x3cfe
    3a5c:	fff9 1aff 			; <UNDEFINED> instruction: 0xfff91aff
    3a60:	0000      	movs	r0, r0
    3a62:	e3a0      	b.n	0x41a6
    3a64:	2000      	movs	r0, #0
    3a66:	e1a0      	b.n	0x3daa
    3a68:	102c      	asrs	r4, r5, #32
    3a6a:	e59d      	b.n	0x35a8
    3a6c:	c00c      	stmia	r0!, {r2, r3}
    3a6e:	e59d      	b.n	0x35ac
    3a70:	e024      	b.n	0x3abc
    3a72:	e59d      	b.n	0x35b0
    3a74:	3004      	adds	r0, #4
    3a76:	e5b1      	b.n	0x35dc
    3a78:	0004      	movs	r4, r0
    3a7a:	e153      	b.n	0x3d24
    3a7c:	3083      	adds	r0, #131	; 0x83
    3a7e:	b083      	sub	sp, #12
    3a80:	2001      	movs	r0, #1
    3a82:	e282      	b.n	0x3f8a
    3a84:	3100      	adds	r1, #0
    3a86:	b78e      			; <UNDEFINED> instruction: 0xb78e
    3a88:	0001      	movs	r1, r0
    3a8a:	b280      	uxth	r0, r0
    3a8c:	0002      	movs	r2, r0
    3a8e:	e15c      	b.n	0x3d4a
    3a90:	fff7 caff 			; <UNDEFINED> instruction: 0xfff7caff
    3a94:	3020      	adds	r0, #32
    3a96:	e59d      	b.n	0x35d4
    3a98:	0024      	movs	r4, r4
    3a9a:	e59d      	b.n	0x35d8
    3a9c:	3000      	adds	r0, #0
    3a9e:	e58d      	b.n	0x35bc
    3aa0:	2005      	movs	r0, #5
    3aa2:	e1a0      	b.n	0x3de6
    3aa4:	3004      	adds	r0, #4
    3aa6:	e1a0      	b.n	0x3dea
    3aa8:	1014      	asrs	r4, r2, #32
    3aaa:	e59d      	b.n	0x35e8
    3aac:	ff1b ebff 	vqrdmlah.s16	q7, <illegal reg q13.5>, <illegal reg q15.5>
    3ab0:	3018      	adds	r0, #24
    3ab2:	e59d      	b.n	0x35f0
    3ab4:	0000      	movs	r0, r0
    3ab6:	e353      	b.n	0x4160
    3ab8:	005d      	lsls	r5, r3, #1
    3aba:	da00      	bge.n	0x3abe
    3abc:	0000      	movs	r0, r0
    3abe:	e3a0      	b.n	0x4202
    3ac0:	3028      	adds	r0, #40	; 0x28
    3ac2:	e59d      	b.n	0x3600
    3ac4:	c00c      	stmia	r0!, {r2, r3}
    3ac6:	e59d      	b.n	0x3604
    3ac8:	1004      	asrs	r4, r0, #32
    3aca:	e243      	b.n	0x3f54
    3acc:	3010      	adds	r0, #16
    3ace:	e59d      	b.n	0x360c
    3ad0:	310c      	adds	r1, #12
    3ad2:	e083      	b.n	0x3bdc
    3ad4:	c014      	stmia	r0!, {r2, r4}
    3ad6:	e59d      	b.n	0x3614
    3ad8:	3004      	adds	r0, #4
    3ada:	e243      	b.n	0x3f64
    3adc:	1001      	asrs	r1, r0, #32
    3ade:	e08c      	b.n	0x3bfa
    3ae0:	2000      	movs	r0, #0
    3ae2:	e1a0      	b.n	0x3e26
    3ae4:	1024      	asrs	r4, r4, #32
    3ae6:	e58d      	b.n	0x3604
    3ae8:	3028      	adds	r0, #40	; 0x28
    3aea:	e58d      	b.n	0x3608
    3aec:	0015      	movs	r5, r2
    3aee:	ea00 7083 	and.w	r0, r0, r3, lsl #30
    3af2:	e083      	b.n	0x3bfc
    3af4:	7001      	strb	r1, [r0, #0]
    3af6:	e287      	b.n	0x4008
    3af8:	8107      	strh	r7, [r0, #8]
    3afa:	e795      	b.n	0x3a28
    3afc:	3004      	adds	r0, #4
    3afe:	e083      	b.n	0x3c08
    3b00:	000a      	movs	r2, r1
    3b02:	e158      	b.n	0x3db6
    3b04:	c10c      	stmia	r1!, {r2, r3}
    3b06:	e796      	b.n	0x3a36
    3b08:	3103      	adds	r1, #3
    3b0a:	e796      	b.n	0x3a3a
    3b0c:	002e      	movs	r6, r5
    3b0e:	ba00      	rev	r0, r0
    3b10:	000c      	movs	r4, r1
    3b12:	e153      	b.n	0x3dbc
    3b14:	000a      	movs	r2, r1
    3b16:	d158      	bne.n	0x3bca
    3b18:	002b      	movs	r3, r5
    3b1a:	0a00      	lsrs	r0, r0, #8
    3b1c:	301c      	adds	r0, #28
    3b1e:	e59d      	b.n	0x365c
    3b20:	2001      	movs	r0, #1
    3b22:	e282      	b.n	0x402a
    3b24:	0002      	movs	r2, r0
    3b26:	e154      	b.n	0x3dd2
    3b28:	1100      	asrs	r0, r0, #4
    3b2a:	e783      	b.n	0x3a34
    3b2c:	c100      	stmia	r1!, {}
    3b2e:	e083      	b.n	0x3c38
    3b30:	1001      	asrs	r1, r0, #32
    3b32:	e280      	b.n	0x4036
    3b34:	0056      	lsls	r6, r2, #1
    3b36:	0a00      	lsrs	r0, r0, #8
    3b38:	3018      	adds	r0, #24
    3b3a:	e59d      	b.n	0x3678
    3b3c:	0001      	movs	r1, r0
    3b3e:	e153      	b.n	0x3de8
    3b40:	0001      	movs	r1, r0
    3b42:	e1a0      	b.n	0x3e86
    3b44:	003a      	movs	r2, r7
    3b46:	da00      	bge.n	0x3b4a
    3b48:	3014      	adds	r0, #20
    3b4a:	e59d      	b.n	0x3688
    3b4c:	c1a8      	stmia	r1!, {r3, r5, r7}
    3b4e:	e59f      	b.n	0x3690
    3b50:	1102      	asrs	r2, r0, #4
    3b52:	e793      	b.n	0x3a7c
    3b54:	3c91      	subs	r4, #145	; 0x91
    3b56:	e0cc      	b.n	0x3cf2
    3b58:	3010      	adds	r0, #16
    3b5a:	e59d      	b.n	0x3698
    3b5c:	310b      	adds	r1, #11
    3b5e:	e793      	b.n	0x3a88
    3b60:	e10b      	b.n	0x3d7a
    3b62:	e1a0      	b.n	0x3ea6
    3b64:	0004      	movs	r4, r0
    3b66:	e153      	b.n	0x3e10
    3b68:	e020      	b.n	0x3bac
    3b6a:	e58d      	b.n	0x3688
    3b6c:	cfc1      	ldmia	r7, {r0, r6, r7}
    3b6e:	e04c      	b.n	0x3c0a
    3b70:	9101      	str	r1, [sp, #4]
    3b72:	e1a0      	b.n	0x3eb6
    3b74:	a101      	add	r1, pc, #4	; (adr r1, 0x3b7c)
    3b76:	e795      	b.n	0x3aa4
    3b78:	e102      	b.n	0x3d80
    3b7a:	e1a0      	b.n	0x3ebe
    3b7c:	ffdb baff 			; <UNDEFINED> instruction: 0xffdbbaff
    3b80:	3004      	adds	r0, #4
    3b82:	e043      	b.n	0x3c0c
    3b84:	8083      	strh	r3, [r0, #4]
    3b86:	e083      	b.n	0x3c90
    3b88:	7002      	strb	r2, [r0, #0]
    3b8a:	e288      	b.n	0x409e
    3b8c:	3001      	adds	r0, #1
    3b8e:	e283      	b.n	0x4098
    3b90:	3020      	adds	r0, #32
    3b92:	e58d      	b.n	0x36b0
    3b94:	3107      	adds	r1, #7
    3b96:	e795      	b.n	0x3ac4
    3b98:	000a      	movs	r2, r1
    3b9a:	e153      	b.n	0x3e44
    3b9c:	3020      	adds	r0, #32
    3b9e:	e59d      	b.n	0x36dc
    3ba0:	9009      	str	r0, [sp, #36]	; 0x24
    3ba2:	e085      	b.n	0x3cb0
    3ba4:	c00c      	stmia	r0!, {r2, r3}
    3ba6:	e084      	b.n	0x3cb2
    3ba8:	8003      	strh	r3, [r0, #0]
    3baa:	e288      	b.n	0x40be
    3bac:	9004      	str	r0, [sp, #16]
    3bae:	e599      	b.n	0x36e4
    3bb0:	c10c      	stmia	r1!, {r2, r3}
    3bb2:	e796      	b.n	0x3ae2
    3bb4:	3103      	adds	r1, #3
    3bb6:	e796      	b.n	0x3ae6
    3bb8:	8108      	strh	r0, [r1, #8]
    3bba:	e795      	b.n	0x3ae8
    3bbc:	0002      	movs	r2, r0
    3bbe:	ba00      	rev	r0, r0
    3bc0:	ffd5 1aff 			; <UNDEFINED> instruction: 0xffd51aff
    3bc4:	0009      	movs	r1, r1
    3bc6:	e158      	b.n	0x3e7a
    3bc8:	001c      	movs	r4, r3
    3bca:	aa00      	add	r2, sp, #0
    3bcc:	300c      	adds	r0, #12
    3bce:	e59d      	b.n	0x370c
    3bd0:	b001      	add	sp, #4
    3bd2:	e28b      	b.n	0x40ec
    3bd4:	000b      	movs	r3, r1
    3bd6:	e153      	b.n	0x3e80
    3bd8:	301c      	adds	r0, #28
    3bda:	e59d      	b.n	0x3718
    3bdc:	1001      	asrs	r1, r0, #32
    3bde:	e280      	b.n	0x40e2
    3be0:	7100      	strb	r0, [r0, #4]
    3be2:	e783      	b.n	0x3aec
    3be4:	3100      	adds	r1, #0
    3be6:	e083      	b.n	0x3cf0
    3be8:	ffd2 1aff 			; <UNDEFINED> instruction: 0xffd21aff
    3bec:	0002      	movs	r2, r0
    3bee:	e154      	b.n	0x3e9a
    3bf0:	003f      	movs	r7, r7
    3bf2:	da00      	bge.n	0x3bf6
    3bf4:	0014      	movs	r4, r2
    3bf6:	e59d      	b.n	0x3734
    3bf8:	e004      	b.n	0x3c04
    3bfa:	e24e      	b.n	0x409a
    3bfc:	c024      	stmia	r0!, {r2, r5}
    3bfe:	e59d      	b.n	0x373c
    3c00:	e00e      	b.n	0x3c20
    3c02:	e080      	b.n	0x3d06
    3c04:	0004      	movs	r4, r0
    3c06:	e5be      	b.n	0x3786
    3c08:	000e      	movs	r6, r1
    3c0a:	e15c      	b.n	0x3ec6
    3c0c:	0004      	movs	r4, r0
    3c0e:	e5a3      	b.n	0x3758
    3c10:	fffb 1aff 			; <UNDEFINED> instruction: 0xfffb1aff
    3c14:	1002      	asrs	r2, r0, #32
    3c16:	e041      	b.n	0x3c9c
    3c18:	1004      	asrs	r4, r0, #32
    3c1a:	e081      	b.n	0x3d20
    3c1c:	3018      	adds	r0, #24
    3c1e:	e59d      	b.n	0x375c
    3c20:	1001      	asrs	r1, r0, #32
    3c22:	e281      	b.n	0x4128
    3c24:	0001      	movs	r1, r0
    3c26:	e153      	b.n	0x3ed0
    3c28:	2004      	movs	r0, #4
    3c2a:	e1a0      	b.n	0x3f6e
    3c2c:	0001      	movs	r1, r0
    3c2e:	e1a0      	b.n	0x3f72
    3c30:	ffc4 caff 			; <UNDEFINED> instruction: 0xffc4caff
    3c34:	d03c      	beq.n	0x3cb0
    3c36:	e28d      	b.n	0x4154
    3c38:	4ff0      	ldr	r7, [pc, #960]	; (0x3ffc)
    3c3a:	e8bd ff1e 	ldmia.w	sp!, {r1, r2, r3, r4, r8, r9, sl, fp, ip, sp, lr, pc}
    3c3e:	e12f      	b.n	0x3ea0
    3c40:	8001      	strh	r1, [r0, #0]
    3c42:	03a0      	lsls	r0, r4, #14
    3c44:	8000      	strh	r0, [r0, #0]
    3c46:	13a0      	asrs	r0, r4, #14
    3c48:	000c      	movs	r4, r1
    3c4a:	e153      	b.n	0x3ef4
    3c4c:	c000      	stmia	r0!, {}
    3c4e:	c3a0      	stmia	r3!, {r5, r7}
    3c50:	c001      	stmia	r0!, {r0}
    3c52:	d208      	bcs.n	0x3c66
    3c54:	0000      	movs	r0, r0
    3c56:	e35c      	b.n	0x4312
    3c58:	ffaf 0aff 			; <UNDEFINED> instruction: 0xffaf0aff
    3c5c:	ffda eaff 			; <UNDEFINED> instruction: 0xffdaeaff
    3c60:	7002      	strb	r2, [r0, #0]
    3c62:	e1a0      	b.n	0x3fa6
    3c64:	0006      	movs	r6, r0
    3c66:	e1a0      	b.n	0x3faa
    3c68:	1010      	asrs	r0, r2, #32
    3c6a:	e59d      	b.n	0x37a8
    3c6c:	feea ebff 			; <UNDEFINED> instruction: 0xfeeaebff
    3c70:	3000      	adds	r0, #0
    3c72:	e3a0      	b.n	0x43b6
    3c74:	0007      	movs	r7, r0
    3c76:	e1a0      	b.n	0x3fba
    3c78:	2034      	movs	r0, #52	; 0x34
    3c7a:	e59d      	b.n	0x37b8
    3c7c:	3001      	adds	r0, #1
    3c7e:	e283      	b.n	0x4188
    3c80:	1004      	asrs	r4, r0, #32
    3c82:	e5b2      	b.n	0x37ea
    3c84:	0000      	movs	r0, r0
    3c86:	e153      	b.n	0x3f30
    3c88:	3101      	adds	r1, #1
    3c8a:	e786      	b.n	0x3b9a
    3c8c:	fffa 1aff 			; <UNDEFINED> instruction: 0xfffa1aff
    3c90:	ff72 eaff 	vpmin.u<illegal width 64>	q15, q9, <illegal reg q15.5>
    3c94:	300c      	adds	r0, #12
    3c96:	e59d      	b.n	0x37d4
    3c98:	000b      	movs	r3, r1
    3c9a:	e153      	b.n	0x3f44
    3c9c:	0014      	movs	r4, r2
    3c9e:	da00      	bge.n	0x3ca2
    3ca0:	310b      	adds	r1, #11
    3ca2:	e1a0      	b.n	0x3fe6
    3ca4:	0004      	movs	r4, r0
    3ca6:	e243      	b.n	0x4130
    3ca8:	3010      	adds	r0, #16
    3caa:	e59d      	b.n	0x37e8
    3cac:	7028      	strb	r0, [r5, #0]
    3cae:	e59d      	b.n	0x37ec
    3cb0:	0000      	movs	r0, r0
    3cb2:	e083      	b.n	0x3dbc
    3cb4:	3004      	adds	r0, #4
    3cb6:	e5b0      	b.n	0x381a
    3cb8:	0004      	movs	r4, r0
    3cba:	e153      	b.n	0x3f64
    3cbc:	e083      	b.n	0x3dc6
    3cbe:	e083      	b.n	0x3dc8
    3cc0:	3004      	adds	r0, #4
    3cc2:	a043      	add	r0, pc, #268	; (adr r0, 0x3dd0)
    3cc4:	3083      	adds	r0, #131	; 0x83
    3cc6:	a083      	add	r0, pc, #524	; (adr r0, 0x3ed4)
    3cc8:	3001      	adds	r0, #1
    3cca:	b28e      	uxth	r6, r1
    3ccc:	3002      	adds	r0, #2
    3cce:	a283      	add	r2, pc, #524	; (adr r2, 0x3edc)
    3cd0:	0000      	movs	r0, r0
    3cd2:	e157      	b.n	0x3f84
    3cd4:	3004      	adds	r0, #4
    3cd6:	e5ac      	b.n	0x3832
    3cd8:	fff5 1aff 			; <UNDEFINED> instruction: 0xfff51aff
    3cdc:	300c      	adds	r0, #12
    3cde:	e59d      	b.n	0x381c
    3ce0:	100b      	asrs	r3, r1, #32
    3ce2:	e041      	b.n	0x3d68
    3ce4:	1003      	asrs	r3, r0, #32
    3ce6:	e081      	b.n	0x3dec
    3ce8:	b003      	add	sp, #12
    3cea:	e1a0      	b.n	0x402e
    3cec:	1001      	asrs	r1, r0, #32
    3cee:	e281      	b.n	0x41f4
    3cf0:	ff90 eaff 			; <UNDEFINED> instruction: 0xff90eaff
    3cf4:	1002      	asrs	r2, r0, #32
    3cf6:	e280      	b.n	0x41fa
    3cf8:	ff8e eaff 			; <UNDEFINED> instruction: 0xff8eeaff
    3cfc:	5556      	strb	r6, [r2, r5]
    3cfe:	5555      	strb	r5, [r2, r5]
    3d00:	aaab      	add	r2, sp, #684	; 0x2ac
    3d02:	aaaa      	add	r2, sp, #680	; 0x2a8
    3d04:	3090      	adds	r0, #144	; 0x90
    3d06:	e59f      	b.n	0x3848
    3d08:	3000      	adds	r0, #0
    3d0a:	e593      	b.n	0x3834
    3d0c:	4070      	eors	r0, r6
    3d0e:	e92d 3000 	stmdb	sp!, {ip, sp}
    3d12:	e593      	b.n	0x383c
    3d14:	5084      	str	r4, [r0, r2]
    3d16:	e59f      	b.n	0x3858
    3d18:	0001      	movs	r1, r0
    3d1a:	e3a0      	b.n	0x445e
    3d1c:	3000      	adds	r0, #0
    3d1e:	e585      	b.n	0x382c
    3d20:	f552 ebff 			; <UNDEFINED> instruction: 0xf552ebff
    3d24:	0000      	movs	r0, r0
    3d26:	e595      	b.n	0x3854
    3d28:	000a      	movs	r2, r1
    3d2a:	e280      	b.n	0x422e
    3d2c:	0100      	lsls	r0, r0, #4
    3d2e:	e1a0      	b.n	0x4072
    3d30:	f528 ebff 			; <UNDEFINED> instruction: 0xf528ebff
    3d34:	3000      	adds	r0, #0
    3d36:	e595      	b.n	0x3864
    3d38:	300a      	adds	r0, #10
    3d3a:	e283      	b.n	0x4244
    3d3c:	0004      	movs	r4, r0
    3d3e:	e585      	b.n	0x384c
    3d40:	0103      	lsls	r3, r0, #4
    3d42:	e1a0      	b.n	0x4086
    3d44:	f523 ebff 			; <UNDEFINED> instruction: 0xf523ebff
    3d48:	3000      	adds	r0, #0
    3d4a:	e595      	b.n	0x3878
    3d4c:	0000      	movs	r0, r0
    3d4e:	e353      	b.n	0x43f8
    3d50:	0008      	movs	r0, r1
    3d52:	e585      	b.n	0x3860
    3d54:	000e      	movs	r6, r1
    3d56:	da00      	bge.n	0x3d5a
    3d58:	4000      	ands	r0, r0
    3d5a:	e3a0      	b.n	0x449e
    3d5c:	6040      	str	r0, [r0, #4]
    3d5e:	e59f      	b.n	0x38a0
    3d60:	f548 ebff 			; <UNDEFINED> instruction: 0xf548ebff
    3d64:	3096      	adds	r0, #150	; 0x96
    3d66:	e0c2      	b.n	0x3eee
    3d68:	3fc0      	subs	r7, #192	; 0xc0
    3d6a:	e1a0      	b.n	0x40ae
    3d6c:	31c2      	adds	r1, #194	; 0xc2
    3d6e:	e063      	b.n	0x3e38
    3d70:	2083      	movs	r0, #131	; 0x83
    3d72:	e083      	b.n	0x3e7c
    3d74:	3102      	adds	r1, #2
    3d76:	e083      	b.n	0x3e80
    3d78:	1004      	asrs	r4, r0, #32
    3d7a:	e595      	b.n	0x38a8
    3d7c:	3083      	adds	r0, #131	; 0x83
    3d7e:	e040      	b.n	0x3e02
    3d80:	2000      	movs	r0, #0
    3d82:	e595      	b.n	0x38b0
    3d84:	3104      	adds	r1, #4
    3d86:	e781      	b.n	0x3c8c
    3d88:	4001      	ands	r1, r0
    3d8a:	e284      	b.n	0x4296
    3d8c:	0004      	movs	r4, r0
    3d8e:	e152      	b.n	0x4036
    3d90:	fff2 caff 			; <UNDEFINED> instruction: 0xfff2caff
    3d94:	4070      	eors	r0, r6
    3d96:	e8bd ff1e 	ldmia.w	sp!, {r1, r2, r3, r4, r8, r9, sl, fp, ip, sp, lr, pc}
    3d9a:	e12f      	b.n	0x3ffc
    3d9c:	0158      	lsls	r0, r3, #5
    3d9e:	0300      	lsls	r0, r0, #12
    3da0:	00fc      	lsls	r4, r7, #3
    3da2:	0300      	lsls	r0, r0, #12
    3da4:	ec4f 4ec4 	stcl	14, cr4, [pc], {196}	; 0xc4
    3da8:	000c      	movs	r4, r1
    3daa:	e59f      	b.n	0x38ec
    3dac:	301a      	adds	r0, #26
    3dae:	e3a0      	b.n	0x44f2
    3db0:	2000      	movs	r0, #0
    3db2:	e590      	b.n	0x38d6
    3db4:	0003      	movs	r3, r0
    3db6:	e990 fe97 			; <UNDEFINED> instruction: 0xe990fe97
    3dba:	eaff 00fc 			; <UNDEFINED> instruction: 0xeaff00fc
    3dbe:	0300      	lsls	r0, r0, #12
    3dc0:	2034      	movs	r0, #52	; 0x34
    3dc2:	e59f      	b.n	0x3904
    3dc4:	3008      	adds	r0, #8
    3dc6:	e592      	b.n	0x38ee
    3dc8:	1000      	asrs	r0, r0, #32
    3dca:	e592      	b.n	0x38f2
    3dcc:	4010      	ands	r0, r2
    3dce:	e92d 0003 	stmdb	sp!, {r0, r1}
    3dd2:	e1a0      	b.n	0x4116
    3dd4:	1101      	asrs	r1, r0, #4
    3dd6:	e083      	b.n	0x3ee0
    3dd8:	f537 ebff 			; <UNDEFINED> instruction: 0xf537ebff
    3ddc:	301c      	adds	r0, #28
    3dde:	e59f      	b.n	0x3920
    3de0:	3000      	adds	r0, #0
    3de2:	e593      	b.n	0x390c
    3de4:	300c      	adds	r0, #12
    3de6:	e593      	b.n	0x3910
    3de8:	3000      	adds	r0, #0
    3dea:	e043      	b.n	0x3e74
    3dec:	0000      	movs	r0, r0
    3dee:	e273      	b.n	0x42d8
    3df0:	0003      	movs	r3, r0
    3df2:	e0a0      	b.n	0x3f36
    3df4:	4010      	ands	r0, r2
    3df6:	e8bd ff1e 	ldmia.w	sp!, {r1, r2, r3, r4, r8, r9, sl, fp, ip, sp, lr, pc}
    3dfa:	e12f      	b.n	0x405c
    3dfc:	00fc      	lsls	r4, r7, #3
    3dfe:	0300      	lsls	r0, r0, #12
    3e00:	0158      	lsls	r0, r3, #5
    3e02:	0300      	lsls	r0, r0, #12
    3e04:	2001      	movs	r0, #1
    3e06:	e251      	b.n	0x42ac
    3e08:	ff1e 012f 	vrhadd.u16	d0, d14, d31
    3e0c:	0036      	movs	r6, r6
    3e0e:	3a00      	subs	r2, #0
    3e10:	0001      	movs	r1, r0
    3e12:	e150      	b.n	0x40b6
    3e14:	0022      	movs	r2, r4
    3e16:	9a00      	ldr	r2, [sp, #0]
    3e18:	0002      	movs	r2, r0
    3e1a:	e111      	b.n	0x4040
    3e1c:	0023      	movs	r3, r4
    3e1e:	0a00      	lsrs	r0, r0, #8
    3e20:	020e      	lsls	r6, r1, #8
    3e22:	e311      	b.n	0x4448
    3e24:	1181      	asrs	r1, r0, #6
    3e26:	01a0      	lsls	r0, r4, #6
    3e28:	3008      	adds	r0, #8
    3e2a:	03a0      	lsls	r0, r4, #14
    3e2c:	3001      	adds	r0, #1
    3e2e:	13a0      	asrs	r0, r4, #14
    3e30:	0201      	lsls	r1, r0, #8
    3e32:	e351      	b.n	0x44d8
    3e34:	0000      	movs	r0, r0
    3e36:	3151      	adds	r1, #81	; 0x51
    3e38:	1201      	asrs	r1, r0, #8
    3e3a:	31a0      	adds	r1, #160	; 0xa0
    3e3c:	3203      	adds	r2, #3
    3e3e:	31a0      	adds	r1, #160	; 0xa0
    3e40:	fffa 3aff 			; <UNDEFINED> instruction: 0xfffa3aff
    3e44:	0102      	lsls	r2, r0, #4
    3e46:	e351      	b.n	0x44ec
    3e48:	0000      	movs	r0, r0
    3e4a:	3151      	adds	r1, #81	; 0x51
    3e4c:	1081      	asrs	r1, r0, #2
    3e4e:	31a0      	adds	r1, #160	; 0xa0
    3e50:	3083      	adds	r0, #131	; 0x83
    3e52:	31a0      	adds	r1, #160	; 0xa0
    3e54:	fffa 3aff 			; <UNDEFINED> instruction: 0xfffa3aff
    3e58:	2000      	movs	r0, #0
    3e5a:	e3a0      	b.n	0x459e
    3e5c:	0001      	movs	r1, r0
    3e5e:	e150      	b.n	0x4102
    3e60:	0001      	movs	r1, r0
    3e62:	2040      	movs	r0, #64	; 0x40
    3e64:	2003      	movs	r0, #3
    3e66:	2182      	movs	r1, #130	; 0x82
    3e68:	00a1      	lsls	r1, r4, #2
    3e6a:	e150      	b.n	0x410e
    3e6c:	00a1      	lsls	r1, r4, #2
    3e6e:	2040      	movs	r0, #64	; 0x40
    3e70:	20a3      	movs	r0, #163	; 0xa3
    3e72:	2182      	movs	r1, #130	; 0x82
    3e74:	0121      	lsls	r1, r4, #4
    3e76:	e150      	b.n	0x411a
    3e78:	0121      	lsls	r1, r4, #4
    3e7a:	2040      	movs	r0, #64	; 0x40
    3e7c:	2123      	movs	r1, #35	; 0x23
    3e7e:	2182      	movs	r1, #130	; 0x82
    3e80:	01a1      	lsls	r1, r4, #6
    3e82:	e150      	b.n	0x4126
    3e84:	01a1      	lsls	r1, r4, #6
    3e86:	2040      	movs	r0, #64	; 0x40
    3e88:	21a3      	movs	r1, #163	; 0xa3
    3e8a:	2182      	movs	r1, #130	; 0x82
    3e8c:	0000      	movs	r0, r0
    3e8e:	e350      	b.n	0x4532
    3e90:	3223      	adds	r2, #35	; 0x23
    3e92:	11b0      	asrs	r0, r6, #6
    3e94:	1221      	asrs	r1, r4, #8
    3e96:	11a0      	asrs	r0, r4, #6
    3e98:	ffef 1aff 			; <UNDEFINED> instruction: 0xffef1aff
    3e9c:	0002      	movs	r2, r0
    3e9e:	e1a0      	b.n	0x41e2
    3ea0:	ff1e e12f 	vrhadd.u16	d14, d14, d31
    3ea4:	0001      	movs	r1, r0
    3ea6:	03a0      	lsls	r0, r4, #14
    3ea8:	0000      	movs	r0, r0
    3eaa:	13a0      	asrs	r0, r4, #14
    3eac:	ff1e e12f 	vrhadd.u16	d14, d14, d31
    3eb0:	0801      	lsrs	r1, r0, #32
    3eb2:	e351      	b.n	0x4558
    3eb4:	1821      	adds	r1, r4, r0
    3eb6:	21a0      	movs	r1, #160	; 0xa0
    3eb8:	2010      	movs	r0, #16
    3eba:	23a0      	movs	r3, #160	; 0xa0
    3ebc:	2000      	movs	r0, #0
    3ebe:	33a0      	adds	r3, #160	; 0xa0
    3ec0:	0c01      	lsrs	r1, r0, #16
    3ec2:	e351      	b.n	0x4568
    3ec4:	1421      	asrs	r1, r4, #16
    3ec6:	21a0      	movs	r1, #160	; 0xa0
    3ec8:	2008      	movs	r0, #8
    3eca:	2282      	movs	r2, #130	; 0x82
    3ecc:	0010      	movs	r0, r2
    3ece:	e351      	b.n	0x4574
    3ed0:	1221      	asrs	r1, r4, #8
    3ed2:	21a0      	movs	r1, #160	; 0xa0
    3ed4:	2004      	movs	r0, #4
    3ed6:	2282      	movs	r2, #130	; 0x82
    3ed8:	0004      	movs	r4, r0
    3eda:	e351      	b.n	0x4580
    3edc:	2003      	movs	r0, #3
    3ede:	8282      	strh	r2, [r0, #20]
    3ee0:	20a1      	movs	r0, #161	; 0xa1
    3ee2:	9082      	str	r0, [sp, #520]	; 0x208
    3ee4:	0230      	lsls	r0, r6, #8
    3ee6:	e1a0      	b.n	0x422a
    3ee8:	ff1e e12f 	vrhadd.u16	d14, d14, d31
    3eec:	0000      	movs	r0, r0
    3eee:	e350      	b.n	0x4592
    3ef0:	0000      	movs	r0, r0
    3ef2:	13e0      	asrs	r0, r4, #15
    3ef4:	0059      	lsls	r1, r3, #1
    3ef6:	ea00 0000 	and.w	r0, r0, r0
    3efa:	e351      	b.n	0x45a0
    3efc:	fffa 0aff 			; <UNDEFINED> instruction: 0xfffa0aff
    3f00:	4003      	ands	r3, r0
    3f02:	e92d ffbe 	stmdb	sp!, {r1, r2, r3, r4, r5, r7, r8, r9, sl, fp, ip, sp, lr, pc}
    3f06:	ebff 4006 			; <UNDEFINED> instruction: 0xebff4006
    3f0a:	e8bd 0092 	ldmia.w	sp!, {r1, r4, r7}
    3f0e:	e003      	b.n	0x3f18
    3f10:	1003      	asrs	r3, r0, #32
    3f12:	e041      	b.n	0x3f98
    3f14:	ff1e e12f 	vrhadd.u16	d14, d14, d31
    3f18:	0000      	movs	r0, r0
    3f1a:	e351      	b.n	0x45c0
    3f1c:	0043      	lsls	r3, r0, #1
    3f1e:	0a00      	lsrs	r0, r0, #8
    3f20:	c001      	stmia	r0!, {r0}
    3f22:	e020      	b.n	0x3f66
    3f24:	1000      	asrs	r0, r0, #32
    3f26:	4261      	negs	r1, r4
    3f28:	2001      	movs	r0, #1
    3f2a:	e251      	b.n	0x43d0
    3f2c:	0027      	movs	r7, r4
    3f2e:	0a00      	lsrs	r0, r0, #8
    3f30:	3000      	adds	r0, #0
    3f32:	e1b0      	b.n	0x4296
    3f34:	3000      	adds	r0, #0
    3f36:	4260      	negs	r0, r4
    3f38:	0001      	movs	r1, r0
    3f3a:	e153      	b.n	0x41e4
    3f3c:	0026      	movs	r6, r4
    3f3e:	9a00      	ldr	r2, [sp, #0]
    3f40:	0002      	movs	r2, r0
    3f42:	e111      	b.n	0x4168
    3f44:	0028      	movs	r0, r5
    3f46:	0a00      	lsrs	r0, r0, #8
    3f48:	020e      	lsls	r6, r1, #8
    3f4a:	e311      	b.n	0x4570
    3f4c:	1181      	asrs	r1, r0, #6
    3f4e:	01a0      	lsls	r0, r4, #6
    3f50:	2008      	movs	r0, #8
    3f52:	03a0      	lsls	r0, r4, #14
    3f54:	2001      	movs	r0, #1
    3f56:	13a0      	asrs	r0, r4, #14
    3f58:	0201      	lsls	r1, r0, #8
    3f5a:	e351      	b.n	0x4600
    3f5c:	0003      	movs	r3, r0
    3f5e:	3151      	adds	r1, #81	; 0x51
    3f60:	1201      	asrs	r1, r0, #8
    3f62:	31a0      	adds	r1, #160	; 0xa0
    3f64:	2202      	movs	r2, #2
    3f66:	31a0      	adds	r1, #160	; 0xa0
    3f68:	fffa 3aff 			; <UNDEFINED> instruction: 0xfffa3aff
    3f6c:	0102      	lsls	r2, r0, #4
    3f6e:	e351      	b.n	0x4614
    3f70:	0003      	movs	r3, r0
    3f72:	3151      	adds	r1, #81	; 0x51
    3f74:	1081      	asrs	r1, r0, #2
    3f76:	31a0      	adds	r1, #160	; 0xa0
    3f78:	2082      	movs	r0, #130	; 0x82
    3f7a:	31a0      	adds	r1, #160	; 0xa0
    3f7c:	fffa 3aff 			; <UNDEFINED> instruction: 0xfffa3aff
    3f80:	0000      	movs	r0, r0
    3f82:	e3a0      	b.n	0x46c6
    3f84:	0001      	movs	r1, r0
    3f86:	e153      	b.n	0x4230
    3f88:	3001      	adds	r0, #1
    3f8a:	2043      	movs	r0, #67	; 0x43
    3f8c:	0002      	movs	r2, r0
    3f8e:	2180      	movs	r1, #128	; 0x80
    3f90:	00a1      	lsls	r1, r4, #2
    3f92:	e153      	b.n	0x423c
    3f94:	30a1      	adds	r0, #161	; 0xa1
    3f96:	2043      	movs	r0, #67	; 0x43
    3f98:	00a2      	lsls	r2, r4, #2
    3f9a:	2180      	movs	r1, #128	; 0x80
    3f9c:	0121      	lsls	r1, r4, #4
    3f9e:	e153      	b.n	0x4248
    3fa0:	3121      	adds	r1, #33	; 0x21
    3fa2:	2043      	movs	r0, #67	; 0x43
    3fa4:	0122      	lsls	r2, r4, #4
    3fa6:	2180      	movs	r1, #128	; 0x80
    3fa8:	01a1      	lsls	r1, r4, #6
    3faa:	e153      	b.n	0x4254
    3fac:	31a1      	adds	r1, #161	; 0xa1
    3fae:	2043      	movs	r0, #67	; 0x43
    3fb0:	01a2      	lsls	r2, r4, #6
    3fb2:	2180      	movs	r1, #128	; 0x80
    3fb4:	0000      	movs	r0, r0
    3fb6:	e353      	b.n	0x4660
    3fb8:	2222      	movs	r2, #34	; 0x22
    3fba:	11b0      	asrs	r0, r6, #6
    3fbc:	1221      	asrs	r1, r4, #8
    3fbe:	11a0      	asrs	r0, r4, #6
    3fc0:	ffef 1aff 			; <UNDEFINED> instruction: 0xffef1aff
    3fc4:	0000      	movs	r0, r0
    3fc6:	e35c      	b.n	0x4682
    3fc8:	0000      	movs	r0, r0
    3fca:	4260      	negs	r0, r4
    3fcc:	ff1e e12f 	vrhadd.u16	d14, d14, d31
    3fd0:	0000      	movs	r0, r0
    3fd2:	e13c      	b.n	0x424e
    3fd4:	0000      	movs	r0, r0
    3fd6:	4260      	negs	r0, r4
    3fd8:	ff1e e12f 	vrhadd.u16	d14, d14, d31
    3fdc:	0000      	movs	r0, r0
    3fde:	33a0      	adds	r3, #160	; 0xa0
    3fe0:	0fcc      	lsrs	r4, r1, #31
    3fe2:	01a0      	lsls	r0, r4, #6
    3fe4:	0001      	movs	r1, r0
    3fe6:	0380      	lsls	r0, r0, #14
    3fe8:	ff1e e12f 	vrhadd.u16	d14, d14, d31
    3fec:	0801      	lsrs	r1, r0, #32
    3fee:	e351      	b.n	0x4694
    3ff0:	1821      	adds	r1, r4, r0
    3ff2:	21a0      	movs	r1, #160	; 0xa0
    3ff4:	2010      	movs	r0, #16
    3ff6:	23a0      	movs	r3, #160	; 0xa0
    3ff8:	2000      	movs	r0, #0
    3ffa:	33a0      	adds	r3, #160	; 0xa0
    3ffc:	0c01      	lsrs	r1, r0, #16
    3ffe:	e351      	b.n	0x46a4
    4000:	1421      	asrs	r1, r4, #16
    4002:	21a0      	movs	r1, #160	; 0xa0
    4004:	2008      	movs	r0, #8
    4006:	2282      	movs	r2, #130	; 0x82
    4008:	0010      	movs	r0, r2
    400a:	e351      	b.n	0x46b0
    400c:	1221      	asrs	r1, r4, #8
    400e:	21a0      	movs	r1, #160	; 0xa0
    4010:	2004      	movs	r0, #4
    4012:	2282      	movs	r2, #130	; 0x82
    4014:	0004      	movs	r4, r0
    4016:	e351      	b.n	0x46bc
    4018:	2003      	movs	r0, #3
    401a:	8282      	strh	r2, [r0, #20]
    401c:	20a1      	movs	r0, #161	; 0xa1
    401e:	9082      	str	r0, [sp, #520]	; 0x208
    4020:	0000      	movs	r0, r0
    4022:	e35c      	b.n	0x46de
    4024:	0233      	lsls	r3, r6, #8
    4026:	e1a0      	b.n	0x436a
    4028:	0000      	movs	r0, r0
    402a:	4260      	negs	r0, r4
    402c:	ff1e e12f 	vrhadd.u16	d14, d14, d31
    4030:	0000      	movs	r0, r0
    4032:	e350      	b.n	0x46d6
    4034:	0102      	lsls	r2, r0, #4
    4036:	c3e0      	stmia	r3!, {r5, r6, r7}
    4038:	0102      	lsls	r2, r0, #4
    403a:	b3a0      	cbz	r0, 0x40a6
    403c:	0007      	movs	r7, r0
    403e:	ea00 0000 	and.w	r0, r0, r0
    4042:	e351      	b.n	0x46e8
    4044:	fff9 0aff 			; <UNDEFINED> instruction: 0xfff90aff
    4048:	4003      	ands	r3, r0
    404a:	e92d ffb3 	stmdb	sp!, {r0, r1, r4, r5, r7, r8, r9, sl, fp, ip, sp, lr, pc}
    404e:	ebff 4006 			; <UNDEFINED> instruction: 0xebff4006
    4052:	e8bd 0092 	ldmia.w	sp!, {r1, r4, r7}
    4056:	e003      	b.n	0x4060
    4058:	1003      	asrs	r3, r0, #32
    405a:	e041      	b.n	0x40e0
    405c:	ff1e e12f 	vrhadd.u16	d14, d14, d31
    4060:	ff1e e12f 	vrhadd.u16	d14, d14, d31
    4064:	0000      	movs	r0, r0
    4066:	e353      	b.n	0x4710
    4068:	0000      	movs	r0, r0
    406a:	0352      	lsls	r2, r2, #13
    406c:	0004      	movs	r4, r0
    406e:	1a00      	subs	r0, r0, r0
    4070:	0000      	movs	r0, r0
    4072:	e351      	b.n	0x4718
    4074:	0000      	movs	r0, r0
    4076:	0350      	lsls	r0, r2, #13
    4078:	1000      	asrs	r0, r0, #32
    407a:	13e0      	asrs	r0, r4, #15
    407c:	0000      	movs	r0, r0
    407e:	13e0      	asrs	r0, r4, #15
    4080:	fff6 eaff 			; <UNDEFINED> instruction: 0xfff6eaff
    4084:	d008      	beq.n	0x4098
    4086:	e24d      	b.n	0x4524
    4088:	6000      	str	r0, [r0, #0]
    408a:	e92d 02d0 	stmdb	sp!, {r4, r6, r7, r9}
    408e:	eb00 e004 			; <UNDEFINED> instruction: 0xeb00e004
    4092:	e59d      	b.n	0x3bd0
    4094:	d008      	beq.n	0x40a8
    4096:	e28d      	b.n	0x45b4
    4098:	000c      	movs	r4, r1
    409a:	e8bd ff1e 	ldmia.w	sp!, {r1, r2, r3, r4, r8, r9, sl, fp, ip, sp, lr, pc}
    409e:	e12f      	b.n	0x4300
    40a0:	1034      	asrs	r4, r6, #32
    40a2:	e280      	b.n	0x45a6
    40a4:	0038      	movs	r0, r7
    40a6:	e891 2005 	ldmia.w	r1, {r0, r2, sp}
    40aa:	e1a0      	b.n	0x43ee
    40ac:	001c      	movs	r4, r3
    40ae:	e92d 0fff 	stmdb	sp!, {r0, r1, r2, r3, r4, r5, r6, r7, r8, r9, sl, fp}
    40b2:	e890 7000 	ldmia.w	r0, {ip, sp, lr}
    40b6:	e89d ff1c 	ldmia.w	sp, {r2, r3, r4, r8, r9, sl, fp, ip, sp, lr, pc}
    40ba:	e12f      	b.n	0x431c
    40bc:	0b21      	lsrs	r1, r4, #12
    40be:	ec90 ff1e 	ldc	15, cr15, [r0], {30}
    40c2:	e12f      	b.n	0x4324
    40c4:	0b21      	lsrs	r1, r4, #12
    40c6:	ec80 ff1e 	stc	15, cr15, [r0], {30}
    40ca:	e12f      	b.n	0x432c
    40cc:	0b20      	lsrs	r0, r4, #12
    40ce:	ec90 ff1e 	ldc	15, cr15, [r0], {30}
    40d2:	e12f      	b.n	0x4334
    40d4:	0b20      	lsrs	r0, r4, #12
    40d6:	ec80 ff1e 	stc	15, cr15, [r0], {30}
    40da:	e12f      	b.n	0x433c
    40dc:	0b20      	lsrs	r0, r4, #12
    40de:	ecd0 ff1e 	ldcl	15, cr15, [r0], {30}
    40e2:	e12f      	b.n	0x4344
    40e4:	0b20      	lsrs	r0, r4, #12
    40e6:	ecc0 ff1e 	stcl	15, cr15, [r0], {30}
    40ea:	e12f      	b.n	0x434c
    40ec:	0102      	lsls	r2, r0, #4
    40ee:	ecf0 1102 	ldfe	f1, [r0], #8
    40f2:	ecf0 2102 	ldfe	f2, [r0], #8
    40f6:	ecf0 3102 	ldfe	f3, [r0], #8
    40fa:	ecf0 4102 	ldfe	f4, [r0], #8
    40fe:	ecf0 5102 	ldfe	f5, [r0], #8
    4102:	ecf0 6102 	ldfe	f6, [r0], #8
    4106:	ecf0 7102 	ldfe	f7, [r0], #8
    410a:	ecf0 8102 	ldfp	f0, [r0], #8
    410e:	ecf0 9102 	ldfp	f1, [r0], #8
    4112:	ecf0 a102 	ldfp	f2, [r0], #8
    4116:	ecf0 b102 	ldfp	f3, [r0], #8
    411a:	ecf0 c102 	ldfp	f4, [r0], #8
    411e:	ecf0 d102 	ldfp	f5, [r0], #8
    4122:	ecf0 e102 	ldfp	f6, [r0], #8
    4126:	ecf0 f102 	ldfp	f7, [r0], #8
    412a:	ecf0 ff1e 	ldcl	15, cr15, [r0], #120	; 0x78
    412e:	e12f      	b.n	0x4390
    4130:	0102      	lsls	r2, r0, #4
    4132:	ece0 1102 	stfe	f1, [r0], #8
    4136:	ece0 2102 	stfe	f2, [r0], #8
    413a:	ece0 3102 	stfe	f3, [r0], #8
    413e:	ece0 4102 	stfe	f4, [r0], #8
    4142:	ece0 5102 	stfe	f5, [r0], #8
    4146:	ece0 6102 	stfe	f6, [r0], #8
    414a:	ece0 7102 	stfe	f7, [r0], #8
    414e:	ece0 8102 	stfp	f0, [r0], #8
    4152:	ece0 9102 	stfp	f1, [r0], #8
    4156:	ece0 a102 	stfp	f2, [r0], #8
    415a:	ece0 b102 	stfp	f3, [r0], #8
    415e:	ece0 c102 	stfp	f4, [r0], #8
    4162:	ece0 d102 	stfp	f5, [r0], #8
    4166:	ece0 e102 	stfp	f6, [r0], #8
    416a:	ece0 f102 	stfp	f7, [r0], #8
    416e:	ece0 ff1e 	stcl	15, cr15, [r0], #120	; 0x78
    4172:	e12f      	b.n	0x43d4
    4174:	8101      	strh	r1, [r0, #8]
    4176:	fcb0 9101 			; <UNDEFINED> instruction: 0xfcb09101
    417a:	fcb0 a101 			; <UNDEFINED> instruction: 0xfcb0a101
    417e:	fcb0 b101 			; <UNDEFINED> instruction: 0xfcb0b101
    4182:	fcb0 ff1e 			; <UNDEFINED> instruction: 0xfcb0ff1e
    4186:	e12f      	b.n	0x43e8
    4188:	8101      	strh	r1, [r0, #8]
    418a:	fca0 9101 			; <UNDEFINED> instruction: 0xfca09101
    418e:	fca0 a101 			; <UNDEFINED> instruction: 0xfca0a101
    4192:	fca0 b101 			; <UNDEFINED> instruction: 0xfca0b101
    4196:	fca0 ff1e 			; <UNDEFINED> instruction: 0xfca0ff1e
    419a:	e12f      	b.n	0x43fc
    419c:	e000      	b.n	0x41a0
    419e:	e92d 1fff 	stmdb	sp!, {r0, r1, r2, r3, r4, r5, r6, r7, r8, r9, sl, fp, ip}
    41a2:	e92d 3000 	stmdb	sp!, {ip, sp}
    41a6:	e3a0      	b.n	0x48ea
    41a8:	000c      	movs	r4, r1
    41aa:	e92d 1004 	stmdb	sp!, {r2, ip}
    41ae:	e28d      	b.n	0x46cc
    41b0:	03f4      	lsls	r4, r6, #15
    41b2:	eb00 e040 			; <UNDEFINED> instruction: 0xeb00e040
    41b6:	e59d      	b.n	0x3cf4
    41b8:	d048      	beq.n	0x424c
    41ba:	e28d      	b.n	0x46d8
    41bc:	ff1e e12f 	vrhadd.u16	d14, d14, d31
    41c0:	e000      	b.n	0x41c4
    41c2:	e92d 1fff 	stmdb	sp!, {r0, r1, r2, r3, r4, r5, r6, r7, r8, r9, sl, fp, ip}
    41c6:	e92d 3000 	stmdb	sp!, {ip, sp}
    41ca:	e3a0      	b.n	0x490e
    41cc:	000c      	movs	r4, r1
    41ce:	e92d 1004 	stmdb	sp!, {r2, ip}
    41d2:	e28d      	b.n	0x46f0
    41d4:	041f      	lsls	r7, r3, #16
    41d6:	eb00 e040 			; <UNDEFINED> instruction: 0xeb00e040
    41da:	e59d      	b.n	0x3d18
    41dc:	d048      	beq.n	0x4270
    41de:	e28d      	b.n	0x46fc
    41e0:	ff1e e12f 	vrhadd.u16	d14, d14, d31
    41e4:	e000      	b.n	0x41e8
    41e6:	e92d 1fff 	stmdb	sp!, {r0, r1, r2, r3, r4, r5, r6, r7, r8, r9, sl, fp, ip}
    41ea:	e92d 3000 	stmdb	sp!, {ip, sp}
    41ee:	e3a0      	b.n	0x4932
    41f0:	000c      	movs	r4, r1
    41f2:	e92d 1004 	stmdb	sp!, {r2, ip}
    41f6:	e28d      	b.n	0x4714
    41f8:	0434      	lsls	r4, r6, #16
    41fa:	eb00 e040 			; <UNDEFINED> instruction: 0xeb00e040
    41fe:	e59d      	b.n	0x3d3c
    4200:	d048      	beq.n	0x4294
    4202:	e28d      	b.n	0x4720
    4204:	ff1e e12f 	vrhadd.u16	d14, d14, d31
    4208:	e000      	b.n	0x420c
    420a:	e92d 1fff 	stmdb	sp!, {r0, r1, r2, r3, r4, r5, r6, r7, r8, r9, sl, fp, ip}
    420e:	e92d 3000 	stmdb	sp!, {ip, sp}
    4212:	e3a0      	b.n	0x4956
    4214:	000c      	movs	r4, r1
    4216:	e92d 3004 	stmdb	sp!, {r2, ip, sp}
    421a:	e28d      	b.n	0x4738
    421c:	0404      	lsls	r4, r0, #16
    421e:	eb00 e040 			; <UNDEFINED> instruction: 0xeb00e040
    4222:	e59d      	b.n	0x3d60
    4224:	d048      	beq.n	0x42b8
    4226:	e28d      	b.n	0x4744
    4228:	ff1e e12f 	vrhadd.u16	d14, d14, d31
    422c:	e000      	b.n	0x4230
    422e:	e92d 1fff 	stmdb	sp!, {r0, r1, r2, r3, r4, r5, r6, r7, r8, r9, sl, fp, ip}
    4232:	e92d 3000 	stmdb	sp!, {ip, sp}
    4236:	e3a0      	b.n	0x497a
    4238:	000c      	movs	r4, r1
    423a:	e92d 2004 	stmdb	sp!, {r2, sp}
    423e:	e28d      	b.n	0x475c
    4240:	0475      	lsls	r5, r6, #17
    4242:	eb00 e040 			; <UNDEFINED> instruction: 0xeb00e040
    4246:	e59d      	b.n	0x3d84
    4248:	d048      	beq.n	0x42dc
    424a:	e28d      	b.n	0x4768
    424c:	ff1e e12f 	vrhadd.u16	d14, d14, d31
    4250:	4010      	ands	r0, r2
    4252:	e92d 0000 	stmdb	sp!, {}
    4256:	e351      	b.n	0x48fc
    4258:	0002      	movs	r2, r0
    425a:	1a00      	subs	r0, r0, r0
    425c:	0005      	movs	r5, r0
    425e:	eb00 0020 	add.w	r0, r0, r0, asr #32
    4262:	e280      	b.n	0x4766
    4264:	0001      	movs	r1, r0
    4266:	ea00 0001 	and.w	r0, r0, r1
    426a:	e1a0      	b.n	0x45ae
    426c:	0001      	movs	r1, r0
    426e:	eb00 4010 	add.w	r0, r0, r0, lsr #16
    4272:	e8bd ff1e 	ldmia.w	sp!, {r1, r2, r3, r4, r8, r9, sl, fp, ip, sp, lr, pc}
    4276:	e12f      	b.n	0x44d8
    4278:	101c      	asrs	r4, r3, #32
    427a:	e3a0      	b.n	0x49be
    427c:	0801      	lsrs	r1, r0, #32
    427e:	e350      	b.n	0x4922
    4280:	0820      	lsrs	r0, r4, #32
    4282:	21a0      	movs	r1, #160	; 0xa0
    4284:	1010      	asrs	r0, r2, #32
    4286:	2241      	movs	r2, #65	; 0x41
    4288:	0c01      	lsrs	r1, r0, #16
    428a:	e350      	b.n	0x492e
    428c:	0420      	lsls	r0, r4, #16
    428e:	21a0      	movs	r1, #160	; 0xa0
    4290:	1008      	asrs	r0, r1, #32
    4292:	2241      	movs	r2, #65	; 0x41
    4294:	0010      	movs	r0, r2
    4296:	e350      	b.n	0x493a
    4298:	0220      	lsls	r0, r4, #8
    429a:	21a0      	movs	r1, #160	; 0xa0
    429c:	1004      	asrs	r4, r0, #32
    429e:	2241      	movs	r2, #65	; 0x41
    42a0:	2008      	movs	r0, #8
    42a2:	e28f      	b.n	0x47c4
    42a4:	0000      	movs	r0, r0
    42a6:	e7d2      	b.n	0x424e
    42a8:	0001      	movs	r1, r0
    42aa:	e080      	b.n	0x43ae
    42ac:	ff1e e12f 	vrhadd.u16	d14, d14, d31
    42b0:	0304      	lsls	r4, r0, #12
    42b2:	0202      	lsls	r2, r0, #8
    42b4:	0101      	lsls	r1, r0, #4
    42b6:	0101      	lsls	r1, r0, #4
	...
    42c0:	0018      	movs	r0, r3
    42c2:	e59f      	b.n	0x3e04
    42c4:	3018      	adds	r0, #24
    42c6:	e59f      	b.n	0x3e08
    42c8:	0000      	movs	r0, r0
    42ca:	e153      	b.n	0x4574
    42cc:	ff1e 012f 	vrhadd.u16	d0, d14, d31
    42d0:	3010      	adds	r0, #16
    42d2:	e59f      	b.n	0x3e14
    42d4:	0000      	movs	r0, r0
    42d6:	e353      	b.n	0x4980
    42d8:	ff1e 012f 	vrhadd.u16	d0, d14, d31
    42dc:	ff13 e12f 	vrhadd.u16	d14, d3, d31
    42e0:	0858      	lsrs	r0, r3, #1
    42e2:	0300      	lsls	r0, r0, #12
    42e4:	0858      	lsrs	r0, r3, #1
    42e6:	0300      	lsls	r0, r0, #12
    42e8:	0000      	movs	r0, r0
    42ea:	0000      	movs	r0, r0
    42ec:	0024      	movs	r4, r4
    42ee:	e59f      	b.n	0x3e30
    42f0:	1024      	asrs	r4, r4, #32
    42f2:	e59f      	b.n	0x3e34
    42f4:	1000      	asrs	r0, r0, #32
    42f6:	e041      	b.n	0x437c
    42f8:	1141      	asrs	r1, r0, #5
    42fa:	e1a0      	b.n	0x463e
    42fc:	1fa1      	subs	r1, r4, #6
    42fe:	e081      	b.n	0x4404
    4300:	10c1      	asrs	r1, r0, #3
    4302:	e1b0      	b.n	0x4666
    4304:	ff1e 012f 	vrhadd.u16	d0, d14, d31
    4308:	3010      	adds	r0, #16
    430a:	e59f      	b.n	0x3e4c
    430c:	0000      	movs	r0, r0
    430e:	e353      	b.n	0x49b8
    4310:	ff1e 012f 	vrhadd.u16	d0, d14, d31
    4314:	ff13 e12f 	vrhadd.u16	d14, d3, d31
    4318:	0858      	lsrs	r0, r3, #1
    431a:	0300      	lsls	r0, r0, #12
    431c:	0858      	lsrs	r0, r3, #1
    431e:	0300      	lsls	r0, r0, #12
    4320:	0000      	movs	r0, r0
    4322:	0000      	movs	r0, r0
    4324:	4010      	ands	r0, r2
    4326:	e92d 402c 	stmdb	sp!, {r2, r3, r5, lr}
    432a:	e59f      	b.n	0x3e6c
    432c:	3000      	adds	r0, #0
    432e:	e5d4      	b.n	0x3eda
    4330:	0000      	movs	r0, r0
    4332:	e353      	b.n	0x49dc
    4334:	0006      	movs	r6, r0
    4336:	1a00      	subs	r0, r0, r0
    4338:	ffe0 ebff 			; <UNDEFINED> instruction: 0xffe0ebff
    433c:	301c      	adds	r0, #28
    433e:	e59f      	b.n	0x3e80
    4340:	0000      	movs	r0, r0
    4342:	e353      	b.n	0x49ec
    4344:	0018      	movs	r0, r3
    4346:	159f      	asrs	r7, r3, #22
    4348:	0000      	movs	r0, r0
    434a:	11a0      	asrs	r0, r4, #6
    434c:	3001      	adds	r0, #1
    434e:	e3a0      	b.n	0x4a92
    4350:	3000      	adds	r0, #0
    4352:	e5c4      	b.n	0x3ede
    4354:	4010      	ands	r0, r2
    4356:	e8bd ff1e 	ldmia.w	sp!, {r1, r2, r3, r4, r8, r9, sl, fp, ip, sp, lr, pc}
    435a:	e12f      	b.n	0x45bc
    435c:	0000      	movs	r0, r0
    435e:	0300      	lsls	r0, r0, #12
    4360:	0000      	movs	r0, r0
    4362:	0000      	movs	r0, r0
    4364:	6a48      	ldr	r0, [r1, #36]	; 0x24
    4366:	0800      	lsrs	r0, r0, #32
    4368:	3020      	adds	r0, #32
    436a:	e59f      	b.n	0x3eac
    436c:	0000      	movs	r0, r0
    436e:	e353      	b.n	0x4a18
    4370:	0005      	movs	r5, r0
    4372:	0a00      	lsrs	r0, r0, #8
    4374:	4010      	ands	r0, r2
    4376:	e92d 1014 	stmdb	sp!, {r2, r4, ip}
    437a:	e59f      	b.n	0x3ebc
    437c:	0014      	movs	r4, r2
    437e:	e59f      	b.n	0x3ec0
    4380:	0000      	movs	r0, r0
    4382:	e1a0      	b.n	0x46c6
    4384:	4010      	ands	r0, r2
    4386:	e8bd ffd7 	ldmia.w	sp!, {r0, r1, r2, r4, r6, r7, r8, r9, sl, fp, ip, sp, lr, pc}
    438a:	eaff ffd6 			; <UNDEFINED> instruction: 0xeaffffd6
    438e:	eaff 0000 			; <UNDEFINED> instruction: 0xeaff0000
    4392:	0000      	movs	r0, r0
    4394:	0004      	movs	r4, r0
    4396:	0300      	lsls	r0, r0, #12
    4398:	6a48      	ldr	r0, [r1, #36]	; 0x24
    439a:	0800      	lsrs	r0, r0, #32
    439c:	2000      	movs	r0, #0
    439e:	e3a0      	b.n	0x4ae2
    43a0:	4ff0      	ldr	r7, [pc, #960]	; (0x4764)
    43a2:	e92d 1001 	stmdb	sp!, {r0, ip}
    43a6:	e3a0      	b.n	0x4aea
    43a8:	d044      	beq.n	0x4434
    43aa:	e24d      	b.n	0x4848
    43ac:	3002      	adds	r0, #2
    43ae:	e1a0      	b.n	0x46f2
    43b0:	2003      	movs	r0, #3
    43b2:	e5c0      	b.n	0x3f36
    43b4:	5000      	str	r0, [r0, r0]
    43b6:	e1a0      	b.n	0x46fa
    43b8:	200d      	movs	r0, #13
    43ba:	e1a0      	b.n	0x46fe
    43bc:	1000      	asrs	r0, r0, #32
    43be:	e5c0      	b.n	0x3f42
    43c0:	3004      	adds	r0, #4
    43c2:	e482      	b.n	0x3cca
    43c4:	3001      	adds	r0, #1
    43c6:	e283      	b.n	0x48d0
    43c8:	0010      	movs	r0, r2
    43ca:	e353      	b.n	0x4a74
    43cc:	fffb 1aff 			; <UNDEFINED> instruction: 0xfffb1aff
    43d0:	8004      	strh	r4, [r0, #0]
    43d2:	e3a0      	b.n	0x4b16
    43d4:	6000      	str	r0, [r0, #0]
    43d6:	e3a0      	b.n	0x4b1a
    43d8:	903c      	str	r0, [sp, #240]	; 0xf0
    43da:	e28d      	b.n	0x48f8
    43dc:	b009      	add	sp, #36	; 0x24
    43de:	e1a0      	b.n	0x4722
    43e0:	4000      	ands	r0, r0
    43e2:	e3a0      	b.n	0x4b26
    43e4:	a005      	add	r0, pc, #20	; (adr r0, 0x43fc)
    43e6:	e088      	b.n	0x44fa
    43e8:	7014      	strb	r4, [r2, #0]
    43ea:	e268      	b.n	0x48be
    43ec:	f3a5 ebff 			; <UNDEFINED> instruction: 0xf3a5ebff
    43f0:	1004      	asrs	r4, r0, #32
    43f2:	e047      	b.n	0x4484
    43f4:	ff11 ebff 	vqrdmlah.s16	q7, <illegal reg q8.5>, <illegal reg q15.5>
    43f8:	3040      	adds	r0, #64	; 0x40
    43fa:	e28d      	b.n	0x4918
    43fc:	1101      	asrs	r1, r0, #4
    43fe:	e1a0      	b.n	0x4742
    4400:	3001      	adds	r0, #1
    4402:	e083      	b.n	0x450c
    4404:	2040      	movs	r0, #64	; 0x40
    4406:	e513      	b.n	0x3e30
    4408:	0000      	movs	r0, r0
    440a:	e352      	b.n	0x4ab2
    440c:	2001      	movs	r0, #1
    440e:	e4ca      	b.n	0x3da6
    4410:	6001      	str	r1, [r0, #0]
    4412:	05c5      	lsls	r5, r0, #23
    4414:	4002      	ands	r2, r0
    4416:	05c5      	lsls	r5, r0, #23
    4418:	0010      	movs	r0, r2
    441a:	0a00      	lsrs	r0, r0, #8
    441c:	3001      	adds	r0, #1
    441e:	e252      	b.n	0x48c6
    4420:	2002      	movs	r0, #2
    4422:	4282      	cmp	r2, r0
    4424:	2003      	movs	r0, #3
    4426:	51a0      	str	r0, [r4, r6]
    4428:	2142      	movs	r1, #66	; 0x42
    442a:	e066      	b.n	0x44fa
    442c:	0000      	movs	r0, r0
    442e:	e352      	b.n	0x4ad6
    4430:	2000      	movs	r0, #0
    4432:	b262      	sxtb	r2, r4
    4434:	0000      	movs	r0, r0
    4436:	e273      	b.n	0x4920
    4438:	0003      	movs	r3, r0
    443a:	e200      	b.n	0x483e
    443c:	3003      	adds	r0, #3
    443e:	e203      	b.n	0x4848
    4440:	3000      	adds	r0, #0
    4442:	5260      	strh	r0, [r4, r1]
    4444:	3004      	adds	r0, #4
    4446:	e043      	b.n	0x44d0
    4448:	0000      	movs	r0, r0
    444a:	e353      	b.n	0x4af4
    444c:	0003      	movs	r3, r0
    444e:	e5d5      	b.n	0x3ffc
    4450:	3000      	adds	r0, #0
    4452:	b263      	sxtb	r3, r4
    4454:	3003      	adds	r0, #3
    4456:	e082      	b.n	0x455e
    4458:	3000      	adds	r0, #0
    445a:	e083      	b.n	0x4564
    445c:	3003      	adds	r0, #3
    445e:	e5c5      	b.n	0x3fec
    4460:	4001      	ands	r1, r0
    4462:	e284      	b.n	0x496e
    4464:	3004      	adds	r0, #4
    4466:	e41b      	b.n	0x3ca0
    4468:	2040      	movs	r0, #64	; 0x40
    446a:	e28d      	b.n	0x4988
    446c:	1001      	asrs	r1, r0, #32
    446e:	e082      	b.n	0x4576
    4470:	0004      	movs	r4, r0
    4472:	e354      	b.n	0x4b1e
    4474:	3040      	adds	r0, #64	; 0x40
    4476:	e501      	b.n	0x3e7c
    4478:	ffdb 1aff 			; <UNDEFINED> instruction: 0xffdb1aff
    447c:	6001      	str	r1, [r0, #0]
    447e:	e286      	b.n	0x498e
    4480:	0004      	movs	r4, r0
    4482:	e356      	b.n	0x4b32
    4484:	8004      	strh	r4, [r0, #0]
    4486:	e288      	b.n	0x499a
    4488:	9010      	str	r0, [sp, #64]	; 0x40
    448a:	e249      	b.n	0x4920
    448c:	ffd2 1aff 			; <UNDEFINED> instruction: 0xffd21aff
    4490:	2000      	movs	r0, #0
    4492:	e3a0      	b.n	0x4bd6
    4494:	3002      	adds	r0, #2
    4496:	e1a0      	b.n	0x47da
    4498:	2014      	movs	r0, #20
    449a:	e585      	b.n	0x3fa8
    449c:	c008      	stmia	r0!, {r3}
    449e:	e285      	b.n	0x49ac
    44a0:	e018      	b.n	0x44d4
    44a2:	e285      	b.n	0x49b0
    44a4:	1004      	asrs	r4, r0, #32
    44a6:	e24c      	b.n	0x4942
    44a8:	2183      	movs	r1, #131	; 0x83
    44aa:	e063      	b.n	0x4574
    44ac:	2102      	movs	r1, #2
    44ae:	e083      	b.n	0x45b8
    44b0:	00d1      	lsls	r1, r2, #3
    44b2:	e0d1      	b.n	0x4658
    44b4:	2202      	movs	r2, #2
    44b6:	e082      	b.n	0x45be
    44b8:	3102      	adds	r1, #2
    44ba:	e083      	b.n	0x45c4
    44bc:	000c      	movs	r4, r1
    44be:	e151      	b.n	0x4764
    44c0:	3000      	adds	r0, #0
    44c2:	e083      	b.n	0x45cc
    44c4:	fff7 1aff 			; <UNDEFINED> instruction: 0xfff71aff
    44c8:	c004      	stmia	r0!, {r2}
    44ca:	e281      	b.n	0x49d0
    44cc:	000e      	movs	r6, r1
    44ce:	e15c      	b.n	0x478a
    44d0:	fff3 1aff 			; <UNDEFINED> instruction: 0xfff31aff
    44d4:	0005      	movs	r5, r0
    44d6:	e1a0      	b.n	0x481a
    44d8:	3014      	adds	r0, #20
    44da:	e585      	b.n	0x3fe8
    44dc:	d044      	beq.n	0x4568
    44de:	e28d      	b.n	0x49fc
    44e0:	4ff0      	ldr	r7, [pc, #960]	; (0x48a4)
    44e2:	e8bd ff1e 	ldmia.w	sp!, {r1, r2, r3, r4, r8, r9, sl, fp, ip, sp, lr, pc}
    44e6:	e12f      	b.n	0x4748
    44e8:	41f0      	rors	r0, r6
    44ea:	e92d e000 	stmdb	sp!, {sp, lr, pc}
    44ee:	e3a0      	b.n	0x4c32
    44f0:	4001      	ands	r1, r0
    44f2:	e3a0      	b.n	0x4c36
    44f4:	d010      	beq.n	0x4518
    44f6:	e24d      	b.n	0x4994
    44f8:	c00e      	stmia	r0!, {r1, r2, r3}
    44fa:	e1a0      	b.n	0x483e
    44fc:	300d      	adds	r0, #13
    44fe:	e1a0      	b.n	0x4842
    4500:	4000      	ands	r0, r0
    4502:	e5c0      	b.n	0x4086
    4504:	e003      	b.n	0x450e
    4506:	e5c0      	b.n	0x408a
    4508:	2010      	movs	r0, #16
    450a:	e28d      	b.n	0x4a28
    450c:	c001      	stmia	r0!, {r0}
    450e:	e4c3      	b.n	0x3e98
    4510:	0002      	movs	r2, r0
    4512:	e153      	b.n	0x47bc
    4514:	fffc 1aff 			; <UNDEFINED> instruction: 0xfffc1aff
    4518:	5000      	str	r0, [r0, r0]
    451a:	e3a0      	b.n	0x4c5e
    451c:	6001      	str	r1, [r0, #0]
    451e:	e3a0      	b.n	0x4c62
    4520:	7004      	strb	r4, [r0, #0]
    4522:	e280      	b.n	0x4a26
    4524:	4007      	ands	r7, r0
    4526:	e1a0      	b.n	0x486a
    4528:	e001      	b.n	0x452e
    452a:	e1a0      	b.n	0x486e
    452c:	c000      	stmia	r0!, {}
    452e:	e3a0      	b.n	0x4c72
    4530:	3000      	adds	r0, #0
    4532:	e59e      	b.n	0x4072
    4534:	3001      	adds	r0, #1
    4536:	e4c4      	b.n	0x3ec2
    4538:	2004      	movs	r0, #4
    453a:	e49e      	b.n	0x3e7a
    453c:	3010      	adds	r0, #16
    453e:	e28d      	b.n	0x4a5c
    4540:	0000      	movs	r0, r0
    4542:	e352      	b.n	0x4bea
    4544:	3002      	adds	r0, #2
    4546:	e083      	b.n	0x4650
    4548:	6010      	str	r0, [r2, #0]
    454a:	e543      	b.n	0x3fd4
    454c:	5001      	str	r1, [r0, r0]
    454e:	05c0      	lsls	r0, r0, #23
    4550:	c002      	stmia	r0!, {r1}
    4552:	05c0      	lsls	r0, r0, #23
    4554:	0013      	movs	r3, r2
    4556:	0a00      	lsrs	r0, r0, #8
    4558:	3001      	adds	r0, #1
    455a:	e252      	b.n	0x4a02
    455c:	3002      	adds	r0, #2
    455e:	4282      	cmp	r2, r0
    4560:	3143      	adds	r1, #67	; 0x43
    4562:	e065      	b.n	0x4630
    4564:	2003      	movs	r0, #3
    4566:	e5d0      	b.n	0x410a
    4568:	0000      	movs	r0, r0
    456a:	e353      	b.n	0x4c14
    456c:	3000      	adds	r0, #0
    456e:	b263      	sxtb	r3, r4
    4570:	3002      	adds	r0, #2
    4572:	e083      	b.n	0x467c
    4574:	30ff      	adds	r0, #255	; 0xff
    4576:	e203      	b.n	0x4980
    4578:	3003      	adds	r0, #3
    457a:	e5c0      	b.n	0x40fe
    457c:	2004      	movs	r0, #4
    457e:	e51e      	b.n	0x3fbe
    4580:	2001      	movs	r0, #1
    4582:	e242      	b.n	0x4a0a
    4584:	8000      	strh	r0, [r0, #0]
    4586:	e272      	b.n	0x4a6e
    4588:	8003      	strh	r3, [r0, #0]
    458a:	e208      	b.n	0x499e
    458c:	2003      	movs	r0, #3
    458e:	e202      	b.n	0x4996
    4590:	2000      	movs	r0, #0
    4592:	5268      	strh	r0, [r5, r1]
    4594:	200c      	movs	r0, #12
    4596:	e042      	b.n	0x461e
    4598:	0000      	movs	r0, r0
    459a:	e352      	b.n	0x4c42
    459c:	2000      	movs	r0, #0
    459e:	b262      	sxtb	r2, r4
    45a0:	2002      	movs	r0, #2
    45a2:	e083      	b.n	0x46ac
    45a4:	2003      	movs	r0, #3
    45a6:	e5c0      	b.n	0x412a
    45a8:	c001      	stmia	r0!, {r0}
    45aa:	e28c      	b.n	0x4ac6
    45ac:	0004      	movs	r4, r0
    45ae:	e35c      	b.n	0x4c6a
    45b0:	ffde 1aff 			; <UNDEFINED> instruction: 0xffde1aff
    45b4:	5001      	str	r1, [r0, r0]
    45b6:	e285      	b.n	0x4ac4
    45b8:	0004      	movs	r4, r0
    45ba:	e355      	b.n	0x4c68
    45bc:	1010      	asrs	r0, r2, #32
    45be:	e281      	b.n	0x4ac4
    45c0:	7004      	strb	r4, [r0, #0]
    45c2:	e287      	b.n	0x4ad4
    45c4:	ffd6 1aff 			; <UNDEFINED> instruction: 0xffd61aff
    45c8:	100f      	asrs	r7, r1, #32
    45ca:	e28d      	b.n	0x4ae8
    45cc:	3001      	adds	r0, #1
    45ce:	e24d      	b.n	0x4a6c
    45d0:	2001      	movs	r0, #1
    45d2:	e5f3      	b.n	0x41bc
    45d4:	0000      	movs	r0, r0
    45d6:	e352      	b.n	0x4c7e
    45d8:	0016      	movs	r6, r2
    45da:	0a00      	lsrs	r0, r0, #8
    45dc:	0001      	movs	r1, r0
    45de:	e153      	b.n	0x4888
    45e0:	fffa 1aff 			; <UNDEFINED> instruction: 0xfffa1aff
    45e4:	2000      	movs	r0, #0
    45e6:	e3a0      	b.n	0x4d2a
    45e8:	3002      	adds	r0, #2
    45ea:	e1a0      	b.n	0x492e
    45ec:	2014      	movs	r0, #20
    45ee:	e580      	b.n	0x40f2
    45f0:	e008      	b.n	0x4604
    45f2:	e280      	b.n	0x4af6
    45f4:	4018      	ands	r0, r3
    45f6:	e280      	b.n	0x4afa
    45f8:	1004      	asrs	r4, r0, #32
    45fa:	e24e      	b.n	0x4a9a
    45fc:	2183      	movs	r1, #131	; 0x83
    45fe:	e063      	b.n	0x46c8
    4600:	2102      	movs	r1, #2
    4602:	e083      	b.n	0x470c
    4604:	c0d1      	stmia	r0!, {r0, r4, r6, r7}
    4606:	e0d1      	b.n	0x47ac
    4608:	2202      	movs	r2, #2
    460a:	e082      	b.n	0x4712
    460c:	3102      	adds	r1, #2
    460e:	e083      	b.n	0x4718
    4610:	000e      	movs	r6, r1
    4612:	e151      	b.n	0x48b8
    4614:	300c      	adds	r0, #12
    4616:	e083      	b.n	0x4720
    4618:	fff7 1aff 			; <UNDEFINED> instruction: 0xfff71aff
    461c:	e004      	b.n	0x4628
    461e:	e281      	b.n	0x4b24
    4620:	000e      	movs	r6, r1
    4622:	e154      	b.n	0x48ce
    4624:	fff3 1aff 			; <UNDEFINED> instruction: 0xfff31aff
    4628:	3014      	adds	r0, #20
    462a:	e580      	b.n	0x412e
    462c:	d010      	beq.n	0x4650
    462e:	e28d      	b.n	0x4b4c
    4630:	41f0      	rors	r0, r6
    4632:	e8bd ff1e 	ldmia.w	sp!, {r1, r2, r3, r4, r8, r9, sl, fp, ip, sp, lr, pc}
    4636:	e12f      	b.n	0x4898
    4638:	2000      	movs	r0, #0
    463a:	e5c0      	b.n	0x41be
    463c:	d010      	beq.n	0x4660
    463e:	e28d      	b.n	0x4b5c
    4640:	41f0      	rors	r0, r6
    4642:	e8bd ff1e 	ldmia.w	sp!, {r1, r2, r3, r4, r8, r9, sl, fp, ip, sp, lr, pc}
    4646:	e12f      	b.n	0x48a8
    4648:	2000      	movs	r0, #0
    464a:	e5d0      	b.n	0x41ee
    464c:	0000      	movs	r0, r0
    464e:	e352      	b.n	0x4cf6
    4650:	001a      	movs	r2, r3
    4652:	0a00      	lsrs	r0, r0, #8
    4654:	2000      	movs	r0, #0
    4656:	e5d1      	b.n	0x41fc
    4658:	0000      	movs	r0, r0
    465a:	e352      	b.n	0x4d02
    465c:	0017      	movs	r7, r2
    465e:	0a00      	lsrs	r0, r0, #8
    4660:	c014      	stmia	r0!, {r2, r4}
    4662:	e591      	b.n	0x4188
    4664:	3014      	adds	r0, #20
    4666:	e590      	b.n	0x418a
    4668:	0003      	movs	r3, r0
    466a:	e15c      	b.n	0x4926
    466c:	0012      	movs	r2, r2
    466e:	1a00      	subs	r0, r0, r0
    4670:	1004      	asrs	r4, r0, #32
    4672:	e241      	b.n	0x4af8
    4674:	4030      	ands	r0, r6
    4676:	e92d e000 	stmdb	sp!, {sp, lr, pc}
    467a:	e041      	b.n	0x4700
    467c:	1008      	asrs	r0, r1, #32
    467e:	e280      	b.n	0x4b82
    4680:	0018      	movs	r0, r3
    4682:	e280      	b.n	0x4b86
    4684:	3004      	adds	r0, #4
    4686:	e241      	b.n	0x4b0c
    4688:	c001      	stmia	r0!, {r0}
    468a:	e08e      	b.n	0x47aa
    468c:	50d1      	str	r1, [r2, r3]
    468e:	e0d3      	b.n	0x4838
    4690:	40d1      	lsrs	r1, r2
    4692:	e0dc      	b.n	0x484e
    4694:	0004      	movs	r4, r0
    4696:	e155      	b.n	0x4944
    4698:	000a      	movs	r2, r1
    469a:	1a00      	subs	r0, r0, r0
    469c:	0001      	movs	r1, r0
    469e:	e153      	b.n	0x4948
    46a0:	fff9 1aff 			; <UNDEFINED> instruction: 0xfff91aff
    46a4:	1004      	asrs	r4, r0, #32
    46a6:	e281      	b.n	0x4bac
    46a8:	0000      	movs	r0, r0
    46aa:	e151      	b.n	0x4950
    46ac:	fff4 1aff 			; <UNDEFINED> instruction: 0xfff41aff
    46b0:	0002      	movs	r2, r0
    46b2:	e1a0      	b.n	0x49f6
    46b4:	4030      	ands	r0, r6
    46b6:	e8bd ff1e 	ldmia.w	sp!, {r1, r2, r3, r4, r8, r9, sl, fp, ip, sp, lr, pc}
    46ba:	e12f      	b.n	0x491c
    46bc:	2000      	movs	r0, #0
    46be:	e3a0      	b.n	0x4e02
    46c0:	0002      	movs	r2, r0
    46c2:	e1a0      	b.n	0x4a06
    46c4:	ff1e e12f 	vrhadd.u16	d14, d14, d31
    46c8:	2000      	movs	r0, #0
    46ca:	e3a0      	b.n	0x4e0e
    46cc:	fff7 eaff 			; <UNDEFINED> instruction: 0xfff7eaff
    46d0:	4070      	eors	r0, r6
    46d2:	e92d 3000 	stmdb	sp!, {ip, sp}
    46d6:	e5d1      	b.n	0x427c
    46d8:	0000      	movs	r0, r0
    46da:	e353      	b.n	0x4d84
    46dc:	31b4      	adds	r1, #180	; 0xb4
    46de:	11d1      	asrs	r1, r2, #7
    46e0:	4103      	asrs	r3, r0
    46e2:	e790      	b.n	0x4606
    46e4:	0000      	movs	r0, r0
    46e6:	e354      	b.n	0x4d92
    46e8:	5001      	str	r1, [r0, r0]
    46ea:	e1a0      	b.n	0x4a2e
    46ec:	0003      	movs	r3, r0
    46ee:	1a00      	subs	r0, r0, r0
    46f0:	0007      	movs	r7, r0
    46f2:	ea00 4018 	and.w	r0, r0, r8, lsr #16
    46f6:	e594      	b.n	0x4222
    46f8:	0000      	movs	r0, r0
    46fa:	e354      	b.n	0x4da6
    46fc:	0004      	movs	r4, r0
    46fe:	0a00      	lsrs	r0, r0, #8
    4700:	1005      	asrs	r5, r0, #32
    4702:	e1a0      	b.n	0x4a46
    4704:	0004      	movs	r4, r0
    4706:	e1a0      	b.n	0x4a4a
    4708:	ffce ebff 			; <UNDEFINED> instruction: 0xffceebff
    470c:	0000      	movs	r0, r0
    470e:	e350      	b.n	0x4db2
    4710:	fff7 0aff 			; <UNDEFINED> instruction: 0xfff70aff
    4714:	0004      	movs	r4, r0
    4716:	e1a0      	b.n	0x4a5a
    4718:	4070      	eors	r0, r6
    471a:	e8bd ff1e 	ldmia.w	sp!, {r1, r2, r3, r4, r8, r9, sl, fp, ip, sp, lr, pc}
    471e:	e12f      	b.n	0x4980
    4720:	47f0      	blx	lr
    4722:	e92d 6002 	stmdb	sp!, {r1, sp, lr}
    4726:	e1a0      	b.n	0x4a6a
    4728:	4000      	ands	r0, r0
    472a:	e1a0      	b.n	0x4a6e
    472c:	7001      	strb	r1, [r0, #0]
    472e:	e1a0      	b.n	0x4a72
    4730:	ffe6 ebff 			; <UNDEFINED> instruction: 0xffe6ebff
    4734:	0000      	movs	r0, r0
    4736:	e350      	b.n	0x4dda
    4738:	0031      	movs	r1, r6
    473a:	0a00      	lsrs	r0, r0, #8
    473c:	3028      	adds	r0, #40	; 0x28
    473e:	e5d0      	b.n	0x42e2
    4740:	0000      	movs	r0, r0
    4742:	e353      	b.n	0x4dec
    4744:	002c      	movs	r4, r5
    4746:	1a00      	subs	r0, r0, r0
    4748:	3000      	adds	r0, #0
    474a:	e5d0      	b.n	0x42ee
    474c:	0000      	movs	r0, r0
    474e:	e353      	b.n	0x4df8
    4750:	2040      	movs	r0, #64	; 0x40
    4752:	03a0      	lsls	r0, r4, #14
    4754:	20d3      	movs	r0, #211	; 0xd3
    4756:	11d0      	asrs	r0, r2, #7
    4758:	3024      	adds	r0, #36	; 0x24
    475a:	e590      	b.n	0x427e
    475c:	6002      	str	r2, [r0, #0]
    475e:	e086      	b.n	0x486e
    4760:	0003      	movs	r3, r0
    4762:	e156      	b.n	0x4a12
    4764:	0024      	movs	r4, r4
    4766:	aa00      	add	r2, sp, #0
    4768:	501c      	str	r4, [r3, r0]
    476a:	e590      	b.n	0x428e
    476c:	0001      	movs	r1, r0
    476e:	e355      	b.n	0x4e1c
    4770:	6024      	str	r4, [r4, #0]
    4772:	e580      	b.n	0x4276
    4774:	0020      	movs	r0, r4
    4776:	0a00      	lsrs	r0, r0, #8
    4778:	3fa5      	subs	r7, #165	; 0xa5
    477a:	e085      	b.n	0x4888
    477c:	30c3      	adds	r0, #195	; 0xc3
    477e:	e1a0      	b.n	0x4ac2
    4780:	1801      	adds	r1, r0, r0
    4782:	e283      	b.n	0x4c8c
    4784:	2801      	cmp	r0, #1
    4786:	e285      	b.n	0x4c94
    4788:	e101      	b.n	0x498e
    478a:	e794      	b.n	0x46b6
    478c:	c102      	stmia	r1!, {r1}
    478e:	e794      	b.n	0x46ba
    4790:	2024      	movs	r0, #36	; 0x24
    4792:	e59e      	b.n	0x42d2
    4794:	1024      	asrs	r4, r4, #32
    4796:	e59c      	b.n	0x42d2
    4798:	0002      	movs	r2, r0
    479a:	e151      	b.n	0x4a40
    479c:	0008      	movs	r0, r1
    479e:	ba00      	rev	r0, r0
    47a0:	0015      	movs	r5, r2
    47a2:	ea00 e106 			; <UNDEFINED> instruction: 0xea00e106
    47a6:	e794      	b.n	0x46d2
    47a8:	c000      	stmia	r0!, {}
    47aa:	e592      	b.n	0x42d2
    47ac:	1024      	asrs	r4, r4, #32
    47ae:	e59e      	b.n	0x42ee
    47b0:	2024      	movs	r0, #36	; 0x24
    47b2:	e59c      	b.n	0x42ee
    47b4:	0002      	movs	r2, r0
    47b6:	e151      	b.n	0x4a5c
    47b8:	5003      	str	r3, [r0, r0]
    47ba:	e1a0      	b.n	0x4afe
    47bc:	000e      	movs	r6, r1
    47be:	da00      	bge.n	0x47c2
    47c0:	3000      	adds	r0, #0
    47c2:	e1a0      	b.n	0x4b06
    47c4:	1105      	asrs	r5, r0, #4
    47c6:	e084      	b.n	0x48d2
    47c8:	2103      	movs	r1, #3
    47ca:	e084      	b.n	0x48d6
    47cc:	1701      	asrs	r1, r0, #28
    47ce:	e281      	b.n	0x4cd4
    47d0:	2701      	movs	r7, #1
    47d2:	e282      	b.n	0x4cda
    47d4:	e000      	b.n	0x47d8
    47d6:	e581      	b.n	0x42dc
    47d8:	c000      	stmia	r0!, {}
    47da:	e582      	b.n	0x42e2
    47dc:	301c      	adds	r0, #28
    47de:	e58c      	b.n	0x42fa
    47e0:	0fa3      	lsrs	r3, r4, #30
    47e2:	e083      	b.n	0x48ec
    47e4:	1000      	asrs	r0, r0, #32
    47e6:	e591      	b.n	0x430c
    47e8:	00c0      	lsls	r0, r0, #3
    47ea:	e1a0      	b.n	0x4b2e
    47ec:	0001      	movs	r1, r0
    47ee:	e353      	b.n	0x4e98
    47f0:	6801      	ldr	r1, [r0, #0]
    47f2:	e280      	b.n	0x4cf6
    47f4:	501c      	str	r4, [r3, r0]
    47f6:	e581      	b.n	0x42fc
    47f8:	ffe9 1aff 			; <UNDEFINED> instruction: 0xffe91aff
    47fc:	47f0      	blx	lr
    47fe:	e8bd ff1e 	ldmia.w	sp!, {r1, r2, r3, r4, r8, r9, sl, fp, ip, sp, lr, pc}
    4802:	e12f      	b.n	0x4a64
    4804:	5702      	ldrsb	r2, [r0, r4]
    4806:	e284      	b.n	0x4d12
    4808:	8004      	strh	r4, [r0, #0]
    480a:	e595      	b.n	0x4338
    480c:	0801      	lsrs	r1, r0, #32
    480e:	e358      	b.n	0x4ec2
    4810:	0000      	movs	r0, r0
    4812:	c3a0      	stmia	r3!, {r5, r7}
    4814:	0001      	movs	r1, r0
    4816:	d3a0      	bcc.n	0x475a
    4818:	8001      	strh	r1, [r0, #0]
    481a:	e288      	b.n	0x4d2e
    481c:	ee81 ebff 			; <UNDEFINED> instruction: 0xee81ebff
    4820:	8004      	strh	r4, [r0, #0]
    4822:	e585      	b.n	0x4330
    4824:	0030      	movs	r0, r6
    4826:	e3a0      	b.n	0x4f6a
    4828:	f26a ebff 			; <UNDEFINED> instruction: 0xf26aebff
    482c:	8000      	strh	r0, [r0, #0]
    482e:	e5d7      	b.n	0x43e0
    4830:	0000      	movs	r0, r0
    4832:	e358      	b.n	0x4ee6
    4834:	1008      	asrs	r0, r1, #32
    4836:	01a0      	lsls	r0, r4, #6
    4838:	3007      	adds	r0, #7
    483a:	e1a0      	b.n	0x4b7e
    483c:	2000      	movs	r0, #0
    483e:	e1a0      	b.n	0x4b82
    4840:	11b4      	asrs	r4, r6, #6
    4842:	11d7      	asrs	r7, r2, #7
    4844:	9004      	str	r0, [sp, #16]
    4846:	e595      	b.n	0x4374
    4848:	a101      	add	r1, pc, #4	; (adr r1, 0x4850)
    484a:	e794      	b.n	0x4776
    484c:	8000      	strh	r0, [r0, #0]
    484e:	e5c0      	b.n	0x43d2
    4850:	1001      	asrs	r1, r0, #32
    4852:	e5d7      	b.n	0x4404
    4854:	1001      	asrs	r1, r0, #32
    4856:	e5c0      	b.n	0x43da
    4858:	1002      	asrs	r2, r0, #32
    485a:	e5d7      	b.n	0x440c
    485c:	1002      	asrs	r2, r0, #32
    485e:	e5c0      	b.n	0x43e2
    4860:	c0d3      	stmia	r0!, {r0, r1, r4, r6, r7}
    4862:	e1d7      	b.n	0x4c14
    4864:	c003      	stmia	r0!, {r0, r1}
    4866:	e5c0      	b.n	0x43ea
    4868:	1014      	asrs	r4, r2, #32
    486a:	e597      	b.n	0x439c
    486c:	1014      	asrs	r4, r2, #32
    486e:	e580      	b.n	0x4372
    4870:	e010      	b.n	0x4894
    4872:	e287      	b.n	0x4d84
    4874:	10d4      	asrs	r4, r2, #3
    4876:	e1d3      	b.n	0x4c20
    4878:	1004      	asrs	r4, r0, #32
    487a:	e5c2      	b.n	0x4402
    487c:	10d5      	asrs	r5, r2, #3
    487e:	e1d3      	b.n	0x4c28
    4880:	1005      	asrs	r5, r0, #32
    4882:	e5c2      	b.n	0x440a
    4884:	10d6      	asrs	r6, r2, #3
    4886:	e1d3      	b.n	0x4c30
    4888:	1006      	asrs	r6, r0, #32
    488a:	e5c2      	b.n	0x4412
    488c:	3004      	adds	r0, #4
    488e:	e283      	b.n	0x4d98
    4890:	10d3      	asrs	r3, r2, #3
    4892:	e1d3      	b.n	0x4c3c
    4894:	000e      	movs	r6, r1
    4896:	e153      	b.n	0x4b40
    4898:	1007      	asrs	r7, r0, #32
    489a:	e5c2      	b.n	0x4422
    489c:	2004      	movs	r0, #4
    489e:	e282      	b.n	0x4da6
    48a0:	fff3 1aff 			; <UNDEFINED> instruction: 0xfff31aff
    48a4:	0000      	movs	r0, r0
    48a6:	e358      	b.n	0x4f5a
    48a8:	c040      	stmia	r0!, {r6}
    48aa:	03a0      	lsls	r0, r4, #14
    48ac:	3000      	adds	r0, #0
    48ae:	e3a0      	b.n	0x4ff2
    48b0:	c006      	stmia	r0!, {r1, r2}
    48b2:	e08c      	b.n	0x49ce
    48b4:	c024      	stmia	r0!, {r2, r5}
    48b6:	e580      	b.n	0x43ba
    48b8:	a018      	add	r0, pc, #96	; (adr r0, 0x491c)
    48ba:	e580      	b.n	0x43be
    48bc:	901c      	str	r0, [sp, #112]	; 0x70
    48be:	e580      	b.n	0x43c2
    48c0:	6020      	str	r0, [r4, #0]
    48c2:	e580      	b.n	0x43c6
    48c4:	3028      	adds	r0, #40	; 0x28
    48c6:	e5c0      	b.n	0x444a
    48c8:	302c      	adds	r0, #44	; 0x2c
    48ca:	e580      	b.n	0x43ce
    48cc:	3000      	adds	r0, #0
    48ce:	e5d7      	b.n	0x4480
    48d0:	6004      	str	r4, [r0, #0]
    48d2:	e595      	b.n	0x4400
    48d4:	0000      	movs	r0, r0
    48d6:	e353      	b.n	0x4f80
    48d8:	31b4      	adds	r1, #180	; 0xb4
    48da:	11d7      	asrs	r7, r2, #7
    48dc:	2801      	cmp	r0, #1
    48de:	e286      	b.n	0x4dee
    48e0:	0001      	movs	r1, r0
    48e2:	e356      	b.n	0x4f92
    48e4:	0103      	lsls	r3, r0, #4
    48e6:	e784      	b.n	0x47f2
    48e8:	0102      	lsls	r2, r0, #4
    48ea:	e784      	b.n	0x47f6
    48ec:	001f      	movs	r7, r3
    48ee:	0a00      	lsrs	r0, r0, #8
    48f0:	3fa6      	subs	r7, #166	; 0xa6
    48f2:	e086      	b.n	0x4a02
    48f4:	30c3      	adds	r0, #195	; 0xc3
    48f6:	e1a0      	b.n	0x4c3a
    48f8:	2801      	cmp	r0, #1
    48fa:	e283      	b.n	0x4e04
    48fc:	e102      	b.n	0x4b04
    48fe:	e794      	b.n	0x482a
    4900:	2024      	movs	r0, #36	; 0x24
    4902:	e590      	b.n	0x4426
    4904:	1024      	asrs	r4, r4, #32
    4906:	e59e      	b.n	0x4446
    4908:	0002      	movs	r2, r0
    490a:	e151      	b.n	0x4bb0
    490c:	0008      	movs	r0, r1
    490e:	ca00      	ldmia	r2!, {}
    4910:	0016      	movs	r6, r2
    4912:	ea00 0000 	and.w	r0, r0, r0
    4916:	e592      	b.n	0x443e
    4918:	e107      	b.n	0x4b2a
    491a:	e794      	b.n	0x4846
    491c:	1024      	asrs	r4, r4, #32
    491e:	e590      	b.n	0x4442
    4920:	2024      	movs	r0, #36	; 0x24
    4922:	e59e      	b.n	0x4462
    4924:	0002      	movs	r2, r0
    4926:	e151      	b.n	0x4bcc
    4928:	6003      	str	r3, [r0, #0]
    492a:	e1a0      	b.n	0x4c6e
    492c:	000e      	movs	r6, r1
    492e:	aa00      	add	r2, sp, #0
    4930:	300c      	adds	r0, #12
    4932:	e1a0      	b.n	0x4c76
    4934:	1106      	asrs	r6, r0, #4
    4936:	e084      	b.n	0x4a42
    4938:	2103      	movs	r1, #3
    493a:	e084      	b.n	0x4a46
    493c:	1701      	asrs	r1, r0, #28
    493e:	e281      	b.n	0x4e44
    4940:	2701      	movs	r7, #1
    4942:	e282      	b.n	0x4e4a
    4944:	e000      	b.n	0x4948
    4946:	e581      	b.n	0x444c
    4948:	0000      	movs	r0, r0
    494a:	e582      	b.n	0x4452
    494c:	301c      	adds	r0, #28
    494e:	e580      	b.n	0x4452
    4950:	cfa3      	ldmia	r7, {r0, r1, r5, r7}
    4952:	e083      	b.n	0x4a5c
    4954:	1000      	asrs	r0, r0, #32
    4956:	e591      	b.n	0x447c
    4958:	c0cc      	stmia	r0!, {r2, r3, r6, r7}
    495a:	e1a0      	b.n	0x4c9e
    495c:	0001      	movs	r1, r0
    495e:	e353      	b.n	0x5008
    4960:	7801      	ldrb	r1, [r0, #0]
    4962:	e28c      	b.n	0x4e7e
    4964:	601c      	str	r4, [r3, #0]
    4966:	e581      	b.n	0x446c
    4968:	ffe9 1aff 			; <UNDEFINED> instruction: 0xffe91aff
    496c:	6004      	str	r4, [r0, #0]
    496e:	e595      	b.n	0x449c
    4970:	3008      	adds	r0, #8
    4972:	e595      	b.n	0x44a0
    4974:	0006      	movs	r6, r0
    4976:	e153      	b.n	0x4c20
    4978:	6003      	str	r3, [r0, #0]
    497a:	a1a0      	add	r1, pc, #640	; (adr r1, 0x4bfc)
    497c:	6008      	str	r0, [r1, #0]
    497e:	e585      	b.n	0x448c
    4980:	47f0      	blx	lr
    4982:	e8bd ff1e 	ldmia.w	sp!, {r1, r2, r3, r4, r8, r9, sl, fp, ip, sp, lr, pc}
    4986:	e12f      	b.n	0x4be8
    4988:	3402      	adds	r4, #2
    498a:	e3a0      	b.n	0x50ce
    498c:	2000      	movs	r0, #0
    498e:	e3a0      	b.n	0x50d2
    4990:	4ff0      	ldr	r7, [pc, #960]	; (0x4d54)
    4992:	e92d d01c 	stmdb	sp!, {r2, r3, r4, ip, lr, pc}
    4996:	e24d      	b.n	0x4e34
    4998:	2001      	movs	r0, #1
    499a:	e4c3      	b.n	0x4324
    499c:	0781      	lsls	r1, r0, #30
    499e:	e353      	b.n	0x5048
    49a0:	fffc 1aff 			; <UNDEFINED> instruction: 0xfffc1aff
    49a4:	007b      	lsls	r3, r7, #1
    49a6:	e3e0      	b.n	0x516a
    49a8:	c07c      	stmia	r0!, {r2, r3, r4, r5, r6}
    49aa:	e3e0      	b.n	0x516e
    49ac:	3000      	adds	r0, #0
    49ae:	e3a0      	b.n	0x50f2
    49b0:	11c4      	asrs	r4, r0, #7
    49b2:	e59f      	b.n	0x44f4
    49b4:	a1c4      	add	r1, pc, #784	; (adr r1, 0x4cc8)
    49b6:	e59f      	b.n	0x44f8
    49b8:	3004      	adds	r0, #4
    49ba:	e58d      	b.n	0x44d8
    49bc:	9001      	str	r0, [sp, #4]
    49be:	e3a0      	b.n	0x5102
    49c0:	2000      	movs	r0, #0
    49c2:	e5c1      	b.n	0x4548
    49c4:	81b8      	strh	r0, [r7, #12]
    49c6:	e59f      	b.n	0x4508
    49c8:	2001      	movs	r0, #1
    49ca:	e5c1      	b.n	0x4550
    49cc:	51b4      	str	r4, [r6, r6]
    49ce:	e59f      	b.n	0x4510
    49d0:	c002      	stmia	r0!, {r1}
    49d2:	e5c1      	b.n	0x4558
    49d4:	61b0      	str	r0, [r6, #24]
    49d6:	e59f      	b.n	0x4518
    49d8:	2004      	movs	r0, #4
    49da:	e5c1      	b.n	0x4560
    49dc:	b1ac      	cbz	r4, 0x4a0a
    49de:	e59f      	b.n	0x4520
    49e0:	2005      	movs	r0, #5
    49e2:	e5c1      	b.n	0x4568
    49e4:	7f82      	ldrb	r2, [r0, #30]
    49e6:	e28a      	b.n	0x4efe
    49e8:	0006      	movs	r6, r0
    49ea:	e5c1      	b.n	0x4570
    49ec:	2008      	movs	r0, #8
    49ee:	e5c1      	b.n	0x4574
    49f0:	2009      	movs	r0, #9
    49f2:	e5c1      	b.n	0x4578
    49f4:	000a      	movs	r2, r1
    49f6:	e5c1      	b.n	0x457c
    49f8:	200c      	movs	r0, #12
    49fa:	e5c1      	b.n	0x4580
    49fc:	200d      	movs	r0, #13
    49fe:	e5c1      	b.n	0x4584
    4a00:	000e      	movs	r6, r1
    4a02:	e5c1      	b.n	0x4588
    4a04:	0006      	movs	r6, r0
    4a06:	ea00 f0dc 			; <UNDEFINED> instruction: 0xea00f0dc
    4a0a:	ebff a034 			; <UNDEFINED> instruction: 0xebffa034
    4a0e:	e28a      	b.n	0x4f26
    4a10:	100b      	asrs	r3, r1, #32
    4a12:	e1a0      	b.n	0x4d56
    4a14:	0178      	lsls	r0, r7, #5
    4a16:	e59f      	b.n	0x4558
    4a18:	f0d8 ebff 			; <UNDEFINED> instruction: 0xf0d8ebff
    4a1c:	000a      	movs	r2, r1
    4a1e:	e157      	b.n	0x4cd0
    4a20:	0034      	movs	r4, r6
    4a22:	0a00      	lsrs	r0, r0, #8
    4a24:	1028      	asrs	r0, r5, #32
    4a26:	e59a      	b.n	0x455e
    4a28:	2024      	movs	r0, #36	; 0x24
    4a2a:	e28a      	b.n	0x4f42
    4a2c:	0701      	lsls	r1, r0, #28
    4a2e:	e351      	b.n	0x50d4
    4a30:	100c      	asrs	r4, r1, #32
    4a32:	e28a      	b.n	0x4f4a
    4a34:	2000      	movs	r0, #0
    4a36:	e585      	b.n	0x4544
    4a38:	0006      	movs	r6, r0
    4a3a:	e1a0      	b.n	0x4d7e
    4a3c:	a000      	add	r0, pc, #0	; (adr r0, 0x4a40)
    4a3e:	e588      	b.n	0x4552
    4a40:	0006      	movs	r6, r0
    4a42:	e891 ffef 	ldmia.w	r1, {r0, r1, r2, r3, r5, r6, r7, r8, r9, sl, fp, ip, sp, lr, pc}
    4a46:	8aff      	ldrh	r7, [r7, #22]
    4a48:	f0cc ebff 			; <UNDEFINED> instruction: 0xf0ccebff
    4a4c:	100c      	asrs	r4, r1, #32
    4a4e:	e28d      	b.n	0x4f6c
    4a50:	000a      	movs	r2, r1
    4a52:	e1a0      	b.n	0x4d96
    4a54:	f18f ebff 			; <UNDEFINED> instruction: 0xf18febff
    4a58:	000c      	movs	r4, r1
    4a5a:	e59d      	b.n	0x4598
    4a5c:	2134      	movs	r1, #52	; 0x34
    4a5e:	e59f      	b.n	0x45a0
    4a60:	0000      	movs	r0, r0
    4a62:	e350      	b.n	0x5106
    4a64:	3130      	adds	r1, #48	; 0x30
    4a66:	e59f      	b.n	0x45a8
    4a68:	3002      	adds	r0, #2
    4a6a:	01a0      	lsls	r0, r4, #6
    4a6c:	0003      	movs	r3, r0
    4a6e:	e1a0      	b.n	0x4db2
    4a70:	f0c2 ebff 			; <UNDEFINED> instruction: 0xf0c2ebff
    4a74:	200c      	movs	r0, #12
    4a76:	e59d      	b.n	0x45b4
    4a78:	2001      	movs	r0, #1
    4a7a:	e212      	b.n	0x4ea2
    4a7c:	4014      	ands	r4, r2
    4a7e:	e59d      	b.n	0x45bc
    4a80:	0038      	movs	r0, r7
    4a82:	1a00      	subs	r0, r0, r0
    4a84:	0114      	lsls	r4, r2, #4
    4a86:	e59f      	b.n	0x45c8
    4a88:	2000      	movs	r0, #0
    4a8a:	e58d      	b.n	0x45a8
    4a8c:	f0bb ebff 			; <UNDEFINED> instruction: 0xf0bbebff
    4a90:	2000      	movs	r0, #0
    4a92:	e59d      	b.n	0x45d0
    4a94:	0000      	movs	r0, r0
    4a96:	e354      	b.n	0x5142
    4a98:	9002      	str	r0, [sp, #8]
    4a9a:	e009      	b.n	0x4ab0
    4a9c:	2004      	movs	r0, #4
    4a9e:	01a0      	lsls	r0, r4, #6
    4aa0:	000a      	movs	r2, r1
    4aa2:	0a00      	lsrs	r0, r0, #8
    4aa4:	2000      	movs	r0, #0
    4aa6:	e595      	b.n	0x45d4
    4aa8:	0008      	movs	r0, r1
    4aaa:	e592      	b.n	0x45d2
    4aac:	0100      	lsls	r0, r0, #4
    4aae:	e080      	b.n	0x4bb2
    4ab0:	0100      	lsls	r0, r0, #4
    4ab2:	e080      	b.n	0x4bb6
    4ab4:	0100      	lsls	r0, r0, #4
    4ab6:	e1a0      	b.n	0x4dfa
    4ab8:	1004      	asrs	r4, r0, #32
    4aba:	e1a0      	b.n	0x4dfe
    4abc:	fcd0 ebff 			; <UNDEFINED> instruction: 0xfcd0ebff
    4ac0:	2000      	movs	r0, #0
    4ac2:	e1a0      	b.n	0x4e06
    4ac4:	3004      	adds	r0, #4
    4ac6:	e59d      	b.n	0x4604
    4ac8:	3000      	adds	r0, #0
    4aca:	e083      	b.n	0x4bd4
    4acc:	3004      	adds	r0, #4
    4ace:	e58d      	b.n	0x45ec
    4ad0:	00cc      	lsls	r4, r1, #3
    4ad2:	e59f      	b.n	0x4614
    4ad4:	2000      	movs	r0, #0
    4ad6:	e58d      	b.n	0x45f4
    4ad8:	a034      	add	r0, pc, #208	; (adr r0, 0x4bac)
    4ada:	e28a      	b.n	0x4ff2
    4adc:	f0a7 ebff 			; <UNDEFINED> instruction: 0xf0a7ebff
    4ae0:	2000      	movs	r0, #0
    4ae2:	e59d      	b.n	0x4620
    4ae4:	1004      	asrs	r4, r0, #32
    4ae6:	e1a0      	b.n	0x4e2a
    4ae8:	00b8      	lsls	r0, r7, #2
    4aea:	e59f      	b.n	0x462c
    4aec:	f0a3 ebff 			; <UNDEFINED> instruction: 0xf0a3ebff
    4af0:	000a      	movs	r2, r1
    4af2:	e157      	b.n	0x4da4
    4af4:	ffca 1aff 			; <UNDEFINED> instruction: 0xffca1aff
    4af8:	40ac      	lsls	r4, r5
    4afa:	e59f      	b.n	0x463c
    4afc:	3004      	adds	r0, #4
    4afe:	e59d      	b.n	0x463c
    4b00:	2394      	movs	r3, #148	; 0x94
    4b02:	e083      	b.n	0x4c0c
    4b04:	00a4      	lsls	r4, r4, #2
    4b06:	e59f      	b.n	0x4648
    4b08:	41a3      	sbcs	r3, r4
    4b0a:	e1a0      	b.n	0x4e4e
    4b0c:	f09b ebff 			; <UNDEFINED> instruction: 0xf09bebff
    4b10:	309c      	adds	r0, #156	; 0x9c
    4b12:	e59f      	b.n	0x4654
    4b14:	0000      	movs	r0, r0
    4b16:	e359      	b.n	0x51cc
    4b18:	1098      	asrs	r0, r3, #2
    4b1a:	e59f      	b.n	0x465c
    4b1c:	0098      	lsls	r0, r3, #2
    4b1e:	e59f      	b.n	0x4660
    4b20:	1003      	asrs	r3, r0, #32
    4b22:	01a0      	lsls	r0, r4, #6
    4b24:	f095 ebff 			; <UNDEFINED> instruction: 0xf095ebff
    4b28:	1004      	asrs	r4, r0, #32
    4b2a:	e1a0      	b.n	0x4e6e
    4b2c:	008c      	lsls	r4, r1, #2
    4b2e:	e59f      	b.n	0x4670
    4b30:	f092 ebff 			; <UNDEFINED> instruction: 0xf092ebff
    4b34:	2088      	movs	r0, #136	; 0x88
    4b36:	e59f      	b.n	0x4678
    4b38:	1088      	asrs	r0, r1, #2
    4b3a:	e59f      	b.n	0x467c
    4b3c:	0088      	lsls	r0, r1, #2
    4b3e:	e59f      	b.n	0x4680
    4b40:	f08e ebff 			; <UNDEFINED> instruction: 0xf08eebff
    4b44:	3301      	adds	r3, #1
    4b46:	e3a0      	b.n	0x528a
    4b48:	c003      	stmia	r0!, {r0, r1}
    4b4a:	e3a0      	b.n	0x528e
    4b4c:	0004      	movs	r4, r0
    4b4e:	e3a0      	b.n	0x5292
    4b50:	2406      	movs	r4, #6
    4b52:	e3a0      	b.n	0x5296
    4b54:	1e3e      	subs	r6, r7, #0
    4b56:	e3a0      	b.n	0x529a
    4b58:	c000      	stmia	r0!, {}
    4b5a:	e5c3      	b.n	0x46e4
    4b5c:	0001      	movs	r1, r0
    4b5e:	e5c3      	b.n	0x46e8
    4b60:	10b0      	asrs	r0, r6, #2
    4b62:	e1c2      	b.n	0x4eea
    4b64:	fffe eaff 			; <UNDEFINED> instruction: 0xfffeeaff
    4b68:	0060      	lsls	r0, r4, #1
    4b6a:	e59f      	b.n	0x46ac
    4b6c:	2000      	movs	r0, #0
    4b6e:	e58d      	b.n	0x468c
    4b70:	f082 ebff 			; <UNDEFINED> instruction: 0xf082ebff
    4b74:	2000      	movs	r0, #0
    4b76:	e59d      	b.n	0x46b4
    4b78:	ffc5 eaff 			; <UNDEFINED> instruction: 0xffc5eaff
    4b7c:	0100      	lsls	r0, r0, #4
    4b7e:	0400      	lsls	r0, r0, #16
    4b80:	01e8      	lsls	r0, r5, #7
    4b82:	0300      	lsls	r0, r0, #12
    4b84:	0154      	lsls	r4, r2, #5
    4b86:	0300      	lsls	r0, r0, #12
    4b88:	0158      	lsls	r0, r3, #5
    4b8a:	0300      	lsls	r0, r0, #12
    4b8c:	66ec      	str	r4, [r5, #108]	; 0x6c
    4b8e:	0800      	lsrs	r0, r0, #32
    4b90:	66f8      	str	r0, [r7, #108]	; 0x6c
    4b92:	0800      	lsrs	r0, r0, #32
    4b94:	6710      	str	r0, [r2, #112]	; 0x70
    4b96:	0800      	lsrs	r0, r0, #32
    4b98:	66d8      	str	r0, [r3, #108]	; 0x6c
    4b9a:	0800      	lsrs	r0, r0, #32
    4b9c:	66d4      	str	r4, [r2, #108]	; 0x6c
    4b9e:	0800      	lsrs	r0, r0, #32
    4ba0:	6728      	str	r0, [r5, #112]	; 0x70
    4ba2:	0800      	lsrs	r0, r0, #32
    4ba4:	67dc      	str	r4, [r3, #124]	; 0x7c
    4ba6:	0800      	lsrs	r0, r0, #32
    4ba8:	6734      	str	r4, [r6, #112]	; 0x70
    4baa:	0800      	lsrs	r0, r0, #32
    4bac:	cccd      	ldmia	r4!, {r0, r2, r3, r6, r7}
    4bae:	cccc      	ldmia	r4!, {r2, r3, r6, r7}
    4bb0:	674c      	str	r4, [r1, #116]	; 0x74
    4bb2:	0800      	lsrs	r0, r0, #32
    4bb4:	66e4      	str	r4, [r4, #108]	; 0x6c
    4bb6:	0800      	lsrs	r0, r0, #32
    4bb8:	66dc      	str	r4, [r3, #108]	; 0x6c
    4bba:	0800      	lsrs	r0, r0, #32
    4bbc:	6780      	str	r0, [r0, #120]	; 0x78
    4bbe:	0800      	lsrs	r0, r0, #32
    4bc0:	6790      	str	r0, [r2, #120]	; 0x78
    4bc2:	0800      	lsrs	r0, r0, #32
    4bc4:	67a4      	str	r4, [r4, #120]	; 0x78
    4bc6:	0800      	lsrs	r0, r0, #32
    4bc8:	86a0      	strh	r0, [r4, #52]	; 0x34
    4bca:	0001      	movs	r1, r0
    4bcc:	67b8      	str	r0, [r7, #120]	; 0x78
    4bce:	0800      	lsrs	r0, r0, #32
    4bd0:	671c      	str	r4, [r3, #112]	; 0x70
    4bd2:	0800      	lsrs	r0, r0, #32
    4bd4:	0003      	movs	r3, r0
    4bd6:	e151      	b.n	0x4e7c
    4bd8:	0002      	movs	r2, r0
    4bda:	0150      	lsls	r0, r2, #5
    4bdc:	4ff8      	ldr	r7, [pc, #992]	; (0x4fc0)
    4bde:	e92d 4000 	stmdb	sp!, {lr}
    4be2:	e1a0      	b.n	0x4f26
    4be4:	0000      	movs	r0, r0
    4be6:	33a0      	adds	r3, #160	; 0xa0
    4be8:	5001      	str	r1, [r0, r0]
    4bea:	e1a0      	b.n	0x4f2e
    4bec:	8028      	strh	r0, [r5, #0]
    4bee:	e59d      	b.n	0x472c
    4bf0:	1000      	asrs	r0, r0, #32
    4bf2:	31a0      	adds	r1, #160	; 0xa0
    4bf4:	003e      	movs	r6, r7
    4bf6:	3a00      	subs	r2, #0
    4bf8:	1003      	asrs	r3, r0, #32
    4bfa:	e1a0      	b.n	0x4f3e
    4bfc:	0002      	movs	r2, r0
    4bfe:	e1a0      	b.n	0x4f42
    4c00:	6002      	str	r2, [r0, #0]
    4c02:	e1a0      	b.n	0x4f46
    4c04:	7003      	strb	r3, [r0, #0]
    4c06:	e1a0      	b.n	0x4f4a
    4c08:	fd90 ebff 			; <UNDEFINED> instruction: 0xfd90ebff
    4c0c:	1005      	asrs	r5, r0, #32
    4c0e:	e1a0      	b.n	0x4f52
    4c10:	9000      	str	r0, [sp, #0]
    4c12:	e1a0      	b.n	0x4f56
    4c14:	0004      	movs	r4, r0
    4c16:	e1a0      	b.n	0x4f5a
    4c18:	fd8c ebff 			; <UNDEFINED> instruction: 0xfd8cebff
    4c1c:	c000      	stmia	r0!, {}
    4c1e:	e049      	b.n	0x4cb4
    4c20:	e020      	b.n	0x4c64
    4c22:	e24c      	b.n	0x50be
    4c24:	bc17      	pop	{r0, r1, r2, r4}
    4c26:	e1a0      	b.n	0x4f6a
    4c28:	be16      	bkpt	0x0016
    4c2a:	e18b      	b.n	0x4f44
    4c2c:	9020      	str	r0, [sp, #128]	; 0x80
    4c2e:	e26c      	b.n	0x510a
    4c30:	b936      	cbnz	r6, 0x4c40
    4c32:	e18b      	b.n	0x4f4c
    4c34:	000b      	movs	r3, r1
    4c36:	e155      	b.n	0x4ee4
    4c38:	ac16      	add	r4, sp, #88	; 0x58
    4c3a:	e1a0      	b.n	0x4f7e
    4c3c:	000a      	movs	r2, r1
    4c3e:	0154      	lsls	r4, r2, #5
    4c40:	0000      	movs	r0, r0
    4c42:	33a0      	adds	r3, #160	; 0xa0
    4c44:	1000      	asrs	r0, r0, #32
    4c46:	31a0      	adds	r1, #160	; 0xa0
    4c48:	0005      	movs	r5, r0
    4c4a:	3a00      	subs	r2, #0
    4c4c:	0001      	movs	r1, r0
    4c4e:	e3a0      	b.n	0x5392
    4c50:	400a      	ands	r2, r1
    4c52:	e054      	b.n	0x4cfe
    4c54:	1e10      	subs	r0, r2, #0
    4c56:	e1a0      	b.n	0x4f9a
    4c58:	1930      	adds	r0, r6, r4
    4c5a:	e181      	b.n	0x4f60
    4c5c:	500b      	str	r3, [r1, r0]
    4c5e:	e0c5      	b.n	0x4dec
    4c60:	0c10      	lsrs	r0, r2, #16
    4c62:	e1a0      	b.n	0x4fa6
    4c64:	0000      	movs	r0, r0
    4c66:	e35c      	b.n	0x5322
    4c68:	0021      	movs	r1, r4
    4c6a:	0a00      	lsrs	r0, r0, #8
    4c6c:	60aa      	str	r2, [r5, #8]
    4c6e:	e1a0      	b.n	0x4fb2
    4c70:	200c      	movs	r0, #12
    4c72:	e1a0      	b.n	0x4fb6
    4c74:	6f8b      	ldr	r3, [r1, #120]	; 0x78
    4c76:	e186      	b.n	0x4f86
    4c78:	70ab      	strb	r3, [r5, #2]
    4c7a:	e1a0      	b.n	0x4fbe
    4c7c:	0007      	movs	r7, r0
    4c7e:	ea00 3006 	and.w	r0, r0, r6, lsl #12
    4c82:	e054      	b.n	0x4d2e
    4c84:	a007      	add	r0, pc, #28	; (adr r0, 0x4ca4)
    4c86:	e0c5      	b.n	0x4e14
    4c88:	3003      	adds	r0, #3
    4c8a:	e093      	b.n	0x4db4
    4c8c:	a00a      	add	r0, pc, #40	; (adr r0, 0x4cb8)
    4c8e:	e0aa      	b.n	0x4de6
    4c90:	4001      	ands	r1, r0
    4c92:	e293      	b.n	0x51bc
    4c94:	5000      	str	r0, [r0, r0]
    4c96:	e2aa      	b.n	0x51ee
    4c98:	2001      	movs	r0, #1
    4c9a:	e252      	b.n	0x5142
    4c9c:	0006      	movs	r6, r0
    4c9e:	0a00      	lsrs	r0, r0, #8
    4ca0:	0007      	movs	r7, r0
    4ca2:	e155      	b.n	0x4f50
    4ca4:	0006      	movs	r6, r0
    4ca6:	0154      	lsls	r4, r2, #5
    4ca8:	fff4 2aff 			; <UNDEFINED> instruction: 0xfff42aff
    4cac:	4004      	ands	r4, r0
    4cae:	e094      	b.n	0x4dda
    4cb0:	5005      	str	r5, [r0, r0]
    4cb2:	e0a5      	b.n	0x4e00
    4cb4:	2001      	movs	r0, #1
    4cb6:	e252      	b.n	0x515e
    4cb8:	fff8 1aff 			; <UNDEFINED> instruction: 0xfff81aff
    4cbc:	3c34      	subs	r4, #52	; 0x34
    4cbe:	e1a0      	b.n	0x5002
    4cc0:	3915      	subs	r1, #21
    4cc2:	e183      	b.n	0x4fcc
    4cc4:	3e35      	subs	r6, #53	; 0x35
    4cc6:	e183      	b.n	0x4fd0
    4cc8:	0004      	movs	r4, r0
    4cca:	e090      	b.n	0x4dee
    4ccc:	4003      	ands	r3, r0
    4cce:	e1a0      	b.n	0x5012
    4cd0:	2c35      	cmp	r4, #53	; 0x35
    4cd2:	e1a0      	b.n	0x5016
    4cd4:	1005      	asrs	r5, r0, #32
    4cd6:	e0a1      	b.n	0x4e1c
    4cd8:	5002      	str	r2, [r0, r0]
    4cda:	e1a0      	b.n	0x501e
    4cdc:	3c12      	subs	r4, #18
    4cde:	e1a0      	b.n	0x5022
    4ce0:	3e14      	subs	r6, #20
    4ce2:	e183      	b.n	0x4fec
    4ce4:	cc14      	ldmia	r4, {r2, r4}
    4ce6:	e1a0      	b.n	0x502a
    4ce8:	000c      	movs	r4, r1
    4cea:	e050      	b.n	0x4d8e
    4cec:	3934      	subs	r1, #52	; 0x34
    4cee:	e183      	b.n	0x4ff8
    4cf0:	1003      	asrs	r3, r0, #32
    4cf2:	e0c1      	b.n	0x4e78
    4cf4:	0000      	movs	r0, r0
    4cf6:	e358      	b.n	0x53aa
    4cf8:	0030      	movs	r0, r6
    4cfa:	1888      	adds	r0, r1, r2
    4cfc:	4ff8      	ldr	r7, [pc, #992]	; (0x50e0)
    4cfe:	e8bd ff1e 	ldmia.w	sp!, {r1, r2, r3, r4, r8, r9, sl, fp, ip, sp, lr, pc}
    4d02:	e12f      	b.n	0x4f64
    4d04:	3000      	adds	r0, #0
    4d06:	e590      	b.n	0x482a
    4d08:	0101      	lsls	r1, r0, #4
    4d0a:	e313      	b.n	0x5334
    4d0c:	3102      	adds	r1, #2
    4d0e:	1383      	asrs	r3, r0, #14
    4d10:	3102      	adds	r1, #2
    4d12:	03c3      	lsls	r3, r0, #15
    4d14:	0003      	movs	r3, r0
    4d16:	e080      	b.n	0x4e1a
    4d18:	ff1e e12f 	vrhadd.u16	d14, d14, d31
    4d1c:	0000      	movs	r0, r0
    4d1e:	e351      	b.n	0x53c4
    4d20:	0021      	movs	r1, r4
    4d22:	0a00      	lsrs	r0, r0, #8
    4d24:	47f0      	blx	lr
    4d26:	e92d 8001 	stmdb	sp!, {r0, pc}
    4d2a:	e241      	b.n	0x51b0
    4d2c:	6000      	str	r0, [r0, #0]
    4d2e:	e1a0      	b.n	0x5072
    4d30:	7008      	strb	r0, [r1, #0]
    4d32:	e1a0      	b.n	0x5076
    4d34:	9000      	str	r0, [sp, #0]
    4d36:	e3a0      	b.n	0x547a
    4d38:	4007      	ands	r7, r0
    4d3a:	e089      	b.n	0x4e50
    4d3c:	4fa4      	ldr	r7, [pc, #656]	; (0x4fd0)
    4d3e:	e084      	b.n	0x4e4a
    4d40:	40c4      	lsrs	r4, r0
    4d42:	e1a0      	b.n	0x5086
    4d44:	5184      	str	r4, [r0, r6]
    4d46:	e1a0      	b.n	0x508a
    4d48:	1005      	asrs	r5, r0, #32
    4d4a:	e086      	b.n	0x4e5a
    4d4c:	0001      	movs	r1, r0
    4d4e:	e1a0      	b.n	0x5092
    4d50:	ffeb ebff 			; <UNDEFINED> instruction: 0xffebebff
    4d54:	0004      	movs	r4, r0
    4d56:	e158      	b.n	0x500a
    4d58:	3000      	adds	r0, #0
    4d5a:	e1a0      	b.n	0x509e
    4d5c:	0008      	movs	r0, r1
    4d5e:	e285      	b.n	0x526c
    4d60:	0000      	movs	r0, r0
    4d62:	e086      	b.n	0x4e72
    4d64:	0007      	movs	r7, r0
    4d66:	0a00      	lsrs	r0, r0, #8
    4d68:	0002      	movs	r2, r0
    4d6a:	e153      	b.n	0x5014
    4d6c:	0007      	movs	r7, r0
    4d6e:	8a00      	ldrh	r0, [r0, #16]
    4d70:	ffe3 ebff 			; <UNDEFINED> instruction: 0xffe3ebff
    4d74:	0001      	movs	r1, r0
    4d76:	e240      	b.n	0x51fa
    4d78:	0002      	movs	r2, r0
    4d7a:	e150      	b.n	0x501e
    4d7c:	0007      	movs	r7, r0
    4d7e:	2a00      	cmp	r2, #0
    4d80:	9001      	str	r0, [sp, #4]
    4d82:	e284      	b.n	0x528e
    4d84:	ffeb eaff 			; <UNDEFINED> instruction: 0xffebeaff
    4d88:	0002      	movs	r2, r0
    4d8a:	e153      	b.n	0x5034
    4d8c:	0003      	movs	r3, r0
    4d8e:	9a00      	ldr	r2, [sp, #0]
    4d90:	0004      	movs	r4, r0
    4d92:	e159      	b.n	0x5048
    4d94:	7001      	strb	r1, [r0, #0]
    4d96:	1244      	asrs	r4, r0, #9
    4d98:	ffe6 1aff 			; <UNDEFINED> instruction: 0xffe61aff
    4d9c:	1000      	asrs	r0, r0, #32
    4d9e:	e3a0      	b.n	0x54e2
    4da0:	0001      	movs	r1, r0
    4da2:	e1a0      	b.n	0x50e6
    4da4:	47f0      	blx	lr
    4da6:	e8bd ff1e 	ldmia.w	sp!, {r1, r2, r3, r4, r8, r9, sl, fp, ip, sp, lr, pc}
    4daa:	e12f      	b.n	0x500c
    4dac:	0001      	movs	r1, r0
    4dae:	e1a0      	b.n	0x50f2
    4db0:	ff1e e12f 	vrhadd.u16	d14, d14, d31
    4db4:	0001      	movs	r1, r0
    4db6:	e350      	b.n	0x545a
    4db8:	0006      	movs	r6, r0
    4dba:	0a00      	lsrs	r0, r0, #8
    4dbc:	0002      	movs	r2, r0
    4dbe:	e350      	b.n	0x5462
    4dc0:	0006      	movs	r6, r0
    4dc2:	0a00      	lsrs	r0, r0, #8
    4dc4:	301c      	adds	r0, #28
    4dc6:	e59f      	b.n	0x4908
    4dc8:	0000      	movs	r0, r0
    4dca:	e350      	b.n	0x546e
    4dcc:	0003      	movs	r3, r0
    4dce:	01a0      	lsls	r0, r4, #6
    4dd0:	0000      	movs	r0, r0
    4dd2:	13a0      	asrs	r0, r4, #14
    4dd4:	ff1e e12f 	vrhadd.u16	d14, d14, d31
    4dd8:	000c      	movs	r4, r1
    4dda:	e59f      	b.n	0x491c
    4ddc:	ff1e e12f 	vrhadd.u16	d14, d14, d31
    4de0:	0008      	movs	r0, r1
    4de2:	e59f      	b.n	0x4924
    4de4:	ff1e e12f 	vrhadd.u16	d14, d14, d31
    4de8:	593c      	ldr	r4, [r7, r4]
    4dea:	0800      	lsrs	r0, r0, #32
    4dec:	5944      	ldr	r4, [r0, r5]
    4dee:	0800      	lsrs	r0, r0, #32
    4df0:	594c      	ldr	r4, [r1, r5]
    4df2:	0800      	lsrs	r0, r0, #32
    4df4:	4030      	ands	r0, r6
    4df6:	e92d 3110 	stmdb	sp!, {r4, r8, ip, sp}
    4dfa:	e59f      	b.n	0x493c
    4dfc:	0000      	movs	r0, r0
    4dfe:	e353      	b.n	0x54a8
    4e00:	d00c      	beq.n	0x4e1c
    4e02:	e24d      	b.n	0x52a0
    4e04:	4000      	ands	r0, r0
    4e06:	e1a0      	b.n	0x514a
    4e08:	5002      	str	r2, [r0, r0]
    4e0a:	e241      	b.n	0x5290
    4e0c:	0029      	movs	r1, r5
    4e0e:	0a00      	lsrs	r0, r0, #8
    4e10:	1004      	asrs	r4, r0, #32
    4e12:	e28d      	b.n	0x5330
    4e14:	0005      	movs	r5, r0
    4e16:	e1a0      	b.n	0x515a
    4e18:	0000      	movs	r0, r0
    4e1a:	e1a0      	b.n	0x515e
    4e1c:	0000      	movs	r0, r0
    4e1e:	e350      	b.n	0x54c2
    4e20:	001d      	movs	r5, r3
    4e22:	0a00      	lsrs	r0, r0, #8
    4e24:	1004      	asrs	r4, r0, #32
    4e26:	e59d      	b.n	0x4964
    4e28:	2005      	movs	r0, #5
    4e2a:	e1a0      	b.n	0x516e
    4e2c:	ffba ebff 			; <UNDEFINED> instruction: 0xffbaebff
    4e30:	2000      	movs	r0, #0
    4e32:	e250      	b.n	0x52d6
    4e34:	0018      	movs	r0, r3
    4e36:	0a00      	lsrs	r0, r0, #8
    4e38:	ffb1 ebff 			; <UNDEFINED> instruction: 0xffb1ebff
    4e3c:	3004      	adds	r0, #4
    4e3e:	e592      	b.n	0x4966
    4e40:	0001      	movs	r1, r0
    4e42:	e353      	b.n	0x54ec
    4e44:	2000      	movs	r0, #0
    4e46:	03a0      	lsls	r0, r4, #14
    4e48:	0048      	lsls	r0, r1, #1
    4e4a:	e584      	b.n	0x4956
    4e4c:	3005      	adds	r0, #5
    4e4e:	03a0      	lsls	r0, r4, #14
    4e50:	2010      	movs	r0, #16
    4e52:	0584      	lsls	r4, r0, #22
    4e54:	000c      	movs	r4, r1
    4e56:	0a00      	lsrs	r0, r0, #8
    4e58:	0000      	movs	r0, r0
    4e5a:	e353      	b.n	0x5504
    4e5c:	0004      	movs	r4, r0
    4e5e:	e282      	b.n	0x5366
    4e60:	0026      	movs	r6, r4
    4e62:	ba00      	rev	r0, r0
    4e64:	ffa6 ebff 			; <UNDEFINED> instruction: 0xffa6ebff
    4e68:	3000      	adds	r0, #0
    4e6a:	e3a0      	b.n	0x55ae
    4e6c:	004c      	lsls	r4, r1, #1
    4e6e:	e584      	b.n	0x497a
    4e70:	3050      	adds	r0, #80	; 0x50
    4e72:	e584      	b.n	0x497e
    4e74:	3000      	adds	r0, #0
    4e76:	e590      	b.n	0x499a
    4e78:	0000      	movs	r0, r0
    4e7a:	e353      	b.n	0x5524
    4e7c:	0014      	movs	r4, r2
    4e7e:	ba00      	rev	r0, r0
    4e80:	ff9f ebff 			; <UNDEFINED> instruction: 0xff9febff
    4e84:	3000      	adds	r0, #0
    4e86:	e3a0      	b.n	0x55ca
    4e88:	0010      	movs	r0, r2
    4e8a:	e584      	b.n	0x4996
    4e8c:	0003      	movs	r3, r0
    4e8e:	e1a0      	b.n	0x51d2
    4e90:	d00c      	beq.n	0x4eac
    4e92:	e28d      	b.n	0x53b0
    4e94:	4030      	ands	r0, r6
    4e96:	e8bd ff1e 	ldmia.w	sp!, {r1, r2, r3, r4, r8, r9, sl, fp, ip, sp, lr, pc}
    4e9a:	e12f      	b.n	0x50fc
    4e9c:	3009      	adds	r0, #9
    4e9e:	e3a0      	b.n	0x55e2
    4ea0:	2000      	movs	r0, #0
    4ea2:	e3a0      	b.n	0x55e6
    4ea4:	0003      	movs	r3, r0
    4ea6:	e1a0      	b.n	0x51ea
    4ea8:	2010      	movs	r0, #16
    4eaa:	e584      	b.n	0x49b6
    4eac:	d00c      	beq.n	0x4ec8
    4eae:	e28d      	b.n	0x53cc
    4eb0:	4030      	ands	r0, r6
    4eb2:	e8bd ff1e 	ldmia.w	sp!, {r1, r2, r3, r4, r8, r9, sl, fp, ip, sp, lr, pc}
    4eb6:	e12f      	b.n	0x5118
    4eb8:	3054      	adds	r0, #84	; 0x54
    4eba:	e59f      	b.n	0x49fc
    4ebc:	1054      	asrs	r4, r2, #1
    4ebe:	e59f      	b.n	0x4a00
    4ec0:	1003      	asrs	r3, r0, #32
    4ec2:	e041      	b.n	0x4f48
    4ec4:	11c1      	asrs	r1, r0, #7
    4ec6:	e1a0      	b.n	0x520a
    4ec8:	0003      	movs	r3, r0
    4eca:	e1a0      	b.n	0x520e
    4ecc:	1004      	asrs	r4, r0, #32
    4ece:	e58d      	b.n	0x49ec
    4ed0:	ffd4 eaff 			; <UNDEFINED> instruction: 0xffd4eaff
    4ed4:	0c23      	lsrs	r3, r4, #16
    4ed6:	e1a0      	b.n	0x521a
    4ed8:	000f      	movs	r7, r1
    4eda:	e200      	b.n	0x52de
    4edc:	ffb4 ebff 			; <UNDEFINED> instruction: 0xffb4ebff
    4ee0:	0000      	movs	r0, r0
    4ee2:	e350      	b.n	0x5586
    4ee4:	3000      	adds	r0, #0
    4ee6:	13a0      	asrs	r0, r4, #14
    4ee8:	3009      	adds	r0, #9
    4eea:	03a0      	lsls	r0, r4, #14
    4eec:	0010      	movs	r0, r2
    4eee:	e584      	b.n	0x49fa
    4ef0:	0003      	movs	r3, r0
    4ef2:	e1a0      	b.n	0x5236
    4ef4:	d00c      	beq.n	0x4f10
    4ef6:	e28d      	b.n	0x5414
    4ef8:	4030      	ands	r0, r6
    4efa:	e8bd ff1e 	ldmia.w	sp!, {r1, r2, r3, r4, r8, r9, sl, fp, ip, sp, lr, pc}
    4efe:	e12f      	b.n	0x5160
    4f00:	3001      	adds	r0, #1
    4f02:	e3a0      	b.n	0x5646
    4f04:	004c      	lsls	r4, r1, #1
    4f06:	e584      	b.n	0x4a12
    4f08:	3050      	adds	r0, #80	; 0x50
    4f0a:	e584      	b.n	0x4a16
    4f0c:	ffd8 eaff 			; <UNDEFINED> instruction: 0xffd8eaff
    4f10:	0000      	movs	r0, r0
    4f12:	0000      	movs	r0, r0
    4f14:	69d0      	ldr	r0, [r2, #28]
    4f16:	0800      	lsrs	r0, r0, #32
    4f18:	6a48      	ldr	r0, [r1, #36]	; 0x24
    4f1a:	0800      	lsrs	r0, r0, #32
    4f1c:	3000      	adds	r0, #0
    4f1e:	e590      	b.n	0x4a42
    4f20:	0001      	movs	r1, r0
    4f22:	e313      	b.n	0x554c
    4f24:	4010      	ands	r0, r2
    4f26:	e92d 4000 	stmdb	sp!, {lr}
    4f2a:	e1a0      	b.n	0x526e
    4f2c:	0004      	movs	r4, r0
    4f2e:	1a00      	subs	r0, r0, r0
    4f30:	0002      	movs	r2, r0
    4f32:	e313      	b.n	0x555c
    4f34:	0048      	lsls	r0, r1, #1
    4f36:	e280      	b.n	0x543a
    4f38:	0009      	movs	r1, r1
    4f3a:	0a00      	lsrs	r0, r0, #8
    4f3c:	fc62 ebff 			; <UNDEFINED> instruction: 0xfc62ebff
    4f40:	3000      	adds	r0, #0
    4f42:	e594      	b.n	0x4a6e
    4f44:	0004      	movs	r4, r0
    4f46:	e313      	b.n	0x5570
    4f48:	0009      	movs	r1, r1
    4f4a:	0a00      	lsrs	r0, r0, #8
    4f4c:	0008      	movs	r0, r1
    4f4e:	e313      	b.n	0x5578
    4f50:	000c      	movs	r4, r1
    4f52:	0a00      	lsrs	r0, r0, #8
    4f54:	0010      	movs	r0, r2
    4f56:	e313      	b.n	0x5580
    4f58:	000f      	movs	r7, r1
    4f5a:	0a00      	lsrs	r0, r0, #8
    4f5c:	4010      	ands	r0, r2
    4f5e:	e8bd ff1e 	ldmia.w	sp!, {r1, r2, r3, r4, r8, r9, sl, fp, ip, sp, lr, pc}
    4f62:	e12f      	b.n	0x51c4
    4f64:	fc54 ebff 			; <UNDEFINED> instruction: 0xfc54ebff
    4f68:	3000      	adds	r0, #0
    4f6a:	e594      	b.n	0x4a96
    4f6c:	0004      	movs	r4, r0
    4f6e:	e313      	b.n	0x5598
    4f70:	fff5 1aff 			; <UNDEFINED> instruction: 0xfff51aff
    4f74:	00d0      	lsls	r0, r2, #3
    4f76:	e284      	b.n	0x5482
    4f78:	fc57 ebff 			; <UNDEFINED> instruction: 0xfc57ebff
    4f7c:	3000      	adds	r0, #0
    4f7e:	e594      	b.n	0x4aaa
    4f80:	0008      	movs	r0, r1
    4f82:	e313      	b.n	0x55ac
    4f84:	fff2 1aff 			; <UNDEFINED> instruction: 0xfff21aff
    4f88:	0e15      	lsrs	r5, r2, #24
    4f8a:	e284      	b.n	0x5496
    4f8c:	fc56 ebff 			; <UNDEFINED> instruction: 0xfc56ebff
    4f90:	3000      	adds	r0, #0
    4f92:	e594      	b.n	0x4abe
    4f94:	0010      	movs	r0, r2
    4f96:	e313      	b.n	0x55c0
    4f98:	ffef 1aff 			; <UNDEFINED> instruction: 0xffef1aff
    4f9c:	0e1d      	lsrs	r5, r3, #24
    4f9e:	e284      	b.n	0x54aa
    4fa0:	fc73 ebff 			; <UNDEFINED> instruction: 0xfc73ebff
    4fa4:	4010      	ands	r0, r2
    4fa6:	e8bd ff1e 	ldmia.w	sp!, {r1, r2, r3, r4, r8, r9, sl, fp, ip, sp, lr, pc}
    4faa:	e12f      	b.n	0x520c
    4fac:	3000      	adds	r0, #0
    4fae:	e590      	b.n	0x4ad2
    4fb0:	0000      	movs	r0, r0
    4fb2:	e353      	b.n	0x565c
    4fb4:	3000      	adds	r0, #0
    4fb6:	1083      	asrs	r3, r0, #2
    4fb8:	0003      	movs	r3, r0
    4fba:	e1a0      	b.n	0x52fe
    4fbc:	ff1e e12f 	vrhadd.u16	d14, d14, d31
    4fc0:	ff1e e12f 	vrhadd.u16	d14, d14, d31
    4fc4:	4010      	ands	r0, r2
    4fc6:	e92d 5001 	stmdb	sp!, {r0, ip, lr}
    4fca:	e1a0      	b.n	0x530e
    4fcc:	4000      	ands	r0, r0
    4fce:	e1a0      	b.n	0x5312
    4fd0:	1040      	asrs	r0, r0, #1
    4fd2:	e595      	b.n	0x4b00
    4fd4:	0004      	movs	r4, r0
    4fd6:	e1a0      	b.n	0x531a
    4fd8:	ff85 ebff 			; <UNDEFINED> instruction: 0xff85ebff
    4fdc:	6000      	str	r0, [r0, #0]
    4fde:	e250      	b.n	0x5482
    4fe0:	0010      	movs	r0, r2
    4fe2:	1a00      	subs	r0, r0, r0
    4fe4:	2040      	movs	r0, #64	; 0x40
    4fe6:	e595      	b.n	0x4b14
    4fe8:	3010      	adds	r0, #16
    4fea:	e594      	b.n	0x4b16
    4fec:	2014      	movs	r0, #20
    4fee:	e584      	b.n	0x4afa
    4ff0:	1004      	asrs	r4, r0, #32
    4ff2:	e1a0      	b.n	0x5336
    4ff4:	2005      	movs	r0, #5
    4ff6:	e1a0      	b.n	0x533a
    4ff8:	0001      	movs	r1, r0
    4ffa:	e3a0      	b.n	0x573e
    4ffc:	e00f      	b.n	0x501e
    4ffe:	e1a0      	b.n	0x5342
    5000:	ff13 e12f 	vrhadd.u16	d14, d3, d31
    5004:	0008      	movs	r0, r1
    5006:	e350      	b.n	0x56aa
    5008:	fff0 0aff 			; <UNDEFINED> instruction: 0xfff00aff
    500c:	0007      	movs	r7, r0
    500e:	e350      	b.n	0x56b2
    5010:	0004      	movs	r4, r0
    5012:	1a00      	subs	r0, r0, r0
    5014:	0006      	movs	r6, r0
    5016:	e1a0      	b.n	0x535a
    5018:	1040      	asrs	r0, r0, #1
    501a:	e595      	b.n	0x4b48
    501c:	ffe7 ebff 			; <UNDEFINED> instruction: 0xffe7ebff
    5020:	0004      	movs	r4, r0
    5022:	e285      	b.n	0x5530
    5024:	fc1d ebff 			; <UNDEFINED> instruction: 0xfc1debff
    5028:	0454      	lsls	r4, r2, #17
    502a:	eb00 47f0 	add.w	r7, r0, r0, ror #19
    502e:	e92d 4000 	stmdb	sp!, {lr}
    5032:	e1a0      	b.n	0x5376
    5034:	5000      	str	r0, [r0, r0]
    5036:	e3a0      	b.n	0x577a
    5038:	e004      	b.n	0x5044
    503a:	e281      	b.n	0x5540
    503c:	dff2      	svc	242	; 0xf2
    503e:	e24d      	b.n	0x54dc
    5040:	6002      	str	r2, [r0, #0]
    5042:	e1a0      	b.n	0x5386
    5044:	000f      	movs	r7, r1
    5046:	e8be c00c 	ldmia.w	lr!, {r2, r3, lr, pc}
    504a:	e28d      	b.n	0x5568
    504c:	000f      	movs	r7, r1
    504e:	e8ac 000f 	stmia.w	ip!, {r0, r1, r2, r3}
    5052:	e8be 000f 	ldmia.w	lr!, {r0, r1, r2, r3}
    5056:	e8ac 000f 	stmia.w	ip!, {r0, r1, r2, r3}
    505a:	e8be 000f 	ldmia.w	lr!, {r0, r1, r2, r3}
    505e:	e8ac 000f 	stmia.w	ip!, {r0, r1, r2, r3}
    5062:	e89e 900c 	ldmia.w	lr, {r2, r3, ip, pc}
    5066:	e594      	b.n	0x4b92
    5068:	a018      	add	r0, pc, #96	; (adr r0, 0x50cc)
    506a:	e594      	b.n	0x4b96
    506c:	000f      	movs	r7, r1
    506e:	e88c 0004 	stmia.w	ip, {r2}
    5072:	e1a0      	b.n	0x53b6
    5074:	1048      	asrs	r0, r1, #1
    5076:	e59d      	b.n	0x4bb4
    5078:	5008      	str	r0, [r1, r0]
    507a:	e58d      	b.n	0x4b98
    507c:	ff5c ebff 	vqrdmlah.s16	q15, q14, <illegal reg q15.5>
    5080:	0000      	movs	r0, r0
    5082:	e356      	b.n	0x5732
    5084:	5000      	str	r0, [r0, r0]
    5086:	e1a0      	b.n	0x53ca
    5088:	700a      	strb	r2, [r1, #0]
    508a:	13a0      	asrs	r0, r4, #14
    508c:	7009      	strb	r1, [r1, #0]
    508e:	03a0      	lsls	r0, r4, #14
    5090:	6008      	str	r0, [r1, #0]
    5092:	e28d      	b.n	0x55b0
    5094:	0022      	movs	r2, r4
    5096:	ea00 3048 	and.w	r0, r0, r8, lsl #13
    509a:	e59d      	b.n	0x4bd8
    509c:	2e1e      	cmp	r6, #30
    509e:	e3a0      	b.n	0x57e2
    50a0:	3014      	adds	r0, #20
    50a2:	e584      	b.n	0x4bae
    50a4:	1006      	asrs	r6, r0, #32
    50a6:	e1a0      	b.n	0x53ea
    50a8:	0f7a      	lsrs	r2, r7, #29
    50aa:	e28d      	b.n	0x55c8
    50ac:	045a      	lsls	r2, r3, #17
    50ae:	eb00 3010 	add.w	r0, r0, r0, lsr #12
    50b2:	e594      	b.n	0x4bde
    50b4:	2f7a      	cmp	r7, #122	; 0x7a
    50b6:	e28d      	b.n	0x55d4
    50b8:	1004      	asrs	r4, r0, #32
    50ba:	e1a0      	b.n	0x53fe
    50bc:	0007      	movs	r7, r0
    50be:	e1a0      	b.n	0x5402
    50c0:	e00f      	b.n	0x50e2
    50c2:	e1a0      	b.n	0x5406
    50c4:	ff13 e12f 	vrhadd.u16	d14, d3, d31
    50c8:	3220      	adds	r2, #32
    50ca:	e59d      	b.n	0x4c08
    50cc:	8000      	strh	r0, [r0, #0]
    50ce:	e1a0      	b.n	0x5412
    50d0:	304c      	adds	r0, #76	; 0x4c
    50d2:	e58d      	b.n	0x4bf0
    50d4:	0440      	lsls	r0, r0, #17
    50d6:	e88d 1007 	stmia.w	sp, {r0, r1, r2, ip}
    50da:	e1a0      	b.n	0x541e
    50dc:	3004      	adds	r0, #4
    50de:	e1a0      	b.n	0x5422
    50e0:	2004      	movs	r0, #4
    50e2:	e1a0      	b.n	0x5426
    50e4:	0001      	movs	r1, r0
    50e6:	e3a0      	b.n	0x582a
    50e8:	e00f      	b.n	0x510a
    50ea:	e1a0      	b.n	0x542e
    50ec:	ff19 e12f 	vrhadd.u16	d14, d9, d31
    50f0:	0000      	movs	r0, r0
    50f2:	e350      	b.n	0x5796
    50f4:	0017      	movs	r7, r2
    50f6:	1a00      	subs	r0, r0, r0
    50f8:	2e1e      	cmp	r6, #30
    50fa:	e3a0      	b.n	0x583e
    50fc:	1f7a      	subs	r2, r7, #5
    50fe:	e28d      	b.n	0x561c
    5100:	0006      	movs	r6, r0
    5102:	e1a0      	b.n	0x5446
    5104:	0444      	lsls	r4, r0, #17
    5106:	eb00 0008 	add.w	r0, r0, r8
    510a:	e358      	b.n	0x57be
    510c:	0016      	movs	r6, r2
    510e:	1a00      	subs	r0, r0, r0
    5110:	1048      	asrs	r0, r1, #1
    5112:	e59d      	b.n	0x4c50
    5114:	0004      	movs	r4, r0
    5116:	e1a0      	b.n	0x545a
    5118:	ff35 ebff 	vqrdmlah.s<illegal width 64>	q7, <illegal reg q10.5>, <illegal reg q15.5>
    511c:	7009      	strb	r1, [r1, #0]
    511e:	e3a0      	b.n	0x5862
    5120:	5000      	str	r0, [r0, r0]
    5122:	e1a0      	b.n	0x5466
    5124:	0000      	movs	r0, r0
    5126:	e355      	b.n	0x57d4
    5128:	ffda 0aff 			; <UNDEFINED> instruction: 0xffda0aff
    512c:	3040      	adds	r0, #64	; 0x40
    512e:	e59d      	b.n	0x4c6c
    5130:	0440      	lsls	r0, r0, #17
    5132:	e88d 304c 	stmia.w	sp, {r2, r3, r6, ip, sp}
    5136:	e58d      	b.n	0x4c54
    5138:	1010      	asrs	r0, r2, #32
    513a:	e387      	b.n	0x584c
    513c:	3004      	adds	r0, #4
    513e:	e1a0      	b.n	0x5482
    5140:	2004      	movs	r0, #4
    5142:	e1a0      	b.n	0x5486
    5144:	0001      	movs	r1, r0
    5146:	e3a0      	b.n	0x588a
    5148:	e00f      	b.n	0x516a
    514a:	e1a0      	b.n	0x548e
    514c:	ff19 e12f 	vrhadd.u16	d14, d9, d31
    5150:	0000      	movs	r0, r0
    5152:	e350      	b.n	0x57f6
    5154:	0000      	movs	r0, r0
    5156:	0a00      	lsrs	r0, r0, #8
    5158:	5009      	str	r1, [r1, r0]
    515a:	e3a0      	b.n	0x589e
    515c:	0005      	movs	r5, r0
    515e:	e1a0      	b.n	0x54a2
    5160:	dff2      	svc	242	; 0xf2
    5162:	e28d      	b.n	0x5680
    5164:	47f0      	blx	lr
    5166:	e8bd ff1e 	ldmia.w	sp!, {r1, r2, r3, r4, r8, r9, sl, fp, ip, sp, lr, pc}
    516a:	e12f      	b.n	0x53cc
    516c:	0007      	movs	r7, r0
    516e:	e358      	b.n	0x5822
    5170:	fff8 1aff 			; <UNDEFINED> instruction: 0xfff81aff
    5174:	0005      	movs	r5, r0
    5176:	e1a0      	b.n	0x54ba
    5178:	1048      	asrs	r0, r1, #1
    517a:	e59d      	b.n	0x4cb8
    517c:	ff8f ebff 			; <UNDEFINED> instruction: 0xff8febff
    5180:	000c      	movs	r4, r1
    5182:	e28d      	b.n	0x56a0
    5184:	fbc5 ebff 			; <UNDEFINED> instruction: 0xfbc5ebff
    5188:	4070      	eors	r0, r6
    518a:	e92d 5000 	stmdb	sp!, {ip, lr}
    518e:	e3e0      	b.n	0x5952
    5190:	303c      	adds	r0, #60	; 0x3c
    5192:	e591      	b.n	0x4cb8
    5194:	3040      	adds	r0, #64	; 0x40
    5196:	e581      	b.n	0x4c9c
    5198:	e004      	b.n	0x51a4
    519a:	e281      	b.n	0x56a0
    519c:	de1e      	udf	#30
    519e:	e24d      	b.n	0x563c
    51a0:	6001      	str	r1, [r0, #0]
    51a2:	e1a0      	b.n	0x54e6
    51a4:	4000      	ands	r0, r0
    51a6:	e1a0      	b.n	0x54ea
    51a8:	000f      	movs	r7, r1
    51aa:	e8be c004 	ldmia.w	lr!, {r2, lr, pc}
    51ae:	e28d      	b.n	0x56cc
    51b0:	000f      	movs	r7, r1
    51b2:	e8ac 000f 	stmia.w	ip!, {r0, r1, r2, r3}
    51b6:	e8be 000f 	ldmia.w	lr!, {r0, r1, r2, r3}
    51ba:	e8ac 000f 	stmia.w	ip!, {r0, r1, r2, r3}
    51be:	e8be 000f 	ldmia.w	lr!, {r0, r1, r2, r3}
    51c2:	e8ac 000f 	stmia.w	ip!, {r0, r1, r2, r3}
    51c6:	e89e 000f 	ldmia.w	lr, {r0, r1, r2, r3}
    51ca:	e88c 5000 	stmia.w	ip, {ip, lr}
    51ce:	e58d      	b.n	0x4cec
    51d0:	0007      	movs	r7, r0
    51d2:	ea00 3010 	and.w	r0, r0, r0, lsr #12
    51d6:	e594      	b.n	0x4d02
    51d8:	200d      	movs	r0, #13
    51da:	e1a0      	b.n	0x551e
    51dc:	1004      	asrs	r4, r0, #32
    51de:	e1a0      	b.n	0x5522
    51e0:	e00f      	b.n	0x5202
    51e2:	e1a0      	b.n	0x5526
    51e4:	ff13 e12f 	vrhadd.u16	d14, d3, d31
    51e8:	0008      	movs	r0, r1
    51ea:	e350      	b.n	0x588e
    51ec:	5000      	str	r0, [r0, r0]
    51ee:	e1a0      	b.n	0x5532
    51f0:	0008      	movs	r0, r1
    51f2:	1a00      	subs	r0, r0, r0
    51f4:	1040      	asrs	r0, r0, #1
    51f6:	e59d      	b.n	0x4d34
    51f8:	0004      	movs	r4, r0
    51fa:	e1a0      	b.n	0x553e
    51fc:	fefc ebff 			; <UNDEFINED> instruction: 0xfefcebff
    5200:	0000      	movs	r0, r0
    5202:	e350      	b.n	0x58a6
    5204:	fff2 0aff 			; <UNDEFINED> instruction: 0xfff20aff
    5208:	0009      	movs	r1, r1
    520a:	e3a0      	b.n	0x594e
    520c:	de1e      	udf	#30
    520e:	e28d      	b.n	0x572c
    5210:	4070      	eors	r0, r6
    5212:	e8bd ff1e 	ldmia.w	sp!, {r1, r2, r3, r4, r8, r9, sl, fp, ip, sp, lr, pc}
    5216:	e12f      	b.n	0x5478
    5218:	000d      	movs	r5, r1
    521a:	e1a0      	b.n	0x555e
    521c:	ff3e ebff 	vqrdmlah.s<illegal width 64>	q7, q15, <illegal reg q15.5>
    5220:	0006      	movs	r6, r0
    5222:	e355      	b.n	0x58d0
    5224:	fff7 1aff 			; <UNDEFINED> instruction: 0xfff71aff
    5228:	1006      	asrs	r6, r0, #32
    522a:	e1a0      	b.n	0x556e
    522c:	0004      	movs	r4, r0
    522e:	e1a0      	b.n	0x5572
    5230:	ff63 ebff 	vqrdmlah.s32	q15, <illegal reg q9.5>, <illegal reg q15.5>
    5234:	e004      	b.n	0x5240
    5236:	e52d      	b.n	0x4c94
    5238:	e03c      	b.n	0x52b4
    523a:	e593      	b.n	0x4d64
    523c:	100c      	asrs	r4, r1, #32
    523e:	e580      	b.n	0x4d42
    5240:	2018      	movs	r0, #24
    5242:	e580      	b.n	0x4d46
    5244:	1003      	asrs	r3, r0, #32
    5246:	e1a0      	b.n	0x558a
    5248:	e040      	b.n	0x52cc
    524a:	e583      	b.n	0x4d54
    524c:	2000      	movs	r0, #0
    524e:	e3a0      	b.n	0x5992
    5250:	e004      	b.n	0x525c
    5252:	e49d      	b.n	0x4b90
    5254:	ff74 eaff 	vpmin.u<illegal width 64>	q15, q10, <illegal reg q15.5>
    5258:	4070      	eors	r0, r6
    525a:	e92d 600c 	stmdb	sp!, {r2, r3, sp, lr}
    525e:	e590      	b.n	0x4d82
    5260:	3014      	adds	r0, #20
    5262:	e590      	b.n	0x4d86
    5264:	0000      	movs	r0, r0
    5266:	e356      	b.n	0x5916
    5268:	3040      	adds	r0, #64	; 0x40
    526a:	e581      	b.n	0x4d70
    526c:	0013      	movs	r3, r2
    526e:	1a00      	subs	r0, r0, r0
    5270:	3010      	adds	r0, #16
    5272:	e590      	b.n	0x4d96
    5274:	2001      	movs	r0, #1
    5276:	e1a0      	b.n	0x55ba
    5278:	4000      	ands	r0, r0
    527a:	e1a0      	b.n	0x55be
    527c:	5001      	str	r1, [r0, r0]
    527e:	e1a0      	b.n	0x55c2
    5280:	1000      	asrs	r0, r0, #32
    5282:	e1a0      	b.n	0x55c6
    5284:	0002      	movs	r2, r0
    5286:	e3a0      	b.n	0x59ca
    5288:	e00f      	b.n	0x52aa
    528a:	e1a0      	b.n	0x55ce
    528c:	ff13 e12f 	vrhadd.u16	d14, d3, d31
    5290:	0007      	movs	r7, r0
    5292:	e350      	b.n	0x5936
    5294:	0004      	movs	r4, r0
    5296:	0a00      	lsrs	r0, r0, #8
    5298:	0008      	movs	r0, r1
    529a:	e350      	b.n	0x593e
    529c:	000a      	movs	r2, r1
    529e:	1a00      	subs	r0, r0, r0
    52a0:	1005      	asrs	r5, r0, #32
    52a2:	e1a0      	b.n	0x55e6
    52a4:	0004      	movs	r4, r0
    52a6:	e1a0      	b.n	0x55ea
    52a8:	ff45 ebff 	vqrdmlah.s<illegal width 8>	q15, <illegal reg q10.5>, <illegal reg q15.5>
    52ac:	0006      	movs	r6, r0
    52ae:	e1a0      	b.n	0x55f2
    52b0:	1040      	asrs	r0, r0, #1
    52b2:	e595      	b.n	0x4de0
    52b4:	ff41 ebff 	vqrdmlah.s<illegal width 8>	q15, <illegal reg q8.5>, <illegal reg q15.5>
    52b8:	0004      	movs	r4, r0
    52ba:	e285      	b.n	0x57c8
    52bc:	fb77 ebff 			; <UNDEFINED> instruction: 0xfb77ebff
    52c0:	2001      	movs	r0, #1
    52c2:	e3a0      	b.n	0x5a06
    52c4:	ff58 ebff 	vqrdmlah.s16	q15, q12, <illegal reg q15.5>
    52c8:	03ac      	lsls	r4, r5, #14
    52ca:	eb00 03ab 	add.w	r3, r0, fp, asr #2
    52ce:	eb00 300c 	add.w	r0, r0, ip, lsl #12
    52d2:	e590      	b.n	0x4df6
    52d4:	0000      	movs	r0, r0
    52d6:	e353      	b.n	0x5980
    52d8:	c03c      	stmia	r0!, {r2, r3, r4, r5}
    52da:	1591      	asrs	r1, r2, #22
    52dc:	2000      	movs	r0, #0
    52de:	13a0      	asrs	r0, r4, #14
    52e0:	c040      	stmia	r0!, {r6}
    52e2:	1581      	asrs	r1, r0, #22
    52e4:	ff50 1aff 	vpmin.u16	<illegal reg q8.5>, q8, <illegal reg q15.5>
    52e8:	ffa6 eaff 			; <UNDEFINED> instruction: 0xffa6eaff
    52ec:	0004      	movs	r4, r0
    52ee:	e351      	b.n	0x5994
    52f0:	f101 979f 	b.w	0xd07232
    52f4:	0014      	movs	r4, r2
    52f6:	ea00 5314 	and.w	r3, r0, r4, lsr #20
    52fa:	0800      	lsrs	r0, r0, #32
    52fc:	530c      	strh	r4, [r1, r4]
    52fe:	0800      	lsrs	r0, r0, #32
    5300:	534c      	strh	r4, [r1, r5]
    5302:	0800      	lsrs	r0, r0, #32
    5304:	530c      	strh	r4, [r1, r4]
    5306:	0800      	lsrs	r0, r0, #32
    5308:	530c      	strh	r4, [r1, r4]
    530a:	0800      	lsrs	r0, r0, #32
    530c:	0001      	movs	r1, r0
    530e:	e3a0      	b.n	0x5a52
    5310:	ff1e e12f 	vrhadd.u16	d14, d14, d31
    5314:	000f      	movs	r7, r1
    5316:	e352      	b.n	0x59be
    5318:	1000      	asrs	r0, r0, #32
    531a:	93a0      	str	r3, [sp, #640]	; 0x280
    531c:	1001      	asrs	r1, r0, #32
    531e:	83a0      	strh	r0, [r4, #28]
    5320:	0000      	movs	r0, r0
    5322:	e353      	b.n	0x59cc
    5324:	3001      	adds	r0, #1
    5326:	01a0      	lsls	r0, r4, #6
    5328:	3001      	adds	r0, #1
    532a:	13a0      	asrs	r0, r4, #14
    532c:	0000      	movs	r0, r0
    532e:	e353      	b.n	0x59d8
    5330:	0005      	movs	r5, r0
    5332:	1a00      	subs	r0, r0, r0
    5334:	0102      	lsls	r2, r0, #4
    5336:	e080      	b.n	0x543a
    5338:	2004      	movs	r0, #4
    533a:	e590      	b.n	0x4e5e
    533c:	0003      	movs	r3, r0
    533e:	e1a0      	b.n	0x5682
    5340:	3000      	adds	r0, #0
    5342:	e59d      	b.n	0x4e80
    5344:	2000      	movs	r0, #0
    5346:	e583      	b.n	0x4e50
    5348:	ff1e e12f 	vrhadd.u16	d14, d14, d31
    534c:	0002      	movs	r2, r0
    534e:	e3a0      	b.n	0x5a92
    5350:	ff1e e12f 	vrhadd.u16	d14, d14, d31
    5354:	3000      	adds	r0, #0
    5356:	e3a0      	b.n	0x5a9a
    5358:	e004      	b.n	0x5364
    535a:	e52d      	b.n	0x4db8
    535c:	d014      	beq.n	0x5388
    535e:	e24d      	b.n	0x57fc
    5360:	c00c      	stmia	r0!, {r2, r3}
    5362:	e28d      	b.n	0x5880
    5364:	2001      	movs	r0, #1
    5366:	e1a0      	b.n	0x56aa
    5368:	c000      	stmia	r0!, {}
    536a:	e58d      	b.n	0x4e88
    536c:	1003      	asrs	r3, r0, #32
    536e:	e1a0      	b.n	0x56b2
    5370:	ffdd ebff 			; <UNDEFINED> instruction: 0xffddebff
    5374:	000c      	movs	r4, r1
    5376:	e59d      	b.n	0x4eb4
    5378:	d014      	beq.n	0x53a4
    537a:	e28d      	b.n	0x5898
    537c:	e004      	b.n	0x5388
    537e:	e49d      	b.n	0x4cbc
    5380:	ff1e e12f 	vrhadd.u16	d14, d14, d31
    5384:	0004      	movs	r4, r0
    5386:	e351      	b.n	0x5a2c
    5388:	f101 979f 	b.w	0xd072ca
    538c:	0014      	movs	r4, r2
    538e:	ea00 53ac 	and.w	r3, r0, ip, asr #22
    5392:	0800      	lsrs	r0, r0, #32
    5394:	53a4      	strh	r4, [r4, r6]
    5396:	0800      	lsrs	r0, r0, #32
    5398:	53e4      	strh	r4, [r4, r7]
    539a:	0800      	lsrs	r0, r0, #32
    539c:	53a4      	strh	r4, [r4, r6]
    539e:	0800      	lsrs	r0, r0, #32
    53a0:	53a4      	strh	r4, [r4, r6]
    53a2:	0800      	lsrs	r0, r0, #32
    53a4:	0001      	movs	r1, r0
    53a6:	e3a0      	b.n	0x5aea
    53a8:	ff1e e12f 	vrhadd.u16	d14, d14, d31
    53ac:	000f      	movs	r7, r1
    53ae:	e352      	b.n	0x5a56
    53b0:	1000      	asrs	r0, r0, #32
    53b2:	93a0      	str	r3, [sp, #640]	; 0x280
    53b4:	1001      	asrs	r1, r0, #32
    53b6:	83a0      	strh	r0, [r4, #28]
    53b8:	0000      	movs	r0, r0
    53ba:	e353      	b.n	0x5a64
    53bc:	3001      	adds	r0, #1
    53be:	01a0      	lsls	r0, r4, #6
    53c0:	3001      	adds	r0, #1
    53c2:	13a0      	asrs	r0, r4, #14
    53c4:	0000      	movs	r0, r0
    53c6:	e353      	b.n	0x5a70
    53c8:	0005      	movs	r5, r0
    53ca:	1a00      	subs	r0, r0, r0
    53cc:	1000      	asrs	r0, r0, #32
    53ce:	e59d      	b.n	0x4f0c
    53d0:	1000      	asrs	r0, r0, #32
    53d2:	e591      	b.n	0x4ef8
    53d4:	2102      	movs	r1, #2
    53d6:	e080      	b.n	0x54da
    53d8:	1004      	asrs	r4, r0, #32
    53da:	e582      	b.n	0x4ee2
    53dc:	0003      	movs	r3, r0
    53de:	e1a0      	b.n	0x5722
    53e0:	ff1e e12f 	vrhadd.u16	d14, d14, d31
    53e4:	0002      	movs	r2, r0
    53e6:	e3a0      	b.n	0x5b2a
    53e8:	ff1e e12f 	vrhadd.u16	d14, d14, d31
    53ec:	3000      	adds	r0, #0
    53ee:	e3a0      	b.n	0x5b32
    53f0:	e004      	b.n	0x53fc
    53f2:	e52d      	b.n	0x4e50
    53f4:	d014      	beq.n	0x5420
    53f6:	e24d      	b.n	0x5894
    53f8:	c00c      	stmia	r0!, {r2, r3}
    53fa:	e28d      	b.n	0x5918
    53fc:	200c      	movs	r0, #12
    53fe:	e58d      	b.n	0x4f1c
    5400:	c000      	stmia	r0!, {}
    5402:	e58d      	b.n	0x4f20
    5404:	2001      	movs	r0, #1
    5406:	e1a0      	b.n	0x574a
    5408:	1003      	asrs	r3, r0, #32
    540a:	e1a0      	b.n	0x574e
    540c:	ffdc ebff 			; <UNDEFINED> instruction: 0xffdcebff
    5410:	d014      	beq.n	0x543c
    5412:	e28d      	b.n	0x5930
    5414:	e004      	b.n	0x5420
    5416:	e49d      	b.n	0x4d54
    5418:	ff1e e12f 	vrhadd.u16	d14, d14, d31
    541c:	4070      	eors	r0, r6
    541e:	e92d 4000 	stmdb	sp!, {lr}
    5422:	e3e0      	b.n	0x5be6
    5424:	303c      	adds	r0, #60	; 0x3c
    5426:	e592      	b.n	0x4f4e
    5428:	3040      	adds	r0, #64	; 0x40
    542a:	e582      	b.n	0x4f32
    542c:	c004      	stmia	r0!, {r2}
    542e:	e282      	b.n	0x5936
    5430:	df8e      	svc	142	; 0x8e
    5432:	e24d      	b.n	0x58d0
    5434:	6000      	str	r0, [r0, #0]
    5436:	e1a0      	b.n	0x577a
    5438:	5001      	str	r1, [r0, r0]
    543a:	e1a0      	b.n	0x577e
    543c:	000f      	movs	r7, r1
    543e:	e8bc e05c 	ldmia.w	ip!, {r2, r3, r4, r6, sp, lr, pc}
    5442:	e28d      	b.n	0x5960
    5444:	000f      	movs	r7, r1
    5446:	e8ae 000f 	stmia.w	lr!, {r0, r1, r2, r3}
    544a:	e8bc 000f 	ldmia.w	ip!, {r0, r1, r2, r3}
    544e:	e8ae 000f 	stmia.w	lr!, {r0, r1, r2, r3}
    5452:	e8bc 000f 	ldmia.w	ip!, {r0, r1, r2, r3}
    5456:	e8ae 000f 	stmia.w	lr!, {r0, r1, r2, r3}
    545a:	e89c 000f 	ldmia.w	ip, {r0, r1, r2, r3}
    545e:	e88e 4058 	stmia.w	lr, {r3, r4, r6, lr}
    5462:	e58d      	b.n	0x4f80
    5464:	0013      	movs	r3, r2
    5466:	ea00 200d 	and.w	r0, r0, sp, lsl #8
    546a:	e1a0      	b.n	0x57ae
    546c:	100c      	asrs	r4, r1, #32
    546e:	e3a0      	b.n	0x5bb2
    5470:	0058      	lsls	r0, r3, #1
    5472:	e28d      	b.n	0x5990
    5474:	ffdc ebff 			; <UNDEFINED> instruction: 0xffdcebff
    5478:	1005      	asrs	r5, r0, #32
    547a:	e1a0      	b.n	0x57be
    547c:	0058      	lsls	r0, r3, #1
    547e:	e28d      	b.n	0x599c
    5480:	e00f      	b.n	0x54a2
    5482:	e1a0      	b.n	0x57c6
    5484:	ff16 e12f 	vrhadd.u16	d14, d6, d31
    5488:	0000      	movs	r0, r0
    548a:	e350      	b.n	0x5b2e
    548c:	000e      	movs	r6, r1
    548e:	1a00      	subs	r0, r0, r0
    5490:	3010      	adds	r0, #16
    5492:	e59d      	b.n	0x4fd0
    5494:	2058      	movs	r0, #88	; 0x58
    5496:	e28d      	b.n	0x59b4
    5498:	100d      	asrs	r5, r1, #32
    549a:	e1a0      	b.n	0x57de
    549c:	0008      	movs	r0, r1
    549e:	e3a0      	b.n	0x5be2
    54a0:	e00f      	b.n	0x54c2
    54a2:	e1a0      	b.n	0x57e6
    54a4:	ff13 e12f 	vrhadd.u16	d14, d3, d31
    54a8:	3005      	adds	r0, #5
    54aa:	e240      	b.n	0x592e
    54ac:	00fb      	lsls	r3, r7, #3
    54ae:	e313      	b.n	0x5ad8
    54b0:	4000      	ands	r0, r0
    54b2:	e1a0      	b.n	0x57f6
    54b4:	0005      	movs	r5, r0
    54b6:	0a00      	lsrs	r0, r0, #8
    54b8:	1098      	asrs	r0, r3, #2
    54ba:	e59d      	b.n	0x4ff8
    54bc:	000d      	movs	r5, r1
    54be:	e1a0      	b.n	0x5802
    54c0:	fe4b ebff 			; <UNDEFINED> instruction: 0xfe4bebff
    54c4:	0000      	movs	r0, r0
    54c6:	e350      	b.n	0x5b6a
    54c8:	ffe6 0aff 			; <UNDEFINED> instruction: 0xffe60aff
    54cc:	4009      	ands	r1, r1
    54ce:	e3a0      	b.n	0x5c12
    54d0:	0058      	lsls	r0, r3, #1
    54d2:	e28d      	b.n	0x59f0
    54d4:	fe90 ebff 			; <UNDEFINED> instruction: 0xfe90ebff
    54d8:	0004      	movs	r4, r0
    54da:	e1a0      	b.n	0x581e
    54dc:	df8e      	svc	142	; 0x8e
    54de:	e28d      	b.n	0x59fc
    54e0:	4070      	eors	r0, r6
    54e2:	e8bd ff1e 	ldmia.w	sp!, {r1, r2, r3, r4, r8, r9, sl, fp, ip, sp, lr, pc}
    54e6:	e12f      	b.n	0x5748
    54e8:	4ff0      	ldr	r7, [pc, #960]	; (0x58ac)
    54ea:	e92d 404c 	stmdb	sp!, {r2, r3, r6, lr}
    54ee:	e591      	b.n	0x5014
    54f0:	5001      	str	r1, [r0, r0]
    54f2:	e1a0      	b.n	0x5836
    54f4:	1004      	asrs	r4, r0, #32
    54f6:	e494      	b.n	0x4e22
    54f8:	d024      	beq.n	0x5544
    54fa:	e24d      	b.n	0x5998
    54fc:	8000      	strh	r0, [r0, #0]
    54fe:	e253      	b.n	0x59a8
    5500:	6002      	str	r2, [r0, #0]
    5502:	e1a0      	b.n	0x5846
    5504:	4018      	ands	r0, r3
    5506:	e58d      	b.n	0x5024
    5508:	7003      	strb	r3, [r0, #0]
    550a:	e200      	b.n	0x590e
    550c:	0065      	lsls	r5, r4, #1
    550e:	0a00      	lsrs	r0, r0, #8
    5510:	2002      	movs	r0, #2
    5512:	e3a0      	b.n	0x5c56
    5514:	3821      	subs	r0, #33	; 0x21
    5516:	e1a0      	b.n	0x585a
    5518:	1801      	adds	r1, r0, r0
    551a:	e1a0      	b.n	0x585e
    551c:	301d      	adds	r0, #29
    551e:	e5cd      	b.n	0x50bc
    5520:	1014      	asrs	r4, r2, #32
    5522:	e58d      	b.n	0x5040
    5524:	30ff      	adds	r0, #255	; 0xff
    5526:	e203      	b.n	0x5930
    5528:	201c      	movs	r0, #28
    552a:	e5cd      	b.n	0x50c8
    552c:	4213      	tst	r3, r2
    552e:	e084      	b.n	0x563a
    5530:	3050      	adds	r0, #80	; 0x50
    5532:	e595      	b.n	0x5060
    5534:	0002      	movs	r2, r0
    5536:	e357      	b.n	0x5be8
    5538:	4038      	ands	r0, r7
    553a:	0595      	lsls	r5, r2, #22
    553c:	3001      	adds	r0, #1
    553e:	e213      	b.n	0x5968
    5540:	0065      	lsls	r5, r4, #1
    5542:	1a00      	subs	r0, r0, r0
    5544:	01a0      	lsls	r0, r4, #6
    5546:	e1a0      	b.n	0x588a
    5548:	0001      	movs	r1, r0
    554a:	e220      	b.n	0x598e
    554c:	3004      	adds	r0, #4
    554e:	e58d      	b.n	0x506c
    5550:	3001      	adds	r0, #1
    5552:	e200      	b.n	0x5956
    5554:	3008      	adds	r0, #8
    5556:	e58d      	b.n	0x5074
    5558:	b000      	add	sp, #0
    555a:	e594      	b.n	0x5086
    555c:	0000      	movs	r0, r0
    555e:	e35b      	b.n	0x5c18
    5560:	00df      	lsls	r7, r3, #3
    5562:	0a00      	lsrs	r0, r0, #8
    5564:	0002      	movs	r2, r0
    5566:	e358      	b.n	0x5c1a
    5568:	a004      	add	r0, pc, #16	; (adr r0, 0x557c)
    556a:	0594      	lsls	r4, r2, #22
    556c:	a0b2      	add	r0, pc, #712	; (adr r0, 0x5838)
    556e:	11d4      	asrs	r4, r2, #7
    5570:	3048      	adds	r0, #72	; 0x48
    5572:	e595      	b.n	0x50a0
    5574:	9001      	str	r0, [sp, #4]
    5576:	e3ca      	b.n	0x5d0e
    5578:	100f      	asrs	r7, r1, #32
    557a:	e3a0      	b.n	0x5cbe
    557c:	0006      	movs	r6, r0
    557e:	e1a0      	b.n	0x58c2
    5580:	b0b0      	sub	sp, #192	; 0xc0
    5582:	11d4      	asrs	r4, r2, #7
    5584:	9003      	str	r0, [sp, #12]
    5586:	e089      	b.n	0x569c
    5588:	4008      	ands	r0, r1
    558a:	0284      	lsls	r4, r0, #10
    558c:	4004      	ands	r4, r0
    558e:	1284      	asrs	r4, r0, #10
    5590:	ff6f ebff 	vqrdmlah.s32	q15, <illegal reg q15.5>, <illegal reg q15.5>
    5594:	308a      	adds	r0, #138	; 0x8a
    5596:	e1a0      	b.n	0x58da
    5598:	3002      	adds	r0, #2
    559a:	e203      	b.n	0x59a4
    559c:	2001      	movs	r0, #1
    559e:	e20b      	b.n	0x59b8
    55a0:	0000      	movs	r0, r0
    55a2:	e159      	b.n	0x5858
    55a4:	3002      	adds	r0, #2
    55a6:	e183      	b.n	0x58b0
    55a8:	002b      	movs	r3, r5
    55aa:	8a00      	ldrh	r0, [r0, #16]
    55ac:	b001      	add	sp, #4
    55ae:	e3cb      	b.n	0x5d48
    55b0:	9009      	str	r0, [sp, #36]	; 0x24
    55b2:	e08b      	b.n	0x56cc
    55b4:	0000      	movs	r0, r0
    55b6:	e159      	b.n	0x586c
    55b8:	0027      	movs	r7, r4
    55ba:	9a00      	ldr	r2, [sp, #0]
    55bc:	0001      	movs	r1, r0
    55be:	e353      	b.n	0x5c68
    55c0:	006b      	lsls	r3, r5, #1
    55c2:	0a00      	lsrs	r0, r0, #8
    55c4:	0000      	movs	r0, r0
    55c6:	e353      	b.n	0x5c70
    55c8:	003b      	movs	r3, r7
    55ca:	0a00      	lsrs	r0, r0, #8
    55cc:	0002      	movs	r2, r0
    55ce:	e353      	b.n	0x5c78
    55d0:	0030      	movs	r0, r6
    55d2:	1a00      	subs	r0, r0, r0
    55d4:	3000      	adds	r0, #0
    55d6:	e594      	b.n	0x5102
    55d8:	0000      	movs	r0, r0
    55da:	e357      	b.n	0x5c8c
    55dc:	9102      	str	r1, [sp, #8]
    55de:	e3c3      	b.n	0x5d68
    55e0:	0046      	lsls	r6, r0, #1
    55e2:	1a00      	subs	r0, r0, r0
    55e4:	0000      	movs	r0, r0
    55e6:	e359      	b.n	0x5c9c
    55e8:	2008      	movs	r0, #8
    55ea:	e59d      	b.n	0x5128
    55ec:	2001      	movs	r0, #1
    55ee:	03a0      	lsls	r0, r4, #14
    55f0:	0000      	movs	r0, r0
    55f2:	e352      	b.n	0x5c9a
    55f4:	0022      	movs	r2, r4
    55f6:	0a00      	lsrs	r0, r0, #8
    55f8:	0000      	movs	r0, r0
    55fa:	e359      	b.n	0x5cb0
    55fc:	00a2      	lsls	r2, r4, #2
    55fe:	0a00      	lsrs	r0, r0, #8
    5600:	3058      	adds	r0, #88	; 0x58
    5602:	e285      	b.n	0x5b10
    5604:	a007      	add	r0, pc, #28	; (adr r0, 0x5624)
    5606:	e1a0      	b.n	0x594a
    5608:	700c      	strb	r4, [r1, #0]
    560a:	e58d      	b.n	0x5128
    560c:	b004      	add	sp, #16
    560e:	e284      	b.n	0x5b1a
    5610:	7003      	strb	r3, [r0, #0]
    5612:	e1a0      	b.n	0x5956
    5614:	0002      	movs	r2, r0
    5616:	ea00 0009 	and.w	r0, r0, r9
    561a:	e15a      	b.n	0x58d2
    561c:	b004      	add	sp, #16
    561e:	e28b      	b.n	0x5b38
    5620:	0099      	lsls	r1, r3, #2
    5622:	0a00      	lsrs	r0, r0, #8
    5624:	000b      	movs	r3, r1
    5626:	e1a0      	b.n	0x596a
    5628:	7010      	strb	r0, [r2, #0]
    562a:	e58d      	b.n	0x5148
    562c:	fe5e ebff 			; <UNDEFINED> instruction: 0xfe5eebff
    5630:	3010      	adds	r0, #16
    5632:	e28d      	b.n	0x5b50
    5634:	1000      	asrs	r0, r0, #32
    5636:	e1a0      	b.n	0x597a
    5638:	2000      	movs	r0, #0
    563a:	e3a0      	b.n	0x5d7e
    563c:	0005      	movs	r5, r0
    563e:	e1a0      	b.n	0x5982
    5640:	0000      	movs	r0, r0
    5642:	e1a0      	b.n	0x5986
    5644:	0000      	movs	r0, r0
    5646:	e350      	b.n	0x5cea
    5648:	a001      	add	r0, pc, #4	; (adr r0, 0x5650)
    564a:	e28a      	b.n	0x5b62
    564c:	fff1 0aff 			; <UNDEFINED> instruction: 0xfff10aff
    5650:	700c      	strb	r4, [r1, #0]
    5652:	e59d      	b.n	0x5190
    5654:	3000      	adds	r0, #0
    5656:	e594      	b.n	0x5182
    5658:	0009      	movs	r1, r1
    565a:	ea00 0001 	and.w	r0, r0, r1
    565e:	e353      	b.n	0x5d08
    5660:	0019      	movs	r1, r3
    5662:	0a00      	lsrs	r0, r0, #8
    5664:	0000      	movs	r0, r0
    5666:	e353      	b.n	0x5d10
    5668:	0015      	movs	r5, r2
    566a:	0a00      	lsrs	r0, r0, #8
    566c:	0002      	movs	r2, r0
    566e:	e353      	b.n	0x5d18
    5670:	0008      	movs	r0, r1
    5672:	1a00      	subs	r0, r0, r0
    5674:	3000      	adds	r0, #0
    5676:	e594      	b.n	0x51a2
    5678:	0000      	movs	r0, r0
    567a:	e357      	b.n	0x5d2c
    567c:	9102      	str	r1, [sp, #8]
    567e:	e3c3      	b.n	0x5e08
    5680:	001e      	movs	r6, r3
    5682:	1a00      	subs	r0, r0, r0
    5684:	0000      	movs	r0, r0
    5686:	e353      	b.n	0x5d30
    5688:	4004      	ands	r4, r0
    568a:	b284      	uxth	r4, r0
    568c:	9001      	str	r0, [sp, #4]
    568e:	e289      	b.n	0x5ba4
    5690:	4109      	asrs	r1, r1
    5692:	e084      	b.n	0x579e
    5694:	ffaf eaff 			; <UNDEFINED> instruction: 0xffafeaff
    5698:	0009      	movs	r1, r1
    569a:	e3a0      	b.n	0x5dde
    569c:	d024      	beq.n	0x56e8
    569e:	e28d      	b.n	0x5bbc
    56a0:	4ff0      	ldr	r7, [pc, #960]	; (0x5a64)
    56a2:	e8bd ff1e 	ldmia.w	sp!, {r1, r2, r3, r4, r8, r9, sl, fp, ip, sp, lr, pc}
    56a6:	e12f      	b.n	0x5908
    56a8:	3003      	adds	r0, #3
    56aa:	e3a0      	b.n	0x5dee
    56ac:	1401      	asrs	r1, r0, #16
    56ae:	e1a0      	b.n	0x59f2
    56b0:	1014      	asrs	r4, r2, #32
    56b2:	e58d      	b.n	0x51d0
    56b4:	31bc      	adds	r1, #188	; 0xbc
    56b6:	e1cd      	b.n	0x5a54
    56b8:	ff9c eaff 			; <UNDEFINED> instruction: 0xff9ceaff
    56bc:	0000      	movs	r0, r0
    56be:	e357      	b.n	0x5d70
    56c0:	004b      	lsls	r3, r1, #1
    56c2:	1a00      	subs	r0, r0, r0
    56c4:	4004      	ands	r4, r0
    56c6:	e284      	b.n	0x5bd2
    56c8:	ffa2 eaff 			; <UNDEFINED> instruction: 0xffa2eaff
    56cc:	0000      	movs	r0, r0
    56ce:	e357      	b.n	0x5d80
    56d0:	0012      	movs	r2, r2
    56d2:	1a00      	subs	r0, r0, r0
    56d4:	4008      	ands	r0, r1
    56d6:	e284      	b.n	0x5be2
    56d8:	ff9e eaff 			; <UNDEFINED> instruction: 0xff9eeaff
    56dc:	0006      	movs	r6, r0
    56de:	e1a0      	b.n	0x5a22
    56e0:	1014      	asrs	r4, r2, #32
    56e2:	e28d      	b.n	0x5c00
    56e4:	01b0      	lsls	r0, r6, #6
    56e6:	eb00 0000 	add.w	r0, r0, r0
    56ea:	e350      	b.n	0x5d8e
    56ec:	ffe9 1aff 			; <UNDEFINED> instruction: 0xffe91aff
    56f0:	0008      	movs	r0, r1
    56f2:	e3a0      	b.n	0x5e36
    56f4:	d024      	beq.n	0x5740
    56f6:	e28d      	b.n	0x5c14
    56f8:	4ff0      	ldr	r7, [pc, #960]	; (0x5abc)
    56fa:	e8bd ff1e 	ldmia.w	sp!, {r1, r2, r3, r4, r8, r9, sl, fp, ip, sp, lr, pc}
    56fe:	e12f      	b.n	0x5960
    5700:	100d      	asrs	r5, r1, #32
    5702:	e3a0      	b.n	0x5e46
    5704:	0006      	movs	r6, r0
    5706:	e1a0      	b.n	0x5a4a
    5708:	a020      	add	r0, pc, #128	; (adr r0, 0x578c)
    570a:	e595      	b.n	0x5238
    570c:	ff10 ebff 	vqrdmlah.s16	q7, q8, <illegal reg q15.5>
    5710:	0000      	movs	r0, r0
    5712:	e15a      	b.n	0x59ca
    5714:	0045      	lsls	r5, r0, #1
    5716:	0a00      	lsrs	r0, r0, #8
    5718:	3000      	adds	r0, #0
    571a:	e594      	b.n	0x5246
    571c:	ffd8 eaff 			; <UNDEFINED> instruction: 0xffd8eaff
    5720:	100d      	asrs	r5, r1, #32
    5722:	e3a0      	b.n	0x5e66
    5724:	0006      	movs	r6, r0
    5726:	e1a0      	b.n	0x5a6a
    5728:	9020      	str	r0, [sp, #128]	; 0x80
    572a:	e595      	b.n	0x5258
    572c:	ff08 ebff 	vqrdmlah.s<illegal width 8>	q7, q12, <illegal reg q15.5>
    5730:	0000      	movs	r0, r0
    5732:	e159      	b.n	0x59e8
    5734:	ffe6 1aff 			; <UNDEFINED> instruction: 0xffe61aff
    5738:	3028      	adds	r0, #40	; 0x28
    573a:	e595      	b.n	0x5268
    573c:	0003      	movs	r3, r0
    573e:	e154      	b.n	0x59ea
    5740:	ffe3 1aff 			; <UNDEFINED> instruction: 0xffe31aff
    5744:	0004      	movs	r4, r0
    5746:	e1a0      	b.n	0x5a8a
    5748:	fd6d ebff 			; <UNDEFINED> instruction: 0xfd6debff
    574c:	100f      	asrs	r7, r1, #32
    574e:	e3a0      	b.n	0x5e92
    5750:	2000      	movs	r0, #0
    5752:	e1a0      	b.n	0x5a96
    5754:	0006      	movs	r6, r0
    5756:	e1a0      	b.n	0x5a9a
    5758:	ff23 ebff 	vqrdmlah.s32	q7, <illegal reg q9.5>, <illegal reg q15.5>
    575c:	0006      	movs	r6, r0
    575e:	e1a0      	b.n	0x5aa2
    5760:	2005      	movs	r0, #5
    5762:	e1a0      	b.n	0x5aa6
    5764:	1000      	asrs	r0, r0, #32
    5766:	e3a0      	b.n	0x5eaa
    5768:	ff1f ebff 	vqrdmlah.s16	q7, <illegal reg q15.5>, <illegal reg q15.5>
    576c:	0007      	movs	r7, r0
    576e:	e3a0      	b.n	0x5eb2
    5770:	ffc9 eaff 			; <UNDEFINED> instruction: 0xffc9eaff
    5774:	0000      	movs	r0, r0
    5776:	e357      	b.n	0x5e28
    5778:	ffe8 1aff 			; <UNDEFINED> instruction: 0xffe81aff
    577c:	000c      	movs	r4, r1
    577e:	e894 0002 	ldmia.w	r4, {r1}
    5782:	e373      	b.n	0x5e6c
    5784:	2fa2      	cmp	r7, #162	; 0xa2
    5786:	e1a0      	b.n	0x5aca
    5788:	ffc2 0aff 			; <UNDEFINED> instruction: 0xffc20aff
    578c:	0001      	movs	r1, r0
    578e:	e373      	b.n	0x5e78
    5790:	3058      	adds	r0, #88	; 0x58
    5792:	e285      	b.n	0x5ca0
    5794:	3010      	adds	r0, #16
    5796:	e58d      	b.n	0x52b4
    5798:	0034      	movs	r4, r6
    579a:	0a00      	lsrs	r0, r0, #8
    579c:	0004      	movs	r4, r0
    579e:	e284      	b.n	0x5caa
    57a0:	fe01 ebff 			; <UNDEFINED> instruction: 0xfe01ebff
    57a4:	3010      	adds	r0, #16
    57a6:	e28d      	b.n	0x5cc4
    57a8:	1000      	asrs	r0, r0, #32
    57aa:	e1a0      	b.n	0x5aee
    57ac:	0005      	movs	r5, r0
    57ae:	e1a0      	b.n	0x5af2
    57b0:	0000      	movs	r0, r0
    57b2:	e1a0      	b.n	0x5af6
    57b4:	0000      	movs	r0, r0
    57b6:	e350      	b.n	0x5e5a
    57b8:	ffc5 0aff 			; <UNDEFINED> instruction: 0xffc50aff
    57bc:	9000      	str	r0, [sp, #0]
    57be:	e1a0      	b.n	0x5b02
    57c0:	100d      	asrs	r5, r1, #32
    57c2:	e3a0      	b.n	0x5f06
    57c4:	0006      	movs	r6, r0
    57c6:	e1a0      	b.n	0x5b0a
    57c8:	fee1 ebff 			; <UNDEFINED> instruction: 0xfee1ebff
    57cc:	0002      	movs	r2, r0
    57ce:	e359      	b.n	0x5e84
    57d0:	0020      	movs	r0, r4
    57d2:	e585      	b.n	0x52e0
    57d4:	0029      	movs	r1, r5
    57d6:	1a00      	subs	r0, r0, r0
    57d8:	3005      	adds	r0, #5
    57da:	e1a0      	b.n	0x5b1e
    57dc:	2010      	movs	r0, #16
    57de:	e59d      	b.n	0x531c
    57e0:	202c      	movs	r0, #44	; 0x2c
    57e2:	e5a3      	b.n	0x532c
    57e4:	3024      	adds	r0, #36	; 0x24
    57e6:	e585      	b.n	0x52f4
    57e8:	4028      	ands	r0, r5
    57ea:	e585      	b.n	0x52f8
    57ec:	0006      	movs	r6, r0
    57ee:	e3a0      	b.n	0x5f32
    57f0:	ffa9 eaff 			; <UNDEFINED> instruction: 0xffa9eaff
    57f4:	0004      	movs	r4, r0
    57f6:	e1a0      	b.n	0x5b3a
    57f8:	fd41 ebff 			; <UNDEFINED> instruction: 0xfd41ebff
    57fc:	4004      	ands	r4, r0
    57fe:	e284      	b.n	0x5d0a
    5800:	7000      	strb	r0, [r0, #0]
    5802:	e1a0      	b.n	0x5b46
    5804:	4038      	ands	r0, r7
    5806:	e585      	b.n	0x5314
    5808:	0005      	movs	r5, r0
    580a:	e1a0      	b.n	0x5b4e
    580c:	0000      	movs	r0, r0
    580e:	e1a0      	b.n	0x5b52
    5810:	0000      	movs	r0, r0
    5812:	e350      	b.n	0x5eb6
    5814:	ff9f 0aff 			; <UNDEFINED> instruction: 0xff9f0aff
    5818:	0006      	movs	r6, r0
    581a:	e1a0      	b.n	0x5b5e
    581c:	2007      	movs	r0, #7
    581e:	e1a0      	b.n	0x5b62
    5820:	100f      	asrs	r7, r1, #32
    5822:	e3a0      	b.n	0x5f66
    5824:	fef0 ebff 			; <UNDEFINED> instruction: 0xfef0ebff
    5828:	0007      	movs	r7, r0
    582a:	e3a0      	b.n	0x5f6e
    582c:	ff9a eaff 			; <UNDEFINED> instruction: 0xff9aeaff
    5830:	3028      	adds	r0, #40	; 0x28
    5832:	e595      	b.n	0x5360
    5834:	0003      	movs	r3, r0
    5836:	e154      	b.n	0x5ae2
    5838:	ffb6 1aff 			; <UNDEFINED> instruction: 0xffb61aff
    583c:	2004      	movs	r0, #4
    583e:	e3a0      	b.n	0x5f82
    5840:	a000      	add	r0, pc, #0	; (adr r0, 0x5844)
    5842:	e3a0      	b.n	0x5f86
    5844:	3002      	adds	r0, #2
    5846:	e084      	b.n	0x5952
    5848:	9028      	str	r0, [sp, #160]	; 0xa0
    584a:	e585      	b.n	0x5358
    584c:	a02c      	add	r0, pc, #176	; (adr r0, 0x5900)
    584e:	e585      	b.n	0x535c
    5850:	2030      	movs	r0, #48	; 0x30
    5852:	e585      	b.n	0x5360
    5854:	3034      	adds	r0, #52	; 0x34
    5856:	e585      	b.n	0x5364
    5858:	3000      	adds	r0, #0
    585a:	e594      	b.n	0x5386
    585c:	000a      	movs	r2, r1
    585e:	e153      	b.n	0x5b08
    5860:	0012      	movs	r2, r2
    5862:	ba00      	rev	r0, r0
    5864:	3001      	adds	r0, #1
    5866:	e3a0      	b.n	0x5faa
    5868:	3004      	adds	r0, #4
    586a:	e58d      	b.n	0x5388
    586c:	ff86 eaff 			; <UNDEFINED> instruction: 0xff86eaff
    5870:	0006      	movs	r6, r0
    5872:	e1a0      	b.n	0x5bb6
    5874:	100d      	asrs	r5, r1, #32
    5876:	e3a0      	b.n	0x5fba
    5878:	feb5 ebff 			; <UNDEFINED> instruction: 0xfeb5ebff
    587c:	0020      	movs	r0, r4
    587e:	e585      	b.n	0x538c
    5880:	3010      	adds	r0, #16
    5882:	e59d      	b.n	0x53c0
    5884:	3024      	adds	r0, #36	; 0x24
    5886:	e585      	b.n	0x5394
    5888:	ffd6 eaff 			; <UNDEFINED> instruction: 0xffd6eaff
    588c:	0006      	movs	r6, r0
    588e:	e1a0      	b.n	0x5bd2
    5890:	100d      	asrs	r5, r1, #32
    5892:	e3a0      	b.n	0x5fd6
    5894:	feae ebff 			; <UNDEFINED> instruction: 0xfeaeebff
    5898:	3010      	adds	r0, #16
    589a:	e59d      	b.n	0x53d8
    589c:	0020      	movs	r0, r4
    589e:	e585      	b.n	0x53ac
    58a0:	4028      	ands	r0, r5
    58a2:	e585      	b.n	0x53b0
    58a4:	3024      	adds	r0, #36	; 0x24
    58a6:	e585      	b.n	0x53b4
    58a8:	0006      	movs	r6, r0
    58aa:	e3a0      	b.n	0x5fee
    58ac:	ff7a eaff 	vpmin.u<illegal width 64>	q15, q13, <illegal reg q15.5>
    58b0:	0001      	movs	r1, r0
    58b2:	e289      	b.n	0x5dc8
    58b4:	0100      	lsls	r0, r0, #4
    58b6:	e084      	b.n	0x59c2
    58b8:	fd11 ebff 			; <UNDEFINED> instruction: 0xfd11ebff
    58bc:	100f      	asrs	r7, r1, #32
    58be:	e3a0      	b.n	0x6002
    58c0:	2000      	movs	r0, #0
    58c2:	e1a0      	b.n	0x5c06
    58c4:	0006      	movs	r6, r0
    58c6:	e1a0      	b.n	0x5c0a
    58c8:	fec7 ebff 			; <UNDEFINED> instruction: 0xfec7ebff
    58cc:	0006      	movs	r6, r0
    58ce:	e1a0      	b.n	0x5c12
    58d0:	2005      	movs	r0, #5
    58d2:	e1a0      	b.n	0x5c16
    58d4:	100a      	asrs	r2, r1, #32
    58d6:	e1a0      	b.n	0x5c1a
    58d8:	fec3 ebff 			; <UNDEFINED> instruction: 0xfec3ebff
    58dc:	0007      	movs	r7, r0
    58de:	e3a0      	b.n	0x6022
    58e0:	ff6d eaff 	vpmin.u32	q15, <illegal reg q14.5>, <illegal reg q15.5>
    58e4:	1014      	asrs	r4, r2, #32
    58e6:	e28d      	b.n	0x5e04
    58e8:	0006      	movs	r6, r0
    58ea:	e1a0      	b.n	0x5c2e
    58ec:	012e      	lsls	r6, r5, #4
    58ee:	eb00 0000 	add.w	r0, r0, r0
    58f2:	e350      	b.n	0x5f96
    58f4:	ff67 1aff 	vpmin.u32	<illegal reg q8.5>, <illegal reg q11.5>, <illegal reg q15.5>
    58f8:	3004      	adds	r0, #4
    58fa:	e59d      	b.n	0x5438
    58fc:	0000      	movs	r0, r0
    58fe:	e353      	b.n	0x5fa8
    5900:	ff7a 0aff 	vpmin.u<illegal width 64>	q8, q13, <illegal reg q15.5>
    5904:	100f      	asrs	r7, r1, #32
    5906:	e3a0      	b.n	0x604a
    5908:	0006      	movs	r6, r0
    590a:	e1a0      	b.n	0x5c4e
    590c:	fe90 ebff 			; <UNDEFINED> instruction: 0xfe90ebff
    5910:	100e      	asrs	r6, r1, #32
    5912:	e3a0      	b.n	0x6056
    5914:	2000      	movs	r0, #0
    5916:	e1a0      	b.n	0x5c5a
    5918:	0006      	movs	r6, r0
    591a:	e1a0      	b.n	0x5c5e
    591c:	feb2 ebff 			; <UNDEFINED> instruction: 0xfeb2ebff
    5920:	0006      	movs	r6, r0
    5922:	e1a0      	b.n	0x5c66
    5924:	200c      	movs	r0, #12
    5926:	e59f      	b.n	0x5468
    5928:	100f      	asrs	r7, r1, #32
    592a:	e3a0      	b.n	0x606e
    592c:	feae ebff 			; <UNDEFINED> instruction: 0xfeaeebff
    5930:	0007      	movs	r7, r0
    5932:	e3a0      	b.n	0x6076
    5934:	ff58 eaff 	vpmin.u16	q15, q12, <illegal reg q15.5>
    5938:	0000      	movs	r0, r0
    593a:	0000      	movs	r0, r0
    593c:	3000      	adds	r0, #0
    593e:	e3a0      	b.n	0x6082
    5940:	fee8 eaff 			; <UNDEFINED> instruction: 0xfee8eaff
    5944:	3001      	adds	r0, #1
    5946:	e3a0      	b.n	0x608a
    5948:	fee6 eaff 			; <UNDEFINED> instruction: 0xfee6eaff
    594c:	3002      	adds	r0, #2
    594e:	e3a0      	b.n	0x6092
    5950:	fee4 eaff 			; <UNDEFINED> instruction: 0xfee4eaff
    5954:	40f0      	lsrs	r0, r6
    5956:	e92d 5000 	stmdb	sp!, {ip, lr}
    595a:	e1a0      	b.n	0x5c9e
    595c:	df45      	svc	69	; 0x45
    595e:	e24d      	b.n	0x5dfc
    5960:	4002      	ands	r2, r0
    5962:	e1a0      	b.n	0x5ca6
    5964:	0004      	movs	r4, r0
    5966:	e351      	b.n	0x600c
    5968:	f101 979f 	b.w	0xd078aa
    596c:	0096      	lsls	r6, r2, #2
    596e:	ea00 5b74 	and.w	fp, r0, r4, ror #21
    5972:	0800      	lsrs	r0, r0, #32
    5974:	5a70      	ldrh	r0, [r6, r1]
    5976:	0800      	lsrs	r0, r0, #32
    5978:	5bcc      	ldrh	r4, [r1, r7]
    597a:	0800      	lsrs	r0, r0, #32
    597c:	59e8      	ldr	r0, [r5, r7]
    597e:	0800      	lsrs	r0, r0, #32
    5980:	5984      	ldr	r4, [r0, r6]
    5982:	0800      	lsrs	r0, r0, #32
    5984:	0010      	movs	r0, r2
    5986:	e352      	b.n	0x602e
    5988:	0000      	movs	r0, r0
    598a:	9353      	str	r3, [sp, #332]	; 0x14c
    598c:	008e      	lsls	r6, r1, #2
    598e:	1a00      	subs	r0, r0, r0
    5990:	3000      	adds	r0, #0
    5992:	e590      	b.n	0x54b6
    5994:	0010      	movs	r0, r2
    5996:	e313      	b.n	0x5fc0
    5998:	008f      	lsls	r7, r1, #2
    599a:	1a00      	subs	r0, r0, r0
    599c:	6088      	str	r0, [r1, #8]
    599e:	e28d      	b.n	0x5ebc
    59a0:	0006      	movs	r6, r0
    59a2:	e1a0      	b.n	0x5ce6
    59a4:	f9f7 ebff 	ldr??.w	lr, [r7, #3071]	; 0xbff
    59a8:	3000      	adds	r0, #0
    59aa:	e3a0      	b.n	0x60ee
    59ac:	1001      	asrs	r1, r0, #32
    59ae:	e3a0      	b.n	0x60f2
    59b0:	2038      	movs	r0, #56	; 0x38
    59b2:	e595      	b.n	0x54e0
    59b4:	0311      	lsls	r1, r2, #12
    59b6:	e014      	b.n	0x59e2
    59b8:	0004      	movs	r4, r0
    59ba:	1492      	asrs	r2, r2, #18
    59bc:	0103      	lsls	r3, r0, #4
    59be:	1786      	asrs	r6, r0, #30
    59c0:	3001      	adds	r0, #1
    59c2:	e283      	b.n	0x5ecc
    59c4:	0004      	movs	r4, r0
    59c6:	e353      	b.n	0x6070
    59c8:	fff9 1aff 			; <UNDEFINED> instruction: 0xfff91aff
    59cc:	0006      	movs	r6, r0
    59ce:	e1a0      	b.n	0x5d12
    59d0:	2038      	movs	r0, #56	; 0x38
    59d2:	e585      	b.n	0x54e0
    59d4:	f9e6 ebff 	vld4.32			; <UNDEFINED> instruction: 0xf9e6ebff
    59d8:	0000      	movs	r0, r0
    59da:	e3a0      	b.n	0x611e
    59dc:	df45      	svc	69	; 0x45
    59de:	e28d      	b.n	0x5efc
    59e0:	40f0      	lsrs	r0, r6
    59e2:	e8bd ff1e 	ldmia.w	sp!, {r1, r2, r3, r4, r8, r9, sl, fp, ip, sp, lr, pc}
    59e6:	e12f      	b.n	0x5c48
    59e8:	0003      	movs	r3, r0
    59ea:	e353      	b.n	0x6094
    59ec:	0076      	lsls	r6, r6, #1
    59ee:	1a00      	subs	r0, r0, r0
    59f0:	7802      	ldrb	r2, [r0, #0]
    59f2:	e1a0      	b.n	0x5d36
    59f4:	7827      	ldrb	r7, [r4, #0]
    59f6:	e1a0      	b.n	0x5d3a
    59f8:	4822      	ldr	r0, [pc, #136]	; (0x5a84)
    59fa:	e1a0      	b.n	0x5d3e
    59fc:	3007      	adds	r0, #7
    59fe:	e084      	b.n	0x5b0a
    5a00:	0010      	movs	r0, r2
    5a02:	e353      	b.n	0x60ac
    5a04:	0070      	lsls	r0, r6, #1
    5a06:	8a00      	ldrh	r0, [r0, #16]
    5a08:	3000      	adds	r0, #0
    5a0a:	e590      	b.n	0x552e
    5a0c:	0008      	movs	r0, r1
    5a0e:	e313      	b.n	0x6038
    5a10:	009b      	lsls	r3, r3, #2
    5a12:	1a00      	subs	r0, r0, r0
    5a14:	6088      	str	r0, [r1, #8]
    5a16:	e28d      	b.n	0x5f34
    5a18:	0006      	movs	r6, r0
    5a1a:	e1a0      	b.n	0x5d5e
    5a1c:	f9c3 ebff 	vst4.32			; <UNDEFINED> instruction: 0xf9c3ebff
    5a20:	0000      	movs	r0, r0
    5a22:	e357      	b.n	0x60d4
    5a24:	4184      	sbcs	r4, r0
    5a26:	e086      	b.n	0x5b36
    5a28:	c038      	stmia	r0!, {r3, r4, r5}
    5a2a:	e595      	b.n	0x5558
    5a2c:	0008      	movs	r0, r1
    5a2e:	0a00      	lsrs	r0, r0, #8
    5a30:	3004      	adds	r0, #4
    5a32:	e1a0      	b.n	0x5d76
    5a34:	7187      	strb	r7, [r0, #6]
    5a36:	e1a0      	b.n	0x5d7a
    5a38:	1007      	asrs	r7, r0, #32
    5a3a:	e084      	b.n	0x5b46
    5a3c:	0004      	movs	r4, r0
    5a3e:	e04c      	b.n	0x5ada
    5a40:	2000      	movs	r0, #0
    5a42:	e793      	b.n	0x596c
    5a44:	2004      	movs	r0, #4
    5a46:	e483      	b.n	0x5350
    5a48:	0001      	movs	r1, r0
    5a4a:	e153      	b.n	0x5cf4
    5a4c:	fffb 1aff 			; <UNDEFINED> instruction: 0xfffb1aff
    5a50:	c007      	stmia	r0!, {r0, r1, r2}
    5a52:	e08c      	b.n	0x5b6e
    5a54:	0006      	movs	r6, r0
    5a56:	e1a0      	b.n	0x5d9a
    5a58:	c038      	stmia	r0!, {r3, r4, r5}
    5a5a:	e585      	b.n	0x5568
    5a5c:	f9a2 ebff 	vld4.32			; <UNDEFINED> instruction: 0xf9a2ebff
    5a60:	0000      	movs	r0, r0
    5a62:	e3a0      	b.n	0x61a6
    5a64:	df45      	svc	69	; 0x45
    5a66:	e28d      	b.n	0x5f84
    5a68:	40f0      	lsrs	r0, r6
    5a6a:	e8bd ff1e 	ldmia.w	sp!, {r1, r2, r3, r4, r8, r9, sl, fp, ip, sp, lr, pc}
    5a6e:	e12f      	b.n	0x5cd0
    5a70:	20fb      	movs	r0, #251	; 0xfb
    5a72:	e203      	b.n	0x5e7c
    5a74:	6804      	ldr	r4, [r0, #0]
    5a76:	e1a0      	b.n	0x5dba
    5a78:	0001      	movs	r1, r0
    5a7a:	e352      	b.n	0x6122
    5a7c:	6826      	ldr	r6, [r4, #0]
    5a7e:	e1a0      	b.n	0x5dc2
    5a80:	4824      	ldr	r0, [pc, #144]	; (0x5b14)
    5a82:	e1a0      	b.n	0x5dc6
    5a84:	0050      	lsls	r0, r2, #1
    5a86:	1a00      	subs	r0, r0, r0
    5a88:	0001      	movs	r1, r0
    5a8a:	e353      	b.n	0x6134
    5a8c:	7006      	strb	r6, [r0, #0]
    5a8e:	e084      	b.n	0x5b9a
    5a90:	004b      	lsls	r3, r1, #1
    5a92:	0a00      	lsrs	r0, r0, #8
    5a94:	0020      	movs	r0, r4
    5a96:	e357      	b.n	0x6148
    5a98:	004b      	lsls	r3, r1, #1
    5a9a:	8a00      	ldrh	r0, [r0, #16]
    5a9c:	000f      	movs	r7, r1
    5a9e:	e354      	b.n	0x614a
    5aa0:	0067      	lsls	r7, r4, #1
    5aa2:	9a00      	ldr	r2, [sp, #0]
    5aa4:	0005      	movs	r5, r0
    5aa6:	e353      	b.n	0x6150
    5aa8:	0000      	movs	r0, r0
    5aaa:	1356      	asrs	r6, r2, #13
    5aac:	7006      	strb	r6, [r0, #0]
    5aae:	e1a0      	b.n	0x5df2
    5ab0:	0045      	lsls	r5, r0, #1
    5ab2:	1a00      	subs	r0, r0, r0
    5ab4:	0000      	movs	r0, r0
    5ab6:	e357      	b.n	0x6168
    5ab8:	0082      	lsls	r2, r0, #2
    5aba:	0a00      	lsrs	r0, r0, #8
    5abc:	2000      	movs	r0, #0
    5abe:	e595      	b.n	0x55ec
    5ac0:	0004      	movs	r4, r0
    5ac2:	e312      	b.n	0x60ea
    5ac4:	0092      	lsls	r2, r2, #2
    5ac6:	1a00      	subs	r0, r0, r0
    5ac8:	000f      	movs	r7, r1
    5aca:	e354      	b.n	0x6176
    5acc:	0097      	lsls	r7, r2, #2
    5ace:	9a00      	ldr	r2, [sp, #0]
    5ad0:	6008      	str	r0, [r1, #0]
    5ad2:	e28d      	b.n	0x5ff0
    5ad4:	0006      	movs	r6, r0
    5ad6:	e1a0      	b.n	0x5e1a
    5ad8:	3004      	adds	r0, #4
    5ada:	e58d      	b.n	0x55f8
    5adc:	f980 ebff 	vst4.32			; <UNDEFINED> instruction: 0xf980ebff
    5ae0:	0010      	movs	r0, r2
    5ae2:	e264      	b.n	0x5fae
    5ae4:	1038      	asrs	r0, r7, #32
    5ae6:	e595      	b.n	0x5614
    5ae8:	0000      	movs	r0, r0
    5aea:	e350      	b.n	0x618e
    5aec:	3004      	adds	r0, #4
    5aee:	e59d      	b.n	0x562c
    5af0:	0001      	movs	r1, r0
    5af2:	d1a0      	bne.n	0x5a36
    5af4:	000a      	movs	r2, r1
    5af6:	da00      	bge.n	0x5afa
    5af8:	2e11      	cmp	r6, #17
    5afa:	e28d      	b.n	0x6018
    5afc:	c184      	stmia	r1!, {r2, r7}
    5afe:	e082      	b.n	0x5c06
    5b00:	0180      	lsls	r0, r0, #6
    5b02:	e081      	b.n	0x5c08
    5b04:	c08c      	stmia	r0!, {r2, r3, r7}
    5b06:	e24c      	b.n	0x5fa2
    5b08:	2004      	movs	r0, #4
    5b0a:	e491      	b.n	0x5430
    5b0c:	0001      	movs	r1, r0
    5b0e:	e150      	b.n	0x5db2
    5b10:	2004      	movs	r0, #4
    5b12:	e5ac      	b.n	0x566e
    5b14:	fffb 1aff 			; <UNDEFINED> instruction: 0xfffb1aff
    5b18:	0000      	movs	r0, r0
    5b1a:	e357      	b.n	0x61cc
    5b1c:	000a      	movs	r2, r1
    5b1e:	0a00      	lsrs	r0, r0, #8
    5b20:	6008      	str	r0, [r1, #0]
    5b22:	e28d      	b.n	0x6040
    5b24:	0010      	movs	r0, r2
    5b26:	e354      	b.n	0x61d2
    5b28:	c004      	stmia	r0!, {r2}
    5b2a:	21a0      	movs	r1, #160	; 0xa0
    5b2c:	c010      	stmia	r0!, {r4}
    5b2e:	33a0      	adds	r3, #160	; 0xa0
    5b30:	c18c      	stmia	r1!, {r2, r3, r7}
    5b32:	e086      	b.n	0x5c42
    5b34:	c084      	stmia	r0!, {r2, r7}
    5b36:	e24c      	b.n	0x5fd2
    5b38:	1187      	asrs	r7, r0, #6
    5b3a:	e080      	b.n	0x5c3e
    5b3c:	2004      	movs	r0, #4
    5b3e:	e490      	b.n	0x5462
    5b40:	0000      	movs	r0, r0
    5b42:	e151      	b.n	0x5de8
    5b44:	2004      	movs	r0, #4
    5b46:	e5ac      	b.n	0x56a2
    5b48:	fffb 1aff 			; <UNDEFINED> instruction: 0xfffb1aff
    5b4c:	0001      	movs	r1, r0
    5b4e:	e353      	b.n	0x61f8
    5b50:	0065      	lsls	r5, r4, #1
    5b52:	0a00      	lsrs	r0, r0, #8
    5b54:	000f      	movs	r7, r1
    5b56:	e354      	b.n	0x6202
    5b58:	1038      	asrs	r0, r7, #32
    5b5a:	e585      	b.n	0x5668
    5b5c:	0067      	lsls	r7, r4, #1
    5b5e:	9a00      	ldr	r2, [sp, #0]
    5b60:	0000      	movs	r0, r0
    5b62:	e357      	b.n	0x6214
    5b64:	0012      	movs	r2, r2
    5b66:	0a00      	lsrs	r0, r0, #8
    5b68:	0008      	movs	r0, r1
    5b6a:	e28d      	b.n	0x6088
    5b6c:	f95a ebff 	ldr??.w	lr, [sl], #255
    5b70:	000f      	movs	r7, r1
    5b72:	ea00 0000 	and.w	r0, r0, r0
    5b76:	e353      	b.n	0x6220
    5b78:	0013      	movs	r3, r2
    5b7a:	1a00      	subs	r0, r0, r0
    5b7c:	0001      	movs	r1, r0
    5b7e:	e3a0      	b.n	0x62c2
    5b80:	2802      	cmp	r0, #2
    5b82:	e1a0      	b.n	0x5ec6
    5b84:	1038      	asrs	r0, r7, #32
    5b86:	e595      	b.n	0x56b4
    5b88:	2822      	cmp	r0, #34	; 0x22
    5b8a:	e1a0      	b.n	0x5ece
    5b8c:	e004      	b.n	0x5b98
    5b8e:	e285      	b.n	0x609c
    5b90:	c310      	stmia	r3!, {r4}
    5b92:	e012      	b.n	0x5bba
    5b94:	c004      	stmia	r0!, {r2}
    5b96:	1491      	asrs	r1, r2, #18
    5b98:	c103      	stmia	r1!, {r0, r1}
    5b9a:	178e      	asrs	r6, r1, #30
    5b9c:	3001      	adds	r0, #1
    5b9e:	e283      	b.n	0x60a8
    5ba0:	0010      	movs	r0, r2
    5ba2:	e353      	b.n	0x624c
    5ba4:	fff9 1aff 			; <UNDEFINED> instruction: 0xfff91aff
    5ba8:	0a02      	lsrs	r2, r0, #8
    5baa:	e214      	b.n	0x5fd6
    5bac:	1038      	asrs	r0, r7, #32
    5bae:	0585      	lsls	r5, r0, #22
    5bb0:	0006      	movs	r6, r0
    5bb2:	0a00      	lsrs	r0, r0, #8
    5bb4:	0000      	movs	r0, r0
    5bb6:	e3a0      	b.n	0x62fa
    5bb8:	df45      	svc	69	; 0x45
    5bba:	e28d      	b.n	0x60d8
    5bbc:	40f0      	lsrs	r0, r6
    5bbe:	e8bd ff1e 	ldmia.w	sp!, {r1, r2, r3, r4, r8, r9, sl, fp, ip, sp, lr, pc}
    5bc2:	e12f      	b.n	0x5e24
    5bc4:	0010      	movs	r0, r2
    5bc6:	e357      	b.n	0x6278
    5bc8:	0007      	movs	r7, r0
    5bca:	9a00      	ldr	r2, [sp, #0]
    5bcc:	0002      	movs	r2, r0
    5bce:	e3a0      	b.n	0x6312
    5bd0:	df45      	svc	69	; 0x45
    5bd2:	e28d      	b.n	0x60f0
    5bd4:	40f0      	lsrs	r0, r6
    5bd6:	e8bd ff1e 	ldmia.w	sp!, {r1, r2, r3, r4, r8, r9, sl, fp, ip, sp, lr, pc}
    5bda:	e12f      	b.n	0x5e3c
    5bdc:	3010      	adds	r0, #16
    5bde:	e3c3      	b.n	0x6368
    5be0:	31d0      	adds	r1, #208	; 0xd0
    5be2:	e480      	b.n	0x54e6
    5be4:	f967 ebff 			; <UNDEFINED> instruction: 0xf967ebff
    5be8:	ff6b eaff 	vpmin.u32	q15, <illegal reg q13.5>, <illegal reg q15.5>
    5bec:	000f      	movs	r7, r1
    5bee:	e354      	b.n	0x629a
    5bf0:	fff5 8aff 			; <UNDEFINED> instruction: 0xfff58aff
    5bf4:	2000      	movs	r0, #0
    5bf6:	e590      	b.n	0x571a
    5bf8:	0001      	movs	r1, r0
    5bfa:	e312      	b.n	0x6222
    5bfc:	0005      	movs	r5, r0
    5bfe:	0a00      	lsrs	r0, r0, #8
    5c00:	0005      	movs	r5, r0
    5c02:	e1a0      	b.n	0x5f46
    5c04:	2003      	movs	r0, #3
    5c06:	e3c2      	b.n	0x638e
    5c08:	2048      	movs	r0, #72	; 0x48
    5c0a:	e480      	b.n	0x550e
    5c0c:	3004      	adds	r0, #4
    5c0e:	e58d      	b.n	0x572c
    5c10:	f92b ebff 			; <UNDEFINED> instruction: 0xf92bebff
    5c14:	3004      	adds	r0, #4
    5c16:	e59d      	b.n	0x5754
    5c18:	0088      	lsls	r0, r1, #2
    5c1a:	e28d      	b.n	0x6138
    5c1c:	3004      	adds	r0, #4
    5c1e:	e58d      	b.n	0x573c
    5c20:	f927 ebff 			; <UNDEFINED> instruction: 0xf927ebff
    5c24:	3004      	adds	r0, #4
    5c26:	e59d      	b.n	0x5764
    5c28:	0000      	movs	r0, r0
    5c2a:	e356      	b.n	0x62da
    5c2c:	0006      	movs	r6, r0
    5c2e:	e1a0      	b.n	0x5f72
    5c30:	1038      	asrs	r0, r7, #32
    5c32:	e595      	b.n	0x5760
    5c34:	7006      	strb	r6, [r0, #0]
    5c36:	01a0      	lsls	r0, r4, #6
    5c38:	ffc3 0aff 			; <UNDEFINED> instruction: 0xffc30aff
    5c3c:	7000      	strb	r0, [r0, #0]
    5c3e:	e3a0      	b.n	0x6382
    5c40:	ffac eaff 			; <UNDEFINED> instruction: 0xffaceaff
    5c44:	0010      	movs	r0, r2
    5c46:	e357      	b.n	0x62f8
    5c48:	0011      	movs	r1, r2
    5c4a:	9a00      	ldr	r2, [sp, #0]
    5c4c:	0005      	movs	r5, r0
    5c4e:	e353      	b.n	0x62f8
    5c50:	ffdd 1aff 			; <UNDEFINED> instruction: 0xffdd1aff
    5c54:	2000      	movs	r0, #0
    5c56:	e595      	b.n	0x5784
    5c58:	0001      	movs	r1, r0
    5c5a:	e312      	b.n	0x6282
    5c5c:	7010      	strb	r0, [r2, #0]
    5c5e:	e247      	b.n	0x60f0
    5c60:	2001      	movs	r0, #1
    5c62:	13c2      	asrs	r2, r0, #15
    5c64:	0048      	lsls	r0, r1, #1
    5c66:	1285      	asrs	r5, r0, #10
    5c68:	0027      	movs	r7, r4
    5c6a:	0a00      	lsrs	r0, r0, #8
    5c6c:	2002      	movs	r0, #2
    5c6e:	e382      	b.n	0x6376
    5c70:	2000      	movs	r0, #0
    5c72:	e585      	b.n	0x5780
    5c74:	3004      	adds	r0, #4
    5c76:	e58d      	b.n	0x5794
    5c78:	f915 ebff 	ldrsb.w	lr, [r5], #255
    5c7c:	3004      	adds	r0, #4
    5c7e:	e59d      	b.n	0x57bc
    5c80:	ff8b eaff 			; <UNDEFINED> instruction: 0xff8beaff
    5c84:	3008      	adds	r0, #8
    5c86:	e3c3      	b.n	0x6410
    5c88:	3150      	adds	r1, #80	; 0x50
    5c8a:	e480      	b.n	0x558e
    5c8c:	f927 ebff 			; <UNDEFINED> instruction: 0xf927ebff
    5c90:	ff5f eaff 	vpmin.u16	q15, <illegal reg q15.5>, <illegal reg q15.5>
    5c94:	1000      	asrs	r0, r0, #32
    5c96:	e595      	b.n	0x57c4
    5c98:	0001      	movs	r1, r0
    5c9a:	e311      	b.n	0x62c0
    5c9c:	0009      	movs	r1, r1
    5c9e:	0a00      	lsrs	r0, r0, #8
    5ca0:	0005      	movs	r5, r0
    5ca2:	e1a0      	b.n	0x5fe6
    5ca4:	2001      	movs	r0, #1
    5ca6:	e3c1      	b.n	0x642c
    5ca8:	0005      	movs	r5, r0
    5caa:	e353      	b.n	0x6354
    5cac:	2048      	movs	r0, #72	; 0x48
    5cae:	e480      	b.n	0x55b2
    5cb0:	0023      	movs	r3, r4
    5cb2:	0a00      	lsrs	r0, r0, #8
    5cb4:	1003      	asrs	r3, r0, #32
    5cb6:	e3c1      	b.n	0x643c
    5cb8:	1000      	asrs	r0, r0, #32
    5cba:	e585      	b.n	0x57c8
    5cbc:	3004      	adds	r0, #4
    5cbe:	e58d      	b.n	0x57dc
    5cc0:	f8ff ebff 	ldr??.w	lr, [pc, #3071]	; 0x68c3
    5cc4:	3004      	adds	r0, #4
    5cc6:	e59d      	b.n	0x5804
    5cc8:	0001      	movs	r1, r0
    5cca:	e353      	b.n	0x6374
    5ccc:	ffd1 0aff 			; <UNDEFINED> instruction: 0xffd10aff
    5cd0:	000f      	movs	r7, r1
    5cd2:	e354      	b.n	0x637e
    5cd4:	ffd3 8aff 			; <UNDEFINED> instruction: 0xffd38aff
    5cd8:	0088      	lsls	r0, r1, #2
    5cda:	e28d      	b.n	0x61f8
    5cdc:	3004      	adds	r0, #4
    5cde:	e58d      	b.n	0x57fc
    5ce0:	f8fb ebff 	ldr??.w	lr, [fp, #3071]	; 0xbff
    5ce4:	3004      	adds	r0, #4
    5ce6:	e59d      	b.n	0x5824
    5ce8:	ffce eaff 			; <UNDEFINED> instruction: 0xffceeaff
    5cec:	1004      	asrs	r4, r0, #32
    5cee:	e281      	b.n	0x61f4
    5cf0:	1038      	asrs	r0, r7, #32
    5cf2:	e585      	b.n	0x5800
    5cf4:	0088      	lsls	r0, r1, #2
    5cf6:	e28d      	b.n	0x6214
    5cf8:	f8ef ebff 	str??.w	lr, [pc, #3071]	; 0x68fb
    5cfc:	ffac eaff 			; <UNDEFINED> instruction: 0xffaceaff
    5d00:	0088      	lsls	r0, r1, #2
    5d02:	e28d      	b.n	0x6220
    5d04:	f8f0 ebff 	ldr??.w	lr, [r0, #3071]	; 0xbff
    5d08:	ff94 eaff 			; <UNDEFINED> instruction: 0xff94eaff
    5d0c:	0004      	movs	r4, r0
    5d0e:	e312      	b.n	0x6336
    5d10:	0006      	movs	r6, r0
    5d12:	0a00      	lsrs	r0, r0, #8
    5d14:	0005      	movs	r5, r0
    5d16:	e1a0      	b.n	0x605a
    5d18:	2004      	movs	r0, #4
    5d1a:	e3c2      	b.n	0x64a2
    5d1c:	20d0      	movs	r0, #208	; 0xd0
    5d1e:	e480      	b.n	0x5622
    5d20:	3004      	adds	r0, #4
    5d22:	e58d      	b.n	0x5840
    5d24:	f8ee ebff 	str??.w	lr, [lr, #3071]	; 0xbff
    5d28:	3004      	adds	r0, #4
    5d2a:	e59d      	b.n	0x5868
    5d2c:	ff65 eaff 	vpmin.u32	q15, <illegal reg q10.5>, <illegal reg q15.5>
    5d30:	0088      	lsls	r0, r1, #2
    5d32:	e28d      	b.n	0x6250
    5d34:	3004      	adds	r0, #4
    5d36:	e58d      	b.n	0x5854
    5d38:	f8e5 ebff 	str??.w	lr, [r5, #3071]	; 0xbff
    5d3c:	3004      	adds	r0, #4
    5d3e:	e59d      	b.n	0x587c
    5d40:	ff62 eaff 	vpmin.u32	q15, q9, <illegal reg q15.5>
    5d44:	7000      	strb	r0, [r0, #0]
    5d46:	e3a0      	b.n	0x648a
    5d48:	ffc7 eaff 			; <UNDEFINED> instruction: 0xffc7eaff
    5d4c:	3008      	adds	r0, #8
    5d4e:	e5d0      	b.n	0x58f2
    5d50:	0000      	movs	r0, r0
    5d52:	e353      	b.n	0x63fc
    5d54:	000e      	movs	r6, r1
    5d56:	1a00      	subs	r0, r0, r0
    5d58:	3009      	adds	r0, #9
    5d5a:	e5d0      	b.n	0x58fe
    5d5c:	0000      	movs	r0, r0
    5d5e:	e353      	b.n	0x6408
    5d60:	000f      	movs	r7, r1
    5d62:	0a00      	lsrs	r0, r0, #8
    5d64:	1003      	asrs	r3, r0, #32
    5d66:	e3a0      	b.n	0x64aa
    5d68:	2004      	movs	r0, #4
    5d6a:	e590      	b.n	0x588e
    5d6c:	3001      	adds	r0, #1
    5d6e:	e243      	b.n	0x61f8
    5d70:	3009      	adds	r0, #9
    5d72:	e5c0      	b.n	0x58f6
    5d74:	c004      	stmia	r0!, {r2}
    5d76:	e282      	b.n	0x627e
    5d78:	3000      	adds	r0, #0
    5d7a:	e592      	b.n	0x58a2
    5d7c:	c004      	stmia	r0!, {r2}
    5d7e:	e580      	b.n	0x5882
    5d80:	1008      	asrs	r0, r1, #32
    5d82:	e5c0      	b.n	0x5906
    5d84:	2403      	movs	r4, #3
    5d86:	e1a0      	b.n	0x60ca
    5d88:	2000      	movs	r0, #0
    5d8a:	e580      	b.n	0x588e
    5d8c:	0c23      	lsrs	r3, r4, #16
    5d8e:	e1a0      	b.n	0x60d2
    5d90:	ff1e e12f 	vrhadd.u16	d14, d14, d31
    5d94:	3001      	adds	r0, #1
    5d96:	e243      	b.n	0x6220
    5d98:	3008      	adds	r0, #8
    5d9a:	e5c0      	b.n	0x591e
    5d9c:	3000      	adds	r0, #0
    5d9e:	e590      	b.n	0x58c2
    5da0:	fff7 eaff 			; <UNDEFINED> instruction: 0xfff7eaff
    5da4:	00b0      	lsls	r0, r6, #2
    5da6:	e3a0      	b.n	0x64ea
    5da8:	ff1e e12f 	vrhadd.u16	d14, d14, d31
    5dac:	47f0      	blx	lr
    5dae:	e92d 6000 	stmdb	sp!, {sp, lr}
    5db2:	e1a0      	b.n	0x60f6
    5db4:	5001      	str	r1, [r0, r0]
    5db6:	e1a0      	b.n	0x60fa
    5db8:	7000      	strb	r0, [r0, #0]
    5dba:	e3a0      	b.n	0x64fe
    5dbc:	83b8      	strh	r0, [r7, #28]
    5dbe:	e59f      	b.n	0x5900
    5dc0:	d010      	beq.n	0x5de4
    5dc2:	e24d      	b.n	0x6260
    5dc4:	0005      	movs	r5, r0
    5dc6:	e1a0      	b.n	0x610a
    5dc8:	ffdf ebff 			; <UNDEFINED> instruction: 0xffdfebff
    5dcc:	00b0      	lsls	r0, r6, #2
    5dce:	e350      	b.n	0x6472
    5dd0:	4000      	ands	r0, r0
    5dd2:	e1a0      	b.n	0x6116
    5dd4:	0083      	lsls	r3, r0, #2
    5dd6:	0a00      	lsrs	r0, r0, #8
    5dd8:	0080      	lsls	r0, r0, #2
    5dda:	e310      	b.n	0x63fe
    5ddc:	001a      	movs	r2, r3
    5dde:	0a00      	lsrs	r0, r0, #8
    5de0:	30f0      	adds	r0, #240	; 0xf0
    5de2:	e200      	b.n	0x61e6
    5de4:	0080      	lsls	r0, r0, #2
    5de6:	e353      	b.n	0x6490
    5de8:	003e      	movs	r6, r7
    5dea:	0a00      	lsrs	r0, r0, #8
    5dec:	0090      	lsls	r0, r2, #2
    5dee:	e353      	b.n	0x6498
    5df0:	002b      	movs	r3, r5
    5df2:	0a00      	lsrs	r0, r0, #8
    5df4:	00a0      	lsls	r0, r4, #2
    5df6:	e353      	b.n	0x64a0
    5df8:	004b      	lsls	r3, r1, #1
    5dfa:	0a00      	lsrs	r0, r0, #8
    5dfc:	00b0      	lsls	r0, r6, #2
    5dfe:	e353      	b.n	0x64a8
    5e00:	0057      	lsls	r7, r2, #1
    5e02:	0a00      	lsrs	r0, r0, #8
    5e04:	00c0      	lsls	r0, r0, #3
    5e06:	e353      	b.n	0x64b0
    5e08:	0063      	lsls	r3, r4, #1
    5e0a:	0a00      	lsrs	r0, r0, #8
    5e0c:	30f8      	adds	r0, #248	; 0xf8
    5e0e:	e200      	b.n	0x6212
    5e10:	00d0      	lsls	r0, r2, #3
    5e12:	e353      	b.n	0x64bc
    5e14:	0008      	movs	r0, r1
    5e16:	1a00      	subs	r0, r0, r0
    5e18:	2007      	movs	r0, #7
    5e1a:	e200      	b.n	0x621e
    5e1c:	2001      	movs	r0, #1
    5e1e:	e282      	b.n	0x6326
    5e20:	2702      	movs	r7, #2
    5e22:	e382      	b.n	0x652a
    5e24:	3005      	adds	r0, #5
    5e26:	e3a0      	b.n	0x656a
    5e28:	1001      	asrs	r1, r0, #32
    5e2a:	e3a0      	b.n	0x656e
    5e2c:	0006      	movs	r6, r0
    5e2e:	e1a0      	b.n	0x6172
    5e30:	fec7 ebff 			; <UNDEFINED> instruction: 0xfec7ebff
    5e34:	0000      	movs	r0, r0
    5e36:	e350      	b.n	0x64da
    5e38:	ffe1 0aff 			; <UNDEFINED> instruction: 0xffe10aff
    5e3c:	0009      	movs	r1, r1
    5e3e:	e3a0      	b.n	0x6582
    5e40:	d010      	beq.n	0x5e64
    5e42:	e28d      	b.n	0x6360
    5e44:	47f0      	blx	lr
    5e46:	e8bd ff1e 	ldmia.w	sp!, {r1, r2, r3, r4, r8, r9, sl, fp, ip, sp, lr, pc}
    5e4a:	e12f      	b.n	0x60ac
    5e4c:	3000      	adds	r0, #0
    5e4e:	e3a0      	b.n	0x6592
    5e50:	900c      	str	r0, [sp, #48]	; 0x30
    5e52:	e28d      	b.n	0x6370
    5e54:	c100      	stmia	r1!, {}
    5e56:	e1a0      	b.n	0x619a
    5e58:	c0ff      	stmia	r0!, {r0, r1, r2, r3, r4, r5, r6, r7}
    5e5a:	e20c      	b.n	0x6276
    5e5c:	1003      	asrs	r3, r0, #32
    5e5e:	e1a0      	b.n	0x61a2
    5e60:	9000      	str	r0, [sp, #0]
    5e62:	e58d      	b.n	0x5980
    5e64:	200d      	movs	r0, #13
    5e66:	e3a0      	b.n	0x65aa
    5e68:	0006      	movs	r6, r0
    5e6a:	e1a0      	b.n	0x61ae
    5e6c:	a004      	add	r0, pc, #16	; (adr r0, 0x5e80)
    5e6e:	e28c      	b.n	0x638a
    5e70:	fd1d ebff 			; <UNDEFINED> instruction: 0xfd1debff
    5e74:	3000      	adds	r0, #0
    5e76:	e3a0      	b.n	0x65ba
    5e78:	c00c      	stmia	r0!, {r2, r3}
    5e7a:	e59d      	b.n	0x59b8
    5e7c:	0040      	lsls	r0, r0, #1
    5e7e:	e314      	b.n	0x64aa
    5e80:	c00a      	stmia	r0!, {r1, r3}
    5e82:	104c      	asrs	r4, r1, #1
    5e84:	c00c      	stmia	r0!, {r2, r3}
    5e86:	008a      	lsls	r2, r1, #2
    5e88:	9000      	str	r0, [sp, #0]
    5e8a:	e58d      	b.n	0x59a8
    5e8c:	1003      	asrs	r3, r0, #32
    5e8e:	e1a0      	b.n	0x61d2
    5e90:	200d      	movs	r0, #13
    5e92:	e3a0      	b.n	0x65d6
    5e94:	0006      	movs	r6, r0
    5e96:	e1a0      	b.n	0x61da
    5e98:	c00c      	stmia	r0!, {r2, r3}
    5e9a:	e58d      	b.n	0x59b8
    5e9c:	fd38 ebff 			; <UNDEFINED> instruction: 0xfd38ebff
    5ea0:	ffc7 eaff 			; <UNDEFINED> instruction: 0xffc7eaff
    5ea4:	300d      	adds	r0, #13
    5ea6:	e200      	b.n	0x62aa
    5ea8:	000d      	movs	r5, r1
    5eaa:	e353      	b.n	0x6554
    5eac:	ffe2 0aff 			; <UNDEFINED> instruction: 0xffe20aff
    5eb0:	3000      	adds	r0, #0
    5eb2:	e3a0      	b.n	0x65f6
    5eb4:	900c      	str	r0, [sp, #48]	; 0x30
    5eb6:	e28d      	b.n	0x63d4
    5eb8:	200f      	movs	r0, #15
    5eba:	e200      	b.n	0x62be
    5ebc:	1003      	asrs	r3, r0, #32
    5ebe:	e1a0      	b.n	0x6202
    5ec0:	9000      	str	r0, [sp, #0]
    5ec2:	e58d      	b.n	0x59e0
    5ec4:	0006      	movs	r6, r0
    5ec6:	e1a0      	b.n	0x620a
    5ec8:	fd07 ebff 			; <UNDEFINED> instruction: 0xfd07ebff
    5ecc:	3000      	adds	r0, #0
    5ece:	e3a0      	b.n	0x6612
    5ed0:	9000      	str	r0, [sp, #0]
    5ed2:	e58d      	b.n	0x59f0
    5ed4:	1003      	asrs	r3, r0, #32
    5ed6:	e1a0      	b.n	0x621a
    5ed8:	200d      	movs	r0, #13
    5eda:	e3a0      	b.n	0x661e
    5edc:	0006      	movs	r6, r0
    5ede:	e1a0      	b.n	0x6222
    5ee0:	fd27 ebff 			; <UNDEFINED> instruction: 0xfd27ebff
    5ee4:	ffb6 eaff 			; <UNDEFINED> instruction: 0xffb6eaff
    5ee8:	0005      	movs	r5, r0
    5eea:	e1a0      	b.n	0x622e
    5eec:	ff96 ebff 			; <UNDEFINED> instruction: 0xff96ebff
    5ef0:	4404      	add	r4, r0
    5ef2:	e1a0      	b.n	0x6236
    5ef4:	4004      	ands	r4, r0
    5ef6:	e180      	b.n	0x61fa
    5ef8:	0902      	lsrs	r2, r0, #4
    5efa:	e354      	b.n	0x65a6
    5efc:	ffce 0aff 			; <UNDEFINED> instruction: 0xffce0aff
    5f00:	3000      	adds	r0, #0
    5f02:	e3a0      	b.n	0x6646
    5f04:	4204      	tst	r4, r0
    5f06:	e1a0      	b.n	0x624a
    5f08:	2008      	movs	r0, #8
    5f0a:	e004      	b.n	0x5f16
    5f0c:	1003      	asrs	r3, r0, #32
    5f0e:	e1a0      	b.n	0x6252
    5f10:	0006      	movs	r6, r0
    5f12:	e1a0      	b.n	0x6256
    5f14:	fe8e ebff 			; <UNDEFINED> instruction: 0xfe8eebff
    5f18:	0000      	movs	r0, r0
    5f1a:	e350      	b.n	0x65be
    5f1c:	ffc6 1aff 			; <UNDEFINED> instruction: 0xffc61aff
    5f20:	0902      	lsrs	r2, r0, #4
    5f22:	e314      	b.n	0x654e
    5f24:	7001      	strb	r1, [r0, #0]
    5f26:	13a0      	asrs	r0, r4, #14
    5f28:	ffa5 eaff 			; <UNDEFINED> instruction: 0xffa5eaff
    5f2c:	3000      	adds	r0, #0
    5f2e:	e1e0      	b.n	0x62f2
    5f30:	2eff      	cmp	r6, #255	; 0xff
    5f32:	e3a0      	b.n	0x6676
    5f34:	3007      	adds	r0, #7
    5f36:	e203      	b.n	0x6340
    5f38:	2352      	movs	r3, #82	; 0x52
    5f3a:	e1a0      	b.n	0x627e
    5f3c:	3000      	adds	r0, #0
    5f3e:	e3a0      	b.n	0x6682
    5f40:	0008      	movs	r0, r1
    5f42:	e310      	b.n	0x6566
    5f44:	2eff      	cmp	r6, #255	; 0xff
    5f46:	e202      	b.n	0x634e
    5f48:	2901      	cmp	r1, #1
    5f4a:	1382      	asrs	r2, r0, #14
    5f4c:	1003      	asrs	r3, r0, #32
    5f4e:	e1a0      	b.n	0x6292
    5f50:	0006      	movs	r6, r0
    5f52:	e1a0      	b.n	0x6296
    5f54:	fe7e ebff 			; <UNDEFINED> instruction: 0xfe7eebff
    5f58:	0000      	movs	r0, r0
    5f5a:	e350      	b.n	0x65fe
    5f5c:	ff98 0aff 			; <UNDEFINED> instruction: 0xff980aff
    5f60:	ffb5 eaff 			; <UNDEFINED> instruction: 0xffb5eaff
    5f64:	00b1      	lsls	r1, r6, #2
    5f66:	e350      	b.n	0x660a
    5f68:	0030      	movs	r0, r6
    5f6a:	0a00      	lsrs	r0, r0, #8
    5f6c:	00b2      	lsls	r2, r6, #2
    5f6e:	e350      	b.n	0x6612
    5f70:	0060      	lsls	r0, r4, #1
    5f72:	0a00      	lsrs	r0, r0, #8
    5f74:	00b3      	lsls	r3, r6, #2
    5f76:	e350      	b.n	0x661a
    5f78:	0033      	movs	r3, r6
    5f7a:	0a00      	lsrs	r0, r0, #8
    5f7c:	30fc      	adds	r0, #252	; 0xfc
    5f7e:	e200      	b.n	0x6382
    5f80:	00b4      	lsls	r4, r6, #2
    5f82:	e353      	b.n	0x662c
    5f84:	ffac 0aff 			; <UNDEFINED> instruction: 0xffac0aff
    5f88:	3001      	adds	r0, #1
    5f8a:	e3a0      	b.n	0x66ce
    5f8c:	2007      	movs	r0, #7
    5f8e:	e200      	b.n	0x6392
    5f90:	2003      	movs	r0, #3
    5f92:	e082      	b.n	0x609a
    5f94:	2702      	movs	r7, #2
    5f96:	e382      	b.n	0x669e
    5f98:	ffeb eaff 			; <UNDEFINED> instruction: 0xffebeaff
    5f9c:	00c6      	lsls	r6, r0, #3
    5f9e:	e350      	b.n	0x6642
    5fa0:	0032      	movs	r2, r6
    5fa2:	0a00      	lsrs	r0, r0, #8
    5fa4:	00c7      	lsls	r7, r0, #3
    5fa6:	e350      	b.n	0x664a
    5fa8:	0039      	movs	r1, r7
    5faa:	0a00      	lsrs	r0, r0, #8
    5fac:	30f8      	adds	r0, #248	; 0xf8
    5fae:	e200      	b.n	0x63b2
    5fb0:	00c0      	lsls	r0, r0, #3
    5fb2:	e353      	b.n	0x665c
    5fb4:	0042      	lsls	r2, r0, #1
    5fb6:	0a00      	lsrs	r0, r0, #8
    5fb8:	00c8      	lsls	r0, r1, #3
    5fba:	e350      	b.n	0x665e
    5fbc:	0045      	lsls	r5, r0, #1
    5fbe:	0a00      	lsrs	r0, r0, #8
    5fc0:	00c9      	lsls	r1, r1, #3
    5fc2:	e350      	b.n	0x6666
    5fc4:	ff9c 1aff 			; <UNDEFINED> instruction: 0xff9c1aff
    5fc8:	0005      	movs	r5, r0
    5fca:	e1a0      	b.n	0x630e
    5fcc:	ff5e ebff 	vqrdmlah.s16	q15, q15, <illegal reg q15.5>
    5fd0:	2600      	movs	r6, #0
    5fd2:	e1a0      	b.n	0x6316
    5fd4:	000f      	movs	r7, r1
    5fd6:	e200      	b.n	0x63da
    5fd8:	280f      	cmp	r0, #15
    5fda:	e202      	b.n	0x63e2
    5fdc:	0001      	movs	r1, r0
    5fde:	e280      	b.n	0x64e2
    5fe0:	2002      	movs	r0, #2
    5fe2:	e180      	b.n	0x62e6
    5fe4:	ff8e eaff 			; <UNDEFINED> instruction: 0xff8eeaff
    5fe8:	0000      	movs	r0, r0
    5fea:	e357      	b.n	0x669c
    5fec:	0000      	movs	r0, r0
    5fee:	13a0      	asrs	r0, r4, #14
    5ff0:	ff92 1aff 			; <UNDEFINED> instruction: 0xff921aff
    5ff4:	400c      	ands	r4, r1
    5ff6:	e28d      	b.n	0x6514
    5ff8:	3007      	adds	r0, #7
    5ffa:	e1a0      	b.n	0x633e
    5ffc:	200e      	movs	r0, #14
    5ffe:	e3a0      	b.n	0x6742
    6000:	1007      	asrs	r7, r0, #32
    6002:	e1a0      	b.n	0x6346
    6004:	4000      	ands	r0, r0
    6006:	e58d      	b.n	0x5b24
    6008:	0006      	movs	r6, r0
    600a:	e1a0      	b.n	0x634e
    600c:	fcb6 ebff 			; <UNDEFINED> instruction: 0xfcb6ebff
    6010:	4000      	ands	r0, r0
    6012:	e58d      	b.n	0x5b30
    6014:	0006      	movs	r6, r0
    6016:	e1a0      	b.n	0x635a
    6018:	3007      	adds	r0, #7
    601a:	e1a0      	b.n	0x635e
    601c:	200f      	movs	r0, #15
    601e:	e3a0      	b.n	0x6762
    6020:	1007      	asrs	r7, r0, #32
    6022:	e1a0      	b.n	0x6366
    6024:	fcd6 ebff 			; <UNDEFINED> instruction: 0xfcd6ebff
    6028:	0007      	movs	r7, r0
    602a:	e1a0      	b.n	0x636e
    602c:	ff83 eaff 			; <UNDEFINED> instruction: 0xff83eaff
    6030:	0005      	movs	r5, r0
    6032:	e1a0      	b.n	0x6376
    6034:	ff44 ebff 	vqrdmlah.s<illegal width 8>	q15, q10, <illegal reg q15.5>
    6038:	2000      	movs	r0, #0
    603a:	e250      	b.n	0x64de
    603c:	ff7e 0aff 	vpmin.u<illegal width 64>	q8, q15, <illegal reg q15.5>
    6040:	30f0      	adds	r0, #240	; 0xf0
    6042:	e212      	b.n	0x646a
    6044:	ffc0 0aff 			; <UNDEFINED> instruction: 0xffc00aff
    6048:	ff7b eaff 	vpmin.u<illegal width 64>	q15, <illegal reg q13.5>, <illegal reg q15.5>
    604c:	0005      	movs	r5, r0
    604e:	e1a0      	b.n	0x6392
    6050:	ff3d ebff 	vqrdmlah.s<illegal width 64>	q7, <illegal reg q14.5>, <illegal reg q15.5>
    6054:	3001      	adds	r0, #1
    6056:	e3a0      	b.n	0x679a
    6058:	2600      	movs	r6, #0
    605a:	e1a0      	b.n	0x639e
    605c:	000f      	movs	r7, r1
    605e:	e200      	b.n	0x6462
    6060:	180f      	adds	r7, r1, r0
    6062:	e202      	b.n	0x646a
    6064:	2003      	movs	r0, #3
    6066:	e080      	b.n	0x616a
    6068:	2001      	movs	r0, #1
    606a:	e182      	b.n	0x6372
    606c:	ffb6 eaff 			; <UNDEFINED> instruction: 0xffb6eaff
    6070:	0005      	movs	r5, r0
    6072:	e1a0      	b.n	0x63b6
    6074:	ff34 ebff 	vqrdmlah.s<illegal width 64>	q7, q10, <illegal reg q15.5>
    6078:	2600      	movs	r6, #0
    607a:	e1a0      	b.n	0x63be
    607c:	000f      	movs	r7, r1
    607e:	e200      	b.n	0x6482
    6080:	180f      	adds	r7, r1, r0
    6082:	e202      	b.n	0x648a
    6084:	2001      	movs	r0, #1
    6086:	e280      	b.n	0x658a
    6088:	3003      	adds	r0, #3
    608a:	e3a0      	b.n	0x67ce
    608c:	2001      	movs	r0, #1
    608e:	e182      	b.n	0x6396
    6090:	ffad eaff 			; <UNDEFINED> instruction: 0xffadeaff
    6094:	0005      	movs	r5, r0
    6096:	e1a0      	b.n	0x63da
    6098:	ff2b ebff 	vqrdmlah.s32	q7, <illegal reg q13.5>, <illegal reg q15.5>
    609c:	2000      	movs	r0, #0
    609e:	e250      	b.n	0x6542
    60a0:	ff65 0aff 	vpmin.u32	q8, <illegal reg q10.5>, <illegal reg q15.5>
    60a4:	30f0      	adds	r0, #240	; 0xf0
    60a6:	e212      	b.n	0x64ce
    60a8:	ff63 1aff 	vpmin.u32	<illegal reg q8.5>, <illegal reg q9.5>, <illegal reg q15.5>
    60ac:	1004      	asrs	r4, r0, #32
    60ae:	e3a0      	b.n	0x67f2
    60b0:	0006      	movs	r6, r0
    60b2:	e1a0      	b.n	0x63f6
    60b4:	fe26 ebff 			; <UNDEFINED> instruction: 0xfe26ebff
    60b8:	0000      	movs	r0, r0
    60ba:	e350      	b.n	0x675e
    60bc:	ff40 0aff 	vpmin.u8	q8, q8, <illegal reg q15.5>
    60c0:	ff5d eaff 	vpmin.u16	q15, <illegal reg q14.5>, <illegal reg q15.5>
    60c4:	200f      	movs	r0, #15
    60c6:	e200      	b.n	0x64ca
    60c8:	2001      	movs	r0, #1
    60ca:	e282      	b.n	0x65d2
    60cc:	3003      	adds	r0, #3
    60ce:	e3a0      	b.n	0x6812
    60d0:	280a      	cmp	r0, #10
    60d2:	e382      	b.n	0x67da
    60d4:	ff9c eaff 			; <UNDEFINED> instruction: 0xff9ceaff
    60d8:	0005      	movs	r5, r0
    60da:	e1a0      	b.n	0x641e
    60dc:	ff1a ebff 	vqrdmlah.s16	q7, q13, <illegal reg q15.5>
    60e0:	20f0      	movs	r0, #240	; 0xf0
    60e2:	e200      	b.n	0x64e6
    60e4:	300f      	adds	r0, #15
    60e6:	e200      	b.n	0x64ea
    60e8:	2010      	movs	r0, #16
    60ea:	e282      	b.n	0x65f2
    60ec:	3001      	adds	r0, #1
    60ee:	e283      	b.n	0x65f8
    60f0:	2602      	movs	r6, #2
    60f2:	e183      	b.n	0x63fc
    60f4:	ff4a eaff 	vpmin.u8	q15, q13, <illegal reg q15.5>
    60f8:	3000      	adds	r0, #0
    60fa:	e3a0      	b.n	0x683e
    60fc:	900c      	str	r0, [sp, #48]	; 0x30
    60fe:	e28d      	b.n	0x661c
    6100:	1003      	asrs	r3, r0, #32
    6102:	e1a0      	b.n	0x6446
    6104:	200d      	movs	r0, #13
    6106:	e3a0      	b.n	0x684a
    6108:	9000      	str	r0, [sp, #0]
    610a:	e58d      	b.n	0x5c28
    610c:	0006      	movs	r6, r0
    610e:	e1a0      	b.n	0x6452
    6110:	fc75 ebff 			; <UNDEFINED> instruction: 0xfc75ebff
    6114:	0005      	movs	r5, r0
    6116:	e1a0      	b.n	0x645a
    6118:	ff0b ebff 	vqrdmlah.s<illegal width 8>	q7, <illegal reg q13.5>, <illegal reg q15.5>
    611c:	0080      	lsls	r0, r0, #2
    611e:	e310      	b.n	0x6742
    6120:	4002      	ands	r2, r0
    6122:	e3a0      	b.n	0x6866
    6124:	0008      	movs	r0, r1
    6126:	0a00      	lsrs	r0, r0, #8
    6128:	300c      	adds	r0, #12
    612a:	e59d      	b.n	0x5c68
    612c:	007f      	lsls	r7, r7, #1
    612e:	e200      	b.n	0x6532
    6130:	3410      	adds	r4, #16
    6132:	e083      	b.n	0x623c
    6134:	0005      	movs	r5, r0
    6136:	e1a0      	b.n	0x647a
    6138:	300c      	adds	r0, #12
    613a:	e58d      	b.n	0x5c58
    613c:	ff02 ebff 	vqrdmlah.s<illegal width 8>	q7, q9, <illegal reg q15.5>
    6140:	0080      	lsls	r0, r0, #2
    6142:	e310      	b.n	0x6766
    6144:	4007      	ands	r7, r0
    6146:	e284      	b.n	0x6652
    6148:	fff6 1aff 			; <UNDEFINED> instruction: 0xfff61aff
    614c:	3000      	adds	r0, #0
    614e:	e3a0      	b.n	0x6892
    6150:	200c      	movs	r0, #12
    6152:	e59d      	b.n	0x5c90
    6154:	007f      	lsls	r7, r7, #1
    6156:	e200      	b.n	0x655a
    6158:	2f81      	cmp	r7, #129	; 0x81
    615a:	e282      	b.n	0x6662
    615c:	4410      	add	r0, r2
    615e:	e082      	b.n	0x6266
    6160:	9000      	str	r0, [sp, #0]
    6162:	e58d      	b.n	0x5c80
    6164:	1003      	asrs	r3, r0, #32
    6166:	e1a0      	b.n	0x64aa
    6168:	200d      	movs	r0, #13
    616a:	e3a0      	b.n	0x68ae
    616c:	0006      	movs	r6, r0
    616e:	e1a0      	b.n	0x64b2
    6170:	400c      	ands	r4, r1
    6172:	e58d      	b.n	0x5c90
    6174:	fc82 ebff 			; <UNDEFINED> instruction: 0xfc82ebff
    6178:	ff11 eaff 	vpmin.u16	q7, <illegal reg q8.5>, <illegal reg q15.5>
    617c:	ffff 0000 	vaddl.u<illegal width 64>	q8, d15, d0
    6180:	4010      	ands	r0, r2
    6182:	e92d 0006 	stmdb	sp!, {r1, r2}
    6186:	e3a0      	b.n	0x68ca
    6188:	0090      	lsls	r0, r2, #2
    618a:	eb00 0001 	add.w	r0, r0, r1
    618e:	e3a0      	b.n	0x68d2
    6190:	009c      	lsls	r4, r3, #2
    6192:	eb00 4070 	add.w	r0, r0, r0, ror #17
    6196:	e92d 606c 	stmdb	sp!, {r2, r3, r5, r6, sp, lr}
    619a:	e59f      	b.n	0x5cdc
    619c:	506c      	str	r4, [r5, r1]
    619e:	e59f      	b.n	0x5ce0
    61a0:	6005      	str	r5, [r0, #0]
    61a2:	e046      	b.n	0x6232
    61a4:	6146      	str	r6, [r0, #20]
    61a6:	e1b0      	b.n	0x650a
    61a8:	0007      	movs	r7, r0
    61aa:	0a00      	lsrs	r0, r0, #8
    61ac:	4000      	ands	r0, r0
    61ae:	e3a0      	b.n	0x68f2
    61b0:	5004      	str	r4, [r0, r0]
    61b2:	e245      	b.n	0x6640
    61b4:	4001      	ands	r1, r0
    61b6:	e284      	b.n	0x66c2
    61b8:	3004      	adds	r0, #4
    61ba:	e5b5      	b.n	0x5d28
    61bc:	e00f      	b.n	0x61de
    61be:	e1a0      	b.n	0x6502
    61c0:	ff13 e12f 	vrhadd.u16	d14, d3, d31
    61c4:	0004      	movs	r4, r0
    61c6:	e156      	b.n	0x6476
    61c8:	fff9 1aff 			; <UNDEFINED> instruction: 0xfff91aff
    61cc:	6040      	str	r0, [r0, #4]
    61ce:	e59f      	b.n	0x5d10
    61d0:	5040      	str	r0, [r0, r1]
    61d2:	e59f      	b.n	0x5d14
    61d4:	6005      	str	r5, [r0, #0]
    61d6:	e046      	b.n	0x6266
    61d8:	e80c ebff 			; <UNDEFINED> instruction: 0xe80cebff
    61dc:	6146      	str	r6, [r0, #20]
    61de:	e1b0      	b.n	0x6542
    61e0:	0007      	movs	r7, r0
    61e2:	0a00      	lsrs	r0, r0, #8
    61e4:	4000      	ands	r0, r0
    61e6:	e3a0      	b.n	0x692a
    61e8:	5004      	str	r4, [r0, r0]
    61ea:	e245      	b.n	0x6678
    61ec:	4001      	ands	r1, r0
    61ee:	e284      	b.n	0x66fa
    61f0:	3004      	adds	r0, #4
    61f2:	e5b5      	b.n	0x5d60
    61f4:	e00f      	b.n	0x6216
    61f6:	e1a0      	b.n	0x653a
    61f8:	ff13 e12f 	vrhadd.u16	d14, d3, d31
    61fc:	0004      	movs	r4, r0
    61fe:	e156      	b.n	0x64ae
    6200:	fff9 1aff 			; <UNDEFINED> instruction: 0xfff91aff
    6204:	4070      	eors	r0, r6
    6206:	e8bd ff1e 	ldmia.w	sp!, {r1, r2, r3, r4, r8, r9, sl, fp, ip, sp, lr, pc}
    620a:	e12f      	b.n	0x646c
    620c:	0858      	lsrs	r0, r3, #1
    620e:	0300      	lsls	r0, r0, #12
    6210:	0858      	lsrs	r0, r3, #1
    6212:	0300      	lsls	r0, r0, #12
    6214:	085c      	lsrs	r4, r3, #1
    6216:	0300      	lsls	r0, r0, #12
    6218:	0858      	lsrs	r0, r3, #1
    621a:	0300      	lsls	r0, r0, #12
    621c:	000f      	movs	r7, r1
    621e:	e352      	b.n	0x68c6
    6220:	0035      	movs	r5, r6
    6222:	9a00      	ldr	r2, [sp, #0]
    6224:	3001      	adds	r0, #1
    6226:	e180      	b.n	0x652a
    6228:	0003      	movs	r3, r0
    622a:	e313      	b.n	0x6854
    622c:	003e      	movs	r6, r7
    622e:	1a00      	subs	r0, r0, r0
    6230:	41f0      	rors	r0, r6
    6232:	e92d 8010 	stmdb	sp!, {r4, pc}
    6236:	e242      	b.n	0x66be
    6238:	8228      	strh	r0, [r5, #16]
    623a:	e1a0      	b.n	0x657e
    623c:	7020      	strb	r0, [r4, #0]
    623e:	e281      	b.n	0x6744
    6240:	7208      	strb	r0, [r1, #8]
    6242:	e087      	b.n	0x6354
    6244:	3010      	adds	r0, #16
    6246:	e281      	b.n	0x674c
    6248:	c010      	stmia	r0!, {r4}
    624a:	e280      	b.n	0x674e
    624c:	6010      	str	r0, [r2, #0]
    624e:	e513      	b.n	0x5c78
    6250:	500c      	str	r4, [r1, r0]
    6252:	e513      	b.n	0x5c7c
    6254:	4010      	ands	r0, r2
    6256:	e913 3010 	ldmdb	r3, {r4, ip, sp}
    625a:	e283      	b.n	0x6764
    625c:	0007      	movs	r7, r0
    625e:	e153      	b.n	0x6508
    6260:	6010      	str	r0, [r2, #0]
    6262:	e50c      	b.n	0x5c7e
    6264:	500c      	str	r4, [r1, r0]
    6266:	e50c      	b.n	0x5c82
    6268:	4010      	ands	r0, r2
    626a:	e90c c010 	stmdb	ip, {r4, lr, pc}
    626e:	e28c      	b.n	0x678a
    6270:	fff5 1aff 			; <UNDEFINED> instruction: 0xfff51aff
    6274:	c001      	stmia	r0!, {r0}
    6276:	e288      	b.n	0x678a
    6278:	c20c      	stmia	r2!, {r2, r3}
    627a:	e1a0      	b.n	0x65be
    627c:	000c      	movs	r4, r1
    627e:	e312      	b.n	0x68a6
    6280:	e00f      	b.n	0x62a2
    6282:	e202      	b.n	0x668a
    6284:	100c      	asrs	r4, r1, #32
    6286:	e081      	b.n	0x638c
    6288:	200e      	movs	r0, #14
    628a:	01a0      	lsls	r0, r4, #6
    628c:	c00c      	stmia	r0!, {r2, r3}
    628e:	e080      	b.n	0x6392
    6290:	000d      	movs	r5, r1
    6292:	0a00      	lsrs	r0, r0, #8
    6294:	4001      	ands	r1, r0
    6296:	e1a0      	b.n	0x65da
    6298:	e004      	b.n	0x62a4
    629a:	e24e      	b.n	0x673a
    629c:	e12e      	b.n	0x64fc
    629e:	e1a0      	b.n	0x65e2
    62a0:	610e      	str	r6, [r1, #16]
    62a2:	e08c      	b.n	0x63be
    62a4:	3004      	adds	r0, #4
    62a6:	e24c      	b.n	0x6742
    62a8:	5004      	str	r4, [r0, r0]
    62aa:	e494      	b.n	0x5bd6
    62ac:	5004      	str	r4, [r0, r0]
    62ae:	e5a3      	b.n	0x5df8
    62b0:	0006      	movs	r6, r0
    62b2:	e153      	b.n	0x655c
    62b4:	fffb 1aff 			; <UNDEFINED> instruction: 0xfffb1aff
    62b8:	e001      	b.n	0x62be
    62ba:	e28e      	b.n	0x67da
    62bc:	e10e      	b.n	0x64dc
    62be:	e1a0      	b.n	0x6602
    62c0:	c00e      	stmia	r0!, {r1, r2, r3}
    62c2:	e08c      	b.n	0x63de
    62c4:	100e      	asrs	r6, r1, #32
    62c6:	e081      	b.n	0x63cc
    62c8:	2003      	movs	r0, #3
    62ca:	e202      	b.n	0x66d2
    62cc:	0000      	movs	r0, r0
    62ce:	e352      	b.n	0x6976
    62d0:	2001      	movs	r0, #1
    62d2:	e242      	b.n	0x675a
    62d4:	2001      	movs	r0, #1
    62d6:	1282      	asrs	r2, r0, #10
    62d8:	3002      	adds	r0, #2
    62da:	1081      	asrs	r1, r0, #2
    62dc:	2001      	movs	r0, #1
    62de:	124c      	asrs	r4, r1, #9
    62e0:	0003      	movs	r3, r0
    62e2:	0a00      	lsrs	r0, r0, #8
    62e4:	c001      	stmia	r0!, {r0}
    62e6:	e4d1      	b.n	0x5c8c
    62e8:	0003      	movs	r3, r0
    62ea:	e151      	b.n	0x6590
    62ec:	c001      	stmia	r0!, {r0}
    62ee:	e5e2      	b.n	0x5eb6
    62f0:	fffb 1aff 			; <UNDEFINED> instruction: 0xfffb1aff
    62f4:	41f0      	rors	r0, r6
    62f6:	e8bd ff1e 	ldmia.w	sp!, {r1, r2, r3, r4, r8, r9, sl, fp, ip, sp, lr, pc}
    62fa:	e12f      	b.n	0x655c
    62fc:	0000      	movs	r0, r0
    62fe:	e352      	b.n	0x69a6
    6300:	c000      	stmia	r0!, {}
    6302:	e1a0      	b.n	0x6646
    6304:	2001      	movs	r0, #1
    6306:	e242      	b.n	0x678e
    6308:	ff1e 012f 	vrhadd.u16	d0, d14, d31
    630c:	2001      	movs	r0, #1
    630e:	e282      	b.n	0x6816
    6310:	3002      	adds	r0, #2
    6312:	e081      	b.n	0x6418
    6314:	2001      	movs	r0, #1
    6316:	e24c      	b.n	0x67b2
    6318:	c001      	stmia	r0!, {r0}
    631a:	e4d1      	b.n	0x5cc0
    631c:	0003      	movs	r3, r0
    631e:	e151      	b.n	0x65c4
    6320:	c001      	stmia	r0!, {r0}
    6322:	e5e2      	b.n	0x5eea
    6324:	fffb 1aff 			; <UNDEFINED> instruction: 0xfffb1aff
    6328:	ff1e e12f 	vrhadd.u16	d14, d14, d31
    632c:	2001      	movs	r0, #1
    632e:	e242      	b.n	0x67b6
    6330:	c000      	stmia	r0!, {}
    6332:	e1a0      	b.n	0x6676
    6334:	fff4 eaff 			; <UNDEFINED> instruction: 0xfff4eaff
    6338:	001f      	movs	r7, r3
    633a:	e351      	b.n	0x69e0
    633c:	4070      	eors	r0, r6
    633e:	e92d 3016 	stmdb	sp!, {r1, r2, r4, ip, sp}
    6342:	83a0      	strh	r0, [r4, #28]
    6344:	5000      	str	r0, [r0, r0]
    6346:	e1a0      	b.n	0x668a
    6348:	0000      	movs	r0, r0
    634a:	83e0      	strh	r0, [r4, #30]
    634c:	3000      	adds	r0, #0
    634e:	8585      	strh	r5, [r0, #44]	; 0x2c
    6350:	0014      	movs	r4, r2
    6352:	8a00      	ldrh	r0, [r0, #16]
    6354:	22dc      	movs	r2, #220	; 0xdc
    6356:	e595      	b.n	0x5e84
    6358:	0000      	movs	r0, r0
    635a:	e352      	b.n	0x6a02
    635c:	4001      	ands	r1, r0
    635e:	e1a0      	b.n	0x66a2
    6360:	0012      	movs	r2, r2
    6362:	0a00      	lsrs	r0, r0, #8
    6364:	3101      	adds	r1, #1
    6366:	e792      	b.n	0x628e
    6368:	0000      	movs	r0, r0
    636a:	e353      	b.n	0x6a14
    636c:	000f      	movs	r7, r1
    636e:	0a00      	lsrs	r0, r0, #8
    6370:	0001      	movs	r1, r0
    6372:	e353      	b.n	0x6a1c
    6374:	0000      	movs	r0, r0
    6376:	03a0      	lsls	r0, r4, #14
    6378:	000a      	movs	r2, r1
    637a:	0a00      	lsrs	r0, r0, #8
    637c:	0001      	movs	r1, r0
    637e:	e373      	b.n	0x6a68
    6380:	3016      	adds	r0, #22
    6382:	03a0      	lsls	r0, r4, #14
    6384:	0001      	movs	r1, r0
    6386:	03a0      	lsls	r0, r4, #14
    6388:	3000      	adds	r0, #0
    638a:	0585      	lsls	r5, r0, #22
    638c:	0005      	movs	r5, r0
    638e:	0a00      	lsrs	r0, r0, #8
    6390:	5000      	str	r0, [r0, r0]
    6392:	e3a0      	b.n	0x6ad6
    6394:	0001      	movs	r1, r0
    6396:	e1a0      	b.n	0x66da
    6398:	5101      	str	r1, [r0, r4]
    639a:	e782      	b.n	0x62a2
    639c:	e00f      	b.n	0x63be
    639e:	e1a0      	b.n	0x66e2
    63a0:	ff13 e12f 	vrhadd.u16	d14, d3, d31
    63a4:	0005      	movs	r5, r0
    63a6:	e1a0      	b.n	0x66ea
    63a8:	4070      	eors	r0, r6
    63aa:	e8bd ff1e 	ldmia.w	sp!, {r1, r2, r3, r4, r8, r9, sl, fp, ip, sp, lr, pc}
    63ae:	e12f      	b.n	0x6610
    63b0:	0005      	movs	r5, r0
    63b2:	e1a0      	b.n	0x66f6
    63b4:	000b      	movs	r3, r1
    63b6:	eb00 2004 	add.w	r0, r0, r4, lsl #8
    63ba:	e1a0      	b.n	0x66fe
    63bc:	1000      	asrs	r0, r0, #32
    63be:	e1a0      	b.n	0x6702
    63c0:	0005      	movs	r5, r0
    63c2:	e1a0      	b.n	0x6706
    63c4:	000b      	movs	r3, r1
    63c6:	eb00 4070 	add.w	r0, r0, r0, ror #17
    63ca:	e8bd ff1e 	ldmia.w	sp!, {r1, r2, r3, r4, r8, r9, sl, fp, ip, sp, lr, pc}
    63ce:	e12f      	b.n	0x6630
    63d0:	4010      	ands	r0, r2
    63d2:	e92d 4000 	stmdb	sp!, {lr}
    63d6:	e1a0      	b.n	0x671a
    63d8:	0014      	movs	r4, r2
    63da:	eb00 1004 	add.w	r0, r0, r4, lsl #4
    63de:	e1a0      	b.n	0x6722
    63e0:	4010      	ands	r0, r2
    63e2:	e8bd ffd3 	ldmia.w	sp!, {r0, r1, r4, r6, r7, r8, r9, sl, fp, ip, sp, lr, pc}
    63e6:	eaff 3058 			; <UNDEFINED> instruction: 0xeaff3058
    63ea:	e3a0      	b.n	0x6b2e
    63ec:	3000      	adds	r0, #0
    63ee:	e580      	b.n	0x5ef2
    63f0:	0000      	movs	r0, r0
    63f2:	e3e0      	b.n	0x6bb6
    63f4:	ff1e e12f 	vrhadd.u16	d14, d14, d31
    63f8:	3058      	adds	r0, #88	; 0x58
    63fa:	e3a0      	b.n	0x6b3e
    63fc:	3000      	adds	r0, #0
    63fe:	e580      	b.n	0x5f02
    6400:	0000      	movs	r0, r0
    6402:	e3e0      	b.n	0x6bc6
    6404:	ff1e e12f 	vrhadd.u16	d14, d14, d31
    6408:	301c      	adds	r0, #28
    640a:	e59f      	b.n	0x5f4c
    640c:	3004      	adds	r0, #4
    640e:	e593      	b.n	0x5f38
    6410:	0000      	movs	r0, r0
    6412:	e353      	b.n	0x6abc
    6414:	0003      	movs	r3, r0
    6416:	0a00      	lsrs	r0, r0, #8
    6418:	4010      	ands	r0, r2
    641a:	e92d e00f 	stmdb	sp!, {r0, r1, r2, r3, sp, lr, pc}
    641e:	e1a0      	b.n	0x6762
    6420:	ff13 e12f 	vrhadd.u16	d14, d3, d31
    6424:	fffe eaff 			; <UNDEFINED> instruction: 0xfffeeaff
    6428:	fffe eaff 			; <UNDEFINED> instruction: 0xfffeeaff
    642c:	010c      	lsls	r4, r1, #4
    642e:	0300      	lsls	r0, r0, #12
    6430:	3014      	adds	r0, #20
    6432:	e59f      	b.n	0x5f74
    6434:	3034      	adds	r0, #52	; 0x34
    6436:	e593      	b.n	0x5f60
    6438:	0000      	movs	r0, r0
    643a:	e353      	b.n	0x6ae4
    643c:	ff13 112f 	vrhadd.u16	d1, d3, d31
    6440:	3008      	adds	r0, #8
    6442:	e59f      	b.n	0x5f84
    6444:	0000      	movs	r0, r0
    6446:	e593      	b.n	0x5f70
    6448:	ff1e e12f 	vrhadd.u16	d14, d14, d31
    644c:	010c      	lsls	r4, r1, #4
    644e:	0300      	lsls	r0, r0, #12
    6450:	03f4      	lsls	r4, r6, #15
    6452:	0300      	lsls	r0, r0, #12
    6454:	c00d      	stmia	r0!, {r0, r2, r3}
    6456:	e1a0      	b.n	0x679a
    6458:	dff8      	svc	248	; 0xf8
    645a:	e92d b004 	stmdb	sp!, {r2, ip, sp, pc}
    645e:	e24c      	b.n	0x68fa
    6460:	d028      	beq.n	0x64b4
    6462:	e24b      	b.n	0x68fc
    6464:	6ff0      	ldr	r0, [r6, #124]	; 0x7c
    6466:	e89d ff1e 	ldmia.w	sp, {r1, r2, r3, r4, r8, r9, sl, fp, ip, sp, lr, pc}
    646a:	e12f      	b.n	0x66cc
    646c:	a478      	add	r4, pc, #480	; (adr r4, 0x6650)
    646e:	d76a      	bvc.n	0x6546
    6470:	b756      			; <UNDEFINED> instruction: 0xb756
    6472:	e8c7 70db 			; <UNDEFINED> instruction: 0xe8c770db
    6476:	2420      	movs	r4, #32
    6478:	ceee      	ldmia	r6, {r1, r2, r3, r5, r6, r7}
    647a:	c1bd      	stmia	r1!, {r0, r2, r3, r4, r5, r7}
    647c:	0faf      	lsrs	r7, r5, #30
    647e:	f57c c62a 	blx	0xff1830d4
    6482:	4787      			; <UNDEFINED> instruction: 0x4787
    6484:	4613      	mov	r3, r2
    6486:	a830      	add	r0, sp, #192	; 0xc0
    6488:	9501      	str	r5, [sp, #4]
    648a:	fd46 98d8 			; <UNDEFINED> instruction: 0xfd4698d8
    648e:	6980      	ldr	r0, [r0, #24]
    6490:	f7af 8b44 	undefined (bcc, cond=0xE)
    6494:	5bb1      	ldrh	r1, [r6, r6]
    6496:	ffff d7be 	vqshl.u64	d29, d30, #63	; 0x3f
    649a:	895c      	ldrh	r4, [r3, #10]
    649c:	1122      	asrs	r2, r4, #4
    649e:	6b90      	ldr	r0, [r2, #56]	; 0x38
    64a0:	7193      	strb	r3, [r2, #6]
    64a2:	fd98 438e 			; <UNDEFINED> instruction: 0xfd98438e
    64a6:	a679      	add	r6, pc, #484	; (adr r6, 0x668c)
    64a8:	0821      	lsrs	r1, r4, #32
    64aa:	49b4      	ldr	r1, [pc, #720]	; (0x677c)
    64ac:	2562      	movs	r5, #98	; 0x62
    64ae:	f61e b340 	b.w	0xffa24b32
    64b2:	c040      	stmia	r0!, {r6}
    64b4:	5a51      	ldrh	r1, [r2, r1]
    64b6:	265e      	movs	r6, #94	; 0x5e
    64b8:	c7aa      	stmia	r7!, {r1, r3, r5, r7}
    64ba:	e9b6 105d 			; <UNDEFINED> instruction: 0xe9b6105d
    64be:	d62f      	bvs.n	0x6520
    64c0:	1453      	asrs	r3, r2, #17
    64c2:	0244      	lsls	r4, r0, #9
    64c4:	e681      	b.n	0x61ca
    64c6:	d8a1      	bhi.n	0x640c
    64c8:	fbc8 e7d3 	smlaldx	lr, r7, r8, r3
    64cc:	cde6      	ldmia	r5, {r1, r2, r5, r6, r7}
    64ce:	21e1      	movs	r1, #225	; 0xe1
    64d0:	07d6      	lsls	r6, r2, #31
    64d2:	c337      	stmia	r3!, {r0, r1, r2, r4, r5}
    64d4:	0d87      	lsrs	r7, r0, #22
    64d6:	f4d5 14ed 			; <UNDEFINED> instruction: 0xf4d514ed
    64da:	455a      	cmp	r2, fp
    64dc:	e905 a9e3 	stmdb	r5, {r0, r1, r5, r6, r7, r8, fp, sp, pc}
    64e0:	a3f8      	add	r3, pc, #992	; (adr r3, 0x68c4)
    64e2:	fcef 02d9 			; <UNDEFINED> instruction: 0xfcef02d9
    64e6:	676f      	str	r7, [r5, #116]	; 0x74
    64e8:	4c8a      	ldr	r4, [pc, #552]	; (0x6714)
    64ea:	8d2a      	ldrh	r2, [r5, #40]	; 0x28
    64ec:	3942      	subs	r1, #66	; 0x42
    64ee:	fffa f681 	vrintm.f32	d31, d1
    64f2:	8771      	strh	r1, [r6, #58]	; 0x3a
    64f4:	6122      	str	r2, [r4, #16]
    64f6:	6d9d      	ldr	r5, [r3, #88]	; 0x58
    64f8:	380c      	subs	r0, #12
    64fa:	fde5 ea44 			; <UNDEFINED> instruction: 0xfde5ea44
    64fe:	a4be      	add	r4, pc, #760	; (adr r4, 0x67f8)
    6500:	cfa9      	ldmia	r7, {r0, r3, r5, r7}
    6502:	4bde      	ldr	r3, [pc, #888]	; (0x687c)
    6504:	4b60      	ldr	r3, [pc, #384]	; (0x6688)
    6506:	f6bb bc70 	b.w	0xffec1dea
    650a:	bebf      	bkpt	0x00bf
    650c:	7ec6      	ldrb	r6, [r0, #27]
    650e:	289b      	cmp	r0, #155	; 0x9b
    6510:	27fa      	movs	r7, #250	; 0xfa
    6512:	eaa1 3085 			; <UNDEFINED> instruction: 0xeaa13085
    6516:	d4ef      	bmi.n	0x64f8
    6518:	1d05      	adds	r5, r0, #4
    651a:	0488      	lsls	r0, r1, #18
    651c:	d039      	beq.n	0x6592
    651e:	d9d4      	bls.n	0x64ca
    6520:	99e5      	ldr	r1, [sp, #916]	; 0x394
    6522:	e6db      	b.n	0x62dc
    6524:	7cf8      	ldrb	r0, [r7, #19]
    6526:	1fa2      	subs	r2, r4, #6
    6528:	5665      	ldrsb	r5, [r4, r1]
    652a:	c4ac      	stmia	r4!, {r2, r3, r5, r7}
    652c:	2244      	movs	r2, #68	; 0x44
    652e:	f429 ff97 	bl	0xffc30460
    6532:	432a      	orrs	r2, r5
    6534:	23a7      	movs	r3, #167	; 0xa7
    6536:	ab94      	add	r3, sp, #592	; 0x250
    6538:	a039      	add	r0, pc, #228	; (adr r0, 0x6620)
    653a:	fc93 59c3 			; <UNDEFINED> instruction: 0xfc9359c3
    653e:	655b      	str	r3, [r3, #84]	; 0x54
    6540:	cc92      	ldmia	r4, {r1, r4, r7}
    6542:	8f0c      	ldrh	r4, [r1, #56]	; 0x38
    6544:	f47d ffef 	bl	0xffc84526
    6548:	5dd1      	ldrb	r1, [r2, r7]
    654a:	8584      	strh	r4, [r0, #44]	; 0x2c
    654c:	7e4f      	ldrb	r7, [r1, #25]
    654e:	6fa8      	ldr	r0, [r5, #120]	; 0x78
    6550:	e6e0      	b.n	0x6314
    6552:	fe2c 4314 			; <UNDEFINED> instruction: 0xfe2c4314
    6556:	a301      	add	r3, pc, #4	; (adr r3, 0x655c)
    6558:	11a1      	asrs	r1, r4, #6
    655a:	4e08      	ldr	r6, [pc, #32]	; (0x657c)
    655c:	7e82      	ldrb	r2, [r0, #26]
    655e:	f753 f235 	bl	0xffb599cc
    6562:	bd3a      	pop	{r1, r3, r4, r5, pc}
    6564:	d2bb      	bcs.n	0x64de
    6566:	2ad7      	cmp	r2, #215	; 0xd7
    6568:	d391      	bcc.n	0x648e
    656a:	eb86 0007 			; <UNDEFINED> instruction: 0xeb860007
    656e:	0000      	movs	r0, r0
    6570:	000c      	movs	r4, r1
    6572:	0000      	movs	r0, r0
    6574:	0011      	movs	r1, r2
    6576:	0000      	movs	r0, r0
    6578:	0016      	movs	r6, r2
    657a:	0000      	movs	r0, r0
    657c:	0007      	movs	r7, r0
    657e:	0000      	movs	r0, r0
    6580:	000c      	movs	r4, r1
    6582:	0000      	movs	r0, r0
    6584:	0011      	movs	r1, r2
    6586:	0000      	movs	r0, r0
    6588:	0016      	movs	r6, r2
    658a:	0000      	movs	r0, r0
    658c:	0007      	movs	r7, r0
    658e:	0000      	movs	r0, r0
    6590:	000c      	movs	r4, r1
    6592:	0000      	movs	r0, r0
    6594:	0011      	movs	r1, r2
    6596:	0000      	movs	r0, r0
    6598:	0016      	movs	r6, r2
    659a:	0000      	movs	r0, r0
    659c:	0007      	movs	r7, r0
    659e:	0000      	movs	r0, r0
    65a0:	000c      	movs	r4, r1
    65a2:	0000      	movs	r0, r0
    65a4:	0011      	movs	r1, r2
    65a6:	0000      	movs	r0, r0
    65a8:	0016      	movs	r6, r2
    65aa:	0000      	movs	r0, r0
    65ac:	0005      	movs	r5, r0
    65ae:	0000      	movs	r0, r0
    65b0:	0009      	movs	r1, r1
    65b2:	0000      	movs	r0, r0
    65b4:	000e      	movs	r6, r1
    65b6:	0000      	movs	r0, r0
    65b8:	0014      	movs	r4, r2
    65ba:	0000      	movs	r0, r0
    65bc:	0005      	movs	r5, r0
    65be:	0000      	movs	r0, r0
    65c0:	0009      	movs	r1, r1
    65c2:	0000      	movs	r0, r0
    65c4:	000e      	movs	r6, r1
    65c6:	0000      	movs	r0, r0
    65c8:	0014      	movs	r4, r2
    65ca:	0000      	movs	r0, r0
    65cc:	0005      	movs	r5, r0
    65ce:	0000      	movs	r0, r0
    65d0:	0009      	movs	r1, r1
    65d2:	0000      	movs	r0, r0
    65d4:	000e      	movs	r6, r1
    65d6:	0000      	movs	r0, r0
    65d8:	0014      	movs	r4, r2
    65da:	0000      	movs	r0, r0
    65dc:	0005      	movs	r5, r0
    65de:	0000      	movs	r0, r0
    65e0:	0009      	movs	r1, r1
    65e2:	0000      	movs	r0, r0
    65e4:	000e      	movs	r6, r1
    65e6:	0000      	movs	r0, r0
    65e8:	0014      	movs	r4, r2
    65ea:	0000      	movs	r0, r0
    65ec:	0004      	movs	r4, r0
    65ee:	0000      	movs	r0, r0
    65f0:	000b      	movs	r3, r1
    65f2:	0000      	movs	r0, r0
    65f4:	0010      	movs	r0, r2
    65f6:	0000      	movs	r0, r0
    65f8:	0017      	movs	r7, r2
    65fa:	0000      	movs	r0, r0
    65fc:	0004      	movs	r4, r0
    65fe:	0000      	movs	r0, r0
    6600:	000b      	movs	r3, r1
    6602:	0000      	movs	r0, r0
    6604:	0010      	movs	r0, r2
    6606:	0000      	movs	r0, r0
    6608:	0017      	movs	r7, r2
    660a:	0000      	movs	r0, r0
    660c:	0004      	movs	r4, r0
    660e:	0000      	movs	r0, r0
    6610:	000b      	movs	r3, r1
    6612:	0000      	movs	r0, r0
    6614:	0010      	movs	r0, r2
    6616:	0000      	movs	r0, r0
    6618:	0017      	movs	r7, r2
    661a:	0000      	movs	r0, r0
    661c:	0004      	movs	r4, r0
    661e:	0000      	movs	r0, r0
    6620:	000b      	movs	r3, r1
    6622:	0000      	movs	r0, r0
    6624:	0010      	movs	r0, r2
    6626:	0000      	movs	r0, r0
    6628:	0017      	movs	r7, r2
    662a:	0000      	movs	r0, r0
    662c:	0006      	movs	r6, r0
    662e:	0000      	movs	r0, r0
    6630:	000a      	movs	r2, r1
    6632:	0000      	movs	r0, r0
    6634:	000f      	movs	r7, r1
    6636:	0000      	movs	r0, r0
    6638:	0015      	movs	r5, r2
    663a:	0000      	movs	r0, r0
    663c:	0006      	movs	r6, r0
    663e:	0000      	movs	r0, r0
    6640:	000a      	movs	r2, r1
    6642:	0000      	movs	r0, r0
    6644:	000f      	movs	r7, r1
    6646:	0000      	movs	r0, r0
    6648:	0015      	movs	r5, r2
    664a:	0000      	movs	r0, r0
    664c:	0006      	movs	r6, r0
    664e:	0000      	movs	r0, r0
    6650:	000a      	movs	r2, r1
    6652:	0000      	movs	r0, r0
    6654:	000f      	movs	r7, r1
    6656:	0000      	movs	r0, r0
    6658:	0015      	movs	r5, r2
    665a:	0000      	movs	r0, r0
    665c:	0006      	movs	r6, r0
    665e:	0000      	movs	r0, r0
    6660:	000a      	movs	r2, r1
    6662:	0000      	movs	r0, r0
    6664:	000f      	movs	r7, r1
    6666:	0000      	movs	r0, r0
    6668:	0015      	movs	r5, r2
    666a:	0000      	movs	r0, r0
    666c:	0003      	movs	r3, r0
    666e:	0000      	movs	r0, r0
    6670:	1004      	asrs	r4, r0, #32
    6672:	0004      	movs	r4, r0
    6674:	0004      	movs	r4, r0
    6676:	0000      	movs	r0, r0
    6678:	0000      	movs	r0, r0
    667a:	0000      	movs	r0, r0
    667c:	ffff ffff 			; <UNDEFINED> instruction: 0xffffffff
    6680:	ffff ffff 			; <UNDEFINED> instruction: 0xffffffff
    6684:	0000      	movs	r0, r0
    6686:	0000      	movs	r0, r0
    6688:	0001      	movs	r1, r0
    668a:	0000      	movs	r0, r0
    668c:	0005      	movs	r5, r0
    668e:	0000      	movs	r0, r0
    6690:	0000      	movs	r0, r0
    6692:	0000      	movs	r0, r0
    6694:	0004      	movs	r4, r0
    6696:	0000      	movs	r0, r0
    6698:	0000      	movs	r0, r0
    669a:	0000      	movs	r0, r0
    669c:	0001      	movs	r1, r0
    669e:	0000      	movs	r0, r0
    66a0:	0000      	movs	r0, r0
    66a2:	0000      	movs	r0, r0
    66a4:	0002      	movs	r2, r0
    66a6:	0000      	movs	r0, r0
    66a8:	0000      	movs	r0, r0
    66aa:	0000      	movs	r0, r0
    66ac:	0001      	movs	r1, r0
    66ae:	0000      	movs	r0, r0
    66b0:	0000      	movs	r0, r0
    66b2:	0000      	movs	r0, r0
    66b4:	0003      	movs	r3, r0
    66b6:	0000      	movs	r0, r0
    66b8:	0000      	movs	r0, r0
    66ba:	0000      	movs	r0, r0
    66bc:	0001      	movs	r1, r0
    66be:	0000      	movs	r0, r0
    66c0:	0000      	movs	r0, r0
    66c2:	0000      	movs	r0, r0
    66c4:	0002      	movs	r2, r0
    66c6:	0000      	movs	r0, r0
    66c8:	0000      	movs	r0, r0
    66ca:	0000      	movs	r0, r0
    66cc:	0001      	movs	r1, r0
    66ce:	0000      	movs	r0, r0
    66d0:	0000      	movs	r0, r0
    66d2:	0000      	movs	r0, r0
    66d4:	002a      	movs	r2, r5
    66d6:	0000      	movs	r0, r0
    66d8:	0058      	lsls	r0, r3, #1
    66da:	0000      	movs	r0, r0
    66dc:	4150      	adcs	r0, r2
    66de:	5353      	strh	r3, [r2, r5]
    66e0:	0000      	movs	r0, r0
    66e2:	0000      	movs	r0, r0
    66e4:	4146      	adcs	r6, r0
    66e6:	4c49      	ldr	r4, [pc, #292]	; (0x680c)
    66e8:	0000      	movs	r0, r0
    66ea:	0000      	movs	r0, r0
    66ec:	255b      	movs	r5, #91	; 0x5b
    66ee:	5d73      	ldrb	r3, [r6, r5]
    66f0:	2520      	movs	r5, #32
    66f2:	3a73      	subs	r2, #115	; 0x73
    66f4:	0020      	movs	r0, r4
    66f6:	0000      	movs	r0, r0
    66f8:	6928      	ldr	r0, [r5, #16]
    66fa:	736e      	strb	r6, [r5, #13]
    66fc:	6675      	str	r5, [r6, #100]	; 0x64
    66fe:	6966      	ldr	r6, [r4, #20]
    6700:	6963      	ldr	r3, [r4, #20]
    6702:	6e65      	ldr	r5, [r4, #100]	; 0x64
    6704:	2074      	movs	r0, #116	; 0x74
    6706:	656d      	str	r5, [r5, #84]	; 0x54
    6708:	6f6d      	ldr	r5, [r5, #116]	; 0x74
    670a:	7972      	ldrb	r2, [r6, #5]
    670c:	0029      	movs	r1, r5
    670e:	0000      	movs	r0, r0
    6710:	6749      	str	r1, [r1, #116]	; 0x74
    6712:	6f6e      	ldr	r6, [r5, #116]	; 0x74
    6714:	6572      	str	r2, [r6, #84]	; 0x54
    6716:	2064      	movs	r0, #100	; 0x64
    6718:	7325      	strb	r5, [r4, #12]
    671a:	000a      	movs	r2, r1
    671c:	5020      	str	r0, [r4, r0]
    671e:	7361      	strb	r1, [r4, #13]
    6720:	6573      	str	r3, [r6, #84]	; 0x54
    6722:	2e64      	cmp	r6, #100	; 0x64
    6724:	0000      	movs	r0, r0
    6726:	0000      	movs	r0, r0
    6728:	4620      	mov	r0, r4
    672a:	6961      	ldr	r1, [r4, #20]
    672c:	656c      	str	r4, [r5, #84]	; 0x54
    672e:	2e64      	cmp	r6, #100	; 0x64
    6730:	0000      	movs	r0, r0
    6732:	0000      	movs	r0, r0
    6734:	2020      	movs	r0, #32
    6736:	696d      	ldr	r5, [r5, #20]
    6738:	206e      	movs	r0, #110	; 0x6e
    673a:	6974      	ldr	r4, [r6, #20]
    673c:	656d      	str	r5, [r5, #84]	; 0x54
    673e:	203a      	movs	r0, #58	; 0x3a
    6740:	6425      	str	r5, [r4, #64]	; 0x40
    6742:	6d20      	ldr	r0, [r4, #80]	; 0x50
    6744:	2073      	movs	r0, #115	; 0x73
    6746:	255b      	movs	r5, #91	; 0x5b
    6748:	5d64      	ldrb	r4, [r4, r5]
    674a:	000a      	movs	r2, r1
    674c:	3d3d      	subs	r5, #61	; 0x3d
    674e:	3d3d      	subs	r5, #61	; 0x3d
    6750:	3d3d      	subs	r5, #61	; 0x3d
    6752:	3d3d      	subs	r5, #61	; 0x3d
    6754:	3d3d      	subs	r5, #61	; 0x3d
    6756:	3d3d      	subs	r5, #61	; 0x3d
    6758:	3d3d      	subs	r5, #61	; 0x3d
    675a:	3d3d      	subs	r5, #61	; 0x3d
    675c:	3d3d      	subs	r5, #61	; 0x3d
    675e:	3d3d      	subs	r5, #61	; 0x3d
    6760:	3d3d      	subs	r5, #61	; 0x3d
    6762:	3d3d      	subs	r5, #61	; 0x3d
    6764:	3d3d      	subs	r5, #61	; 0x3d
    6766:	3d3d      	subs	r5, #61	; 0x3d
    6768:	3d3d      	subs	r5, #61	; 0x3d
    676a:	3d3d      	subs	r5, #61	; 0x3d
    676c:	3d3d      	subs	r5, #61	; 0x3d
    676e:	3d3d      	subs	r5, #61	; 0x3d
    6770:	3d3d      	subs	r5, #61	; 0x3d
    6772:	3d3d      	subs	r5, #61	; 0x3d
    6774:	3d3d      	subs	r5, #61	; 0x3d
    6776:	3d3d      	subs	r5, #61	; 0x3d
    6778:	3d3d      	subs	r5, #61	; 0x3d
    677a:	3d3d      	subs	r5, #61	; 0x3d
    677c:	3d3d      	subs	r5, #61	; 0x3d
    677e:	000a      	movs	r2, r1
    6780:	694d      	ldr	r5, [r1, #20]
    6782:	7263      	strb	r3, [r4, #9]
    6784:	426f      	negs	r7, r5
    6786:	6e65      	ldr	r5, [r4, #100]	; 0x64
    6788:	6863      	ldr	r3, [r4, #4]
    678a:	2520      	movs	r5, #32
    678c:	0073      	lsls	r3, r6, #1
    678e:	0000      	movs	r0, r0
    6790:	2020      	movs	r0, #32
    6792:	2020      	movs	r0, #32
    6794:	2020      	movs	r0, #32
    6796:	2020      	movs	r0, #32
    6798:	6425      	str	r5, [r4, #64]	; 0x40
    679a:	4d20      	ldr	r5, [pc, #128]	; (0x681c)
    679c:	7261      	strb	r1, [r4, #9]
    679e:	736b      	strb	r3, [r5, #13]
    67a0:	000a      	movs	r2, r1
    67a2:	0000      	movs	r0, r0
    67a4:	3769      	adds	r7, #105	; 0x69
    67a6:	362d      	adds	r6, #45	; 0x2d
    67a8:	3037      	adds	r0, #55	; 0x37
    67aa:	2030      	movs	r0, #48	; 0x30
    67ac:	2040      	movs	r0, #64	; 0x40
    67ae:	2e33      	cmp	r6, #51	; 0x33
    67b0:	3034      	adds	r0, #52	; 0x34
    67b2:	4847      	ldr	r0, [pc, #284]	; (0x68d0)
    67b4:	007a      	lsls	r2, r7, #1
    67b6:	0000      	movs	r0, r0
    67b8:	2020      	movs	r0, #32
    67ba:	2020      	movs	r0, #32
    67bc:	2020      	movs	r0, #32
    67be:	2020      	movs	r0, #32
    67c0:	2020      	movs	r0, #32
    67c2:	2020      	movs	r0, #32
    67c4:	2020      	movs	r0, #32
    67c6:	2020      	movs	r0, #32
    67c8:	2020      	movs	r0, #32
    67ca:	7620      	strb	r0, [r4, #24]
    67cc:	2e73      	cmp	r6, #115	; 0x73
    67ce:	2520      	movs	r5, #32
    67d0:	2064      	movs	r0, #100	; 0x64
    67d2:	614d      	str	r5, [r1, #20]
    67d4:	6b72      	ldr	r2, [r6, #52]	; 0x34
    67d6:	2073      	movs	r0, #115	; 0x73
    67d8:	2528      	movs	r5, #40	; 0x28
    67da:	2973      	cmp	r1, #115	; 0x73
    67dc:	000a      	movs	r2, r1
    67de:	0000      	movs	r0, r0
    67e0:	7371      	strb	r1, [r6, #13]
    67e2:	726f      	strb	r7, [r5, #9]
    67e4:	0074      	lsls	r4, r6, #1
    67e6:	0000      	movs	r0, r0
    67e8:	7551      	strb	r1, [r2, #21]
    67ea:	6369      	str	r1, [r5, #52]	; 0x34
    67ec:	206b      	movs	r0, #107	; 0x6b
    67ee:	6f73      	ldr	r3, [r6, #116]	; 0x74
    67f0:	7472      	strb	r2, [r6, #17]
    67f2:	0000      	movs	r0, r0
    67f4:	7571      	strb	r1, [r6, #21]
    67f6:	6565      	str	r5, [r4, #84]	; 0x54
    67f8:	006e      	lsls	r6, r5, #1
    67fa:	0000      	movs	r0, r0
    67fc:	7551      	strb	r1, [r2, #21]
    67fe:	6565      	str	r5, [r4, #84]	; 0x54
    6800:	206e      	movs	r0, #110	; 0x6e
    6802:	6c70      	ldr	r0, [r6, #68]	; 0x44
    6804:	6361      	str	r1, [r4, #52]	; 0x34
    6806:	6d65      	ldr	r5, [r4, #84]	; 0x54
    6808:	6e65      	ldr	r5, [r4, #100]	; 0x64
    680a:	0074      	lsls	r4, r6, #1
    680c:	6662      	str	r2, [r4, #100]	; 0x64
    680e:	0000      	movs	r0, r0
    6810:	7242      	strb	r2, [r0, #9]
    6812:	6961      	ldr	r1, [r4, #20]
    6814:	666e      	str	r6, [r5, #100]	; 0x64
    6816:	2a2a      	cmp	r2, #42	; 0x2a
    6818:	206b      	movs	r0, #107	; 0x6b
    681a:	6e69      	ldr	r1, [r5, #100]	; 0x64
    681c:	6574      	str	r4, [r6, #84]	; 0x54
    681e:	7072      	strb	r2, [r6, #1]
    6820:	6572      	str	r2, [r6, #84]	; 0x54
    6822:	6574      	str	r4, [r6, #84]	; 0x54
    6824:	0072      	lsls	r2, r6, #1
    6826:	0000      	movs	r0, r0
    6828:	6966      	ldr	r6, [r4, #20]
    682a:	0062      	lsls	r2, r4, #1
    682c:	6946      	ldr	r6, [r0, #20]
    682e:	6f62      	ldr	r2, [r4, #116]	; 0x74
    6830:	616e      	str	r6, [r5, #20]
    6832:	6363      	str	r3, [r4, #52]	; 0x34
    6834:	2069      	movs	r0, #105	; 0x69
    6836:	756e      	strb	r6, [r5, #21]
    6838:	626d      	str	r5, [r5, #36]	; 0x24
    683a:	7265      	strb	r5, [r4, #9]
    683c:	0000      	movs	r0, r0
    683e:	0000      	movs	r0, r0
    6840:	6973      	ldr	r3, [r6, #20]
    6842:	7665      	strb	r5, [r4, #25]
    6844:	0065      	lsls	r5, r4, #1
    6846:	0000      	movs	r0, r0
    6848:	7245      	strb	r5, [r0, #9]
    684a:	7461      	strb	r1, [r4, #17]
    684c:	736f      	strb	r7, [r5, #13]
    684e:	6874      	ldr	r4, [r6, #4]
    6850:	6e65      	ldr	r5, [r4, #100]	; 0x64
    6852:	7365      	strb	r5, [r4, #13]
    6854:	7320      	strb	r0, [r4, #12]
    6856:	6569      	str	r1, [r5, #84]	; 0x54
    6858:	6576      	str	r6, [r6, #84]	; 0x54
    685a:	0000      	movs	r0, r0
    685c:	3531      	adds	r5, #49	; 0x31
    685e:	7a70      	ldrb	r0, [r6, #9]
    6860:	0000      	movs	r0, r0
    6862:	0000      	movs	r0, r0
    6864:	2a41      	cmp	r2, #65	; 0x41
    6866:	3120      	adds	r1, #32
    6868:	2d35      	cmp	r5, #53	; 0x35
    686a:	7570      	strb	r0, [r6, #21]
    686c:	7a7a      	ldrb	r2, [r7, #9]
    686e:	656c      	str	r4, [r5, #84]	; 0x54
    6870:	7320      	strb	r0, [r4, #12]
    6872:	6165      	str	r5, [r4, #20]
    6874:	6372      	str	r2, [r6, #52]	; 0x34
    6876:	0068      	lsls	r0, r5, #1
    6878:	6964      	ldr	r4, [r4, #20]
    687a:	696e      	ldr	r6, [r5, #20]
    687c:	0063      	lsls	r3, r4, #1
    687e:	0000      	movs	r0, r0
    6880:	6944      	ldr	r4, [r0, #20]
    6882:	696e      	ldr	r6, [r5, #20]
    6884:	2763      	movs	r7, #99	; 0x63
    6886:	2073      	movs	r0, #115	; 0x73
    6888:	616d      	str	r5, [r5, #20]
    688a:	6678      	str	r0, [r7, #100]	; 0x64
    688c:	6f6c      	ldr	r4, [r5, #116]	; 0x74
    688e:	2077      	movs	r0, #119	; 0x77
    6890:	6c61      	ldr	r1, [r4, #68]	; 0x44
    6892:	6f67      	ldr	r7, [r4, #116]	; 0x74
    6894:	6972      	ldr	r2, [r6, #20]
    6896:	6874      	ldr	r4, [r6, #4]
    6898:	006d      	lsls	r5, r5, #1
    689a:	0000      	movs	r0, r0
    689c:	7a6c      	ldrb	r4, [r5, #9]
    689e:	7069      	strb	r1, [r5, #1]
    68a0:	0000      	movs	r0, r0
    68a2:	0000      	movs	r0, r0
    68a4:	7a4c      	ldrb	r4, [r1, #9]
    68a6:	7069      	strb	r1, [r5, #1]
    68a8:	6320      	str	r0, [r4, #48]	; 0x30
    68aa:	6d6f      	ldr	r7, [r5, #84]	; 0x54
    68ac:	7270      	strb	r0, [r6, #9]
    68ae:	7365      	strb	r5, [r4, #13]
    68b0:	6973      	ldr	r3, [r6, #20]
    68b2:	6e6f      	ldr	r7, [r5, #100]	; 0x64
    68b4:	0000      	movs	r0, r0
    68b6:	0000      	movs	r0, r0
    68b8:	7373      	strb	r3, [r6, #13]
    68ba:	726f      	strb	r7, [r5, #9]
    68bc:	0074      	lsls	r4, r6, #1
    68be:	0000      	movs	r0, r0
    68c0:	7553      	strb	r3, [r2, #21]
    68c2:	6666      	str	r6, [r4, #100]	; 0x64
    68c4:	7869      	ldrb	r1, [r5, #1]
    68c6:	7320      	strb	r0, [r4, #12]
    68c8:	726f      	strb	r7, [r5, #9]
    68ca:	0074      	lsls	r4, r6, #1
    68cc:	646d      	str	r5, [r5, #68]	; 0x44
    68ce:	0035      	movs	r5, r6
    68d0:	444d      	add	r5, r9
    68d2:	2035      	movs	r0, #53	; 0x35
    68d4:	6964      	ldr	r4, [r4, #20]
    68d6:	6567      	str	r7, [r4, #84]	; 0x54
    68d8:	7473      	strb	r3, [r6, #17]
    68da:	ff00 3e3e 	vacge.f32	d3, d0, d30
    68de:	3e2b      	subs	r6, #43	; 0x2b
    68e0:	3e3e      	subs	r6, #62	; 0x3e
    68e2:	3e3e      	subs	r6, #62	; 0x3e
    68e4:	5b2c      	ldrh	r4, [r5, r4]
    68e6:	2b3e      	cmp	r3, #62	; 0x3e
    68e8:	3e3e      	subs	r6, #62	; 0x3e
    68ea:	5d2c      	ldrb	r4, [r5, r4]
    68ec:	2b3e      	cmp	r3, #62	; 0x3e
    68ee:	2d5b      	cmp	r5, #91	; 0x5b
    68f0:	5b2d      	ldrh	r5, [r5, r4]
    68f2:	3c2b      	subs	r4, #43	; 0x2b
    68f4:	3c3c      	subs	r4, #60	; 0x3c
    68f6:	5d2d      	ldrb	r5, [r5, r4]
    68f8:	5b3c      	ldrh	r4, [r7, r4]
    68fa:	2b3c      	cmp	r3, #60	; 0x3c
    68fc:	2d3e      	cmp	r5, #62	; 0x3e
    68fe:	3c5d      	subs	r4, #93	; 0x5d
    6900:	3c5b      	subs	r4, #91	; 0x5b
    6902:	2d5b      	cmp	r5, #91	; 0x5b
    6904:	5b3e      	ldrh	r6, [r7, r4]
    6906:	3c3c      	subs	r4, #60	; 0x3c
    6908:	2b3c      	cmp	r3, #60	; 0x3c
    690a:	3e3e      	subs	r6, #62	; 0x3e
    690c:	3e3e      	subs	r6, #62	; 0x3e
    690e:	3c2b      	subs	r4, #43	; 0x2b
    6910:	5d2d      	ldrb	r5, [r5, r4]
    6912:	3c3c      	subs	r4, #60	; 0x3c
    6914:	3e5b      	subs	r6, #91	; 0x5b
    6916:	2b3e      	cmp	r3, #62	; 0x3e
    6918:	5b3e      	ldrh	r6, [r7, r4]
    691a:	3e2d      	subs	r6, #45	; 0x2d
    691c:	3c5d      	subs	r4, #93	; 0x5d
    691e:	5b3c      	ldrh	r4, [r7, r4]
    6920:	5d3c      	ldrb	r4, [r7, r4]
    6922:	2d3c      	cmp	r5, #60	; 0x3c
    6924:	3e5d      	subs	r6, #93	; 0x5d
    6926:	3e5d      	subs	r6, #93	; 0x5d
    6928:	3e3e      	subs	r6, #62	; 0x3e
    692a:	3c2b      	subs	r4, #43	; 0x2b
    692c:	5b5b      	ldrh	r3, [r3, r5]
    692e:	5d2d      	ldrb	r5, [r5, r4]
    6930:	5b3c      	ldrh	r4, [r7, r4]
    6932:	2b3e      	cmp	r3, #62	; 0x3e
    6934:	2d3c      	cmp	r5, #60	; 0x3c
    6936:	3c5d      	subs	r4, #93	; 0x5d
    6938:	3e5d      	subs	r6, #93	; 0x5d
    693a:	5b5b      	ldrh	r3, [r3, r5]
    693c:	3e3e      	subs	r6, #62	; 0x3e
    693e:	5d3e      	ldrb	r6, [r7, r4]
    6940:	3c2b      	subs	r4, #43	; 0x2b
    6942:	3c3c      	subs	r4, #60	; 0x3c
    6944:	3c2d      	subs	r4, #45	; 0x2d
    6946:	3c5b      	subs	r4, #91	; 0x5b
    6948:	5b3c      	ldrh	r4, [r7, r4]
    694a:	3c3c      	subs	r4, #60	; 0x3c
    694c:	5d3c      	ldrb	r4, [r7, r4]
    694e:	3e3e      	subs	r6, #62	; 0x3e
    6950:	3e2b      	subs	r6, #43	; 0x2b
    6952:	3e5b      	subs	r6, #91	; 0x5b
    6954:	3e3e      	subs	r6, #62	; 0x3e
    6956:	3c5d      	subs	r4, #93	; 0x5d
    6958:	5d2d      	ldrb	r5, [r5, r4]
    695a:	3c3c      	subs	r4, #60	; 0x3c
    695c:	3c5b      	subs	r4, #91	; 0x5b
    695e:	3c3c      	subs	r4, #60	; 0x3c
    6960:	3e5d      	subs	r6, #93	; 0x5d
    6962:	3e5b      	subs	r6, #91	; 0x5b
    6964:	5b3e      	ldrh	r6, [r7, r4]
    6966:	3e3e      	subs	r6, #62	; 0x3e
    6968:	5d3e      	ldrb	r6, [r7, r4]
    696a:	2b3c      	cmp	r3, #60	; 0x3c
    696c:	3c3c      	subs	r4, #60	; 0x3c
    696e:	3c5b      	subs	r4, #91	; 0x5b
    6970:	3c3c      	subs	r4, #60	; 0x3c
    6972:	3e5d      	subs	r6, #93	; 0x5d
    6974:	5d2d      	ldrb	r5, [r5, r4]
    6976:	2b5d      	cmp	r3, #93	; 0x5d
    6978:	3c3c      	subs	r4, #60	; 0x3c
    697a:	5d3c      	ldrb	r4, [r7, r4]
    697c:	5b2b      	ldrh	r3, [r5, r4]
    697e:	3e2d      	subs	r6, #45	; 0x2d
    6980:	3e3e      	subs	r6, #62	; 0x3e
    6982:	3e5d      	subs	r6, #93	; 0x5d
    6984:	5d3e      	ldrb	r6, [r7, r4]
    6986:	3e3e      	subs	r6, #62	; 0x3e
    6988:	2e5b      	cmp	r6, #91	; 0x5b
    698a:	3e3e      	subs	r6, #62	; 0x3e
    698c:	5d3e      	ldrb	r6, [r7, r4]
    698e:	0000      	movs	r0, r0
    6990:	3130      	adds	r1, #48	; 0x30
    6992:	3332      	adds	r3, #50	; 0x32
    6994:	3534      	adds	r5, #52	; 0x34
    6996:	3736      	adds	r7, #54	; 0x36
    6998:	3938      	subs	r1, #56	; 0x38
    699a:	6261      	str	r1, [r4, #36]	; 0x24
    699c:	6463      	str	r3, [r4, #68]	; 0x44
    699e:	6665      	str	r5, [r4, #100]	; 0x64
    69a0:	6867      	ldr	r7, [r4, #4]
    69a2:	6a69      	ldr	r1, [r5, #36]	; 0x24
    69a4:	6c6b      	ldr	r3, [r5, #68]	; 0x44
    69a6:	6e6d      	ldr	r5, [r5, #100]	; 0x64
    69a8:	706f      	strb	r7, [r5, #1]
    69aa:	7271      	strb	r1, [r6, #9]
    69ac:	7473      	strb	r3, [r6, #17]
    69ae:	7675      	strb	r5, [r6, #25]
    69b0:	7877      	ldrb	r7, [r6, #1]
    69b2:	7a79      	ldrb	r1, [r7, #9]
    69b4:	4241      	negs	r1, r0
    69b6:	4443      	add	r3, r8
    69b8:	4645      	mov	r5, r8
    69ba:	4847      	ldr	r0, [pc, #284]	; (0x6ad8)
    69bc:	4a49      	ldr	r2, [pc, #292]	; (0x6ae4)
    69be:	4c4b      	ldr	r4, [pc, #300]	; (0x6aec)
    69c0:	4e4d      	ldr	r6, [pc, #308]	; (0x6af8)
    69c2:	504f      	str	r7, [r1, r1]
    69c4:	5251      	strh	r1, [r2, r1]
    69c6:	5453      	strb	r3, [r2, r1]
    69c8:	5655      	ldrsb	r5, [r2, r1]
    69ca:	5857      	ldr	r7, [r2, r1]
    69cc:	5a59      	ldrh	r1, [r3, r1]
    69ce:	0000      	movs	r0, r0
    69d0:	9858      	ldr	r0, [sp, #352]	; 0x160
    69d2:	7fff      	ldrb	r7, [r7, #31]
    69d4:	0001      	movs	r1, r0
    69d6:	0000      	movs	r0, r0
    69d8:	98ac      	ldr	r0, [sp, #688]	; 0x2b0
    69da:	7fff      	ldrb	r7, [r7, #31]
    69dc:	afb0      	add	r7, sp, #704	; 0x2c0
    69de:	802c      	strh	r4, [r5, #0]
    69e0:	a374      	add	r3, pc, #464	; (adr r3, 0x6bb4)
    69e2:	7fff      	ldrb	r7, [r7, #31]
    69e4:	0001      	movs	r1, r0
    69e6:	0000      	movs	r0, r0
    69e8:	af98      	add	r7, sp, #608	; 0x260
    69ea:	7fff      	ldrb	r7, [r7, #31]
    69ec:	afb0      	add	r7, sp, #704	; 0x2c0
    69ee:	8002      	strh	r2, [r0, #0]
    69f0:	b27c      	sxtb	r4, r7
    69f2:	7fff      	ldrb	r7, [r7, #31]
    69f4:	0001      	movs	r1, r0
    69f6:	0000      	movs	r0, r0
    69f8:	cd28      	ldmia	r5, {r3, r5}
    69fa:	7fff      	ldrb	r7, [r7, #31]
    69fc:	b0b0      	sub	sp, #192	; 0xc0
    69fe:	80ae      	strh	r6, [r5, #4]
    6a00:	ce1c      	ldmia	r6!, {r2, r3, r4}
    6a02:	7fff      	ldrb	r7, [r7, #31]
    6a04:	afb0      	add	r7, sp, #704	; 0x2c0
    6a06:	800e      	strh	r6, [r1, #0]
    6a08:	d2fc      	bcs.n	0x6a04
    6a0a:	7fff      	ldrb	r7, [r7, #31]
    6a0c:	b0b0      	sub	sp, #192	; 0xc0
    6a0e:	80aa      	strh	r2, [r5, #4]
    6a10:	d398      	bcc.n	0x6944
    6a12:	7fff      	ldrb	r7, [r7, #31]
    6a14:	0001      	movs	r1, r0
    6a16:	0000      	movs	r0, r0
    6a18:	d3a8      	bcc.n	0x696c
    6a1a:	7fff      	ldrb	r7, [r7, #31]
    6a1c:	b0b0      	sub	sp, #192	; 0xc0
    6a1e:	80a8      	strh	r0, [r5, #4]
    6a20:	d3e4      	bcc.n	0x69ec
    6a22:	7fff      	ldrb	r7, [r7, #31]
    6a24:	0001      	movs	r1, r0
    6a26:	0000      	movs	r0, r0
    6a28:	d974      	bls.n	0x6b14
    6a2a:	7fff      	ldrb	r7, [r7, #31]
    6a2c:	afb0      	add	r7, sp, #704	; 0x2c0
    6a2e:	8010      	strh	r0, [r2, #0]
    6a30:	dab8      	bge.n	0x69a4
    6a32:	7fff      	ldrb	r7, [r7, #31]
    6a34:	0001      	movs	r1, r0
    6a36:	0000      	movs	r0, r0
    6a38:	dce8      	bgt.n	0x6a0c
    6a3a:	7fff      	ldrb	r7, [r7, #31]
    6a3c:	b0b0      	sub	sp, #192	; 0xc0
    6a3e:	80ae      	strh	r6, [r5, #4]
    6a40:	df48      	svc	72	; 0x48
    6a42:	7fff      	ldrb	r7, [r7, #31]
    6a44:	0001      	movs	r1, r0
    6a46:	0000      	movs	r0, r0
    6a48:	0000      	movs	r0, r0
    6a4a:	0000      	movs	r0, r0
    6a4c:	0001      	movs	r1, r0
    6a4e:	0000      	movs	r0, r0
    6a50:	0002      	movs	r2, r0
    6a52:	0000      	movs	r0, r0
    6a54:	0003      	movs	r3, r0
    6a56:	0000      	movs	r0, r0
    6a58:	0004      	movs	r4, r0
    6a5a:	0000      	movs	r0, r0
    6a5c:	0005      	movs	r5, r0
    6a5e:	0000      	movs	r0, r0
    6a60:	0006      	movs	r6, r0
    6a62:	0000      	movs	r0, r0
    6a64:	0007      	movs	r7, r0
    6a66:	0000      	movs	r0, r0
    6a68:	0008      	movs	r0, r1
    6a6a:	0000      	movs	r0, r0
    6a6c:	0009      	movs	r1, r1
    6a6e:	0000      	movs	r0, r0
    6a70:	000a      	movs	r2, r1
    6a72:	0000      	movs	r0, r0
    6a74:	0000      	movs	r0, r0
    6a76:	0000      	movs	r0, r0
    6a78:	000b      	movs	r3, r1
    6a7a:	0000      	movs	r0, r0
    6a7c:	000d      	movs	r5, r1
    6a7e:	0000      	movs	r0, r0
    6a80:	000e      	movs	r6, r1
    6a82:	0000      	movs	r0, r0
    6a84:	000f      	movs	r7, r1
    6a86:	0000      	movs	r0, r0
    6a88:	000c      	movs	r4, r1
    6a8a:	0000      	movs	r0, r0
    6a8c:	0000      	movs	r0, r0
    6a8e:	0000      	movs	r0, r0
    6a90:	0002      	movs	r2, r0
    6a92:	0000      	movs	r0, r0
    6a94:	0003      	movs	r3, r0
    6a96:	0000      	movs	r0, r0
    6a98:	0004      	movs	r4, r0
    6a9a:	0000      	movs	r0, r0
    6a9c:	0009      	movs	r1, r1
    6a9e:	0000      	movs	r0, r0
    6aa0:	0006      	movs	r6, r0
    6aa2:	0000      	movs	r0, r0
    6aa4:	0007      	movs	r7, r0
    6aa6:	0000      	movs	r0, r0
    6aa8:	0008      	movs	r0, r1
    6aaa:	0000      	movs	r0, r0
    6aac:	0005      	movs	r5, r0
    6aae:	0000      	movs	r0, r0
    6ab0:	000b      	movs	r3, r1
    6ab2:	0000      	movs	r0, r0
    6ab4:	000a      	movs	r2, r1
    6ab6:	0000      	movs	r0, r0
    6ab8:	000c      	movs	r4, r1
    6aba:	0000      	movs	r0, r0
    6abc:	0001      	movs	r1, r0
    6abe:	0000      	movs	r0, r0
    6ac0:	000f      	movs	r7, r1
    6ac2:	0000      	movs	r0, r0
    6ac4:	000d      	movs	r5, r1
    6ac6:	0000      	movs	r0, r0
    6ac8:	000e      	movs	r6, r1
    6aca:	0000      	movs	r0, r0
    6acc:	28b4      	cmp	r0, #180	; 0xb4
    6ace:	0800      	lsrs	r0, r0, #32
    6ad0:	2928      	cmp	r1, #40	; 0x28
    6ad2:	0800      	lsrs	r0, r0, #32
    6ad4:	2940      	cmp	r1, #64	; 0x40
    6ad6:	0800      	lsrs	r0, r0, #32
    6ad8:	67e0      	str	r0, [r4, #124]	; 0x7c
    6ada:	0800      	lsrs	r0, r0, #32
    6adc:	67e8      	str	r0, [r5, #124]	; 0x7c
    6ade:	0800      	lsrs	r0, r0, #32
    6ae0:	0064      	lsls	r4, r4, #1
    6ae2:	0000      	movs	r0, r0
    6ae4:	0400      	lsls	r0, r0, #16
    6ae6:	0000      	movs	r0, r0
    6ae8:	0000      	movs	r0, r0
    6aea:	0000      	movs	r0, r0
    6aec:	7105      	strb	r5, [r0, #4]
    6aee:	0846      	lsrs	r6, r0, #1
    6af0:	86a0      	strh	r0, [r4, #52]	; 0x34
    6af2:	0001      	movs	r1, r0
    6af4:	0000      	movs	r0, r0
    6af6:	000a      	movs	r2, r1
    6af8:	158f      	asrs	r7, r1, #22
    6afa:	0000      	movs	r0, r0
    6afc:	ff89 ed8c 			; <UNDEFINED> instruction: 0xff89ed8c
    6b00:	29fc      	cmp	r1, #252	; 0xfc
    6b02:	0800      	lsrs	r0, r0, #32
    6b04:	2a2c      	cmp	r2, #44	; 0x2c
    6b06:	0800      	lsrs	r0, r0, #32
    6b08:	2a54      	cmp	r2, #84	; 0x54
    6b0a:	0800      	lsrs	r0, r0, #32
    6b0c:	67f4      	str	r4, [r6, #124]	; 0x7c
    6b0e:	0800      	lsrs	r0, r0, #32
    6b10:	67fc      	str	r4, [r7, #124]	; 0x7c
    6b12:	0800      	lsrs	r0, r0, #32
    6b14:	0008      	movs	r0, r1
	...
    6b1e:	0000      	movs	r0, r0
    6b20:	005c      	lsls	r4, r3, #1
    6b22:	0000      	movs	r0, r0
    6b24:	000c      	movs	r4, r1
    6b26:	0000      	movs	r0, r0
    6b28:	0000      	movs	r0, r0
    6b2a:	0000      	movs	r0, r0
    6b2c:	1427      	asrs	r7, r4, #16
    6b2e:	0000      	movs	r0, r0
    6b30:	3778      	adds	r7, #120	; 0x78
    6b32:	0000      	movs	r0, r0
    6b34:	1714      	asrs	r4, r2, #28
    6b36:	0800      	lsrs	r0, r0, #32
    6b38:	1808      	adds	r0, r1, r0
    6b3a:	0800      	lsrs	r0, r0, #32
    6b3c:	1818      	adds	r0, r3, r0
    6b3e:	0800      	lsrs	r0, r0, #32
    6b40:	680c      	ldr	r4, [r1, #0]
    6b42:	0800      	lsrs	r0, r0, #32
    6b44:	6810      	ldr	r0, [r2, #0]
    6b46:	0800      	lsrs	r0, r0, #32
    6b48:	0004      	movs	r4, r0
    6b4a:	0000      	movs	r0, r0
    6b4c:	8000      	strh	r0, [r0, #0]
    6b4e:	0000      	movs	r0, r0
    6b50:	0000      	movs	r0, r0
    6b52:	0000      	movs	r0, r0
    6b54:	079e      	lsls	r6, r3, #30
    6b56:	a6f0      	add	r6, pc, #960	; (adr r6, 0x6f18)
    6b58:	00b4      	lsls	r4, r6, #2
    6b5a:	0000      	movs	r0, r0
    6b5c:	8000      	strh	r0, [r0, #0]
    6b5e:	0000      	movs	r0, r0
    6b60:	6661      	str	r1, [r4, #100]	; 0x64
    6b62:	0000      	movs	r0, r0
    6b64:	e2b3      	b.n	0x70ce
    6b66:	9221      	str	r2, [sp, #132]	; 0x84
    6b68:	1fd8      	subs	r0, r3, #7
    6b6a:	0800      	lsrs	r0, r0, #32
    6b6c:	2038      	movs	r0, #56	; 0x38
    6b6e:	0800      	lsrs	r0, r0, #32
    6b70:	2330      	movs	r3, #48	; 0x30
    6b72:	0800      	lsrs	r0, r0, #32
    6b74:	6828      	ldr	r0, [r5, #0]
    6b76:	0800      	lsrs	r0, r0, #32
    6b78:	682c      	ldr	r4, [r5, #0]
    6b7a:	0800      	lsrs	r0, r0, #32
    6b7c:	0002      	movs	r2, r0
    6b7e:	0000      	movs	r0, r0
    6b80:	0400      	lsls	r0, r0, #16
    6b82:	0000      	movs	r0, r0
    6b84:	0000      	movs	r0, r0
    6b86:	0000      	movs	r0, r0
    6b88:	ddf0      	ble.n	0x6b6c
    6b8a:	7cfe      	ldrb	r6, [r7, #19]
    6b8c:	005b      	lsls	r3, r3, #1
    6b8e:	0000      	movs	r0, r0
    6b90:	0000      	movs	r0, r0
    6b92:	0004      	movs	r4, r0
    6b94:	6f9f      	ldr	r7, [r3, #120]	; 0x78
    6b96:	0000      	movs	r0, r0
    6b98:	5f80      	ldrsh	r0, [r0, r6]
    6b9a:	ebdc 3544 	rsbs	r5, ip, r4, lsl #13
    6b9e:	0800      	lsrs	r0, r0, #32
    6ba0:	35c0      	adds	r5, #192	; 0xc0
    6ba2:	0800      	lsrs	r0, r0, #32
    6ba4:	36f4      	adds	r6, #244	; 0xf4
    6ba6:	0800      	lsrs	r0, r0, #32
    6ba8:	6840      	ldr	r0, [r0, #4]
    6baa:	0800      	lsrs	r0, r0, #32
    6bac:	6848      	ldr	r0, [r1, #4]
    6bae:	0800      	lsrs	r0, r0, #32
    6bb0:	0064      	lsls	r4, r4, #1
    6bb2:	0000      	movs	r0, r0
    6bb4:	0400      	lsls	r0, r0, #16
    6bb6:	0000      	movs	r0, r0
    6bb8:	0000      	movs	r0, r0
    6bba:	0000      	movs	r0, r0
    6bbc:	0019      	movs	r1, r3
    6bbe:	0000      	movs	r0, r0
    6bc0:	9680      	str	r6, [sp, #512]	; 0x200
    6bc2:	0098      	lsls	r0, r3, #2
    6bc4:	0000      	movs	r0, r0
    6bc6:	0020      	movs	r0, r4
    6bc8:	a5a6      	add	r5, pc, #664	; (adr r5, 0x6e64)
    6bca:	0000      	movs	r0, r0
    6bcc:	2403      	movs	r4, #3
    6bce:	000a      	movs	r2, r1
    6bd0:	0254      	lsls	r4, r2, #9
    6bd2:	0800      	lsrs	r0, r0, #32
    6bd4:	0284      	lsls	r4, r0, #10
    6bd6:	0800      	lsrs	r0, r0, #32
    6bd8:	0258      	lsls	r0, r3, #9
    6bda:	0800      	lsrs	r0, r0, #32
    6bdc:	685c      	ldr	r4, [r3, #4]
    6bde:	0800      	lsrs	r0, r0, #32
    6be0:	6864      	ldr	r4, [r4, #4]
    6be2:	0800      	lsrs	r0, r0, #32
    6be4:	0000      	movs	r0, r0
    6be6:	0000      	movs	r0, r0
    6be8:	0000      	movs	r0, r0
    6bea:	0020      	movs	r0, r4
    6bec:	0000      	movs	r0, r0
    6bee:	0000      	movs	r0, r0
    6bf0:	0006      	movs	r6, r0
    6bf2:	0000      	movs	r0, r0
    6bf4:	0001      	movs	r1, r0
    6bf6:	0000      	movs	r0, r0
    6bf8:	0000      	movs	r0, r0
    6bfa:	0080      	lsls	r0, r0, #2
    6bfc:	16a0      	asrs	r0, r4, #26
    6bfe:	0000      	movs	r0, r0
    6c00:	8b8c      	ldrh	r4, [r1, #28]
    6c02:	0006      	movs	r6, r0
    6c04:	1980      	adds	r0, r0, r6
    6c06:	0800      	lsrs	r0, r0, #32
    6c08:	1c6c      	adds	r4, r5, #1
    6c0a:	0800      	lsrs	r0, r0, #32
    6c0c:	1fac      	subs	r4, r5, #6
    6c0e:	0800      	lsrs	r0, r0, #32
    6c10:	6878      	ldr	r0, [r7, #4]
    6c12:	0800      	lsrs	r0, r0, #32
    6c14:	6880      	ldr	r0, [r0, #8]
    6c16:	0800      	lsrs	r0, r0, #32
    6c18:	000a      	movs	r2, r1
    6c1a:	0000      	movs	r0, r0
    6c1c:	0000      	movs	r0, r0
    6c1e:	0010      	movs	r0, r2
    6c20:	0000      	movs	r0, r0
    6c22:	0000      	movs	r0, r0
    6c24:	019c      	lsls	r4, r3, #6
    6c26:	0000      	movs	r0, r0
    6c28:	0080      	lsls	r0, r0, #2
    6c2a:	0000      	movs	r0, r0
    6c2c:	0000      	movs	r0, r0
    6c2e:	0010      	movs	r0, r2
    6c30:	34e0      	adds	r4, #224	; 0xe0
    6c32:	0000      	movs	r0, r0
    6c34:	c248      	stmia	r2!, {r3, r6}
    6c36:	0000      	movs	r0, r0
    6c38:	236c      	movs	r3, #108	; 0x6c
    6c3a:	0800      	lsrs	r0, r0, #32
    6c3c:	2418      	movs	r4, #24
    6c3e:	0800      	lsrs	r0, r0, #32
    6c40:	2440      	movs	r4, #64	; 0x40
    6c42:	0800      	lsrs	r0, r0, #32
    6c44:	689c      	ldr	r4, [r3, #8]
    6c46:	0800      	lsrs	r0, r0, #32
    6c48:	68a4      	ldr	r4, [r4, #8]
    6c4a:	0800      	lsrs	r0, r0, #32
    6c4c:	0080      	lsls	r0, r0, #2
    6c4e:	0000      	movs	r0, r0
    6c50:	0000      	movs	r0, r0
    6c52:	0010      	movs	r0, r2
    6c54:	0000      	movs	r0, r0
    6c56:	0000      	movs	r0, r0
    6c58:	fa7d 03e9 			; <UNDEFINED> instruction: 0xfa7d03e9
    6c5c:	0000      	movs	r0, r0
    6c5e:	0010      	movs	r0, r2
    6c60:	0000      	movs	r0, r0
    6c62:	0040      	lsls	r0, r0, #1
    6c64:	6765      	str	r5, [r4, #116]	; 0x74
    6c66:	0000      	movs	r0, r0
    6c68:	1310      	asrs	r0, r2, #12
    6c6a:	4360      	muls	r0, r4
    6c6c:	3d04      	subs	r5, #4
    6c6e:	0800      	lsrs	r0, r0, #32
    6c70:	3da8      	subs	r5, #168	; 0xa8
    6c72:	0800      	lsrs	r0, r0, #32
    6c74:	3dc0      	subs	r5, #192	; 0xc0
    6c76:	0800      	lsrs	r0, r0, #32
    6c78:	68b8      	ldr	r0, [r7, #8]
    6c7a:	0800      	lsrs	r0, r0, #32
    6c7c:	68c0      	ldr	r0, [r0, #12]
    6c7e:	0800      	lsrs	r0, r0, #32
    6c80:	0064      	lsls	r4, r4, #1
    6c82:	0000      	movs	r0, r0
    6c84:	1000      	asrs	r0, r0, #32
    6c86:	0000      	movs	r0, r0
    6c88:	0000      	movs	r0, r0
    6c8a:	0000      	movs	r0, r0
    6c8c:	5e09      	ldrsh	r1, [r1, r0]
    6c8e:	4c55      	ldr	r4, [pc, #340]	; (0x6de4)
    6c90:	86a0      	strh	r0, [r4, #52]	; 0x34
    6c92:	0001      	movs	r1, r0
    6c94:	0000      	movs	r0, r0
    6c96:	0040      	lsls	r0, r0, #1
    6c98:	171b      	asrs	r3, r3, #28
    6c9a:	0000      	movs	r0, r0
    6c9c:	b431      	push	{r0, r4, r5}
    6c9e:	4f0a      	ldr	r7, [pc, #40]	; (0x6cc8)
    6ca0:	2484      	movs	r4, #132	; 0x84
    6ca2:	0800      	lsrs	r0, r0, #32
    6ca4:	24f8      	movs	r4, #248	; 0xf8
    6ca6:	0800      	lsrs	r0, r0, #32
    6ca8:	27e0      	movs	r7, #224	; 0xe0
    6caa:	0800      	lsrs	r0, r0, #32
    6cac:	68cc      	ldr	r4, [r1, #12]
    6cae:	0800      	lsrs	r0, r0, #32
    6cb0:	68d0      	ldr	r0, [r2, #12]
    6cb2:	0800      	lsrs	r0, r0, #32
    6cb4:	0064      	lsls	r4, r4, #1
    6cb6:	0000      	movs	r0, r0
    6cb8:	0400      	lsls	r0, r0, #16
    6cba:	0000      	movs	r0, r0
    6cbc:	0000      	movs	r0, r0
    6cbe:	0000      	movs	r0, r0
    6cc0:	f28f f902 	bl	0x295ec8
    6cc4:	9680      	str	r6, [sp, #512]	; 0x200
    6cc6:	0098      	lsls	r0, r3, #2
    6cc8:	0000      	movs	r0, r0
    6cca:	0100      	lsls	r0, r0, #4
    6ccc:	4c89      	ldr	r4, [pc, #548]	; (0x6ef4)
    6cce:	0000      	movs	r0, r0
    6cd0:	6a42      	ldr	r2, [r0, #36]	; 0x24
    6cd2:	2728      	movs	r7, #40	; 0x28
    6cd4:	0001      	movs	r1, r0
    6cd6:	0000      	movs	r0, r0
    6cd8:	03f8      	lsls	r0, r7, #15
    6cda:	0300      	lsls	r0, r0, #12
    6cdc:	0000      	movs	r0, r0
    6cde:	0000      	movs	r0, r0
    6ce0:	06e8      	lsls	r0, r5, #27
    6ce2:	0300      	lsls	r0, r0, #12
    6ce4:	0760      	lsls	r0, r4, #29
    6ce6:	0300      	lsls	r0, r0, #12
    6ce8:	07d8      	lsls	r0, r3, #31
    6cea:	0300      	lsls	r0, r0, #12
	...
    6d84:	0001      	movs	r1, r0
    6d86:	0000      	movs	r0, r0
    6d88:	0000      	movs	r0, r0
    6d8a:	0000      	movs	r0, r0
    6d8c:	330e      	adds	r3, #14
    6d8e:	abcd      	add	r3, sp, #820	; 0x334
    6d90:	1234      	asrs	r4, r6, #8
    6d92:	e66d      	b.n	0x6a70
    6d94:	deec      	udf	#236	; 0xec
    6d96:	0005      	movs	r5, r0
    6d98:	000b      	movs	r3, r1
	...
    713a:	0000      	movs	r0, r0
    713c:	4368      	muls	r0, r5
    713e:	0800      	lsrs	r0, r0, #32
    7140:	4324      	orrs	r4, r4
    7142:	0800      	lsrs	r0, r0, #32
    7144:	6b64      	ldr	r4, [r4, #52]	; 0x34
    7146:	5241      	strh	r1, [r0, r1]
    7148:	004d      	lsls	r5, r1, #1
	...
