
test.gba:     file format binary


Disassembly of section .data:

00000000 <.data>:
       0:	002e      	movs	r6, r5
       2:	ea00 0000 	and.w	r0, r0, r0
	...
      ae:	0000      	movs	r0, r0
      b0:	3130      	adds	r1, #48	; 0x30
      b2:	0096      	lsls	r6, r2, #2
	...
      bc:	f000 0000 	and.w	r0, r0, #0
      c0:	0006      	movs	r6, r0
      c2:	ea00 0000 	and.w	r0, r0, r0
	...
      de:	0000      	movs	r0, r0
      e0:	0301      	lsls	r1, r0, #12
      e2:	e3a0      	b.n	0x826
      e4:	0208      	lsls	r0, r1, #8
      e6:	e580      	b.n	0xfffffbea
      e8:	0012      	movs	r2, r2
      ea:	e3a0      	b.n	0x82e
      ec:	f000 e129 			; <UNDEFINED> instruction: 0xf000e129
      f0:	d0b8      	beq.n	0x64
      f2:	e59f      	b.n	0xfffffc34
      f4:	001f      	movs	r7, r3
      f6:	e3a0      	b.n	0x83a
      f8:	f000 e129 			; <UNDEFINED> instruction: 0xf000e129
      fc:	d0b0      	beq.n	0x60
      fe:	e59f      	b.n	0xfffffc40
     100:	0001      	movs	r1, r0
     102:	e28f      	b.n	0x624
     104:	ff10 e12f 	vrhadd.u16	d14, d0, d31
     108:	482b      	ldr	r0, [pc, #172]	; (0x1b8)
     10a:	0140      	lsls	r0, r0, #5
     10c:	d20b      	bcs.n	0x126
     10e:	4678      	mov	r0, pc
     110:	0140      	lsls	r0, r0, #5
     112:	d30d      	bcc.n	0x130
     114:	2202      	movs	r2, #2
     116:	0612      	lsls	r2, r2, #24
     118:	4b28      	ldr	r3, [pc, #160]	; (0x1bc)
     11a:	1a9b      	subs	r3, r3, r2
     11c:	1c16      	adds	r6, r2, #0
     11e:	0091      	lsls	r1, r2, #2
     120:	f000 f83c 	bl	0x19c
     124:	4730      	bx	r6
     126:	2140      	movs	r1, #64	; 0x40
     128:	0309      	lsls	r1, r1, #12
     12a:	01c8      	lsls	r0, r1, #7
     12c:	f000 f82b 	bl	0x186
     130:	4823      	ldr	r0, [pc, #140]	; (0x1c0)
     132:	4924      	ldr	r1, [pc, #144]	; (0x1c4)
     134:	1a09      	subs	r1, r1, r0
     136:	f000 f826 	bl	0x186
     13a:	4823      	ldr	r0, [pc, #140]	; (0x1c8)
     13c:	4923      	ldr	r1, [pc, #140]	; (0x1cc)
     13e:	1a09      	subs	r1, r1, r0
     140:	f000 f821 	bl	0x186
     144:	4922      	ldr	r1, [pc, #136]	; (0x1d0)
     146:	4a23      	ldr	r2, [pc, #140]	; (0x1d4)
     148:	4c23      	ldr	r4, [pc, #140]	; (0x1d8)
     14a:	f000 f826 	bl	0x19a
     14e:	4923      	ldr	r1, [pc, #140]	; (0x1dc)
     150:	4a23      	ldr	r2, [pc, #140]	; (0x1e0)
     152:	4c24      	ldr	r4, [pc, #144]	; (0x1e4)
     154:	f000 f821 	bl	0x19a
     158:	4a23      	ldr	r2, [pc, #140]	; (0x1e8)
     15a:	4924      	ldr	r1, [pc, #144]	; (0x1ec)
     15c:	1a53      	subs	r3, r2, r1
     15e:	d002      	beq.n	0x166
     160:	4a23      	ldr	r2, [pc, #140]	; (0x1f0)
     162:	f000 f81b 	bl	0x19c
     166:	4923      	ldr	r1, [pc, #140]	; (0x1f4)
     168:	4a23      	ldr	r2, [pc, #140]	; (0x1f8)
     16a:	4c24      	ldr	r4, [pc, #144]	; (0x1fc)
     16c:	f000 f815 	bl	0x19a
     170:	4923      	ldr	r1, [pc, #140]	; (0x200)
     172:	4824      	ldr	r0, [pc, #144]	; (0x204)
     174:	6008      	str	r0, [r1, #0]
     176:	4b24      	ldr	r3, [pc, #144]	; (0x208)
     178:	f000 f80e 	bl	0x198
     17c:	2000      	movs	r0, #0
     17e:	2100      	movs	r1, #0
     180:	4b22      	ldr	r3, [pc, #136]	; (0x20c)
     182:	f000 f809 	bl	0x198
     186:	2203      	movs	r2, #3
     188:	1889      	adds	r1, r1, r2
     18a:	4391      	bics	r1, r2
     18c:	d003      	beq.n	0x196
     18e:	2200      	movs	r2, #0
     190:	c004      	stmia	r0!, {r2}
     192:	3904      	subs	r1, #4
     194:	d1fc      	bne.n	0x190
     196:	4770      	bx	lr
     198:	4718      	bx	r3
     19a:	1aa3      	subs	r3, r4, r2
     19c:	2003      	movs	r0, #3
     19e:	181b      	adds	r3, r3, r0
     1a0:	4383      	bics	r3, r0
     1a2:	d003      	beq.n	0x1ac
     1a4:	c901      	ldmia	r1!, {r0}
     1a6:	c201      	stmia	r2!, {r0}
     1a8:	3b04      	subs	r3, #4
     1aa:	d1fb      	bne.n	0x1a4
     1ac:	4770      	bx	lr
     1ae:	46c0      	nop			; (mov r8, r8)
     1b0:	7fa0      	ldrb	r0, [r4, #30]
     1b2:	0300      	lsls	r0, r0, #12
     1b4:	7f00      	ldrb	r0, [r0, #28]
     1b6:	0300      	lsls	r0, r0, #12
     1b8:	0000      	movs	r0, r0
     1ba:	0800      	lsrs	r0, r0, #32
     1bc:	0000      	movs	r0, r0
     1be:	0200      	lsls	r0, r0, #8
     1c0:	0000      	movs	r0, r0
     1c2:	0300      	lsls	r0, r0, #12
     1c4:	0168      	lsls	r0, r5, #5
     1c6:	0300      	lsls	r0, r0, #12
     1c8:	0000      	movs	r0, r0
     1ca:	0200      	lsls	r0, r0, #8
     1cc:	0000      	movs	r0, r0
     1ce:	0200      	lsls	r0, r0, #8
     1d0:	57d8      	ldrsb	r0, [r3, r7]
     1d2:	0800      	lsrs	r0, r0, #32
     1d4:	0168      	lsls	r0, r5, #5
     1d6:	0300      	lsls	r0, r0, #12
     1d8:	0860      	lsrs	r0, r4, #1
     1da:	0300      	lsls	r0, r0, #12
     1dc:	57d8      	ldrsb	r0, [r3, r7]
     1de:	0800      	lsrs	r0, r0, #32
     1e0:	0000      	movs	r0, r0
     1e2:	0300      	lsls	r0, r0, #12
     1e4:	0000      	movs	r0, r0
     1e6:	0300      	lsls	r0, r0, #12
     1e8:	5ed0      	ldrsh	r0, [r2, r3]
     1ea:	0800      	lsrs	r0, r0, #32
     1ec:	5ed0      	ldrsh	r0, [r2, r3]
     1ee:	0800      	lsrs	r0, r0, #32
     1f0:	0860      	lsrs	r0, r4, #1
     1f2:	0300      	lsls	r0, r0, #12
     1f4:	5ed0      	ldrsh	r0, [r2, r3]
     1f6:	0800      	lsrs	r0, r0, #32
     1f8:	0000      	movs	r0, r0
     1fa:	0200      	lsls	r0, r0, #8
     1fc:	0000      	movs	r0, r0
     1fe:	0200      	lsls	r0, r0, #8
     200:	0108      	lsls	r0, r1, #4
     202:	0300      	lsls	r0, r0, #12
     204:	0000      	movs	r0, r0
     206:	0204      	lsls	r4, r0, #8
     208:	4de0      	ldr	r5, [pc, #896]	; (0x58c)
     20a:	0800      	lsrs	r0, r0, #32
     20c:	3629      	adds	r6, #41	; 0x29
     20e:	0800      	lsrs	r0, r0, #32
     210:	c00d      	stmia	r0!, {r0, r2, r3}
     212:	e1a0      	b.n	0x556
     214:	dff8      	svc	248	; 0xf8
     216:	e92d b004 	stmdb	sp!, {r2, ip, sp, pc}
     21a:	e24c      	b.n	0x6b6
     21c:	d028      	beq.n	0x270
     21e:	e24b      	b.n	0x6b8
     220:	6ff0      	ldr	r0, [r6, #124]	; 0x7c
     222:	e89d ff1e 	ldmia.w	sp, {r1, r2, r3, r4, r8, r9, sl, fp, ip, sp, lr, pc}
     226:	e12f      	b.n	0x488
     228:	2800      	cmp	r0, #0
     22a:	d000      	beq.n	0x22e
     22c:	4770      	bx	lr
     22e:	2380      	movs	r3, #128	; 0x80
     230:	2203      	movs	r2, #3
     232:	04db      	lsls	r3, r3, #19
     234:	701a      	strb	r2, [r3, #0]
     236:	4b04      	ldr	r3, [pc, #16]	; (0x248)
     238:	3201      	adds	r2, #1
     23a:	701a      	strb	r2, [r3, #0]
     23c:	23c0      	movs	r3, #192	; 0xc0
     23e:	321b      	adds	r2, #27
     240:	04db      	lsls	r3, r3, #19
     242:	801a      	strh	r2, [r3, #0]
     244:	e7fe      	b.n	0x244
     246:	46c0      	nop			; (mov r8, r8)
     248:	0001      	movs	r1, r0
     24a:	0400      	lsls	r0, r0, #16
     24c:	4770      	bx	lr
     24e:	46c0      	nop			; (mov r8, r8)
     250:	4b04      	ldr	r3, [pc, #16]	; (0x264)
     252:	681b      	ldr	r3, [r3, #0]
     254:	68d8      	ldr	r0, [r3, #12]
     256:	4b04      	ldr	r3, [pc, #16]	; (0x268)
     258:	681b      	ldr	r3, [r3, #0]
     25a:	1ac0      	subs	r0, r0, r3
     25c:	4243      	negs	r3, r0
     25e:	4158      	adcs	r0, r3
     260:	4770      	bx	lr
     262:	46c0      	nop			; (mov r8, r8)
     264:	0158      	lsls	r0, r3, #5
     266:	0300      	lsls	r0, r0, #12
     268:	001c      	movs	r4, r3
     26a:	0300      	lsls	r0, r0, #12
     26c:	b5f0      	push	{r4, r5, r6, r7, lr}
     26e:	46de      	mov	lr, fp
     270:	4657      	mov	r7, sl
     272:	464e      	mov	r6, r9
     274:	4645      	mov	r5, r8
     276:	b5e0      	push	{r5, r6, r7, lr}
     278:	b0b1      	sub	sp, #196	; 0xc4
     27a:	a80e      	add	r0, sp, #56	; 0x38
     27c:	f002 ffbc 	bl	0x31f8
     280:	4b26      	ldr	r3, [pc, #152]	; (0x31c)
     282:	681b      	ldr	r3, [r3, #0]
     284:	681b      	ldr	r3, [r3, #0]
     286:	2b00      	cmp	r3, #0
     288:	d000      	beq.n	0x28c
     28a:	e39a      	b.n	0x9c2
     28c:	ab20      	add	r3, sp, #128	; 0x80
     28e:	469b      	mov	fp, r3
     290:	0018      	movs	r0, r3
     292:	4923      	ldr	r1, [pc, #140]	; (0x320)
     294:	f003 f82c 	bl	0x32f0
     298:	465b      	mov	r3, fp
     29a:	7818      	ldrb	r0, [r3, #0]
     29c:	9b20      	ldr	r3, [sp, #128]	; 0x80
     29e:	930e      	str	r3, [sp, #56]	; 0x38
     2a0:	465b      	mov	r3, fp
     2a2:	695b      	ldr	r3, [r3, #20]
     2a4:	9313      	str	r3, [sp, #76]	; 0x4c
     2a6:	465b      	mov	r3, fp
     2a8:	ac24      	add	r4, sp, #144	; 0x90
     2aa:	940c      	str	r4, [sp, #48]	; 0x30
     2ac:	aa0e      	add	r2, sp, #56	; 0x38
     2ae:	7919      	ldrb	r1, [r3, #4]
     2b0:	7111      	strb	r1, [r2, #4]
     2b2:	7959      	ldrb	r1, [r3, #5]
     2b4:	7151      	strb	r1, [r2, #5]
     2b6:	7999      	ldrb	r1, [r3, #6]
     2b8:	7191      	strb	r1, [r2, #6]
     2ba:	79d9      	ldrb	r1, [r3, #7]
     2bc:	3304      	adds	r3, #4
     2be:	71d1      	strb	r1, [r2, #7]
     2c0:	3204      	adds	r2, #4
     2c2:	42a3      	cmp	r3, r4
     2c4:	d1f3      	bne.n	0x2ae
     2c6:	2800      	cmp	r0, #0
     2c8:	d100      	bne.n	0x2cc
     2ca:	e39b      	b.n	0xa04
     2cc:	465c      	mov	r4, fp
     2ce:	2510      	movs	r5, #16
     2d0:	a80f      	add	r0, sp, #60	; 0x3c
     2d2:	ae13      	add	r6, sp, #76	; 0x4c
     2d4:	0022      	movs	r2, r4
     2d6:	2300      	movs	r3, #0
     2d8:	56c1      	ldrsb	r1, [r0, r3]
     2da:	2900      	cmp	r1, #0
     2dc:	d11c      	bne.n	0x318
     2de:	6015      	str	r5, [r2, #0]
     2e0:	3301      	adds	r3, #1
     2e2:	3204      	adds	r2, #4
     2e4:	2b04      	cmp	r3, #4
     2e6:	d1f7      	bne.n	0x2d8
     2e8:	3004      	adds	r0, #4
     2ea:	3410      	adds	r4, #16
     2ec:	4286      	cmp	r6, r0
     2ee:	d1f1      	bne.n	0x2d4
     2f0:	2401      	movs	r4, #1
     2f2:	2000      	movs	r0, #0
     2f4:	465d      	mov	r5, fp
     2f6:	9920      	ldr	r1, [sp, #128]	; 0x80
     2f8:	3b03      	subs	r3, #3
     2fa:	009a      	lsls	r2, r3, #2
     2fc:	58aa      	ldr	r2, [r5, r2]
     2fe:	428a      	cmp	r2, r1
     300:	da00      	bge.n	0x304
     302:	3001      	adds	r0, #1
     304:	3301      	adds	r3, #1
     306:	2b10      	cmp	r3, #16
     308:	d1f7      	bne.n	0x2fa
     30a:	1c63      	adds	r3, r4, #1
     30c:	2b10      	cmp	r3, #16
     30e:	d009      	beq.n	0x324
     310:	00a4      	lsls	r4, r4, #2
     312:	5929      	ldr	r1, [r5, r4]
     314:	001c      	movs	r4, r3
     316:	e7f0      	b.n	0x2fa
     318:	6011      	str	r1, [r2, #0]
     31a:	e7e1      	b.n	0x2e0
     31c:	0158      	lsls	r0, r3, #5
     31e:	0300      	lsls	r0, r0, #12
     320:	0168      	lsls	r0, r5, #5
     322:	0300      	lsls	r0, r0, #12
     324:	ab0e      	add	r3, sp, #56	; 0x38
     326:	785a      	ldrb	r2, [r3, #1]
     328:	2306      	movs	r3, #6
     32a:	1a9b      	subs	r3, r3, r2
     32c:	aa0e      	add	r2, sp, #56	; 0x38
     32e:	7892      	ldrb	r2, [r2, #2]
     330:	1a9b      	subs	r3, r3, r2
     332:	1818      	adds	r0, r3, r0
     334:	2301      	movs	r3, #1
     336:	4383      	bics	r3, r0
     338:	46ab      	mov	fp, r5
     33a:	0018      	movs	r0, r3
     33c:	f7ff ff74 	bl	0x228
     340:	48d6      	ldr	r0, [pc, #856]	; (0x69c)
     342:	f000 fd41 	bl	0xdc8
     346:	2300      	movs	r3, #0
     348:	4ad5      	ldr	r2, [pc, #852]	; (0x6a0)
     34a:	2180      	movs	r1, #128	; 0x80
     34c:	5083      	str	r3, [r0, r2]
     34e:	4ad5      	ldr	r2, [pc, #852]	; (0x6a4)
     350:	4682      	mov	sl, r0
     352:	5083      	str	r3, [r0, r2]
     354:	0003      	movs	r3, r0
     356:	2200      	movs	r2, #0
     358:	02c9      	lsls	r1, r1, #11
     35a:	4451      	add	r1, sl
     35c:	c304      	stmia	r3!, {r2}
     35e:	4299      	cmp	r1, r3
     360:	d1fc      	bne.n	0x35c
     362:	2200      	movs	r2, #0
     364:	a90e      	add	r1, sp, #56	; 0x38
     366:	4650      	mov	r0, sl
     368:	f003 f87c 	bl	0x3464
     36c:	2301      	movs	r3, #1
     36e:	4ace      	ldr	r2, [pc, #824]	; (0x6a8)
     370:	425b      	negs	r3, r3
     372:	6013      	str	r3, [r2, #0]
     374:	4652      	mov	r2, sl
     376:	4bca      	ldr	r3, [pc, #808]	; (0x6a0)
     378:	58d4      	ldr	r4, [r2, r3]
     37a:	2c00      	cmp	r4, #0
     37c:	d100      	bne.n	0x380
     37e:	e183      	b.n	0x688
     380:	2300      	movs	r3, #0
     382:	9305      	str	r3, [sp, #20]
     384:	2380      	movs	r3, #128	; 0x80
     386:	02db      	lsls	r3, r3, #11
     388:	4699      	mov	r9, r3
     38a:	465b      	mov	r3, fp
     38c:	46d3      	mov	fp, sl
     38e:	469a      	mov	sl, r3
     390:	465a      	mov	r2, fp
     392:	4bc6      	ldr	r3, [pc, #792]	; (0x6ac)
     394:	58d1      	ldr	r1, [r2, r3]
     396:	780b      	ldrb	r3, [r1, #0]
     398:	9308      	str	r3, [sp, #32]
     39a:	784b      	ldrb	r3, [r1, #1]
     39c:	9306      	str	r3, [sp, #24]
     39e:	788b      	ldrb	r3, [r1, #2]
     3a0:	9307      	str	r3, [sp, #28]
     3a2:	2303      	movs	r3, #3
     3a4:	56cb      	ldrsb	r3, [r1, r3]
     3a6:	930b      	str	r3, [sp, #44]	; 0x2c
     3a8:	680b      	ldr	r3, [r1, #0]
     3aa:	930a      	str	r3, [sp, #40]	; 0x28
     3ac:	694b      	ldr	r3, [r1, #20]
     3ae:	aa21      	add	r2, sp, #132	; 0x84
     3b0:	9309      	str	r3, [sp, #36]	; 0x24
     3b2:	1d0b      	adds	r3, r1, #4
     3b4:	3114      	adds	r1, #20
     3b6:	7818      	ldrb	r0, [r3, #0]
     3b8:	7010      	strb	r0, [r2, #0]
     3ba:	7858      	ldrb	r0, [r3, #1]
     3bc:	7050      	strb	r0, [r2, #1]
     3be:	7898      	ldrb	r0, [r3, #2]
     3c0:	7090      	strb	r0, [r2, #2]
     3c2:	78d8      	ldrb	r0, [r3, #3]
     3c4:	3304      	adds	r3, #4
     3c6:	70d0      	strb	r0, [r2, #3]
     3c8:	3204      	adds	r2, #4
     3ca:	4299      	cmp	r1, r3
     3cc:	d1f3      	bne.n	0x3b6
     3ce:	2c01      	cmp	r4, #1
     3d0:	d000      	beq.n	0x3d4
     3d2:	e171      	b.n	0x6b8
     3d4:	465a      	mov	r2, fp
     3d6:	2100      	movs	r1, #0
     3d8:	4bb1      	ldr	r3, [pc, #708]	; (0x6a0)
     3da:	50d1      	str	r1, [r2, r3]
     3dc:	9b0a      	ldr	r3, [sp, #40]	; 0x28
     3de:	9314      	str	r3, [sp, #80]	; 0x50
     3e0:	9b09      	ldr	r3, [sp, #36]	; 0x24
     3e2:	ac14      	add	r4, sp, #80	; 0x50
     3e4:	9319      	str	r3, [sp, #100]	; 0x64
     3e6:	0022      	movs	r2, r4
     3e8:	4653      	mov	r3, sl
     3ea:	980c      	ldr	r0, [sp, #48]	; 0x30
     3ec:	7919      	ldrb	r1, [r3, #4]
     3ee:	7111      	strb	r1, [r2, #4]
     3f0:	7959      	ldrb	r1, [r3, #5]
     3f2:	7151      	strb	r1, [r2, #5]
     3f4:	7999      	ldrb	r1, [r3, #6]
     3f6:	7191      	strb	r1, [r2, #6]
     3f8:	79d9      	ldrb	r1, [r3, #7]
     3fa:	3304      	adds	r3, #4
     3fc:	71d1      	strb	r1, [r2, #7]
     3fe:	3204      	adds	r2, #4
     400:	4298      	cmp	r0, r3
     402:	d1f3      	bne.n	0x3ec
     404:	9b05      	ldr	r3, [sp, #20]
     406:	3301      	adds	r3, #1
     408:	9305      	str	r3, [sp, #20]
     40a:	4652      	mov	r2, sl
     40c:	2300      	movs	r3, #0
     40e:	3301      	adds	r3, #1
     410:	c208      	stmia	r2!, {r3}
     412:	2b0f      	cmp	r3, #15
     414:	d1fb      	bne.n	0x40e
     416:	4653      	mov	r3, sl
     418:	2200      	movs	r2, #0
     41a:	4651      	mov	r1, sl
     41c:	a81a      	add	r0, sp, #104	; 0x68
     41e:	63da      	str	r2, [r3, #60]	; 0x3c
     420:	f002 ff66 	bl	0x32f0
     424:	a91a      	add	r1, sp, #104	; 0x68
     426:	a814      	add	r0, sp, #80	; 0x50
     428:	f002 ffe2 	bl	0x33f0
     42c:	2800      	cmp	r0, #0
     42e:	d000      	beq.n	0x432
     430:	e2ea      	b.n	0xa08
     432:	9b08      	ldr	r3, [sp, #32]
     434:	2b00      	cmp	r3, #0
     436:	d100      	bne.n	0x43a
     438:	e11a      	b.n	0x670
     43a:	9b07      	ldr	r3, [sp, #28]
     43c:	2b03      	cmp	r3, #3
     43e:	d100      	bne.n	0x442
     440:	e1ad      	b.n	0x79e
     442:	4650      	mov	r0, sl
     444:	4652      	mov	r2, sl
     446:	ad18      	add	r5, sp, #96	; 0x60
     448:	ab14      	add	r3, sp, #80	; 0x50
     44a:	7919      	ldrb	r1, [r3, #4]
     44c:	7111      	strb	r1, [r2, #4]
     44e:	7959      	ldrb	r1, [r3, #5]
     450:	7151      	strb	r1, [r2, #5]
     452:	7999      	ldrb	r1, [r3, #6]
     454:	7191      	strb	r1, [r2, #6]
     456:	79d9      	ldrb	r1, [r3, #7]
     458:	3304      	adds	r3, #4
     45a:	71d1      	strb	r1, [r2, #7]
     45c:	3204      	adds	r2, #4
     45e:	429d      	cmp	r5, r3
     460:	d1f3      	bne.n	0x44a
     462:	9b06      	ldr	r3, [sp, #24]
     464:	009b      	lsls	r3, r3, #2
     466:	4698      	mov	r8, r3
     468:	2604      	movs	r6, #4
     46a:	9f07      	ldr	r7, [sp, #28]
     46c:	ab14      	add	r3, sp, #80	; 0x50
     46e:	1c7a      	adds	r2, r7, #1
     470:	4443      	add	r3, r8
     472:	189b      	adds	r3, r3, r2
     474:	579e      	ldrsb	r6, [r3, r6]
     476:	2303      	movs	r3, #3
     478:	9601      	str	r6, [sp, #4]
     47a:	3e01      	subs	r6, #1
     47c:	17f1      	asrs	r1, r6, #31
     47e:	0f89      	lsrs	r1, r1, #30
     480:	1876      	adds	r6, r6, r1
     482:	4033      	ands	r3, r6
     484:	1a59      	subs	r1, r3, r1
     486:	1bcb      	subs	r3, r1, r7
     488:	003e      	movs	r6, r7
     48a:	17df      	asrs	r7, r3, #31
     48c:	1a89      	subs	r1, r1, r2
     48e:	19db      	adds	r3, r3, r7
     490:	407b      	eors	r3, r7
     492:	17cf      	asrs	r7, r1, #31
     494:	19c9      	adds	r1, r1, r7
     496:	4079      	eors	r1, r7
     498:	1a5b      	subs	r3, r3, r1
     49a:	990b      	ldr	r1, [sp, #44]	; 0x2c
     49c:	468c      	mov	ip, r1
     49e:	4463      	add	r3, ip
     4a0:	061b      	lsls	r3, r3, #24
     4a2:	161b      	asrs	r3, r3, #24
     4a4:	9302      	str	r3, [sp, #8]
     4a6:	4653      	mov	r3, sl
     4a8:	4443      	add	r3, r8
     4aa:	1999      	adds	r1, r3, r6
     4ac:	9e01      	ldr	r6, [sp, #4]
     4ae:	710e      	strb	r6, [r1, #4]
     4b0:	0611      	lsls	r1, r2, #24
     4b2:	0e09      	lsrs	r1, r1, #24
     4b4:	9101      	str	r1, [sp, #4]
     4b6:	21ff      	movs	r1, #255	; 0xff
     4b8:	400a      	ands	r2, r1
     4ba:	189b      	adds	r3, r3, r2
     4bc:	2200      	movs	r2, #0
     4be:	711a      	strb	r2, [r3, #4]
     4c0:	2314      	movs	r3, #20
     4c2:	4453      	add	r3, sl
     4c4:	2200      	movs	r2, #0
     4c6:	0019      	movs	r1, r3
     4c8:	4684      	mov	ip, r0
     4ca:	4f79      	ldr	r7, [pc, #484]	; (0x6b0)
     4cc:	ae21      	add	r6, sp, #132	; 0x84
     4ce:	2300      	movs	r3, #0
     4d0:	0010      	movs	r0, r2
     4d2:	0002      	movs	r2, r0
     4d4:	437a      	muls	r2, r7
     4d6:	56f0      	ldrsb	r0, [r6, r3]
     4d8:	3301      	adds	r3, #1
     4da:	1810      	adds	r0, r2, r0
     4dc:	2b04      	cmp	r3, #4
     4de:	d1f8      	bne.n	0x4d2
     4e0:	3604      	adds	r6, #4
     4e2:	0002      	movs	r2, r0
     4e4:	428e      	cmp	r6, r1
     4e6:	d1f2      	bne.n	0x4ce
     4e8:	2630      	movs	r6, #48	; 0x30
     4ea:	a90e      	add	r1, sp, #56	; 0x38
     4ec:	3b03      	subs	r3, #3
     4ee:	1989      	adds	r1, r1, r6
     4f0:	700b      	strb	r3, [r1, #0]
     4f2:	2131      	movs	r1, #49	; 0x31
     4f4:	ab0e      	add	r3, sp, #56	; 0x38
     4f6:	185b      	adds	r3, r3, r1
     4f8:	9906      	ldr	r1, [sp, #24]
     4fa:	7019      	strb	r1, [r3, #0]
     4fc:	2132      	movs	r1, #50	; 0x32
     4fe:	ab0e      	add	r3, sp, #56	; 0x38
     500:	185b      	adds	r3, r3, r1
     502:	9901      	ldr	r1, [sp, #4]
     504:	7019      	strb	r1, [r3, #0]
     506:	2133      	movs	r1, #51	; 0x33
     508:	ab0e      	add	r3, sp, #56	; 0x38
     50a:	185b      	adds	r3, r3, r1
     50c:	9902      	ldr	r1, [sp, #8]
     50e:	7019      	strb	r1, [r3, #0]
     510:	4651      	mov	r1, sl
     512:	4660      	mov	r0, ip
     514:	921f      	str	r2, [sp, #124]	; 0x7c
     516:	ab1a      	add	r3, sp, #104	; 0x68
     518:	3110      	adds	r1, #16
     51a:	7902      	ldrb	r2, [r0, #4]
     51c:	711a      	strb	r2, [r3, #4]
     51e:	7942      	ldrb	r2, [r0, #5]
     520:	715a      	strb	r2, [r3, #5]
     522:	7982      	ldrb	r2, [r0, #6]
     524:	719a      	strb	r2, [r3, #6]
     526:	79c2      	ldrb	r2, [r0, #7]
     528:	3004      	adds	r0, #4
     52a:	71da      	strb	r2, [r3, #7]
     52c:	3304      	adds	r3, #4
     52e:	4288      	cmp	r0, r1
     530:	d1f3      	bne.n	0x51a
     532:	a914      	add	r1, sp, #80	; 0x50
     534:	4658      	mov	r0, fp
     536:	f002 ff7b 	bl	0x3430
     53a:	2800      	cmp	r0, #0
     53c:	d100      	bne.n	0x540
     53e:	e237      	b.n	0x9b0
     540:	6a02      	ldr	r2, [r0, #32]
     542:	3201      	adds	r2, #1
     544:	a91a      	add	r1, sp, #104	; 0x68
     546:	4658      	mov	r0, fp
     548:	f002 ff8c 	bl	0x3464
     54c:	9b07      	ldr	r3, [sp, #28]
     54e:	2b00      	cmp	r3, #0
     550:	d000      	beq.n	0x554
     552:	e128      	b.n	0x7a6
     554:	9b06      	ldr	r3, [sp, #24]
     556:	2b03      	cmp	r3, #3
     558:	d100      	bne.n	0x55c
     55a:	e1a7      	b.n	0x8ac
     55c:	4650      	mov	r0, sl
     55e:	4652      	mov	r2, sl
     560:	ab14      	add	r3, sp, #80	; 0x50
     562:	7919      	ldrb	r1, [r3, #4]
     564:	7111      	strb	r1, [r2, #4]
     566:	7959      	ldrb	r1, [r3, #5]
     568:	7151      	strb	r1, [r2, #5]
     56a:	7999      	ldrb	r1, [r3, #6]
     56c:	7191      	strb	r1, [r2, #6]
     56e:	79d9      	ldrb	r1, [r3, #7]
     570:	3304      	adds	r3, #4
     572:	71d1      	strb	r1, [r2, #7]
     574:	3204      	adds	r2, #4
     576:	429d      	cmp	r5, r3
     578:	d1f3      	bne.n	0x562
     57a:	a914      	add	r1, sp, #80	; 0x50
     57c:	468c      	mov	ip, r1
     57e:	9b06      	ldr	r3, [sp, #24]
     580:	9907      	ldr	r1, [sp, #28]
     582:	1c5a      	adds	r2, r3, #1
     584:	0093      	lsls	r3, r2, #2
     586:	4463      	add	r3, ip
     588:	468c      	mov	ip, r1
     58a:	2104      	movs	r1, #4
     58c:	4463      	add	r3, ip
     58e:	5659      	ldrsb	r1, [r3, r1]
     590:	2303      	movs	r3, #3
     592:	1e4e      	subs	r6, r1, #1
     594:	17f7      	asrs	r7, r6, #31
     596:	403b      	ands	r3, r7
     598:	199e      	adds	r6, r3, r6
     59a:	9b06      	ldr	r3, [sp, #24]
     59c:	10b6      	asrs	r6, r6, #2
     59e:	1af3      	subs	r3, r6, r3
     5a0:	17df      	asrs	r7, r3, #31
     5a2:	1ab6      	subs	r6, r6, r2
     5a4:	19db      	adds	r3, r3, r7
     5a6:	407b      	eors	r3, r7
     5a8:	17f7      	asrs	r7, r6, #31
     5aa:	19f6      	adds	r6, r6, r7
     5ac:	407e      	eors	r6, r7
     5ae:	9f0b      	ldr	r7, [sp, #44]	; 0x2c
     5b0:	46bc      	mov	ip, r7
     5b2:	1b9b      	subs	r3, r3, r6
     5b4:	4463      	add	r3, ip
     5b6:	061b      	lsls	r3, r3, #24
     5b8:	161b      	asrs	r3, r3, #24
     5ba:	9e07      	ldr	r6, [sp, #28]
     5bc:	9301      	str	r3, [sp, #4]
     5be:	4653      	mov	r3, sl
     5c0:	46b4      	mov	ip, r6
     5c2:	4443      	add	r3, r8
     5c4:	4463      	add	r3, ip
     5c6:	7119      	strb	r1, [r3, #4]
     5c8:	0613      	lsls	r3, r2, #24
     5ca:	0e1b      	lsrs	r3, r3, #24
     5cc:	9302      	str	r3, [sp, #8]
     5ce:	23ff      	movs	r3, #255	; 0xff
     5d0:	4013      	ands	r3, r2
     5d2:	2200      	movs	r2, #0
     5d4:	009b      	lsls	r3, r3, #2
     5d6:	4453      	add	r3, sl
     5d8:	4463      	add	r3, ip
     5da:	711a      	strb	r2, [r3, #4]
     5dc:	2314      	movs	r3, #20
     5de:	4453      	add	r3, sl
     5e0:	2200      	movs	r2, #0
     5e2:	0019      	movs	r1, r3
     5e4:	4684      	mov	ip, r0
     5e6:	4f32      	ldr	r7, [pc, #200]	; (0x6b0)
     5e8:	ae21      	add	r6, sp, #132	; 0x84
     5ea:	2300      	movs	r3, #0
     5ec:	0010      	movs	r0, r2
     5ee:	0002      	movs	r2, r0
     5f0:	437a      	muls	r2, r7
     5f2:	56f0      	ldrsb	r0, [r6, r3]
     5f4:	3301      	adds	r3, #1
     5f6:	1810      	adds	r0, r2, r0
     5f8:	2b04      	cmp	r3, #4
     5fa:	d1f8      	bne.n	0x5ee
     5fc:	3604      	adds	r6, #4
     5fe:	0002      	movs	r2, r0
     600:	428e      	cmp	r6, r1
     602:	d1f2      	bne.n	0x5ea
     604:	2630      	movs	r6, #48	; 0x30
     606:	a90e      	add	r1, sp, #56	; 0x38
     608:	3b03      	subs	r3, #3
     60a:	1989      	adds	r1, r1, r6
     60c:	700b      	strb	r3, [r1, #0]
     60e:	2131      	movs	r1, #49	; 0x31
     610:	ab0e      	add	r3, sp, #56	; 0x38
     612:	185b      	adds	r3, r3, r1
     614:	9902      	ldr	r1, [sp, #8]
     616:	7019      	strb	r1, [r3, #0]
     618:	2132      	movs	r1, #50	; 0x32
     61a:	ab0e      	add	r3, sp, #56	; 0x38
     61c:	185b      	adds	r3, r3, r1
     61e:	9907      	ldr	r1, [sp, #28]
     620:	7019      	strb	r1, [r3, #0]
     622:	2133      	movs	r1, #51	; 0x33
     624:	ab0e      	add	r3, sp, #56	; 0x38
     626:	185b      	adds	r3, r3, r1
     628:	9901      	ldr	r1, [sp, #4]
     62a:	7019      	strb	r1, [r3, #0]
     62c:	4651      	mov	r1, sl
     62e:	4660      	mov	r0, ip
     630:	921f      	str	r2, [sp, #124]	; 0x7c
     632:	ab1a      	add	r3, sp, #104	; 0x68
     634:	3110      	adds	r1, #16
     636:	7902      	ldrb	r2, [r0, #4]
     638:	711a      	strb	r2, [r3, #4]
     63a:	7942      	ldrb	r2, [r0, #5]
     63c:	715a      	strb	r2, [r3, #5]
     63e:	7982      	ldrb	r2, [r0, #6]
     640:	719a      	strb	r2, [r3, #6]
     642:	79c2      	ldrb	r2, [r0, #7]
     644:	3004      	adds	r0, #4
     646:	71da      	strb	r2, [r3, #7]
     648:	3304      	adds	r3, #4
     64a:	4281      	cmp	r1, r0
     64c:	d1f3      	bne.n	0x636
     64e:	a914      	add	r1, sp, #80	; 0x50
     650:	4658      	mov	r0, fp
     652:	f002 feed 	bl	0x3430
     656:	2800      	cmp	r0, #0
     658:	d100      	bne.n	0x65c
     65a:	e1a6      	b.n	0x9aa
     65c:	6a02      	ldr	r2, [r0, #32]
     65e:	3201      	adds	r2, #1
     660:	a91a      	add	r1, sp, #104	; 0x68
     662:	4658      	mov	r0, fp
     664:	f002 fefe 	bl	0x3464
     668:	9b06      	ldr	r3, [sp, #24]
     66a:	2b00      	cmp	r3, #0
     66c:	d000      	beq.n	0x670
     66e:	e11d      	b.n	0x8ac
     670:	465a      	mov	r2, fp
     672:	4b0b      	ldr	r3, [pc, #44]	; (0x6a0)
     674:	58d4      	ldr	r4, [r2, r3]
     676:	4a0f      	ldr	r2, [pc, #60]	; (0x6b4)
     678:	4694      	mov	ip, r2
     67a:	9b05      	ldr	r3, [sp, #20]
     67c:	4463      	add	r3, ip
     67e:	2b00      	cmp	r3, #0
     680:	d002      	beq.n	0x688
     682:	2c00      	cmp	r4, #0
     684:	d000      	beq.n	0x688
     686:	e683      	b.n	0x390
     688:	b031      	add	sp, #196	; 0xc4
     68a:	bc3c      	pop	{r2, r3, r4, r5}
     68c:	4690      	mov	r8, r2
     68e:	4699      	mov	r9, r3
     690:	46a2      	mov	sl, r4
     692:	46ab      	mov	fp, r5
     694:	bcf0      	pop	{r4, r5, r6, r7}
     696:	bc01      	pop	{r0}
     698:	4700      	bx	r0
     69a:	46c0      	nop			; (mov r8, r8)
     69c:	000c      	movs	r4, r1
     69e:	0008      	movs	r0, r1
     6a0:	0004      	movs	r4, r0
     6a2:	0008      	movs	r0, r1
     6a4:	0008      	movs	r0, r1
     6a6:	0008      	movs	r0, r1
     6a8:	001c      	movs	r4, r3
     6aa:	0300      	lsls	r0, r0, #12
     6ac:	0004      	movs	r4, r0
     6ae:	0004      	movs	r4, r0
     6b0:	07b5      	lsls	r5, r6, #30
     6b2:	0000      	movs	r0, r0
     6b4:	0000      	movs	r0, r0
     6b6:	ffff 2001 	vaddl.u<illegal width 64>	q9, d15, d1
     6ba:	2c01      	cmp	r4, #1
     6bc:	dc00      	bgt.n	0x6c0
     6be:	2000      	movs	r0, #0
     6c0:	f7ff fdb2 	bl	0x228
     6c4:	2380      	movs	r3, #128	; 0x80
     6c6:	025b      	lsls	r3, r3, #9
     6c8:	469c      	mov	ip, r3
     6ca:	465b      	mov	r3, fp
     6cc:	465a      	mov	r2, fp
     6ce:	4464      	add	r4, ip
     6d0:	00a4      	lsls	r4, r4, #2
     6d2:	58e3      	ldr	r3, [r4, r3]
     6d4:	49d4      	ldr	r1, [pc, #848]	; (0xa28)
     6d6:	5053      	str	r3, [r2, r1]
     6d8:	2201      	movs	r2, #1
     6da:	61da      	str	r2, [r3, #28]
     6dc:	465a      	mov	r2, fp
     6de:	4658      	mov	r0, fp
     6e0:	4bd2      	ldr	r3, [pc, #840]	; (0xa2c)
     6e2:	58d2      	ldr	r2, [r2, r3]
     6e4:	3a01      	subs	r2, #1
     6e6:	50c2      	str	r2, [r0, r3]
     6e8:	9304      	str	r3, [sp, #16]
     6ea:	4653      	mov	r3, sl
     6ec:	2501      	movs	r5, #1
     6ee:	9103      	str	r1, [sp, #12]
     6f0:	465f      	mov	r7, fp
     6f2:	930d      	str	r3, [sp, #52]	; 0x34
     6f4:	e012      	b.n	0x71c
     6f6:	4561      	cmp	r1, ip
     6f8:	da00      	bge.n	0x6fc
     6fa:	e152      	b.n	0x9a2
     6fc:	2001      	movs	r0, #1
     6fe:	f7ff fd93 	bl	0x228
     702:	4642      	mov	r2, r8
     704:	9b03      	ldr	r3, [sp, #12]
     706:	4651      	mov	r1, sl
     708:	50e2      	str	r2, [r4, r3]
     70a:	464a      	mov	r2, r9
     70c:	50b1      	str	r1, [r6, r2]
     70e:	465a      	mov	r2, fp
     710:	61cd      	str	r5, [r1, #28]
     712:	465d      	mov	r5, fp
     714:	58e3      	ldr	r3, [r4, r3]
     716:	61da      	str	r2, [r3, #28]
     718:	9b04      	ldr	r3, [sp, #16]
     71a:	58fa      	ldr	r2, [r7, r3]
     71c:	006b      	lsls	r3, r5, #1
     71e:	4293      	cmp	r3, r2
     720:	da23      	bge.n	0x76a
     722:	464a      	mov	r2, r9
     724:	00ae      	lsls	r6, r5, #2
     726:	19be      	adds	r6, r7, r6
     728:	58b2      	ldr	r2, [r6, r2]
     72a:	6a50      	ldr	r0, [r2, #36]	; 0x24
     72c:	4690      	mov	r8, r2
     72e:	464a      	mov	r2, r9
     730:	0001      	movs	r1, r0
     732:	00ec      	lsls	r4, r5, #3
     734:	193c      	adds	r4, r7, r4
     736:	58a2      	ldr	r2, [r4, r2]
     738:	6a50      	ldr	r0, [r2, #36]	; 0x24
     73a:	9001      	str	r0, [sp, #4]
     73c:	1c58      	adds	r0, r3, #1
     73e:	4683      	mov	fp, r0
     740:	9803      	ldr	r0, [sp, #12]
     742:	5820      	ldr	r0, [r4, r0]
     744:	4682      	mov	sl, r0
     746:	6a40      	ldr	r0, [r0, #36]	; 0x24
     748:	4684      	mov	ip, r0
     74a:	9801      	ldr	r0, [sp, #4]
     74c:	9102      	str	r1, [sp, #8]
     74e:	4281      	cmp	r1, r0
     750:	dbd1      	blt.n	0x6f6
     752:	9901      	ldr	r1, [sp, #4]
     754:	4561      	cmp	r1, ip
     756:	dad1      	bge.n	0x6fc
     758:	4649      	mov	r1, r9
     75a:	4640      	mov	r0, r8
     75c:	5060      	str	r0, [r4, r1]
     75e:	5072      	str	r2, [r6, r1]
     760:	61d5      	str	r5, [r2, #28]
     762:	5862      	ldr	r2, [r4, r1]
     764:	001d      	movs	r5, r3
     766:	61d3      	str	r3, [r2, #28]
     768:	e7d6      	b.n	0x718
     76a:	990d      	ldr	r1, [sp, #52]	; 0x34
     76c:	46bb      	mov	fp, r7
     76e:	468a      	mov	sl, r1
     770:	4293      	cmp	r3, r2
     772:	d000      	beq.n	0x776
     774:	e632      	b.n	0x3dc
     776:	464b      	mov	r3, r9
     778:	464c      	mov	r4, r9
     77a:	00e9      	lsls	r1, r5, #3
     77c:	4459      	add	r1, fp
     77e:	58c8      	ldr	r0, [r1, r3]
     780:	00ab      	lsls	r3, r5, #2
     782:	445b      	add	r3, fp
     784:	591c      	ldr	r4, [r3, r4]
     786:	6a46      	ldr	r6, [r0, #36]	; 0x24
     788:	6a67      	ldr	r7, [r4, #36]	; 0x24
     78a:	42be      	cmp	r6, r7
     78c:	db00      	blt.n	0x790
     78e:	e625      	b.n	0x3dc
     790:	464e      	mov	r6, r9
     792:	518c      	str	r4, [r1, r6]
     794:	5198      	str	r0, [r3, r6]
     796:	61c5      	str	r5, [r0, #28]
     798:	598b      	ldr	r3, [r1, r6]
     79a:	61da      	str	r2, [r3, #28]
     79c:	e61e      	b.n	0x3dc
     79e:	9b06      	ldr	r3, [sp, #24]
     7a0:	009b      	lsls	r3, r3, #2
     7a2:	4698      	mov	r8, r3
     7a4:	ad18      	add	r5, sp, #96	; 0x60
     7a6:	4650      	mov	r0, sl
     7a8:	4652      	mov	r2, sl
     7aa:	ab14      	add	r3, sp, #80	; 0x50
     7ac:	7919      	ldrb	r1, [r3, #4]
     7ae:	7111      	strb	r1, [r2, #4]
     7b0:	7959      	ldrb	r1, [r3, #5]
     7b2:	7151      	strb	r1, [r2, #5]
     7b4:	7999      	ldrb	r1, [r3, #6]
     7b6:	7191      	strb	r1, [r2, #6]
     7b8:	79d9      	ldrb	r1, [r3, #7]
     7ba:	3304      	adds	r3, #4
     7bc:	71d1      	strb	r1, [r2, #7]
     7be:	3204      	adds	r2, #4
     7c0:	429d      	cmp	r5, r3
     7c2:	d1f3      	bne.n	0x7ac
     7c4:	2604      	movs	r6, #4
     7c6:	9f07      	ldr	r7, [sp, #28]
     7c8:	ab14      	add	r3, sp, #80	; 0x50
     7ca:	1e7a      	subs	r2, r7, #1
     7cc:	4443      	add	r3, r8
     7ce:	189b      	adds	r3, r3, r2
     7d0:	579e      	ldrsb	r6, [r3, r6]
     7d2:	2303      	movs	r3, #3
     7d4:	9601      	str	r6, [sp, #4]
     7d6:	3e01      	subs	r6, #1
     7d8:	17f1      	asrs	r1, r6, #31
     7da:	0f89      	lsrs	r1, r1, #30
     7dc:	1876      	adds	r6, r6, r1
     7de:	4033      	ands	r3, r6
     7e0:	1a59      	subs	r1, r3, r1
     7e2:	1bcb      	subs	r3, r1, r7
     7e4:	003e      	movs	r6, r7
     7e6:	17df      	asrs	r7, r3, #31
     7e8:	1a89      	subs	r1, r1, r2
     7ea:	19db      	adds	r3, r3, r7
     7ec:	407b      	eors	r3, r7
     7ee:	17cf      	asrs	r7, r1, #31
     7f0:	19c9      	adds	r1, r1, r7
     7f2:	4079      	eors	r1, r7
     7f4:	1a5b      	subs	r3, r3, r1
     7f6:	990b      	ldr	r1, [sp, #44]	; 0x2c
     7f8:	468c      	mov	ip, r1
     7fa:	4463      	add	r3, ip
     7fc:	061b      	lsls	r3, r3, #24
     7fe:	161b      	asrs	r3, r3, #24
     800:	9302      	str	r3, [sp, #8]
     802:	4653      	mov	r3, sl
     804:	4443      	add	r3, r8
     806:	1999      	adds	r1, r3, r6
     808:	9e01      	ldr	r6, [sp, #4]
     80a:	710e      	strb	r6, [r1, #4]
     80c:	0611      	lsls	r1, r2, #24
     80e:	189a      	adds	r2, r3, r2
     810:	2300      	movs	r3, #0
     812:	7113      	strb	r3, [r2, #4]
     814:	2314      	movs	r3, #20
     816:	0e09      	lsrs	r1, r1, #24
     818:	4453      	add	r3, sl
     81a:	9101      	str	r1, [sp, #4]
     81c:	2200      	movs	r2, #0
     81e:	0019      	movs	r1, r3
     820:	4684      	mov	ip, r0
     822:	4f83      	ldr	r7, [pc, #524]	; (0xa30)
     824:	ae21      	add	r6, sp, #132	; 0x84
     826:	2300      	movs	r3, #0
     828:	0010      	movs	r0, r2
     82a:	0002      	movs	r2, r0
     82c:	437a      	muls	r2, r7
     82e:	56f0      	ldrsb	r0, [r6, r3]
     830:	3301      	adds	r3, #1
     832:	1810      	adds	r0, r2, r0
     834:	2b04      	cmp	r3, #4
     836:	d1f8      	bne.n	0x82a
     838:	3604      	adds	r6, #4
     83a:	0002      	movs	r2, r0
     83c:	428e      	cmp	r6, r1
     83e:	d1f2      	bne.n	0x826
     840:	2630      	movs	r6, #48	; 0x30
     842:	a90e      	add	r1, sp, #56	; 0x38
     844:	3b03      	subs	r3, #3
     846:	1989      	adds	r1, r1, r6
     848:	700b      	strb	r3, [r1, #0]
     84a:	2131      	movs	r1, #49	; 0x31
     84c:	ab0e      	add	r3, sp, #56	; 0x38
     84e:	185b      	adds	r3, r3, r1
     850:	9906      	ldr	r1, [sp, #24]
     852:	7019      	strb	r1, [r3, #0]
     854:	2132      	movs	r1, #50	; 0x32
     856:	ab0e      	add	r3, sp, #56	; 0x38
     858:	185b      	adds	r3, r3, r1
     85a:	9901      	ldr	r1, [sp, #4]
     85c:	7019      	strb	r1, [r3, #0]
     85e:	2133      	movs	r1, #51	; 0x33
     860:	ab0e      	add	r3, sp, #56	; 0x38
     862:	185b      	adds	r3, r3, r1
     864:	9902      	ldr	r1, [sp, #8]
     866:	7019      	strb	r1, [r3, #0]
     868:	4651      	mov	r1, sl
     86a:	4660      	mov	r0, ip
     86c:	921f      	str	r2, [sp, #124]	; 0x7c
     86e:	ab1a      	add	r3, sp, #104	; 0x68
     870:	3110      	adds	r1, #16
     872:	7902      	ldrb	r2, [r0, #4]
     874:	711a      	strb	r2, [r3, #4]
     876:	7942      	ldrb	r2, [r0, #5]
     878:	715a      	strb	r2, [r3, #5]
     87a:	7982      	ldrb	r2, [r0, #6]
     87c:	719a      	strb	r2, [r3, #6]
     87e:	79c2      	ldrb	r2, [r0, #7]
     880:	3004      	adds	r0, #4
     882:	71da      	strb	r2, [r3, #7]
     884:	3304      	adds	r3, #4
     886:	4288      	cmp	r0, r1
     888:	d1f3      	bne.n	0x872
     88a:	a914      	add	r1, sp, #80	; 0x50
     88c:	4658      	mov	r0, fp
     88e:	f002 fdcf 	bl	0x3430
     892:	2800      	cmp	r0, #0
     894:	d100      	bne.n	0x898
     896:	e091      	b.n	0x9bc
     898:	6a02      	ldr	r2, [r0, #32]
     89a:	3201      	adds	r2, #1
     89c:	a91a      	add	r1, sp, #104	; 0x68
     89e:	4658      	mov	r0, fp
     8a0:	f002 fde0 	bl	0x3464
     8a4:	9b06      	ldr	r3, [sp, #24]
     8a6:	2b03      	cmp	r3, #3
     8a8:	d000      	beq.n	0x8ac
     8aa:	e657      	b.n	0x55c
     8ac:	4653      	mov	r3, sl
     8ae:	4652      	mov	r2, sl
     8b0:	7921      	ldrb	r1, [r4, #4]
     8b2:	7111      	strb	r1, [r2, #4]
     8b4:	7961      	ldrb	r1, [r4, #5]
     8b6:	7151      	strb	r1, [r2, #5]
     8b8:	79a1      	ldrb	r1, [r4, #6]
     8ba:	7191      	strb	r1, [r2, #6]
     8bc:	79e1      	ldrb	r1, [r4, #7]
     8be:	3404      	adds	r4, #4
     8c0:	71d1      	strb	r1, [r2, #7]
     8c2:	3204      	adds	r2, #4
     8c4:	42a5      	cmp	r5, r4
     8c6:	d1f3      	bne.n	0x8b0
     8c8:	9a06      	ldr	r2, [sp, #24]
     8ca:	9f07      	ldr	r7, [sp, #28]
     8cc:	1e51      	subs	r1, r2, #1
     8ce:	008e      	lsls	r6, r1, #2
     8d0:	46bc      	mov	ip, r7
     8d2:	a814      	add	r0, sp, #80	; 0x50
     8d4:	1982      	adds	r2, r0, r6
     8d6:	2004      	movs	r0, #4
     8d8:	4462      	add	r2, ip
     8da:	5610      	ldrsb	r0, [r2, r0]
     8dc:	2203      	movs	r2, #3
     8de:	1e44      	subs	r4, r0, #1
     8e0:	17e5      	asrs	r5, r4, #31
     8e2:	402a      	ands	r2, r5
     8e4:	1912      	adds	r2, r2, r4
     8e6:	9c06      	ldr	r4, [sp, #24]
     8e8:	1092      	asrs	r2, r2, #2
     8ea:	1b15      	subs	r5, r2, r4
     8ec:	17ec      	asrs	r4, r5, #31
     8ee:	1a52      	subs	r2, r2, r1
     8f0:	192d      	adds	r5, r5, r4
     8f2:	4065      	eors	r5, r4
     8f4:	17d4      	asrs	r4, r2, #31
     8f6:	1912      	adds	r2, r2, r4
     8f8:	4062      	eors	r2, r4
     8fa:	9c0b      	ldr	r4, [sp, #44]	; 0x2c
     8fc:	46a4      	mov	ip, r4
     8fe:	1aaa      	subs	r2, r5, r2
     900:	4462      	add	r2, ip
     902:	0612      	lsls	r2, r2, #24
     904:	1612      	asrs	r2, r2, #24
     906:	4694      	mov	ip, r2
     908:	4642      	mov	r2, r8
     90a:	46b8      	mov	r8, r7
     90c:	4452      	add	r2, sl
     90e:	4442      	add	r2, r8
     910:	7110      	strb	r0, [r2, #4]
     912:	2200      	movs	r2, #0
     914:	4456      	add	r6, sl
     916:	4446      	add	r6, r8
     918:	0609      	lsls	r1, r1, #24
     91a:	7132      	strb	r2, [r6, #4]
     91c:	4656      	mov	r6, sl
     91e:	0e0f      	lsrs	r7, r1, #24
     920:	2100      	movs	r1, #0
     922:	4d43      	ldr	r5, [pc, #268]	; (0xa30)
     924:	ac21      	add	r4, sp, #132	; 0x84
     926:	3614      	adds	r6, #20
     928:	2200      	movs	r2, #0
     92a:	0008      	movs	r0, r1
     92c:	0001      	movs	r1, r0
     92e:	4369      	muls	r1, r5
     930:	56a0      	ldrsb	r0, [r4, r2]
     932:	3201      	adds	r2, #1
     934:	1808      	adds	r0, r1, r0
     936:	2a04      	cmp	r2, #4
     938:	d1f8      	bne.n	0x92c
     93a:	3404      	adds	r4, #4
     93c:	0001      	movs	r1, r0
     93e:	42b4      	cmp	r4, r6
     940:	d1f2      	bne.n	0x928
     942:	2430      	movs	r4, #48	; 0x30
     944:	a80e      	add	r0, sp, #56	; 0x38
     946:	3a03      	subs	r2, #3
     948:	1900      	adds	r0, r0, r4
     94a:	7002      	strb	r2, [r0, #0]
     94c:	2031      	movs	r0, #49	; 0x31
     94e:	aa0e      	add	r2, sp, #56	; 0x38
     950:	1812      	adds	r2, r2, r0
     952:	7017      	strb	r7, [r2, #0]
     954:	3001      	adds	r0, #1
     956:	aa0e      	add	r2, sp, #56	; 0x38
     958:	1812      	adds	r2, r2, r0
     95a:	9807      	ldr	r0, [sp, #28]
     95c:	7010      	strb	r0, [r2, #0]
     95e:	2033      	movs	r0, #51	; 0x33
     960:	aa0e      	add	r2, sp, #56	; 0x38
     962:	1812      	adds	r2, r2, r0
     964:	4660      	mov	r0, ip
     966:	7010      	strb	r0, [r2, #0]
     968:	4650      	mov	r0, sl
     96a:	911f      	str	r1, [sp, #124]	; 0x7c
     96c:	aa1a      	add	r2, sp, #104	; 0x68
     96e:	3010      	adds	r0, #16
     970:	7919      	ldrb	r1, [r3, #4]
     972:	7111      	strb	r1, [r2, #4]
     974:	7959      	ldrb	r1, [r3, #5]
     976:	7151      	strb	r1, [r2, #5]
     978:	7999      	ldrb	r1, [r3, #6]
     97a:	7191      	strb	r1, [r2, #6]
     97c:	79d9      	ldrb	r1, [r3, #7]
     97e:	3304      	adds	r3, #4
     980:	71d1      	strb	r1, [r2, #7]
     982:	3204      	adds	r2, #4
     984:	4298      	cmp	r0, r3
     986:	d1f3      	bne.n	0x970
     988:	a914      	add	r1, sp, #80	; 0x50
     98a:	4658      	mov	r0, fp
     98c:	f002 fd50 	bl	0x3430
     990:	2800      	cmp	r0, #0
     992:	d010      	beq.n	0x9b6
     994:	6a02      	ldr	r2, [r0, #32]
     996:	3201      	adds	r2, #1
     998:	a91a      	add	r1, sp, #104	; 0x68
     99a:	4658      	mov	r0, fp
     99c:	f002 fd62 	bl	0x3464
     9a0:	e666      	b.n	0x670
     9a2:	9b0d      	ldr	r3, [sp, #52]	; 0x34
     9a4:	46bb      	mov	fp, r7
     9a6:	469a      	mov	sl, r3
     9a8:	e518      	b.n	0x3dc
     9aa:	2280      	movs	r2, #128	; 0x80
     9ac:	0612      	lsls	r2, r2, #24
     9ae:	e657      	b.n	0x660
     9b0:	2280      	movs	r2, #128	; 0x80
     9b2:	0612      	lsls	r2, r2, #24
     9b4:	e5c6      	b.n	0x544
     9b6:	2280      	movs	r2, #128	; 0x80
     9b8:	0612      	lsls	r2, r2, #24
     9ba:	e7ed      	b.n	0x998
     9bc:	2280      	movs	r2, #128	; 0x80
     9be:	0612      	lsls	r2, r2, #24
     9c0:	e76c      	b.n	0x89c
     9c2:	ab20      	add	r3, sp, #128	; 0x80
     9c4:	469b      	mov	fp, r3
     9c6:	491b      	ldr	r1, [pc, #108]	; (0xa34)
     9c8:	0018      	movs	r0, r3
     9ca:	3140      	adds	r1, #64	; 0x40
     9cc:	f002 fc90 	bl	0x32f0
     9d0:	465b      	mov	r3, fp
     9d2:	7818      	ldrb	r0, [r3, #0]
     9d4:	9b20      	ldr	r3, [sp, #128]	; 0x80
     9d6:	930e      	str	r3, [sp, #56]	; 0x38
     9d8:	465b      	mov	r3, fp
     9da:	695b      	ldr	r3, [r3, #20]
     9dc:	9313      	str	r3, [sp, #76]	; 0x4c
     9de:	465b      	mov	r3, fp
     9e0:	ac24      	add	r4, sp, #144	; 0x90
     9e2:	940c      	str	r4, [sp, #48]	; 0x30
     9e4:	aa0e      	add	r2, sp, #56	; 0x38
     9e6:	7919      	ldrb	r1, [r3, #4]
     9e8:	7111      	strb	r1, [r2, #4]
     9ea:	7959      	ldrb	r1, [r3, #5]
     9ec:	7151      	strb	r1, [r2, #5]
     9ee:	7999      	ldrb	r1, [r3, #6]
     9f0:	7191      	strb	r1, [r2, #6]
     9f2:	79d9      	ldrb	r1, [r3, #7]
     9f4:	3304      	adds	r3, #4
     9f6:	71d1      	strb	r1, [r2, #7]
     9f8:	3204      	adds	r2, #4
     9fa:	42a3      	cmp	r3, r4
     9fc:	d1f3      	bne.n	0x9e6
     9fe:	2800      	cmp	r0, #0
     a00:	d000      	beq.n	0xa04
     a02:	e463      	b.n	0x2cc
     a04:	2000      	movs	r0, #0
     a06:	e499      	b.n	0x33c
     a08:	a914      	add	r1, sp, #80	; 0x50
     a0a:	4658      	mov	r0, fp
     a0c:	f002 fd10 	bl	0x3430
     a10:	2800      	cmp	r0, #0
     a12:	d006      	beq.n	0xa22
     a14:	6a03      	ldr	r3, [r0, #32]
     a16:	9a05      	ldr	r2, [sp, #20]
     a18:	435a      	muls	r2, r3
     a1a:	0013      	movs	r3, r2
     a1c:	4a06      	ldr	r2, [pc, #24]	; (0xa38)
     a1e:	6013      	str	r3, [r2, #0]
     a20:	e632      	b.n	0x688
     a22:	4b06      	ldr	r3, [pc, #24]	; (0xa3c)
     a24:	e7f7      	b.n	0xa16
     a26:	46c0      	nop			; (mov r8, r8)
     a28:	0004      	movs	r4, r0
     a2a:	0004      	movs	r4, r0
     a2c:	0004      	movs	r4, r0
     a2e:	0008      	movs	r0, r1
     a30:	07b5      	lsls	r5, r6, #30
     a32:	0000      	movs	r0, r0
     a34:	0168      	lsls	r0, r5, #5
     a36:	0300      	lsls	r0, r0, #12
     a38:	001c      	movs	r4, r3
     a3a:	0300      	lsls	r0, r0, #12
     a3c:	ffff 7fff 			; <UNDEFINED> instruction: 0xffff7fff
     a40:	2800      	cmp	r0, #0
     a42:	d000      	beq.n	0xa46
     a44:	4770      	bx	lr
     a46:	2380      	movs	r3, #128	; 0x80
     a48:	2203      	movs	r2, #3
     a4a:	04db      	lsls	r3, r3, #19
     a4c:	701a      	strb	r2, [r3, #0]
     a4e:	4b04      	ldr	r3, [pc, #16]	; (0xa60)
     a50:	3201      	adds	r2, #1
     a52:	701a      	strb	r2, [r3, #0]
     a54:	23c0      	movs	r3, #192	; 0xc0
     a56:	321b      	adds	r2, #27
     a58:	04db      	lsls	r3, r3, #19
     a5a:	801a      	strh	r2, [r3, #0]
     a5c:	e7fe      	b.n	0xa5c
     a5e:	46c0      	nop			; (mov r8, r8)
     a60:	0001      	movs	r1, r0
     a62:	0400      	lsls	r0, r0, #16
     a64:	b40f      	push	{r0, r1, r2, r3}
     a66:	b5f0      	push	{r4, r5, r6, r7, lr}
     a68:	46de      	mov	lr, fp
     a6a:	4645      	mov	r5, r8
     a6c:	4657      	mov	r7, sl
     a6e:	464e      	mov	r6, r9
     a70:	b5e0      	push	{r5, r6, r7, lr}
     a72:	b083      	sub	sp, #12
     a74:	ab0c      	add	r3, sp, #48	; 0x30
     a76:	cb01      	ldmia	r3!, {r0}
     a78:	9301      	str	r3, [sp, #4]
     a7a:	7805      	ldrb	r5, [r0, #0]
     a7c:	4b88      	ldr	r3, [pc, #544]	; (0xca0)
     a7e:	4c89      	ldr	r4, [pc, #548]	; (0xca4)
     a80:	469b      	mov	fp, r3
     a82:	2d00      	cmp	r5, #0
     a84:	d035      	beq.n	0xaf2
     a86:	2101      	movs	r1, #1
     a88:	2d25      	cmp	r5, #37	; 0x25
     a8a:	d13d      	bne.n	0xb08
     a8c:	1c83      	adds	r3, r0, #2
     a8e:	469a      	mov	sl, r3
     a90:	7843      	ldrb	r3, [r0, #1]
     a92:	2b64      	cmp	r3, #100	; 0x64
     a94:	d05a      	beq.n	0xb4c
     a96:	d947      	bls.n	0xb28
     a98:	2b73      	cmp	r3, #115	; 0x73
     a9a:	d100      	bne.n	0xa9e
     a9c:	e07d      	b.n	0xb9a
     a9e:	2b75      	cmp	r3, #117	; 0x75
     aa0:	d123      	bne.n	0xaea
     aa2:	9b01      	ldr	r3, [sp, #4]
     aa4:	1d1a      	adds	r2, r3, #4
     aa6:	681b      	ldr	r3, [r3, #0]
     aa8:	9201      	str	r2, [sp, #4]
     aaa:	4699      	mov	r9, r3
     aac:	2b00      	cmp	r3, #0
     aae:	d000      	beq.n	0xab2
     ab0:	e08f      	b.n	0xbd2
     ab2:	2701      	movs	r7, #1
     ab4:	4d7a      	ldr	r5, [pc, #488]	; (0xca0)
     ab6:	3330      	adds	r3, #48	; 0x30
     ab8:	702b      	strb	r3, [r5, #0]
     aba:	2300      	movs	r3, #0
     abc:	55eb      	strb	r3, [r5, r7]
     abe:	7828      	ldrb	r0, [r5, #0]
     ac0:	2800      	cmp	r0, #0
     ac2:	d012      	beq.n	0xaea
     ac4:	2701      	movs	r7, #1
     ac6:	2101      	movs	r1, #1
     ac8:	4e77      	ldr	r6, [pc, #476]	; (0xca8)
     aca:	3501      	adds	r5, #1
     acc:	7823      	ldrb	r3, [r4, #0]
     ace:	001a      	movs	r2, r3
     ad0:	085b      	lsrs	r3, r3, #1
     ad2:	400a      	ands	r2, r1
     ad4:	429a      	cmp	r2, r3
     ad6:	d1f9      	bne.n	0xacc
     ad8:	7030      	strb	r0, [r6, #0]
     ada:	7823      	ldrb	r3, [r4, #0]
     adc:	407b      	eors	r3, r7
     ade:	7023      	strb	r3, [r4, #0]
     ae0:	3501      	adds	r5, #1
     ae2:	1e6b      	subs	r3, r5, #1
     ae4:	7818      	ldrb	r0, [r3, #0]
     ae6:	2800      	cmp	r0, #0
     ae8:	d1f0      	bne.n	0xacc
     aea:	4650      	mov	r0, sl
     aec:	7805      	ldrb	r5, [r0, #0]
     aee:	2d00      	cmp	r5, #0
     af0:	d1c9      	bne.n	0xa86
     af2:	2000      	movs	r0, #0
     af4:	b003      	add	sp, #12
     af6:	bc3c      	pop	{r2, r3, r4, r5}
     af8:	4690      	mov	r8, r2
     afa:	4699      	mov	r9, r3
     afc:	46a2      	mov	sl, r4
     afe:	46ab      	mov	fp, r5
     b00:	bcf0      	pop	{r4, r5, r6, r7}
     b02:	bc08      	pop	{r3}
     b04:	b004      	add	sp, #16
     b06:	4718      	bx	r3
     b08:	7823      	ldrb	r3, [r4, #0]
     b0a:	001a      	movs	r2, r3
     b0c:	085b      	lsrs	r3, r3, #1
     b0e:	400a      	ands	r2, r1
     b10:	429a      	cmp	r2, r3
     b12:	d1f9      	bne.n	0xb08
     b14:	2201      	movs	r2, #1
     b16:	4b64      	ldr	r3, [pc, #400]	; (0xca8)
     b18:	701d      	strb	r5, [r3, #0]
     b1a:	7823      	ldrb	r3, [r4, #0]
     b1c:	4053      	eors	r3, r2
     b1e:	7023      	strb	r3, [r4, #0]
     b20:	1c43      	adds	r3, r0, #1
     b22:	469a      	mov	sl, r3
     b24:	4650      	mov	r0, sl
     b26:	e7e1      	b.n	0xaec
     b28:	2b25      	cmp	r3, #37	; 0x25
     b2a:	d1de      	bne.n	0xaea
     b2c:	2101      	movs	r1, #1
     b2e:	7823      	ldrb	r3, [r4, #0]
     b30:	001a      	movs	r2, r3
     b32:	085b      	lsrs	r3, r3, #1
     b34:	400a      	ands	r2, r1
     b36:	429a      	cmp	r2, r3
     b38:	d1f9      	bne.n	0xb2e
     b3a:	2225      	movs	r2, #37	; 0x25
     b3c:	4b5a      	ldr	r3, [pc, #360]	; (0xca8)
     b3e:	701a      	strb	r2, [r3, #0]
     b40:	2201      	movs	r2, #1
     b42:	7823      	ldrb	r3, [r4, #0]
     b44:	4053      	eors	r3, r2
     b46:	7023      	strb	r3, [r4, #0]
     b48:	4650      	mov	r0, sl
     b4a:	e7cf      	b.n	0xaec
     b4c:	9b01      	ldr	r3, [sp, #4]
     b4e:	1d1a      	adds	r2, r3, #4
     b50:	681b      	ldr	r3, [r3, #0]
     b52:	9201      	str	r2, [sp, #4]
     b54:	4699      	mov	r9, r3
     b56:	2b00      	cmp	r3, #0
     b58:	db6b      	blt.n	0xc32
     b5a:	d000      	beq.n	0xb5e
     b5c:	e099      	b.n	0xc92
     b5e:	4d50      	ldr	r5, [pc, #320]	; (0xca0)
     b60:	3330      	adds	r3, #48	; 0x30
     b62:	702b      	strb	r3, [r5, #0]
     b64:	4a51      	ldr	r2, [pc, #324]	; (0xcac)
     b66:	2300      	movs	r3, #0
     b68:	7013      	strb	r3, [r2, #0]
     b6a:	7828      	ldrb	r0, [r5, #0]
     b6c:	2800      	cmp	r0, #0
     b6e:	d0bc      	beq.n	0xaea
     b70:	2701      	movs	r7, #1
     b72:	2101      	movs	r1, #1
     b74:	4e4c      	ldr	r6, [pc, #304]	; (0xca8)
     b76:	3501      	adds	r5, #1
     b78:	7823      	ldrb	r3, [r4, #0]
     b7a:	001a      	movs	r2, r3
     b7c:	085b      	lsrs	r3, r3, #1
     b7e:	400a      	ands	r2, r1
     b80:	429a      	cmp	r2, r3
     b82:	d1f9      	bne.n	0xb78
     b84:	7030      	strb	r0, [r6, #0]
     b86:	7823      	ldrb	r3, [r4, #0]
     b88:	407b      	eors	r3, r7
     b8a:	7023      	strb	r3, [r4, #0]
     b8c:	3501      	adds	r5, #1
     b8e:	1e6b      	subs	r3, r5, #1
     b90:	7818      	ldrb	r0, [r3, #0]
     b92:	2800      	cmp	r0, #0
     b94:	d1f0      	bne.n	0xb78
     b96:	4650      	mov	r0, sl
     b98:	e7a8      	b.n	0xaec
     b9a:	9b01      	ldr	r3, [sp, #4]
     b9c:	6818      	ldr	r0, [r3, #0]
     b9e:	7805      	ldrb	r5, [r0, #0]
     ba0:	1d1a      	adds	r2, r3, #4
     ba2:	9201      	str	r2, [sp, #4]
     ba4:	2d00      	cmp	r5, #0
     ba6:	d0a0      	beq.n	0xaea
     ba8:	2701      	movs	r7, #1
     baa:	2101      	movs	r1, #1
     bac:	4e3e      	ldr	r6, [pc, #248]	; (0xca8)
     bae:	3001      	adds	r0, #1
     bb0:	7823      	ldrb	r3, [r4, #0]
     bb2:	001a      	movs	r2, r3
     bb4:	085b      	lsrs	r3, r3, #1
     bb6:	400a      	ands	r2, r1
     bb8:	429a      	cmp	r2, r3
     bba:	d1f9      	bne.n	0xbb0
     bbc:	7035      	strb	r5, [r6, #0]
     bbe:	7823      	ldrb	r3, [r4, #0]
     bc0:	407b      	eors	r3, r7
     bc2:	7023      	strb	r3, [r4, #0]
     bc4:	3001      	adds	r0, #1
     bc6:	1e43      	subs	r3, r0, #1
     bc8:	781d      	ldrb	r5, [r3, #0]
     bca:	2d00      	cmp	r5, #0
     bcc:	d1f0      	bne.n	0xbb0
     bce:	4650      	mov	r0, sl
     bd0:	e78c      	b.n	0xaec
     bd2:	2300      	movs	r3, #0
     bd4:	464f      	mov	r7, r9
     bd6:	4698      	mov	r8, r3
     bd8:	46d9      	mov	r9, fp
     bda:	e001      	b.n	0xbe0
     bdc:	46a8      	mov	r8, r5
     bde:	0007      	movs	r7, r0
     be0:	4643      	mov	r3, r8
     be2:	210a      	movs	r1, #10
     be4:	0038      	movs	r0, r7
     be6:	1c5d      	adds	r5, r3, #1
     be8:	f004 fa66 	bl	0x50b8
     bec:	3130      	adds	r1, #48	; 0x30
     bee:	060e      	lsls	r6, r1, #24
     bf0:	4b2f      	ldr	r3, [pc, #188]	; (0xcb0)
     bf2:	0e36      	lsrs	r6, r6, #24
     bf4:	555e      	strb	r6, [r3, r5]
     bf6:	210a      	movs	r1, #10
     bf8:	0038      	movs	r0, r7
     bfa:	f004 fa61 	bl	0x50c0
     bfe:	2f09      	cmp	r7, #9
     c00:	d8ec      	bhi.n	0xbdc
     c02:	4643      	mov	r3, r8
     c04:	002f      	movs	r7, r5
     c06:	464d      	mov	r5, r9
     c08:	2b00      	cmp	r3, #0
     c0a:	d046      	beq.n	0xc9a
     c0c:	465a      	mov	r2, fp
     c0e:	2300      	movs	r3, #0
     c10:	4442      	add	r2, r8
     c12:	4640      	mov	r0, r8
     c14:	46cc      	mov	ip, r9
     c16:	e000      	b.n	0xc1a
     c18:	7816      	ldrb	r6, [r2, #0]
     c1a:	4659      	mov	r1, fp
     c1c:	465d      	mov	r5, fp
     c1e:	5cc9      	ldrb	r1, [r1, r3]
     c20:	54ee      	strb	r6, [r5, r3]
     c22:	3301      	adds	r3, #1
     c24:	7011      	strb	r1, [r2, #0]
     c26:	3a01      	subs	r2, #1
     c28:	1ac1      	subs	r1, r0, r3
     c2a:	428b      	cmp	r3, r1
     c2c:	d3f4      	bcc.n	0xc18
     c2e:	4665      	mov	r5, ip
     c30:	e743      	b.n	0xaba
     c32:	232d      	movs	r3, #45	; 0x2d
     c34:	4d1a      	ldr	r5, [pc, #104]	; (0xca0)
     c36:	702b      	strb	r3, [r5, #0]
     c38:	464b      	mov	r3, r9
     c3a:	425b      	negs	r3, r3
     c3c:	4699      	mov	r9, r3
     c3e:	2301      	movs	r3, #1
     c40:	4698      	mov	r8, r3
     c42:	002b      	movs	r3, r5
     c44:	4647      	mov	r7, r8
     c46:	464d      	mov	r5, r9
     c48:	4699      	mov	r9, r3
     c4a:	e000      	b.n	0xc4e
     c4c:	001f      	movs	r7, r3
     c4e:	0028      	movs	r0, r5
     c50:	210a      	movs	r1, #10
     c52:	f004 fa25 	bl	0x50a0
     c56:	464b      	mov	r3, r9
     c58:	3130      	adds	r1, #48	; 0x30
     c5a:	060e      	lsls	r6, r1, #24
     c5c:	0e36      	lsrs	r6, r6, #24
     c5e:	55de      	strb	r6, [r3, r7]
     c60:	0028      	movs	r0, r5
     c62:	210a      	movs	r1, #10
     c64:	f004 fa20 	bl	0x50a8
     c68:	4b10      	ldr	r3, [pc, #64]	; (0xcac)
     c6a:	0005      	movs	r5, r0
     c6c:	19da      	adds	r2, r3, r7
     c6e:	1c7b      	adds	r3, r7, #1
     c70:	2800      	cmp	r0, #0
     c72:	d1eb      	bne.n	0xc4c
     c74:	464d      	mov	r5, r9
     c76:	4547      	cmp	r7, r8
     c78:	d800      	bhi.n	0xc7c
     c7a:	e774      	b.n	0xb66
     c7c:	4643      	mov	r3, r8
     c7e:	e000      	b.n	0xc82
     c80:	5dee      	ldrb	r6, [r5, r7]
     c82:	5ce9      	ldrb	r1, [r5, r3]
     c84:	54ee      	strb	r6, [r5, r3]
     c86:	55e9      	strb	r1, [r5, r7]
     c88:	3301      	adds	r3, #1
     c8a:	3f01      	subs	r7, #1
     c8c:	42bb      	cmp	r3, r7
     c8e:	d3f7      	bcc.n	0xc80
     c90:	e769      	b.n	0xb66
     c92:	2300      	movs	r3, #0
     c94:	4d02      	ldr	r5, [pc, #8]	; (0xca0)
     c96:	4698      	mov	r8, r3
     c98:	e7d3      	b.n	0xc42
     c9a:	2701      	movs	r7, #1
     c9c:	e70d      	b.n	0xaba
     c9e:	46c0      	nop			; (mov r8, r8)
     ca0:	0020      	movs	r0, r4
     ca2:	0300      	lsls	r0, r0, #12
     ca4:	0401      	lsls	r1, r0, #16
     ca6:	0400      	lsls	r0, r0, #16
     ca8:	0400      	lsls	r0, r0, #16
     caa:	0400      	lsls	r0, r0, #16
     cac:	0021      	movs	r1, r4
     cae:	0300      	lsls	r0, r0, #12
     cb0:	001f      	movs	r7, r3
     cb2:	0300      	lsls	r0, r0, #12
     cb4:	2280      	movs	r2, #128	; 0x80
     cb6:	b5f0      	push	{r4, r5, r6, r7, lr}
     cb8:	46d6      	mov	lr, sl
     cba:	464f      	mov	r7, r9
     cbc:	4646      	mov	r6, r8
     cbe:	4d31      	ldr	r5, [pc, #196]	; (0xd84)
     cc0:	4b31      	ldr	r3, [pc, #196]	; (0xd88)
     cc2:	0492      	lsls	r2, r2, #18
     cc4:	b5c0      	push	{r6, r7, lr}
     cc6:	665a      	str	r2, [r3, #100]	; 0x64
     cc8:	682b      	ldr	r3, [r5, #0]
     cca:	4f30      	ldr	r7, [pc, #192]	; (0xd8c)
     ccc:	681b      	ldr	r3, [r3, #0]
     cce:	000c      	movs	r4, r1
     cd0:	f000 f8e0 	bl	0xe94
     cd4:	4b2e      	ldr	r3, [pc, #184]	; (0xd90)
     cd6:	783a      	ldrb	r2, [r7, #0]
     cd8:	469a      	mov	sl, r3
     cda:	781b      	ldrb	r3, [r3, #0]
     cdc:	0212      	lsls	r2, r2, #8
     cde:	4313      	orrs	r3, r2
     ce0:	4a2c      	ldr	r2, [pc, #176]	; (0xd94)
     ce2:	7811      	ldrb	r1, [r2, #0]
     ce4:	021b      	lsls	r3, r3, #8
     ce6:	4319      	orrs	r1, r3
     ce8:	4b2b      	ldr	r3, [pc, #172]	; (0xd98)
     cea:	4699      	mov	r9, r3
     cec:	781b      	ldrb	r3, [r3, #0]
     cee:	469c      	mov	ip, r3
     cf0:	4666      	mov	r6, ip
     cf2:	0208      	lsls	r0, r1, #8
     cf4:	0e0b      	lsrs	r3, r1, #24
     cf6:	4306      	orrs	r6, r0
     cf8:	4690      	mov	r8, r2
     cfa:	0030      	movs	r0, r6
     cfc:	0032      	movs	r2, r6
     cfe:	0019      	movs	r1, r3
     d00:	1880      	adds	r0, r0, r2
     d02:	4159      	adcs	r1, r3
     d04:	1880      	adds	r0, r0, r2
     d06:	4159      	adcs	r1, r3
     d08:	028b      	lsls	r3, r1, #10
     d0a:	0281      	lsls	r1, r0, #10
     d0c:	468c      	mov	ip, r1
     d0e:	0d82      	lsrs	r2, r0, #22
     d10:	431a      	orrs	r2, r3
     d12:	4660      	mov	r0, ip
     d14:	0011      	movs	r1, r2
     d16:	2300      	movs	r3, #0
     d18:	4a20      	ldr	r2, [pc, #128]	; (0xd9c)
     d1a:	f004 f9c9 	bl	0x50b0
     d1e:	682b      	ldr	r3, [r5, #0]
     d20:	60a0      	str	r0, [r4, #8]
     d22:	685b      	ldr	r3, [r3, #4]
     d24:	f000 f8b6 	bl	0xe94
     d28:	4653      	mov	r3, sl
     d2a:	783a      	ldrb	r2, [r7, #0]
     d2c:	781b      	ldrb	r3, [r3, #0]
     d2e:	0212      	lsls	r2, r2, #8
     d30:	4313      	orrs	r3, r2
     d32:	4642      	mov	r2, r8
     d34:	7811      	ldrb	r1, [r2, #0]
     d36:	021b      	lsls	r3, r3, #8
     d38:	4319      	orrs	r1, r3
     d3a:	464b      	mov	r3, r9
     d3c:	781e      	ldrb	r6, [r3, #0]
     d3e:	0208      	lsls	r0, r1, #8
     d40:	0e0b      	lsrs	r3, r1, #24
     d42:	4306      	orrs	r6, r0
     d44:	0032      	movs	r2, r6
     d46:	0030      	movs	r0, r6
     d48:	0019      	movs	r1, r3
     d4a:	1880      	adds	r0, r0, r2
     d4c:	4159      	adcs	r1, r3
     d4e:	1880      	adds	r0, r0, r2
     d50:	4159      	adcs	r1, r3
     d52:	028b      	lsls	r3, r1, #10
     d54:	0d82      	lsrs	r2, r0, #22
     d56:	0286      	lsls	r6, r0, #10
     d58:	431a      	orrs	r2, r3
     d5a:	0030      	movs	r0, r6
     d5c:	0011      	movs	r1, r2
     d5e:	2300      	movs	r3, #0
     d60:	4a0e      	ldr	r2, [pc, #56]	; (0xd9c)
     d62:	f004 f9a5 	bl	0x50b0
     d66:	68a3      	ldr	r3, [r4, #8]
     d68:	1ac0      	subs	r0, r0, r3
     d6a:	682b      	ldr	r3, [r5, #0]
     d6c:	60a0      	str	r0, [r4, #8]
     d6e:	689b      	ldr	r3, [r3, #8]
     d70:	f000 f890 	bl	0xe94
     d74:	6020      	str	r0, [r4, #0]
     d76:	bc1c      	pop	{r2, r3, r4}
     d78:	4690      	mov	r8, r2
     d7a:	4699      	mov	r9, r3
     d7c:	46a2      	mov	sl, r4
     d7e:	bcf0      	pop	{r4, r5, r6, r7}
     d80:	bc01      	pop	{r0}
     d82:	4700      	bx	r0
     d84:	0154      	lsls	r4, r2, #5
     d86:	0300      	lsls	r0, r0, #12
     d88:	0020      	movs	r0, r4
     d8a:	0300      	lsls	r0, r0, #12
     d8c:	0105      	lsls	r5, r0, #4
     d8e:	0400      	lsls	r0, r0, #16
     d90:	0104      	lsls	r4, r0, #4
     d92:	0400      	lsls	r0, r0, #16
     d94:	0101      	lsls	r1, r0, #4
     d96:	0400      	lsls	r0, r0, #16
     d98:	0100      	lsls	r0, r0, #4
     d9a:	0400      	lsls	r0, r0, #16
     d9c:	c350      	stmia	r3!, {r4, r6}
     d9e:	0000      	movs	r0, r0
     da0:	b510      	push	{r4, lr}
     da2:	2a00      	cmp	r2, #0
     da4:	d00c      	beq.n	0xdc0
     da6:	4b07      	ldr	r3, [pc, #28]	; (0xdc4)
     da8:	681b      	ldr	r3, [r3, #0]
     daa:	6898      	ldr	r0, [r3, #8]
     dac:	2364      	movs	r3, #100	; 0x64
     dae:	0004      	movs	r4, r0
     db0:	435c      	muls	r4, r3
     db2:	0011      	movs	r1, r2
     db4:	0020      	movs	r0, r4
     db6:	f004 f983 	bl	0x50c0
     dba:	bc10      	pop	{r4}
     dbc:	bc02      	pop	{r1}
     dbe:	4708      	bx	r1
     dc0:	2000      	movs	r0, #0
     dc2:	e7fa      	b.n	0xdba
     dc4:	0158      	lsls	r0, r3, #5
     dc6:	0300      	lsls	r0, r0, #12
     dc8:	230f      	movs	r3, #15
     dca:	4a13      	ldr	r2, [pc, #76]	; (0xe18)
     dcc:	b570      	push	{r4, r5, r6, lr}
     dce:	6e55      	ldr	r5, [r2, #100]	; 0x64
     dd0:	402b      	ands	r3, r5
     dd2:	d001      	beq.n	0xdd8
     dd4:	1aed      	subs	r5, r5, r3
     dd6:	3510      	adds	r5, #16
     dd8:	23fe      	movs	r3, #254	; 0xfe
     dda:	182c      	adds	r4, r5, r0
     ddc:	2000      	movs	r0, #0
     dde:	061b      	lsls	r3, r3, #24
     de0:	18e6      	adds	r6, r4, r3
     de2:	4b0e      	ldr	r3, [pc, #56]	; (0xe1c)
     de4:	42b3      	cmp	r3, r6
     de6:	4140      	adcs	r0, r0
     de8:	6654      	str	r4, [r2, #100]	; 0x64
     dea:	f7ff fe29 	bl	0xa40
     dee:	002b      	movs	r3, r5
     df0:	2200      	movs	r2, #0
     df2:	42ac      	cmp	r4, r5
     df4:	d003      	beq.n	0xdfe
     df6:	701a      	strb	r2, [r3, #0]
     df8:	3301      	adds	r3, #1
     dfa:	429c      	cmp	r4, r3
     dfc:	d1fb      	bne.n	0xdf6
     dfe:	2000      	movs	r0, #0
     e00:	4b07      	ldr	r3, [pc, #28]	; (0xe20)
     e02:	681b      	ldr	r3, [r3, #0]
     e04:	685b      	ldr	r3, [r3, #4]
     e06:	42b3      	cmp	r3, r6
     e08:	4140      	adcs	r0, r0
     e0a:	f7ff fe19 	bl	0xa40
     e0e:	0028      	movs	r0, r5
     e10:	bc70      	pop	{r4, r5, r6}
     e12:	bc02      	pop	{r1}
     e14:	4708      	bx	r1
     e16:	46c0      	nop			; (mov r8, r8)
     e18:	0020      	movs	r0, r4
     e1a:	0300      	lsls	r0, r0, #12
     e1c:	ffff 0003 	vaddl.u<illegal width 64>	q8, d15, d3
     e20:	0158      	lsls	r0, r3, #5
     e22:	0300      	lsls	r0, r0, #12
     e24:	4770      	bx	lr
     e26:	46c0      	nop			; (mov r8, r8)
     e28:	2280      	movs	r2, #128	; 0x80
     e2a:	4b02      	ldr	r3, [pc, #8]	; (0xe34)
     e2c:	0492      	lsls	r2, r2, #18
     e2e:	665a      	str	r2, [r3, #100]	; 0x64
     e30:	4770      	bx	lr
     e32:	46c0      	nop			; (mov r8, r8)
     e34:	0020      	movs	r0, r4
     e36:	0300      	lsls	r0, r0, #12
     e38:	4b02      	ldr	r3, [pc, #8]	; (0xe44)
     e3a:	0440      	lsls	r0, r0, #17
     e3c:	0c40      	lsrs	r0, r0, #17
     e3e:	6018      	str	r0, [r3, #0]
     e40:	4770      	bx	lr
     e42:	46c0      	nop			; (mov r8, r8)
     e44:	01e8      	lsls	r0, r5, #7
     e46:	0300      	lsls	r0, r0, #12
     e48:	4b05      	ldr	r3, [pc, #20]	; (0xe60)
     e4a:	4806      	ldr	r0, [pc, #24]	; (0xe64)
     e4c:	681a      	ldr	r2, [r3, #0]
     e4e:	4342      	muls	r2, r0
     e50:	0010      	movs	r0, r2
     e52:	4a05      	ldr	r2, [pc, #20]	; (0xe68)
     e54:	4694      	mov	ip, r2
     e56:	4460      	add	r0, ip
     e58:	6018      	str	r0, [r3, #0]
     e5a:	0040      	lsls	r0, r0, #1
     e5c:	0c40      	lsrs	r0, r0, #17
     e5e:	4770      	bx	lr
     e60:	01e8      	lsls	r0, r5, #7
     e62:	0300      	lsls	r0, r0, #12
     e64:	43fd      	mvns	r5, r7
     e66:	0003      	movs	r3, r0
     e68:	9ec3      	ldr	r6, [sp, #780]	; 0x30c
     e6a:	0026      	movs	r6, r4
     e6c:	4b08      	ldr	r3, [pc, #32]	; (0xe90)
     e6e:	e001      	b.n	0xe74
     e70:	2380      	movs	r3, #128	; 0x80
     e72:	061b      	lsls	r3, r3, #24
     e74:	3004      	adds	r0, #4
     e76:	4288      	cmp	r0, r1
     e78:	d3fa      	bcc.n	0xe70
     e7a:	0358      	lsls	r0, r3, #13
     e7c:	18c0      	adds	r0, r0, r3
     e7e:	11c3      	asrs	r3, r0, #7
     e80:	4043      	eors	r3, r0
     e82:	00d8      	lsls	r0, r3, #3
     e84:	18c3      	adds	r3, r0, r3
     e86:	1458      	asrs	r0, r3, #17
     e88:	4058      	eors	r0, r3
     e8a:	0143      	lsls	r3, r0, #5
     e8c:	1818      	adds	r0, r3, r0
     e8e:	4770      	bx	lr
     e90:	9dc5      	ldr	r5, [sp, #788]	; 0x314
     e92:	811c      	strh	r4, [r3, #8]
     e94:	4718      	bx	r3
     e96:	46c0      	nop			; (mov r8, r8)
     e98:	4b53      	ldr	r3, [pc, #332]	; (0xfe8)
     e9a:	b5f0      	push	{r4, r5, r6, r7, lr}
     e9c:	4645      	mov	r5, r8
     e9e:	4698      	mov	r8, r3
     ea0:	46de      	mov	lr, fp
     ea2:	4657      	mov	r7, sl
     ea4:	464e      	mov	r6, r9
     ea6:	4642      	mov	r2, r8
     ea8:	b5e0      	push	{r5, r6, r7, lr}
     eaa:	6818      	ldr	r0, [r3, #0]
     eac:	7803      	ldrb	r3, [r0, #0]
     eae:	6855      	ldr	r5, [r2, #4]
     eb0:	2b00      	cmp	r3, #0
     eb2:	d100      	bne.n	0xeb6
     eb4:	e095      	b.n	0xfe2
     eb6:	6892      	ldr	r2, [r2, #8]
     eb8:	4692      	mov	sl, r2
     eba:	4642      	mov	r2, r8
     ebc:	68d6      	ldr	r6, [r2, #12]
     ebe:	2200      	movs	r2, #0
     ec0:	4691      	mov	r9, r2
     ec2:	3201      	adds	r2, #1
     ec4:	2400      	movs	r4, #0
     ec6:	2100      	movs	r1, #0
     ec8:	4693      	mov	fp, r2
     eca:	46d4      	mov	ip, sl
     ecc:	4f47      	ldr	r7, [pc, #284]	; (0xfec)
     ece:	3b2b      	subs	r3, #43	; 0x2b
     ed0:	061b      	lsls	r3, r3, #24
     ed2:	0e1b      	lsrs	r3, r3, #24
     ed4:	2b32      	cmp	r3, #50	; 0x32
     ed6:	d815      	bhi.n	0xf04
     ed8:	009b      	lsls	r3, r3, #2
     eda:	58fb      	ldr	r3, [r7, r3]
     edc:	469f      	mov	pc, r3
     ede:	2d00      	cmp	r5, #0
     ee0:	d06d      	beq.n	0xfbe
     ee2:	4662      	mov	r2, ip
     ee4:	3d01      	subs	r5, #1
     ee6:	006b      	lsls	r3, r5, #1
     ee8:	5a9b      	ldrh	r3, [r3, r2]
     eea:	2208      	movs	r2, #8
     eec:	008c      	lsls	r4, r1, #2
     eee:	1934      	adds	r4, r6, r4
     ef0:	8063      	strh	r3, [r4, #2]
     ef2:	009b      	lsls	r3, r3, #2
     ef4:	18f3      	adds	r3, r6, r3
     ef6:	8022      	strh	r2, [r4, #0]
     ef8:	8059      	strh	r1, [r3, #2]
     efa:	2301      	movs	r3, #1
     efc:	4699      	mov	r9, r3
     efe:	3101      	adds	r1, #1
     f00:	0409      	lsls	r1, r1, #16
     f02:	0c09      	lsrs	r1, r1, #16
     f04:	3001      	adds	r0, #1
     f06:	4c3a      	ldr	r4, [pc, #232]	; (0xff0)
     f08:	7803      	ldrb	r3, [r0, #0]
     f0a:	428c      	cmp	r4, r1
     f0c:	41a4      	sbcs	r4, r4
     f0e:	425a      	negs	r2, r3
     f10:	415a      	adcs	r2, r3
     f12:	4264      	negs	r4, r4
     f14:	4322      	orrs	r2, r4
     f16:	2401      	movs	r4, #1
     f18:	2a00      	cmp	r2, #0
     f1a:	d0d8      	beq.n	0xece
     f1c:	464b      	mov	r3, r9
     f1e:	2b00      	cmp	r3, #0
     f20:	d001      	beq.n	0xf26
     f22:	4643      	mov	r3, r8
     f24:	605d      	str	r5, [r3, #4]
     f26:	4643      	mov	r3, r8
     f28:	6018      	str	r0, [r3, #0]
     f2a:	685d      	ldr	r5, [r3, #4]
     f2c:	4b31      	ldr	r3, [pc, #196]	; (0xff4)
     f2e:	18cb      	adds	r3, r1, r3
     f30:	425a      	negs	r2, r3
     f32:	4153      	adcs	r3, r2
     f34:	2d00      	cmp	r5, #0
     f36:	d14b      	bne.n	0xfd0
     f38:	2b00      	cmp	r3, #0
     f3a:	d149      	bne.n	0xfd0
     f3c:	4642      	mov	r2, r8
     f3e:	68d2      	ldr	r2, [r2, #12]
     f40:	0089      	lsls	r1, r1, #2
     f42:	528b      	strh	r3, [r1, r2]
     f44:	2000      	movs	r0, #0
     f46:	e044      	b.n	0xfd2
     f48:	2207      	movs	r2, #7
     f4a:	008b      	lsls	r3, r1, #2
     f4c:	539a      	strh	r2, [r3, r6]
     f4e:	2380      	movs	r3, #128	; 0x80
     f50:	009b      	lsls	r3, r3, #2
     f52:	429d      	cmp	r5, r3
     f54:	d033      	beq.n	0xfbe
     f56:	4662      	mov	r2, ip
     f58:	006b      	lsls	r3, r5, #1
     f5a:	5299      	strh	r1, [r3, r2]
     f5c:	2301      	movs	r3, #1
     f5e:	3101      	adds	r1, #1
     f60:	0409      	lsls	r1, r1, #16
     f62:	0c09      	lsrs	r1, r1, #16
     f64:	3501      	adds	r5, #1
     f66:	4699      	mov	r9, r3
     f68:	e7cc      	b.n	0xf04
     f6a:	2204      	movs	r2, #4
     f6c:	008b      	lsls	r3, r1, #2
     f6e:	3101      	adds	r1, #1
     f70:	0409      	lsls	r1, r1, #16
     f72:	539a      	strh	r2, [r3, r6]
     f74:	0c09      	lsrs	r1, r1, #16
     f76:	e7c5      	b.n	0xf04
     f78:	2403      	movs	r4, #3
     f7a:	008b      	lsls	r3, r1, #2
     f7c:	3101      	adds	r1, #1
     f7e:	0409      	lsls	r1, r1, #16
     f80:	539c      	strh	r4, [r3, r6]
     f82:	0c09      	lsrs	r1, r1, #16
     f84:	e7be      	b.n	0xf04
     f86:	2206      	movs	r2, #6
     f88:	008b      	lsls	r3, r1, #2
     f8a:	3101      	adds	r1, #1
     f8c:	0409      	lsls	r1, r1, #16
     f8e:	539a      	strh	r2, [r3, r6]
     f90:	0c09      	lsrs	r1, r1, #16
     f92:	e7b7      	b.n	0xf04
     f94:	2402      	movs	r4, #2
     f96:	008b      	lsls	r3, r1, #2
     f98:	3101      	adds	r1, #1
     f9a:	0409      	lsls	r1, r1, #16
     f9c:	539c      	strh	r4, [r3, r6]
     f9e:	0c09      	lsrs	r1, r1, #16
     fa0:	e7b0      	b.n	0xf04
     fa2:	2205      	movs	r2, #5
     fa4:	008b      	lsls	r3, r1, #2
     fa6:	3101      	adds	r1, #1
     fa8:	0409      	lsls	r1, r1, #16
     faa:	539a      	strh	r2, [r3, r6]
     fac:	0c09      	lsrs	r1, r1, #16
     fae:	e7a9      	b.n	0xf04
     fb0:	465a      	mov	r2, fp
     fb2:	008b      	lsls	r3, r1, #2
     fb4:	3101      	adds	r1, #1
     fb6:	0409      	lsls	r1, r1, #16
     fb8:	539a      	strh	r2, [r3, r6]
     fba:	0c09      	lsrs	r1, r1, #16
     fbc:	e7a2      	b.n	0xf04
     fbe:	464b      	mov	r3, r9
     fc0:	2b00      	cmp	r3, #0
     fc2:	d001      	beq.n	0xfc8
     fc4:	4643      	mov	r3, r8
     fc6:	605d      	str	r5, [r3, #4]
     fc8:	2c00      	cmp	r4, #0
     fca:	d001      	beq.n	0xfd0
     fcc:	4643      	mov	r3, r8
     fce:	6018      	str	r0, [r3, #0]
     fd0:	2001      	movs	r0, #1
     fd2:	bc3c      	pop	{r2, r3, r4, r5}
     fd4:	4690      	mov	r8, r2
     fd6:	4699      	mov	r9, r3
     fd8:	46a2      	mov	sl, r4
     fda:	46ab      	mov	fp, r5
     fdc:	bcf0      	pop	{r4, r5, r6, r7}
     fde:	bc02      	pop	{r1}
     fe0:	4708      	bx	r1
     fe2:	2300      	movs	r3, #0
     fe4:	2100      	movs	r1, #0
     fe6:	e7a5      	b.n	0xf34
     fe8:	0088      	lsls	r0, r1, #2
     fea:	0300      	lsls	r0, r0, #12
     fec:	50e0      	str	r0, [r4, r3]
     fee:	0800      	lsrs	r0, r0, #32
     ff0:	0fff      	lsrs	r7, r7, #31
     ff2:	0000      	movs	r0, r0
     ff4:	f000 ffff 	bl	0x1ff6
     ff8:	b5f0      	push	{r4, r5, r6, r7, lr}
     ffa:	464e      	mov	r6, r9
     ffc:	46de      	mov	lr, fp
     ffe:	4657      	mov	r7, sl
    1000:	4645      	mov	r5, r8
    1002:	4b3b      	ldr	r3, [pc, #236]	; (0x10f0)
    1004:	b5e0      	push	{r5, r6, r7, lr}
    1006:	68d9      	ldr	r1, [r3, #12]
    1008:	880e      	ldrh	r6, [r1, #0]
    100a:	b085      	sub	sp, #20
    100c:	2e00      	cmp	r6, #0
    100e:	d024      	beq.n	0x105a
    1010:	691b      	ldr	r3, [r3, #16]
    1012:	4c38      	ldr	r4, [pc, #224]	; (0x10f4)
    1014:	9301      	str	r3, [sp, #4]
    1016:	4d38      	ldr	r5, [pc, #224]	; (0x10f8)
    1018:	2300      	movs	r3, #0
    101a:	000f      	movs	r7, r1
    101c:	2200      	movs	r2, #0
    101e:	46a1      	mov	r9, r4
    1020:	46a0      	mov	r8, r4
    1022:	46aa      	mov	sl, r5
    1024:	46a4      	mov	ip, r4
    1026:	9302      	str	r3, [sp, #8]
    1028:	4834      	ldr	r0, [pc, #208]	; (0x10fc)
    102a:	2e08      	cmp	r6, #8
    102c:	d80f      	bhi.n	0x104e
    102e:	00b6      	lsls	r6, r6, #2
    1030:	5986      	ldr	r6, [r0, r6]
    1032:	46b7      	mov	pc, r6
    1034:	4c2f      	ldr	r4, [pc, #188]	; (0x10f4)
    1036:	6824      	ldr	r4, [r4, #0]
    1038:	0056      	lsls	r6, r2, #1
    103a:	5b36      	ldrh	r6, [r6, r4]
    103c:	2e00      	cmp	r6, #0
    103e:	d027      	beq.n	0x1090
    1040:	887b      	ldrh	r3, [r7, #2]
    1042:	3301      	adds	r3, #1
    1044:	009f      	lsls	r7, r3, #2
    1046:	19cf      	adds	r7, r1, r7
    1048:	883e      	ldrh	r6, [r7, #0]
    104a:	2e00      	cmp	r6, #0
    104c:	d126      	bne.n	0x109c
    104e:	9b02      	ldr	r3, [sp, #8]
    1050:	2b00      	cmp	r3, #0
    1052:	d002      	beq.n	0x105a
    1054:	9b01      	ldr	r3, [sp, #4]
    1056:	4a26      	ldr	r2, [pc, #152]	; (0x10f0)
    1058:	6113      	str	r3, [r2, #16]
    105a:	b005      	add	sp, #20
    105c:	bc3c      	pop	{r2, r3, r4, r5}
    105e:	4690      	mov	r8, r2
    1060:	4699      	mov	r9, r3
    1062:	46a2      	mov	sl, r4
    1064:	46ab      	mov	fp, r5
    1066:	bcf0      	pop	{r4, r5, r6, r7}
    1068:	bc01      	pop	{r0}
    106a:	4700      	bx	r0
    106c:	464c      	mov	r4, r9
    106e:	6824      	ldr	r4, [r4, #0]
    1070:	0056      	lsls	r6, r2, #1
    1072:	5b36      	ldrh	r6, [r6, r4]
    1074:	2e00      	cmp	r6, #0
    1076:	d10b      	bne.n	0x1090
    1078:	887b      	ldrh	r3, [r7, #2]
    107a:	e7e2      	b.n	0x1042
    107c:	4644      	mov	r4, r8
    107e:	9d01      	ldr	r5, [sp, #4]
    1080:	6824      	ldr	r4, [r4, #0]
    1082:	782f      	ldrb	r7, [r5, #0]
    1084:	0056      	lsls	r6, r2, #1
    1086:	5337      	strh	r7, [r6, r4]
    1088:	1c6c      	adds	r4, r5, #1
    108a:	9401      	str	r4, [sp, #4]
    108c:	2401      	movs	r4, #1
    108e:	9402      	str	r4, [sp, #8]
    1090:	3301      	adds	r3, #1
    1092:	009f      	lsls	r7, r3, #2
    1094:	19cf      	adds	r7, r1, r7
    1096:	883e      	ldrh	r6, [r7, #0]
    1098:	2e00      	cmp	r6, #0
    109a:	d0d8      	beq.n	0x104e
    109c:	4d18      	ldr	r5, [pc, #96]	; (0x1100)
    109e:	4295      	cmp	r5, r2
    10a0:	d2c3      	bcs.n	0x102a
    10a2:	e7d4      	b.n	0x104e
    10a4:	4d13      	ldr	r5, [pc, #76]	; (0x10f4)
    10a6:	682d      	ldr	r5, [r5, #0]
    10a8:	0056      	lsls	r6, r2, #1
    10aa:	5b77      	ldrh	r7, [r6, r5]
    10ac:	4d15      	ldr	r5, [pc, #84]	; (0x1104)
    10ae:	682d      	ldr	r5, [r5, #0]
    10b0:	9503      	str	r5, [sp, #12]
    10b2:	4655      	mov	r5, sl
    10b4:	682e      	ldr	r6, [r5, #0]
    10b6:	1c75      	adds	r5, r6, #1
    10b8:	46ab      	mov	fp, r5
    10ba:	4655      	mov	r5, sl
    10bc:	465c      	mov	r4, fp
    10be:	602c      	str	r4, [r5, #0]
    10c0:	9c03      	ldr	r4, [sp, #12]
    10c2:	55a7      	strb	r7, [r4, r6]
    10c4:	e7e4      	b.n	0x1090
    10c6:	4665      	mov	r5, ip
    10c8:	682d      	ldr	r5, [r5, #0]
    10ca:	46ab      	mov	fp, r5
    10cc:	0056      	lsls	r6, r2, #1
    10ce:	445e      	add	r6, fp
    10d0:	8837      	ldrh	r7, [r6, #0]
    10d2:	3f01      	subs	r7, #1
    10d4:	8037      	strh	r7, [r6, #0]
    10d6:	e7db      	b.n	0x1090
    10d8:	4e06      	ldr	r6, [pc, #24]	; (0x10f4)
    10da:	6836      	ldr	r6, [r6, #0]
    10dc:	0057      	lsls	r7, r2, #1
    10de:	19f6      	adds	r6, r6, r7
    10e0:	8837      	ldrh	r7, [r6, #0]
    10e2:	3701      	adds	r7, #1
    10e4:	8037      	strh	r7, [r6, #0]
    10e6:	e7d3      	b.n	0x1090
    10e8:	3a01      	subs	r2, #1
    10ea:	e7d1      	b.n	0x1090
    10ec:	3201      	adds	r2, #1
    10ee:	e7cf      	b.n	0x1090
    10f0:	0088      	lsls	r0, r1, #2
    10f2:	0300      	lsls	r0, r0, #12
    10f4:	0160      	lsls	r0, r4, #5
    10f6:	0300      	lsls	r0, r0, #12
    10f8:	0164      	lsls	r4, r4, #5
    10fa:	0300      	lsls	r0, r0, #12
    10fc:	51ac      	str	r4, [r5, r6]
    10fe:	0800      	lsrs	r0, r0, #32
    1100:	0fff      	lsrs	r7, r7, #31
    1102:	0000      	movs	r0, r0
    1104:	015c      	lsls	r4, r3, #5
    1106:	0300      	lsls	r0, r0, #12
    1108:	2080      	movs	r0, #128	; 0x80
    110a:	b5f8      	push	{r3, r4, r5, r6, r7, lr}
    110c:	2400      	movs	r4, #0
    110e:	4b1d      	ldr	r3, [pc, #116]	; (0x1184)
    1110:	681b      	ldr	r3, [r3, #0]
    1112:	4d1d      	ldr	r5, [pc, #116]	; (0x1188)
    1114:	681b      	ldr	r3, [r3, #0]
    1116:	01c0      	lsls	r0, r0, #7
    1118:	616b      	str	r3, [r5, #20]
    111a:	606c      	str	r4, [r5, #4]
    111c:	f7ff fe54 	bl	0xdc8
    1120:	60e8      	str	r0, [r5, #12]
    1122:	2080      	movs	r0, #128	; 0x80
    1124:	00c0      	lsls	r0, r0, #3
    1126:	f7ff fe4f 	bl	0xdc8
    112a:	60a8      	str	r0, [r5, #8]
    112c:	2080      	movs	r0, #128	; 0x80
    112e:	0180      	lsls	r0, r0, #6
    1130:	f7ff fe4a 	bl	0xdc8
    1134:	4b15      	ldr	r3, [pc, #84]	; (0x118c)
    1136:	6018      	str	r0, [r3, #0]
    1138:	4b15      	ldr	r3, [pc, #84]	; (0x1190)
    113a:	602b      	str	r3, [r5, #0]
    113c:	696b      	ldr	r3, [r5, #20]
    113e:	1c58      	adds	r0, r3, #1
    1140:	f7ff fe42 	bl	0xdc8
    1144:	6128      	str	r0, [r5, #16]
    1146:	2080      	movs	r0, #128	; 0x80
    1148:	0140      	lsls	r0, r0, #5
    114a:	f7ff fe3d 	bl	0xdc8
    114e:	4b11      	ldr	r3, [pc, #68]	; (0x1194)
    1150:	6018      	str	r0, [r3, #0]
    1152:	4b11      	ldr	r3, [pc, #68]	; (0x1198)
    1154:	2001      	movs	r0, #1
    1156:	601c      	str	r4, [r3, #0]
    1158:	f7ff fe6e 	bl	0xe38
    115c:	696b      	ldr	r3, [r5, #20]
    115e:	2b00      	cmp	r3, #0
    1160:	dd0c      	ble.n	0x117c
    1162:	4f0e      	ldr	r7, [pc, #56]	; (0x119c)
    1164:	f7ff fe70 	bl	0xe48
    1168:	213e      	movs	r1, #62	; 0x3e
    116a:	f003 ff99 	bl	0x50a0
    116e:	692e      	ldr	r6, [r5, #16]
    1170:	5c7b      	ldrb	r3, [r7, r1]
    1172:	5533      	strb	r3, [r6, r4]
    1174:	696b      	ldr	r3, [r5, #20]
    1176:	3401      	adds	r4, #1
    1178:	42a3      	cmp	r3, r4
    117a:	dcf3      	bgt.n	0x1164
    117c:	bcf8      	pop	{r3, r4, r5, r6, r7}
    117e:	bc01      	pop	{r0}
    1180:	4700      	bx	r0
    1182:	46c0      	nop			; (mov r8, r8)
    1184:	0158      	lsls	r0, r3, #5
    1186:	0300      	lsls	r0, r0, #12
    1188:	0088      	lsls	r0, r1, #2
    118a:	0300      	lsls	r0, r0, #12
    118c:	0160      	lsls	r0, r4, #5
    118e:	0300      	lsls	r0, r0, #12
    1190:	5640      	ldrsb	r0, [r0, r1]
    1192:	0800      	lsrs	r0, r0, #32
    1194:	015c      	lsls	r4, r3, #5
    1196:	0300      	lsls	r0, r0, #12
    1198:	0164      	lsls	r4, r4, #5
    119a:	0300      	lsls	r0, r0, #12
    119c:	56f4      	ldrsb	r4, [r6, r3]
    119e:	0800      	lsrs	r0, r0, #32
    11a0:	b510      	push	{r4, lr}
    11a2:	f7ff fe79 	bl	0xe98
    11a6:	f7ff ff27 	bl	0xff8
    11aa:	bc10      	pop	{r4}
    11ac:	bc01      	pop	{r0}
    11ae:	4700      	bx	r0
    11b0:	b570      	push	{r4, r5, r6, lr}
    11b2:	4b0b      	ldr	r3, [pc, #44]	; (0x11e0)
    11b4:	4c0b      	ldr	r4, [pc, #44]	; (0x11e4)
    11b6:	6818      	ldr	r0, [r3, #0]
    11b8:	6823      	ldr	r3, [r4, #0]
    11ba:	18c1      	adds	r1, r0, r3
    11bc:	f7ff fe56 	bl	0xe6c
    11c0:	4a09      	ldr	r2, [pc, #36]	; (0x11e8)
    11c2:	6821      	ldr	r1, [r4, #0]
    11c4:	6952      	ldr	r2, [r2, #20]
    11c6:	0005      	movs	r5, r0
    11c8:	2000      	movs	r0, #0
    11ca:	4291      	cmp	r1, r2
    11cc:	d105      	bne.n	0x11da
    11ce:	4b07      	ldr	r3, [pc, #28]	; (0x11ec)
    11d0:	681b      	ldr	r3, [r3, #0]
    11d2:	68db      	ldr	r3, [r3, #12]
    11d4:	1b5b      	subs	r3, r3, r5
    11d6:	4258      	negs	r0, r3
    11d8:	4158      	adcs	r0, r3
    11da:	bc70      	pop	{r4, r5, r6}
    11dc:	bc02      	pop	{r1}
    11de:	4708      	bx	r1
    11e0:	015c      	lsls	r4, r3, #5
    11e2:	0300      	lsls	r0, r0, #12
    11e4:	0164      	lsls	r4, r4, #5
    11e6:	0300      	lsls	r0, r0, #12
    11e8:	0088      	lsls	r0, r1, #2
    11ea:	0300      	lsls	r0, r0, #12
    11ec:	0158      	lsls	r0, r3, #5
    11ee:	0300      	lsls	r0, r0, #12
    11f0:	b5f8      	push	{r3, r4, r5, r6, r7, lr}
    11f2:	464e      	mov	r6, r9
    11f4:	4657      	mov	r7, sl
    11f6:	4645      	mov	r5, r8
    11f8:	46de      	mov	lr, fp
    11fa:	4b28      	ldr	r3, [pc, #160]	; (0x129c)
    11fc:	0089      	lsls	r1, r1, #2
    11fe:	b5e0      	push	{r5, r6, r7, lr}
    1200:	1846      	adds	r6, r0, r1
    1202:	58f4      	ldr	r4, [r6, r3]
    1204:	2300      	movs	r3, #0
    1206:	0005      	movs	r5, r0
    1208:	0017      	movs	r7, r2
    120a:	4699      	mov	r9, r3
    120c:	1c63      	adds	r3, r4, #1
    120e:	d03c      	beq.n	0x128a
    1210:	4b23      	ldr	r3, [pc, #140]	; (0x12a0)
    1212:	4698      	mov	r8, r3
    1214:	2301      	movs	r3, #1
    1216:	469a      	mov	sl, r3
    1218:	e006      	b.n	0x1228
    121a:	4b22      	ldr	r3, [pc, #136]	; (0x12a4)
    121c:	469c      	mov	ip, r3
    121e:	4464      	add	r4, ip
    1220:	00a4      	lsls	r4, r4, #2
    1222:	5964      	ldr	r4, [r4, r5]
    1224:	1c63      	adds	r3, r4, #1
    1226:	d030      	beq.n	0x128a
    1228:	1c63      	adds	r3, r4, #1
    122a:	011b      	lsls	r3, r3, #4
    122c:	18eb      	adds	r3, r5, r3
    122e:	6859      	ldr	r1, [r3, #4]
    1230:	4643      	mov	r3, r8
    1232:	58f3      	ldr	r3, [r6, r3]
    1234:	1c5a      	adds	r2, r3, #1
    1236:	4b1c      	ldr	r3, [pc, #112]	; (0x12a8)
    1238:	18cb      	adds	r3, r1, r3
    123a:	009b      	lsls	r3, r3, #2
    123c:	18eb      	adds	r3, r5, r3
    123e:	685b      	ldr	r3, [r3, #4]
    1240:	429a      	cmp	r2, r3
    1242:	d1ea      	bne.n	0x121a
    1244:	0123      	lsls	r3, r4, #4
    1246:	469b      	mov	fp, r3
    1248:	18eb      	adds	r3, r5, r3
    124a:	3318      	adds	r3, #24
    124c:	cb05      	ldmia	r3!, {r0, r2}
    124e:	1a82      	subs	r2, r0, r2
    1250:	42ba      	cmp	r2, r7
    1252:	dd00      	ble.n	0x1256
    1254:	003a      	movs	r2, r7
    1256:	68eb      	ldr	r3, [r5, #12]
    1258:	4299      	cmp	r1, r3
    125a:	d005      	beq.n	0x1268
    125c:	2a00      	cmp	r2, #0
    125e:	d0dc      	beq.n	0x121a
    1260:	0028      	movs	r0, r5
    1262:	f7ff ffc5 	bl	0x11f0
    1266:	0002      	movs	r2, r0
    1268:	2a00      	cmp	r2, #0
    126a:	ddd6      	ble.n	0x121a
    126c:	465b      	mov	r3, fp
    126e:	18eb      	adds	r3, r5, r3
    1270:	69d9      	ldr	r1, [r3, #28]
    1272:	1889      	adds	r1, r1, r2
    1274:	61d9      	str	r1, [r3, #28]
    1276:	4653      	mov	r3, sl
    1278:	4063      	eors	r3, r4
    127a:	011b      	lsls	r3, r3, #4
    127c:	18eb      	adds	r3, r5, r3
    127e:	69d9      	ldr	r1, [r3, #28]
    1280:	1a89      	subs	r1, r1, r2
    1282:	61d9      	str	r1, [r3, #28]
    1284:	4491      	add	r9, r2
    1286:	1abf      	subs	r7, r7, r2
    1288:	d1c7      	bne.n	0x121a
    128a:	4648      	mov	r0, r9
    128c:	bc3c      	pop	{r2, r3, r4, r5}
    128e:	4690      	mov	r8, r2
    1290:	4699      	mov	r9, r3
    1292:	46a2      	mov	sl, r4
    1294:	46ab      	mov	fp, r5
    1296:	bcf8      	pop	{r3, r4, r5, r6, r7}
    1298:	bc02      	pop	{r1}
    129a:	4708      	bx	r1
    129c:	3124      	adds	r1, #36	; 0x24
    129e:	000a      	movs	r2, r1
    12a0:	2d1c      	cmp	r5, #28
    12a2:	000a      	movs	r2, r1
    12a4:	0906      	lsrs	r6, r0, #4
    12a6:	0002      	movs	r2, r0
    12a8:	8b46      	ldrh	r6, [r0, #26]
    12aa:	0002      	movs	r2, r0
    12ac:	4b7b      	ldr	r3, [pc, #492]	; (0x149c)
    12ae:	b5f0      	push	{r4, r5, r6, r7, lr}
    12b0:	4645      	mov	r5, r8
    12b2:	4698      	mov	r8, r3
    12b4:	46de      	mov	lr, fp
    12b6:	4657      	mov	r7, sl
    12b8:	464e      	mov	r6, r9
    12ba:	4642      	mov	r2, r8
    12bc:	b5e0      	push	{r5, r6, r7, lr}
    12be:	4b78      	ldr	r3, [pc, #480]	; (0x14a0)
    12c0:	681b      	ldr	r3, [r3, #0]
    12c2:	681b      	ldr	r3, [r3, #0]
    12c4:	b083      	sub	sp, #12
    12c6:	2001      	movs	r0, #1
    12c8:	6013      	str	r3, [r2, #0]
    12ca:	f7ff fdb5 	bl	0xe38
    12ce:	4643      	mov	r3, r8
    12d0:	681b      	ldr	r3, [r3, #0]
    12d2:	005b      	lsls	r3, r3, #1
    12d4:	9300      	str	r3, [sp, #0]
    12d6:	4873      	ldr	r0, [pc, #460]	; (0x14a4)
    12d8:	3301      	adds	r3, #1
    12da:	9301      	str	r3, [sp, #4]
    12dc:	f7ff fd74 	bl	0xdc8
    12e0:	4643      	mov	r3, r8
    12e2:	681c      	ldr	r4, [r3, #0]
    12e4:	1c62      	adds	r2, r4, #1
    12e6:	6058      	str	r0, [r3, #4]
    12e8:	0053      	lsls	r3, r2, #1
    12ea:	6003      	str	r3, [r0, #0]
    12ec:	2b00      	cmp	r3, #0
    12ee:	dd0b      	ble.n	0x1308
    12f0:	496d      	ldr	r1, [pc, #436]	; (0x14a8)
    12f2:	468c      	mov	ip, r1
    12f4:	2101      	movs	r1, #1
    12f6:	4b6c      	ldr	r3, [pc, #432]	; (0x14a8)
    12f8:	00d2      	lsls	r2, r2, #3
    12fa:	4462      	add	r2, ip
    12fc:	18c3      	adds	r3, r0, r3
    12fe:	1882      	adds	r2, r0, r2
    1300:	4249      	negs	r1, r1
    1302:	c302      	stmia	r3!, {r1}
    1304:	4293      	cmp	r3, r2
    1306:	d1fc      	bne.n	0x1302
    1308:	2300      	movs	r3, #0
    130a:	6043      	str	r3, [r0, #4]
    130c:	2c00      	cmp	r4, #0
    130e:	dc00      	bgt.n	0x1312
    1310:	e0ba      	b.n	0x1488
    1312:	469a      	mov	sl, r3
    1314:	4699      	mov	r9, r3
    1316:	4f64      	ldr	r7, [pc, #400]	; (0x14a8)
    1318:	4653      	mov	r3, sl
    131a:	009b      	lsls	r3, r3, #2
    131c:	2600      	movs	r6, #0
    131e:	469b      	mov	fp, r3
    1320:	4643      	mov	r3, r8
    1322:	685d      	ldr	r5, [r3, #4]
    1324:	f7ff fd90 	bl	0xe48
    1328:	210a      	movs	r1, #10
    132a:	f003 feb9 	bl	0x50a0
    132e:	2900      	cmp	r1, #0
    1330:	d029      	beq.n	0x1386
    1332:	4652      	mov	r2, sl
    1334:	686b      	ldr	r3, [r5, #4]
    1336:	3301      	adds	r3, #1
    1338:	011b      	lsls	r3, r3, #4
    133a:	18eb      	adds	r3, r5, r3
    133c:	601a      	str	r2, [r3, #0]
    133e:	464a      	mov	r2, r9
    1340:	60da      	str	r2, [r3, #12]
    1342:	465a      	mov	r2, fp
    1344:	19a4      	adds	r4, r4, r6
    1346:	605c      	str	r4, [r3, #4]
    1348:	6099      	str	r1, [r3, #8]
    134a:	4858      	ldr	r0, [pc, #352]	; (0x14ac)
    134c:	686b      	ldr	r3, [r5, #4]
    134e:	18a9      	adds	r1, r5, r2
    1350:	181a      	adds	r2, r3, r0
    1352:	59c8      	ldr	r0, [r1, r7]
    1354:	0092      	lsls	r2, r2, #2
    1356:	5150      	str	r0, [r2, r5]
    1358:	1c5a      	adds	r2, r3, #1
    135a:	606a      	str	r2, [r5, #4]
    135c:	4652      	mov	r2, sl
    135e:	51cb      	str	r3, [r1, r7]
    1360:	3302      	adds	r3, #2
    1362:	011b      	lsls	r3, r3, #4
    1364:	18eb      	adds	r3, r5, r3
    1366:	605a      	str	r2, [r3, #4]
    1368:	464a      	mov	r2, r9
    136a:	601c      	str	r4, [r3, #0]
    136c:	609a      	str	r2, [r3, #8]
    136e:	60da      	str	r2, [r3, #12]
    1370:	00a4      	lsls	r4, r4, #2
    1372:	686b      	ldr	r3, [r5, #4]
    1374:	484d      	ldr	r0, [pc, #308]	; (0x14ac)
    1376:	192c      	adds	r4, r5, r4
    1378:	59e1      	ldr	r1, [r4, r7]
    137a:	181a      	adds	r2, r3, r0
    137c:	0092      	lsls	r2, r2, #2
    137e:	5151      	str	r1, [r2, r5]
    1380:	1c5a      	adds	r2, r3, #1
    1382:	606a      	str	r2, [r5, #4]
    1384:	51e3      	str	r3, [r4, r7]
    1386:	4643      	mov	r3, r8
    1388:	681c      	ldr	r4, [r3, #0]
    138a:	3601      	adds	r6, #1
    138c:	42b4      	cmp	r4, r6
    138e:	dcc7      	bgt.n	0x1320
    1390:	2301      	movs	r3, #1
    1392:	469c      	mov	ip, r3
    1394:	44e2      	add	sl, ip
    1396:	4554      	cmp	r4, sl
    1398:	dcbe      	bgt.n	0x1318
    139a:	2c00      	cmp	r4, #0
    139c:	dd74      	ble.n	0x1488
    139e:	9b00      	ldr	r3, [sp, #0]
    13a0:	009b      	lsls	r3, r3, #2
    13a2:	2500      	movs	r5, #0
    13a4:	2600      	movs	r6, #0
    13a6:	469a      	mov	sl, r3
    13a8:	4643      	mov	r3, r8
    13aa:	685c      	ldr	r4, [r3, #4]
    13ac:	f7ff fd4c 	bl	0xe48
    13b0:	21fa      	movs	r1, #250	; 0xfa
    13b2:	0089      	lsls	r1, r1, #2
    13b4:	f003 fe74 	bl	0x50a0
    13b8:	2900      	cmp	r1, #0
    13ba:	d027      	beq.n	0x140c
    13bc:	6863      	ldr	r3, [r4, #4]
    13be:	3301      	adds	r3, #1
    13c0:	9a00      	ldr	r2, [sp, #0]
    13c2:	011b      	lsls	r3, r3, #4
    13c4:	18e3      	adds	r3, r4, r3
    13c6:	601a      	str	r2, [r3, #0]
    13c8:	4652      	mov	r2, sl
    13ca:	6099      	str	r1, [r3, #8]
    13cc:	605d      	str	r5, [r3, #4]
    13ce:	60de      	str	r6, [r3, #12]
    13d0:	18a0      	adds	r0, r4, r2
    13d2:	6863      	ldr	r3, [r4, #4]
    13d4:	4a34      	ldr	r2, [pc, #208]	; (0x14a8)
    13d6:	4935      	ldr	r1, [pc, #212]	; (0x14ac)
    13d8:	5887      	ldr	r7, [r0, r2]
    13da:	1859      	adds	r1, r3, r1
    13dc:	0089      	lsls	r1, r1, #2
    13de:	510f      	str	r7, [r1, r4]
    13e0:	1c59      	adds	r1, r3, #1
    13e2:	6061      	str	r1, [r4, #4]
    13e4:	5083      	str	r3, [r0, r2]
    13e6:	3302      	adds	r3, #2
    13e8:	9900      	ldr	r1, [sp, #0]
    13ea:	011b      	lsls	r3, r3, #4
    13ec:	18e3      	adds	r3, r4, r3
    13ee:	601d      	str	r5, [r3, #0]
    13f0:	6059      	str	r1, [r3, #4]
    13f2:	609e      	str	r6, [r3, #8]
    13f4:	60de      	str	r6, [r3, #12]
    13f6:	482d      	ldr	r0, [pc, #180]	; (0x14ac)
    13f8:	6861      	ldr	r1, [r4, #4]
    13fa:	00ab      	lsls	r3, r5, #2
    13fc:	18e3      	adds	r3, r4, r3
    13fe:	589f      	ldr	r7, [r3, r2]
    1400:	1808      	adds	r0, r1, r0
    1402:	0080      	lsls	r0, r0, #2
    1404:	5107      	str	r7, [r0, r4]
    1406:	1c48      	adds	r0, r1, #1
    1408:	6060      	str	r0, [r4, #4]
    140a:	5099      	str	r1, [r3, r2]
    140c:	4643      	mov	r3, r8
    140e:	685c      	ldr	r4, [r3, #4]
    1410:	681b      	ldr	r3, [r3, #0]
    1412:	4699      	mov	r9, r3
    1414:	f7ff fd18 	bl	0xe48
    1418:	21fa      	movs	r1, #250	; 0xfa
    141a:	0089      	lsls	r1, r1, #2
    141c:	f003 fe40 	bl	0x50a0
    1420:	2900      	cmp	r1, #0
    1422:	d02c      	beq.n	0x147e
    1424:	464b      	mov	r3, r9
    1426:	4f20      	ldr	r7, [pc, #128]	; (0x14a8)
    1428:	46bc      	mov	ip, r7
    142a:	195a      	adds	r2, r3, r5
    142c:	6863      	ldr	r3, [r4, #4]
    142e:	3301      	adds	r3, #1
    1430:	9801      	ldr	r0, [sp, #4]
    1432:	011b      	lsls	r3, r3, #4
    1434:	18e3      	adds	r3, r4, r3
    1436:	601a      	str	r2, [r3, #0]
    1438:	6058      	str	r0, [r3, #4]
    143a:	6099      	str	r1, [r3, #8]
    143c:	60de      	str	r6, [r3, #12]
    143e:	0091      	lsls	r1, r2, #2
    1440:	6863      	ldr	r3, [r4, #4]
    1442:	481a      	ldr	r0, [pc, #104]	; (0x14ac)
    1444:	1861      	adds	r1, r4, r1
    1446:	59cf      	ldr	r7, [r1, r7]
    1448:	1818      	adds	r0, r3, r0
    144a:	0080      	lsls	r0, r0, #2
    144c:	5107      	str	r7, [r0, r4]
    144e:	4667      	mov	r7, ip
    1450:	1c58      	adds	r0, r3, #1
    1452:	6060      	str	r0, [r4, #4]
    1454:	51cb      	str	r3, [r1, r7]
    1456:	3302      	adds	r3, #2
    1458:	011b      	lsls	r3, r3, #4
    145a:	18e3      	adds	r3, r4, r3
    145c:	605a      	str	r2, [r3, #4]
    145e:	4652      	mov	r2, sl
    1460:	9801      	ldr	r0, [sp, #4]
    1462:	609e      	str	r6, [r3, #8]
    1464:	6018      	str	r0, [r3, #0]
    1466:	60de      	str	r6, [r3, #12]
    1468:	18a0      	adds	r0, r4, r2
    146a:	6863      	ldr	r3, [r4, #4]
    146c:	4910      	ldr	r1, [pc, #64]	; (0x14b0)
    146e:	4a0f      	ldr	r2, [pc, #60]	; (0x14ac)
    1470:	5847      	ldr	r7, [r0, r1]
    1472:	189a      	adds	r2, r3, r2
    1474:	0092      	lsls	r2, r2, #2
    1476:	5117      	str	r7, [r2, r4]
    1478:	1c5a      	adds	r2, r3, #1
    147a:	6062      	str	r2, [r4, #4]
    147c:	5043      	str	r3, [r0, r1]
    147e:	4643      	mov	r3, r8
    1480:	681b      	ldr	r3, [r3, #0]
    1482:	3501      	adds	r5, #1
    1484:	42ab      	cmp	r3, r5
    1486:	dc8f      	bgt.n	0x13a8
    1488:	b003      	add	sp, #12
    148a:	bc3c      	pop	{r2, r3, r4, r5}
    148c:	4690      	mov	r8, r2
    148e:	4699      	mov	r9, r3
    1490:	46a2      	mov	sl, r4
    1492:	46ab      	mov	fp, r5
    1494:	bcf0      	pop	{r4, r5, r6, r7}
    1496:	bc01      	pop	{r0}
    1498:	4700      	bx	r0
    149a:	46c0      	nop			; (mov r8, r8)
    149c:	00a0      	lsls	r0, r4, #2
    149e:	0300      	lsls	r0, r0, #12
    14a0:	0158      	lsls	r0, r3, #5
    14a2:	0300      	lsls	r0, r0, #12
    14a4:	3934      	subs	r1, #52	; 0x34
    14a6:	000a      	movs	r2, r1
    14a8:	2010      	movs	r0, #16
    14aa:	0008      	movs	r0, r1
    14ac:	0906      	lsrs	r6, r0, #4
    14ae:	0002      	movs	r2, r0
    14b0:	2014      	movs	r0, #20
    14b2:	0008      	movs	r0, r1
    14b4:	b5f0      	push	{r4, r5, r6, r7, lr}
    14b6:	4645      	mov	r5, r8
    14b8:	46de      	mov	lr, fp
    14ba:	4657      	mov	r7, sl
    14bc:	464e      	mov	r6, r9
    14be:	4b8c      	ldr	r3, [pc, #560]	; (0x16f0)
    14c0:	685c      	ldr	r4, [r3, #4]
    14c2:	469b      	mov	fp, r3
    14c4:	681b      	ldr	r3, [r3, #0]
    14c6:	005b      	lsls	r3, r3, #1
    14c8:	b5e0      	push	{r5, r6, r7, lr}
    14ca:	469a      	mov	sl, r3
    14cc:	1c5d      	adds	r5, r3, #1
    14ce:	60a3      	str	r3, [r4, #8]
    14d0:	6823      	ldr	r3, [r4, #0]
    14d2:	469c      	mov	ip, r3
    14d4:	2300      	movs	r3, #0
    14d6:	b08b      	sub	sp, #44	; 0x2c
    14d8:	9301      	str	r3, [sp, #4]
    14da:	4b86      	ldr	r3, [pc, #536]	; (0x16f4)
    14dc:	4453      	add	r3, sl
    14de:	9303      	str	r3, [sp, #12]
    14e0:	0023      	movs	r3, r4
    14e2:	4453      	add	r3, sl
    14e4:	9304      	str	r3, [sp, #16]
    14e6:	4b84      	ldr	r3, [pc, #528]	; (0x16f8)
    14e8:	4698      	mov	r8, r3
    14ea:	44a0      	add	r8, r4
    14ec:	4643      	mov	r3, r8
    14ee:	4652      	mov	r2, sl
    14f0:	4660      	mov	r0, ip
    14f2:	9307      	str	r3, [sp, #28]
    14f4:	1963      	adds	r3, r4, r5
    14f6:	60e5      	str	r5, [r4, #12]
    14f8:	9302      	str	r3, [sp, #8]
    14fa:	4b80      	ldr	r3, [pc, #512]	; (0x16fc)
    14fc:	18e3      	adds	r3, r4, r3
    14fe:	1819      	adds	r1, r3, r0
    1500:	2800      	cmp	r0, #0
    1502:	dd04      	ble.n	0x150e
    1504:	2600      	movs	r6, #0
    1506:	701e      	strb	r6, [r3, #0]
    1508:	3301      	adds	r3, #1
    150a:	428b      	cmp	r3, r1
    150c:	d1fa      	bne.n	0x1504
    150e:	2100      	movs	r1, #0
    1510:	4b7b      	ldr	r3, [pc, #492]	; (0x1700)
    1512:	50e2      	str	r2, [r4, r3]
    1514:	9b03      	ldr	r3, [sp, #12]
    1516:	009b      	lsls	r3, r3, #2
    1518:	18e3      	adds	r3, r4, r3
    151a:	6059      	str	r1, [r3, #4]
    151c:	4977      	ldr	r1, [pc, #476]	; (0x16fc)
    151e:	468c      	mov	ip, r1
    1520:	2101      	movs	r1, #1
    1522:	9b04      	ldr	r3, [sp, #16]
    1524:	4463      	add	r3, ip
    1526:	7019      	strb	r1, [r3, #0]
    1528:	9b07      	ldr	r3, [sp, #28]
    152a:	4698      	mov	r8, r3
    152c:	2300      	movs	r3, #0
    152e:	9508      	str	r5, [sp, #32]
    1530:	0011      	movs	r1, r2
    1532:	2601      	movs	r6, #1
    1534:	001d      	movs	r5, r3
    1536:	4694      	mov	ip, r2
    1538:	4681      	mov	r9, r0
    153a:	0089      	lsls	r1, r1, #2
    153c:	4a71      	ldr	r2, [pc, #452]	; (0x1704)
    153e:	1863      	adds	r3, r4, r1
    1540:	9305      	str	r3, [sp, #20]
    1542:	589b      	ldr	r3, [r3, r2]
    1544:	3501      	adds	r5, #1
    1546:	1c5a      	adds	r2, r3, #1
    1548:	d02d      	beq.n	0x15a6
    154a:	4662      	mov	r2, ip
    154c:	9209      	str	r2, [sp, #36]	; 0x24
    154e:	486b      	ldr	r0, [pc, #428]	; (0x16fc)
    1550:	4684      	mov	ip, r0
    1552:	1c5a      	adds	r2, r3, #1
    1554:	0112      	lsls	r2, r2, #4
    1556:	18a2      	adds	r2, r4, r2
    1558:	6851      	ldr	r1, [r2, #4]
    155a:	1862      	adds	r2, r4, r1
    155c:	4462      	add	r2, ip
    155e:	7810      	ldrb	r0, [r2, #0]
    1560:	2800      	cmp	r0, #0
    1562:	d117      	bne.n	0x1594
    1564:	0118      	lsls	r0, r3, #4
    1566:	1820      	adds	r0, r4, r0
    1568:	6987      	ldr	r7, [r0, #24]
    156a:	69c0      	ldr	r0, [r0, #28]
    156c:	4287      	cmp	r7, r0
    156e:	dd11      	ble.n	0x1594
    1570:	2001      	movs	r0, #1
    1572:	4f65      	ldr	r7, [pc, #404]	; (0x1708)
    1574:	7010      	strb	r0, [r2, #0]
    1576:	4a5f      	ldr	r2, [pc, #380]	; (0x16f4)
    1578:	9805      	ldr	r0, [sp, #20]
    157a:	188a      	adds	r2, r1, r2
    157c:	59c0      	ldr	r0, [r0, r7]
    157e:	0092      	lsls	r2, r2, #2
    1580:	18a2      	adds	r2, r4, r2
    1582:	9006      	str	r0, [sp, #24]
    1584:	3001      	adds	r0, #1
    1586:	6050      	str	r0, [r2, #4]
    1588:	4a60      	ldr	r2, [pc, #384]	; (0x170c)
    158a:	18b2      	adds	r2, r6, r2
    158c:	0092      	lsls	r2, r2, #2
    158e:	18a2      	adds	r2, r4, r2
    1590:	6051      	str	r1, [r2, #4]
    1592:	3601      	adds	r6, #1
    1594:	4a5e      	ldr	r2, [pc, #376]	; (0x1710)
    1596:	4694      	mov	ip, r2
    1598:	4463      	add	r3, ip
    159a:	009b      	lsls	r3, r3, #2
    159c:	591b      	ldr	r3, [r3, r4]
    159e:	1c5a      	adds	r2, r3, #1
    15a0:	d1d5      	bne.n	0x154e
    15a2:	9b09      	ldr	r3, [sp, #36]	; 0x24
    15a4:	469c      	mov	ip, r3
    15a6:	42b5      	cmp	r5, r6
    15a8:	d003      	beq.n	0x15b2
    15aa:	4643      	mov	r3, r8
    15ac:	cb02      	ldmia	r3!, {r1}
    15ae:	4698      	mov	r8, r3
    15b0:	e7c3      	b.n	0x153a
    15b2:	4952      	ldr	r1, [pc, #328]	; (0x16fc)
    15b4:	4662      	mov	r2, ip
    15b6:	468c      	mov	ip, r1
    15b8:	9b02      	ldr	r3, [sp, #8]
    15ba:	4463      	add	r3, ip
    15bc:	781b      	ldrb	r3, [r3, #0]
    15be:	9d08      	ldr	r5, [sp, #32]
    15c0:	4648      	mov	r0, r9
    15c2:	2b00      	cmp	r3, #0
    15c4:	d06d      	beq.n	0x16a2
    15c6:	2800      	cmp	r0, #0
    15c8:	dd0c      	ble.n	0x15e4
    15ca:	2300      	movs	r3, #0
    15cc:	4694      	mov	ip, r2
    15ce:	494d      	ldr	r1, [pc, #308]	; (0x1704)
    15d0:	1866      	adds	r6, r4, r1
    15d2:	4950      	ldr	r1, [pc, #320]	; (0x1714)
    15d4:	0087      	lsls	r7, r0, #2
    15d6:	1861      	adds	r1, r4, r1
    15d8:	58f2      	ldr	r2, [r6, r3]
    15da:	50ca      	str	r2, [r1, r3]
    15dc:	3304      	adds	r3, #4
    15de:	42bb      	cmp	r3, r7
    15e0:	d1fa      	bne.n	0x15d8
    15e2:	4662      	mov	r2, ip
    15e4:	45aa      	cmp	sl, r5
    15e6:	d068      	beq.n	0x16ba
    15e8:	4653      	mov	r3, sl
    15ea:	009b      	lsls	r3, r3, #2
    15ec:	4698      	mov	r8, r3
    15ee:	44a0      	add	r8, r4
    15f0:	4641      	mov	r1, r8
    15f2:	4b48      	ldr	r3, [pc, #288]	; (0x1714)
    15f4:	58ce      	ldr	r6, [r1, r3]
    15f6:	1c73      	adds	r3, r6, #1
    15f8:	d100      	bne.n	0x15fc
    15fa:	e77e      	b.n	0x14fa
    15fc:	2300      	movs	r3, #0
    15fe:	4f46      	ldr	r7, [pc, #280]	; (0x1718)
    1600:	4699      	mov	r9, r3
    1602:	0028      	movs	r0, r5
    1604:	e006      	b.n	0x1614
    1606:	4b42      	ldr	r3, [pc, #264]	; (0x1710)
    1608:	469c      	mov	ip, r3
    160a:	4466      	add	r6, ip
    160c:	00b6      	lsls	r6, r6, #2
    160e:	5936      	ldr	r6, [r6, r4]
    1610:	1c73      	adds	r3, r6, #1
    1612:	d032      	beq.n	0x167a
    1614:	1c73      	adds	r3, r6, #1
    1616:	011b      	lsls	r3, r3, #4
    1618:	18e3      	adds	r3, r4, r3
    161a:	6859      	ldr	r1, [r3, #4]
    161c:	4643      	mov	r3, r8
    161e:	4a3a      	ldr	r2, [pc, #232]	; (0x1708)
    1620:	589b      	ldr	r3, [r3, r2]
    1622:	9302      	str	r3, [sp, #8]
    1624:	1c5a      	adds	r2, r3, #1
    1626:	4b33      	ldr	r3, [pc, #204]	; (0x16f4)
    1628:	18cb      	adds	r3, r1, r3
    162a:	009b      	lsls	r3, r3, #2
    162c:	18e3      	adds	r3, r4, r3
    162e:	685b      	ldr	r3, [r3, #4]
    1630:	429a      	cmp	r2, r3
    1632:	d1e8      	bne.n	0x1606
    1634:	231c      	movs	r3, #28
    1636:	469c      	mov	ip, r3
    1638:	0135      	lsls	r5, r6, #4
    163a:	1962      	adds	r2, r4, r5
    163c:	69d3      	ldr	r3, [r2, #28]
    163e:	4494      	add	ip, r2
    1640:	6992      	ldr	r2, [r2, #24]
    1642:	1ad2      	subs	r2, r2, r3
    1644:	42ba      	cmp	r2, r7
    1646:	dc28      	bgt.n	0x169a
    1648:	4281      	cmp	r1, r0
    164a:	d005      	beq.n	0x1658
    164c:	2a00      	cmp	r2, #0
    164e:	d0da      	beq.n	0x1606
    1650:	0020      	movs	r0, r4
    1652:	f7ff fdcd 	bl	0x11f0
    1656:	0002      	movs	r2, r0
    1658:	2a00      	cmp	r2, #0
    165a:	dd34      	ble.n	0x16c6
    165c:	1965      	adds	r5, r4, r5
    165e:	69eb      	ldr	r3, [r5, #28]
    1660:	189b      	adds	r3, r3, r2
    1662:	61eb      	str	r3, [r5, #28]
    1664:	2301      	movs	r3, #1
    1666:	4073      	eors	r3, r6
    1668:	011b      	lsls	r3, r3, #4
    166a:	18e3      	adds	r3, r4, r3
    166c:	69d9      	ldr	r1, [r3, #28]
    166e:	1a89      	subs	r1, r1, r2
    1670:	61d9      	str	r1, [r3, #28]
    1672:	4491      	add	r9, r2
    1674:	1abf      	subs	r7, r7, r2
    1676:	68e0      	ldr	r0, [r4, #12]
    1678:	d1c5      	bne.n	0x1606
    167a:	0005      	movs	r5, r0
    167c:	9b01      	ldr	r3, [sp, #4]
    167e:	444b      	add	r3, r9
    1680:	9301      	str	r3, [sp, #4]
    1682:	4b1c      	ldr	r3, [pc, #112]	; (0x16f4)
    1684:	469c      	mov	ip, r3
    1686:	68a2      	ldr	r2, [r4, #8]
    1688:	4494      	add	ip, r2
    168a:	4663      	mov	r3, ip
    168c:	9303      	str	r3, [sp, #12]
    168e:	18a3      	adds	r3, r4, r2
    1690:	9304      	str	r3, [sp, #16]
    1692:	1963      	adds	r3, r4, r5
    1694:	6820      	ldr	r0, [r4, #0]
    1696:	9302      	str	r3, [sp, #8]
    1698:	e72f      	b.n	0x14fa
    169a:	4281      	cmp	r1, r0
    169c:	d015      	beq.n	0x16ca
    169e:	003a      	movs	r2, r7
    16a0:	e7d6      	b.n	0x1650
    16a2:	465b      	mov	r3, fp
    16a4:	9a01      	ldr	r2, [sp, #4]
    16a6:	609a      	str	r2, [r3, #8]
    16a8:	b00b      	add	sp, #44	; 0x2c
    16aa:	bc3c      	pop	{r2, r3, r4, r5}
    16ac:	4690      	mov	r8, r2
    16ae:	4699      	mov	r9, r3
    16b0:	46a2      	mov	sl, r4
    16b2:	46ab      	mov	fp, r5
    16b4:	bcf0      	pop	{r4, r5, r6, r7}
    16b6:	bc01      	pop	{r0}
    16b8:	4700      	bx	r0
    16ba:	4917      	ldr	r1, [pc, #92]	; (0x1718)
    16bc:	468c      	mov	ip, r1
    16be:	9b01      	ldr	r3, [sp, #4]
    16c0:	4463      	add	r3, ip
    16c2:	9301      	str	r3, [sp, #4]
    16c4:	e719      	b.n	0x14fa
    16c6:	68e0      	ldr	r0, [r4, #12]
    16c8:	e79d      	b.n	0x1606
    16ca:	2f00      	cmp	r7, #0
    16cc:	dd9b      	ble.n	0x1606
    16ce:	0005      	movs	r5, r0
    16d0:	4660      	mov	r0, ip
    16d2:	19db      	adds	r3, r3, r7
    16d4:	6003      	str	r3, [r0, #0]
    16d6:	2301      	movs	r3, #1
    16d8:	405e      	eors	r6, r3
    16da:	0136      	lsls	r6, r6, #4
    16dc:	19a6      	adds	r6, r4, r6
    16de:	69f3      	ldr	r3, [r6, #28]
    16e0:	1bdb      	subs	r3, r3, r7
    16e2:	61f3      	str	r3, [r6, #28]
    16e4:	9b01      	ldr	r3, [sp, #4]
    16e6:	469c      	mov	ip, r3
    16e8:	444f      	add	r7, r9
    16ea:	44bc      	add	ip, r7
    16ec:	4663      	mov	r3, ip
    16ee:	e7c7      	b.n	0x1680
    16f0:	00a0      	lsls	r0, r4, #2
    16f2:	0300      	lsls	r0, r0, #12
    16f4:	8b46      	ldrh	r6, [r0, #26]
    16f6:	0002      	movs	r2, r0
    16f8:	3530      	adds	r5, #48	; 0x30
    16fa:	000a      	movs	r2, r1
    16fc:	2c18      	cmp	r4, #24
    16fe:	000a      	movs	r2, r1
    1700:	352c      	adds	r5, #44	; 0x2c
    1702:	000a      	movs	r2, r1
    1704:	2010      	movs	r0, #16
    1706:	0008      	movs	r0, r1
    1708:	2d1c      	cmp	r5, #28
    170a:	000a      	movs	r2, r1
    170c:	8d4a      	ldrh	r2, [r1, #42]	; 0x2a
    170e:	0002      	movs	r2, r0
    1710:	0906      	lsrs	r6, r0, #4
    1712:	0002      	movs	r2, r0
    1714:	3124      	adds	r1, #36	; 0x24
    1716:	000a      	movs	r2, r1
    1718:	3f3f      	subs	r7, #63	; 0x3f
    171a:	003f      	movs	r7, r7
    171c:	4b04      	ldr	r3, [pc, #16]	; (0x1730)
    171e:	681b      	ldr	r3, [r3, #0]
    1720:	68d8      	ldr	r0, [r3, #12]
    1722:	4b04      	ldr	r3, [pc, #16]	; (0x1734)
    1724:	689b      	ldr	r3, [r3, #8]
    1726:	1ac0      	subs	r0, r0, r3
    1728:	4243      	negs	r3, r0
    172a:	4158      	adcs	r0, r3
    172c:	4770      	bx	lr
    172e:	46c0      	nop			; (mov r8, r8)
    1730:	0158      	lsls	r0, r3, #5
    1732:	0300      	lsls	r0, r0, #12
    1734:	00a0      	lsls	r0, r4, #2
    1736:	0300      	lsls	r0, r0, #12
    1738:	4b0d      	ldr	r3, [pc, #52]	; (0x1770)
    173a:	681b      	ldr	r3, [r3, #0]
    173c:	b570      	push	{r4, r5, r6, lr}
    173e:	681c      	ldr	r4, [r3, #0]
    1740:	0023      	movs	r3, r4
    1742:	4363      	muls	r3, r4
    1744:	4d0b      	ldr	r5, [pc, #44]	; (0x1774)
    1746:	602c      	str	r4, [r5, #0]
    1748:	009c      	lsls	r4, r3, #2
    174a:	0020      	movs	r0, r4
    174c:	f7ff fb3c 	bl	0xdc8
    1750:	6068      	str	r0, [r5, #4]
    1752:	0020      	movs	r0, r4
    1754:	f7ff fb38 	bl	0xdc8
    1758:	60a8      	str	r0, [r5, #8]
    175a:	0020      	movs	r0, r4
    175c:	f7ff fb34 	bl	0xdc8
    1760:	60e8      	str	r0, [r5, #12]
    1762:	0020      	movs	r0, r4
    1764:	f7ff fb30 	bl	0xdc8
    1768:	6128      	str	r0, [r5, #16]
    176a:	bc70      	pop	{r4, r5, r6}
    176c:	bc01      	pop	{r0}
    176e:	4700      	bx	r0
    1770:	0158      	lsls	r0, r3, #5
    1772:	0300      	lsls	r0, r0, #12
    1774:	00ac      	lsls	r4, r5, #2
    1776:	0300      	lsls	r0, r0, #12
    1778:	b5f0      	push	{r4, r5, r6, r7, lr}
    177a:	4b80      	ldr	r3, [pc, #512]	; (0x197c)
    177c:	46de      	mov	lr, fp
    177e:	464e      	mov	r6, r9
    1780:	4645      	mov	r5, r8
    1782:	4657      	mov	r7, sl
    1784:	4699      	mov	r9, r3
    1786:	b5e0      	push	{r5, r6, r7, lr}
    1788:	681d      	ldr	r5, [r3, #0]
    178a:	689b      	ldr	r3, [r3, #8]
    178c:	469b      	mov	fp, r3
    178e:	464b      	mov	r3, r9
    1790:	68db      	ldr	r3, [r3, #12]
    1792:	b08d      	sub	sp, #52	; 0x34
    1794:	9308      	str	r3, [sp, #32]
    1796:	2d00      	cmp	r5, #0
    1798:	dc00      	bgt.n	0x179c
    179a:	e0eb      	b.n	0x1974
    179c:	464b      	mov	r3, r9
    179e:	685f      	ldr	r7, [r3, #4]
    17a0:	00ab      	lsls	r3, r5, #2
    17a2:	469c      	mov	ip, r3
    17a4:	2300      	movs	r3, #0
    17a6:	4698      	mov	r8, r3
    17a8:	4663      	mov	r3, ip
    17aa:	9302      	str	r3, [sp, #8]
    17ac:	9b08      	ldr	r3, [sp, #32]
    17ae:	1e6e      	subs	r6, r5, #1
    17b0:	46b2      	mov	sl, r6
    17b2:	2000      	movs	r0, #0
    17b4:	2400      	movs	r4, #0
    17b6:	465e      	mov	r6, fp
    17b8:	469c      	mov	ip, r3
    17ba:	4661      	mov	r1, ip
    17bc:	3401      	adds	r4, #1
    17be:	4643      	mov	r3, r8
    17c0:	2200      	movs	r2, #0
    17c2:	46a4      	mov	ip, r4
    17c4:	9101      	str	r1, [sp, #4]
    17c6:	e010      	b.n	0x17ea
    17c8:	4661      	mov	r1, ip
    17ca:	1a51      	subs	r1, r2, r1
    17cc:	424c      	negs	r4, r1
    17ce:	414c      	adcs	r4, r1
    17d0:	0021      	movs	r1, r4
    17d2:	50f9      	str	r1, [r7, r3]
    17d4:	50f1      	str	r1, [r6, r3]
    17d6:	1a11      	subs	r1, r2, r0
    17d8:	424c      	negs	r4, r1
    17da:	414c      	adcs	r4, r1
    17dc:	0021      	movs	r1, r4
    17de:	9c01      	ldr	r4, [sp, #4]
    17e0:	3201      	adds	r2, #1
    17e2:	50e1      	str	r1, [r4, r3]
    17e4:	3304      	adds	r3, #4
    17e6:	42aa      	cmp	r2, r5
    17e8:	d003      	beq.n	0x17f2
    17ea:	4582      	cmp	sl, r0
    17ec:	d1ec      	bne.n	0x17c8
    17ee:	2101      	movs	r1, #1
    17f0:	e7ef      	b.n	0x17d2
    17f2:	0023      	movs	r3, r4
    17f4:	4664      	mov	r4, ip
    17f6:	469c      	mov	ip, r3
    17f8:	9b02      	ldr	r3, [sp, #8]
    17fa:	469b      	mov	fp, r3
    17fc:	3001      	adds	r0, #1
    17fe:	44d8      	add	r8, fp
    1800:	42a5      	cmp	r5, r4
    1802:	d1da      	bne.n	0x17ba
    1804:	46b3      	mov	fp, r6
    1806:	469c      	mov	ip, r3
    1808:	464b      	mov	r3, r9
    180a:	691b      	ldr	r3, [r3, #16]
    180c:	469a      	mov	sl, r3
    180e:	4463      	add	r3, ip
    1810:	930b      	str	r3, [sp, #44]	; 0x2c
    1812:	9b08      	ldr	r3, [sp, #32]
    1814:	4463      	add	r3, ip
    1816:	930a      	str	r3, [sp, #40]	; 0x28
    1818:	00ab      	lsls	r3, r5, #2
    181a:	425b      	negs	r3, r3
    181c:	9306      	str	r3, [sp, #24]
    181e:	231f      	movs	r3, #31
    1820:	9304      	str	r3, [sp, #16]
    1822:	4b57      	ldr	r3, [pc, #348]	; (0x1980)
    1824:	9303      	str	r3, [sp, #12]
    1826:	00eb      	lsls	r3, r5, #3
    1828:	425b      	negs	r3, r3
    182a:	9309      	str	r3, [sp, #36]	; 0x24
    182c:	4653      	mov	r3, sl
    182e:	9305      	str	r3, [sp, #20]
    1830:	465b      	mov	r3, fp
    1832:	9302      	str	r3, [sp, #8]
    1834:	2301      	movs	r3, #1
    1836:	9a03      	ldr	r2, [sp, #12]
    1838:	4213      	tst	r3, r2
    183a:	d151      	bne.n	0x18e0
    183c:	2d00      	cmp	r5, #0
    183e:	dd3e      	ble.n	0x18be
    1840:	9a02      	ldr	r2, [sp, #8]
    1842:	4691      	mov	r9, r2
    1844:	2200      	movs	r2, #0
    1846:	9b05      	ldr	r3, [sp, #20]
    1848:	4692      	mov	sl, r2
    184a:	46a8      	mov	r8, r5
    184c:	469b      	mov	fp, r3
    184e:	464a      	mov	r2, r9
    1850:	465c      	mov	r4, fp
    1852:	2700      	movs	r7, #0
    1854:	4691      	mov	r9, r2
    1856:	9d02      	ldr	r5, [sp, #8]
    1858:	2300      	movs	r3, #0
    185a:	0028      	movs	r0, r5
    185c:	464e      	mov	r6, r9
    185e:	2100      	movs	r1, #0
    1860:	2200      	movs	r2, #0
    1862:	6023      	str	r3, [r4, #0]
    1864:	9501      	str	r5, [sp, #4]
    1866:	6805      	ldr	r5, [r0, #0]
    1868:	ce08      	ldmia	r6!, {r3}
    186a:	435d      	muls	r5, r3
    186c:	3201      	adds	r2, #1
    186e:	1949      	adds	r1, r1, r5
    1870:	6021      	str	r1, [r4, #0]
    1872:	4460      	add	r0, ip
    1874:	4542      	cmp	r2, r8
    1876:	dbf6      	blt.n	0x1866
    1878:	9d01      	ldr	r5, [sp, #4]
    187a:	3701      	adds	r7, #1
    187c:	3404      	adds	r4, #4
    187e:	3504      	adds	r5, #4
    1880:	4547      	cmp	r7, r8
    1882:	dbe9      	blt.n	0x1858
    1884:	2301      	movs	r3, #1
    1886:	464a      	mov	r2, r9
    1888:	4699      	mov	r9, r3
    188a:	44ca      	add	sl, r9
    188c:	4462      	add	r2, ip
    188e:	44e3      	add	fp, ip
    1890:	45c2      	cmp	sl, r8
    1892:	dbdd      	blt.n	0x1850
    1894:	4645      	mov	r5, r8
    1896:	2000      	movs	r0, #0
    1898:	2100      	movs	r1, #0
    189a:	4667      	mov	r7, ip
    189c:	9c05      	ldr	r4, [sp, #20]
    189e:	9e02      	ldr	r6, [sp, #8]
    18a0:	0003      	movs	r3, r0
    18a2:	2200      	movs	r2, #0
    18a4:	468c      	mov	ip, r1
    18a6:	58e1      	ldr	r1, [r4, r3]
    18a8:	3201      	adds	r2, #1
    18aa:	50f1      	str	r1, [r6, r3]
    18ac:	3304      	adds	r3, #4
    18ae:	42aa      	cmp	r2, r5
    18b0:	dbf9      	blt.n	0x18a6
    18b2:	4661      	mov	r1, ip
    18b4:	3101      	adds	r1, #1
    18b6:	19c0      	adds	r0, r0, r7
    18b8:	42a9      	cmp	r1, r5
    18ba:	dbf1      	blt.n	0x18a0
    18bc:	46bc      	mov	ip, r7
    18be:	9b03      	ldr	r3, [sp, #12]
    18c0:	105b      	asrs	r3, r3, #1
    18c2:	9303      	str	r3, [sp, #12]
    18c4:	9b04      	ldr	r3, [sp, #16]
    18c6:	3b01      	subs	r3, #1
    18c8:	9304      	str	r3, [sp, #16]
    18ca:	2b00      	cmp	r3, #0
    18cc:	d1b2      	bne.n	0x1834
    18ce:	b00d      	add	sp, #52	; 0x34
    18d0:	bc3c      	pop	{r2, r3, r4, r5}
    18d2:	4690      	mov	r8, r2
    18d4:	4699      	mov	r9, r3
    18d6:	46a2      	mov	sl, r4
    18d8:	46ab      	mov	fp, r5
    18da:	bcf0      	pop	{r4, r5, r6, r7}
    18dc:	bc01      	pop	{r0}
    18de:	4700      	bx	r0
    18e0:	2d00      	cmp	r5, #0
    18e2:	ddec      	ble.n	0x18be
    18e4:	9b0b      	ldr	r3, [sp, #44]	; 0x2c
    18e6:	4699      	mov	r9, r3
    18e8:	2300      	movs	r3, #0
    18ea:	4698      	mov	r8, r3
    18ec:	9b09      	ldr	r3, [sp, #36]	; 0x24
    18ee:	9507      	str	r5, [sp, #28]
    18f0:	469b      	mov	fp, r3
    18f2:	4665      	mov	r5, ip
    18f4:	9e0a      	ldr	r6, [sp, #40]	; 0x28
    18f6:	9b06      	ldr	r3, [sp, #24]
    18f8:	001a      	movs	r2, r3
    18fa:	469c      	mov	ip, r3
    18fc:	444a      	add	r2, r9
    18fe:	4692      	mov	sl, r2
    1900:	0014      	movs	r4, r2
    1902:	9f02      	ldr	r7, [sp, #8]
    1904:	44b4      	add	ip, r6
    1906:	2300      	movs	r3, #0
    1908:	0038      	movs	r0, r7
    190a:	4661      	mov	r1, ip
    190c:	2200      	movs	r2, #0
    190e:	6023      	str	r3, [r4, #0]
    1910:	9701      	str	r7, [sp, #4]
    1912:	6807      	ldr	r7, [r0, #0]
    1914:	c908      	ldmia	r1!, {r3}
    1916:	435f      	muls	r7, r3
    1918:	19d2      	adds	r2, r2, r7
    191a:	6022      	str	r2, [r4, #0]
    191c:	1940      	adds	r0, r0, r5
    191e:	42b1      	cmp	r1, r6
    1920:	d1f7      	bne.n	0x1912
    1922:	9f01      	ldr	r7, [sp, #4]
    1924:	3404      	adds	r4, #4
    1926:	3704      	adds	r7, #4
    1928:	454c      	cmp	r4, r9
    192a:	d1ec      	bne.n	0x1906
    192c:	2301      	movs	r3, #1
    192e:	465a      	mov	r2, fp
    1930:	4699      	mov	r9, r3
    1932:	4653      	mov	r3, sl
    1934:	1a9b      	subs	r3, r3, r2
    1936:	44c8      	add	r8, r9
    1938:	4699      	mov	r9, r3
    193a:	4663      	mov	r3, ip
    193c:	1a9e      	subs	r6, r3, r2
    193e:	9b07      	ldr	r3, [sp, #28]
    1940:	4598      	cmp	r8, r3
    1942:	d1d8      	bne.n	0x18f6
    1944:	46ac      	mov	ip, r5
    1946:	001d      	movs	r5, r3
    1948:	9b09      	ldr	r3, [sp, #36]	; 0x24
    194a:	4662      	mov	r2, ip
    194c:	2100      	movs	r1, #0
    194e:	4698      	mov	r8, r3
    1950:	9805      	ldr	r0, [sp, #20]
    1952:	9c08      	ldr	r4, [sp, #32]
    1954:	9f06      	ldr	r7, [sp, #24]
    1956:	19d6      	adds	r6, r2, r7
    1958:	0033      	movs	r3, r6
    195a:	4689      	mov	r9, r1
    195c:	58c1      	ldr	r1, [r0, r3]
    195e:	50e1      	str	r1, [r4, r3]
    1960:	3304      	adds	r3, #4
    1962:	429a      	cmp	r2, r3
    1964:	d1fa      	bne.n	0x195c
    1966:	4649      	mov	r1, r9
    1968:	4643      	mov	r3, r8
    196a:	3101      	adds	r1, #1
    196c:	1af2      	subs	r2, r6, r3
    196e:	42a9      	cmp	r1, r5
    1970:	d1f1      	bne.n	0x1956
    1972:	e765      	b.n	0x1840
    1974:	00ab      	lsls	r3, r5, #2
    1976:	469c      	mov	ip, r3
    1978:	e746      	b.n	0x1808
    197a:	46c0      	nop			; (mov r8, r8)
    197c:	00ac      	lsls	r4, r5, #2
    197e:	0300      	lsls	r0, r0, #12
    1980:	ffd3 7fff 			; <UNDEFINED> instruction: 0xffd37fff
    1984:	4a07      	ldr	r2, [pc, #28]	; (0x19a4)
    1986:	6810      	ldr	r0, [r2, #0]
    1988:	1e41      	subs	r1, r0, #1
    198a:	0003      	movs	r3, r0
    198c:	434b      	muls	r3, r1
    198e:	185b      	adds	r3, r3, r1
    1990:	68d1      	ldr	r1, [r2, #12]
    1992:	4a05      	ldr	r2, [pc, #20]	; (0x19a8)
    1994:	6812      	ldr	r2, [r2, #0]
    1996:	009b      	lsls	r3, r3, #2
    1998:	5858      	ldr	r0, [r3, r1]
    199a:	68d3      	ldr	r3, [r2, #12]
    199c:	1ac0      	subs	r0, r0, r3
    199e:	4243      	negs	r3, r0
    19a0:	4158      	adcs	r0, r3
    19a2:	4770      	bx	lr
    19a4:	00ac      	lsls	r4, r5, #2
    19a6:	0300      	lsls	r0, r0, #12
    19a8:	0158      	lsls	r0, r3, #5
    19aa:	0300      	lsls	r0, r0, #12
    19ac:	4b14      	ldr	r3, [pc, #80]	; (0x1a00)
    19ae:	681b      	ldr	r3, [r3, #0]
    19b0:	b570      	push	{r4, r5, r6, lr}
    19b2:	681b      	ldr	r3, [r3, #0]
    19b4:	4d13      	ldr	r5, [pc, #76]	; (0x1a04)
    19b6:	2001      	movs	r0, #1
    19b8:	602b      	str	r3, [r5, #0]
    19ba:	f7ff fa3d 	bl	0xe38
    19be:	4812      	ldr	r0, [pc, #72]	; (0x1a08)
    19c0:	f7ff fa02 	bl	0xdc8
    19c4:	6068      	str	r0, [r5, #4]
    19c6:	6828      	ldr	r0, [r5, #0]
    19c8:	f7ff f9fe 	bl	0xdc8
    19cc:	60a8      	str	r0, [r5, #8]
    19ce:	6828      	ldr	r0, [r5, #0]
    19d0:	3091      	adds	r0, #145	; 0x91
    19d2:	30ff      	adds	r0, #255	; 0xff
    19d4:	f7ff f9f8 	bl	0xdc8
    19d8:	682b      	ldr	r3, [r5, #0]
    19da:	60e8      	str	r0, [r5, #12]
    19dc:	2b00      	cmp	r3, #0
    19de:	dd0c      	ble.n	0x19fa
    19e0:	2400      	movs	r4, #0
    19e2:	f7ff fa31 	bl	0xe48
    19e6:	211a      	movs	r1, #26
    19e8:	f003 fb5a 	bl	0x50a0
    19ec:	68ae      	ldr	r6, [r5, #8]
    19ee:	3161      	adds	r1, #97	; 0x61
    19f0:	682b      	ldr	r3, [r5, #0]
    19f2:	5531      	strb	r1, [r6, r4]
    19f4:	3401      	adds	r4, #1
    19f6:	42a3      	cmp	r3, r4
    19f8:	dcf3      	bgt.n	0x19e2
    19fa:	bc70      	pop	{r4, r5, r6}
    19fc:	bc01      	pop	{r0}
    19fe:	4700      	bx	r0
    1a00:	0158      	lsls	r0, r3, #5
    1a02:	0300      	lsls	r0, r0, #12
    1a04:	00c0      	lsls	r0, r0, #3
    1a06:	0300      	lsls	r0, r0, #12
    1a08:	1004      	asrs	r4, r0, #32
    1a0a:	0004      	movs	r4, r0
    1a0c:	b510      	push	{r4, lr}
    1a0e:	4c05      	ldr	r4, [pc, #20]	; (0x1a24)
    1a10:	6863      	ldr	r3, [r4, #4]
    1a12:	6822      	ldr	r2, [r4, #0]
    1a14:	68e1      	ldr	r1, [r4, #12]
    1a16:	68a0      	ldr	r0, [r4, #8]
    1a18:	f000 fa8e 	bl	0x1f38
    1a1c:	6120      	str	r0, [r4, #16]
    1a1e:	bc10      	pop	{r4}
    1a20:	bc01      	pop	{r0}
    1a22:	4700      	bx	r0
    1a24:	00c0      	lsls	r0, r0, #3
    1a26:	0300      	lsls	r0, r0, #12
    1a28:	4b07      	ldr	r3, [pc, #28]	; (0x1a48)
    1a2a:	330c      	adds	r3, #12
    1a2c:	cb03      	ldmia	r3!, {r0, r1}
    1a2e:	b510      	push	{r4, lr}
    1a30:	1841      	adds	r1, r0, r1
    1a32:	f7ff fa1b 	bl	0xe6c
    1a36:	4b05      	ldr	r3, [pc, #20]	; (0x1a4c)
    1a38:	681b      	ldr	r3, [r3, #0]
    1a3a:	68db      	ldr	r3, [r3, #12]
    1a3c:	1a18      	subs	r0, r3, r0
    1a3e:	4243      	negs	r3, r0
    1a40:	4158      	adcs	r0, r3
    1a42:	bc10      	pop	{r4}
    1a44:	bc02      	pop	{r1}
    1a46:	4708      	bx	r1
    1a48:	00c0      	lsls	r0, r0, #3
    1a4a:	0300      	lsls	r0, r0, #12
    1a4c:	0158      	lsls	r0, r3, #5
    1a4e:	0300      	lsls	r0, r0, #12
    1a50:	4b0f      	ldr	r3, [pc, #60]	; (0x1a90)
    1a52:	681b      	ldr	r3, [r3, #0]
    1a54:	b570      	push	{r4, r5, r6, lr}
    1a56:	681b      	ldr	r3, [r3, #0]
    1a58:	4d0e      	ldr	r5, [pc, #56]	; (0x1a94)
    1a5a:	2001      	movs	r0, #1
    1a5c:	602b      	str	r3, [r5, #0]
    1a5e:	f7ff f9eb 	bl	0xe38
    1a62:	6828      	ldr	r0, [r5, #0]
    1a64:	f7ff f9b0 	bl	0xdc8
    1a68:	682b      	ldr	r3, [r5, #0]
    1a6a:	6068      	str	r0, [r5, #4]
    1a6c:	2b00      	cmp	r3, #0
    1a6e:	dd08      	ble.n	0x1a82
    1a70:	2400      	movs	r4, #0
    1a72:	f7ff f9e9 	bl	0xe48
    1a76:	686b      	ldr	r3, [r5, #4]
    1a78:	5518      	strb	r0, [r3, r4]
    1a7a:	682b      	ldr	r3, [r5, #0]
    1a7c:	3401      	adds	r4, #1
    1a7e:	42a3      	cmp	r3, r4
    1a80:	dcf7      	bgt.n	0x1a72
    1a82:	2010      	movs	r0, #16
    1a84:	f7ff f9a0 	bl	0xdc8
    1a88:	60a8      	str	r0, [r5, #8]
    1a8a:	bc70      	pop	{r4, r5, r6}
    1a8c:	bc01      	pop	{r0}
    1a8e:	4700      	bx	r0
    1a90:	0158      	lsls	r0, r3, #5
    1a92:	0300      	lsls	r0, r0, #12
    1a94:	00d4      	lsls	r4, r2, #3
    1a96:	0300      	lsls	r0, r0, #12
    1a98:	b5f0      	push	{r4, r5, r6, r7, lr}
    1a9a:	46de      	mov	lr, fp
    1a9c:	4657      	mov	r7, sl
    1a9e:	464e      	mov	r6, r9
    1aa0:	4645      	mov	r5, r8
    1aa2:	b5e0      	push	{r5, r6, r7, lr}
    1aa4:	4b79      	ldr	r3, [pc, #484]	; (0x1c8c)
    1aa6:	6858      	ldr	r0, [r3, #4]
    1aa8:	6819      	ldr	r1, [r3, #0]
    1aaa:	b099      	sub	sp, #100	; 0x64
    1aac:	9002      	str	r0, [sp, #8]
    1aae:	1844      	adds	r4, r0, r1
    1ab0:	203f      	movs	r0, #63	; 0x3f
    1ab2:	689a      	ldr	r2, [r3, #8]
    1ab4:	1c4b      	adds	r3, r1, #1
    1ab6:	4018      	ands	r0, r3
    1ab8:	2838      	cmp	r0, #56	; 0x38
    1aba:	d100      	bne.n	0x1abe
    1abc:	e0df      	b.n	0x1c7e
    1abe:	253f      	movs	r5, #63	; 0x3f
    1ac0:	0018      	movs	r0, r3
    1ac2:	002e      	movs	r6, r5
    1ac4:	3001      	adds	r0, #1
    1ac6:	4006      	ands	r6, r0
    1ac8:	2e38      	cmp	r6, #56	; 0x38
    1aca:	d1fa      	bne.n	0x1ac2
    1acc:	4680      	mov	r8, r0
    1ace:	2080      	movs	r0, #128	; 0x80
    1ad0:	7020      	strb	r0, [r4, #0]
    1ad2:	4543      	cmp	r3, r8
    1ad4:	d300      	bcc.n	0x1ad8
    1ad6:	e0d5      	b.n	0x1c84
    1ad8:	9802      	ldr	r0, [sp, #8]
    1ada:	4684      	mov	ip, r0
    1adc:	2400      	movs	r4, #0
    1ade:	4463      	add	r3, ip
    1ae0:	4440      	add	r0, r8
    1ae2:	701c      	strb	r4, [r3, #0]
    1ae4:	3301      	adds	r3, #1
    1ae6:	4298      	cmp	r0, r3
    1ae8:	d1fb      	bne.n	0x1ae2
    1aea:	00cb      	lsls	r3, r1, #3
    1aec:	0a1c      	lsrs	r4, r3, #8
    1aee:	7003      	strb	r3, [r0, #0]
    1af0:	7044      	strb	r4, [r0, #1]
    1af2:	0c1c      	lsrs	r4, r3, #16
    1af4:	0e1b      	lsrs	r3, r3, #24
    1af6:	7084      	strb	r4, [r0, #2]
    1af8:	70c3      	strb	r3, [r0, #3]
    1afa:	9802      	ldr	r0, [sp, #8]
    1afc:	4643      	mov	r3, r8
    1afe:	4684      	mov	ip, r0
    1b00:	3304      	adds	r3, #4
    1b02:	4463      	add	r3, ip
    1b04:	0f49      	lsrs	r1, r1, #29
    1b06:	7019      	strb	r1, [r3, #0]
    1b08:	2100      	movs	r1, #0
    1b0a:	7059      	strb	r1, [r3, #1]
    1b0c:	7099      	strb	r1, [r3, #2]
    1b0e:	70d9      	strb	r1, [r3, #3]
    1b10:	4b5f      	ldr	r3, [pc, #380]	; (0x1c90)
    1b12:	469a      	mov	sl, r3
    1b14:	4b5f      	ldr	r3, [pc, #380]	; (0x1c94)
    1b16:	469b      	mov	fp, r3
    1b18:	2300      	movs	r3, #0
    1b1a:	4c5f      	ldr	r4, [pc, #380]	; (0x1c98)
    1b1c:	4d5f      	ldr	r5, [pc, #380]	; (0x1c9c)
    1b1e:	9303      	str	r3, [sp, #12]
    1b20:	4643      	mov	r3, r8
    1b22:	46ac      	mov	ip, r5
    1b24:	46a0      	mov	r8, r4
    1b26:	9201      	str	r2, [sp, #4]
    1b28:	9306      	str	r3, [sp, #24]
    1b2a:	9a03      	ldr	r2, [sp, #12]
    1b2c:	4691      	mov	r9, r2
    1b2e:	9b02      	ldr	r3, [sp, #8]
    1b30:	9a01      	ldr	r2, [sp, #4]
    1b32:	444b      	add	r3, r9
    1b34:	4691      	mov	r9, r2
    1b36:	a808      	add	r0, sp, #32
    1b38:	7859      	ldrb	r1, [r3, #1]
    1b3a:	781a      	ldrb	r2, [r3, #0]
    1b3c:	0209      	lsls	r1, r1, #8
    1b3e:	4311      	orrs	r1, r2
    1b40:	789a      	ldrb	r2, [r3, #2]
    1b42:	0412      	lsls	r2, r2, #16
    1b44:	4311      	orrs	r1, r2
    1b46:	78da      	ldrb	r2, [r3, #3]
    1b48:	0612      	lsls	r2, r2, #24
    1b4a:	430a      	orrs	r2, r1
    1b4c:	c004      	stmia	r0!, {r2}
    1b4e:	aa18      	add	r2, sp, #96	; 0x60
    1b50:	3304      	adds	r3, #4
    1b52:	4282      	cmp	r2, r0
    1b54:	d1f0      	bne.n	0x1b38
    1b56:	464b      	mov	r3, r9
    1b58:	465d      	mov	r5, fp
    1b5a:	4667      	mov	r7, ip
    1b5c:	2100      	movs	r1, #0
    1b5e:	9301      	str	r3, [sp, #4]
    1b60:	4b4f      	ldr	r3, [pc, #316]	; (0x1ca0)
    1b62:	4850      	ldr	r0, [pc, #320]	; (0x1ca4)
    1b64:	9305      	str	r3, [sp, #20]
    1b66:	4b50      	ldr	r3, [pc, #320]	; (0x1ca8)
    1b68:	9304      	str	r3, [sp, #16]
    1b6a:	182b      	adds	r3, r5, r0
    1b6c:	4656      	mov	r6, sl
    1b6e:	4642      	mov	r2, r8
    1b70:	2407      	movs	r4, #7
    1b72:	9707      	str	r7, [sp, #28]
    1b74:	469c      	mov	ip, r3
    1b76:	290f      	cmp	r1, #15
    1b78:	d922      	bls.n	0x1bc0
    1b7a:	291f      	cmp	r1, #31
    1b7c:	d826      	bhi.n	0x1bcc
    1b7e:	0038      	movs	r0, r7
    1b80:	250f      	movs	r5, #15
    1b82:	008b      	lsls	r3, r1, #2
    1b84:	4070      	eors	r0, r6
    1b86:	185b      	adds	r3, r3, r1
    1b88:	4010      	ands	r0, r2
    1b8a:	3301      	adds	r3, #1
    1b8c:	4078      	eors	r0, r7
    1b8e:	402b      	ands	r3, r5
    1b90:	009b      	lsls	r3, r3, #2
    1b92:	ad08      	add	r5, sp, #32
    1b94:	58eb      	ldr	r3, [r5, r3]
    1b96:	4460      	add	r0, ip
    1b98:	18c3      	adds	r3, r0, r3
    1b9a:	2020      	movs	r0, #32
    1b9c:	1b04      	subs	r4, r0, r4
    1b9e:	41e3      	rors	r3, r4
    1ba0:	199b      	adds	r3, r3, r6
    1ba2:	9c05      	ldr	r4, [sp, #20]
    1ba4:	9d04      	ldr	r5, [sp, #16]
    1ba6:	cc01      	ldmia	r4!, {r0}
    1ba8:	9405      	str	r4, [sp, #20]
    1baa:	cd10      	ldmia	r5!, {r4}
    1bac:	9504      	str	r5, [sp, #16]
    1bae:	0015      	movs	r5, r2
    1bb0:	3101      	adds	r1, #1
    1bb2:	003a      	movs	r2, r7
    1bb4:	0037      	movs	r7, r6
    1bb6:	001e      	movs	r6, r3
    1bb8:	182b      	adds	r3, r5, r0
    1bba:	469c      	mov	ip, r3
    1bbc:	290f      	cmp	r1, #15
    1bbe:	d8dc      	bhi.n	0x1b7a
    1bc0:	0038      	movs	r0, r7
    1bc2:	4050      	eors	r0, r2
    1bc4:	4030      	ands	r0, r6
    1bc6:	4050      	eors	r0, r2
    1bc8:	000b      	movs	r3, r1
    1bca:	e7e1      	b.n	0x1b90
    1bcc:	292f      	cmp	r1, #47	; 0x2f
    1bce:	d808      	bhi.n	0x1be2
    1bd0:	0038      	movs	r0, r7
    1bd2:	250f      	movs	r5, #15
    1bd4:	004b      	lsls	r3, r1, #1
    1bd6:	185b      	adds	r3, r3, r1
    1bd8:	4050      	eors	r0, r2
    1bda:	3305      	adds	r3, #5
    1bdc:	4070      	eors	r0, r6
    1bde:	402b      	ands	r3, r5
    1be0:	e7d6      	b.n	0x1b90
    1be2:	43d0      	mvns	r0, r2
    1be4:	4330      	orrs	r0, r6
    1be6:	4078      	eors	r0, r7
    1be8:	18c5      	adds	r5, r0, r3
    1bea:	200f      	movs	r0, #15
    1bec:	00cb      	lsls	r3, r1, #3
    1bee:	1a5b      	subs	r3, r3, r1
    1bf0:	4003      	ands	r3, r0
    1bf2:	009b      	lsls	r3, r3, #2
    1bf4:	a808      	add	r0, sp, #32
    1bf6:	58c3      	ldr	r3, [r0, r3]
    1bf8:	2020      	movs	r0, #32
    1bfa:	18eb      	adds	r3, r5, r3
    1bfc:	1b04      	subs	r4, r0, r4
    1bfe:	41e3      	rors	r3, r4
    1c00:	199b      	adds	r3, r3, r6
    1c02:	293f      	cmp	r1, #63	; 0x3f
    1c04:	d1cd      	bne.n	0x1ba2
    1c06:	4649      	mov	r1, r9
    1c08:	9101      	str	r1, [sp, #4]
    1c0a:	9907      	ldr	r1, [sp, #28]
    1c0c:	468c      	mov	ip, r1
    1c0e:	449a      	add	sl, r3
    1c10:	9b03      	ldr	r3, [sp, #12]
    1c12:	4493      	add	fp, r2
    1c14:	9a06      	ldr	r2, [sp, #24]
    1c16:	3340      	adds	r3, #64	; 0x40
    1c18:	44b4      	add	ip, r6
    1c1a:	44b8      	add	r8, r7
    1c1c:	9303      	str	r3, [sp, #12]
    1c1e:	429a      	cmp	r2, r3
    1c20:	d883      	bhi.n	0x1b2a
    1c22:	465b      	mov	r3, fp
    1c24:	9a01      	ldr	r2, [sp, #4]
    1c26:	7013      	strb	r3, [r2, #0]
    1c28:	0a1b      	lsrs	r3, r3, #8
    1c2a:	7053      	strb	r3, [r2, #1]
    1c2c:	465b      	mov	r3, fp
    1c2e:	0c1b      	lsrs	r3, r3, #16
    1c30:	7093      	strb	r3, [r2, #2]
    1c32:	465b      	mov	r3, fp
    1c34:	0e1b      	lsrs	r3, r3, #24
    1c36:	70d3      	strb	r3, [r2, #3]
    1c38:	4653      	mov	r3, sl
    1c3a:	7113      	strb	r3, [r2, #4]
    1c3c:	0a1b      	lsrs	r3, r3, #8
    1c3e:	7153      	strb	r3, [r2, #5]
    1c40:	4653      	mov	r3, sl
    1c42:	0c1b      	lsrs	r3, r3, #16
    1c44:	7193      	strb	r3, [r2, #6]
    1c46:	4653      	mov	r3, sl
    1c48:	4665      	mov	r5, ip
    1c4a:	4644      	mov	r4, r8
    1c4c:	0e1b      	lsrs	r3, r3, #24
    1c4e:	71d3      	strb	r3, [r2, #7]
    1c50:	0a2b      	lsrs	r3, r5, #8
    1c52:	7253      	strb	r3, [r2, #9]
    1c54:	0c2b      	lsrs	r3, r5, #16
    1c56:	7293      	strb	r3, [r2, #10]
    1c58:	0a23      	lsrs	r3, r4, #8
    1c5a:	7215      	strb	r5, [r2, #8]
    1c5c:	7314      	strb	r4, [r2, #12]
    1c5e:	0e2d      	lsrs	r5, r5, #24
    1c60:	7353      	strb	r3, [r2, #13]
    1c62:	0c23      	lsrs	r3, r4, #16
    1c64:	0e24      	lsrs	r4, r4, #24
    1c66:	72d5      	strb	r5, [r2, #11]
    1c68:	7393      	strb	r3, [r2, #14]
    1c6a:	73d4      	strb	r4, [r2, #15]
    1c6c:	b019      	add	sp, #100	; 0x64
    1c6e:	bc3c      	pop	{r2, r3, r4, r5}
    1c70:	4690      	mov	r8, r2
    1c72:	4699      	mov	r9, r3
    1c74:	46a2      	mov	sl, r4
    1c76:	46ab      	mov	fp, r5
    1c78:	bcf0      	pop	{r4, r5, r6, r7}
    1c7a:	bc01      	pop	{r0}
    1c7c:	4700      	bx	r0
    1c7e:	2080      	movs	r0, #128	; 0x80
    1c80:	4698      	mov	r8, r3
    1c82:	7020      	strb	r0, [r4, #0]
    1c84:	9b02      	ldr	r3, [sp, #8]
    1c86:	4443      	add	r3, r8
    1c88:	0018      	movs	r0, r3
    1c8a:	e72e      	b.n	0x1aea
    1c8c:	00d4      	lsls	r4, r2, #3
    1c8e:	0300      	lsls	r0, r0, #12
    1c90:	ab89      	add	r3, sp, #548	; 0x224
    1c92:	efcd 2301 	vsubw.s8	q9, <illegal reg q6.5>, d1
    1c96:	6745      	str	r5, [r0, #116]	; 0x74
    1c98:	5476      	strb	r6, [r6, r1]
    1c9a:	1032      	asrs	r2, r6, #32
    1c9c:	dcfe      	bgt.n	0x1c9c
    1c9e:	98ba      	ldr	r0, [sp, #744]	; 0x2e8
    1ca0:	52d4      	strh	r4, [r2, r3]
    1ca2:	0800      	lsrs	r0, r0, #32
    1ca4:	a478      	add	r4, pc, #480	; (adr r4, 0x1e88)
    1ca6:	d76a      	bvc.n	0x1d7e
    1ca8:	51d4      	str	r4, [r2, r7]
    1caa:	0800      	lsrs	r0, r0, #32
    1cac:	4b07      	ldr	r3, [pc, #28]	; (0x1ccc)
    1cae:	6898      	ldr	r0, [r3, #8]
    1cb0:	0001      	movs	r1, r0
    1cb2:	b510      	push	{r4, lr}
    1cb4:	3110      	adds	r1, #16
    1cb6:	f7ff f8d9 	bl	0xe6c
    1cba:	4b05      	ldr	r3, [pc, #20]	; (0x1cd0)
    1cbc:	681b      	ldr	r3, [r3, #0]
    1cbe:	68db      	ldr	r3, [r3, #12]
    1cc0:	1a18      	subs	r0, r3, r0
    1cc2:	4243      	negs	r3, r0
    1cc4:	4158      	adcs	r0, r3
    1cc6:	bc10      	pop	{r4}
    1cc8:	bc02      	pop	{r1}
    1cca:	4708      	bx	r1
    1ccc:	00d4      	lsls	r4, r2, #3
    1cce:	0300      	lsls	r0, r0, #12
    1cd0:	0158      	lsls	r0, r3, #5
    1cd2:	0300      	lsls	r0, r0, #12
    1cd4:	b5f8      	push	{r3, r4, r5, r6, r7, lr}
    1cd6:	4645      	mov	r5, r8
    1cd8:	4657      	mov	r7, sl
    1cda:	46de      	mov	lr, fp
    1cdc:	464e      	mov	r6, r9
    1cde:	4690      	mov	r8, r2
    1ce0:	b5e0      	push	{r5, r6, r7, lr}
    1ce2:	0005      	movs	r5, r0
    1ce4:	000f      	movs	r7, r1
    1ce6:	45b8      	cmp	r8, r7
    1ce8:	dd2c      	ble.n	0x1d44
    1cea:	4643      	mov	r3, r8
    1cec:	009e      	lsls	r6, r3, #2
    1cee:	46b3      	mov	fp, r6
    1cf0:	44ab      	add	fp, r5
    1cf2:	00bb      	lsls	r3, r7, #2
    1cf4:	18ea      	adds	r2, r5, r3
    1cf6:	4691      	mov	r9, r2
    1cf8:	6812      	ldr	r2, [r2, #0]
    1cfa:	4694      	mov	ip, r2
    1cfc:	1c7a      	adds	r2, r7, #1
    1cfe:	4590      	cmp	r8, r2
    1d00:	dd28      	ble.n	0x1d54
    1d02:	003a      	movs	r2, r7
    1d04:	3304      	adds	r3, #4
    1d06:	18eb      	adds	r3, r5, r3
    1d08:	6819      	ldr	r1, [r3, #0]
    1d0a:	1c54      	adds	r4, r2, #1
    1d0c:	4561      	cmp	r1, ip
    1d0e:	da07      	bge.n	0x1d20
    1d10:	00a0      	lsls	r0, r4, #2
    1d12:	1828      	adds	r0, r5, r0
    1d14:	6806      	ldr	r6, [r0, #0]
    1d16:	6001      	str	r1, [r0, #0]
    1d18:	1c90      	adds	r0, r2, #2
    1d1a:	0022      	movs	r2, r4
    1d1c:	0004      	movs	r4, r0
    1d1e:	601e      	str	r6, [r3, #0]
    1d20:	3304      	adds	r3, #4
    1d22:	459b      	cmp	fp, r3
    1d24:	d1f0      	bne.n	0x1d08
    1d26:	4648      	mov	r0, r9
    1d28:	0093      	lsls	r3, r2, #2
    1d2a:	6800      	ldr	r0, [r0, #0]
    1d2c:	18eb      	adds	r3, r5, r3
    1d2e:	6819      	ldr	r1, [r3, #0]
    1d30:	6018      	str	r0, [r3, #0]
    1d32:	464b      	mov	r3, r9
    1d34:	0028      	movs	r0, r5
    1d36:	6019      	str	r1, [r3, #0]
    1d38:	0039      	movs	r1, r7
    1d3a:	f7ff ffcb 	bl	0x1cd4
    1d3e:	0027      	movs	r7, r4
    1d40:	45a0      	cmp	r8, r4
    1d42:	dcd6      	bgt.n	0x1cf2
    1d44:	bc3c      	pop	{r2, r3, r4, r5}
    1d46:	4690      	mov	r8, r2
    1d48:	4699      	mov	r9, r3
    1d4a:	46a2      	mov	sl, r4
    1d4c:	46ab      	mov	fp, r5
    1d4e:	bcf8      	pop	{r3, r4, r5, r6, r7}
    1d50:	bc01      	pop	{r0}
    1d52:	4700      	bx	r0
    1d54:	46b8      	mov	r8, r7
    1d56:	e7c6      	b.n	0x1ce6
    1d58:	b570      	push	{r4, r5, r6, lr}
    1d5a:	2001      	movs	r0, #1
    1d5c:	f7ff f86c 	bl	0xe38
    1d60:	4b0e      	ldr	r3, [pc, #56]	; (0x1d9c)
    1d62:	681b      	ldr	r3, [r3, #0]
    1d64:	4e0e      	ldr	r6, [pc, #56]	; (0x1da0)
    1d66:	6818      	ldr	r0, [r3, #0]
    1d68:	6030      	str	r0, [r6, #0]
    1d6a:	0080      	lsls	r0, r0, #2
    1d6c:	f7ff f82c 	bl	0xdc8
    1d70:	6833      	ldr	r3, [r6, #0]
    1d72:	6070      	str	r0, [r6, #4]
    1d74:	2b00      	cmp	r3, #0
    1d76:	dd0e      	ble.n	0x1d96
    1d78:	2500      	movs	r5, #0
    1d7a:	f7ff f865 	bl	0xe48
    1d7e:	0004      	movs	r4, r0
    1d80:	f7ff f862 	bl	0xe48
    1d84:	0424      	lsls	r4, r4, #16
    1d86:	6872      	ldr	r2, [r6, #4]
    1d88:	00ab      	lsls	r3, r5, #2
    1d8a:	4304      	orrs	r4, r0
    1d8c:	509c      	str	r4, [r3, r2]
    1d8e:	6833      	ldr	r3, [r6, #0]
    1d90:	3501      	adds	r5, #1
    1d92:	42ab      	cmp	r3, r5
    1d94:	dcf1      	bgt.n	0x1d7a
    1d96:	bc70      	pop	{r4, r5, r6}
    1d98:	bc01      	pop	{r0}
    1d9a:	4700      	bx	r0
    1d9c:	0158      	lsls	r0, r3, #5
    1d9e:	0300      	lsls	r0, r0, #12
    1da0:	00e0      	lsls	r0, r4, #3
    1da2:	0300      	lsls	r0, r0, #12
    1da4:	b510      	push	{r4, lr}
    1da6:	4b04      	ldr	r3, [pc, #16]	; (0x1db8)
    1da8:	2100      	movs	r1, #0
    1daa:	681a      	ldr	r2, [r3, #0]
    1dac:	6858      	ldr	r0, [r3, #4]
    1dae:	f7ff ff91 	bl	0x1cd4
    1db2:	bc10      	pop	{r4}
    1db4:	bc01      	pop	{r0}
    1db6:	4700      	bx	r0
    1db8:	00e0      	lsls	r0, r4, #3
    1dba:	0300      	lsls	r0, r0, #12
    1dbc:	4b08      	ldr	r3, [pc, #32]	; (0x1de0)
    1dbe:	6819      	ldr	r1, [r3, #0]
    1dc0:	6858      	ldr	r0, [r3, #4]
    1dc2:	0089      	lsls	r1, r1, #2
    1dc4:	b510      	push	{r4, lr}
    1dc6:	1841      	adds	r1, r0, r1
    1dc8:	f7ff f850 	bl	0xe6c
    1dcc:	4b05      	ldr	r3, [pc, #20]	; (0x1de4)
    1dce:	681b      	ldr	r3, [r3, #0]
    1dd0:	68db      	ldr	r3, [r3, #12]
    1dd2:	1a18      	subs	r0, r3, r0
    1dd4:	4243      	negs	r3, r0
    1dd6:	4158      	adcs	r0, r3
    1dd8:	bc10      	pop	{r4}
    1dda:	bc02      	pop	{r1}
    1ddc:	4708      	bx	r1
    1dde:	46c0      	nop			; (mov r8, r8)
    1de0:	00e0      	lsls	r0, r4, #3
    1de2:	0300      	lsls	r0, r0, #12
    1de4:	0158      	lsls	r0, r3, #5
    1de6:	0300      	lsls	r0, r0, #12
    1de8:	b5f0      	push	{r4, r5, r6, r7, lr}
    1dea:	46c6      	mov	lr, r8
    1dec:	4b12      	ldr	r3, [pc, #72]	; (0x1e38)
    1dee:	681c      	ldr	r4, [r3, #0]
    1df0:	b500      	push	{lr}
    1df2:	0006      	movs	r6, r0
    1df4:	000f      	movs	r7, r1
    1df6:	4690      	mov	r8, r2
    1df8:	4284      	cmp	r4, r0
    1dfa:	d01b      	beq.n	0x1e34
    1dfc:	0013      	movs	r3, r2
    1dfe:	430b      	orrs	r3, r1
    1e00:	4303      	orrs	r3, r0
    1e02:	439c      	bics	r4, r3
    1e04:	2500      	movs	r5, #0
    1e06:	2c00      	cmp	r4, #0
    1e08:	d00e      	beq.n	0x1e28
    1e0a:	4642      	mov	r2, r8
    1e0c:	0039      	movs	r1, r7
    1e0e:	4260      	negs	r0, r4
    1e10:	4020      	ands	r0, r4
    1e12:	4302      	orrs	r2, r0
    1e14:	4301      	orrs	r1, r0
    1e16:	1a24      	subs	r4, r4, r0
    1e18:	0852      	lsrs	r2, r2, #1
    1e1a:	0049      	lsls	r1, r1, #1
    1e1c:	4330      	orrs	r0, r6
    1e1e:	f7ff ffe3 	bl	0x1de8
    1e22:	182d      	adds	r5, r5, r0
    1e24:	2c00      	cmp	r4, #0
    1e26:	d1f0      	bne.n	0x1e0a
    1e28:	0028      	movs	r0, r5
    1e2a:	bc04      	pop	{r2}
    1e2c:	4690      	mov	r8, r2
    1e2e:	bcf0      	pop	{r4, r5, r6, r7}
    1e30:	bc02      	pop	{r1}
    1e32:	4708      	bx	r1
    1e34:	2501      	movs	r5, #1
    1e36:	e7f7      	b.n	0x1e28
    1e38:	00e8      	lsls	r0, r5, #3
    1e3a:	0300      	lsls	r0, r0, #12
    1e3c:	2300      	movs	r3, #0
    1e3e:	4a05      	ldr	r2, [pc, #20]	; (0x1e54)
    1e40:	6053      	str	r3, [r2, #4]
    1e42:	4b05      	ldr	r3, [pc, #20]	; (0x1e58)
    1e44:	681b      	ldr	r3, [r3, #0]
    1e46:	6819      	ldr	r1, [r3, #0]
    1e48:	2301      	movs	r3, #1
    1e4a:	408b      	lsls	r3, r1
    1e4c:	3b01      	subs	r3, #1
    1e4e:	6013      	str	r3, [r2, #0]
    1e50:	4770      	bx	lr
    1e52:	46c0      	nop			; (mov r8, r8)
    1e54:	00e8      	lsls	r0, r5, #3
    1e56:	0300      	lsls	r0, r0, #12
    1e58:	0158      	lsls	r0, r3, #5
    1e5a:	0300      	lsls	r0, r0, #12
    1e5c:	b510      	push	{r4, lr}
    1e5e:	2200      	movs	r2, #0
    1e60:	2100      	movs	r1, #0
    1e62:	2000      	movs	r0, #0
    1e64:	f7ff ffc0 	bl	0x1de8
    1e68:	4b02      	ldr	r3, [pc, #8]	; (0x1e74)
    1e6a:	6058      	str	r0, [r3, #4]
    1e6c:	bc10      	pop	{r4}
    1e6e:	bc01      	pop	{r0}
    1e70:	4700      	bx	r0
    1e72:	46c0      	nop			; (mov r8, r8)
    1e74:	00e8      	lsls	r0, r5, #3
    1e76:	0300      	lsls	r0, r0, #12
    1e78:	4b04      	ldr	r3, [pc, #16]	; (0x1e8c)
    1e7a:	681b      	ldr	r3, [r3, #0]
    1e7c:	68d8      	ldr	r0, [r3, #12]
    1e7e:	4b04      	ldr	r3, [pc, #16]	; (0x1e90)
    1e80:	685b      	ldr	r3, [r3, #4]
    1e82:	1ac0      	subs	r0, r0, r3
    1e84:	4243      	negs	r3, r0
    1e86:	4158      	adcs	r0, r3
    1e88:	4770      	bx	lr
    1e8a:	46c0      	nop			; (mov r8, r8)
    1e8c:	0158      	lsls	r0, r3, #5
    1e8e:	0300      	lsls	r0, r0, #12
    1e90:	00e8      	lsls	r0, r5, #3
    1e92:	0300      	lsls	r0, r0, #12
    1e94:	2800      	cmp	r0, #0
    1e96:	d000      	beq.n	0x1e9a
    1e98:	4770      	bx	lr
    1e9a:	2380      	movs	r3, #128	; 0x80
    1e9c:	2203      	movs	r2, #3
    1e9e:	04db      	lsls	r3, r3, #19
    1ea0:	701a      	strb	r2, [r3, #0]
    1ea2:	4b04      	ldr	r3, [pc, #16]	; (0x1eb4)
    1ea4:	3201      	adds	r2, #1
    1ea6:	701a      	strb	r2, [r3, #0]
    1ea8:	23c0      	movs	r3, #192	; 0xc0
    1eaa:	321b      	adds	r2, #27
    1eac:	04db      	lsls	r3, r3, #19
    1eae:	801a      	strh	r2, [r3, #0]
    1eb0:	e7fe      	b.n	0x1eb0
    1eb2:	46c0      	nop			; (mov r8, r8)
    1eb4:	0001      	movs	r1, r0
    1eb6:	0400      	lsls	r0, r0, #16
    1eb8:	2809      	cmp	r0, #9
    1eba:	d803      	bhi.n	0x1ec4
    1ebc:	4b03      	ldr	r3, [pc, #12]	; (0x1ecc)
    1ebe:	0080      	lsls	r0, r0, #2
    1ec0:	58c0      	ldr	r0, [r0, r3]
    1ec2:	4770      	bx	lr
    1ec4:	2001      	movs	r0, #1
    1ec6:	4240      	negs	r0, r0
    1ec8:	e7fb      	b.n	0x1ec2
    1eca:	46c0      	nop			; (mov r8, r8)
    1ecc:	53d0      	strh	r0, [r2, r7]
    1ece:	0800      	lsrs	r0, r0, #32
    1ed0:	b510      	push	{r4, lr}
    1ed2:	7803      	ldrb	r3, [r0, #0]
    1ed4:	079b      	lsls	r3, r3, #30
    1ed6:	d50c      	bpl.n	0x1ef2
    1ed8:	2300      	movs	r3, #0
    1eda:	2200      	movs	r2, #0
    1edc:	3005      	adds	r0, #5
    1ede:	5c81      	ldrb	r1, [r0, r2]
    1ee0:	00d4      	lsls	r4, r2, #3
    1ee2:	40a1      	lsls	r1, r4
    1ee4:	3201      	adds	r2, #1
    1ee6:	430b      	orrs	r3, r1
    1ee8:	2a04      	cmp	r2, #4
    1eea:	d1f8      	bne.n	0x1ede
    1eec:	2001      	movs	r0, #1
    1eee:	4240      	negs	r0, r0
    1ef0:	e001      	b.n	0x1ef6
    1ef2:	7883      	ldrb	r3, [r0, #2]
    1ef4:	20ff      	movs	r0, #255	; 0xff
    1ef6:	4018      	ands	r0, r3
    1ef8:	bc10      	pop	{r4}
    1efa:	bc02      	pop	{r1}
    1efc:	4708      	bx	r1
    1efe:	46c0      	nop			; (mov r8, r8)
    1f00:	b510      	push	{r4, lr}
    1f02:	7803      	ldrb	r3, [r0, #0]
    1f04:	079b      	lsls	r3, r3, #30
    1f06:	d50d      	bpl.n	0x1f24
    1f08:	2300      	movs	r3, #0
    1f0a:	2100      	movs	r1, #0
    1f0c:	1c42      	adds	r2, r0, #1
    1f0e:	5cd0      	ldrb	r0, [r2, r3]
    1f10:	00dc      	lsls	r4, r3, #3
    1f12:	40a0      	lsls	r0, r4
    1f14:	3301      	adds	r3, #1
    1f16:	4301      	orrs	r1, r0
    1f18:	2b04      	cmp	r3, #4
    1f1a:	d1f8      	bne.n	0x1f0e
    1f1c:	0008      	movs	r0, r1
    1f1e:	bc10      	pop	{r4}
    1f20:	bc02      	pop	{r1}
    1f22:	4708      	bx	r1
    1f24:	7841      	ldrb	r1, [r0, #1]
    1f26:	e7f9      	b.n	0x1f1c
    1f28:	7800      	ldrb	r0, [r0, #0]
    1f2a:	0780      	lsls	r0, r0, #30
    1f2c:	17c3      	asrs	r3, r0, #31
    1f2e:	2006      	movs	r0, #6
    1f30:	4018      	ands	r0, r3
    1f32:	3003      	adds	r0, #3
    1f34:	4770      	bx	lr
    1f36:	46c0      	nop			; (mov r8, r8)
    1f38:	b5f0      	push	{r4, r5, r6, r7, lr}
    1f3a:	46de      	mov	lr, fp
    1f3c:	4657      	mov	r7, sl
    1f3e:	464e      	mov	r6, r9
    1f40:	4645      	mov	r5, r8
    1f42:	b5e0      	push	{r5, r6, r7, lr}
    1f44:	b095      	sub	sp, #84	; 0x54
    1f46:	9303      	str	r3, [sp, #12]
    1f48:	1e53      	subs	r3, r2, #1
    1f4a:	9111      	str	r1, [sp, #68]	; 0x44
    1f4c:	920f      	str	r2, [sp, #60]	; 0x3c
    1f4e:	0011      	movs	r1, r2
    1f50:	9312      	str	r3, [sp, #72]	; 0x48
    1f52:	001a      	movs	r2, r3
    1f54:	4bc4      	ldr	r3, [pc, #784]	; (0x2268)
    1f56:	900d      	str	r0, [sp, #52]	; 0x34
    1f58:	429a      	cmp	r2, r3
    1f5a:	d900      	bls.n	0x1f5e
    1f5c:	e232      	b.n	0x23c4
    1f5e:	3396      	adds	r3, #150	; 0x96
    1f60:	33ff      	adds	r3, #255	; 0xff
    1f62:	9310      	str	r3, [sp, #64]	; 0x40
    1f64:	29d7      	cmp	r1, #215	; 0xd7
    1f66:	d900      	bls.n	0x1f6a
    1f68:	e229      	b.n	0x23be
    1f6a:	9a03      	ldr	r2, [sp, #12]
    1f6c:	49bf      	ldr	r1, [pc, #764]	; (0x226c)
    1f6e:	0013      	movs	r3, r2
    1f70:	468c      	mov	ip, r1
    1f72:	48bf      	ldr	r0, [pc, #764]	; (0x2270)
    1f74:	4463      	add	r3, ip
    1f76:	4684      	mov	ip, r0
    1f78:	4462      	add	r2, ip
    1f7a:	0011      	movs	r1, r2
    1f7c:	2200      	movs	r2, #0
    1f7e:	701a      	strb	r2, [r3, #0]
    1f80:	3301      	adds	r3, #1
    1f82:	4299      	cmp	r1, r3
    1f84:	d1fb      	bne.n	0x1f7e
    1f86:	9b10      	ldr	r3, [sp, #64]	; 0x40
    1f88:	469c      	mov	ip, r3
    1f8a:	9c11      	ldr	r4, [sp, #68]	; 0x44
    1f8c:	9b12      	ldr	r3, [sp, #72]	; 0x48
    1f8e:	990d      	ldr	r1, [sp, #52]	; 0x34
    1f90:	4464      	add	r4, ip
    1f92:	000a      	movs	r2, r1
    1f94:	469c      	mov	ip, r3
    1f96:	1d23      	adds	r3, r4, #4
    1f98:	4462      	add	r2, ip
    1f9a:	469b      	mov	fp, r3
    1f9c:	0013      	movs	r3, r2
    1f9e:	3b0a      	subs	r3, #10
    1fa0:	940e      	str	r4, [sp, #56]	; 0x38
    1fa2:	9213      	str	r2, [sp, #76]	; 0x4c
    1fa4:	930a      	str	r3, [sp, #40]	; 0x28
    1fa6:	4299      	cmp	r1, r3
    1fa8:	d900      	bls.n	0x1fac
    1faa:	e263      	b.n	0x2474
    1fac:	468c      	mov	ip, r1
    1fae:	9b0f      	ldr	r3, [sp, #60]	; 0x3c
    1fb0:	085b      	lsrs	r3, r3, #1
    1fb2:	4463      	add	r3, ip
    1fb4:	930c      	str	r3, [sp, #48]	; 0x30
    1fb6:	1f13      	subs	r3, r2, #4
    1fb8:	930b      	str	r3, [sp, #44]	; 0x2c
    1fba:	2380      	movs	r3, #128	; 0x80
    1fbc:	061b      	lsls	r3, r3, #24
    1fbe:	9409      	str	r4, [sp, #36]	; 0x24
    1fc0:	46da      	mov	sl, fp
    1fc2:	4664      	mov	r4, ip
    1fc4:	469b      	mov	fp, r3
    1fc6:	9b0b      	ldr	r3, [sp, #44]	; 0x2c
    1fc8:	1b1b      	subs	r3, r3, r4
    1fca:	2bfe      	cmp	r3, #254	; 0xfe
    1fcc:	dd00      	ble.n	0x1fd0
    1fce:	23fe      	movs	r3, #254	; 0xfe
    1fd0:	3301      	adds	r3, #1
    1fd2:	469c      	mov	ip, r3
    1fd4:	7865      	ldrb	r5, [r4, #1]
    1fd6:	78a3      	ldrb	r3, [r4, #2]
    1fd8:	022d      	lsls	r5, r5, #8
    1fda:	041b      	lsls	r3, r3, #16
    1fdc:	431d      	orrs	r5, r3
    1fde:	7823      	ldrb	r3, [r4, #0]
    1fe0:	431d      	orrs	r5, r3
    1fe2:	0b2b      	lsrs	r3, r5, #12
    1fe4:	406b      	eors	r3, r5
    1fe6:	051b      	lsls	r3, r3, #20
    1fe8:	9e03      	ldr	r6, [sp, #12]
    1fea:	0d1a      	lsrs	r2, r3, #20
    1fec:	4690      	mov	r8, r2
    1fee:	0031      	movs	r1, r6
    1ff0:	4441      	add	r1, r8
    1ff2:	4688      	mov	r8, r1
    1ff4:	4b9d      	ldr	r3, [pc, #628]	; (0x226c)
    1ff6:	4443      	add	r3, r8
    1ff8:	781b      	ldrb	r3, [r3, #0]
    1ffa:	0190      	lsls	r0, r2, #6
    1ffc:	4698      	mov	r8, r3
    1ffe:	1833      	adds	r3, r6, r0
    2000:	685b      	ldr	r3, [r3, #4]
    2002:	9206      	str	r2, [sp, #24]
    2004:	1ea2      	subs	r2, r4, #2
    2006:	9107      	str	r1, [sp, #28]
    2008:	9305      	str	r3, [sp, #20]
    200a:	9202      	str	r2, [sp, #8]
    200c:	0019      	movs	r1, r3
    200e:	4293      	cmp	r3, r2
    2010:	d203      	bcs.n	0x201a
    2012:	4642      	mov	r2, r8
    2014:	2a00      	cmp	r2, #0
    2016:	d000      	beq.n	0x201a
    2018:	e0a5      	b.n	0x2166
    201a:	2300      	movs	r3, #0
    201c:	9301      	str	r3, [sp, #4]
    201e:	9b03      	ldr	r3, [sp, #12]
    2020:	4699      	mov	r9, r3
    2022:	2303      	movs	r3, #3
    2024:	3008      	adds	r0, #8
    2026:	4448      	add	r0, r9
    2028:	4699      	mov	r9, r3
    202a:	45e1      	cmp	r9, ip
    202c:	419b      	sbcs	r3, r3
    202e:	425b      	negs	r3, r3
    2030:	9308      	str	r3, [sp, #32]
    2032:	4663      	mov	r3, ip
    2034:	9304      	str	r3, [sp, #16]
    2036:	9b02      	ldr	r3, [sp, #8]
    2038:	2101      	movs	r1, #1
    203a:	4647      	mov	r7, r8
    203c:	4699      	mov	r9, r3
    203e:	9402      	str	r4, [sp, #8]
    2040:	e003      	b.n	0x204a
    2042:	3101      	adds	r1, #1
    2044:	3004      	adds	r0, #4
    2046:	2910      	cmp	r1, #16
    2048:	d036      	beq.n	0x20b8
    204a:	428f      	cmp	r7, r1
    204c:	d934      	bls.n	0x20b8
    204e:	6802      	ldr	r2, [r0, #0]
    2050:	7853      	ldrb	r3, [r2, #1]
    2052:	7896      	ldrb	r6, [r2, #2]
    2054:	021b      	lsls	r3, r3, #8
    2056:	0436      	lsls	r6, r6, #16
    2058:	4333      	orrs	r3, r6
    205a:	7816      	ldrb	r6, [r2, #0]
    205c:	4333      	orrs	r3, r6
    205e:	42ab      	cmp	r3, r5
    2060:	d1ef      	bne.n	0x2042
    2062:	454a      	cmp	r2, r9
    2064:	d2ed      	bcs.n	0x2042
    2066:	78d3      	ldrb	r3, [r2, #3]
    2068:	469c      	mov	ip, r3
    206a:	9c02      	ldr	r4, [sp, #8]
    206c:	78e3      	ldrb	r3, [r4, #3]
    206e:	459c      	cmp	ip, r3
    2070:	d000      	beq.n	0x2074
    2072:	e180      	b.n	0x2376
    2074:	9b08      	ldr	r3, [sp, #32]
    2076:	2b00      	cmp	r3, #0
    2078:	d100      	bne.n	0x207c
    207a:	e17c      	b.n	0x2376
    207c:	4680      	mov	r8, r0
    207e:	2303      	movs	r3, #3
    2080:	9e04      	ldr	r6, [sp, #16]
    2082:	468c      	mov	ip, r1
    2084:	0010      	movs	r0, r2
    2086:	e001      	b.n	0x208c
    2088:	42b3      	cmp	r3, r6
    208a:	d204      	bcs.n	0x2096
    208c:	3301      	adds	r3, #1
    208e:	5cc1      	ldrb	r1, [r0, r3]
    2090:	5ce2      	ldrb	r2, [r4, r3]
    2092:	4291      	cmp	r1, r2
    2094:	d0f8      	beq.n	0x2088
    2096:	0002      	movs	r2, r0
    2098:	4661      	mov	r1, ip
    209a:	4640      	mov	r0, r8
    209c:	9604      	str	r6, [sp, #16]
    209e:	9402      	str	r4, [sp, #8]
    20a0:	9e01      	ldr	r6, [sp, #4]
    20a2:	429e      	cmp	r6, r3
    20a4:	d35c      	bcc.n	0x2160
    20a6:	d1cc      	bne.n	0x2042
    20a8:	9b05      	ldr	r3, [sp, #20]
    20aa:	4293      	cmp	r3, r2
    20ac:	d2c9      	bcs.n	0x2042
    20ae:	3101      	adds	r1, #1
    20b0:	9205      	str	r2, [sp, #20]
    20b2:	3004      	adds	r0, #4
    20b4:	2910      	cmp	r1, #16
    20b6:	d1c8      	bne.n	0x204a
    20b8:	220f      	movs	r2, #15
    20ba:	9b06      	ldr	r3, [sp, #24]
    20bc:	403a      	ands	r2, r7
    20be:	011b      	lsls	r3, r3, #4
    20c0:	189b      	adds	r3, r3, r2
    20c2:	9a03      	ldr	r2, [sp, #12]
    20c4:	4694      	mov	ip, r2
    20c6:	4969      	ldr	r1, [pc, #420]	; (0x226c)
    20c8:	009b      	lsls	r3, r3, #2
    20ca:	4463      	add	r3, ip
    20cc:	468c      	mov	ip, r1
    20ce:	9c02      	ldr	r4, [sp, #8]
    20d0:	605c      	str	r4, [r3, #4]
    20d2:	9b07      	ldr	r3, [sp, #28]
    20d4:	4463      	add	r3, ip
    20d6:	001a      	movs	r2, r3
    20d8:	003b      	movs	r3, r7
    20da:	3301      	adds	r3, #1
    20dc:	7013      	strb	r3, [r2, #0]
    20de:	9b01      	ldr	r3, [sp, #4]
    20e0:	2b02      	cmp	r3, #2
    20e2:	d904      	bls.n	0x20ee
    20e4:	9b05      	ldr	r3, [sp, #20]
    20e6:	1ae1      	subs	r1, r4, r3
    20e8:	4b62      	ldr	r3, [pc, #392]	; (0x2274)
    20ea:	4299      	cmp	r1, r3
    20ec:	dd68      	ble.n	0x21c0
    20ee:	4652      	mov	r2, sl
    20f0:	7823      	ldrb	r3, [r4, #0]
    20f2:	7013      	strb	r3, [r2, #0]
    20f4:	2301      	movs	r3, #1
    20f6:	469c      	mov	ip, r3
    20f8:	465b      	mov	r3, fp
    20fa:	085b      	lsrs	r3, r3, #1
    20fc:	469b      	mov	fp, r3
    20fe:	3401      	adds	r4, #1
    2100:	44e2      	add	sl, ip
    2102:	465a      	mov	r2, fp
    2104:	2301      	movs	r3, #1
    2106:	4013      	ands	r3, r2
    2108:	9a0a      	ldr	r2, [sp, #40]	; 0x28
    210a:	42a2      	cmp	r2, r4
    210c:	d200      	bcs.n	0x2110
    210e:	e096      	b.n	0x223e
    2110:	2b00      	cmp	r3, #0
    2112:	d100      	bne.n	0x2116
    2114:	e757      	b.n	0x1fc6
    2116:	9b0c      	ldr	r3, [sp, #48]	; 0x30
    2118:	42a3      	cmp	r3, r4
    211a:	d209      	bcs.n	0x2130
    211c:	4652      	mov	r2, sl
    211e:	9b0d      	ldr	r3, [sp, #52]	; 0x34
    2120:	990e      	ldr	r1, [sp, #56]	; 0x38
    2122:	1ae3      	subs	r3, r4, r3
    2124:	1a52      	subs	r2, r2, r1
    2126:	1159      	asrs	r1, r3, #5
    2128:	1a5b      	subs	r3, r3, r1
    212a:	429a      	cmp	r2, r3
    212c:	dd00      	ble.n	0x2130
    212e:	e17d      	b.n	0x242c
    2130:	465b      	mov	r3, fp
    2132:	2280      	movs	r2, #128	; 0x80
    2134:	085b      	lsrs	r3, r3, #1
    2136:	0612      	lsls	r2, r2, #24
    2138:	4313      	orrs	r3, r2
    213a:	9909      	ldr	r1, [sp, #36]	; 0x24
    213c:	041a      	lsls	r2, r3, #16
    213e:	0e12      	lsrs	r2, r2, #24
    2140:	700b      	strb	r3, [r1, #0]
    2142:	704a      	strb	r2, [r1, #1]
    2144:	021a      	lsls	r2, r3, #8
    2146:	0e1b      	lsrs	r3, r3, #24
    2148:	70cb      	strb	r3, [r1, #3]
    214a:	4653      	mov	r3, sl
    214c:	9309      	str	r3, [sp, #36]	; 0x24
    214e:	2304      	movs	r3, #4
    2150:	469c      	mov	ip, r3
    2152:	2380      	movs	r3, #128	; 0x80
    2154:	0e12      	lsrs	r2, r2, #24
    2156:	061b      	lsls	r3, r3, #24
    2158:	708a      	strb	r2, [r1, #2]
    215a:	44e2      	add	sl, ip
    215c:	469b      	mov	fp, r3
    215e:	e732      	b.n	0x1fc6
    2160:	9301      	str	r3, [sp, #4]
    2162:	9205      	str	r2, [sp, #20]
    2164:	e76d      	b.n	0x2042
    2166:	785a      	ldrb	r2, [r3, #1]
    2168:	789b      	ldrb	r3, [r3, #2]
    216a:	0212      	lsls	r2, r2, #8
    216c:	041b      	lsls	r3, r3, #16
    216e:	4313      	orrs	r3, r2
    2170:	780a      	ldrb	r2, [r1, #0]
    2172:	4313      	orrs	r3, r2
    2174:	2200      	movs	r2, #0
    2176:	9201      	str	r2, [sp, #4]
    2178:	42ab      	cmp	r3, r5
    217a:	d000      	beq.n	0x217e
    217c:	e74f      	b.n	0x201e
    217e:	78ca      	ldrb	r2, [r1, #3]
    2180:	2103      	movs	r1, #3
    2182:	78e3      	ldrb	r3, [r4, #3]
    2184:	9101      	str	r1, [sp, #4]
    2186:	429a      	cmp	r2, r3
    2188:	d000      	beq.n	0x218c
    218a:	e748      	b.n	0x201e
    218c:	9e05      	ldr	r6, [sp, #20]
    218e:	7923      	ldrb	r3, [r4, #4]
    2190:	7932      	ldrb	r2, [r6, #4]
    2192:	429a      	cmp	r2, r3
    2194:	d000      	beq.n	0x2198
    2196:	e182      	b.n	0x249e
    2198:	2304      	movs	r3, #4
    219a:	4563      	cmp	r3, ip
    219c:	d300      	bcc.n	0x21a0
    219e:	e17e      	b.n	0x249e
    21a0:	9a02      	ldr	r2, [sp, #8]
    21a2:	4667      	mov	r7, ip
    21a4:	4691      	mov	r9, r2
    21a6:	e001      	b.n	0x21ac
    21a8:	42bb      	cmp	r3, r7
    21aa:	d204      	bcs.n	0x21b6
    21ac:	3301      	adds	r3, #1
    21ae:	5cf1      	ldrb	r1, [r6, r3]
    21b0:	5ce2      	ldrb	r2, [r4, r3]
    21b2:	4291      	cmp	r1, r2
    21b4:	d0f8      	beq.n	0x21a8
    21b6:	464a      	mov	r2, r9
    21b8:	46bc      	mov	ip, r7
    21ba:	9202      	str	r2, [sp, #8]
    21bc:	9301      	str	r3, [sp, #4]
    21be:	e72e      	b.n	0x201e
    21c0:	9b01      	ldr	r3, [sp, #4]
    21c2:	469c      	mov	ip, r3
    21c4:	9803      	ldr	r0, [sp, #12]
    21c6:	1c62      	adds	r2, r4, #1
    21c8:	4464      	add	r4, ip
    21ca:	7853      	ldrb	r3, [r2, #1]
    21cc:	7895      	ldrb	r5, [r2, #2]
    21ce:	021b      	lsls	r3, r3, #8
    21d0:	042d      	lsls	r5, r5, #16
    21d2:	432b      	orrs	r3, r5
    21d4:	7815      	ldrb	r5, [r2, #0]
    21d6:	431d      	orrs	r5, r3
    21d8:	0b2b      	lsrs	r3, r5, #12
    21da:	406b      	eors	r3, r5
    21dc:	4d23      	ldr	r5, [pc, #140]	; (0x226c)
    21de:	46ac      	mov	ip, r5
    21e0:	051b      	lsls	r3, r3, #20
    21e2:	0d1b      	lsrs	r3, r3, #20
    21e4:	18c6      	adds	r6, r0, r3
    21e6:	4466      	add	r6, ip
    21e8:	7835      	ldrb	r5, [r6, #0]
    21ea:	1c6f      	adds	r7, r5, #1
    21ec:	7037      	strb	r7, [r6, #0]
    21ee:	260f      	movs	r6, #15
    21f0:	011b      	lsls	r3, r3, #4
    21f2:	4035      	ands	r5, r6
    21f4:	195b      	adds	r3, r3, r5
    21f6:	009b      	lsls	r3, r3, #2
    21f8:	18c3      	adds	r3, r0, r3
    21fa:	605a      	str	r2, [r3, #4]
    21fc:	3201      	adds	r2, #1
    21fe:	4294      	cmp	r4, r2
    2200:	d1e3      	bne.n	0x21ca
    2202:	465b      	mov	r3, fp
    2204:	2280      	movs	r2, #128	; 0x80
    2206:	085b      	lsrs	r3, r3, #1
    2208:	0612      	lsls	r2, r2, #24
    220a:	431a      	orrs	r2, r3
    220c:	9b01      	ldr	r3, [sp, #4]
    220e:	3b03      	subs	r3, #3
    2210:	4693      	mov	fp, r2
    2212:	425a      	negs	r2, r3
    2214:	415a      	adcs	r2, r3
    2216:	203f      	movs	r0, #63	; 0x3f
    2218:	4288      	cmp	r0, r1
    221a:	d200      	bcs.n	0x221e
    221c:	e0ad      	b.n	0x237a
    221e:	2a00      	cmp	r2, #0
    2220:	d100      	bne.n	0x2224
    2222:	e0aa      	b.n	0x237a
    2224:	4653      	mov	r3, sl
    2226:	0089      	lsls	r1, r1, #2
    2228:	7019      	strb	r1, [r3, #0]
    222a:	2301      	movs	r3, #1
    222c:	465a      	mov	r2, fp
    222e:	469c      	mov	ip, r3
    2230:	2301      	movs	r3, #1
    2232:	4013      	ands	r3, r2
    2234:	9a0a      	ldr	r2, [sp, #40]	; 0x28
    2236:	44e2      	add	sl, ip
    2238:	42a2      	cmp	r2, r4
    223a:	d300      	bcc.n	0x223e
    223c:	e768      	b.n	0x2110
    223e:	46d9      	mov	r9, fp
    2240:	464a      	mov	r2, r9
    2242:	9913      	ldr	r1, [sp, #76]	; 0x4c
    2244:	0852      	lsrs	r2, r2, #1
    2246:	46d3      	mov	fp, sl
    2248:	0010      	movs	r0, r2
    224a:	46a2      	mov	sl, r4
    224c:	42a1      	cmp	r1, r4
    224e:	d342      	bcc.n	0x22d6
    2250:	990f      	ldr	r1, [sp, #60]	; 0x3c
    2252:	468c      	mov	ip, r1
    2254:	9b0d      	ldr	r3, [sp, #52]	; 0x34
    2256:	4463      	add	r3, ip
    2258:	001c      	movs	r4, r3
    225a:	2101      	movs	r1, #1
    225c:	464b      	mov	r3, r9
    225e:	465f      	mov	r7, fp
    2260:	9809      	ldr	r0, [sp, #36]	; 0x24
    2262:	4656      	mov	r6, sl
    2264:	e015      	b.n	0x2292
    2266:	46c0      	nop			; (mov r8, r8)
    2268:	fe6e ffff 			; <UNDEFINED> instruction: 0xfe6effff
    226c:	0004      	movs	r4, r0
    226e:	0004      	movs	r4, r0
    2270:	1004      	asrs	r4, r0, #32
    2272:	0004      	movs	r4, r0
    2274:	fffe 0001 	vaddl.u<illegal width 64>	q8, d14, d1
    2278:	000d      	movs	r5, r1
    227a:	089b      	lsrs	r3, r3, #2
    227c:	4015      	ands	r5, r2
    227e:	469c      	mov	ip, r3
    2280:	0013      	movs	r3, r2
    2282:	7832      	ldrb	r2, [r6, #0]
    2284:	3601      	adds	r6, #1
    2286:	703a      	strb	r2, [r7, #0]
    2288:	46a8      	mov	r8, r5
    228a:	3701      	adds	r7, #1
    228c:	42a6      	cmp	r6, r4
    228e:	d01d      	beq.n	0x22cc
    2290:	085a      	lsrs	r2, r3, #1
    2292:	4219      	tst	r1, r3
    2294:	d0f0      	beq.n	0x2278
    2296:	2380      	movs	r3, #128	; 0x80
    2298:	061b      	lsls	r3, r3, #24
    229a:	431a      	orrs	r2, r3
    229c:	0413      	lsls	r3, r2, #16
    229e:	0e1b      	lsrs	r3, r3, #24
    22a0:	7043      	strb	r3, [r0, #1]
    22a2:	0213      	lsls	r3, r2, #8
    22a4:	0e1b      	lsrs	r3, r3, #24
    22a6:	7083      	strb	r3, [r0, #2]
    22a8:	2380      	movs	r3, #128	; 0x80
    22aa:	059b      	lsls	r3, r3, #22
    22ac:	469c      	mov	ip, r3
    22ae:	2300      	movs	r3, #0
    22b0:	4698      	mov	r8, r3
    22b2:	2380      	movs	r3, #128	; 0x80
    22b4:	7002      	strb	r2, [r0, #0]
    22b6:	0e12      	lsrs	r2, r2, #24
    22b8:	70c2      	strb	r2, [r0, #3]
    22ba:	7832      	ldrb	r2, [r6, #0]
    22bc:	0038      	movs	r0, r7
    22be:	3601      	adds	r6, #1
    22c0:	3704      	adds	r7, #4
    22c2:	703a      	strb	r2, [r7, #0]
    22c4:	05db      	lsls	r3, r3, #23
    22c6:	3701      	adds	r7, #1
    22c8:	42a6      	cmp	r6, r4
    22ca:	d1e1      	bne.n	0x2290
    22cc:	4699      	mov	r9, r3
    22ce:	9009      	str	r0, [sp, #36]	; 0x24
    22d0:	46bb      	mov	fp, r7
    22d2:	4660      	mov	r0, ip
    22d4:	4643      	mov	r3, r8
    22d6:	2b00      	cmp	r3, #0
    22d8:	d107      	bne.n	0x22ea
    22da:	2201      	movs	r2, #1
    22dc:	4649      	mov	r1, r9
    22de:	e000      	b.n	0x22e2
    22e0:	0019      	movs	r1, r3
    22e2:	084b      	lsrs	r3, r1, #1
    22e4:	421a      	tst	r2, r3
    22e6:	d0fb      	beq.n	0x22e0
    22e8:	0888      	lsrs	r0, r1, #2
    22ea:	2380      	movs	r3, #128	; 0x80
    22ec:	061b      	lsls	r3, r3, #24
    22ee:	4318      	orrs	r0, r3
    22f0:	9a09      	ldr	r2, [sp, #36]	; 0x24
    22f2:	0403      	lsls	r3, r0, #16
    22f4:	0e1b      	lsrs	r3, r3, #24
    22f6:	7053      	strb	r3, [r2, #1]
    22f8:	0203      	lsls	r3, r0, #8
    22fa:	0e1b      	lsrs	r3, r3, #24
    22fc:	7093      	strb	r3, [r2, #2]
    22fe:	465b      	mov	r3, fp
    2300:	7010      	strb	r0, [r2, #0]
    2302:	0e00      	lsrs	r0, r0, #24
    2304:	70d0      	strb	r0, [r2, #3]
    2306:	9a0e      	ldr	r2, [sp, #56]	; 0x38
    2308:	1a98      	subs	r0, r3, r2
    230a:	2809      	cmp	r0, #9
    230c:	da00      	bge.n	0x2310
    230e:	2009      	movs	r0, #9
    2310:	9b10      	ldr	r3, [sp, #64]	; 0x40
    2312:	469c      	mov	ip, r3
    2314:	2301      	movs	r3, #1
    2316:	4460      	add	r0, ip
    2318:	2200      	movs	r2, #0
    231a:	9903      	ldr	r1, [sp, #12]
    231c:	600a      	str	r2, [r1, #0]
    231e:	9a0f      	ldr	r2, [sp, #60]	; 0x3c
    2320:	9c10      	ldr	r4, [sp, #64]	; 0x40
    2322:	0601      	lsls	r1, r0, #24
    2324:	0612      	lsls	r2, r2, #24
    2326:	0e09      	lsrs	r1, r1, #24
    2328:	0e12      	lsrs	r2, r2, #24
    232a:	2c03      	cmp	r4, #3
    232c:	d04c      	beq.n	0x23c8
    232e:	2402      	movs	r4, #2
    2330:	4323      	orrs	r3, r4
    2332:	9c11      	ldr	r4, [sp, #68]	; 0x44
    2334:	7061      	strb	r1, [r4, #1]
    2336:	0401      	lsls	r1, r0, #16
    2338:	0e09      	lsrs	r1, r1, #24
    233a:	70a1      	strb	r1, [r4, #2]
    233c:	0201      	lsls	r1, r0, #8
    233e:	0e09      	lsrs	r1, r1, #24
    2340:	70e1      	strb	r1, [r4, #3]
    2342:	0e01      	lsrs	r1, r0, #24
    2344:	7121      	strb	r1, [r4, #4]
    2346:	0021      	movs	r1, r4
    2348:	7162      	strb	r2, [r4, #5]
    234a:	9c0f      	ldr	r4, [sp, #60]	; 0x3c
    234c:	0422      	lsls	r2, r4, #16
    234e:	0e12      	lsrs	r2, r2, #24
    2350:	718a      	strb	r2, [r1, #6]
    2352:	0222      	lsls	r2, r4, #8
    2354:	0e12      	lsrs	r2, r2, #24
    2356:	71ca      	strb	r2, [r1, #7]
    2358:	0e22      	lsrs	r2, r4, #24
    235a:	720a      	strb	r2, [r1, #8]
    235c:	224c      	movs	r2, #76	; 0x4c
    235e:	4313      	orrs	r3, r2
    2360:	9a11      	ldr	r2, [sp, #68]	; 0x44
    2362:	7013      	strb	r3, [r2, #0]
    2364:	b015      	add	sp, #84	; 0x54
    2366:	bc3c      	pop	{r2, r3, r4, r5}
    2368:	4690      	mov	r8, r2
    236a:	4699      	mov	r9, r3
    236c:	46a2      	mov	sl, r4
    236e:	46ab      	mov	fp, r5
    2370:	bcf0      	pop	{r4, r5, r6, r7}
    2372:	bc02      	pop	{r1}
    2374:	4708      	bx	r1
    2376:	2303      	movs	r3, #3
    2378:	e692      	b.n	0x20a0
    237a:	484d      	ldr	r0, [pc, #308]	; (0x24b0)
    237c:	4288      	cmp	r0, r1
    237e:	d301      	bcc.n	0x2384
    2380:	2a00      	cmp	r2, #0
    2382:	d147      	bne.n	0x2414
    2384:	9a01      	ldr	r2, [sp, #4]
    2386:	2a12      	cmp	r2, #18
    2388:	d802      	bhi.n	0x2390
    238a:	4a4a      	ldr	r2, [pc, #296]	; (0x24b4)
    238c:	428a      	cmp	r2, r1
    238e:	d233      	bcs.n	0x23f8
    2390:	9a01      	ldr	r2, [sp, #4]
    2392:	2a21      	cmp	r2, #33	; 0x21
    2394:	d81c      	bhi.n	0x23d0
    2396:	0013      	movs	r3, r2
    2398:	2203      	movs	r2, #3
    239a:	3b02      	subs	r3, #2
    239c:	01c9      	lsls	r1, r1, #7
    239e:	009b      	lsls	r3, r3, #2
    23a0:	430b      	orrs	r3, r1
    23a2:	4313      	orrs	r3, r2
    23a4:	4652      	mov	r2, sl
    23a6:	4651      	mov	r1, sl
    23a8:	7013      	strb	r3, [r2, #0]
    23aa:	041a      	lsls	r2, r3, #16
    23ac:	021b      	lsls	r3, r3, #8
    23ae:	0e1b      	lsrs	r3, r3, #24
    23b0:	708b      	strb	r3, [r1, #2]
    23b2:	2303      	movs	r3, #3
    23b4:	469c      	mov	ip, r3
    23b6:	0e12      	lsrs	r2, r2, #24
    23b8:	704a      	strb	r2, [r1, #1]
    23ba:	44e2      	add	sl, ip
    23bc:	e6a1      	b.n	0x2102
    23be:	3306      	adds	r3, #6
    23c0:	9310      	str	r3, [sp, #64]	; 0x40
    23c2:	e5d2      	b.n	0x1f6a
    23c4:	2000      	movs	r0, #0
    23c6:	e7cd      	b.n	0x2364
    23c8:	9c11      	ldr	r4, [sp, #68]	; 0x44
    23ca:	7061      	strb	r1, [r4, #1]
    23cc:	70a2      	strb	r2, [r4, #2]
    23ce:	e7c5      	b.n	0x235c
    23d0:	01db      	lsls	r3, r3, #7
    23d2:	03c9      	lsls	r1, r1, #15
    23d4:	4319      	orrs	r1, r3
    23d6:	2303      	movs	r3, #3
    23d8:	4319      	orrs	r1, r3
    23da:	4653      	mov	r3, sl
    23dc:	4652      	mov	r2, sl
    23de:	7019      	strb	r1, [r3, #0]
    23e0:	040b      	lsls	r3, r1, #16
    23e2:	0e1b      	lsrs	r3, r3, #24
    23e4:	7053      	strb	r3, [r2, #1]
    23e6:	020b      	lsls	r3, r1, #8
    23e8:	0e1b      	lsrs	r3, r3, #24
    23ea:	7093      	strb	r3, [r2, #2]
    23ec:	2304      	movs	r3, #4
    23ee:	469c      	mov	ip, r3
    23f0:	0e09      	lsrs	r1, r1, #24
    23f2:	70d1      	strb	r1, [r2, #3]
    23f4:	44e2      	add	sl, ip
    23f6:	e684      	b.n	0x2102
    23f8:	2202      	movs	r2, #2
    23fa:	009b      	lsls	r3, r3, #2
    23fc:	0189      	lsls	r1, r1, #6
    23fe:	430b      	orrs	r3, r1
    2400:	4313      	orrs	r3, r2
    2402:	4652      	mov	r2, sl
    2404:	7013      	strb	r3, [r2, #0]
    2406:	041b      	lsls	r3, r3, #16
    2408:	0e1b      	lsrs	r3, r3, #24
    240a:	7053      	strb	r3, [r2, #1]
    240c:	2302      	movs	r3, #2
    240e:	469c      	mov	ip, r3
    2410:	44e2      	add	sl, ip
    2412:	e676      	b.n	0x2102
    2414:	2301      	movs	r3, #1
    2416:	0089      	lsls	r1, r1, #2
    2418:	4319      	orrs	r1, r3
    241a:	4653      	mov	r3, sl
    241c:	7019      	strb	r1, [r3, #0]
    241e:	0409      	lsls	r1, r1, #16
    2420:	0e09      	lsrs	r1, r1, #24
    2422:	7059      	strb	r1, [r3, #1]
    2424:	2302      	movs	r3, #2
    2426:	469c      	mov	ip, r3
    2428:	44e2      	add	sl, ip
    242a:	e66a      	b.n	0x2102
    242c:	9c0e      	ldr	r4, [sp, #56]	; 0x38
    242e:	9d0d      	ldr	r5, [sp, #52]	; 0x34
    2430:	0023      	movs	r3, r4
    2432:	0028      	movs	r0, r5
    2434:	1e5a      	subs	r2, r3, #1
    2436:	4193      	sbcs	r3, r2
    2438:	1e42      	subs	r2, r0, #1
    243a:	4190      	sbcs	r0, r2
    243c:	4018      	ands	r0, r3
    243e:	f7ff fd29 	bl	0x1e94
    2442:	9a0f      	ldr	r2, [sp, #60]	; 0x3c
    2444:	0028      	movs	r0, r5
    2446:	4694      	mov	ip, r2
    2448:	4460      	add	r0, ip
    244a:	0021      	movs	r1, r4
    244c:	4284      	cmp	r4, r0
    244e:	d201      	bcs.n	0x2454
    2450:	42a5      	cmp	r5, r4
    2452:	d31d      	bcc.n	0x2490
    2454:	2300      	movs	r3, #0
    2456:	990e      	ldr	r1, [sp, #56]	; 0x38
    2458:	980d      	ldr	r0, [sp, #52]	; 0x34
    245a:	9c0f      	ldr	r4, [sp, #60]	; 0x3c
    245c:	5cc2      	ldrb	r2, [r0, r3]
    245e:	54ca      	strb	r2, [r1, r3]
    2460:	3301      	adds	r3, #1
    2462:	429c      	cmp	r4, r3
    2464:	d1fa      	bne.n	0x245c
    2466:	9a0f      	ldr	r2, [sp, #60]	; 0x3c
    2468:	4694      	mov	ip, r2
    246a:	9b10      	ldr	r3, [sp, #64]	; 0x40
    246c:	4463      	add	r3, ip
    246e:	0018      	movs	r0, r3
    2470:	2300      	movs	r3, #0
    2472:	e751      	b.n	0x2318
    2474:	9b0d      	ldr	r3, [sp, #52]	; 0x34
    2476:	9a13      	ldr	r2, [sp, #76]	; 0x4c
    2478:	4293      	cmp	r3, r2
    247a:	d813      	bhi.n	0x24a4
    247c:	9b0e      	ldr	r3, [sp, #56]	; 0x38
    247e:	9309      	str	r3, [sp, #36]	; 0x24
    2480:	9b0d      	ldr	r3, [sp, #52]	; 0x34
    2482:	469a      	mov	sl, r3
    2484:	2380      	movs	r3, #128	; 0x80
    2486:	2280      	movs	r2, #128	; 0x80
    2488:	061b      	lsls	r3, r3, #24
    248a:	4699      	mov	r9, r3
    248c:	05d2      	lsls	r2, r2, #23
    248e:	e6df      	b.n	0x2250
    2490:	0028      	movs	r0, r5
    2492:	9b12      	ldr	r3, [sp, #72]	; 0x48
    2494:	5cc2      	ldrb	r2, [r0, r3]
    2496:	54ca      	strb	r2, [r1, r3]
    2498:	3b01      	subs	r3, #1
    249a:	d2fb      	bcs.n	0x2494
    249c:	e7e3      	b.n	0x2466
    249e:	2304      	movs	r3, #4
    24a0:	9301      	str	r3, [sp, #4]
    24a2:	e5bc      	b.n	0x201e
    24a4:	9b0e      	ldr	r3, [sp, #56]	; 0x38
    24a6:	9309      	str	r3, [sp, #36]	; 0x24
    24a8:	2380      	movs	r3, #128	; 0x80
    24aa:	061b      	lsls	r3, r3, #24
    24ac:	4699      	mov	r9, r3
    24ae:	e714      	b.n	0x22da
    24b0:	3fff      	subs	r7, #255	; 0xff
    24b2:	0000      	movs	r0, r0
    24b4:	03ff      	lsls	r7, r7, #15
    24b6:	0000      	movs	r0, r0
    24b8:	b5f0      	push	{r4, r5, r6, r7, lr}
    24ba:	46de      	mov	lr, fp
    24bc:	464e      	mov	r6, r9
    24be:	4645      	mov	r5, r8
    24c0:	4657      	mov	r7, sl
    24c2:	b5e0      	push	{r5, r6, r7, lr}
    24c4:	0004      	movs	r4, r0
    24c6:	b083      	sub	sp, #12
    24c8:	4693      	mov	fp, r2
    24ca:	4688      	mov	r8, r1
    24cc:	f7ff fd00 	bl	0x1ed0
    24d0:	2302      	movs	r3, #2
    24d2:	7822      	ldrb	r2, [r4, #0]
    24d4:	4681      	mov	r9, r0
    24d6:	4013      	ands	r3, r2
    24d8:	07d2      	lsls	r2, r2, #31
    24da:	d431      	bmi.n	0x2540
    24dc:	1e5a      	subs	r2, r3, #1
    24de:	4193      	sbcs	r3, r2
    24e0:	2206      	movs	r2, #6
    24e2:	425b      	negs	r3, r3
    24e4:	4013      	ands	r3, r2
    24e6:	3303      	adds	r3, #3
    24e8:	18e4      	adds	r4, r4, r3
    24ea:	0020      	movs	r0, r4
    24ec:	4643      	mov	r3, r8
    24ee:	1e42      	subs	r2, r0, #1
    24f0:	4190      	sbcs	r0, r2
    24f2:	1e5a      	subs	r2, r3, #1
    24f4:	4193      	sbcs	r3, r2
    24f6:	4018      	ands	r0, r3
    24f8:	f7ff fccc 	bl	0x1e94
    24fc:	464a      	mov	r2, r9
    24fe:	464b      	mov	r3, r9
    2500:	18a2      	adds	r2, r4, r2
    2502:	3b01      	subs	r3, #1
    2504:	4590      	cmp	r8, r2
    2506:	d202      	bcs.n	0x250e
    2508:	4544      	cmp	r4, r8
    250a:	d200      	bcs.n	0x250e
    250c:	e089      	b.n	0x2622
    250e:	464a      	mov	r2, r9
    2510:	2300      	movs	r3, #0
    2512:	4649      	mov	r1, r9
    2514:	4640      	mov	r0, r8
    2516:	2a00      	cmp	r2, #0
    2518:	d005      	beq.n	0x2526
    251a:	5ce2      	ldrb	r2, [r4, r3]
    251c:	54c2      	strb	r2, [r0, r3]
    251e:	3301      	adds	r3, #1
    2520:	4299      	cmp	r1, r3
    2522:	d1fa      	bne.n	0x251a
    2524:	4689      	mov	r9, r1
    2526:	2300      	movs	r3, #0
    2528:	465a      	mov	r2, fp
    252a:	4648      	mov	r0, r9
    252c:	6013      	str	r3, [r2, #0]
    252e:	b003      	add	sp, #12
    2530:	bc3c      	pop	{r2, r3, r4, r5}
    2532:	4690      	mov	r8, r2
    2534:	4699      	mov	r9, r3
    2536:	46a2      	mov	sl, r4
    2538:	46ab      	mov	fp, r5
    253a:	bcf0      	pop	{r4, r5, r6, r7}
    253c:	bc02      	pop	{r1}
    253e:	4708      	bx	r1
    2540:	1e5a      	subs	r2, r3, #1
    2542:	4193      	sbcs	r3, r2
    2544:	2206      	movs	r2, #6
    2546:	425b      	negs	r3, r3
    2548:	4013      	ands	r3, r2
    254a:	3303      	adds	r3, #3
    254c:	18e4      	adds	r4, r4, r3
    254e:	0003      	movs	r3, r0
    2550:	3b01      	subs	r3, #1
    2552:	4443      	add	r3, r8
    2554:	9301      	str	r3, [sp, #4]
    2556:	3b0a      	subs	r3, #10
    2558:	9300      	str	r3, [sp, #0]
    255a:	2301      	movs	r3, #1
    255c:	4647      	mov	r7, r8
    255e:	2501      	movs	r5, #1
    2560:	469a      	mov	sl, r3
    2562:	2d01      	cmp	r5, #1
    2564:	d016      	beq.n	0x2594
    2566:	2600      	movs	r6, #0
    2568:	2200      	movs	r2, #0
    256a:	5ca3      	ldrb	r3, [r4, r2]
    256c:	00d1      	lsls	r1, r2, #3
    256e:	408b      	lsls	r3, r1
    2570:	3201      	adds	r2, #1
    2572:	431e      	orrs	r6, r3
    2574:	2a04      	cmp	r2, #4
    2576:	d1f8      	bne.n	0x256a
    2578:	4653      	mov	r3, sl
    257a:	422b      	tst	r3, r5
    257c:	d01a      	beq.n	0x25b4
    257e:	086d      	lsrs	r5, r5, #1
    2580:	07b3      	lsls	r3, r6, #30
    2582:	d112      	bne.n	0x25aa
    2584:	2603      	movs	r6, #3
    2586:	3401      	adds	r4, #1
    2588:	2000      	movs	r0, #0
    258a:	f7ff fc83 	bl	0x1e94
    258e:	19bf      	adds	r7, r7, r6
    2590:	2d01      	cmp	r5, #1
    2592:	d1e8      	bne.n	0x2566
    2594:	2500      	movs	r5, #0
    2596:	2300      	movs	r3, #0
    2598:	5ce2      	ldrb	r2, [r4, r3]
    259a:	00d9      	lsls	r1, r3, #3
    259c:	408a      	lsls	r2, r1
    259e:	3301      	adds	r3, #1
    25a0:	4315      	orrs	r5, r2
    25a2:	2b04      	cmp	r3, #4
    25a4:	d1f8      	bne.n	0x2598
    25a6:	3404      	adds	r4, #4
    25a8:	e7dd      	b.n	0x2566
    25aa:	07b3      	lsls	r3, r6, #30
    25ac:	d413      	bmi.n	0x25d6
    25ae:	3402      	adds	r4, #2
    25b0:	2603      	movs	r6, #3
    25b2:	e7e9      	b.n	0x2588
    25b4:	9b00      	ldr	r3, [sp, #0]
    25b6:	42bb      	cmp	r3, r7
    25b8:	d91f      	bls.n	0x25fa
    25ba:	4a21      	ldr	r2, [pc, #132]	; (0x2640)
    25bc:	230f      	movs	r3, #15
    25be:	4694      	mov	ip, r2
    25c0:	402b      	ands	r3, r5
    25c2:	009b      	lsls	r3, r3, #2
    25c4:	4463      	add	r3, ip
    25c6:	6a9e      	ldr	r6, [r3, #40]	; 0x28
    25c8:	2000      	movs	r0, #0
    25ca:	f7ff fc63 	bl	0x1e94
    25ce:	40f5      	lsrs	r5, r6
    25d0:	19bf      	adds	r7, r7, r6
    25d2:	19a4      	adds	r4, r4, r6
    25d4:	e7c5      	b.n	0x2562
    25d6:	4653      	mov	r3, sl
    25d8:	4233      	tst	r3, r6
    25da:	d105      	bne.n	0x25e8
    25dc:	230f      	movs	r3, #15
    25de:	08b6      	lsrs	r6, r6, #2
    25e0:	401e      	ands	r6, r3
    25e2:	3603      	adds	r6, #3
    25e4:	3402      	adds	r4, #2
    25e6:	e7cf      	b.n	0x2588
    25e8:	227f      	movs	r2, #127	; 0x7f
    25ea:	4032      	ands	r2, r6
    25ec:	2a03      	cmp	r2, #3
    25ee:	d022      	beq.n	0x2636
    25f0:	0676      	lsls	r6, r6, #25
    25f2:	0ef6      	lsrs	r6, r6, #27
    25f4:	3602      	adds	r6, #2
    25f6:	3403      	adds	r4, #3
    25f8:	e7c6      	b.n	0x2588
    25fa:	4642      	mov	r2, r8
    25fc:	9b01      	ldr	r3, [sp, #4]
    25fe:	444a      	add	r2, r9
    2600:	42bb      	cmp	r3, r7
    2602:	d208      	bcs.n	0x2616
    2604:	e78f      	b.n	0x2526
    2606:	086d      	lsrs	r5, r5, #1
    2608:	7823      	ldrb	r3, [r4, #0]
    260a:	703b      	strb	r3, [r7, #0]
    260c:	3701      	adds	r7, #1
    260e:	3401      	adds	r4, #1
    2610:	4297      	cmp	r7, r2
    2612:	d100      	bne.n	0x2616
    2614:	e787      	b.n	0x2526
    2616:	2d01      	cmp	r5, #1
    2618:	d1f5      	bne.n	0x2606
    261a:	2580      	movs	r5, #128	; 0x80
    261c:	3404      	adds	r4, #4
    261e:	05ed      	lsls	r5, r5, #23
    2620:	e7f2      	b.n	0x2608
    2622:	464a      	mov	r2, r9
    2624:	2a00      	cmp	r2, #0
    2626:	d100      	bne.n	0x262a
    2628:	e77d      	b.n	0x2526
    262a:	4641      	mov	r1, r8
    262c:	5ce2      	ldrb	r2, [r4, r3]
    262e:	54ca      	strb	r2, [r1, r3]
    2630:	3b01      	subs	r3, #1
    2632:	d2fb      	bcs.n	0x262c
    2634:	e777      	b.n	0x2526
    2636:	0476      	lsls	r6, r6, #17
    2638:	0e36      	lsrs	r6, r6, #24
    263a:	3603      	adds	r6, #3
    263c:	3404      	adds	r4, #4
    263e:	e7a3      	b.n	0x2588
    2640:	53d0      	strh	r0, [r2, r7]
    2642:	0800      	lsrs	r0, r0, #32
    2644:	2007      	movs	r0, #7
    2646:	4b10      	ldr	r3, [pc, #64]	; (0x2688)
    2648:	681b      	ldr	r3, [r3, #0]
    264a:	681b      	ldr	r3, [r3, #0]
    264c:	17da      	asrs	r2, r3, #31
    264e:	4010      	ands	r0, r2
    2650:	18c0      	adds	r0, r0, r3
    2652:	b510      	push	{r4, lr}
    2654:	10c0      	asrs	r0, r0, #3
    2656:	4c0d      	ldr	r4, [pc, #52]	; (0x268c)
    2658:	3080      	adds	r0, #128	; 0x80
    265a:	6023      	str	r3, [r4, #0]
    265c:	f7fe fbb4 	bl	0xdc8
    2660:	211f      	movs	r1, #31
    2662:	6823      	ldr	r3, [r4, #0]
    2664:	17da      	asrs	r2, r3, #31
    2666:	4011      	ands	r1, r2
    2668:	18c9      	adds	r1, r1, r3
    266a:	6060      	str	r0, [r4, #4]
    266c:	1149      	asrs	r1, r1, #5
    266e:	331f      	adds	r3, #31
    2670:	db07      	blt.n	0x2682
    2672:	2401      	movs	r4, #1
    2674:	2300      	movs	r3, #0
    2676:	4264      	negs	r4, r4
    2678:	009a      	lsls	r2, r3, #2
    267a:	3301      	adds	r3, #1
    267c:	5084      	str	r4, [r0, r2]
    267e:	428b      	cmp	r3, r1
    2680:	ddfa      	ble.n	0x2678
    2682:	bc10      	pop	{r4}
    2684:	bc01      	pop	{r0}
    2686:	4700      	bx	r0
    2688:	0158      	lsls	r0, r3, #5
    268a:	0300      	lsls	r0, r0, #12
    268c:	00f0      	lsls	r0, r6, #3
    268e:	0300      	lsls	r0, r0, #12
    2690:	b5f0      	push	{r4, r5, r6, r7, lr}
    2692:	46ce      	mov	lr, r9
    2694:	4647      	mov	r7, r8
    2696:	4b38      	ldr	r3, [pc, #224]	; (0x2778)
    2698:	681c      	ldr	r4, [r3, #0]
    269a:	b580      	push	{r7, lr}
    269c:	4699      	mov	r9, r3
    269e:	2c00      	cmp	r4, #0
    26a0:	dd62      	ble.n	0x2768
    26a2:	6858      	ldr	r0, [r3, #4]
    26a4:	6803      	ldr	r3, [r0, #0]
    26a6:	079b      	lsls	r3, r3, #30
    26a8:	0fdb      	lsrs	r3, r3, #31
    26aa:	271f      	movs	r7, #31
    26ac:	2601      	movs	r6, #1
    26ae:	2b00      	cmp	r3, #0
    26b0:	d108      	bne.n	0x26c4
    26b2:	e053      	b.n	0x275c
    26b4:	0039      	movs	r1, r7
    26b6:	115a      	asrs	r2, r3, #5
    26b8:	0092      	lsls	r2, r2, #2
    26ba:	5812      	ldr	r2, [r2, r0]
    26bc:	4019      	ands	r1, r3
    26be:	40ca      	lsrs	r2, r1
    26c0:	4216      	tst	r6, r2
    26c2:	d04b      	beq.n	0x275c
    26c4:	3301      	adds	r3, #1
    26c6:	42a3      	cmp	r3, r4
    26c8:	ddf4      	ble.n	0x26b4
    26ca:	2c03      	cmp	r4, #3
    26cc:	dd4c      	ble.n	0x2768
    26ce:	464b      	mov	r3, r9
    26d0:	685e      	ldr	r6, [r3, #4]
    26d2:	231f      	movs	r3, #31
    26d4:	2002      	movs	r0, #2
    26d6:	469c      	mov	ip, r3
    26d8:	2701      	movs	r7, #1
    26da:	e004      	b.n	0x26e6
    26dc:	3001      	adds	r0, #1
    26de:	0003      	movs	r3, r0
    26e0:	4343      	muls	r3, r0
    26e2:	42a3      	cmp	r3, r4
    26e4:	dc1d      	bgt.n	0x2722
    26e6:	4662      	mov	r2, ip
    26e8:	1143      	asrs	r3, r0, #5
    26ea:	009b      	lsls	r3, r3, #2
    26ec:	599b      	ldr	r3, [r3, r6]
    26ee:	4002      	ands	r2, r0
    26f0:	40d3      	lsrs	r3, r2
    26f2:	421f      	tst	r7, r3
    26f4:	d0f2      	beq.n	0x26dc
    26f6:	0042      	lsls	r2, r0, #1
    26f8:	42a2      	cmp	r2, r4
    26fa:	dcef      	bgt.n	0x26dc
    26fc:	4661      	mov	r1, ip
    26fe:	003d      	movs	r5, r7
    2700:	4011      	ands	r1, r2
    2702:	408d      	lsls	r5, r1
    2704:	0029      	movs	r1, r5
    2706:	1153      	asrs	r3, r2, #5
    2708:	009b      	lsls	r3, r3, #2
    270a:	18f3      	adds	r3, r6, r3
    270c:	681d      	ldr	r5, [r3, #0]
    270e:	1812      	adds	r2, r2, r0
    2710:	438d      	bics	r5, r1
    2712:	601d      	str	r5, [r3, #0]
    2714:	42a2      	cmp	r2, r4
    2716:	ddf1      	ble.n	0x26fc
    2718:	3001      	adds	r0, #1
    271a:	0003      	movs	r3, r0
    271c:	4343      	muls	r3, r0
    271e:	42a3      	cmp	r3, r4
    2720:	dde1      	ble.n	0x26e6
    2722:	2300      	movs	r3, #0
    2724:	464a      	mov	r2, r9
    2726:	6093      	str	r3, [r2, #8]
    2728:	221f      	movs	r2, #31
    272a:	2300      	movs	r3, #0
    272c:	2000      	movs	r0, #0
    272e:	4694      	mov	ip, r2
    2730:	2701      	movs	r7, #1
    2732:	4698      	mov	r8, r3
    2734:	3302      	adds	r3, #2
    2736:	4661      	mov	r1, ip
    2738:	115a      	asrs	r2, r3, #5
    273a:	0092      	lsls	r2, r2, #2
    273c:	5992      	ldr	r2, [r2, r6]
    273e:	4019      	ands	r1, r3
    2740:	40ca      	lsrs	r2, r1
    2742:	4217      	tst	r7, r2
    2744:	d002      	beq.n	0x274c
    2746:	2201      	movs	r2, #1
    2748:	4690      	mov	r8, r2
    274a:	3001      	adds	r0, #1
    274c:	3301      	adds	r3, #1
    274e:	42a3      	cmp	r3, r4
    2750:	ddf1      	ble.n	0x2736
    2752:	4643      	mov	r3, r8
    2754:	2b00      	cmp	r3, #0
    2756:	d001      	beq.n	0x275c
    2758:	464b      	mov	r3, r9
    275a:	6098      	str	r0, [r3, #8]
    275c:	bc0c      	pop	{r2, r3}
    275e:	4690      	mov	r8, r2
    2760:	4699      	mov	r9, r3
    2762:	bcf0      	pop	{r4, r5, r6, r7}
    2764:	bc01      	pop	{r0}
    2766:	4700      	bx	r0
    2768:	2300      	movs	r3, #0
    276a:	464a      	mov	r2, r9
    276c:	6093      	str	r3, [r2, #8]
    276e:	2c01      	cmp	r4, #1
    2770:	ddf4      	ble.n	0x275c
    2772:	6856      	ldr	r6, [r2, #4]
    2774:	e7d8      	b.n	0x2728
    2776:	46c0      	nop			; (mov r8, r8)
    2778:	00f0      	lsls	r0, r6, #3
    277a:	0300      	lsls	r0, r0, #12
    277c:	4b04      	ldr	r3, [pc, #16]	; (0x2790)
    277e:	681b      	ldr	r3, [r3, #0]
    2780:	68d8      	ldr	r0, [r3, #12]
    2782:	4b04      	ldr	r3, [pc, #16]	; (0x2794)
    2784:	689b      	ldr	r3, [r3, #8]
    2786:	1ac0      	subs	r0, r0, r3
    2788:	4243      	negs	r3, r0
    278a:	4158      	adcs	r0, r3
    278c:	4770      	bx	lr
    278e:	46c0      	nop			; (mov r8, r8)
    2790:	0158      	lsls	r0, r3, #5
    2792:	0300      	lsls	r0, r0, #12
    2794:	00f0      	lsls	r0, r6, #3
    2796:	0300      	lsls	r0, r0, #12
    2798:	b5f0      	push	{r4, r5, r6, r7, lr}
    279a:	464f      	mov	r7, r9
    279c:	46d6      	mov	lr, sl
    279e:	4646      	mov	r6, r8
    27a0:	b5c0      	push	{r6, r7, lr}
    27a2:	9f08      	ldr	r7, [sp, #32]
    27a4:	0014      	movs	r4, r2
    27a6:	1c7a      	adds	r2, r7, #1
    27a8:	001d      	movs	r5, r3
    27aa:	0093      	lsls	r3, r2, #2
    27ac:	4680      	mov	r8, r0
    27ae:	0018      	movs	r0, r3
    27b0:	468a      	mov	sl, r1
    27b2:	4699      	mov	r9, r3
    27b4:	f7fe fb08 	bl	0xdc8
    27b8:	2f00      	cmp	r7, #0
    27ba:	db3c      	blt.n	0x2836
    27bc:	464a      	mov	r2, r9
    27be:	0003      	movs	r3, r0
    27c0:	2100      	movs	r1, #0
    27c2:	1812      	adds	r2, r2, r0
    27c4:	c302      	stmia	r3!, {r1}
    27c6:	429a      	cmp	r2, r3
    27c8:	d1fc      	bne.n	0x27c4
    27ca:	2d00      	cmp	r5, #0
    27cc:	dd0f      	ble.n	0x27ee
    27ce:	00ab      	lsls	r3, r5, #2
    27d0:	4443      	add	r3, r8
    27d2:	4641      	mov	r1, r8
    27d4:	469c      	mov	ip, r3
    27d6:	c908      	ldmia	r1!, {r3}
    27d8:	009b      	lsls	r3, r3, #2
    27da:	591b      	ldr	r3, [r3, r4]
    27dc:	009b      	lsls	r3, r3, #2
    27de:	18c3      	adds	r3, r0, r3
    27e0:	681a      	ldr	r2, [r3, #0]
    27e2:	3201      	adds	r2, #1
    27e4:	601a      	str	r2, [r3, #0]
    27e6:	458c      	cmp	ip, r1
    27e8:	d1f5      	bne.n	0x27d6
    27ea:	2f00      	cmp	r7, #0
    27ec:	db0b      	blt.n	0x2806
    27ee:	0001      	movs	r1, r0
    27f0:	2200      	movs	r2, #0
    27f2:	2300      	movs	r3, #0
    27f4:	680e      	ldr	r6, [r1, #0]
    27f6:	46b4      	mov	ip, r6
    27f8:	3301      	adds	r3, #1
    27fa:	c104      	stmia	r1!, {r2}
    27fc:	4462      	add	r2, ip
    27fe:	429f      	cmp	r7, r3
    2800:	daf8      	bge.n	0x27f4
    2802:	2d00      	cmp	r5, #0
    2804:	dd10      	ble.n	0x2828
    2806:	4647      	mov	r7, r8
    2808:	2100      	movs	r1, #0
    280a:	683b      	ldr	r3, [r7, #0]
    280c:	009b      	lsls	r3, r3, #2
    280e:	591b      	ldr	r3, [r3, r4]
    2810:	009b      	lsls	r3, r3, #2
    2812:	18c3      	adds	r3, r0, r3
    2814:	681a      	ldr	r2, [r3, #0]
    2816:	1c56      	adds	r6, r2, #1
    2818:	601e      	str	r6, [r3, #0]
    281a:	4656      	mov	r6, sl
    281c:	cf08      	ldmia	r7!, {r3}
    281e:	0092      	lsls	r2, r2, #2
    2820:	3101      	adds	r1, #1
    2822:	5193      	str	r3, [r2, r6]
    2824:	428d      	cmp	r5, r1
    2826:	dcf0      	bgt.n	0x280a
    2828:	bc1c      	pop	{r2, r3, r4}
    282a:	4690      	mov	r8, r2
    282c:	4699      	mov	r9, r3
    282e:	46a2      	mov	sl, r4
    2830:	bcf0      	pop	{r4, r5, r6, r7}
    2832:	bc01      	pop	{r0}
    2834:	4700      	bx	r0
    2836:	2d00      	cmp	r5, #0
    2838:	dcc9      	bgt.n	0x27ce
    283a:	e7f5      	b.n	0x2828
    283c:	b5f0      	push	{r4, r5, r6, r7, lr}
    283e:	46de      	mov	lr, fp
    2840:	4657      	mov	r7, sl
    2842:	464e      	mov	r6, r9
    2844:	4645      	mov	r5, r8
    2846:	b5e0      	push	{r5, r6, r7, lr}
    2848:	b08f      	sub	sp, #60	; 0x3c
    284a:	910b      	str	r1, [sp, #44]	; 0x2c
    284c:	4682      	mov	sl, r0
    284e:	2103      	movs	r1, #3
    2850:	1c90      	adds	r0, r2, #2
    2852:	0014      	movs	r4, r2
    2854:	930d      	str	r3, [sp, #52]	; 0x34
    2856:	f002 fc27 	bl	0x50a8
    285a:	2103      	movs	r1, #3
    285c:	0005      	movs	r5, r0
    285e:	0020      	movs	r0, r4
    2860:	9409      	str	r4, [sp, #36]	; 0x24
    2862:	f002 fc21 	bl	0x50a8
    2866:	1944      	adds	r4, r0, r5
    2868:	1ce3      	adds	r3, r4, #3
    286a:	009b      	lsls	r3, r3, #2
    286c:	1ca6      	adds	r6, r4, #2
    286e:	00b6      	lsls	r6, r6, #2
    2870:	0018      	movs	r0, r3
    2872:	4699      	mov	r9, r3
    2874:	9408      	str	r4, [sp, #32]
    2876:	f7fe faa7 	bl	0xdc8
    287a:	1f33      	subs	r3, r6, #4
    287c:	4698      	mov	r8, r3
    287e:	0037      	movs	r7, r6
    2880:	2400      	movs	r4, #0
    2882:	4642      	mov	r2, r8
    2884:	3f08      	subs	r7, #8
    2886:	5184      	str	r4, [r0, r6]
    2888:	4683      	mov	fp, r0
    288a:	5084      	str	r4, [r0, r2]
    288c:	51c4      	str	r4, [r0, r7]
    288e:	4648      	mov	r0, r9
    2890:	f7fe fa9a 	bl	0xdc8
    2894:	4642      	mov	r2, r8
    2896:	5184      	str	r4, [r0, r6]
    2898:	5084      	str	r4, [r0, r2]
    289a:	51c4      	str	r4, [r0, r7]
    289c:	00ac      	lsls	r4, r5, #2
    289e:	9007      	str	r0, [sp, #28]
    28a0:	0020      	movs	r0, r4
    28a2:	f7fe fa91 	bl	0xdc8
    28a6:	900c      	str	r0, [sp, #48]	; 0x30
    28a8:	0020      	movs	r0, r4
    28aa:	f7fe fa8d 	bl	0xdc8
    28ae:	9c09      	ldr	r4, [sp, #36]	; 0x24
    28b0:	900a      	str	r0, [sp, #40]	; 0x28
    28b2:	2103      	movs	r1, #3
    28b4:	1c60      	adds	r0, r4, #1
    28b6:	f002 fbf7 	bl	0x50a8
    28ba:	1a2b      	subs	r3, r5, r0
    28bc:	469c      	mov	ip, r3
    28be:	4464      	add	r4, ip
    28c0:	0027      	movs	r7, r4
    28c2:	9303      	str	r3, [sp, #12]
    28c4:	2400      	movs	r4, #0
    28c6:	2600      	movs	r6, #0
    28c8:	2f00      	cmp	r7, #0
    28ca:	dd0f      	ble.n	0x28ec
    28cc:	3401      	adds	r4, #1
    28ce:	42bc      	cmp	r4, r7
    28d0:	d00c      	beq.n	0x28ec
    28d2:	2103      	movs	r1, #3
    28d4:	0020      	movs	r0, r4
    28d6:	f002 fbe3 	bl	0x50a0
    28da:	2900      	cmp	r1, #0
    28dc:	d0f6      	beq.n	0x28cc
    28de:	465a      	mov	r2, fp
    28e0:	00b3      	lsls	r3, r6, #2
    28e2:	509c      	str	r4, [r3, r2]
    28e4:	3401      	adds	r4, #1
    28e6:	3601      	adds	r6, #1
    28e8:	42bc      	cmp	r4, r7
    28ea:	d1f2      	bne.n	0x28d2
    28ec:	4652      	mov	r2, sl
    28ee:	9e08      	ldr	r6, [sp, #32]
    28f0:	9c0d      	ldr	r4, [sp, #52]	; 0x34
    28f2:	9f07      	ldr	r7, [sp, #28]
    28f4:	0033      	movs	r3, r6
    28f6:	3208      	adds	r2, #8
    28f8:	0039      	movs	r1, r7
    28fa:	4658      	mov	r0, fp
    28fc:	9400      	str	r4, [sp, #0]
    28fe:	f7ff ff4b 	bl	0x2798
    2902:	4653      	mov	r3, sl
    2904:	4659      	mov	r1, fp
    2906:	1d1a      	adds	r2, r3, #4
    2908:	0038      	movs	r0, r7
    290a:	0033      	movs	r3, r6
    290c:	9400      	str	r4, [sp, #0]
    290e:	f7ff ff43 	bl	0x2798
    2912:	9400      	str	r4, [sp, #0]
    2914:	0033      	movs	r3, r6
    2916:	4652      	mov	r2, sl
    2918:	0039      	movs	r1, r7
    291a:	4658      	mov	r0, fp
    291c:	f7ff ff3c 	bl	0x2798
    2920:	2e00      	cmp	r6, #0
    2922:	dd5d      	ble.n	0x29e0
    2924:	9a07      	ldr	r2, [sp, #28]
    2926:	4694      	mov	ip, r2
    2928:	9b08      	ldr	r3, [sp, #32]
    292a:	009b      	lsls	r3, r3, #2
    292c:	4463      	add	r3, ip
    292e:	2001      	movs	r0, #1
    2930:	9305      	str	r3, [sp, #20]
    2932:	2300      	movs	r3, #0
    2934:	4240      	negs	r0, r0
    2936:	0016      	movs	r6, r2
    2938:	0001      	movs	r1, r0
    293a:	9004      	str	r0, [sp, #16]
    293c:	001f      	movs	r7, r3
    293e:	9506      	str	r5, [sp, #24]
    2940:	e018      	b.n	0x2974
    2942:	9204      	str	r2, [sp, #16]
    2944:	3701      	adds	r7, #1
    2946:	2103      	movs	r1, #3
    2948:	0028      	movs	r0, r5
    294a:	f002 fbad 	bl	0x50a8
    294e:	2103      	movs	r1, #3
    2950:	0004      	movs	r4, r0
    2952:	0028      	movs	r0, r5
    2954:	f002 fba4 	bl	0x50a0
    2958:	2901      	cmp	r1, #1
    295a:	d002      	beq.n	0x2962
    295c:	9b06      	ldr	r3, [sp, #24]
    295e:	469c      	mov	ip, r3
    2960:	4464      	add	r4, ip
    2962:	465b      	mov	r3, fp
    2964:	00a4      	lsls	r4, r4, #2
    2966:	50e7      	str	r7, [r4, r3]
    2968:	9b05      	ldr	r3, [sp, #20]
    296a:	3604      	adds	r6, #4
    296c:	4641      	mov	r1, r8
    296e:	4648      	mov	r0, r9
    2970:	42b3      	cmp	r3, r6
    2972:	d010      	beq.n	0x2996
    2974:	4652      	mov	r2, sl
    2976:	6835      	ldr	r5, [r6, #0]
    2978:	00ab      	lsls	r3, r5, #2
    297a:	58d2      	ldr	r2, [r2, r3]
    297c:	4453      	add	r3, sl
    297e:	685c      	ldr	r4, [r3, #4]
    2980:	689b      	ldr	r3, [r3, #8]
    2982:	4699      	mov	r9, r3
    2984:	9b04      	ldr	r3, [sp, #16]
    2986:	46a0      	mov	r8, r4
    2988:	429a      	cmp	r2, r3
    298a:	d1da      	bne.n	0x2942
    298c:	42a1      	cmp	r1, r4
    298e:	d1d8      	bne.n	0x2942
    2990:	4548      	cmp	r0, r9
    2992:	d1d6      	bne.n	0x2942
    2994:	e7d7      	b.n	0x2946
    2996:	9b08      	ldr	r3, [sp, #32]
    2998:	9d06      	ldr	r5, [sp, #24]
    299a:	2200      	movs	r2, #0
    299c:	429f      	cmp	r7, r3
    299e:	da00      	bge.n	0x29a2
    29a0:	e0f6      	b.n	0x2b90
    29a2:	4658      	mov	r0, fp
    29a4:	9908      	ldr	r1, [sp, #32]
    29a6:	9c07      	ldr	r4, [sp, #28]
    29a8:	4e84      	ldr	r6, [pc, #528]	; (0x2bbc)
    29aa:	46b4      	mov	ip, r6
    29ac:	0093      	lsls	r3, r2, #2
    29ae:	58c3      	ldr	r3, [r0, r3]
    29b0:	4463      	add	r3, ip
    29b2:	009b      	lsls	r3, r3, #2
    29b4:	511a      	str	r2, [r3, r4]
    29b6:	3201      	adds	r2, #1
    29b8:	4291      	cmp	r1, r2
    29ba:	d1f5      	bne.n	0x29a8
    29bc:	4683      	mov	fp, r0
    29be:	2100      	movs	r1, #0
    29c0:	2300      	movs	r3, #0
    29c2:	9e08      	ldr	r6, [sp, #32]
    29c4:	9f07      	ldr	r7, [sp, #28]
    29c6:	009a      	lsls	r2, r3, #2
    29c8:	58ba      	ldr	r2, [r7, r2]
    29ca:	42aa      	cmp	r2, r5
    29cc:	da05      	bge.n	0x29da
    29ce:	0050      	lsls	r0, r2, #1
    29d0:	1882      	adds	r2, r0, r2
    29d2:	980c      	ldr	r0, [sp, #48]	; 0x30
    29d4:	008c      	lsls	r4, r1, #2
    29d6:	5022      	str	r2, [r4, r0]
    29d8:	3101      	adds	r1, #1
    29da:	3301      	adds	r3, #1
    29dc:	429e      	cmp	r6, r3
    29de:	dcf2      	bgt.n	0x29c6
    29e0:	9b0d      	ldr	r3, [sp, #52]	; 0x34
    29e2:	4652      	mov	r2, sl
    29e4:	9300      	str	r3, [sp, #0]
    29e6:	990a      	ldr	r1, [sp, #40]	; 0x28
    29e8:	002b      	movs	r3, r5
    29ea:	980c      	ldr	r0, [sp, #48]	; 0x30
    29ec:	f7ff fed4 	bl	0x2798
    29f0:	9b09      	ldr	r3, [sp, #36]	; 0x24
    29f2:	2b00      	cmp	r3, #0
    29f4:	dc00      	bgt.n	0x29f8
    29f6:	e0a1      	b.n	0x2b3c
    29f8:	2300      	movs	r3, #0
    29fa:	002a      	movs	r2, r5
    29fc:	9304      	str	r3, [sp, #16]
    29fe:	001d      	movs	r5, r3
    2a00:	465b      	mov	r3, fp
    2a02:	4690      	mov	r8, r2
    2a04:	9306      	str	r3, [sp, #24]
    2a06:	46d3      	mov	fp, sl
    2a08:	e027      	b.n	0x2a5a
    2a0a:	4659      	mov	r1, fp
    2a0c:	0063      	lsls	r3, r4, #1
    2a0e:	191b      	adds	r3, r3, r4
    2a10:	3301      	adds	r3, #1
    2a12:	009a      	lsls	r2, r3, #2
    2a14:	5851      	ldr	r1, [r2, r1]
    2a16:	4444      	add	r4, r8
    2a18:	9a06      	ldr	r2, [sp, #24]
    2a1a:	00a4      	lsls	r4, r4, #2
    2a1c:	0080      	lsls	r0, r0, #2
    2a1e:	58a4      	ldr	r4, [r4, r2]
    2a20:	5880      	ldr	r0, [r0, r2]
    2a22:	42b9      	cmp	r1, r7
    2a24:	db08      	blt.n	0x2a38
    2a26:	0fe2      	lsrs	r2, r4, #31
    2a28:	17c7      	asrs	r7, r0, #31
    2a2a:	42a0      	cmp	r0, r4
    2a2c:	417a      	adcs	r2, r7
    2a2e:	0612      	lsls	r2, r2, #24
    2a30:	d04c      	beq.n	0x2acc
    2a32:	9a05      	ldr	r2, [sp, #20]
    2a34:	4291      	cmp	r1, r2
    2a36:	d149      	bne.n	0x2acc
    2a38:	990b      	ldr	r1, [sp, #44]	; 0x2c
    2a3a:	468c      	mov	ip, r1
    2a3c:	9903      	ldr	r1, [sp, #12]
    2a3e:	00aa      	lsls	r2, r5, #2
    2a40:	9808      	ldr	r0, [sp, #32]
    2a42:	4462      	add	r2, ip
    2a44:	3101      	adds	r1, #1
    2a46:	6013      	str	r3, [r2, #0]
    2a48:	9103      	str	r1, [sp, #12]
    2a4a:	1c6b      	adds	r3, r5, #1
    2a4c:	4288      	cmp	r0, r1
    2a4e:	d100      	bne.n	0x2a52
    2a50:	e07d      	b.n	0x2b4e
    2a52:	001d      	movs	r5, r3
    2a54:	9b09      	ldr	r3, [sp, #36]	; 0x24
    2a56:	42ab      	cmp	r3, r5
    2a58:	dd70      	ble.n	0x2b3c
    2a5a:	9b03      	ldr	r3, [sp, #12]
    2a5c:	009f      	lsls	r7, r3, #2
    2a5e:	9b07      	ldr	r3, [sp, #28]
    2a60:	469c      	mov	ip, r3
    2a62:	003b      	movs	r3, r7
    2a64:	4463      	add	r3, ip
    2a66:	681c      	ldr	r4, [r3, #0]
    2a68:	930c      	str	r3, [sp, #48]	; 0x30
    2a6a:	9b04      	ldr	r3, [sp, #16]
    2a6c:	009e      	lsls	r6, r3, #2
    2a6e:	9b0a      	ldr	r3, [sp, #40]	; 0x28
    2a70:	469c      	mov	ip, r3
    2a72:	4466      	add	r6, ip
    2a74:	6833      	ldr	r3, [r6, #0]
    2a76:	469a      	mov	sl, r3
    2a78:	009b      	lsls	r3, r3, #2
    2a7a:	4699      	mov	r9, r3
    2a7c:	465b      	mov	r3, fp
    2a7e:	464a      	mov	r2, r9
    2a80:	589b      	ldr	r3, [r3, r2]
    2a82:	2103      	movs	r1, #3
    2a84:	4650      	mov	r0, sl
    2a86:	001f      	movs	r7, r3
    2a88:	9305      	str	r3, [sp, #20]
    2a8a:	f002 fb0d 	bl	0x50a8
    2a8e:	4544      	cmp	r4, r8
    2a90:	dbbb      	blt.n	0x2a0a
    2a92:	4643      	mov	r3, r8
    2a94:	465f      	mov	r7, fp
    2a96:	1ae4      	subs	r4, r4, r3
    2a98:	0061      	lsls	r1, r4, #1
    2a9a:	1909      	adds	r1, r1, r4
    2a9c:	1c8b      	adds	r3, r1, #2
    2a9e:	3103      	adds	r1, #3
    2aa0:	009a      	lsls	r2, r3, #2
    2aa2:	0089      	lsls	r1, r1, #2
    2aa4:	59d2      	ldr	r2, [r2, r7]
    2aa6:	59c9      	ldr	r1, [r1, r7]
    2aa8:	3401      	adds	r4, #1
    2aaa:	9f06      	ldr	r7, [sp, #24]
    2aac:	00a4      	lsls	r4, r4, #2
    2aae:	44d9      	add	r9, fp
    2ab0:	59e4      	ldr	r4, [r4, r7]
    2ab2:	464f      	mov	r7, r9
    2ab4:	687f      	ldr	r7, [r7, #4]
    2ab6:	4440      	add	r0, r8
    2ab8:	46bc      	mov	ip, r7
    2aba:	9f06      	ldr	r7, [sp, #24]
    2abc:	0080      	lsls	r0, r0, #2
    2abe:	59c0      	ldr	r0, [r0, r7]
    2ac0:	9f05      	ldr	r7, [sp, #20]
    2ac2:	42ba      	cmp	r2, r7
    2ac4:	dbb8      	blt.n	0x2a38
    2ac6:	9f05      	ldr	r7, [sp, #20]
    2ac8:	42ba      	cmp	r2, r7
    2aca:	d055      	beq.n	0x2b78
    2acc:	9b0b      	ldr	r3, [sp, #44]	; 0x2c
    2ace:	469c      	mov	ip, r3
    2ad0:	4653      	mov	r3, sl
    2ad2:	00a8      	lsls	r0, r5, #2
    2ad4:	4460      	add	r0, ip
    2ad6:	6003      	str	r3, [r0, #0]
    2ad8:	9b04      	ldr	r3, [sp, #16]
    2ada:	3301      	adds	r3, #1
    2adc:	001a      	movs	r2, r3
    2ade:	9304      	str	r3, [sp, #16]
    2ae0:	1c6b      	adds	r3, r5, #1
    2ae2:	4590      	cmp	r8, r2
    2ae4:	d1b5      	bne.n	0x2a52
    2ae6:	9a08      	ldr	r2, [sp, #32]
    2ae8:	9903      	ldr	r1, [sp, #12]
    2aea:	428a      	cmp	r2, r1
    2aec:	dd63      	ble.n	0x2bb6
    2aee:	9903      	ldr	r1, [sp, #12]
    2af0:	9a08      	ldr	r2, [sp, #32]
    2af2:	1a54      	subs	r4, r2, r1
    2af4:	00a4      	lsls	r4, r4, #2
    2af6:	3004      	adds	r0, #4
    2af8:	2100      	movs	r1, #0
    2afa:	9f0c      	ldr	r7, [sp, #48]	; 0x30
    2afc:	4646      	mov	r6, r8
    2afe:	e006      	b.n	0x2b0e
    2b00:	006a      	lsls	r2, r5, #1
    2b02:	1952      	adds	r2, r2, r5
    2b04:	3201      	adds	r2, #1
    2b06:	5042      	str	r2, [r0, r1]
    2b08:	3104      	adds	r1, #4
    2b0a:	428c      	cmp	r4, r1
    2b0c:	d00a      	beq.n	0x2b24
    2b0e:	587d      	ldr	r5, [r7, r1]
    2b10:	42b5      	cmp	r5, r6
    2b12:	dbf5      	blt.n	0x2b00
    2b14:	1bad      	subs	r5, r5, r6
    2b16:	006a      	lsls	r2, r5, #1
    2b18:	1952      	adds	r2, r2, r5
    2b1a:	3202      	adds	r2, #2
    2b1c:	5042      	str	r2, [r0, r1]
    2b1e:	3104      	adds	r1, #4
    2b20:	428c      	cmp	r4, r1
    2b22:	d1f4      	bne.n	0x2b0e
    2b24:	9a03      	ldr	r2, [sp, #12]
    2b26:	1a9b      	subs	r3, r3, r2
    2b28:	9a08      	ldr	r2, [sp, #32]
    2b2a:	4694      	mov	ip, r2
    2b2c:	4463      	add	r3, ip
    2b2e:	3301      	adds	r3, #1
    2b30:	001d      	movs	r5, r3
    2b32:	9b09      	ldr	r3, [sp, #36]	; 0x24
    2b34:	46b0      	mov	r8, r6
    2b36:	9203      	str	r2, [sp, #12]
    2b38:	42ab      	cmp	r3, r5
    2b3a:	dc8e      	bgt.n	0x2a5a
    2b3c:	b00f      	add	sp, #60	; 0x3c
    2b3e:	bc3c      	pop	{r2, r3, r4, r5}
    2b40:	4690      	mov	r8, r2
    2b42:	4699      	mov	r9, r3
    2b44:	46a2      	mov	sl, r4
    2b46:	46ab      	mov	fp, r5
    2b48:	bcf0      	pop	{r4, r5, r6, r7}
    2b4a:	bc01      	pop	{r0}
    2b4c:	4700      	bx	r0
    2b4e:	9904      	ldr	r1, [sp, #16]
    2b50:	4588      	cmp	r8, r1
    2b52:	dd30      	ble.n	0x2bb6
    2b54:	4641      	mov	r1, r8
    2b56:	9804      	ldr	r0, [sp, #16]
    2b58:	1a08      	subs	r0, r1, r0
    2b5a:	1d11      	adds	r1, r2, #4
    2b5c:	2200      	movs	r2, #0
    2b5e:	0080      	lsls	r0, r0, #2
    2b60:	58b4      	ldr	r4, [r6, r2]
    2b62:	508c      	str	r4, [r1, r2]
    2b64:	3204      	adds	r2, #4
    2b66:	4290      	cmp	r0, r2
    2b68:	d1fa      	bne.n	0x2b60
    2b6a:	9a04      	ldr	r2, [sp, #16]
    2b6c:	1a9b      	subs	r3, r3, r2
    2b6e:	4642      	mov	r2, r8
    2b70:	4443      	add	r3, r8
    2b72:	3301      	adds	r3, #1
    2b74:	9204      	str	r2, [sp, #16]
    2b76:	e76c      	b.n	0x2a52
    2b78:	4561      	cmp	r1, ip
    2b7a:	da00      	bge.n	0x2b7e
    2b7c:	e75c      	b.n	0x2a38
    2b7e:	d1a5      	bne.n	0x2acc
    2b80:	0fe2      	lsrs	r2, r4, #31
    2b82:	17c1      	asrs	r1, r0, #31
    2b84:	42a0      	cmp	r0, r4
    2b86:	414a      	adcs	r2, r1
    2b88:	0612      	lsls	r2, r2, #24
    2b8a:	d000      	beq.n	0x2b8e
    2b8c:	e754      	b.n	0x2a38
    2b8e:	e79d      	b.n	0x2acc
    2b90:	9e08      	ldr	r6, [sp, #32]
    2b92:	9c07      	ldr	r4, [sp, #28]
    2b94:	003b      	movs	r3, r7
    2b96:	0021      	movs	r1, r4
    2b98:	4658      	mov	r0, fp
    2b9a:	0032      	movs	r2, r6
    2b9c:	f7ff fe4e 	bl	0x283c
    2ba0:	2300      	movs	r3, #0
    2ba2:	0031      	movs	r1, r6
    2ba4:	4658      	mov	r0, fp
    2ba6:	009a      	lsls	r2, r3, #2
    2ba8:	58a2      	ldr	r2, [r4, r2]
    2baa:	3301      	adds	r3, #1
    2bac:	0092      	lsls	r2, r2, #2
    2bae:	5083      	str	r3, [r0, r2]
    2bb0:	428b      	cmp	r3, r1
    2bb2:	d1f8      	bne.n	0x2ba6
    2bb4:	e702      	b.n	0x29bc
    2bb6:	1cab      	adds	r3, r5, #2
    2bb8:	e74b      	b.n	0x2a52
    2bba:	46c0      	nop			; (mov r8, r8)
    2bbc:	ffff 3fff 			; <UNDEFINED> instruction: 0xffff3fff
    2bc0:	b5f8      	push	{r3, r4, r5, r6, r7, lr}
    2bc2:	4b13      	ldr	r3, [pc, #76]	; (0x2c10)
    2bc4:	681b      	ldr	r3, [r3, #0]
    2bc6:	4d13      	ldr	r5, [pc, #76]	; (0x2c14)
    2bc8:	681b      	ldr	r3, [r3, #0]
    2bca:	2001      	movs	r0, #1
    2bcc:	602b      	str	r3, [r5, #0]
    2bce:	f7fe f933 	bl	0xe38
    2bd2:	6828      	ldr	r0, [r5, #0]
    2bd4:	300a      	adds	r0, #10
    2bd6:	0080      	lsls	r0, r0, #2
    2bd8:	f7fe f8f6 	bl	0xdc8
    2bdc:	6068      	str	r0, [r5, #4]
    2bde:	6828      	ldr	r0, [r5, #0]
    2be0:	300a      	adds	r0, #10
    2be2:	0080      	lsls	r0, r0, #2
    2be4:	f7fe f8f0 	bl	0xdc8
    2be8:	682b      	ldr	r3, [r5, #0]
    2bea:	60a8      	str	r0, [r5, #8]
    2bec:	2b00      	cmp	r3, #0
    2bee:	dd0c      	ble.n	0x2c0a
    2bf0:	2400      	movs	r4, #0
    2bf2:	f7fe f929 	bl	0xe48
    2bf6:	211a      	movs	r1, #26
    2bf8:	f002 fa52 	bl	0x50a0
    2bfc:	686e      	ldr	r6, [r5, #4]
    2bfe:	682b      	ldr	r3, [r5, #0]
    2c00:	00a7      	lsls	r7, r4, #2
    2c02:	3401      	adds	r4, #1
    2c04:	51b9      	str	r1, [r7, r6]
    2c06:	42a3      	cmp	r3, r4
    2c08:	dcf3      	bgt.n	0x2bf2
    2c0a:	bcf8      	pop	{r3, r4, r5, r6, r7}
    2c0c:	bc01      	pop	{r0}
    2c0e:	4700      	bx	r0
    2c10:	0158      	lsls	r0, r3, #5
    2c12:	0300      	lsls	r0, r0, #12
    2c14:	00fc      	lsls	r4, r7, #3
    2c16:	0300      	lsls	r0, r0, #12
    2c18:	b510      	push	{r4, lr}
    2c1a:	4b05      	ldr	r3, [pc, #20]	; (0x2c30)
    2c1c:	681a      	ldr	r2, [r3, #0]
    2c1e:	3304      	adds	r3, #4
    2c20:	cb03      	ldmia	r3!, {r0, r1}
    2c22:	231a      	movs	r3, #26
    2c24:	f7ff fe0a 	bl	0x283c
    2c28:	bc10      	pop	{r4}
    2c2a:	bc01      	pop	{r0}
    2c2c:	4700      	bx	r0
    2c2e:	46c0      	nop			; (mov r8, r8)
    2c30:	00fc      	lsls	r4, r7, #3
    2c32:	0300      	lsls	r0, r0, #12
    2c34:	4b08      	ldr	r3, [pc, #32]	; (0x2c58)
    2c36:	6819      	ldr	r1, [r3, #0]
    2c38:	6898      	ldr	r0, [r3, #8]
    2c3a:	0089      	lsls	r1, r1, #2
    2c3c:	b510      	push	{r4, lr}
    2c3e:	1841      	adds	r1, r0, r1
    2c40:	f7fe f914 	bl	0xe6c
    2c44:	4b05      	ldr	r3, [pc, #20]	; (0x2c5c)
    2c46:	681b      	ldr	r3, [r3, #0]
    2c48:	68db      	ldr	r3, [r3, #12]
    2c4a:	1a18      	subs	r0, r3, r0
    2c4c:	4243      	negs	r3, r0
    2c4e:	4158      	adcs	r0, r3
    2c50:	bc10      	pop	{r4}
    2c52:	bc02      	pop	{r1}
    2c54:	4708      	bx	r1
    2c56:	46c0      	nop			; (mov r8, r8)
    2c58:	00fc      	lsls	r4, r7, #3
    2c5a:	0300      	lsls	r0, r0, #12
    2c5c:	0158      	lsls	r0, r3, #5
    2c5e:	0300      	lsls	r0, r0, #12
    2c60:	2001      	movs	r0, #1
    2c62:	e251      	b.n	0x3108
    2c64:	ff1e 012f 	vrhadd.u16	d0, d14, d31
    2c68:	0036      	movs	r6, r6
    2c6a:	3a00      	subs	r2, #0
    2c6c:	0001      	movs	r1, r0
    2c6e:	e150      	b.n	0x2f12
    2c70:	0022      	movs	r2, r4
    2c72:	9a00      	ldr	r2, [sp, #0]
    2c74:	0002      	movs	r2, r0
    2c76:	e111      	b.n	0x2e9c
    2c78:	0023      	movs	r3, r4
    2c7a:	0a00      	lsrs	r0, r0, #8
    2c7c:	020e      	lsls	r6, r1, #8
    2c7e:	e311      	b.n	0x32a4
    2c80:	1181      	asrs	r1, r0, #6
    2c82:	01a0      	lsls	r0, r4, #6
    2c84:	3008      	adds	r0, #8
    2c86:	03a0      	lsls	r0, r4, #14
    2c88:	3001      	adds	r0, #1
    2c8a:	13a0      	asrs	r0, r4, #14
    2c8c:	0201      	lsls	r1, r0, #8
    2c8e:	e351      	b.n	0x3334
    2c90:	0000      	movs	r0, r0
    2c92:	3151      	adds	r1, #81	; 0x51
    2c94:	1201      	asrs	r1, r0, #8
    2c96:	31a0      	adds	r1, #160	; 0xa0
    2c98:	3203      	adds	r2, #3
    2c9a:	31a0      	adds	r1, #160	; 0xa0
    2c9c:	fffa 3aff 			; <UNDEFINED> instruction: 0xfffa3aff
    2ca0:	0102      	lsls	r2, r0, #4
    2ca2:	e351      	b.n	0x3348
    2ca4:	0000      	movs	r0, r0
    2ca6:	3151      	adds	r1, #81	; 0x51
    2ca8:	1081      	asrs	r1, r0, #2
    2caa:	31a0      	adds	r1, #160	; 0xa0
    2cac:	3083      	adds	r0, #131	; 0x83
    2cae:	31a0      	adds	r1, #160	; 0xa0
    2cb0:	fffa 3aff 			; <UNDEFINED> instruction: 0xfffa3aff
    2cb4:	2000      	movs	r0, #0
    2cb6:	e3a0      	b.n	0x33fa
    2cb8:	0001      	movs	r1, r0
    2cba:	e150      	b.n	0x2f5e
    2cbc:	0001      	movs	r1, r0
    2cbe:	2040      	movs	r0, #64	; 0x40
    2cc0:	2003      	movs	r0, #3
    2cc2:	2182      	movs	r1, #130	; 0x82
    2cc4:	00a1      	lsls	r1, r4, #2
    2cc6:	e150      	b.n	0x2f6a
    2cc8:	00a1      	lsls	r1, r4, #2
    2cca:	2040      	movs	r0, #64	; 0x40
    2ccc:	20a3      	movs	r0, #163	; 0xa3
    2cce:	2182      	movs	r1, #130	; 0x82
    2cd0:	0121      	lsls	r1, r4, #4
    2cd2:	e150      	b.n	0x2f76
    2cd4:	0121      	lsls	r1, r4, #4
    2cd6:	2040      	movs	r0, #64	; 0x40
    2cd8:	2123      	movs	r1, #35	; 0x23
    2cda:	2182      	movs	r1, #130	; 0x82
    2cdc:	01a1      	lsls	r1, r4, #6
    2cde:	e150      	b.n	0x2f82
    2ce0:	01a1      	lsls	r1, r4, #6
    2ce2:	2040      	movs	r0, #64	; 0x40
    2ce4:	21a3      	movs	r1, #163	; 0xa3
    2ce6:	2182      	movs	r1, #130	; 0x82
    2ce8:	0000      	movs	r0, r0
    2cea:	e350      	b.n	0x338e
    2cec:	3223      	adds	r2, #35	; 0x23
    2cee:	11b0      	asrs	r0, r6, #6
    2cf0:	1221      	asrs	r1, r4, #8
    2cf2:	11a0      	asrs	r0, r4, #6
    2cf4:	ffef 1aff 			; <UNDEFINED> instruction: 0xffef1aff
    2cf8:	0002      	movs	r2, r0
    2cfa:	e1a0      	b.n	0x303e
    2cfc:	ff1e e12f 	vrhadd.u16	d14, d14, d31
    2d00:	0001      	movs	r1, r0
    2d02:	03a0      	lsls	r0, r4, #14
    2d04:	0000      	movs	r0, r0
    2d06:	13a0      	asrs	r0, r4, #14
    2d08:	ff1e e12f 	vrhadd.u16	d14, d14, d31
    2d0c:	0801      	lsrs	r1, r0, #32
    2d0e:	e351      	b.n	0x33b4
    2d10:	1821      	adds	r1, r4, r0
    2d12:	21a0      	movs	r1, #160	; 0xa0
    2d14:	2010      	movs	r0, #16
    2d16:	23a0      	movs	r3, #160	; 0xa0
    2d18:	2000      	movs	r0, #0
    2d1a:	33a0      	adds	r3, #160	; 0xa0
    2d1c:	0c01      	lsrs	r1, r0, #16
    2d1e:	e351      	b.n	0x33c4
    2d20:	1421      	asrs	r1, r4, #16
    2d22:	21a0      	movs	r1, #160	; 0xa0
    2d24:	2008      	movs	r0, #8
    2d26:	2282      	movs	r2, #130	; 0x82
    2d28:	0010      	movs	r0, r2
    2d2a:	e351      	b.n	0x33d0
    2d2c:	1221      	asrs	r1, r4, #8
    2d2e:	21a0      	movs	r1, #160	; 0xa0
    2d30:	2004      	movs	r0, #4
    2d32:	2282      	movs	r2, #130	; 0x82
    2d34:	0004      	movs	r4, r0
    2d36:	e351      	b.n	0x33dc
    2d38:	2003      	movs	r0, #3
    2d3a:	8282      	strh	r2, [r0, #20]
    2d3c:	20a1      	movs	r0, #161	; 0xa1
    2d3e:	9082      	str	r0, [sp, #520]	; 0x208
    2d40:	0230      	lsls	r0, r6, #8
    2d42:	e1a0      	b.n	0x3086
    2d44:	ff1e e12f 	vrhadd.u16	d14, d14, d31
    2d48:	0000      	movs	r0, r0
    2d4a:	e350      	b.n	0x33ee
    2d4c:	0000      	movs	r0, r0
    2d4e:	13e0      	asrs	r0, r4, #15
    2d50:	0059      	lsls	r1, r3, #1
    2d52:	ea00 0000 	and.w	r0, r0, r0
    2d56:	e351      	b.n	0x33fc
    2d58:	fffa 0aff 			; <UNDEFINED> instruction: 0xfffa0aff
    2d5c:	4003      	ands	r3, r0
    2d5e:	e92d ffbe 	stmdb	sp!, {r1, r2, r3, r4, r5, r7, r8, r9, sl, fp, ip, sp, lr, pc}
    2d62:	ebff 4006 			; <UNDEFINED> instruction: 0xebff4006
    2d66:	e8bd 0092 	ldmia.w	sp!, {r1, r4, r7}
    2d6a:	e003      	b.n	0x2d74
    2d6c:	1003      	asrs	r3, r0, #32
    2d6e:	e041      	b.n	0x2df4
    2d70:	ff1e e12f 	vrhadd.u16	d14, d14, d31
    2d74:	0000      	movs	r0, r0
    2d76:	e351      	b.n	0x341c
    2d78:	0043      	lsls	r3, r0, #1
    2d7a:	0a00      	lsrs	r0, r0, #8
    2d7c:	c001      	stmia	r0!, {r0}
    2d7e:	e020      	b.n	0x2dc2
    2d80:	1000      	asrs	r0, r0, #32
    2d82:	4261      	negs	r1, r4
    2d84:	2001      	movs	r0, #1
    2d86:	e251      	b.n	0x322c
    2d88:	0027      	movs	r7, r4
    2d8a:	0a00      	lsrs	r0, r0, #8
    2d8c:	3000      	adds	r0, #0
    2d8e:	e1b0      	b.n	0x30f2
    2d90:	3000      	adds	r0, #0
    2d92:	4260      	negs	r0, r4
    2d94:	0001      	movs	r1, r0
    2d96:	e153      	b.n	0x3040
    2d98:	0026      	movs	r6, r4
    2d9a:	9a00      	ldr	r2, [sp, #0]
    2d9c:	0002      	movs	r2, r0
    2d9e:	e111      	b.n	0x2fc4
    2da0:	0028      	movs	r0, r5
    2da2:	0a00      	lsrs	r0, r0, #8
    2da4:	020e      	lsls	r6, r1, #8
    2da6:	e311      	b.n	0x33cc
    2da8:	1181      	asrs	r1, r0, #6
    2daa:	01a0      	lsls	r0, r4, #6
    2dac:	2008      	movs	r0, #8
    2dae:	03a0      	lsls	r0, r4, #14
    2db0:	2001      	movs	r0, #1
    2db2:	13a0      	asrs	r0, r4, #14
    2db4:	0201      	lsls	r1, r0, #8
    2db6:	e351      	b.n	0x345c
    2db8:	0003      	movs	r3, r0
    2dba:	3151      	adds	r1, #81	; 0x51
    2dbc:	1201      	asrs	r1, r0, #8
    2dbe:	31a0      	adds	r1, #160	; 0xa0
    2dc0:	2202      	movs	r2, #2
    2dc2:	31a0      	adds	r1, #160	; 0xa0
    2dc4:	fffa 3aff 			; <UNDEFINED> instruction: 0xfffa3aff
    2dc8:	0102      	lsls	r2, r0, #4
    2dca:	e351      	b.n	0x3470
    2dcc:	0003      	movs	r3, r0
    2dce:	3151      	adds	r1, #81	; 0x51
    2dd0:	1081      	asrs	r1, r0, #2
    2dd2:	31a0      	adds	r1, #160	; 0xa0
    2dd4:	2082      	movs	r0, #130	; 0x82
    2dd6:	31a0      	adds	r1, #160	; 0xa0
    2dd8:	fffa 3aff 			; <UNDEFINED> instruction: 0xfffa3aff
    2ddc:	0000      	movs	r0, r0
    2dde:	e3a0      	b.n	0x3522
    2de0:	0001      	movs	r1, r0
    2de2:	e153      	b.n	0x308c
    2de4:	3001      	adds	r0, #1
    2de6:	2043      	movs	r0, #67	; 0x43
    2de8:	0002      	movs	r2, r0
    2dea:	2180      	movs	r1, #128	; 0x80
    2dec:	00a1      	lsls	r1, r4, #2
    2dee:	e153      	b.n	0x3098
    2df0:	30a1      	adds	r0, #161	; 0xa1
    2df2:	2043      	movs	r0, #67	; 0x43
    2df4:	00a2      	lsls	r2, r4, #2
    2df6:	2180      	movs	r1, #128	; 0x80
    2df8:	0121      	lsls	r1, r4, #4
    2dfa:	e153      	b.n	0x30a4
    2dfc:	3121      	adds	r1, #33	; 0x21
    2dfe:	2043      	movs	r0, #67	; 0x43
    2e00:	0122      	lsls	r2, r4, #4
    2e02:	2180      	movs	r1, #128	; 0x80
    2e04:	01a1      	lsls	r1, r4, #6
    2e06:	e153      	b.n	0x30b0
    2e08:	31a1      	adds	r1, #161	; 0xa1
    2e0a:	2043      	movs	r0, #67	; 0x43
    2e0c:	01a2      	lsls	r2, r4, #6
    2e0e:	2180      	movs	r1, #128	; 0x80
    2e10:	0000      	movs	r0, r0
    2e12:	e353      	b.n	0x34bc
    2e14:	2222      	movs	r2, #34	; 0x22
    2e16:	11b0      	asrs	r0, r6, #6
    2e18:	1221      	asrs	r1, r4, #8
    2e1a:	11a0      	asrs	r0, r4, #6
    2e1c:	ffef 1aff 			; <UNDEFINED> instruction: 0xffef1aff
    2e20:	0000      	movs	r0, r0
    2e22:	e35c      	b.n	0x34de
    2e24:	0000      	movs	r0, r0
    2e26:	4260      	negs	r0, r4
    2e28:	ff1e e12f 	vrhadd.u16	d14, d14, d31
    2e2c:	0000      	movs	r0, r0
    2e2e:	e13c      	b.n	0x30aa
    2e30:	0000      	movs	r0, r0
    2e32:	4260      	negs	r0, r4
    2e34:	ff1e e12f 	vrhadd.u16	d14, d14, d31
    2e38:	0000      	movs	r0, r0
    2e3a:	33a0      	adds	r3, #160	; 0xa0
    2e3c:	0fcc      	lsrs	r4, r1, #31
    2e3e:	01a0      	lsls	r0, r4, #6
    2e40:	0001      	movs	r1, r0
    2e42:	0380      	lsls	r0, r0, #14
    2e44:	ff1e e12f 	vrhadd.u16	d14, d14, d31
    2e48:	0801      	lsrs	r1, r0, #32
    2e4a:	e351      	b.n	0x34f0
    2e4c:	1821      	adds	r1, r4, r0
    2e4e:	21a0      	movs	r1, #160	; 0xa0
    2e50:	2010      	movs	r0, #16
    2e52:	23a0      	movs	r3, #160	; 0xa0
    2e54:	2000      	movs	r0, #0
    2e56:	33a0      	adds	r3, #160	; 0xa0
    2e58:	0c01      	lsrs	r1, r0, #16
    2e5a:	e351      	b.n	0x3500
    2e5c:	1421      	asrs	r1, r4, #16
    2e5e:	21a0      	movs	r1, #160	; 0xa0
    2e60:	2008      	movs	r0, #8
    2e62:	2282      	movs	r2, #130	; 0x82
    2e64:	0010      	movs	r0, r2
    2e66:	e351      	b.n	0x350c
    2e68:	1221      	asrs	r1, r4, #8
    2e6a:	21a0      	movs	r1, #160	; 0xa0
    2e6c:	2004      	movs	r0, #4
    2e6e:	2282      	movs	r2, #130	; 0x82
    2e70:	0004      	movs	r4, r0
    2e72:	e351      	b.n	0x3518
    2e74:	2003      	movs	r0, #3
    2e76:	8282      	strh	r2, [r0, #20]
    2e78:	20a1      	movs	r0, #161	; 0xa1
    2e7a:	9082      	str	r0, [sp, #520]	; 0x208
    2e7c:	0000      	movs	r0, r0
    2e7e:	e35c      	b.n	0x353a
    2e80:	0233      	lsls	r3, r6, #8
    2e82:	e1a0      	b.n	0x31c6
    2e84:	0000      	movs	r0, r0
    2e86:	4260      	negs	r0, r4
    2e88:	ff1e e12f 	vrhadd.u16	d14, d14, d31
    2e8c:	0000      	movs	r0, r0
    2e8e:	e350      	b.n	0x3532
    2e90:	0102      	lsls	r2, r0, #4
    2e92:	c3e0      	stmia	r3!, {r5, r6, r7}
    2e94:	0102      	lsls	r2, r0, #4
    2e96:	b3a0      	cbz	r0, 0x2f02
    2e98:	0007      	movs	r7, r0
    2e9a:	ea00 0000 	and.w	r0, r0, r0
    2e9e:	e351      	b.n	0x3544
    2ea0:	fff9 0aff 			; <UNDEFINED> instruction: 0xfff90aff
    2ea4:	4003      	ands	r3, r0
    2ea6:	e92d ffb3 	stmdb	sp!, {r0, r1, r4, r5, r7, r8, r9, sl, fp, ip, sp, lr, pc}
    2eaa:	ebff 4006 			; <UNDEFINED> instruction: 0xebff4006
    2eae:	e8bd 0092 	ldmia.w	sp!, {r1, r4, r7}
    2eb2:	e003      	b.n	0x2ebc
    2eb4:	1003      	asrs	r3, r0, #32
    2eb6:	e041      	b.n	0x2f3c
    2eb8:	ff1e e12f 	vrhadd.u16	d14, d14, d31
    2ebc:	ff1e e12f 	vrhadd.u16	d14, d14, d31
    2ec0:	0000      	movs	r0, r0
    2ec2:	e353      	b.n	0x356c
    2ec4:	0000      	movs	r0, r0
    2ec6:	0352      	lsls	r2, r2, #13
    2ec8:	0004      	movs	r4, r0
    2eca:	1a00      	subs	r0, r0, r0
    2ecc:	0000      	movs	r0, r0
    2ece:	e351      	b.n	0x3574
    2ed0:	0000      	movs	r0, r0
    2ed2:	0350      	lsls	r0, r2, #13
    2ed4:	1000      	asrs	r0, r0, #32
    2ed6:	13e0      	asrs	r0, r4, #15
    2ed8:	0000      	movs	r0, r0
    2eda:	13e0      	asrs	r0, r4, #15
    2edc:	fff6 eaff 			; <UNDEFINED> instruction: 0xfff6eaff
    2ee0:	d008      	beq.n	0x2ef4
    2ee2:	e24d      	b.n	0x3380
    2ee4:	6000      	str	r0, [r0, #0]
    2ee6:	e92d 024c 	stmdb	sp!, {r2, r3, r6, r9}
    2eea:	eb00 e004 			; <UNDEFINED> instruction: 0xeb00e004
    2eee:	e59d      	b.n	0x2a2c
    2ef0:	d008      	beq.n	0x2f04
    2ef2:	e28d      	b.n	0x3410
    2ef4:	000c      	movs	r4, r1
    2ef6:	e8bd ff1e 	ldmia.w	sp!, {r1, r2, r3, r4, r8, r9, sl, fp, ip, sp, lr, pc}
    2efa:	e12f      	b.n	0x315c
    2efc:	1034      	asrs	r4, r6, #32
    2efe:	e280      	b.n	0x3402
    2f00:	0038      	movs	r0, r7
    2f02:	e891 2005 	ldmia.w	r1, {r0, r2, sp}
    2f06:	e1a0      	b.n	0x324a
    2f08:	001c      	movs	r4, r3
    2f0a:	e92d 0fff 	stmdb	sp!, {r0, r1, r2, r3, r4, r5, r6, r7, r8, r9, sl, fp}
    2f0e:	e890 7000 	ldmia.w	r0, {ip, sp, lr}
    2f12:	e89d ff1c 	ldmia.w	sp, {r2, r3, r4, r8, r9, sl, fp, ip, sp, lr, pc}
    2f16:	e12f      	b.n	0x3178
    2f18:	0b21      	lsrs	r1, r4, #12
    2f1a:	ec90 ff1e 	ldc	15, cr15, [r0], {30}
    2f1e:	e12f      	b.n	0x3180
    2f20:	0b21      	lsrs	r1, r4, #12
    2f22:	ec80 ff1e 	stc	15, cr15, [r0], {30}
    2f26:	e12f      	b.n	0x3188
    2f28:	0b20      	lsrs	r0, r4, #12
    2f2a:	ec90 ff1e 	ldc	15, cr15, [r0], {30}
    2f2e:	e12f      	b.n	0x3190
    2f30:	0b20      	lsrs	r0, r4, #12
    2f32:	ec80 ff1e 	stc	15, cr15, [r0], {30}
    2f36:	e12f      	b.n	0x3198
    2f38:	0b20      	lsrs	r0, r4, #12
    2f3a:	ecd0 ff1e 	ldcl	15, cr15, [r0], {30}
    2f3e:	e12f      	b.n	0x31a0
    2f40:	0b20      	lsrs	r0, r4, #12
    2f42:	ecc0 ff1e 	stcl	15, cr15, [r0], {30}
    2f46:	e12f      	b.n	0x31a8
    2f48:	0102      	lsls	r2, r0, #4
    2f4a:	ecf0 1102 	ldfe	f1, [r0], #8
    2f4e:	ecf0 2102 	ldfe	f2, [r0], #8
    2f52:	ecf0 3102 	ldfe	f3, [r0], #8
    2f56:	ecf0 4102 	ldfe	f4, [r0], #8
    2f5a:	ecf0 5102 	ldfe	f5, [r0], #8
    2f5e:	ecf0 6102 	ldfe	f6, [r0], #8
    2f62:	ecf0 7102 	ldfe	f7, [r0], #8
    2f66:	ecf0 8102 	ldfp	f0, [r0], #8
    2f6a:	ecf0 9102 	ldfp	f1, [r0], #8
    2f6e:	ecf0 a102 	ldfp	f2, [r0], #8
    2f72:	ecf0 b102 	ldfp	f3, [r0], #8
    2f76:	ecf0 c102 	ldfp	f4, [r0], #8
    2f7a:	ecf0 d102 	ldfp	f5, [r0], #8
    2f7e:	ecf0 e102 	ldfp	f6, [r0], #8
    2f82:	ecf0 f102 	ldfp	f7, [r0], #8
    2f86:	ecf0 ff1e 	ldcl	15, cr15, [r0], #120	; 0x78
    2f8a:	e12f      	b.n	0x31ec
    2f8c:	0102      	lsls	r2, r0, #4
    2f8e:	ece0 1102 	stfe	f1, [r0], #8
    2f92:	ece0 2102 	stfe	f2, [r0], #8
    2f96:	ece0 3102 	stfe	f3, [r0], #8
    2f9a:	ece0 4102 	stfe	f4, [r0], #8
    2f9e:	ece0 5102 	stfe	f5, [r0], #8
    2fa2:	ece0 6102 	stfe	f6, [r0], #8
    2fa6:	ece0 7102 	stfe	f7, [r0], #8
    2faa:	ece0 8102 	stfp	f0, [r0], #8
    2fae:	ece0 9102 	stfp	f1, [r0], #8
    2fb2:	ece0 a102 	stfp	f2, [r0], #8
    2fb6:	ece0 b102 	stfp	f3, [r0], #8
    2fba:	ece0 c102 	stfp	f4, [r0], #8
    2fbe:	ece0 d102 	stfp	f5, [r0], #8
    2fc2:	ece0 e102 	stfp	f6, [r0], #8
    2fc6:	ece0 f102 	stfp	f7, [r0], #8
    2fca:	ece0 ff1e 	stcl	15, cr15, [r0], #120	; 0x78
    2fce:	e12f      	b.n	0x3230
    2fd0:	8101      	strh	r1, [r0, #8]
    2fd2:	fcb0 9101 			; <UNDEFINED> instruction: 0xfcb09101
    2fd6:	fcb0 a101 			; <UNDEFINED> instruction: 0xfcb0a101
    2fda:	fcb0 b101 			; <UNDEFINED> instruction: 0xfcb0b101
    2fde:	fcb0 ff1e 			; <UNDEFINED> instruction: 0xfcb0ff1e
    2fe2:	e12f      	b.n	0x3244
    2fe4:	8101      	strh	r1, [r0, #8]
    2fe6:	fca0 9101 			; <UNDEFINED> instruction: 0xfca09101
    2fea:	fca0 a101 			; <UNDEFINED> instruction: 0xfca0a101
    2fee:	fca0 b101 			; <UNDEFINED> instruction: 0xfca0b101
    2ff2:	fca0 ff1e 			; <UNDEFINED> instruction: 0xfca0ff1e
    2ff6:	e12f      	b.n	0x3258
    2ff8:	e000      	b.n	0x2ffc
    2ffa:	e92d 1fff 	stmdb	sp!, {r0, r1, r2, r3, r4, r5, r6, r7, r8, r9, sl, fp, ip}
    2ffe:	e92d 3000 	stmdb	sp!, {ip, sp}
    3002:	e3a0      	b.n	0x3746
    3004:	000c      	movs	r4, r1
    3006:	e92d 1004 	stmdb	sp!, {r2, ip}
    300a:	e28d      	b.n	0x3528
    300c:	0370      	lsls	r0, r6, #13
    300e:	eb00 e040 			; <UNDEFINED> instruction: 0xeb00e040
    3012:	e59d      	b.n	0x2b50
    3014:	d048      	beq.n	0x30a8
    3016:	e28d      	b.n	0x3534
    3018:	ff1e e12f 	vrhadd.u16	d14, d14, d31
    301c:	e000      	b.n	0x3020
    301e:	e92d 1fff 	stmdb	sp!, {r0, r1, r2, r3, r4, r5, r6, r7, r8, r9, sl, fp, ip}
    3022:	e92d 3000 	stmdb	sp!, {ip, sp}
    3026:	e3a0      	b.n	0x376a
    3028:	000c      	movs	r4, r1
    302a:	e92d 1004 	stmdb	sp!, {r2, ip}
    302e:	e28d      	b.n	0x354c
    3030:	039b      	lsls	r3, r3, #14
    3032:	eb00 e040 			; <UNDEFINED> instruction: 0xeb00e040
    3036:	e59d      	b.n	0x2b74
    3038:	d048      	beq.n	0x30cc
    303a:	e28d      	b.n	0x3558
    303c:	ff1e e12f 	vrhadd.u16	d14, d14, d31
    3040:	e000      	b.n	0x3044
    3042:	e92d 1fff 	stmdb	sp!, {r0, r1, r2, r3, r4, r5, r6, r7, r8, r9, sl, fp, ip}
    3046:	e92d 3000 	stmdb	sp!, {ip, sp}
    304a:	e3a0      	b.n	0x378e
    304c:	000c      	movs	r4, r1
    304e:	e92d 1004 	stmdb	sp!, {r2, ip}
    3052:	e28d      	b.n	0x3570
    3054:	03b0      	lsls	r0, r6, #14
    3056:	eb00 e040 			; <UNDEFINED> instruction: 0xeb00e040
    305a:	e59d      	b.n	0x2b98
    305c:	d048      	beq.n	0x30f0
    305e:	e28d      	b.n	0x357c
    3060:	ff1e e12f 	vrhadd.u16	d14, d14, d31
    3064:	e000      	b.n	0x3068
    3066:	e92d 1fff 	stmdb	sp!, {r0, r1, r2, r3, r4, r5, r6, r7, r8, r9, sl, fp, ip}
    306a:	e92d 3000 	stmdb	sp!, {ip, sp}
    306e:	e3a0      	b.n	0x37b2
    3070:	000c      	movs	r4, r1
    3072:	e92d 3004 	stmdb	sp!, {r2, ip, sp}
    3076:	e28d      	b.n	0x3594
    3078:	0380      	lsls	r0, r0, #14
    307a:	eb00 e040 			; <UNDEFINED> instruction: 0xeb00e040
    307e:	e59d      	b.n	0x2bbc
    3080:	d048      	beq.n	0x3114
    3082:	e28d      	b.n	0x35a0
    3084:	ff1e e12f 	vrhadd.u16	d14, d14, d31
    3088:	e000      	b.n	0x308c
    308a:	e92d 1fff 	stmdb	sp!, {r0, r1, r2, r3, r4, r5, r6, r7, r8, r9, sl, fp, ip}
    308e:	e92d 3000 	stmdb	sp!, {ip, sp}
    3092:	e3a0      	b.n	0x37d6
    3094:	000c      	movs	r4, r1
    3096:	e92d 2004 	stmdb	sp!, {r2, sp}
    309a:	e28d      	b.n	0x35b8
    309c:	03f1      	lsls	r1, r6, #15
    309e:	eb00 e040 			; <UNDEFINED> instruction: 0xeb00e040
    30a2:	e59d      	b.n	0x2be0
    30a4:	d048      	beq.n	0x3138
    30a6:	e28d      	b.n	0x35c4
    30a8:	ff1e e12f 	vrhadd.u16	d14, d14, d31
    30ac:	4010      	ands	r0, r2
    30ae:	e92d 0000 	stmdb	sp!, {}
    30b2:	e351      	b.n	0x3758
    30b4:	0002      	movs	r2, r0
    30b6:	1a00      	subs	r0, r0, r0
    30b8:	0005      	movs	r5, r0
    30ba:	eb00 0020 	add.w	r0, r0, r0, asr #32
    30be:	e280      	b.n	0x35c2
    30c0:	0001      	movs	r1, r0
    30c2:	ea00 0001 	and.w	r0, r0, r1
    30c6:	e1a0      	b.n	0x340a
    30c8:	0001      	movs	r1, r0
    30ca:	eb00 4010 	add.w	r0, r0, r0, lsr #16
    30ce:	e8bd ff1e 	ldmia.w	sp!, {r1, r2, r3, r4, r8, r9, sl, fp, ip, sp, lr, pc}
    30d2:	e12f      	b.n	0x3334
    30d4:	101c      	asrs	r4, r3, #32
    30d6:	e3a0      	b.n	0x381a
    30d8:	0801      	lsrs	r1, r0, #32
    30da:	e350      	b.n	0x377e
    30dc:	0820      	lsrs	r0, r4, #32
    30de:	21a0      	movs	r1, #160	; 0xa0
    30e0:	1010      	asrs	r0, r2, #32
    30e2:	2241      	movs	r2, #65	; 0x41
    30e4:	0c01      	lsrs	r1, r0, #16
    30e6:	e350      	b.n	0x378a
    30e8:	0420      	lsls	r0, r4, #16
    30ea:	21a0      	movs	r1, #160	; 0xa0
    30ec:	1008      	asrs	r0, r1, #32
    30ee:	2241      	movs	r2, #65	; 0x41
    30f0:	0010      	movs	r0, r2
    30f2:	e350      	b.n	0x3796
    30f4:	0220      	lsls	r0, r4, #8
    30f6:	21a0      	movs	r1, #160	; 0xa0
    30f8:	1004      	asrs	r4, r0, #32
    30fa:	2241      	movs	r2, #65	; 0x41
    30fc:	2008      	movs	r0, #8
    30fe:	e28f      	b.n	0x3620
    3100:	0000      	movs	r0, r0
    3102:	e7d2      	b.n	0x30aa
    3104:	0001      	movs	r1, r0
    3106:	e080      	b.n	0x320a
    3108:	ff1e e12f 	vrhadd.u16	d14, d14, d31
    310c:	0304      	lsls	r4, r0, #12
    310e:	0202      	lsls	r2, r0, #8
    3110:	0101      	lsls	r1, r0, #4
    3112:	0101      	lsls	r1, r0, #4
	...
    311c:	0018      	movs	r0, r3
    311e:	e59f      	b.n	0x2c60
    3120:	3018      	adds	r0, #24
    3122:	e59f      	b.n	0x2c64
    3124:	0000      	movs	r0, r0
    3126:	e153      	b.n	0x33d0
    3128:	ff1e 012f 	vrhadd.u16	d0, d14, d31
    312c:	3010      	adds	r0, #16
    312e:	e59f      	b.n	0x2c70
    3130:	0000      	movs	r0, r0
    3132:	e353      	b.n	0x37dc
    3134:	ff1e 012f 	vrhadd.u16	d0, d14, d31
    3138:	ff13 e12f 	vrhadd.u16	d14, d3, d31
    313c:	0858      	lsrs	r0, r3, #1
    313e:	0300      	lsls	r0, r0, #12
    3140:	0858      	lsrs	r0, r3, #1
    3142:	0300      	lsls	r0, r0, #12
    3144:	0000      	movs	r0, r0
    3146:	0000      	movs	r0, r0
    3148:	0024      	movs	r4, r4
    314a:	e59f      	b.n	0x2c8c
    314c:	1024      	asrs	r4, r4, #32
    314e:	e59f      	b.n	0x2c90
    3150:	1000      	asrs	r0, r0, #32
    3152:	e041      	b.n	0x31d8
    3154:	1141      	asrs	r1, r0, #5
    3156:	e1a0      	b.n	0x349a
    3158:	1fa1      	subs	r1, r4, #6
    315a:	e081      	b.n	0x3260
    315c:	10c1      	asrs	r1, r0, #3
    315e:	e1b0      	b.n	0x34c2
    3160:	ff1e 012f 	vrhadd.u16	d0, d14, d31
    3164:	3010      	adds	r0, #16
    3166:	e59f      	b.n	0x2ca8
    3168:	0000      	movs	r0, r0
    316a:	e353      	b.n	0x3814
    316c:	ff1e 012f 	vrhadd.u16	d0, d14, d31
    3170:	ff13 e12f 	vrhadd.u16	d14, d3, d31
    3174:	0858      	lsrs	r0, r3, #1
    3176:	0300      	lsls	r0, r0, #12
    3178:	0858      	lsrs	r0, r3, #1
    317a:	0300      	lsls	r0, r0, #12
    317c:	0000      	movs	r0, r0
    317e:	0000      	movs	r0, r0
    3180:	4010      	ands	r0, r2
    3182:	e92d 402c 	stmdb	sp!, {r2, r3, r5, lr}
    3186:	e59f      	b.n	0x2cc8
    3188:	3000      	adds	r0, #0
    318a:	e5d4      	b.n	0x2d36
    318c:	0000      	movs	r0, r0
    318e:	e353      	b.n	0x3838
    3190:	0006      	movs	r6, r0
    3192:	1a00      	subs	r0, r0, r0
    3194:	ffe0 ebff 			; <UNDEFINED> instruction: 0xffe0ebff
    3198:	301c      	adds	r0, #28
    319a:	e59f      	b.n	0x2cdc
    319c:	0000      	movs	r0, r0
    319e:	e353      	b.n	0x3848
    31a0:	0018      	movs	r0, r3
    31a2:	159f      	asrs	r7, r3, #22
    31a4:	0000      	movs	r0, r0
    31a6:	11a0      	asrs	r0, r4, #6
    31a8:	3001      	adds	r0, #1
    31aa:	e3a0      	b.n	0x38ee
    31ac:	3000      	adds	r0, #0
    31ae:	e5c4      	b.n	0x2d3a
    31b0:	4010      	ands	r0, r2
    31b2:	e8bd ff1e 	ldmia.w	sp!, {r1, r2, r3, r4, r8, r9, sl, fp, ip, sp, lr, pc}
    31b6:	e12f      	b.n	0x3418
    31b8:	0000      	movs	r0, r0
    31ba:	0300      	lsls	r0, r0, #12
    31bc:	0000      	movs	r0, r0
    31be:	0000      	movs	r0, r0
    31c0:	57d4      	ldrsb	r4, [r2, r7]
    31c2:	0800      	lsrs	r0, r0, #32
    31c4:	3020      	adds	r0, #32
    31c6:	e59f      	b.n	0x2d08
    31c8:	0000      	movs	r0, r0
    31ca:	e353      	b.n	0x3874
    31cc:	0005      	movs	r5, r0
    31ce:	0a00      	lsrs	r0, r0, #8
    31d0:	4010      	ands	r0, r2
    31d2:	e92d 1014 	stmdb	sp!, {r2, r4, ip}
    31d6:	e59f      	b.n	0x2d18
    31d8:	0014      	movs	r4, r2
    31da:	e59f      	b.n	0x2d1c
    31dc:	0000      	movs	r0, r0
    31de:	e1a0      	b.n	0x3522
    31e0:	4010      	ands	r0, r2
    31e2:	e8bd ffd7 	ldmia.w	sp!, {r0, r1, r2, r4, r6, r7, r8, r9, sl, fp, ip, sp, lr, pc}
    31e6:	eaff ffd6 			; <UNDEFINED> instruction: 0xeaffffd6
    31ea:	eaff 0000 			; <UNDEFINED> instruction: 0xeaff0000
    31ee:	0000      	movs	r0, r0
    31f0:	0004      	movs	r4, r0
    31f2:	0300      	lsls	r0, r0, #12
    31f4:	57d4      	ldrsb	r4, [r2, r7]
    31f6:	0800      	lsrs	r0, r0, #32
    31f8:	b5f0      	push	{r4, r5, r6, r7, lr}
    31fa:	2301      	movs	r3, #1
    31fc:	464e      	mov	r6, r9
    31fe:	46de      	mov	lr, fp
    3200:	4657      	mov	r7, sl
    3202:	4645      	mov	r5, r8
    3204:	b5e0      	push	{r5, r6, r7, lr}
    3206:	7003      	strb	r3, [r0, #0]
    3208:	2300      	movs	r3, #0
    320a:	0006      	movs	r6, r0
    320c:	b095      	sub	sp, #84	; 0x54
    320e:	70c3      	strb	r3, [r0, #3]
    3210:	aa04      	add	r2, sp, #16
    3212:	c208      	stmia	r2!, {r3}
    3214:	3301      	adds	r3, #1
    3216:	2b10      	cmp	r3, #16
    3218:	d1fb      	bne.n	0x3212
    321a:	1d33      	adds	r3, r6, #4
    321c:	9303      	str	r3, [sp, #12]
    321e:	4699      	mov	r9, r3
    3220:	2300      	movs	r3, #0
    3222:	4698      	mov	r8, r3
    3224:	3314      	adds	r3, #20
    3226:	469b      	mov	fp, r3
    3228:	ab03      	add	r3, sp, #12
    322a:	9302      	str	r3, [sp, #8]
    322c:	2303      	movs	r3, #3
    322e:	469a      	mov	sl, r3
    3230:	44b3      	add	fp, r6
    3232:	465b      	mov	r3, fp
    3234:	464a      	mov	r2, r9
    3236:	2400      	movs	r4, #0
    3238:	1a9d      	subs	r5, r3, r2
    323a:	f7fd fe05 	bl	0xe48
    323e:	0029      	movs	r1, r5
    3240:	f001 ff2e 	bl	0x50a0
    3244:	464a      	mov	r2, r9
    3246:	0089      	lsls	r1, r1, #2
    3248:	ab04      	add	r3, sp, #16
    324a:	585b      	ldr	r3, [r3, r1]
    324c:	5513      	strb	r3, [r2, r4]
    324e:	2b00      	cmp	r3, #0
    3250:	d132      	bne.n	0x32b8
    3252:	4643      	mov	r3, r8
    3254:	70b4      	strb	r4, [r6, #2]
    3256:	7073      	strb	r3, [r6, #1]
    3258:	9a02      	ldr	r2, [sp, #8]
    325a:	00ab      	lsls	r3, r5, #2
    325c:	58d3      	ldr	r3, [r2, r3]
    325e:	9301      	str	r3, [sp, #4]
    3260:	9a01      	ldr	r2, [sp, #4]
    3262:	ab04      	add	r3, sp, #16
    3264:	3401      	adds	r4, #1
    3266:	505a      	str	r2, [r3, r1]
    3268:	3d01      	subs	r5, #1
    326a:	2c04      	cmp	r4, #4
    326c:	d1e5      	bne.n	0x323a
    326e:	2301      	movs	r3, #1
    3270:	469c      	mov	ip, r3
    3272:	3303      	adds	r3, #3
    3274:	44e0      	add	r8, ip
    3276:	469c      	mov	ip, r3
    3278:	4643      	mov	r3, r8
    327a:	44e1      	add	r9, ip
    327c:	2b04      	cmp	r3, #4
    327e:	d1d8      	bne.n	0x3232
    3280:	2300      	movs	r3, #0
    3282:	2000      	movs	r0, #0
    3284:	6173      	str	r3, [r6, #20]
    3286:	9903      	ldr	r1, [sp, #12]
    3288:	4c18      	ldr	r4, [pc, #96]	; (0x32ec)
    328a:	1f0b      	subs	r3, r1, #4
    328c:	0002      	movs	r2, r0
    328e:	4362      	muls	r2, r4
    3290:	2004      	movs	r0, #4
    3292:	5618      	ldrsb	r0, [r3, r0]
    3294:	3301      	adds	r3, #1
    3296:	1810      	adds	r0, r2, r0
    3298:	428b      	cmp	r3, r1
    329a:	d1f7      	bne.n	0x328c
    329c:	1d19      	adds	r1, r3, #4
    329e:	458b      	cmp	fp, r1
    32a0:	d1f3      	bne.n	0x328a
    32a2:	6170      	str	r0, [r6, #20]
    32a4:	0030      	movs	r0, r6
    32a6:	b015      	add	sp, #84	; 0x54
    32a8:	bc3c      	pop	{r2, r3, r4, r5}
    32aa:	4690      	mov	r8, r2
    32ac:	4699      	mov	r9, r3
    32ae:	46a2      	mov	sl, r4
    32b0:	46ab      	mov	fp, r5
    32b2:	bcf0      	pop	{r4, r5, r6, r7}
    32b4:	bc02      	pop	{r1}
    32b6:	4708      	bx	r1
    32b8:	4650      	mov	r0, sl
    32ba:	4647      	mov	r7, r8
    32bc:	3b01      	subs	r3, #1
    32be:	17da      	asrs	r2, r3, #31
    32c0:	4010      	ands	r0, r2
    32c2:	18c0      	adds	r0, r0, r3
    32c4:	1080      	asrs	r0, r0, #2
    32c6:	1bc0      	subs	r0, r0, r7
    32c8:	17c7      	asrs	r7, r0, #31
    32ca:	19c0      	adds	r0, r0, r7
    32cc:	4078      	eors	r0, r7
    32ce:	4657      	mov	r7, sl
    32d0:	0f92      	lsrs	r2, r2, #30
    32d2:	189b      	adds	r3, r3, r2
    32d4:	403b      	ands	r3, r7
    32d6:	1a9b      	subs	r3, r3, r2
    32d8:	1b1b      	subs	r3, r3, r4
    32da:	17da      	asrs	r2, r3, #31
    32dc:	189b      	adds	r3, r3, r2
    32de:	4053      	eors	r3, r2
    32e0:	18c3      	adds	r3, r0, r3
    32e2:	78f0      	ldrb	r0, [r6, #3]
    32e4:	181b      	adds	r3, r3, r0
    32e6:	70f3      	strb	r3, [r6, #3]
    32e8:	e7b6      	b.n	0x3258
    32ea:	46c0      	nop			; (mov r8, r8)
    32ec:	07b5      	lsls	r5, r6, #30
    32ee:	0000      	movs	r0, r0
    32f0:	2301      	movs	r3, #1
    32f2:	b5f0      	push	{r4, r5, r6, r7, lr}
    32f4:	4657      	mov	r7, sl
    32f6:	46de      	mov	lr, fp
    32f8:	464e      	mov	r6, r9
    32fa:	4645      	mov	r5, r8
    32fc:	7003      	strb	r3, [r0, #0]
    32fe:	2300      	movs	r3, #0
    3300:	b5e0      	push	{r5, r6, r7, lr}
    3302:	b087      	sub	sp, #28
    3304:	70c3      	strb	r3, [r0, #3]
    3306:	af02      	add	r7, sp, #8
    3308:	ab06      	add	r3, sp, #24
    330a:	469c      	mov	ip, r3
    330c:	2200      	movs	r2, #0
    330e:	003b      	movs	r3, r7
    3310:	701a      	strb	r2, [r3, #0]
    3312:	3301      	adds	r3, #1
    3314:	4563      	cmp	r3, ip
    3316:	d1fb      	bne.n	0x3310
    3318:	1d03      	adds	r3, r0, #4
    331a:	4698      	mov	r8, r3
    331c:	9301      	str	r3, [sp, #4]
    331e:	2301      	movs	r3, #1
    3320:	468b      	mov	fp, r1
    3322:	469a      	mov	sl, r3
    3324:	3302      	adds	r3, #2
    3326:	465e      	mov	r6, fp
    3328:	2100      	movs	r1, #0
    332a:	4699      	mov	r9, r3
    332c:	46bb      	mov	fp, r7
    332e:	4645      	mov	r5, r8
    3330:	0034      	movs	r4, r6
    3332:	2200      	movs	r2, #0
    3334:	9600      	str	r6, [sp, #0]
    3336:	4656      	mov	r6, sl
    3338:	6823      	ldr	r3, [r4, #0]
    333a:	54ab      	strb	r3, [r5, r2]
    333c:	6827      	ldr	r7, [r4, #0]
    333e:	ab02      	add	r3, sp, #8
    3340:	55de      	strb	r6, [r3, r7]
    3342:	2f00      	cmp	r7, #0
    3344:	d130      	bne.n	0x33a8
    3346:	7041      	strb	r1, [r0, #1]
    3348:	7082      	strb	r2, [r0, #2]
    334a:	3201      	adds	r2, #1
    334c:	3404      	adds	r4, #4
    334e:	2a04      	cmp	r2, #4
    3350:	d1f1      	bne.n	0x3336
    3352:	9e00      	ldr	r6, [sp, #0]
    3354:	3101      	adds	r1, #1
    3356:	3610      	adds	r6, #16
    3358:	3504      	adds	r5, #4
    335a:	2904      	cmp	r1, #4
    335c:	d1e8      	bne.n	0x3330
    335e:	465f      	mov	r7, fp
    3360:	783b      	ldrb	r3, [r7, #0]
    3362:	2b00      	cmp	r3, #0
    3364:	d040      	beq.n	0x33e8
    3366:	3701      	adds	r7, #1
    3368:	4567      	cmp	r7, ip
    336a:	d1f9      	bne.n	0x3360
    336c:	2200      	movs	r2, #0
    336e:	2300      	movs	r3, #0
    3370:	0006      	movs	r6, r0
    3372:	0014      	movs	r4, r2
    3374:	6143      	str	r3, [r0, #20]
    3376:	9901      	ldr	r1, [sp, #4]
    3378:	4d1c      	ldr	r5, [pc, #112]	; (0x33ec)
    337a:	3614      	adds	r6, #20
    337c:	1f0b      	subs	r3, r1, #4
    337e:	0022      	movs	r2, r4
    3380:	436a      	muls	r2, r5
    3382:	2404      	movs	r4, #4
    3384:	571c      	ldrsb	r4, [r3, r4]
    3386:	3301      	adds	r3, #1
    3388:	1914      	adds	r4, r2, r4
    338a:	428b      	cmp	r3, r1
    338c:	d1f7      	bne.n	0x337e
    338e:	1d19      	adds	r1, r3, #4
    3390:	428e      	cmp	r6, r1
    3392:	d1f3      	bne.n	0x337c
    3394:	6144      	str	r4, [r0, #20]
    3396:	b007      	add	sp, #28
    3398:	bc3c      	pop	{r2, r3, r4, r5}
    339a:	4690      	mov	r8, r2
    339c:	4699      	mov	r9, r3
    339e:	46a2      	mov	sl, r4
    33a0:	46ab      	mov	fp, r5
    33a2:	bcf0      	pop	{r4, r5, r6, r7}
    33a4:	bc02      	pop	{r1}
    33a6:	4708      	bx	r1
    33a8:	464e      	mov	r6, r9
    33aa:	3f01      	subs	r7, #1
    33ac:	17fb      	asrs	r3, r7, #31
    33ae:	4033      	ands	r3, r6
    33b0:	19db      	adds	r3, r3, r7
    33b2:	109b      	asrs	r3, r3, #2
    33b4:	1a5b      	subs	r3, r3, r1
    33b6:	17de      	asrs	r6, r3, #31
    33b8:	78c7      	ldrb	r7, [r0, #3]
    33ba:	199b      	adds	r3, r3, r6
    33bc:	4073      	eors	r3, r6
    33be:	19db      	adds	r3, r3, r7
    33c0:	061b      	lsls	r3, r3, #24
    33c2:	0e1b      	lsrs	r3, r3, #24
    33c4:	70c3      	strb	r3, [r0, #3]
    33c6:	6826      	ldr	r6, [r4, #0]
    33c8:	1e77      	subs	r7, r6, #1
    33ca:	17fe      	asrs	r6, r7, #31
    33cc:	0fb6      	lsrs	r6, r6, #30
    33ce:	46b0      	mov	r8, r6
    33d0:	464e      	mov	r6, r9
    33d2:	4447      	add	r7, r8
    33d4:	4037      	ands	r7, r6
    33d6:	4646      	mov	r6, r8
    33d8:	1bbf      	subs	r7, r7, r6
    33da:	1abf      	subs	r7, r7, r2
    33dc:	17fe      	asrs	r6, r7, #31
    33de:	19bf      	adds	r7, r7, r6
    33e0:	4077      	eors	r7, r6
    33e2:	19db      	adds	r3, r3, r7
    33e4:	70c3      	strb	r3, [r0, #3]
    33e6:	e7b0      	b.n	0x334a
    33e8:	7003      	strb	r3, [r0, #0]
    33ea:	e7d4      	b.n	0x3396
    33ec:	07b5      	lsls	r5, r6, #30
    33ee:	0000      	movs	r0, r0
    33f0:	b570      	push	{r4, r5, r6, lr}
    33f2:	7802      	ldrb	r2, [r0, #0]
    33f4:	2a00      	cmp	r2, #0
    33f6:	d015      	beq.n	0x3424
    33f8:	780a      	ldrb	r2, [r1, #0]
    33fa:	2a00      	cmp	r2, #0
    33fc:	d012      	beq.n	0x3424
    33fe:	694b      	ldr	r3, [r1, #20]
    3400:	6944      	ldr	r4, [r0, #20]
    3402:	42a3      	cmp	r3, r4
    3404:	d112      	bne.n	0x342c
    3406:	1d06      	adds	r6, r0, #4
    3408:	3104      	adds	r1, #4
    340a:	3014      	adds	r0, #20
    340c:	2300      	movs	r3, #0
    340e:	56f5      	ldrsb	r5, [r6, r3]
    3410:	56cc      	ldrsb	r4, [r1, r3]
    3412:	42a5      	cmp	r5, r4
    3414:	d10a      	bne.n	0x342c
    3416:	3301      	adds	r3, #1
    3418:	2b04      	cmp	r3, #4
    341a:	d1f8      	bne.n	0x340e
    341c:	3604      	adds	r6, #4
    341e:	3104      	adds	r1, #4
    3420:	4286      	cmp	r6, r0
    3422:	d1f3      	bne.n	0x340c
    3424:	0010      	movs	r0, r2
    3426:	bc70      	pop	{r4, r5, r6}
    3428:	bc02      	pop	{r1}
    342a:	4708      	bx	r1
    342c:	2200      	movs	r2, #0
    342e:	e7f9      	b.n	0x3424
    3430:	b570      	push	{r4, r5, r6, lr}
    3432:	780a      	ldrb	r2, [r1, #0]
    3434:	000d      	movs	r5, r1
    3436:	2300      	movs	r3, #0
    3438:	2a00      	cmp	r2, #0
    343a:	d000      	beq.n	0x343e
    343c:	8a8b      	ldrh	r3, [r1, #20]
    343e:	009b      	lsls	r3, r3, #2
    3440:	581c      	ldr	r4, [r3, r0]
    3442:	2c00      	cmp	r4, #0
    3444:	d103      	bne.n	0x344e
    3446:	e008      	b.n	0x345a
    3448:	69a4      	ldr	r4, [r4, #24]
    344a:	2c00      	cmp	r4, #0
    344c:	d005      	beq.n	0x345a
    344e:	0029      	movs	r1, r5
    3450:	0020      	movs	r0, r4
    3452:	f7ff ffcd 	bl	0x33f0
    3456:	2800      	cmp	r0, #0
    3458:	d0f6      	beq.n	0x3448
    345a:	0020      	movs	r0, r4
    345c:	bc70      	pop	{r4, r5, r6}
    345e:	bc02      	pop	{r1}
    3460:	4708      	bx	r1
    3462:	46c0      	nop			; (mov r8, r8)
    3464:	b5f0      	push	{r4, r5, r6, r7, lr}
    3466:	4646      	mov	r6, r8
    3468:	46d6      	mov	lr, sl
    346a:	464f      	mov	r7, r9
    346c:	b5c0      	push	{r6, r7, lr}
    346e:	0004      	movs	r4, r0
    3470:	000d      	movs	r5, r1
    3472:	0016      	movs	r6, r2
    3474:	f7ff ffdc 	bl	0x3430
    3478:	2800      	cmp	r0, #0
    347a:	d044      	beq.n	0x3506
    347c:	2328      	movs	r3, #40	; 0x28
    347e:	5cc3      	ldrb	r3, [r0, r3]
    3480:	2b00      	cmp	r3, #0
    3482:	d139      	bne.n	0x34f8
    3484:	7803      	ldrb	r3, [r0, #0]
    3486:	2b00      	cmp	r3, #0
    3488:	d100      	bne.n	0x348c
    348a:	e0c7      	b.n	0x361c
    348c:	2303      	movs	r3, #3
    348e:	56c3      	ldrsb	r3, [r0, r3]
    3490:	18f6      	adds	r6, r6, r3
    3492:	6a43      	ldr	r3, [r0, #36]	; 0x24
    3494:	429e      	cmp	r6, r3
    3496:	da2f      	bge.n	0x34f8
    3498:	6246      	str	r6, [r0, #36]	; 0x24
    349a:	69c6      	ldr	r6, [r0, #28]
    349c:	2e01      	cmp	r6, #1
    349e:	d02b      	beq.n	0x34f8
    34a0:	2180      	movs	r1, #128	; 0x80
    34a2:	2580      	movs	r5, #128	; 0x80
    34a4:	0ff3      	lsrs	r3, r6, #31
    34a6:	199b      	adds	r3, r3, r6
    34a8:	0249      	lsls	r1, r1, #9
    34aa:	105b      	asrs	r3, r3, #1
    34ac:	185a      	adds	r2, r3, r1
    34ae:	0092      	lsls	r2, r2, #2
    34b0:	5917      	ldr	r7, [r2, r4]
    34b2:	1872      	adds	r2, r6, r1
    34b4:	0092      	lsls	r2, r2, #2
    34b6:	5910      	ldr	r0, [r2, r4]
    34b8:	6a79      	ldr	r1, [r7, #36]	; 0x24
    34ba:	6a42      	ldr	r2, [r0, #36]	; 0x24
    34bc:	02ed      	lsls	r5, r5, #11
    34be:	428a      	cmp	r2, r1
    34c0:	db0f      	blt.n	0x34e2
    34c2:	e019      	b.n	0x34f8
    34c4:	2080      	movs	r0, #128	; 0x80
    34c6:	0fda      	lsrs	r2, r3, #31
    34c8:	18d2      	adds	r2, r2, r3
    34ca:	1052      	asrs	r2, r2, #1
    34cc:	0240      	lsls	r0, r0, #9
    34ce:	1810      	adds	r0, r2, r0
    34d0:	0080      	lsls	r0, r0, #2
    34d2:	5907      	ldr	r7, [r0, r4]
    34d4:	5948      	ldr	r0, [r1, r5]
    34d6:	001e      	movs	r6, r3
    34d8:	6a41      	ldr	r1, [r0, #36]	; 0x24
    34da:	6a7b      	ldr	r3, [r7, #36]	; 0x24
    34dc:	428b      	cmp	r3, r1
    34de:	dd0b      	ble.n	0x34f8
    34e0:	0013      	movs	r3, r2
    34e2:	00b2      	lsls	r2, r6, #2
    34e4:	0099      	lsls	r1, r3, #2
    34e6:	18a2      	adds	r2, r4, r2
    34e8:	1861      	adds	r1, r4, r1
    34ea:	5157      	str	r7, [r2, r5]
    34ec:	5148      	str	r0, [r1, r5]
    34ee:	61c3      	str	r3, [r0, #28]
    34f0:	5952      	ldr	r2, [r2, r5]
    34f2:	61d6      	str	r6, [r2, #28]
    34f4:	2b01      	cmp	r3, #1
    34f6:	d1e5      	bne.n	0x34c4
    34f8:	bc1c      	pop	{r2, r3, r4}
    34fa:	4690      	mov	r8, r2
    34fc:	4699      	mov	r9, r3
    34fe:	46a2      	mov	sl, r4
    3500:	bcf0      	pop	{r4, r5, r6, r7}
    3502:	bc01      	pop	{r0}
    3504:	4700      	bx	r0
    3506:	4b46      	ldr	r3, [pc, #280]	; (0x3620)
    3508:	2280      	movs	r2, #128	; 0x80
    350a:	4698      	mov	r8, r3
    350c:	58e7      	ldr	r7, [r4, r3]
    350e:	0252      	lsls	r2, r2, #9
    3510:	0ffb      	lsrs	r3, r7, #31
    3512:	42ba      	cmp	r2, r7
    3514:	4158      	adcs	r0, r3
    3516:	f7fc fe87 	bl	0x228
    351a:	4643      	mov	r3, r8
    351c:	3701      	adds	r7, #1
    351e:	50e7      	str	r7, [r4, r3]
    3520:	2030      	movs	r0, #48	; 0x30
    3522:	f7fd fc51 	bl	0xdc8
    3526:	782b      	ldrb	r3, [r5, #0]
    3528:	4698      	mov	r8, r3
    352a:	4642      	mov	r2, r8
    352c:	2300      	movs	r3, #0
    352e:	2a00      	cmp	r2, #0
    3530:	d000      	beq.n	0x3534
    3532:	8aab      	ldrh	r3, [r5, #20]
    3534:	2114      	movs	r1, #20
    3536:	009b      	lsls	r3, r3, #2
    3538:	591b      	ldr	r3, [r3, r4]
    353a:	469a      	mov	sl, r3
    353c:	4b38      	ldr	r3, [pc, #224]	; (0x3620)
    353e:	58e3      	ldr	r3, [r4, r3]
    3540:	4699      	mov	r9, r3
    3542:	4643      	mov	r3, r8
    3544:	2703      	movs	r7, #3
    3546:	468c      	mov	ip, r1
    3548:	7003      	strb	r3, [r0, #0]
    354a:	786b      	ldrb	r3, [r5, #1]
    354c:	7043      	strb	r3, [r0, #1]
    354e:	78ab      	ldrb	r3, [r5, #2]
    3550:	7083      	strb	r3, [r0, #2]
    3552:	57ef      	ldrsb	r7, [r5, r7]
    3554:	70c7      	strb	r7, [r0, #3]
    3556:	696b      	ldr	r3, [r5, #20]
    3558:	1d02      	adds	r2, r0, #4
    355a:	6143      	str	r3, [r0, #20]
    355c:	44ac      	add	ip, r5
    355e:	1d2b      	adds	r3, r5, #4
    3560:	2100      	movs	r1, #0
    3562:	5659      	ldrsb	r1, [r3, r1]
    3564:	7011      	strb	r1, [r2, #0]
    3566:	2101      	movs	r1, #1
    3568:	5659      	ldrsb	r1, [r3, r1]
    356a:	7051      	strb	r1, [r2, #1]
    356c:	2102      	movs	r1, #2
    356e:	5659      	ldrsb	r1, [r3, r1]
    3570:	7091      	strb	r1, [r2, #2]
    3572:	2103      	movs	r1, #3
    3574:	5659      	ldrsb	r1, [r3, r1]
    3576:	3304      	adds	r3, #4
    3578:	70d1      	strb	r1, [r2, #3]
    357a:	3204      	adds	r2, #4
    357c:	4563      	cmp	r3, ip
    357e:	d1ef      	bne.n	0x3560
    3580:	4653      	mov	r3, sl
    3582:	6183      	str	r3, [r0, #24]
    3584:	464b      	mov	r3, r9
    3586:	61c3      	str	r3, [r0, #28]
    3588:	4643      	mov	r3, r8
    358a:	6206      	str	r6, [r0, #32]
    358c:	2b00      	cmp	r3, #0
    358e:	d100      	bne.n	0x3592
    3590:	2740      	movs	r7, #64	; 0x40
    3592:	2300      	movs	r3, #0
    3594:	2228      	movs	r2, #40	; 0x28
    3596:	19be      	adds	r6, r7, r6
    3598:	6246      	str	r6, [r0, #36]	; 0x24
    359a:	5483      	strb	r3, [r0, r2]
    359c:	62c3      	str	r3, [r0, #44]	; 0x2c
    359e:	782a      	ldrb	r2, [r5, #0]
    35a0:	2a00      	cmp	r2, #0
    35a2:	d000      	beq.n	0x35a6
    35a4:	8aab      	ldrh	r3, [r5, #20]
    35a6:	2280      	movs	r2, #128	; 0x80
    35a8:	009b      	lsls	r3, r3, #2
    35aa:	5118      	str	r0, [r3, r4]
    35ac:	4b1c      	ldr	r3, [pc, #112]	; (0x3620)
    35ae:	58e6      	ldr	r6, [r4, r3]
    35b0:	0252      	lsls	r2, r2, #9
    35b2:	18b3      	adds	r3, r6, r2
    35b4:	009b      	lsls	r3, r3, #2
    35b6:	5118      	str	r0, [r3, r4]
    35b8:	2e01      	cmp	r6, #1
    35ba:	d028      	beq.n	0x360e
    35bc:	2580      	movs	r5, #128	; 0x80
    35be:	0ff3      	lsrs	r3, r6, #31
    35c0:	199b      	adds	r3, r3, r6
    35c2:	105b      	asrs	r3, r3, #1
    35c4:	189a      	adds	r2, r3, r2
    35c6:	0092      	lsls	r2, r2, #2
    35c8:	5917      	ldr	r7, [r2, r4]
    35ca:	6a41      	ldr	r1, [r0, #36]	; 0x24
    35cc:	6a7a      	ldr	r2, [r7, #36]	; 0x24
    35ce:	02ed      	lsls	r5, r5, #11
    35d0:	428a      	cmp	r2, r1
    35d2:	dc0f      	bgt.n	0x35f4
    35d4:	e01b      	b.n	0x360e
    35d6:	2080      	movs	r0, #128	; 0x80
    35d8:	0fda      	lsrs	r2, r3, #31
    35da:	18d2      	adds	r2, r2, r3
    35dc:	1052      	asrs	r2, r2, #1
    35de:	0240      	lsls	r0, r0, #9
    35e0:	1810      	adds	r0, r2, r0
    35e2:	0080      	lsls	r0, r0, #2
    35e4:	5907      	ldr	r7, [r0, r4]
    35e6:	5948      	ldr	r0, [r1, r5]
    35e8:	001e      	movs	r6, r3
    35ea:	6a79      	ldr	r1, [r7, #36]	; 0x24
    35ec:	6a43      	ldr	r3, [r0, #36]	; 0x24
    35ee:	428b      	cmp	r3, r1
    35f0:	da0b      	bge.n	0x360a
    35f2:	0013      	movs	r3, r2
    35f4:	00b2      	lsls	r2, r6, #2
    35f6:	0099      	lsls	r1, r3, #2
    35f8:	18a2      	adds	r2, r4, r2
    35fa:	1861      	adds	r1, r4, r1
    35fc:	5157      	str	r7, [r2, r5]
    35fe:	5148      	str	r0, [r1, r5]
    3600:	61c3      	str	r3, [r0, #28]
    3602:	5952      	ldr	r2, [r2, r5]
    3604:	61d6      	str	r6, [r2, #28]
    3606:	2b01      	cmp	r3, #1
    3608:	d1e5      	bne.n	0x35d6
    360a:	4b05      	ldr	r3, [pc, #20]	; (0x3620)
    360c:	58e6      	ldr	r6, [r4, r3]
    360e:	4a05      	ldr	r2, [pc, #20]	; (0x3624)
    3610:	58a3      	ldr	r3, [r4, r2]
    3612:	42b3      	cmp	r3, r6
    3614:	da00      	bge.n	0x3618
    3616:	0033      	movs	r3, r6
    3618:	50a3      	str	r3, [r4, r2]
    361a:	e76d      	b.n	0x34f8
    361c:	2340      	movs	r3, #64	; 0x40
    361e:	e737      	b.n	0x3490
    3620:	0004      	movs	r4, r0
    3622:	0008      	movs	r0, r1
    3624:	0008      	movs	r0, r1
    3626:	0008      	movs	r0, r1
    3628:	b5f0      	push	{r4, r5, r6, r7, lr}
    362a:	46de      	mov	lr, fp
    362c:	4657      	mov	r7, sl
    362e:	464e      	mov	r6, r9
    3630:	4645      	mov	r5, r8
    3632:	2380      	movs	r3, #128	; 0x80
    3634:	2181      	movs	r1, #129	; 0x81
    3636:	2200      	movs	r2, #0
    3638:	b5e0      	push	{r5, r6, r7, lr}
    363a:	049b      	lsls	r3, r3, #18
    363c:	b089      	sub	sp, #36	; 0x24
    363e:	0489      	lsls	r1, r1, #18
    3640:	701a      	strb	r2, [r3, #0]
    3642:	3301      	adds	r3, #1
    3644:	428b      	cmp	r3, r1
    3646:	d1fb      	bne.n	0x3640
    3648:	2183      	movs	r1, #131	; 0x83
    364a:	4b54      	ldr	r3, [pc, #336]	; (0x379c)
    364c:	701a      	strb	r2, [r3, #0]
    364e:	4b54      	ldr	r3, [pc, #336]	; (0x37a0)
    3650:	701a      	strb	r2, [r3, #0]
    3652:	4b54      	ldr	r3, [pc, #336]	; (0x37a4)
    3654:	7019      	strb	r1, [r3, #0]
    3656:	4b54      	ldr	r3, [pc, #336]	; (0x37a8)
    3658:	701a      	strb	r2, [r3, #0]
    365a:	4b54      	ldr	r3, [pc, #336]	; (0x37ac)
    365c:	701a      	strb	r2, [r3, #0]
    365e:	2384      	movs	r3, #132	; 0x84
    3660:	4953      	ldr	r1, [pc, #332]	; (0x37b0)
    3662:	700b      	strb	r3, [r1, #0]
    3664:	4953      	ldr	r1, [pc, #332]	; (0x37b4)
    3666:	700a      	strb	r2, [r1, #0]
    3668:	4953      	ldr	r1, [pc, #332]	; (0x37b8)
    366a:	700a      	strb	r2, [r1, #0]
    366c:	4953      	ldr	r1, [pc, #332]	; (0x37bc)
    366e:	700b      	strb	r3, [r1, #0]
    3670:	4953      	ldr	r1, [pc, #332]	; (0x37c0)
    3672:	700a      	strb	r2, [r1, #0]
    3674:	4953      	ldr	r1, [pc, #332]	; (0x37c4)
    3676:	700a      	strb	r2, [r1, #0]
    3678:	4a53      	ldr	r2, [pc, #332]	; (0x37c8)
    367a:	7013      	strb	r3, [r2, #0]
    367c:	3385      	adds	r3, #133	; 0x85
    367e:	33ff      	adds	r3, #255	; 0xff
    3680:	469b      	mov	fp, r3
    3682:	2301      	movs	r3, #1
    3684:	9302      	str	r3, [sp, #8]
    3686:	2300      	movs	r3, #0
    3688:	9303      	str	r3, [sp, #12]
    368a:	4b50      	ldr	r3, [pc, #320]	; (0x37cc)
    368c:	469a      	mov	sl, r3
    368e:	2380      	movs	r3, #128	; 0x80
    3690:	4c4f      	ldr	r4, [pc, #316]	; (0x37d0)
    3692:	02db      	lsls	r3, r3, #11
    3694:	44a3      	add	fp, r4
    3696:	4e4f      	ldr	r6, [pc, #316]	; (0x37d4)
    3698:	4f4f      	ldr	r7, [pc, #316]	; (0x37d8)
    369a:	4699      	mov	r9, r3
    369c:	e008      	b.n	0x36b0
    369e:	f7fd f9e1 	bl	0xa64
    36a2:	3434      	adds	r4, #52	; 0x34
    36a4:	494d      	ldr	r1, [pc, #308]	; (0x37dc)
    36a6:	484e      	ldr	r0, [pc, #312]	; (0x37e0)
    36a8:	f7fd f9dc 	bl	0xa64
    36ac:	45a3      	cmp	fp, r4
    36ae:	d043      	beq.n	0x3738
    36b0:	4653      	mov	r3, sl
    36b2:	601c      	str	r4, [r3, #0]
    36b4:	0023      	movs	r3, r4
    36b6:	3324      	adds	r3, #36	; 0x24
    36b8:	6033      	str	r3, [r6, #0]
    36ba:	6aa3      	ldr	r3, [r4, #40]	; 0x28
    36bc:	68e1      	ldr	r1, [r4, #12]
    36be:	6922      	ldr	r2, [r4, #16]
    36c0:	0038      	movs	r0, r7
    36c2:	454b      	cmp	r3, r9
    36c4:	d8eb      	bhi.n	0x369e
    36c6:	f7fd f9cd 	bl	0xa64
    36ca:	0020      	movs	r0, r4
    36cc:	a905      	add	r1, sp, #20
    36ce:	f7fd faf1 	bl	0xcb4
    36d2:	9b05      	ldr	r3, [sp, #20]
    36d4:	4843      	ldr	r0, [pc, #268]	; (0x37e4)
    36d6:	9301      	str	r3, [sp, #4]
    36d8:	2b00      	cmp	r3, #0
    36da:	d100      	bne.n	0x36de
    36dc:	4842      	ldr	r0, [pc, #264]	; (0x37e8)
    36de:	f7fd f9c1 	bl	0xa64
    36e2:	9b05      	ldr	r3, [sp, #20]
    36e4:	001d      	movs	r5, r3
    36e6:	9301      	str	r3, [sp, #4]
    36e8:	2301      	movs	r3, #1
    36ea:	401d      	ands	r5, r3
    36ec:	9b07      	ldr	r3, [sp, #28]
    36ee:	4698      	mov	r8, r3
    36f0:	d148      	bne.n	0x3784
    36f2:	483e      	ldr	r0, [pc, #248]	; (0x37ec)
    36f4:	f7fd f9b6 	bl	0xa64
    36f8:	9b02      	ldr	r3, [sp, #8]
    36fa:	402b      	ands	r3, r5
    36fc:	9302      	str	r3, [sp, #8]
    36fe:	4643      	mov	r3, r8
    3700:	2b00      	cmp	r3, #0
    3702:	d048      	beq.n	0x3796
    3704:	6833      	ldr	r3, [r6, #0]
    3706:	6898      	ldr	r0, [r3, #8]
    3708:	2364      	movs	r3, #100	; 0x64
    370a:	0002      	movs	r2, r0
    370c:	435a      	muls	r2, r3
    370e:	4641      	mov	r1, r8
    3710:	0010      	movs	r0, r2
    3712:	f001 fcd5 	bl	0x50c0
    3716:	9b03      	ldr	r3, [sp, #12]
    3718:	469c      	mov	ip, r3
    371a:	4484      	add	ip, r0
    371c:	4663      	mov	r3, ip
    371e:	0005      	movs	r5, r0
    3720:	9303      	str	r3, [sp, #12]
    3722:	4833      	ldr	r0, [pc, #204]	; (0x37f0)
    3724:	f7fd f99e 	bl	0xa64
    3728:	3434      	adds	r4, #52	; 0x34
    372a:	002a      	movs	r2, r5
    372c:	4641      	mov	r1, r8
    372e:	4831      	ldr	r0, [pc, #196]	; (0x37f4)
    3730:	f7fd f998 	bl	0xa64
    3734:	45a3      	cmp	fp, r4
    3736:	d1bb      	bne.n	0x36b0
    3738:	210a      	movs	r1, #10
    373a:	9803      	ldr	r0, [sp, #12]
    373c:	f001 fcc0 	bl	0x50c0
    3740:	0004      	movs	r4, r0
    3742:	482d      	ldr	r0, [pc, #180]	; (0x37f8)
    3744:	f7fd f98e 	bl	0xa64
    3748:	9b02      	ldr	r3, [sp, #8]
    374a:	492c      	ldr	r1, [pc, #176]	; (0x37fc)
    374c:	2b00      	cmp	r3, #0
    374e:	d100      	bne.n	0x3752
    3750:	492b      	ldr	r1, [pc, #172]	; (0x3800)
    3752:	482c      	ldr	r0, [pc, #176]	; (0x3804)
    3754:	f7fd f986 	bl	0xa64
    3758:	0021      	movs	r1, r4
    375a:	482b      	ldr	r0, [pc, #172]	; (0x3808)
    375c:	f7fd f982 	bl	0xa64
    3760:	4a2a      	ldr	r2, [pc, #168]	; (0x380c)
    3762:	492b      	ldr	r1, [pc, #172]	; (0x3810)
    3764:	482b      	ldr	r0, [pc, #172]	; (0x3814)
    3766:	f7fd f97d 	bl	0xa64
    376a:	2380      	movs	r3, #128	; 0x80
    376c:	2203      	movs	r2, #3
    376e:	04db      	lsls	r3, r3, #19
    3770:	701a      	strb	r2, [r3, #0]
    3772:	4b29      	ldr	r3, [pc, #164]	; (0x3818)
    3774:	3201      	adds	r2, #1
    3776:	701a      	strb	r2, [r3, #0]
    3778:	23c0      	movs	r3, #192	; 0xc0
    377a:	22f8      	movs	r2, #248	; 0xf8
    377c:	04db      	lsls	r3, r3, #19
    377e:	0092      	lsls	r2, r2, #2
    3780:	801a      	strh	r2, [r3, #0]
    3782:	e7fe      	b.n	0x3782
    3784:	4825      	ldr	r0, [pc, #148]	; (0x381c)
    3786:	f7fd f96d 	bl	0xa64
    378a:	9b02      	ldr	r3, [sp, #8]
    378c:	402b      	ands	r3, r5
    378e:	9302      	str	r3, [sp, #8]
    3790:	4643      	mov	r3, r8
    3792:	2b00      	cmp	r3, #0
    3794:	d1b6      	bne.n	0x3704
    3796:	2500      	movs	r5, #0
    3798:	e7c3      	b.n	0x3722
    379a:	46c0      	nop			; (mov r8, r8)
    379c:	0100      	lsls	r0, r0, #4
    379e:	0400      	lsls	r0, r0, #16
    37a0:	0101      	lsls	r1, r0, #4
    37a2:	0400      	lsls	r0, r0, #16
    37a4:	0102      	lsls	r2, r0, #4
    37a6:	0400      	lsls	r0, r0, #16
    37a8:	0104      	lsls	r4, r0, #4
    37aa:	0400      	lsls	r0, r0, #16
    37ac:	0105      	lsls	r5, r0, #4
    37ae:	0400      	lsls	r0, r0, #16
    37b0:	0106      	lsls	r6, r0, #4
    37b2:	0400      	lsls	r0, r0, #16
    37b4:	0108      	lsls	r0, r1, #4
    37b6:	0400      	lsls	r0, r0, #16
    37b8:	0109      	lsls	r1, r1, #4
    37ba:	0400      	lsls	r0, r0, #16
    37bc:	010a      	lsls	r2, r1, #4
    37be:	0400      	lsls	r0, r0, #16
    37c0:	010c      	lsls	r4, r1, #4
    37c2:	0400      	lsls	r0, r0, #16
    37c4:	010d      	lsls	r5, r1, #4
    37c6:	0400      	lsls	r0, r0, #16
    37c8:	010e      	lsls	r6, r1, #4
    37ca:	0400      	lsls	r0, r0, #16
    37cc:	0154      	lsls	r4, r2, #5
    37ce:	0300      	lsls	r0, r0, #12
    37d0:	01ec      	lsls	r4, r5, #7
    37d2:	0300      	lsls	r0, r0, #12
    37d4:	0158      	lsls	r0, r3, #5
    37d6:	0300      	lsls	r0, r0, #12
    37d8:	5450      	strb	r0, [r2, r1]
    37da:	0800      	lsrs	r0, r0, #32
    37dc:	545c      	strb	r4, [r3, r1]
    37de:	0800      	lsrs	r0, r0, #32
    37e0:	5474      	strb	r4, [r6, r1]
    37e2:	0800      	lsrs	r0, r0, #32
    37e4:	5438      	strb	r0, [r7, r0]
    37e6:	0800      	lsrs	r0, r0, #32
    37e8:	543c      	strb	r4, [r7, r0]
    37ea:	0800      	lsrs	r0, r0, #32
    37ec:	548c      	strb	r4, [r1, r2]
    37ee:	0800      	lsrs	r0, r0, #32
    37f0:	5540      	strb	r0, [r0, r5]
    37f2:	0800      	lsrs	r0, r0, #32
    37f4:	5498      	strb	r0, [r3, r2]
    37f6:	0800      	lsrs	r0, r0, #32
    37f8:	54b0      	strb	r0, [r6, r2]
    37fa:	0800      	lsrs	r0, r0, #32
    37fc:	5440      	strb	r0, [r0, r1]
    37fe:	0800      	lsrs	r0, r0, #32
    3800:	5448      	strb	r0, [r1, r1]
    3802:	0800      	lsrs	r0, r0, #32
    3804:	54e4      	strb	r4, [r4, r3]
    3806:	0800      	lsrs	r0, r0, #32
    3808:	54f4      	strb	r4, [r6, r3]
    380a:	0800      	lsrs	r0, r0, #32
    380c:	5508      	strb	r0, [r1, r4]
    380e:	0800      	lsrs	r0, r0, #32
    3810:	86a0      	strh	r0, [r4, #52]	; 0x34
    3812:	0001      	movs	r1, r0
    3814:	551c      	strb	r4, [r3, r4]
    3816:	0800      	lsrs	r0, r0, #32
    3818:	0001      	movs	r1, r0
    381a:	0400      	lsls	r0, r0, #16
    381c:	5480      	strb	r0, [r0, r2]
    381e:	0800      	lsrs	r0, r0, #32
    3820:	0003      	movs	r3, r0
    3822:	e151      	b.n	0x3ac8
    3824:	0002      	movs	r2, r0
    3826:	0150      	lsls	r0, r2, #5
    3828:	4ff8      	ldr	r7, [pc, #992]	; (0x3c0c)
    382a:	e92d 4000 	stmdb	sp!, {lr}
    382e:	e1a0      	b.n	0x3b72
    3830:	0000      	movs	r0, r0
    3832:	33a0      	adds	r3, #160	; 0xa0
    3834:	5001      	str	r1, [r0, r0]
    3836:	e1a0      	b.n	0x3b7a
    3838:	8028      	strh	r0, [r5, #0]
    383a:	e59d      	b.n	0x3378
    383c:	1000      	asrs	r0, r0, #32
    383e:	31a0      	adds	r1, #160	; 0xa0
    3840:	003e      	movs	r6, r7
    3842:	3a00      	subs	r2, #0
    3844:	1003      	asrs	r3, r0, #32
    3846:	e1a0      	b.n	0x3b8a
    3848:	0002      	movs	r2, r0
    384a:	e1a0      	b.n	0x3b8e
    384c:	6002      	str	r2, [r0, #0]
    384e:	e1a0      	b.n	0x3b92
    3850:	7003      	strb	r3, [r0, #0]
    3852:	e1a0      	b.n	0x3b96
    3854:	fe14 ebff 			; <UNDEFINED> instruction: 0xfe14ebff
    3858:	1005      	asrs	r5, r0, #32
    385a:	e1a0      	b.n	0x3b9e
    385c:	9000      	str	r0, [sp, #0]
    385e:	e1a0      	b.n	0x3ba2
    3860:	0004      	movs	r4, r0
    3862:	e1a0      	b.n	0x3ba6
    3864:	fe10 ebff 			; <UNDEFINED> instruction: 0xfe10ebff
    3868:	c000      	stmia	r0!, {}
    386a:	e049      	b.n	0x3900
    386c:	e020      	b.n	0x38b0
    386e:	e24c      	b.n	0x3d0a
    3870:	bc17      	pop	{r0, r1, r2, r4}
    3872:	e1a0      	b.n	0x3bb6
    3874:	be16      	bkpt	0x0016
    3876:	e18b      	b.n	0x3b90
    3878:	9020      	str	r0, [sp, #128]	; 0x80
    387a:	e26c      	b.n	0x3d56
    387c:	b936      	cbnz	r6, 0x388c
    387e:	e18b      	b.n	0x3b98
    3880:	000b      	movs	r3, r1
    3882:	e155      	b.n	0x3b30
    3884:	ac16      	add	r4, sp, #88	; 0x58
    3886:	e1a0      	b.n	0x3bca
    3888:	000a      	movs	r2, r1
    388a:	0154      	lsls	r4, r2, #5
    388c:	0000      	movs	r0, r0
    388e:	33a0      	adds	r3, #160	; 0xa0
    3890:	1000      	asrs	r0, r0, #32
    3892:	31a0      	adds	r1, #160	; 0xa0
    3894:	0005      	movs	r5, r0
    3896:	3a00      	subs	r2, #0
    3898:	0001      	movs	r1, r0
    389a:	e3a0      	b.n	0x3fde
    389c:	400a      	ands	r2, r1
    389e:	e054      	b.n	0x394a
    38a0:	1e10      	subs	r0, r2, #0
    38a2:	e1a0      	b.n	0x3be6
    38a4:	1930      	adds	r0, r6, r4
    38a6:	e181      	b.n	0x3bac
    38a8:	500b      	str	r3, [r1, r0]
    38aa:	e0c5      	b.n	0x3a38
    38ac:	0c10      	lsrs	r0, r2, #16
    38ae:	e1a0      	b.n	0x3bf2
    38b0:	0000      	movs	r0, r0
    38b2:	e35c      	b.n	0x3f6e
    38b4:	0021      	movs	r1, r4
    38b6:	0a00      	lsrs	r0, r0, #8
    38b8:	60aa      	str	r2, [r5, #8]
    38ba:	e1a0      	b.n	0x3bfe
    38bc:	200c      	movs	r0, #12
    38be:	e1a0      	b.n	0x3c02
    38c0:	6f8b      	ldr	r3, [r1, #120]	; 0x78
    38c2:	e186      	b.n	0x3bd2
    38c4:	70ab      	strb	r3, [r5, #2]
    38c6:	e1a0      	b.n	0x3c0a
    38c8:	0007      	movs	r7, r0
    38ca:	ea00 3006 	and.w	r0, r0, r6, lsl #12
    38ce:	e054      	b.n	0x397a
    38d0:	a007      	add	r0, pc, #28	; (adr r0, 0x38f0)
    38d2:	e0c5      	b.n	0x3a60
    38d4:	3003      	adds	r0, #3
    38d6:	e093      	b.n	0x3a00
    38d8:	a00a      	add	r0, pc, #40	; (adr r0, 0x3904)
    38da:	e0aa      	b.n	0x3a32
    38dc:	4001      	ands	r1, r0
    38de:	e293      	b.n	0x3e08
    38e0:	5000      	str	r0, [r0, r0]
    38e2:	e2aa      	b.n	0x3e3a
    38e4:	2001      	movs	r0, #1
    38e6:	e252      	b.n	0x3d8e
    38e8:	0006      	movs	r6, r0
    38ea:	0a00      	lsrs	r0, r0, #8
    38ec:	0007      	movs	r7, r0
    38ee:	e155      	b.n	0x3b9c
    38f0:	0006      	movs	r6, r0
    38f2:	0154      	lsls	r4, r2, #5
    38f4:	fff4 2aff 			; <UNDEFINED> instruction: 0xfff42aff
    38f8:	4004      	ands	r4, r0
    38fa:	e094      	b.n	0x3a26
    38fc:	5005      	str	r5, [r0, r0]
    38fe:	e0a5      	b.n	0x3a4c
    3900:	2001      	movs	r0, #1
    3902:	e252      	b.n	0x3daa
    3904:	fff8 1aff 			; <UNDEFINED> instruction: 0xfff81aff
    3908:	3c34      	subs	r4, #52	; 0x34
    390a:	e1a0      	b.n	0x3c4e
    390c:	3915      	subs	r1, #21
    390e:	e183      	b.n	0x3c18
    3910:	3e35      	subs	r6, #53	; 0x35
    3912:	e183      	b.n	0x3c1c
    3914:	0004      	movs	r4, r0
    3916:	e090      	b.n	0x3a3a
    3918:	4003      	ands	r3, r0
    391a:	e1a0      	b.n	0x3c5e
    391c:	2c35      	cmp	r4, #53	; 0x35
    391e:	e1a0      	b.n	0x3c62
    3920:	1005      	asrs	r5, r0, #32
    3922:	e0a1      	b.n	0x3a68
    3924:	5002      	str	r2, [r0, r0]
    3926:	e1a0      	b.n	0x3c6a
    3928:	3c12      	subs	r4, #18
    392a:	e1a0      	b.n	0x3c6e
    392c:	3e14      	subs	r6, #20
    392e:	e183      	b.n	0x3c38
    3930:	cc14      	ldmia	r4, {r2, r4}
    3932:	e1a0      	b.n	0x3c76
    3934:	000c      	movs	r4, r1
    3936:	e050      	b.n	0x39da
    3938:	3934      	subs	r1, #52	; 0x34
    393a:	e183      	b.n	0x3c44
    393c:	1003      	asrs	r3, r0, #32
    393e:	e0c1      	b.n	0x3ac4
    3940:	0000      	movs	r0, r0
    3942:	e358      	b.n	0x3ff6
    3944:	0030      	movs	r0, r6
    3946:	1888      	adds	r0, r1, r2
    3948:	4ff8      	ldr	r7, [pc, #992]	; (0x3d2c)
    394a:	e8bd ff1e 	ldmia.w	sp!, {r1, r2, r3, r4, r8, r9, sl, fp, ip, sp, lr, pc}
    394e:	e12f      	b.n	0x3bb0
    3950:	3000      	adds	r0, #0
    3952:	e590      	b.n	0x3476
    3954:	0101      	lsls	r1, r0, #4
    3956:	e313      	b.n	0x3f80
    3958:	3102      	adds	r1, #2
    395a:	1383      	asrs	r3, r0, #14
    395c:	3102      	adds	r1, #2
    395e:	03c3      	lsls	r3, r0, #15
    3960:	0003      	movs	r3, r0
    3962:	e080      	b.n	0x3a66
    3964:	ff1e e12f 	vrhadd.u16	d14, d14, d31
    3968:	0000      	movs	r0, r0
    396a:	e351      	b.n	0x4010
    396c:	0021      	movs	r1, r4
    396e:	0a00      	lsrs	r0, r0, #8
    3970:	47f0      	blx	lr
    3972:	e92d 8001 	stmdb	sp!, {r0, pc}
    3976:	e241      	b.n	0x3dfc
    3978:	6000      	str	r0, [r0, #0]
    397a:	e1a0      	b.n	0x3cbe
    397c:	7008      	strb	r0, [r1, #0]
    397e:	e1a0      	b.n	0x3cc2
    3980:	9000      	str	r0, [sp, #0]
    3982:	e3a0      	b.n	0x40c6
    3984:	4007      	ands	r7, r0
    3986:	e089      	b.n	0x3a9c
    3988:	4fa4      	ldr	r7, [pc, #656]	; (0x3c1c)
    398a:	e084      	b.n	0x3a96
    398c:	40c4      	lsrs	r4, r0
    398e:	e1a0      	b.n	0x3cd2
    3990:	5184      	str	r4, [r0, r6]
    3992:	e1a0      	b.n	0x3cd6
    3994:	1005      	asrs	r5, r0, #32
    3996:	e086      	b.n	0x3aa6
    3998:	0001      	movs	r1, r0
    399a:	e1a0      	b.n	0x3cde
    399c:	ffeb ebff 			; <UNDEFINED> instruction: 0xffebebff
    39a0:	0004      	movs	r4, r0
    39a2:	e158      	b.n	0x3c56
    39a4:	3000      	adds	r0, #0
    39a6:	e1a0      	b.n	0x3cea
    39a8:	0008      	movs	r0, r1
    39aa:	e285      	b.n	0x3eb8
    39ac:	0000      	movs	r0, r0
    39ae:	e086      	b.n	0x3abe
    39b0:	0007      	movs	r7, r0
    39b2:	0a00      	lsrs	r0, r0, #8
    39b4:	0002      	movs	r2, r0
    39b6:	e153      	b.n	0x3c60
    39b8:	0007      	movs	r7, r0
    39ba:	8a00      	ldrh	r0, [r0, #16]
    39bc:	ffe3 ebff 			; <UNDEFINED> instruction: 0xffe3ebff
    39c0:	0001      	movs	r1, r0
    39c2:	e240      	b.n	0x3e46
    39c4:	0002      	movs	r2, r0
    39c6:	e150      	b.n	0x3c6a
    39c8:	0007      	movs	r7, r0
    39ca:	2a00      	cmp	r2, #0
    39cc:	9001      	str	r0, [sp, #4]
    39ce:	e284      	b.n	0x3eda
    39d0:	ffeb eaff 			; <UNDEFINED> instruction: 0xffebeaff
    39d4:	0002      	movs	r2, r0
    39d6:	e153      	b.n	0x3c80
    39d8:	0003      	movs	r3, r0
    39da:	9a00      	ldr	r2, [sp, #0]
    39dc:	0004      	movs	r4, r0
    39de:	e159      	b.n	0x3c94
    39e0:	7001      	strb	r1, [r0, #0]
    39e2:	1244      	asrs	r4, r0, #9
    39e4:	ffe6 1aff 			; <UNDEFINED> instruction: 0xffe61aff
    39e8:	1000      	asrs	r0, r0, #32
    39ea:	e3a0      	b.n	0x412e
    39ec:	0001      	movs	r1, r0
    39ee:	e1a0      	b.n	0x3d32
    39f0:	47f0      	blx	lr
    39f2:	e8bd ff1e 	ldmia.w	sp!, {r1, r2, r3, r4, r8, r9, sl, fp, ip, sp, lr, pc}
    39f6:	e12f      	b.n	0x3c58
    39f8:	0001      	movs	r1, r0
    39fa:	e1a0      	b.n	0x3d3e
    39fc:	ff1e e12f 	vrhadd.u16	d14, d14, d31
    3a00:	0001      	movs	r1, r0
    3a02:	e350      	b.n	0x40a6
    3a04:	0006      	movs	r6, r0
    3a06:	0a00      	lsrs	r0, r0, #8
    3a08:	0002      	movs	r2, r0
    3a0a:	e350      	b.n	0x40ae
    3a0c:	0006      	movs	r6, r0
    3a0e:	0a00      	lsrs	r0, r0, #8
    3a10:	301c      	adds	r0, #28
    3a12:	e59f      	b.n	0x3554
    3a14:	0000      	movs	r0, r0
    3a16:	e350      	b.n	0x40ba
    3a18:	0003      	movs	r3, r0
    3a1a:	01a0      	lsls	r0, r4, #6
    3a1c:	0000      	movs	r0, r0
    3a1e:	13a0      	asrs	r0, r4, #14
    3a20:	ff1e e12f 	vrhadd.u16	d14, d14, d31
    3a24:	000c      	movs	r4, r1
    3a26:	e59f      	b.n	0x3568
    3a28:	ff1e e12f 	vrhadd.u16	d14, d14, d31
    3a2c:	0008      	movs	r0, r1
    3a2e:	e59f      	b.n	0x3570
    3a30:	ff1e e12f 	vrhadd.u16	d14, d14, d31
    3a34:	4588      	cmp	r8, r1
    3a36:	0800      	lsrs	r0, r0, #32
    3a38:	4590      	cmp	r8, r2
    3a3a:	0800      	lsrs	r0, r0, #32
    3a3c:	4598      	cmp	r8, r3
    3a3e:	0800      	lsrs	r0, r0, #32
    3a40:	4030      	ands	r0, r6
    3a42:	e92d 3110 	stmdb	sp!, {r4, r8, ip, sp}
    3a46:	e59f      	b.n	0x3588
    3a48:	0000      	movs	r0, r0
    3a4a:	e353      	b.n	0x40f4
    3a4c:	d00c      	beq.n	0x3a68
    3a4e:	e24d      	b.n	0x3eec
    3a50:	4000      	ands	r0, r0
    3a52:	e1a0      	b.n	0x3d96
    3a54:	5002      	str	r2, [r0, r0]
    3a56:	e241      	b.n	0x3edc
    3a58:	0029      	movs	r1, r5
    3a5a:	0a00      	lsrs	r0, r0, #8
    3a5c:	1004      	asrs	r4, r0, #32
    3a5e:	e28d      	b.n	0x3f7c
    3a60:	0005      	movs	r5, r0
    3a62:	e1a0      	b.n	0x3da6
    3a64:	0000      	movs	r0, r0
    3a66:	e1a0      	b.n	0x3daa
    3a68:	0000      	movs	r0, r0
    3a6a:	e350      	b.n	0x410e
    3a6c:	001d      	movs	r5, r3
    3a6e:	0a00      	lsrs	r0, r0, #8
    3a70:	1004      	asrs	r4, r0, #32
    3a72:	e59d      	b.n	0x35b0
    3a74:	2005      	movs	r0, #5
    3a76:	e1a0      	b.n	0x3dba
    3a78:	ffba ebff 			; <UNDEFINED> instruction: 0xffbaebff
    3a7c:	2000      	movs	r0, #0
    3a7e:	e250      	b.n	0x3f22
    3a80:	0018      	movs	r0, r3
    3a82:	0a00      	lsrs	r0, r0, #8
    3a84:	ffb1 ebff 			; <UNDEFINED> instruction: 0xffb1ebff
    3a88:	3004      	adds	r0, #4
    3a8a:	e592      	b.n	0x35b2
    3a8c:	0001      	movs	r1, r0
    3a8e:	e353      	b.n	0x4138
    3a90:	2000      	movs	r0, #0
    3a92:	03a0      	lsls	r0, r4, #14
    3a94:	0048      	lsls	r0, r1, #1
    3a96:	e584      	b.n	0x35a2
    3a98:	3005      	adds	r0, #5
    3a9a:	03a0      	lsls	r0, r4, #14
    3a9c:	2010      	movs	r0, #16
    3a9e:	0584      	lsls	r4, r0, #22
    3aa0:	000c      	movs	r4, r1
    3aa2:	0a00      	lsrs	r0, r0, #8
    3aa4:	0000      	movs	r0, r0
    3aa6:	e353      	b.n	0x4150
    3aa8:	0004      	movs	r4, r0
    3aaa:	e282      	b.n	0x3fb2
    3aac:	0026      	movs	r6, r4
    3aae:	ba00      	rev	r0, r0
    3ab0:	ffa6 ebff 			; <UNDEFINED> instruction: 0xffa6ebff
    3ab4:	3000      	adds	r0, #0
    3ab6:	e3a0      	b.n	0x41fa
    3ab8:	004c      	lsls	r4, r1, #1
    3aba:	e584      	b.n	0x35c6
    3abc:	3050      	adds	r0, #80	; 0x50
    3abe:	e584      	b.n	0x35ca
    3ac0:	3000      	adds	r0, #0
    3ac2:	e590      	b.n	0x35e6
    3ac4:	0000      	movs	r0, r0
    3ac6:	e353      	b.n	0x4170
    3ac8:	0014      	movs	r4, r2
    3aca:	ba00      	rev	r0, r0
    3acc:	ff9f ebff 			; <UNDEFINED> instruction: 0xff9febff
    3ad0:	3000      	adds	r0, #0
    3ad2:	e3a0      	b.n	0x4216
    3ad4:	0010      	movs	r0, r2
    3ad6:	e584      	b.n	0x35e2
    3ad8:	0003      	movs	r3, r0
    3ada:	e1a0      	b.n	0x3e1e
    3adc:	d00c      	beq.n	0x3af8
    3ade:	e28d      	b.n	0x3ffc
    3ae0:	4030      	ands	r0, r6
    3ae2:	e8bd ff1e 	ldmia.w	sp!, {r1, r2, r3, r4, r8, r9, sl, fp, ip, sp, lr, pc}
    3ae6:	e12f      	b.n	0x3d48
    3ae8:	3009      	adds	r0, #9
    3aea:	e3a0      	b.n	0x422e
    3aec:	2000      	movs	r0, #0
    3aee:	e3a0      	b.n	0x4232
    3af0:	0003      	movs	r3, r0
    3af2:	e1a0      	b.n	0x3e36
    3af4:	2010      	movs	r0, #16
    3af6:	e584      	b.n	0x3602
    3af8:	d00c      	beq.n	0x3b14
    3afa:	e28d      	b.n	0x4018
    3afc:	4030      	ands	r0, r6
    3afe:	e8bd ff1e 	ldmia.w	sp!, {r1, r2, r3, r4, r8, r9, sl, fp, ip, sp, lr, pc}
    3b02:	e12f      	b.n	0x3d64
    3b04:	3054      	adds	r0, #84	; 0x54
    3b06:	e59f      	b.n	0x3648
    3b08:	1054      	asrs	r4, r2, #1
    3b0a:	e59f      	b.n	0x364c
    3b0c:	1003      	asrs	r3, r0, #32
    3b0e:	e041      	b.n	0x3b94
    3b10:	11c1      	asrs	r1, r0, #7
    3b12:	e1a0      	b.n	0x3e56
    3b14:	0003      	movs	r3, r0
    3b16:	e1a0      	b.n	0x3e5a
    3b18:	1004      	asrs	r4, r0, #32
    3b1a:	e58d      	b.n	0x3638
    3b1c:	ffd4 eaff 			; <UNDEFINED> instruction: 0xffd4eaff
    3b20:	0c23      	lsrs	r3, r4, #16
    3b22:	e1a0      	b.n	0x3e66
    3b24:	000f      	movs	r7, r1
    3b26:	e200      	b.n	0x3f2a
    3b28:	ffb4 ebff 			; <UNDEFINED> instruction: 0xffb4ebff
    3b2c:	0000      	movs	r0, r0
    3b2e:	e350      	b.n	0x41d2
    3b30:	3000      	adds	r0, #0
    3b32:	13a0      	asrs	r0, r4, #14
    3b34:	3009      	adds	r0, #9
    3b36:	03a0      	lsls	r0, r4, #14
    3b38:	0010      	movs	r0, r2
    3b3a:	e584      	b.n	0x3646
    3b3c:	0003      	movs	r3, r0
    3b3e:	e1a0      	b.n	0x3e82
    3b40:	d00c      	beq.n	0x3b5c
    3b42:	e28d      	b.n	0x4060
    3b44:	4030      	ands	r0, r6
    3b46:	e8bd ff1e 	ldmia.w	sp!, {r1, r2, r3, r4, r8, r9, sl, fp, ip, sp, lr, pc}
    3b4a:	e12f      	b.n	0x3dac
    3b4c:	3001      	adds	r0, #1
    3b4e:	e3a0      	b.n	0x4292
    3b50:	004c      	lsls	r4, r1, #1
    3b52:	e584      	b.n	0x365e
    3b54:	3050      	adds	r0, #80	; 0x50
    3b56:	e584      	b.n	0x3662
    3b58:	ffd8 eaff 			; <UNDEFINED> instruction: 0xffd8eaff
    3b5c:	0000      	movs	r0, r0
    3b5e:	0000      	movs	r0, r0
    3b60:	5764      	ldrsb	r4, [r4, r5]
    3b62:	0800      	lsrs	r0, r0, #32
    3b64:	57d4      	ldrsb	r4, [r2, r7]
    3b66:	0800      	lsrs	r0, r0, #32
    3b68:	3000      	adds	r0, #0
    3b6a:	e590      	b.n	0x368e
    3b6c:	0001      	movs	r1, r0
    3b6e:	e313      	b.n	0x4198
    3b70:	4010      	ands	r0, r2
    3b72:	e92d 4000 	stmdb	sp!, {lr}
    3b76:	e1a0      	b.n	0x3eba
    3b78:	0004      	movs	r4, r0
    3b7a:	1a00      	subs	r0, r0, r0
    3b7c:	0002      	movs	r2, r0
    3b7e:	e313      	b.n	0x41a8
    3b80:	0048      	lsls	r0, r1, #1
    3b82:	e280      	b.n	0x4086
    3b84:	0009      	movs	r1, r1
    3b86:	0a00      	lsrs	r0, r0, #8
    3b88:	fce6 ebff 			; <UNDEFINED> instruction: 0xfce6ebff
    3b8c:	3000      	adds	r0, #0
    3b8e:	e594      	b.n	0x36ba
    3b90:	0004      	movs	r4, r0
    3b92:	e313      	b.n	0x41bc
    3b94:	0009      	movs	r1, r1
    3b96:	0a00      	lsrs	r0, r0, #8
    3b98:	0008      	movs	r0, r1
    3b9a:	e313      	b.n	0x41c4
    3b9c:	000c      	movs	r4, r1
    3b9e:	0a00      	lsrs	r0, r0, #8
    3ba0:	0010      	movs	r0, r2
    3ba2:	e313      	b.n	0x41cc
    3ba4:	000f      	movs	r7, r1
    3ba6:	0a00      	lsrs	r0, r0, #8
    3ba8:	4010      	ands	r0, r2
    3baa:	e8bd ff1e 	ldmia.w	sp!, {r1, r2, r3, r4, r8, r9, sl, fp, ip, sp, lr, pc}
    3bae:	e12f      	b.n	0x3e10
    3bb0:	fcd8 ebff 			; <UNDEFINED> instruction: 0xfcd8ebff
    3bb4:	3000      	adds	r0, #0
    3bb6:	e594      	b.n	0x36e2
    3bb8:	0004      	movs	r4, r0
    3bba:	e313      	b.n	0x41e4
    3bbc:	fff5 1aff 			; <UNDEFINED> instruction: 0xfff51aff
    3bc0:	00d0      	lsls	r0, r2, #3
    3bc2:	e284      	b.n	0x40ce
    3bc4:	fcdb ebff 			; <UNDEFINED> instruction: 0xfcdbebff
    3bc8:	3000      	adds	r0, #0
    3bca:	e594      	b.n	0x36f6
    3bcc:	0008      	movs	r0, r1
    3bce:	e313      	b.n	0x41f8
    3bd0:	fff2 1aff 			; <UNDEFINED> instruction: 0xfff21aff
    3bd4:	0e15      	lsrs	r5, r2, #24
    3bd6:	e284      	b.n	0x40e2
    3bd8:	fcda ebff 			; <UNDEFINED> instruction: 0xfcdaebff
    3bdc:	3000      	adds	r0, #0
    3bde:	e594      	b.n	0x370a
    3be0:	0010      	movs	r0, r2
    3be2:	e313      	b.n	0x420c
    3be4:	ffef 1aff 			; <UNDEFINED> instruction: 0xffef1aff
    3be8:	0e1d      	lsrs	r5, r3, #24
    3bea:	e284      	b.n	0x40f6
    3bec:	fcf7 ebff 			; <UNDEFINED> instruction: 0xfcf7ebff
    3bf0:	4010      	ands	r0, r2
    3bf2:	e8bd ff1e 	ldmia.w	sp!, {r1, r2, r3, r4, r8, r9, sl, fp, ip, sp, lr, pc}
    3bf6:	e12f      	b.n	0x3e58
    3bf8:	3000      	adds	r0, #0
    3bfa:	e590      	b.n	0x371e
    3bfc:	0000      	movs	r0, r0
    3bfe:	e353      	b.n	0x42a8
    3c00:	3000      	adds	r0, #0
    3c02:	1083      	asrs	r3, r0, #2
    3c04:	0003      	movs	r3, r0
    3c06:	e1a0      	b.n	0x3f4a
    3c08:	ff1e e12f 	vrhadd.u16	d14, d14, d31
    3c0c:	ff1e e12f 	vrhadd.u16	d14, d14, d31
    3c10:	4010      	ands	r0, r2
    3c12:	e92d 5001 	stmdb	sp!, {r0, ip, lr}
    3c16:	e1a0      	b.n	0x3f5a
    3c18:	4000      	ands	r0, r0
    3c1a:	e1a0      	b.n	0x3f5e
    3c1c:	1040      	asrs	r0, r0, #1
    3c1e:	e595      	b.n	0x374c
    3c20:	0004      	movs	r4, r0
    3c22:	e1a0      	b.n	0x3f66
    3c24:	ff85 ebff 			; <UNDEFINED> instruction: 0xff85ebff
    3c28:	6000      	str	r0, [r0, #0]
    3c2a:	e250      	b.n	0x40ce
    3c2c:	0010      	movs	r0, r2
    3c2e:	1a00      	subs	r0, r0, r0
    3c30:	2040      	movs	r0, #64	; 0x40
    3c32:	e595      	b.n	0x3760
    3c34:	3010      	adds	r0, #16
    3c36:	e594      	b.n	0x3762
    3c38:	2014      	movs	r0, #20
    3c3a:	e584      	b.n	0x3746
    3c3c:	1004      	asrs	r4, r0, #32
    3c3e:	e1a0      	b.n	0x3f82
    3c40:	2005      	movs	r0, #5
    3c42:	e1a0      	b.n	0x3f86
    3c44:	0001      	movs	r1, r0
    3c46:	e3a0      	b.n	0x438a
    3c48:	e00f      	b.n	0x3c6a
    3c4a:	e1a0      	b.n	0x3f8e
    3c4c:	ff13 e12f 	vrhadd.u16	d14, d3, d31
    3c50:	0008      	movs	r0, r1
    3c52:	e350      	b.n	0x42f6
    3c54:	fff0 0aff 			; <UNDEFINED> instruction: 0xfff00aff
    3c58:	0007      	movs	r7, r0
    3c5a:	e350      	b.n	0x42fe
    3c5c:	0004      	movs	r4, r0
    3c5e:	1a00      	subs	r0, r0, r0
    3c60:	0006      	movs	r6, r0
    3c62:	e1a0      	b.n	0x3fa6
    3c64:	1040      	asrs	r0, r0, #1
    3c66:	e595      	b.n	0x3794
    3c68:	ffe7 ebff 			; <UNDEFINED> instruction: 0xffe7ebff
    3c6c:	0004      	movs	r4, r0
    3c6e:	e285      	b.n	0x417c
    3c70:	fca1 ebff 			; <UNDEFINED> instruction: 0xfca1ebff
    3c74:	0454      	lsls	r4, r2, #17
    3c76:	eb00 47f0 	add.w	r7, r0, r0, ror #19
    3c7a:	e92d 4000 	stmdb	sp!, {lr}
    3c7e:	e1a0      	b.n	0x3fc2
    3c80:	5000      	str	r0, [r0, r0]
    3c82:	e3a0      	b.n	0x43c6
    3c84:	e004      	b.n	0x3c90
    3c86:	e281      	b.n	0x418c
    3c88:	dff2      	svc	242	; 0xf2
    3c8a:	e24d      	b.n	0x4128
    3c8c:	6002      	str	r2, [r0, #0]
    3c8e:	e1a0      	b.n	0x3fd2
    3c90:	000f      	movs	r7, r1
    3c92:	e8be c00c 	ldmia.w	lr!, {r2, r3, lr, pc}
    3c96:	e28d      	b.n	0x41b4
    3c98:	000f      	movs	r7, r1
    3c9a:	e8ac 000f 	stmia.w	ip!, {r0, r1, r2, r3}
    3c9e:	e8be 000f 	ldmia.w	lr!, {r0, r1, r2, r3}
    3ca2:	e8ac 000f 	stmia.w	ip!, {r0, r1, r2, r3}
    3ca6:	e8be 000f 	ldmia.w	lr!, {r0, r1, r2, r3}
    3caa:	e8ac 000f 	stmia.w	ip!, {r0, r1, r2, r3}
    3cae:	e89e 900c 	ldmia.w	lr, {r2, r3, ip, pc}
    3cb2:	e594      	b.n	0x37de
    3cb4:	a018      	add	r0, pc, #96	; (adr r0, 0x3d18)
    3cb6:	e594      	b.n	0x37e2
    3cb8:	000f      	movs	r7, r1
    3cba:	e88c 0004 	stmia.w	ip, {r2}
    3cbe:	e1a0      	b.n	0x4002
    3cc0:	1048      	asrs	r0, r1, #1
    3cc2:	e59d      	b.n	0x3800
    3cc4:	5008      	str	r0, [r1, r0]
    3cc6:	e58d      	b.n	0x37e4
    3cc8:	ff5c ebff 	vqrdmlah.s16	q15, q14, <illegal reg q15.5>
    3ccc:	0000      	movs	r0, r0
    3cce:	e356      	b.n	0x437e
    3cd0:	5000      	str	r0, [r0, r0]
    3cd2:	e1a0      	b.n	0x4016
    3cd4:	700a      	strb	r2, [r1, #0]
    3cd6:	13a0      	asrs	r0, r4, #14
    3cd8:	7009      	strb	r1, [r1, #0]
    3cda:	03a0      	lsls	r0, r4, #14
    3cdc:	6008      	str	r0, [r1, #0]
    3cde:	e28d      	b.n	0x41fc
    3ce0:	0022      	movs	r2, r4
    3ce2:	ea00 3048 	and.w	r0, r0, r8, lsl #13
    3ce6:	e59d      	b.n	0x3824
    3ce8:	2e1e      	cmp	r6, #30
    3cea:	e3a0      	b.n	0x442e
    3cec:	3014      	adds	r0, #20
    3cee:	e584      	b.n	0x37fa
    3cf0:	1006      	asrs	r6, r0, #32
    3cf2:	e1a0      	b.n	0x4036
    3cf4:	0f7a      	lsrs	r2, r7, #29
    3cf6:	e28d      	b.n	0x4214
    3cf8:	045a      	lsls	r2, r3, #17
    3cfa:	eb00 3010 	add.w	r0, r0, r0, lsr #12
    3cfe:	e594      	b.n	0x382a
    3d00:	2f7a      	cmp	r7, #122	; 0x7a
    3d02:	e28d      	b.n	0x4220
    3d04:	1004      	asrs	r4, r0, #32
    3d06:	e1a0      	b.n	0x404a
    3d08:	0007      	movs	r7, r0
    3d0a:	e1a0      	b.n	0x404e
    3d0c:	e00f      	b.n	0x3d2e
    3d0e:	e1a0      	b.n	0x4052
    3d10:	ff13 e12f 	vrhadd.u16	d14, d3, d31
    3d14:	3220      	adds	r2, #32
    3d16:	e59d      	b.n	0x3854
    3d18:	8000      	strh	r0, [r0, #0]
    3d1a:	e1a0      	b.n	0x405e
    3d1c:	304c      	adds	r0, #76	; 0x4c
    3d1e:	e58d      	b.n	0x383c
    3d20:	0440      	lsls	r0, r0, #17
    3d22:	e88d 1007 	stmia.w	sp, {r0, r1, r2, ip}
    3d26:	e1a0      	b.n	0x406a
    3d28:	3004      	adds	r0, #4
    3d2a:	e1a0      	b.n	0x406e
    3d2c:	2004      	movs	r0, #4
    3d2e:	e1a0      	b.n	0x4072
    3d30:	0001      	movs	r1, r0
    3d32:	e3a0      	b.n	0x4476
    3d34:	e00f      	b.n	0x3d56
    3d36:	e1a0      	b.n	0x407a
    3d38:	ff19 e12f 	vrhadd.u16	d14, d9, d31
    3d3c:	0000      	movs	r0, r0
    3d3e:	e350      	b.n	0x43e2
    3d40:	0017      	movs	r7, r2
    3d42:	1a00      	subs	r0, r0, r0
    3d44:	2e1e      	cmp	r6, #30
    3d46:	e3a0      	b.n	0x448a
    3d48:	1f7a      	subs	r2, r7, #5
    3d4a:	e28d      	b.n	0x4268
    3d4c:	0006      	movs	r6, r0
    3d4e:	e1a0      	b.n	0x4092
    3d50:	0444      	lsls	r4, r0, #17
    3d52:	eb00 0008 	add.w	r0, r0, r8
    3d56:	e358      	b.n	0x440a
    3d58:	0016      	movs	r6, r2
    3d5a:	1a00      	subs	r0, r0, r0
    3d5c:	1048      	asrs	r0, r1, #1
    3d5e:	e59d      	b.n	0x389c
    3d60:	0004      	movs	r4, r0
    3d62:	e1a0      	b.n	0x40a6
    3d64:	ff35 ebff 	vqrdmlah.s<illegal width 64>	q7, <illegal reg q10.5>, <illegal reg q15.5>
    3d68:	7009      	strb	r1, [r1, #0]
    3d6a:	e3a0      	b.n	0x44ae
    3d6c:	5000      	str	r0, [r0, r0]
    3d6e:	e1a0      	b.n	0x40b2
    3d70:	0000      	movs	r0, r0
    3d72:	e355      	b.n	0x4420
    3d74:	ffda 0aff 			; <UNDEFINED> instruction: 0xffda0aff
    3d78:	3040      	adds	r0, #64	; 0x40
    3d7a:	e59d      	b.n	0x38b8
    3d7c:	0440      	lsls	r0, r0, #17
    3d7e:	e88d 304c 	stmia.w	sp, {r2, r3, r6, ip, sp}
    3d82:	e58d      	b.n	0x38a0
    3d84:	1010      	asrs	r0, r2, #32
    3d86:	e387      	b.n	0x4498
    3d88:	3004      	adds	r0, #4
    3d8a:	e1a0      	b.n	0x40ce
    3d8c:	2004      	movs	r0, #4
    3d8e:	e1a0      	b.n	0x40d2
    3d90:	0001      	movs	r1, r0
    3d92:	e3a0      	b.n	0x44d6
    3d94:	e00f      	b.n	0x3db6
    3d96:	e1a0      	b.n	0x40da
    3d98:	ff19 e12f 	vrhadd.u16	d14, d9, d31
    3d9c:	0000      	movs	r0, r0
    3d9e:	e350      	b.n	0x4442
    3da0:	0000      	movs	r0, r0
    3da2:	0a00      	lsrs	r0, r0, #8
    3da4:	5009      	str	r1, [r1, r0]
    3da6:	e3a0      	b.n	0x44ea
    3da8:	0005      	movs	r5, r0
    3daa:	e1a0      	b.n	0x40ee
    3dac:	dff2      	svc	242	; 0xf2
    3dae:	e28d      	b.n	0x42cc
    3db0:	47f0      	blx	lr
    3db2:	e8bd ff1e 	ldmia.w	sp!, {r1, r2, r3, r4, r8, r9, sl, fp, ip, sp, lr, pc}
    3db6:	e12f      	b.n	0x4018
    3db8:	0007      	movs	r7, r0
    3dba:	e358      	b.n	0x446e
    3dbc:	fff8 1aff 			; <UNDEFINED> instruction: 0xfff81aff
    3dc0:	0005      	movs	r5, r0
    3dc2:	e1a0      	b.n	0x4106
    3dc4:	1048      	asrs	r0, r1, #1
    3dc6:	e59d      	b.n	0x3904
    3dc8:	ff8f ebff 			; <UNDEFINED> instruction: 0xff8febff
    3dcc:	000c      	movs	r4, r1
    3dce:	e28d      	b.n	0x42ec
    3dd0:	fc49 ebff 			; <UNDEFINED> instruction: 0xfc49ebff
    3dd4:	4070      	eors	r0, r6
    3dd6:	e92d 5000 	stmdb	sp!, {ip, lr}
    3dda:	e3e0      	b.n	0x459e
    3ddc:	303c      	adds	r0, #60	; 0x3c
    3dde:	e591      	b.n	0x3904
    3de0:	3040      	adds	r0, #64	; 0x40
    3de2:	e581      	b.n	0x38e8
    3de4:	e004      	b.n	0x3df0
    3de6:	e281      	b.n	0x42ec
    3de8:	de1e      	udf	#30
    3dea:	e24d      	b.n	0x4288
    3dec:	6001      	str	r1, [r0, #0]
    3dee:	e1a0      	b.n	0x4132
    3df0:	4000      	ands	r0, r0
    3df2:	e1a0      	b.n	0x4136
    3df4:	000f      	movs	r7, r1
    3df6:	e8be c004 	ldmia.w	lr!, {r2, lr, pc}
    3dfa:	e28d      	b.n	0x4318
    3dfc:	000f      	movs	r7, r1
    3dfe:	e8ac 000f 	stmia.w	ip!, {r0, r1, r2, r3}
    3e02:	e8be 000f 	ldmia.w	lr!, {r0, r1, r2, r3}
    3e06:	e8ac 000f 	stmia.w	ip!, {r0, r1, r2, r3}
    3e0a:	e8be 000f 	ldmia.w	lr!, {r0, r1, r2, r3}
    3e0e:	e8ac 000f 	stmia.w	ip!, {r0, r1, r2, r3}
    3e12:	e89e 000f 	ldmia.w	lr, {r0, r1, r2, r3}
    3e16:	e88c 5000 	stmia.w	ip, {ip, lr}
    3e1a:	e58d      	b.n	0x3938
    3e1c:	0007      	movs	r7, r0
    3e1e:	ea00 3010 	and.w	r0, r0, r0, lsr #12
    3e22:	e594      	b.n	0x394e
    3e24:	200d      	movs	r0, #13
    3e26:	e1a0      	b.n	0x416a
    3e28:	1004      	asrs	r4, r0, #32
    3e2a:	e1a0      	b.n	0x416e
    3e2c:	e00f      	b.n	0x3e4e
    3e2e:	e1a0      	b.n	0x4172
    3e30:	ff13 e12f 	vrhadd.u16	d14, d3, d31
    3e34:	0008      	movs	r0, r1
    3e36:	e350      	b.n	0x44da
    3e38:	5000      	str	r0, [r0, r0]
    3e3a:	e1a0      	b.n	0x417e
    3e3c:	0008      	movs	r0, r1
    3e3e:	1a00      	subs	r0, r0, r0
    3e40:	1040      	asrs	r0, r0, #1
    3e42:	e59d      	b.n	0x3980
    3e44:	0004      	movs	r4, r0
    3e46:	e1a0      	b.n	0x418a
    3e48:	fefc ebff 			; <UNDEFINED> instruction: 0xfefcebff
    3e4c:	0000      	movs	r0, r0
    3e4e:	e350      	b.n	0x44f2
    3e50:	fff2 0aff 			; <UNDEFINED> instruction: 0xfff20aff
    3e54:	0009      	movs	r1, r1
    3e56:	e3a0      	b.n	0x459a
    3e58:	de1e      	udf	#30
    3e5a:	e28d      	b.n	0x4378
    3e5c:	4070      	eors	r0, r6
    3e5e:	e8bd ff1e 	ldmia.w	sp!, {r1, r2, r3, r4, r8, r9, sl, fp, ip, sp, lr, pc}
    3e62:	e12f      	b.n	0x40c4
    3e64:	000d      	movs	r5, r1
    3e66:	e1a0      	b.n	0x41aa
    3e68:	ff3e ebff 	vqrdmlah.s<illegal width 64>	q7, q15, <illegal reg q15.5>
    3e6c:	0006      	movs	r6, r0
    3e6e:	e355      	b.n	0x451c
    3e70:	fff7 1aff 			; <UNDEFINED> instruction: 0xfff71aff
    3e74:	1006      	asrs	r6, r0, #32
    3e76:	e1a0      	b.n	0x41ba
    3e78:	0004      	movs	r4, r0
    3e7a:	e1a0      	b.n	0x41be
    3e7c:	ff63 ebff 	vqrdmlah.s32	q15, <illegal reg q9.5>, <illegal reg q15.5>
    3e80:	e004      	b.n	0x3e8c
    3e82:	e52d      	b.n	0x38e0
    3e84:	e03c      	b.n	0x3f00
    3e86:	e593      	b.n	0x39b0
    3e88:	100c      	asrs	r4, r1, #32
    3e8a:	e580      	b.n	0x398e
    3e8c:	2018      	movs	r0, #24
    3e8e:	e580      	b.n	0x3992
    3e90:	1003      	asrs	r3, r0, #32
    3e92:	e1a0      	b.n	0x41d6
    3e94:	e040      	b.n	0x3f18
    3e96:	e583      	b.n	0x39a0
    3e98:	2000      	movs	r0, #0
    3e9a:	e3a0      	b.n	0x45de
    3e9c:	e004      	b.n	0x3ea8
    3e9e:	e49d      	b.n	0x37dc
    3ea0:	ff74 eaff 	vpmin.u<illegal width 64>	q15, q10, <illegal reg q15.5>
    3ea4:	4070      	eors	r0, r6
    3ea6:	e92d 600c 	stmdb	sp!, {r2, r3, sp, lr}
    3eaa:	e590      	b.n	0x39ce
    3eac:	3014      	adds	r0, #20
    3eae:	e590      	b.n	0x39d2
    3eb0:	0000      	movs	r0, r0
    3eb2:	e356      	b.n	0x4562
    3eb4:	3040      	adds	r0, #64	; 0x40
    3eb6:	e581      	b.n	0x39bc
    3eb8:	0013      	movs	r3, r2
    3eba:	1a00      	subs	r0, r0, r0
    3ebc:	3010      	adds	r0, #16
    3ebe:	e590      	b.n	0x39e2
    3ec0:	2001      	movs	r0, #1
    3ec2:	e1a0      	b.n	0x4206
    3ec4:	4000      	ands	r0, r0
    3ec6:	e1a0      	b.n	0x420a
    3ec8:	5001      	str	r1, [r0, r0]
    3eca:	e1a0      	b.n	0x420e
    3ecc:	1000      	asrs	r0, r0, #32
    3ece:	e1a0      	b.n	0x4212
    3ed0:	0002      	movs	r2, r0
    3ed2:	e3a0      	b.n	0x4616
    3ed4:	e00f      	b.n	0x3ef6
    3ed6:	e1a0      	b.n	0x421a
    3ed8:	ff13 e12f 	vrhadd.u16	d14, d3, d31
    3edc:	0007      	movs	r7, r0
    3ede:	e350      	b.n	0x4582
    3ee0:	0004      	movs	r4, r0
    3ee2:	0a00      	lsrs	r0, r0, #8
    3ee4:	0008      	movs	r0, r1
    3ee6:	e350      	b.n	0x458a
    3ee8:	000a      	movs	r2, r1
    3eea:	1a00      	subs	r0, r0, r0
    3eec:	1005      	asrs	r5, r0, #32
    3eee:	e1a0      	b.n	0x4232
    3ef0:	0004      	movs	r4, r0
    3ef2:	e1a0      	b.n	0x4236
    3ef4:	ff45 ebff 	vqrdmlah.s<illegal width 8>	q15, <illegal reg q10.5>, <illegal reg q15.5>
    3ef8:	0006      	movs	r6, r0
    3efa:	e1a0      	b.n	0x423e
    3efc:	1040      	asrs	r0, r0, #1
    3efe:	e595      	b.n	0x3a2c
    3f00:	ff41 ebff 	vqrdmlah.s<illegal width 8>	q15, <illegal reg q8.5>, <illegal reg q15.5>
    3f04:	0004      	movs	r4, r0
    3f06:	e285      	b.n	0x4414
    3f08:	fbfb ebff 			; <UNDEFINED> instruction: 0xfbfbebff
    3f0c:	2001      	movs	r0, #1
    3f0e:	e3a0      	b.n	0x4652
    3f10:	ff58 ebff 	vqrdmlah.s16	q15, q12, <illegal reg q15.5>
    3f14:	03ac      	lsls	r4, r5, #14
    3f16:	eb00 03ab 	add.w	r3, r0, fp, asr #2
    3f1a:	eb00 300c 	add.w	r0, r0, ip, lsl #12
    3f1e:	e590      	b.n	0x3a42
    3f20:	0000      	movs	r0, r0
    3f22:	e353      	b.n	0x45cc
    3f24:	c03c      	stmia	r0!, {r2, r3, r4, r5}
    3f26:	1591      	asrs	r1, r2, #22
    3f28:	2000      	movs	r0, #0
    3f2a:	13a0      	asrs	r0, r4, #14
    3f2c:	c040      	stmia	r0!, {r6}
    3f2e:	1581      	asrs	r1, r0, #22
    3f30:	ff50 1aff 	vpmin.u16	<illegal reg q8.5>, q8, <illegal reg q15.5>
    3f34:	ffa6 eaff 			; <UNDEFINED> instruction: 0xffa6eaff
    3f38:	0004      	movs	r4, r0
    3f3a:	e351      	b.n	0x45e0
    3f3c:	f101 979f 	b.w	0xd05e7e
    3f40:	0014      	movs	r4, r2
    3f42:	ea00 3f60 	and.w	pc, r0, r0, asr #13
    3f46:	0800      	lsrs	r0, r0, #32
    3f48:	3f58      	subs	r7, #88	; 0x58
    3f4a:	0800      	lsrs	r0, r0, #32
    3f4c:	3f98      	subs	r7, #152	; 0x98
    3f4e:	0800      	lsrs	r0, r0, #32
    3f50:	3f58      	subs	r7, #88	; 0x58
    3f52:	0800      	lsrs	r0, r0, #32
    3f54:	3f58      	subs	r7, #88	; 0x58
    3f56:	0800      	lsrs	r0, r0, #32
    3f58:	0001      	movs	r1, r0
    3f5a:	e3a0      	b.n	0x469e
    3f5c:	ff1e e12f 	vrhadd.u16	d14, d14, d31
    3f60:	000f      	movs	r7, r1
    3f62:	e352      	b.n	0x460a
    3f64:	1000      	asrs	r0, r0, #32
    3f66:	93a0      	str	r3, [sp, #640]	; 0x280
    3f68:	1001      	asrs	r1, r0, #32
    3f6a:	83a0      	strh	r0, [r4, #28]
    3f6c:	0000      	movs	r0, r0
    3f6e:	e353      	b.n	0x4618
    3f70:	3001      	adds	r0, #1
    3f72:	01a0      	lsls	r0, r4, #6
    3f74:	3001      	adds	r0, #1
    3f76:	13a0      	asrs	r0, r4, #14
    3f78:	0000      	movs	r0, r0
    3f7a:	e353      	b.n	0x4624
    3f7c:	0005      	movs	r5, r0
    3f7e:	1a00      	subs	r0, r0, r0
    3f80:	0102      	lsls	r2, r0, #4
    3f82:	e080      	b.n	0x4086
    3f84:	2004      	movs	r0, #4
    3f86:	e590      	b.n	0x3aaa
    3f88:	0003      	movs	r3, r0
    3f8a:	e1a0      	b.n	0x42ce
    3f8c:	3000      	adds	r0, #0
    3f8e:	e59d      	b.n	0x3acc
    3f90:	2000      	movs	r0, #0
    3f92:	e583      	b.n	0x3a9c
    3f94:	ff1e e12f 	vrhadd.u16	d14, d14, d31
    3f98:	0002      	movs	r2, r0
    3f9a:	e3a0      	b.n	0x46de
    3f9c:	ff1e e12f 	vrhadd.u16	d14, d14, d31
    3fa0:	3000      	adds	r0, #0
    3fa2:	e3a0      	b.n	0x46e6
    3fa4:	e004      	b.n	0x3fb0
    3fa6:	e52d      	b.n	0x3a04
    3fa8:	d014      	beq.n	0x3fd4
    3faa:	e24d      	b.n	0x4448
    3fac:	c00c      	stmia	r0!, {r2, r3}
    3fae:	e28d      	b.n	0x44cc
    3fb0:	2001      	movs	r0, #1
    3fb2:	e1a0      	b.n	0x42f6
    3fb4:	c000      	stmia	r0!, {}
    3fb6:	e58d      	b.n	0x3ad4
    3fb8:	1003      	asrs	r3, r0, #32
    3fba:	e1a0      	b.n	0x42fe
    3fbc:	ffdd ebff 			; <UNDEFINED> instruction: 0xffddebff
    3fc0:	000c      	movs	r4, r1
    3fc2:	e59d      	b.n	0x3b00
    3fc4:	d014      	beq.n	0x3ff0
    3fc6:	e28d      	b.n	0x44e4
    3fc8:	e004      	b.n	0x3fd4
    3fca:	e49d      	b.n	0x3908
    3fcc:	ff1e e12f 	vrhadd.u16	d14, d14, d31
    3fd0:	0004      	movs	r4, r0
    3fd2:	e351      	b.n	0x4678
    3fd4:	f101 979f 	b.w	0xd05f16
    3fd8:	0014      	movs	r4, r2
    3fda:	ea00 3ff8 	and.w	pc, r0, r8, ror #15
    3fde:	0800      	lsrs	r0, r0, #32
    3fe0:	3ff0      	subs	r7, #240	; 0xf0
    3fe2:	0800      	lsrs	r0, r0, #32
    3fe4:	4030      	ands	r0, r6
    3fe6:	0800      	lsrs	r0, r0, #32
    3fe8:	3ff0      	subs	r7, #240	; 0xf0
    3fea:	0800      	lsrs	r0, r0, #32
    3fec:	3ff0      	subs	r7, #240	; 0xf0
    3fee:	0800      	lsrs	r0, r0, #32
    3ff0:	0001      	movs	r1, r0
    3ff2:	e3a0      	b.n	0x4736
    3ff4:	ff1e e12f 	vrhadd.u16	d14, d14, d31
    3ff8:	000f      	movs	r7, r1
    3ffa:	e352      	b.n	0x46a2
    3ffc:	1000      	asrs	r0, r0, #32
    3ffe:	93a0      	str	r3, [sp, #640]	; 0x280
    4000:	1001      	asrs	r1, r0, #32
    4002:	83a0      	strh	r0, [r4, #28]
    4004:	0000      	movs	r0, r0
    4006:	e353      	b.n	0x46b0
    4008:	3001      	adds	r0, #1
    400a:	01a0      	lsls	r0, r4, #6
    400c:	3001      	adds	r0, #1
    400e:	13a0      	asrs	r0, r4, #14
    4010:	0000      	movs	r0, r0
    4012:	e353      	b.n	0x46bc
    4014:	0005      	movs	r5, r0
    4016:	1a00      	subs	r0, r0, r0
    4018:	1000      	asrs	r0, r0, #32
    401a:	e59d      	b.n	0x3b58
    401c:	1000      	asrs	r0, r0, #32
    401e:	e591      	b.n	0x3b44
    4020:	2102      	movs	r1, #2
    4022:	e080      	b.n	0x4126
    4024:	1004      	asrs	r4, r0, #32
    4026:	e582      	b.n	0x3b2e
    4028:	0003      	movs	r3, r0
    402a:	e1a0      	b.n	0x436e
    402c:	ff1e e12f 	vrhadd.u16	d14, d14, d31
    4030:	0002      	movs	r2, r0
    4032:	e3a0      	b.n	0x4776
    4034:	ff1e e12f 	vrhadd.u16	d14, d14, d31
    4038:	3000      	adds	r0, #0
    403a:	e3a0      	b.n	0x477e
    403c:	e004      	b.n	0x4048
    403e:	e52d      	b.n	0x3a9c
    4040:	d014      	beq.n	0x406c
    4042:	e24d      	b.n	0x44e0
    4044:	c00c      	stmia	r0!, {r2, r3}
    4046:	e28d      	b.n	0x4564
    4048:	200c      	movs	r0, #12
    404a:	e58d      	b.n	0x3b68
    404c:	c000      	stmia	r0!, {}
    404e:	e58d      	b.n	0x3b6c
    4050:	2001      	movs	r0, #1
    4052:	e1a0      	b.n	0x4396
    4054:	1003      	asrs	r3, r0, #32
    4056:	e1a0      	b.n	0x439a
    4058:	ffdc ebff 			; <UNDEFINED> instruction: 0xffdcebff
    405c:	d014      	beq.n	0x4088
    405e:	e28d      	b.n	0x457c
    4060:	e004      	b.n	0x406c
    4062:	e49d      	b.n	0x39a0
    4064:	ff1e e12f 	vrhadd.u16	d14, d14, d31
    4068:	4070      	eors	r0, r6
    406a:	e92d 4000 	stmdb	sp!, {lr}
    406e:	e3e0      	b.n	0x4832
    4070:	303c      	adds	r0, #60	; 0x3c
    4072:	e592      	b.n	0x3b9a
    4074:	3040      	adds	r0, #64	; 0x40
    4076:	e582      	b.n	0x3b7e
    4078:	c004      	stmia	r0!, {r2}
    407a:	e282      	b.n	0x4582
    407c:	df8e      	svc	142	; 0x8e
    407e:	e24d      	b.n	0x451c
    4080:	6000      	str	r0, [r0, #0]
    4082:	e1a0      	b.n	0x43c6
    4084:	5001      	str	r1, [r0, r0]
    4086:	e1a0      	b.n	0x43ca
    4088:	000f      	movs	r7, r1
    408a:	e8bc e05c 	ldmia.w	ip!, {r2, r3, r4, r6, sp, lr, pc}
    408e:	e28d      	b.n	0x45ac
    4090:	000f      	movs	r7, r1
    4092:	e8ae 000f 	stmia.w	lr!, {r0, r1, r2, r3}
    4096:	e8bc 000f 	ldmia.w	ip!, {r0, r1, r2, r3}
    409a:	e8ae 000f 	stmia.w	lr!, {r0, r1, r2, r3}
    409e:	e8bc 000f 	ldmia.w	ip!, {r0, r1, r2, r3}
    40a2:	e8ae 000f 	stmia.w	lr!, {r0, r1, r2, r3}
    40a6:	e89c 000f 	ldmia.w	ip, {r0, r1, r2, r3}
    40aa:	e88e 4058 	stmia.w	lr, {r3, r4, r6, lr}
    40ae:	e58d      	b.n	0x3bcc
    40b0:	0013      	movs	r3, r2
    40b2:	ea00 200d 	and.w	r0, r0, sp, lsl #8
    40b6:	e1a0      	b.n	0x43fa
    40b8:	100c      	asrs	r4, r1, #32
    40ba:	e3a0      	b.n	0x47fe
    40bc:	0058      	lsls	r0, r3, #1
    40be:	e28d      	b.n	0x45dc
    40c0:	ffdc ebff 			; <UNDEFINED> instruction: 0xffdcebff
    40c4:	1005      	asrs	r5, r0, #32
    40c6:	e1a0      	b.n	0x440a
    40c8:	0058      	lsls	r0, r3, #1
    40ca:	e28d      	b.n	0x45e8
    40cc:	e00f      	b.n	0x40ee
    40ce:	e1a0      	b.n	0x4412
    40d0:	ff16 e12f 	vrhadd.u16	d14, d6, d31
    40d4:	0000      	movs	r0, r0
    40d6:	e350      	b.n	0x477a
    40d8:	000e      	movs	r6, r1
    40da:	1a00      	subs	r0, r0, r0
    40dc:	3010      	adds	r0, #16
    40de:	e59d      	b.n	0x3c1c
    40e0:	2058      	movs	r0, #88	; 0x58
    40e2:	e28d      	b.n	0x4600
    40e4:	100d      	asrs	r5, r1, #32
    40e6:	e1a0      	b.n	0x442a
    40e8:	0008      	movs	r0, r1
    40ea:	e3a0      	b.n	0x482e
    40ec:	e00f      	b.n	0x410e
    40ee:	e1a0      	b.n	0x4432
    40f0:	ff13 e12f 	vrhadd.u16	d14, d3, d31
    40f4:	3005      	adds	r0, #5
    40f6:	e240      	b.n	0x457a
    40f8:	00fb      	lsls	r3, r7, #3
    40fa:	e313      	b.n	0x4724
    40fc:	4000      	ands	r0, r0
    40fe:	e1a0      	b.n	0x4442
    4100:	0005      	movs	r5, r0
    4102:	0a00      	lsrs	r0, r0, #8
    4104:	1098      	asrs	r0, r3, #2
    4106:	e59d      	b.n	0x3c44
    4108:	000d      	movs	r5, r1
    410a:	e1a0      	b.n	0x444e
    410c:	fe4b ebff 			; <UNDEFINED> instruction: 0xfe4bebff
    4110:	0000      	movs	r0, r0
    4112:	e350      	b.n	0x47b6
    4114:	ffe6 0aff 			; <UNDEFINED> instruction: 0xffe60aff
    4118:	4009      	ands	r1, r1
    411a:	e3a0      	b.n	0x485e
    411c:	0058      	lsls	r0, r3, #1
    411e:	e28d      	b.n	0x463c
    4120:	fe90 ebff 			; <UNDEFINED> instruction: 0xfe90ebff
    4124:	0004      	movs	r4, r0
    4126:	e1a0      	b.n	0x446a
    4128:	df8e      	svc	142	; 0x8e
    412a:	e28d      	b.n	0x4648
    412c:	4070      	eors	r0, r6
    412e:	e8bd ff1e 	ldmia.w	sp!, {r1, r2, r3, r4, r8, r9, sl, fp, ip, sp, lr, pc}
    4132:	e12f      	b.n	0x4394
    4134:	4ff0      	ldr	r7, [pc, #960]	; (0x44f8)
    4136:	e92d 404c 	stmdb	sp!, {r2, r3, r6, lr}
    413a:	e591      	b.n	0x3c60
    413c:	5001      	str	r1, [r0, r0]
    413e:	e1a0      	b.n	0x4482
    4140:	1004      	asrs	r4, r0, #32
    4142:	e494      	b.n	0x3a6e
    4144:	d024      	beq.n	0x4190
    4146:	e24d      	b.n	0x45e4
    4148:	8000      	strh	r0, [r0, #0]
    414a:	e253      	b.n	0x45f4
    414c:	6002      	str	r2, [r0, #0]
    414e:	e1a0      	b.n	0x4492
    4150:	4018      	ands	r0, r3
    4152:	e58d      	b.n	0x3c70
    4154:	7003      	strb	r3, [r0, #0]
    4156:	e200      	b.n	0x455a
    4158:	0065      	lsls	r5, r4, #1
    415a:	0a00      	lsrs	r0, r0, #8
    415c:	2002      	movs	r0, #2
    415e:	e3a0      	b.n	0x48a2
    4160:	3821      	subs	r0, #33	; 0x21
    4162:	e1a0      	b.n	0x44a6
    4164:	1801      	adds	r1, r0, r0
    4166:	e1a0      	b.n	0x44aa
    4168:	301d      	adds	r0, #29
    416a:	e5cd      	b.n	0x3d08
    416c:	1014      	asrs	r4, r2, #32
    416e:	e58d      	b.n	0x3c8c
    4170:	30ff      	adds	r0, #255	; 0xff
    4172:	e203      	b.n	0x457c
    4174:	201c      	movs	r0, #28
    4176:	e5cd      	b.n	0x3d14
    4178:	4213      	tst	r3, r2
    417a:	e084      	b.n	0x4286
    417c:	3050      	adds	r0, #80	; 0x50
    417e:	e595      	b.n	0x3cac
    4180:	0002      	movs	r2, r0
    4182:	e357      	b.n	0x4834
    4184:	4038      	ands	r0, r7
    4186:	0595      	lsls	r5, r2, #22
    4188:	3001      	adds	r0, #1
    418a:	e213      	b.n	0x45b4
    418c:	0065      	lsls	r5, r4, #1
    418e:	1a00      	subs	r0, r0, r0
    4190:	01a0      	lsls	r0, r4, #6
    4192:	e1a0      	b.n	0x44d6
    4194:	0001      	movs	r1, r0
    4196:	e220      	b.n	0x45da
    4198:	3004      	adds	r0, #4
    419a:	e58d      	b.n	0x3cb8
    419c:	3001      	adds	r0, #1
    419e:	e200      	b.n	0x45a2
    41a0:	3008      	adds	r0, #8
    41a2:	e58d      	b.n	0x3cc0
    41a4:	b000      	add	sp, #0
    41a6:	e594      	b.n	0x3cd2
    41a8:	0000      	movs	r0, r0
    41aa:	e35b      	b.n	0x4864
    41ac:	00df      	lsls	r7, r3, #3
    41ae:	0a00      	lsrs	r0, r0, #8
    41b0:	0002      	movs	r2, r0
    41b2:	e358      	b.n	0x4866
    41b4:	a004      	add	r0, pc, #16	; (adr r0, 0x41c8)
    41b6:	0594      	lsls	r4, r2, #22
    41b8:	a0b2      	add	r0, pc, #712	; (adr r0, 0x4484)
    41ba:	11d4      	asrs	r4, r2, #7
    41bc:	3048      	adds	r0, #72	; 0x48
    41be:	e595      	b.n	0x3cec
    41c0:	9001      	str	r0, [sp, #4]
    41c2:	e3ca      	b.n	0x495a
    41c4:	100f      	asrs	r7, r1, #32
    41c6:	e3a0      	b.n	0x490a
    41c8:	0006      	movs	r6, r0
    41ca:	e1a0      	b.n	0x450e
    41cc:	b0b0      	sub	sp, #192	; 0xc0
    41ce:	11d4      	asrs	r4, r2, #7
    41d0:	9003      	str	r0, [sp, #12]
    41d2:	e089      	b.n	0x42e8
    41d4:	4008      	ands	r0, r1
    41d6:	0284      	lsls	r4, r0, #10
    41d8:	4004      	ands	r4, r0
    41da:	1284      	asrs	r4, r0, #10
    41dc:	ff6f ebff 	vqrdmlah.s32	q15, <illegal reg q15.5>, <illegal reg q15.5>
    41e0:	308a      	adds	r0, #138	; 0x8a
    41e2:	e1a0      	b.n	0x4526
    41e4:	3002      	adds	r0, #2
    41e6:	e203      	b.n	0x45f0
    41e8:	2001      	movs	r0, #1
    41ea:	e20b      	b.n	0x4604
    41ec:	0000      	movs	r0, r0
    41ee:	e159      	b.n	0x44a4
    41f0:	3002      	adds	r0, #2
    41f2:	e183      	b.n	0x44fc
    41f4:	002b      	movs	r3, r5
    41f6:	8a00      	ldrh	r0, [r0, #16]
    41f8:	b001      	add	sp, #4
    41fa:	e3cb      	b.n	0x4994
    41fc:	9009      	str	r0, [sp, #36]	; 0x24
    41fe:	e08b      	b.n	0x4318
    4200:	0000      	movs	r0, r0
    4202:	e159      	b.n	0x44b8
    4204:	0027      	movs	r7, r4
    4206:	9a00      	ldr	r2, [sp, #0]
    4208:	0001      	movs	r1, r0
    420a:	e353      	b.n	0x48b4
    420c:	006b      	lsls	r3, r5, #1
    420e:	0a00      	lsrs	r0, r0, #8
    4210:	0000      	movs	r0, r0
    4212:	e353      	b.n	0x48bc
    4214:	003b      	movs	r3, r7
    4216:	0a00      	lsrs	r0, r0, #8
    4218:	0002      	movs	r2, r0
    421a:	e353      	b.n	0x48c4
    421c:	0030      	movs	r0, r6
    421e:	1a00      	subs	r0, r0, r0
    4220:	3000      	adds	r0, #0
    4222:	e594      	b.n	0x3d4e
    4224:	0000      	movs	r0, r0
    4226:	e357      	b.n	0x48d8
    4228:	9102      	str	r1, [sp, #8]
    422a:	e3c3      	b.n	0x49b4
    422c:	0046      	lsls	r6, r0, #1
    422e:	1a00      	subs	r0, r0, r0
    4230:	0000      	movs	r0, r0
    4232:	e359      	b.n	0x48e8
    4234:	2008      	movs	r0, #8
    4236:	e59d      	b.n	0x3d74
    4238:	2001      	movs	r0, #1
    423a:	03a0      	lsls	r0, r4, #14
    423c:	0000      	movs	r0, r0
    423e:	e352      	b.n	0x48e6
    4240:	0022      	movs	r2, r4
    4242:	0a00      	lsrs	r0, r0, #8
    4244:	0000      	movs	r0, r0
    4246:	e359      	b.n	0x48fc
    4248:	00a2      	lsls	r2, r4, #2
    424a:	0a00      	lsrs	r0, r0, #8
    424c:	3058      	adds	r0, #88	; 0x58
    424e:	e285      	b.n	0x475c
    4250:	a007      	add	r0, pc, #28	; (adr r0, 0x4270)
    4252:	e1a0      	b.n	0x4596
    4254:	700c      	strb	r4, [r1, #0]
    4256:	e58d      	b.n	0x3d74
    4258:	b004      	add	sp, #16
    425a:	e284      	b.n	0x4766
    425c:	7003      	strb	r3, [r0, #0]
    425e:	e1a0      	b.n	0x45a2
    4260:	0002      	movs	r2, r0
    4262:	ea00 0009 	and.w	r0, r0, r9
    4266:	e15a      	b.n	0x451e
    4268:	b004      	add	sp, #16
    426a:	e28b      	b.n	0x4784
    426c:	0099      	lsls	r1, r3, #2
    426e:	0a00      	lsrs	r0, r0, #8
    4270:	000b      	movs	r3, r1
    4272:	e1a0      	b.n	0x45b6
    4274:	7010      	strb	r0, [r2, #0]
    4276:	e58d      	b.n	0x3d94
    4278:	fe5e ebff 			; <UNDEFINED> instruction: 0xfe5eebff
    427c:	3010      	adds	r0, #16
    427e:	e28d      	b.n	0x479c
    4280:	1000      	asrs	r0, r0, #32
    4282:	e1a0      	b.n	0x45c6
    4284:	2000      	movs	r0, #0
    4286:	e3a0      	b.n	0x49ca
    4288:	0005      	movs	r5, r0
    428a:	e1a0      	b.n	0x45ce
    428c:	0000      	movs	r0, r0
    428e:	e1a0      	b.n	0x45d2
    4290:	0000      	movs	r0, r0
    4292:	e350      	b.n	0x4936
    4294:	a001      	add	r0, pc, #4	; (adr r0, 0x429c)
    4296:	e28a      	b.n	0x47ae
    4298:	fff1 0aff 			; <UNDEFINED> instruction: 0xfff10aff
    429c:	700c      	strb	r4, [r1, #0]
    429e:	e59d      	b.n	0x3ddc
    42a0:	3000      	adds	r0, #0
    42a2:	e594      	b.n	0x3dce
    42a4:	0009      	movs	r1, r1
    42a6:	ea00 0001 	and.w	r0, r0, r1
    42aa:	e353      	b.n	0x4954
    42ac:	0019      	movs	r1, r3
    42ae:	0a00      	lsrs	r0, r0, #8
    42b0:	0000      	movs	r0, r0
    42b2:	e353      	b.n	0x495c
    42b4:	0015      	movs	r5, r2
    42b6:	0a00      	lsrs	r0, r0, #8
    42b8:	0002      	movs	r2, r0
    42ba:	e353      	b.n	0x4964
    42bc:	0008      	movs	r0, r1
    42be:	1a00      	subs	r0, r0, r0
    42c0:	3000      	adds	r0, #0
    42c2:	e594      	b.n	0x3dee
    42c4:	0000      	movs	r0, r0
    42c6:	e357      	b.n	0x4978
    42c8:	9102      	str	r1, [sp, #8]
    42ca:	e3c3      	b.n	0x4a54
    42cc:	001e      	movs	r6, r3
    42ce:	1a00      	subs	r0, r0, r0
    42d0:	0000      	movs	r0, r0
    42d2:	e353      	b.n	0x497c
    42d4:	4004      	ands	r4, r0
    42d6:	b284      	uxth	r4, r0
    42d8:	9001      	str	r0, [sp, #4]
    42da:	e289      	b.n	0x47f0
    42dc:	4109      	asrs	r1, r1
    42de:	e084      	b.n	0x43ea
    42e0:	ffaf eaff 			; <UNDEFINED> instruction: 0xffafeaff
    42e4:	0009      	movs	r1, r1
    42e6:	e3a0      	b.n	0x4a2a
    42e8:	d024      	beq.n	0x4334
    42ea:	e28d      	b.n	0x4808
    42ec:	4ff0      	ldr	r7, [pc, #960]	; (0x46b0)
    42ee:	e8bd ff1e 	ldmia.w	sp!, {r1, r2, r3, r4, r8, r9, sl, fp, ip, sp, lr, pc}
    42f2:	e12f      	b.n	0x4554
    42f4:	3003      	adds	r0, #3
    42f6:	e3a0      	b.n	0x4a3a
    42f8:	1401      	asrs	r1, r0, #16
    42fa:	e1a0      	b.n	0x463e
    42fc:	1014      	asrs	r4, r2, #32
    42fe:	e58d      	b.n	0x3e1c
    4300:	31bc      	adds	r1, #188	; 0xbc
    4302:	e1cd      	b.n	0x46a0
    4304:	ff9c eaff 			; <UNDEFINED> instruction: 0xff9ceaff
    4308:	0000      	movs	r0, r0
    430a:	e357      	b.n	0x49bc
    430c:	004b      	lsls	r3, r1, #1
    430e:	1a00      	subs	r0, r0, r0
    4310:	4004      	ands	r4, r0
    4312:	e284      	b.n	0x481e
    4314:	ffa2 eaff 			; <UNDEFINED> instruction: 0xffa2eaff
    4318:	0000      	movs	r0, r0
    431a:	e357      	b.n	0x49cc
    431c:	0012      	movs	r2, r2
    431e:	1a00      	subs	r0, r0, r0
    4320:	4008      	ands	r0, r1
    4322:	e284      	b.n	0x482e
    4324:	ff9e eaff 			; <UNDEFINED> instruction: 0xff9eeaff
    4328:	0006      	movs	r6, r0
    432a:	e1a0      	b.n	0x466e
    432c:	1014      	asrs	r4, r2, #32
    432e:	e28d      	b.n	0x484c
    4330:	01b0      	lsls	r0, r6, #6
    4332:	eb00 0000 	add.w	r0, r0, r0
    4336:	e350      	b.n	0x49da
    4338:	ffe9 1aff 			; <UNDEFINED> instruction: 0xffe91aff
    433c:	0008      	movs	r0, r1
    433e:	e3a0      	b.n	0x4a82
    4340:	d024      	beq.n	0x438c
    4342:	e28d      	b.n	0x4860
    4344:	4ff0      	ldr	r7, [pc, #960]	; (0x4708)
    4346:	e8bd ff1e 	ldmia.w	sp!, {r1, r2, r3, r4, r8, r9, sl, fp, ip, sp, lr, pc}
    434a:	e12f      	b.n	0x45ac
    434c:	100d      	asrs	r5, r1, #32
    434e:	e3a0      	b.n	0x4a92
    4350:	0006      	movs	r6, r0
    4352:	e1a0      	b.n	0x4696
    4354:	a020      	add	r0, pc, #128	; (adr r0, 0x43d8)
    4356:	e595      	b.n	0x3e84
    4358:	ff10 ebff 	vqrdmlah.s16	q7, q8, <illegal reg q15.5>
    435c:	0000      	movs	r0, r0
    435e:	e15a      	b.n	0x4616
    4360:	0045      	lsls	r5, r0, #1
    4362:	0a00      	lsrs	r0, r0, #8
    4364:	3000      	adds	r0, #0
    4366:	e594      	b.n	0x3e92
    4368:	ffd8 eaff 			; <UNDEFINED> instruction: 0xffd8eaff
    436c:	100d      	asrs	r5, r1, #32
    436e:	e3a0      	b.n	0x4ab2
    4370:	0006      	movs	r6, r0
    4372:	e1a0      	b.n	0x46b6
    4374:	9020      	str	r0, [sp, #128]	; 0x80
    4376:	e595      	b.n	0x3ea4
    4378:	ff08 ebff 	vqrdmlah.s<illegal width 8>	q7, q12, <illegal reg q15.5>
    437c:	0000      	movs	r0, r0
    437e:	e159      	b.n	0x4634
    4380:	ffe6 1aff 			; <UNDEFINED> instruction: 0xffe61aff
    4384:	3028      	adds	r0, #40	; 0x28
    4386:	e595      	b.n	0x3eb4
    4388:	0003      	movs	r3, r0
    438a:	e154      	b.n	0x4636
    438c:	ffe3 1aff 			; <UNDEFINED> instruction: 0xffe31aff
    4390:	0004      	movs	r4, r0
    4392:	e1a0      	b.n	0x46d6
    4394:	fd6d ebff 			; <UNDEFINED> instruction: 0xfd6debff
    4398:	100f      	asrs	r7, r1, #32
    439a:	e3a0      	b.n	0x4ade
    439c:	2000      	movs	r0, #0
    439e:	e1a0      	b.n	0x46e2
    43a0:	0006      	movs	r6, r0
    43a2:	e1a0      	b.n	0x46e6
    43a4:	ff23 ebff 	vqrdmlah.s32	q7, <illegal reg q9.5>, <illegal reg q15.5>
    43a8:	0006      	movs	r6, r0
    43aa:	e1a0      	b.n	0x46ee
    43ac:	2005      	movs	r0, #5
    43ae:	e1a0      	b.n	0x46f2
    43b0:	1000      	asrs	r0, r0, #32
    43b2:	e3a0      	b.n	0x4af6
    43b4:	ff1f ebff 	vqrdmlah.s16	q7, <illegal reg q15.5>, <illegal reg q15.5>
    43b8:	0007      	movs	r7, r0
    43ba:	e3a0      	b.n	0x4afe
    43bc:	ffc9 eaff 			; <UNDEFINED> instruction: 0xffc9eaff
    43c0:	0000      	movs	r0, r0
    43c2:	e357      	b.n	0x4a74
    43c4:	ffe8 1aff 			; <UNDEFINED> instruction: 0xffe81aff
    43c8:	000c      	movs	r4, r1
    43ca:	e894 0002 	ldmia.w	r4, {r1}
    43ce:	e373      	b.n	0x4ab8
    43d0:	2fa2      	cmp	r7, #162	; 0xa2
    43d2:	e1a0      	b.n	0x4716
    43d4:	ffc2 0aff 			; <UNDEFINED> instruction: 0xffc20aff
    43d8:	0001      	movs	r1, r0
    43da:	e373      	b.n	0x4ac4
    43dc:	3058      	adds	r0, #88	; 0x58
    43de:	e285      	b.n	0x48ec
    43e0:	3010      	adds	r0, #16
    43e2:	e58d      	b.n	0x3f00
    43e4:	0034      	movs	r4, r6
    43e6:	0a00      	lsrs	r0, r0, #8
    43e8:	0004      	movs	r4, r0
    43ea:	e284      	b.n	0x48f6
    43ec:	fe01 ebff 			; <UNDEFINED> instruction: 0xfe01ebff
    43f0:	3010      	adds	r0, #16
    43f2:	e28d      	b.n	0x4910
    43f4:	1000      	asrs	r0, r0, #32
    43f6:	e1a0      	b.n	0x473a
    43f8:	0005      	movs	r5, r0
    43fa:	e1a0      	b.n	0x473e
    43fc:	0000      	movs	r0, r0
    43fe:	e1a0      	b.n	0x4742
    4400:	0000      	movs	r0, r0
    4402:	e350      	b.n	0x4aa6
    4404:	ffc5 0aff 			; <UNDEFINED> instruction: 0xffc50aff
    4408:	9000      	str	r0, [sp, #0]
    440a:	e1a0      	b.n	0x474e
    440c:	100d      	asrs	r5, r1, #32
    440e:	e3a0      	b.n	0x4b52
    4410:	0006      	movs	r6, r0
    4412:	e1a0      	b.n	0x4756
    4414:	fee1 ebff 			; <UNDEFINED> instruction: 0xfee1ebff
    4418:	0002      	movs	r2, r0
    441a:	e359      	b.n	0x4ad0
    441c:	0020      	movs	r0, r4
    441e:	e585      	b.n	0x3f2c
    4420:	0029      	movs	r1, r5
    4422:	1a00      	subs	r0, r0, r0
    4424:	3005      	adds	r0, #5
    4426:	e1a0      	b.n	0x476a
    4428:	2010      	movs	r0, #16
    442a:	e59d      	b.n	0x3f68
    442c:	202c      	movs	r0, #44	; 0x2c
    442e:	e5a3      	b.n	0x3f78
    4430:	3024      	adds	r0, #36	; 0x24
    4432:	e585      	b.n	0x3f40
    4434:	4028      	ands	r0, r5
    4436:	e585      	b.n	0x3f44
    4438:	0006      	movs	r6, r0
    443a:	e3a0      	b.n	0x4b7e
    443c:	ffa9 eaff 			; <UNDEFINED> instruction: 0xffa9eaff
    4440:	0004      	movs	r4, r0
    4442:	e1a0      	b.n	0x4786
    4444:	fd41 ebff 			; <UNDEFINED> instruction: 0xfd41ebff
    4448:	4004      	ands	r4, r0
    444a:	e284      	b.n	0x4956
    444c:	7000      	strb	r0, [r0, #0]
    444e:	e1a0      	b.n	0x4792
    4450:	4038      	ands	r0, r7
    4452:	e585      	b.n	0x3f60
    4454:	0005      	movs	r5, r0
    4456:	e1a0      	b.n	0x479a
    4458:	0000      	movs	r0, r0
    445a:	e1a0      	b.n	0x479e
    445c:	0000      	movs	r0, r0
    445e:	e350      	b.n	0x4b02
    4460:	ff9f 0aff 			; <UNDEFINED> instruction: 0xff9f0aff
    4464:	0006      	movs	r6, r0
    4466:	e1a0      	b.n	0x47aa
    4468:	2007      	movs	r0, #7
    446a:	e1a0      	b.n	0x47ae
    446c:	100f      	asrs	r7, r1, #32
    446e:	e3a0      	b.n	0x4bb2
    4470:	fef0 ebff 			; <UNDEFINED> instruction: 0xfef0ebff
    4474:	0007      	movs	r7, r0
    4476:	e3a0      	b.n	0x4bba
    4478:	ff9a eaff 			; <UNDEFINED> instruction: 0xff9aeaff
    447c:	3028      	adds	r0, #40	; 0x28
    447e:	e595      	b.n	0x3fac
    4480:	0003      	movs	r3, r0
    4482:	e154      	b.n	0x472e
    4484:	ffb6 1aff 			; <UNDEFINED> instruction: 0xffb61aff
    4488:	2004      	movs	r0, #4
    448a:	e3a0      	b.n	0x4bce
    448c:	a000      	add	r0, pc, #0	; (adr r0, 0x4490)
    448e:	e3a0      	b.n	0x4bd2
    4490:	3002      	adds	r0, #2
    4492:	e084      	b.n	0x459e
    4494:	9028      	str	r0, [sp, #160]	; 0xa0
    4496:	e585      	b.n	0x3fa4
    4498:	a02c      	add	r0, pc, #176	; (adr r0, 0x454c)
    449a:	e585      	b.n	0x3fa8
    449c:	2030      	movs	r0, #48	; 0x30
    449e:	e585      	b.n	0x3fac
    44a0:	3034      	adds	r0, #52	; 0x34
    44a2:	e585      	b.n	0x3fb0
    44a4:	3000      	adds	r0, #0
    44a6:	e594      	b.n	0x3fd2
    44a8:	000a      	movs	r2, r1
    44aa:	e153      	b.n	0x4754
    44ac:	0012      	movs	r2, r2
    44ae:	ba00      	rev	r0, r0
    44b0:	3001      	adds	r0, #1
    44b2:	e3a0      	b.n	0x4bf6
    44b4:	3004      	adds	r0, #4
    44b6:	e58d      	b.n	0x3fd4
    44b8:	ff86 eaff 			; <UNDEFINED> instruction: 0xff86eaff
    44bc:	0006      	movs	r6, r0
    44be:	e1a0      	b.n	0x4802
    44c0:	100d      	asrs	r5, r1, #32
    44c2:	e3a0      	b.n	0x4c06
    44c4:	feb5 ebff 			; <UNDEFINED> instruction: 0xfeb5ebff
    44c8:	0020      	movs	r0, r4
    44ca:	e585      	b.n	0x3fd8
    44cc:	3010      	adds	r0, #16
    44ce:	e59d      	b.n	0x400c
    44d0:	3024      	adds	r0, #36	; 0x24
    44d2:	e585      	b.n	0x3fe0
    44d4:	ffd6 eaff 			; <UNDEFINED> instruction: 0xffd6eaff
    44d8:	0006      	movs	r6, r0
    44da:	e1a0      	b.n	0x481e
    44dc:	100d      	asrs	r5, r1, #32
    44de:	e3a0      	b.n	0x4c22
    44e0:	feae ebff 			; <UNDEFINED> instruction: 0xfeaeebff
    44e4:	3010      	adds	r0, #16
    44e6:	e59d      	b.n	0x4024
    44e8:	0020      	movs	r0, r4
    44ea:	e585      	b.n	0x3ff8
    44ec:	4028      	ands	r0, r5
    44ee:	e585      	b.n	0x3ffc
    44f0:	3024      	adds	r0, #36	; 0x24
    44f2:	e585      	b.n	0x4000
    44f4:	0006      	movs	r6, r0
    44f6:	e3a0      	b.n	0x4c3a
    44f8:	ff7a eaff 	vpmin.u<illegal width 64>	q15, q13, <illegal reg q15.5>
    44fc:	0001      	movs	r1, r0
    44fe:	e289      	b.n	0x4a14
    4500:	0100      	lsls	r0, r0, #4
    4502:	e084      	b.n	0x460e
    4504:	fd11 ebff 			; <UNDEFINED> instruction: 0xfd11ebff
    4508:	100f      	asrs	r7, r1, #32
    450a:	e3a0      	b.n	0x4c4e
    450c:	2000      	movs	r0, #0
    450e:	e1a0      	b.n	0x4852
    4510:	0006      	movs	r6, r0
    4512:	e1a0      	b.n	0x4856
    4514:	fec7 ebff 			; <UNDEFINED> instruction: 0xfec7ebff
    4518:	0006      	movs	r6, r0
    451a:	e1a0      	b.n	0x485e
    451c:	2005      	movs	r0, #5
    451e:	e1a0      	b.n	0x4862
    4520:	100a      	asrs	r2, r1, #32
    4522:	e1a0      	b.n	0x4866
    4524:	fec3 ebff 			; <UNDEFINED> instruction: 0xfec3ebff
    4528:	0007      	movs	r7, r0
    452a:	e3a0      	b.n	0x4c6e
    452c:	ff6d eaff 	vpmin.u32	q15, <illegal reg q14.5>, <illegal reg q15.5>
    4530:	1014      	asrs	r4, r2, #32
    4532:	e28d      	b.n	0x4a50
    4534:	0006      	movs	r6, r0
    4536:	e1a0      	b.n	0x487a
    4538:	012e      	lsls	r6, r5, #4
    453a:	eb00 0000 	add.w	r0, r0, r0
    453e:	e350      	b.n	0x4be2
    4540:	ff67 1aff 	vpmin.u32	<illegal reg q8.5>, <illegal reg q11.5>, <illegal reg q15.5>
    4544:	3004      	adds	r0, #4
    4546:	e59d      	b.n	0x4084
    4548:	0000      	movs	r0, r0
    454a:	e353      	b.n	0x4bf4
    454c:	ff7a 0aff 	vpmin.u<illegal width 64>	q8, q13, <illegal reg q15.5>
    4550:	100f      	asrs	r7, r1, #32
    4552:	e3a0      	b.n	0x4c96
    4554:	0006      	movs	r6, r0
    4556:	e1a0      	b.n	0x489a
    4558:	fe90 ebff 			; <UNDEFINED> instruction: 0xfe90ebff
    455c:	100e      	asrs	r6, r1, #32
    455e:	e3a0      	b.n	0x4ca2
    4560:	2000      	movs	r0, #0
    4562:	e1a0      	b.n	0x48a6
    4564:	0006      	movs	r6, r0
    4566:	e1a0      	b.n	0x48aa
    4568:	feb2 ebff 			; <UNDEFINED> instruction: 0xfeb2ebff
    456c:	0006      	movs	r6, r0
    456e:	e1a0      	b.n	0x48b2
    4570:	200c      	movs	r0, #12
    4572:	e59f      	b.n	0x40b4
    4574:	100f      	asrs	r7, r1, #32
    4576:	e3a0      	b.n	0x4cba
    4578:	feae ebff 			; <UNDEFINED> instruction: 0xfeaeebff
    457c:	0007      	movs	r7, r0
    457e:	e3a0      	b.n	0x4cc2
    4580:	ff58 eaff 	vpmin.u16	q15, q12, <illegal reg q15.5>
    4584:	0000      	movs	r0, r0
    4586:	0000      	movs	r0, r0
    4588:	3000      	adds	r0, #0
    458a:	e3a0      	b.n	0x4cce
    458c:	fee8 eaff 			; <UNDEFINED> instruction: 0xfee8eaff
    4590:	3001      	adds	r0, #1
    4592:	e3a0      	b.n	0x4cd6
    4594:	fee6 eaff 			; <UNDEFINED> instruction: 0xfee6eaff
    4598:	3002      	adds	r0, #2
    459a:	e3a0      	b.n	0x4cde
    459c:	fee4 eaff 			; <UNDEFINED> instruction: 0xfee4eaff
    45a0:	40f0      	lsrs	r0, r6
    45a2:	e92d 5000 	stmdb	sp!, {ip, lr}
    45a6:	e1a0      	b.n	0x48ea
    45a8:	df45      	svc	69	; 0x45
    45aa:	e24d      	b.n	0x4a48
    45ac:	4002      	ands	r2, r0
    45ae:	e1a0      	b.n	0x48f2
    45b0:	0004      	movs	r4, r0
    45b2:	e351      	b.n	0x4c58
    45b4:	f101 979f 	b.w	0xd064f6
    45b8:	0096      	lsls	r6, r2, #2
    45ba:	ea00 47c0 	and.w	r7, r0, r0, lsl #19
    45be:	0800      	lsrs	r0, r0, #32
    45c0:	46bc      	mov	ip, r7
    45c2:	0800      	lsrs	r0, r0, #32
    45c4:	4818      	ldr	r0, [pc, #96]	; (0x4628)
    45c6:	0800      	lsrs	r0, r0, #32
    45c8:	4634      	mov	r4, r6
    45ca:	0800      	lsrs	r0, r0, #32
    45cc:	45d0      	cmp	r8, sl
    45ce:	0800      	lsrs	r0, r0, #32
    45d0:	0010      	movs	r0, r2
    45d2:	e352      	b.n	0x4c7a
    45d4:	0000      	movs	r0, r0
    45d6:	9353      	str	r3, [sp, #332]	; 0x14c
    45d8:	008e      	lsls	r6, r1, #2
    45da:	1a00      	subs	r0, r0, r0
    45dc:	3000      	adds	r0, #0
    45de:	e590      	b.n	0x4102
    45e0:	0010      	movs	r0, r2
    45e2:	e313      	b.n	0x4c0c
    45e4:	008f      	lsls	r7, r1, #2
    45e6:	1a00      	subs	r0, r0, r0
    45e8:	6088      	str	r0, [r1, #8]
    45ea:	e28d      	b.n	0x4b08
    45ec:	0006      	movs	r6, r0
    45ee:	e1a0      	b.n	0x4932
    45f0:	fa7b ebff 			; <UNDEFINED> instruction: 0xfa7bebff
    45f4:	3000      	adds	r0, #0
    45f6:	e3a0      	b.n	0x4d3a
    45f8:	1001      	asrs	r1, r0, #32
    45fa:	e3a0      	b.n	0x4d3e
    45fc:	2038      	movs	r0, #56	; 0x38
    45fe:	e595      	b.n	0x412c
    4600:	0311      	lsls	r1, r2, #12
    4602:	e014      	b.n	0x462e
    4604:	0004      	movs	r4, r0
    4606:	1492      	asrs	r2, r2, #18
    4608:	0103      	lsls	r3, r0, #4
    460a:	1786      	asrs	r6, r0, #30
    460c:	3001      	adds	r0, #1
    460e:	e283      	b.n	0x4b18
    4610:	0004      	movs	r4, r0
    4612:	e353      	b.n	0x4cbc
    4614:	fff9 1aff 			; <UNDEFINED> instruction: 0xfff91aff
    4618:	0006      	movs	r6, r0
    461a:	e1a0      	b.n	0x495e
    461c:	2038      	movs	r0, #56	; 0x38
    461e:	e585      	b.n	0x412c
    4620:	fa6a ebff 			; <UNDEFINED> instruction: 0xfa6aebff
    4624:	0000      	movs	r0, r0
    4626:	e3a0      	b.n	0x4d6a
    4628:	df45      	svc	69	; 0x45
    462a:	e28d      	b.n	0x4b48
    462c:	40f0      	lsrs	r0, r6
    462e:	e8bd ff1e 	ldmia.w	sp!, {r1, r2, r3, r4, r8, r9, sl, fp, ip, sp, lr, pc}
    4632:	e12f      	b.n	0x4894
    4634:	0003      	movs	r3, r0
    4636:	e353      	b.n	0x4ce0
    4638:	0076      	lsls	r6, r6, #1
    463a:	1a00      	subs	r0, r0, r0
    463c:	7802      	ldrb	r2, [r0, #0]
    463e:	e1a0      	b.n	0x4982
    4640:	7827      	ldrb	r7, [r4, #0]
    4642:	e1a0      	b.n	0x4986
    4644:	4822      	ldr	r0, [pc, #136]	; (0x46d0)
    4646:	e1a0      	b.n	0x498a
    4648:	3007      	adds	r0, #7
    464a:	e084      	b.n	0x4756
    464c:	0010      	movs	r0, r2
    464e:	e353      	b.n	0x4cf8
    4650:	0070      	lsls	r0, r6, #1
    4652:	8a00      	ldrh	r0, [r0, #16]
    4654:	3000      	adds	r0, #0
    4656:	e590      	b.n	0x417a
    4658:	0008      	movs	r0, r1
    465a:	e313      	b.n	0x4c84
    465c:	009b      	lsls	r3, r3, #2
    465e:	1a00      	subs	r0, r0, r0
    4660:	6088      	str	r0, [r1, #8]
    4662:	e28d      	b.n	0x4b80
    4664:	0006      	movs	r6, r0
    4666:	e1a0      	b.n	0x49aa
    4668:	fa47 ebff 			; <UNDEFINED> instruction: 0xfa47ebff
    466c:	0000      	movs	r0, r0
    466e:	e357      	b.n	0x4d20
    4670:	4184      	sbcs	r4, r0
    4672:	e086      	b.n	0x4782
    4674:	c038      	stmia	r0!, {r3, r4, r5}
    4676:	e595      	b.n	0x41a4
    4678:	0008      	movs	r0, r1
    467a:	0a00      	lsrs	r0, r0, #8
    467c:	3004      	adds	r0, #4
    467e:	e1a0      	b.n	0x49c2
    4680:	7187      	strb	r7, [r0, #6]
    4682:	e1a0      	b.n	0x49c6
    4684:	1007      	asrs	r7, r0, #32
    4686:	e084      	b.n	0x4792
    4688:	0004      	movs	r4, r0
    468a:	e04c      	b.n	0x4726
    468c:	2000      	movs	r0, #0
    468e:	e793      	b.n	0x45b8
    4690:	2004      	movs	r0, #4
    4692:	e483      	b.n	0x3f9c
    4694:	0001      	movs	r1, r0
    4696:	e153      	b.n	0x4940
    4698:	fffb 1aff 			; <UNDEFINED> instruction: 0xfffb1aff
    469c:	c007      	stmia	r0!, {r0, r1, r2}
    469e:	e08c      	b.n	0x47ba
    46a0:	0006      	movs	r6, r0
    46a2:	e1a0      	b.n	0x49e6
    46a4:	c038      	stmia	r0!, {r3, r4, r5}
    46a6:	e585      	b.n	0x41b4
    46a8:	fa26 ebff 			; <UNDEFINED> instruction: 0xfa26ebff
    46ac:	0000      	movs	r0, r0
    46ae:	e3a0      	b.n	0x4df2
    46b0:	df45      	svc	69	; 0x45
    46b2:	e28d      	b.n	0x4bd0
    46b4:	40f0      	lsrs	r0, r6
    46b6:	e8bd ff1e 	ldmia.w	sp!, {r1, r2, r3, r4, r8, r9, sl, fp, ip, sp, lr, pc}
    46ba:	e12f      	b.n	0x491c
    46bc:	20fb      	movs	r0, #251	; 0xfb
    46be:	e203      	b.n	0x4ac8
    46c0:	6804      	ldr	r4, [r0, #0]
    46c2:	e1a0      	b.n	0x4a06
    46c4:	0001      	movs	r1, r0
    46c6:	e352      	b.n	0x4d6e
    46c8:	6826      	ldr	r6, [r4, #0]
    46ca:	e1a0      	b.n	0x4a0e
    46cc:	4824      	ldr	r0, [pc, #144]	; (0x4760)
    46ce:	e1a0      	b.n	0x4a12
    46d0:	0050      	lsls	r0, r2, #1
    46d2:	1a00      	subs	r0, r0, r0
    46d4:	0001      	movs	r1, r0
    46d6:	e353      	b.n	0x4d80
    46d8:	7006      	strb	r6, [r0, #0]
    46da:	e084      	b.n	0x47e6
    46dc:	004b      	lsls	r3, r1, #1
    46de:	0a00      	lsrs	r0, r0, #8
    46e0:	0020      	movs	r0, r4
    46e2:	e357      	b.n	0x4d94
    46e4:	004b      	lsls	r3, r1, #1
    46e6:	8a00      	ldrh	r0, [r0, #16]
    46e8:	000f      	movs	r7, r1
    46ea:	e354      	b.n	0x4d96
    46ec:	0067      	lsls	r7, r4, #1
    46ee:	9a00      	ldr	r2, [sp, #0]
    46f0:	0005      	movs	r5, r0
    46f2:	e353      	b.n	0x4d9c
    46f4:	0000      	movs	r0, r0
    46f6:	1356      	asrs	r6, r2, #13
    46f8:	7006      	strb	r6, [r0, #0]
    46fa:	e1a0      	b.n	0x4a3e
    46fc:	0045      	lsls	r5, r0, #1
    46fe:	1a00      	subs	r0, r0, r0
    4700:	0000      	movs	r0, r0
    4702:	e357      	b.n	0x4db4
    4704:	0082      	lsls	r2, r0, #2
    4706:	0a00      	lsrs	r0, r0, #8
    4708:	2000      	movs	r0, #0
    470a:	e595      	b.n	0x4238
    470c:	0004      	movs	r4, r0
    470e:	e312      	b.n	0x4d36
    4710:	0092      	lsls	r2, r2, #2
    4712:	1a00      	subs	r0, r0, r0
    4714:	000f      	movs	r7, r1
    4716:	e354      	b.n	0x4dc2
    4718:	0097      	lsls	r7, r2, #2
    471a:	9a00      	ldr	r2, [sp, #0]
    471c:	6008      	str	r0, [r1, #0]
    471e:	e28d      	b.n	0x4c3c
    4720:	0006      	movs	r6, r0
    4722:	e1a0      	b.n	0x4a66
    4724:	3004      	adds	r0, #4
    4726:	e58d      	b.n	0x4244
    4728:	fa04 ebff 			; <UNDEFINED> instruction: 0xfa04ebff
    472c:	0010      	movs	r0, r2
    472e:	e264      	b.n	0x4bfa
    4730:	1038      	asrs	r0, r7, #32
    4732:	e595      	b.n	0x4260
    4734:	0000      	movs	r0, r0
    4736:	e350      	b.n	0x4dda
    4738:	3004      	adds	r0, #4
    473a:	e59d      	b.n	0x4278
    473c:	0001      	movs	r1, r0
    473e:	d1a0      	bne.n	0x4682
    4740:	000a      	movs	r2, r1
    4742:	da00      	bge.n	0x4746
    4744:	2e11      	cmp	r6, #17
    4746:	e28d      	b.n	0x4c64
    4748:	c184      	stmia	r1!, {r2, r7}
    474a:	e082      	b.n	0x4852
    474c:	0180      	lsls	r0, r0, #6
    474e:	e081      	b.n	0x4854
    4750:	c08c      	stmia	r0!, {r2, r3, r7}
    4752:	e24c      	b.n	0x4bee
    4754:	2004      	movs	r0, #4
    4756:	e491      	b.n	0x407c
    4758:	0001      	movs	r1, r0
    475a:	e150      	b.n	0x49fe
    475c:	2004      	movs	r0, #4
    475e:	e5ac      	b.n	0x42ba
    4760:	fffb 1aff 			; <UNDEFINED> instruction: 0xfffb1aff
    4764:	0000      	movs	r0, r0
    4766:	e357      	b.n	0x4e18
    4768:	000a      	movs	r2, r1
    476a:	0a00      	lsrs	r0, r0, #8
    476c:	6008      	str	r0, [r1, #0]
    476e:	e28d      	b.n	0x4c8c
    4770:	0010      	movs	r0, r2
    4772:	e354      	b.n	0x4e1e
    4774:	c004      	stmia	r0!, {r2}
    4776:	21a0      	movs	r1, #160	; 0xa0
    4778:	c010      	stmia	r0!, {r4}
    477a:	33a0      	adds	r3, #160	; 0xa0
    477c:	c18c      	stmia	r1!, {r2, r3, r7}
    477e:	e086      	b.n	0x488e
    4780:	c084      	stmia	r0!, {r2, r7}
    4782:	e24c      	b.n	0x4c1e
    4784:	1187      	asrs	r7, r0, #6
    4786:	e080      	b.n	0x488a
    4788:	2004      	movs	r0, #4
    478a:	e490      	b.n	0x40ae
    478c:	0000      	movs	r0, r0
    478e:	e151      	b.n	0x4a34
    4790:	2004      	movs	r0, #4
    4792:	e5ac      	b.n	0x42ee
    4794:	fffb 1aff 			; <UNDEFINED> instruction: 0xfffb1aff
    4798:	0001      	movs	r1, r0
    479a:	e353      	b.n	0x4e44
    479c:	0065      	lsls	r5, r4, #1
    479e:	0a00      	lsrs	r0, r0, #8
    47a0:	000f      	movs	r7, r1
    47a2:	e354      	b.n	0x4e4e
    47a4:	1038      	asrs	r0, r7, #32
    47a6:	e585      	b.n	0x42b4
    47a8:	0067      	lsls	r7, r4, #1
    47aa:	9a00      	ldr	r2, [sp, #0]
    47ac:	0000      	movs	r0, r0
    47ae:	e357      	b.n	0x4e60
    47b0:	0012      	movs	r2, r2
    47b2:	0a00      	lsrs	r0, r0, #8
    47b4:	0008      	movs	r0, r1
    47b6:	e28d      	b.n	0x4cd4
    47b8:	f9de ebff 	ldr??.w	lr, [lr, #3071]	; 0xbff
    47bc:	000f      	movs	r7, r1
    47be:	ea00 0000 	and.w	r0, r0, r0
    47c2:	e353      	b.n	0x4e6c
    47c4:	0013      	movs	r3, r2
    47c6:	1a00      	subs	r0, r0, r0
    47c8:	0001      	movs	r1, r0
    47ca:	e3a0      	b.n	0x4f0e
    47cc:	2802      	cmp	r0, #2
    47ce:	e1a0      	b.n	0x4b12
    47d0:	1038      	asrs	r0, r7, #32
    47d2:	e595      	b.n	0x4300
    47d4:	2822      	cmp	r0, #34	; 0x22
    47d6:	e1a0      	b.n	0x4b1a
    47d8:	e004      	b.n	0x47e4
    47da:	e285      	b.n	0x4ce8
    47dc:	c310      	stmia	r3!, {r4}
    47de:	e012      	b.n	0x4806
    47e0:	c004      	stmia	r0!, {r2}
    47e2:	1491      	asrs	r1, r2, #18
    47e4:	c103      	stmia	r1!, {r0, r1}
    47e6:	178e      	asrs	r6, r1, #30
    47e8:	3001      	adds	r0, #1
    47ea:	e283      	b.n	0x4cf4
    47ec:	0010      	movs	r0, r2
    47ee:	e353      	b.n	0x4e98
    47f0:	fff9 1aff 			; <UNDEFINED> instruction: 0xfff91aff
    47f4:	0a02      	lsrs	r2, r0, #8
    47f6:	e214      	b.n	0x4c22
    47f8:	1038      	asrs	r0, r7, #32
    47fa:	0585      	lsls	r5, r0, #22
    47fc:	0006      	movs	r6, r0
    47fe:	0a00      	lsrs	r0, r0, #8
    4800:	0000      	movs	r0, r0
    4802:	e3a0      	b.n	0x4f46
    4804:	df45      	svc	69	; 0x45
    4806:	e28d      	b.n	0x4d24
    4808:	40f0      	lsrs	r0, r6
    480a:	e8bd ff1e 	ldmia.w	sp!, {r1, r2, r3, r4, r8, r9, sl, fp, ip, sp, lr, pc}
    480e:	e12f      	b.n	0x4a70
    4810:	0010      	movs	r0, r2
    4812:	e357      	b.n	0x4ec4
    4814:	0007      	movs	r7, r0
    4816:	9a00      	ldr	r2, [sp, #0]
    4818:	0002      	movs	r2, r0
    481a:	e3a0      	b.n	0x4f5e
    481c:	df45      	svc	69	; 0x45
    481e:	e28d      	b.n	0x4d3c
    4820:	40f0      	lsrs	r0, r6
    4822:	e8bd ff1e 	ldmia.w	sp!, {r1, r2, r3, r4, r8, r9, sl, fp, ip, sp, lr, pc}
    4826:	e12f      	b.n	0x4a88
    4828:	3010      	adds	r0, #16
    482a:	e3c3      	b.n	0x4fb4
    482c:	31d0      	adds	r1, #208	; 0xd0
    482e:	e480      	b.n	0x4132
    4830:	f9eb ebff 	vld4.32			; <UNDEFINED> instruction: 0xf9ebebff
    4834:	ff6b eaff 	vpmin.u32	q15, <illegal reg q13.5>, <illegal reg q15.5>
    4838:	000f      	movs	r7, r1
    483a:	e354      	b.n	0x4ee6
    483c:	fff5 8aff 			; <UNDEFINED> instruction: 0xfff58aff
    4840:	2000      	movs	r0, #0
    4842:	e590      	b.n	0x4366
    4844:	0001      	movs	r1, r0
    4846:	e312      	b.n	0x4e6e
    4848:	0005      	movs	r5, r0
    484a:	0a00      	lsrs	r0, r0, #8
    484c:	0005      	movs	r5, r0
    484e:	e1a0      	b.n	0x4b92
    4850:	2003      	movs	r0, #3
    4852:	e3c2      	b.n	0x4fda
    4854:	2048      	movs	r0, #72	; 0x48
    4856:	e480      	b.n	0x415a
    4858:	3004      	adds	r0, #4
    485a:	e58d      	b.n	0x4378
    485c:	f9af ebff 	vld4.32			; <UNDEFINED> instruction: 0xf9afebff
    4860:	3004      	adds	r0, #4
    4862:	e59d      	b.n	0x43a0
    4864:	0088      	lsls	r0, r1, #2
    4866:	e28d      	b.n	0x4d84
    4868:	3004      	adds	r0, #4
    486a:	e58d      	b.n	0x4388
    486c:	f9ab ebff 	vld4.32			; <UNDEFINED> instruction: 0xf9abebff
    4870:	3004      	adds	r0, #4
    4872:	e59d      	b.n	0x43b0
    4874:	0000      	movs	r0, r0
    4876:	e356      	b.n	0x4f26
    4878:	0006      	movs	r6, r0
    487a:	e1a0      	b.n	0x4bbe
    487c:	1038      	asrs	r0, r7, #32
    487e:	e595      	b.n	0x43ac
    4880:	7006      	strb	r6, [r0, #0]
    4882:	01a0      	lsls	r0, r4, #6
    4884:	ffc3 0aff 			; <UNDEFINED> instruction: 0xffc30aff
    4888:	7000      	strb	r0, [r0, #0]
    488a:	e3a0      	b.n	0x4fce
    488c:	ffac eaff 			; <UNDEFINED> instruction: 0xffaceaff
    4890:	0010      	movs	r0, r2
    4892:	e357      	b.n	0x4f44
    4894:	0011      	movs	r1, r2
    4896:	9a00      	ldr	r2, [sp, #0]
    4898:	0005      	movs	r5, r0
    489a:	e353      	b.n	0x4f44
    489c:	ffdd 1aff 			; <UNDEFINED> instruction: 0xffdd1aff
    48a0:	2000      	movs	r0, #0
    48a2:	e595      	b.n	0x43d0
    48a4:	0001      	movs	r1, r0
    48a6:	e312      	b.n	0x4ece
    48a8:	7010      	strb	r0, [r2, #0]
    48aa:	e247      	b.n	0x4d3c
    48ac:	2001      	movs	r0, #1
    48ae:	13c2      	asrs	r2, r0, #15
    48b0:	0048      	lsls	r0, r1, #1
    48b2:	1285      	asrs	r5, r0, #10
    48b4:	0027      	movs	r7, r4
    48b6:	0a00      	lsrs	r0, r0, #8
    48b8:	2002      	movs	r0, #2
    48ba:	e382      	b.n	0x4fc2
    48bc:	2000      	movs	r0, #0
    48be:	e585      	b.n	0x43cc
    48c0:	3004      	adds	r0, #4
    48c2:	e58d      	b.n	0x43e0
    48c4:	f999 ebff 	ldrsb.w	lr, [r9, #3071]	; 0xbff
    48c8:	3004      	adds	r0, #4
    48ca:	e59d      	b.n	0x4408
    48cc:	ff8b eaff 			; <UNDEFINED> instruction: 0xff8beaff
    48d0:	3008      	adds	r0, #8
    48d2:	e3c3      	b.n	0x505c
    48d4:	3150      	adds	r1, #80	; 0x50
    48d6:	e480      	b.n	0x41da
    48d8:	f9ab ebff 	vld4.32			; <UNDEFINED> instruction: 0xf9abebff
    48dc:	ff5f eaff 	vpmin.u16	q15, <illegal reg q15.5>, <illegal reg q15.5>
    48e0:	1000      	asrs	r0, r0, #32
    48e2:	e595      	b.n	0x4410
    48e4:	0001      	movs	r1, r0
    48e6:	e311      	b.n	0x4f0c
    48e8:	0009      	movs	r1, r1
    48ea:	0a00      	lsrs	r0, r0, #8
    48ec:	0005      	movs	r5, r0
    48ee:	e1a0      	b.n	0x4c32
    48f0:	2001      	movs	r0, #1
    48f2:	e3c1      	b.n	0x5078
    48f4:	0005      	movs	r5, r0
    48f6:	e353      	b.n	0x4fa0
    48f8:	2048      	movs	r0, #72	; 0x48
    48fa:	e480      	b.n	0x41fe
    48fc:	0023      	movs	r3, r4
    48fe:	0a00      	lsrs	r0, r0, #8
    4900:	1003      	asrs	r3, r0, #32
    4902:	e3c1      	b.n	0x5088
    4904:	1000      	asrs	r0, r0, #32
    4906:	e585      	b.n	0x4414
    4908:	3004      	adds	r0, #4
    490a:	e58d      	b.n	0x4428
    490c:	f983 ebff 	vst4.32			; <UNDEFINED> instruction: 0xf983ebff
    4910:	3004      	adds	r0, #4
    4912:	e59d      	b.n	0x4450
    4914:	0001      	movs	r1, r0
    4916:	e353      	b.n	0x4fc0
    4918:	ffd1 0aff 			; <UNDEFINED> instruction: 0xffd10aff
    491c:	000f      	movs	r7, r1
    491e:	e354      	b.n	0x4fca
    4920:	ffd3 8aff 			; <UNDEFINED> instruction: 0xffd38aff
    4924:	0088      	lsls	r0, r1, #2
    4926:	e28d      	b.n	0x4e44
    4928:	3004      	adds	r0, #4
    492a:	e58d      	b.n	0x4448
    492c:	f97f ebff 	ldr??.w	lr, [pc, #-3071]	; 0x3d31
    4930:	3004      	adds	r0, #4
    4932:	e59d      	b.n	0x4470
    4934:	ffce eaff 			; <UNDEFINED> instruction: 0xffceeaff
    4938:	1004      	asrs	r4, r0, #32
    493a:	e281      	b.n	0x4e40
    493c:	1038      	asrs	r0, r7, #32
    493e:	e585      	b.n	0x444c
    4940:	0088      	lsls	r0, r1, #2
    4942:	e28d      	b.n	0x4e60
    4944:	f973 ebff 	ldr??.w	lr, [r3], #255
    4948:	ffac eaff 			; <UNDEFINED> instruction: 0xffaceaff
    494c:	0088      	lsls	r0, r1, #2
    494e:	e28d      	b.n	0x4e6c
    4950:	f974 ebff 	ldr??.w	lr, [r4], #255
    4954:	ff94 eaff 			; <UNDEFINED> instruction: 0xff94eaff
    4958:	0004      	movs	r4, r0
    495a:	e312      	b.n	0x4f82
    495c:	0006      	movs	r6, r0
    495e:	0a00      	lsrs	r0, r0, #8
    4960:	0005      	movs	r5, r0
    4962:	e1a0      	b.n	0x4ca6
    4964:	2004      	movs	r0, #4
    4966:	e3c2      	b.n	0x50ee
    4968:	20d0      	movs	r0, #208	; 0xd0
    496a:	e480      	b.n	0x426e
    496c:	3004      	adds	r0, #4
    496e:	e58d      	b.n	0x448c
    4970:	f972 ebff 	ldr??.w	lr, [r2], #255
    4974:	3004      	adds	r0, #4
    4976:	e59d      	b.n	0x44b4
    4978:	ff65 eaff 	vpmin.u32	q15, <illegal reg q10.5>, <illegal reg q15.5>
    497c:	0088      	lsls	r0, r1, #2
    497e:	e28d      	b.n	0x4e9c
    4980:	3004      	adds	r0, #4
    4982:	e58d      	b.n	0x44a0
    4984:	f969 ebff 			; <UNDEFINED> instruction: 0xf969ebff
    4988:	3004      	adds	r0, #4
    498a:	e59d      	b.n	0x44c8
    498c:	ff62 eaff 	vpmin.u32	q15, q9, <illegal reg q15.5>
    4990:	7000      	strb	r0, [r0, #0]
    4992:	e3a0      	b.n	0x50d6
    4994:	ffc7 eaff 			; <UNDEFINED> instruction: 0xffc7eaff
    4998:	3008      	adds	r0, #8
    499a:	e5d0      	b.n	0x453e
    499c:	0000      	movs	r0, r0
    499e:	e353      	b.n	0x5048
    49a0:	000e      	movs	r6, r1
    49a2:	1a00      	subs	r0, r0, r0
    49a4:	3009      	adds	r0, #9
    49a6:	e5d0      	b.n	0x454a
    49a8:	0000      	movs	r0, r0
    49aa:	e353      	b.n	0x5054
    49ac:	000f      	movs	r7, r1
    49ae:	0a00      	lsrs	r0, r0, #8
    49b0:	1003      	asrs	r3, r0, #32
    49b2:	e3a0      	b.n	0x50f6
    49b4:	2004      	movs	r0, #4
    49b6:	e590      	b.n	0x44da
    49b8:	3001      	adds	r0, #1
    49ba:	e243      	b.n	0x4e44
    49bc:	3009      	adds	r0, #9
    49be:	e5c0      	b.n	0x4542
    49c0:	c004      	stmia	r0!, {r2}
    49c2:	e282      	b.n	0x4eca
    49c4:	3000      	adds	r0, #0
    49c6:	e592      	b.n	0x44ee
    49c8:	c004      	stmia	r0!, {r2}
    49ca:	e580      	b.n	0x44ce
    49cc:	1008      	asrs	r0, r1, #32
    49ce:	e5c0      	b.n	0x4552
    49d0:	2403      	movs	r4, #3
    49d2:	e1a0      	b.n	0x4d16
    49d4:	2000      	movs	r0, #0
    49d6:	e580      	b.n	0x44da
    49d8:	0c23      	lsrs	r3, r4, #16
    49da:	e1a0      	b.n	0x4d1e
    49dc:	ff1e e12f 	vrhadd.u16	d14, d14, d31
    49e0:	3001      	adds	r0, #1
    49e2:	e243      	b.n	0x4e6c
    49e4:	3008      	adds	r0, #8
    49e6:	e5c0      	b.n	0x456a
    49e8:	3000      	adds	r0, #0
    49ea:	e590      	b.n	0x450e
    49ec:	fff7 eaff 			; <UNDEFINED> instruction: 0xfff7eaff
    49f0:	00b0      	lsls	r0, r6, #2
    49f2:	e3a0      	b.n	0x5136
    49f4:	ff1e e12f 	vrhadd.u16	d14, d14, d31
    49f8:	47f0      	blx	lr
    49fa:	e92d 6000 	stmdb	sp!, {sp, lr}
    49fe:	e1a0      	b.n	0x4d42
    4a00:	5001      	str	r1, [r0, r0]
    4a02:	e1a0      	b.n	0x4d46
    4a04:	7000      	strb	r0, [r0, #0]
    4a06:	e3a0      	b.n	0x514a
    4a08:	83b8      	strh	r0, [r7, #28]
    4a0a:	e59f      	b.n	0x454c
    4a0c:	d010      	beq.n	0x4a30
    4a0e:	e24d      	b.n	0x4eac
    4a10:	0005      	movs	r5, r0
    4a12:	e1a0      	b.n	0x4d56
    4a14:	ffdf ebff 			; <UNDEFINED> instruction: 0xffdfebff
    4a18:	00b0      	lsls	r0, r6, #2
    4a1a:	e350      	b.n	0x50be
    4a1c:	4000      	ands	r0, r0
    4a1e:	e1a0      	b.n	0x4d62
    4a20:	0083      	lsls	r3, r0, #2
    4a22:	0a00      	lsrs	r0, r0, #8
    4a24:	0080      	lsls	r0, r0, #2
    4a26:	e310      	b.n	0x504a
    4a28:	001a      	movs	r2, r3
    4a2a:	0a00      	lsrs	r0, r0, #8
    4a2c:	30f0      	adds	r0, #240	; 0xf0
    4a2e:	e200      	b.n	0x4e32
    4a30:	0080      	lsls	r0, r0, #2
    4a32:	e353      	b.n	0x50dc
    4a34:	003e      	movs	r6, r7
    4a36:	0a00      	lsrs	r0, r0, #8
    4a38:	0090      	lsls	r0, r2, #2
    4a3a:	e353      	b.n	0x50e4
    4a3c:	002b      	movs	r3, r5
    4a3e:	0a00      	lsrs	r0, r0, #8
    4a40:	00a0      	lsls	r0, r4, #2
    4a42:	e353      	b.n	0x50ec
    4a44:	004b      	lsls	r3, r1, #1
    4a46:	0a00      	lsrs	r0, r0, #8
    4a48:	00b0      	lsls	r0, r6, #2
    4a4a:	e353      	b.n	0x50f4
    4a4c:	0057      	lsls	r7, r2, #1
    4a4e:	0a00      	lsrs	r0, r0, #8
    4a50:	00c0      	lsls	r0, r0, #3
    4a52:	e353      	b.n	0x50fc
    4a54:	0063      	lsls	r3, r4, #1
    4a56:	0a00      	lsrs	r0, r0, #8
    4a58:	30f8      	adds	r0, #248	; 0xf8
    4a5a:	e200      	b.n	0x4e5e
    4a5c:	00d0      	lsls	r0, r2, #3
    4a5e:	e353      	b.n	0x5108
    4a60:	0008      	movs	r0, r1
    4a62:	1a00      	subs	r0, r0, r0
    4a64:	2007      	movs	r0, #7
    4a66:	e200      	b.n	0x4e6a
    4a68:	2001      	movs	r0, #1
    4a6a:	e282      	b.n	0x4f72
    4a6c:	2702      	movs	r7, #2
    4a6e:	e382      	b.n	0x5176
    4a70:	3005      	adds	r0, #5
    4a72:	e3a0      	b.n	0x51b6
    4a74:	1001      	asrs	r1, r0, #32
    4a76:	e3a0      	b.n	0x51ba
    4a78:	0006      	movs	r6, r0
    4a7a:	e1a0      	b.n	0x4dbe
    4a7c:	fec7 ebff 			; <UNDEFINED> instruction: 0xfec7ebff
    4a80:	0000      	movs	r0, r0
    4a82:	e350      	b.n	0x5126
    4a84:	ffe1 0aff 			; <UNDEFINED> instruction: 0xffe10aff
    4a88:	0009      	movs	r1, r1
    4a8a:	e3a0      	b.n	0x51ce
    4a8c:	d010      	beq.n	0x4ab0
    4a8e:	e28d      	b.n	0x4fac
    4a90:	47f0      	blx	lr
    4a92:	e8bd ff1e 	ldmia.w	sp!, {r1, r2, r3, r4, r8, r9, sl, fp, ip, sp, lr, pc}
    4a96:	e12f      	b.n	0x4cf8
    4a98:	3000      	adds	r0, #0
    4a9a:	e3a0      	b.n	0x51de
    4a9c:	900c      	str	r0, [sp, #48]	; 0x30
    4a9e:	e28d      	b.n	0x4fbc
    4aa0:	c100      	stmia	r1!, {}
    4aa2:	e1a0      	b.n	0x4de6
    4aa4:	c0ff      	stmia	r0!, {r0, r1, r2, r3, r4, r5, r6, r7}
    4aa6:	e20c      	b.n	0x4ec2
    4aa8:	1003      	asrs	r3, r0, #32
    4aaa:	e1a0      	b.n	0x4dee
    4aac:	9000      	str	r0, [sp, #0]
    4aae:	e58d      	b.n	0x45cc
    4ab0:	200d      	movs	r0, #13
    4ab2:	e3a0      	b.n	0x51f6
    4ab4:	0006      	movs	r6, r0
    4ab6:	e1a0      	b.n	0x4dfa
    4ab8:	a004      	add	r0, pc, #16	; (adr r0, 0x4acc)
    4aba:	e28c      	b.n	0x4fd6
    4abc:	fd1d ebff 			; <UNDEFINED> instruction: 0xfd1debff
    4ac0:	3000      	adds	r0, #0
    4ac2:	e3a0      	b.n	0x5206
    4ac4:	c00c      	stmia	r0!, {r2, r3}
    4ac6:	e59d      	b.n	0x4604
    4ac8:	0040      	lsls	r0, r0, #1
    4aca:	e314      	b.n	0x50f6
    4acc:	c00a      	stmia	r0!, {r1, r3}
    4ace:	104c      	asrs	r4, r1, #1
    4ad0:	c00c      	stmia	r0!, {r2, r3}
    4ad2:	008a      	lsls	r2, r1, #2
    4ad4:	9000      	str	r0, [sp, #0]
    4ad6:	e58d      	b.n	0x45f4
    4ad8:	1003      	asrs	r3, r0, #32
    4ada:	e1a0      	b.n	0x4e1e
    4adc:	200d      	movs	r0, #13
    4ade:	e3a0      	b.n	0x5222
    4ae0:	0006      	movs	r6, r0
    4ae2:	e1a0      	b.n	0x4e26
    4ae4:	c00c      	stmia	r0!, {r2, r3}
    4ae6:	e58d      	b.n	0x4604
    4ae8:	fd38 ebff 			; <UNDEFINED> instruction: 0xfd38ebff
    4aec:	ffc7 eaff 			; <UNDEFINED> instruction: 0xffc7eaff
    4af0:	300d      	adds	r0, #13
    4af2:	e200      	b.n	0x4ef6
    4af4:	000d      	movs	r5, r1
    4af6:	e353      	b.n	0x51a0
    4af8:	ffe2 0aff 			; <UNDEFINED> instruction: 0xffe20aff
    4afc:	3000      	adds	r0, #0
    4afe:	e3a0      	b.n	0x5242
    4b00:	900c      	str	r0, [sp, #48]	; 0x30
    4b02:	e28d      	b.n	0x5020
    4b04:	200f      	movs	r0, #15
    4b06:	e200      	b.n	0x4f0a
    4b08:	1003      	asrs	r3, r0, #32
    4b0a:	e1a0      	b.n	0x4e4e
    4b0c:	9000      	str	r0, [sp, #0]
    4b0e:	e58d      	b.n	0x462c
    4b10:	0006      	movs	r6, r0
    4b12:	e1a0      	b.n	0x4e56
    4b14:	fd07 ebff 			; <UNDEFINED> instruction: 0xfd07ebff
    4b18:	3000      	adds	r0, #0
    4b1a:	e3a0      	b.n	0x525e
    4b1c:	9000      	str	r0, [sp, #0]
    4b1e:	e58d      	b.n	0x463c
    4b20:	1003      	asrs	r3, r0, #32
    4b22:	e1a0      	b.n	0x4e66
    4b24:	200d      	movs	r0, #13
    4b26:	e3a0      	b.n	0x526a
    4b28:	0006      	movs	r6, r0
    4b2a:	e1a0      	b.n	0x4e6e
    4b2c:	fd27 ebff 			; <UNDEFINED> instruction: 0xfd27ebff
    4b30:	ffb6 eaff 			; <UNDEFINED> instruction: 0xffb6eaff
    4b34:	0005      	movs	r5, r0
    4b36:	e1a0      	b.n	0x4e7a
    4b38:	ff96 ebff 			; <UNDEFINED> instruction: 0xff96ebff
    4b3c:	4404      	add	r4, r0
    4b3e:	e1a0      	b.n	0x4e82
    4b40:	4004      	ands	r4, r0
    4b42:	e180      	b.n	0x4e46
    4b44:	0902      	lsrs	r2, r0, #4
    4b46:	e354      	b.n	0x51f2
    4b48:	ffce 0aff 			; <UNDEFINED> instruction: 0xffce0aff
    4b4c:	3000      	adds	r0, #0
    4b4e:	e3a0      	b.n	0x5292
    4b50:	4204      	tst	r4, r0
    4b52:	e1a0      	b.n	0x4e96
    4b54:	2008      	movs	r0, #8
    4b56:	e004      	b.n	0x4b62
    4b58:	1003      	asrs	r3, r0, #32
    4b5a:	e1a0      	b.n	0x4e9e
    4b5c:	0006      	movs	r6, r0
    4b5e:	e1a0      	b.n	0x4ea2
    4b60:	fe8e ebff 			; <UNDEFINED> instruction: 0xfe8eebff
    4b64:	0000      	movs	r0, r0
    4b66:	e350      	b.n	0x520a
    4b68:	ffc6 1aff 			; <UNDEFINED> instruction: 0xffc61aff
    4b6c:	0902      	lsrs	r2, r0, #4
    4b6e:	e314      	b.n	0x519a
    4b70:	7001      	strb	r1, [r0, #0]
    4b72:	13a0      	asrs	r0, r4, #14
    4b74:	ffa5 eaff 			; <UNDEFINED> instruction: 0xffa5eaff
    4b78:	3000      	adds	r0, #0
    4b7a:	e1e0      	b.n	0x4f3e
    4b7c:	2eff      	cmp	r6, #255	; 0xff
    4b7e:	e3a0      	b.n	0x52c2
    4b80:	3007      	adds	r0, #7
    4b82:	e203      	b.n	0x4f8c
    4b84:	2352      	movs	r3, #82	; 0x52
    4b86:	e1a0      	b.n	0x4eca
    4b88:	3000      	adds	r0, #0
    4b8a:	e3a0      	b.n	0x52ce
    4b8c:	0008      	movs	r0, r1
    4b8e:	e310      	b.n	0x51b2
    4b90:	2eff      	cmp	r6, #255	; 0xff
    4b92:	e202      	b.n	0x4f9a
    4b94:	2901      	cmp	r1, #1
    4b96:	1382      	asrs	r2, r0, #14
    4b98:	1003      	asrs	r3, r0, #32
    4b9a:	e1a0      	b.n	0x4ede
    4b9c:	0006      	movs	r6, r0
    4b9e:	e1a0      	b.n	0x4ee2
    4ba0:	fe7e ebff 			; <UNDEFINED> instruction: 0xfe7eebff
    4ba4:	0000      	movs	r0, r0
    4ba6:	e350      	b.n	0x524a
    4ba8:	ff98 0aff 			; <UNDEFINED> instruction: 0xff980aff
    4bac:	ffb5 eaff 			; <UNDEFINED> instruction: 0xffb5eaff
    4bb0:	00b1      	lsls	r1, r6, #2
    4bb2:	e350      	b.n	0x5256
    4bb4:	0030      	movs	r0, r6
    4bb6:	0a00      	lsrs	r0, r0, #8
    4bb8:	00b2      	lsls	r2, r6, #2
    4bba:	e350      	b.n	0x525e
    4bbc:	0060      	lsls	r0, r4, #1
    4bbe:	0a00      	lsrs	r0, r0, #8
    4bc0:	00b3      	lsls	r3, r6, #2
    4bc2:	e350      	b.n	0x5266
    4bc4:	0033      	movs	r3, r6
    4bc6:	0a00      	lsrs	r0, r0, #8
    4bc8:	30fc      	adds	r0, #252	; 0xfc
    4bca:	e200      	b.n	0x4fce
    4bcc:	00b4      	lsls	r4, r6, #2
    4bce:	e353      	b.n	0x5278
    4bd0:	ffac 0aff 			; <UNDEFINED> instruction: 0xffac0aff
    4bd4:	3001      	adds	r0, #1
    4bd6:	e3a0      	b.n	0x531a
    4bd8:	2007      	movs	r0, #7
    4bda:	e200      	b.n	0x4fde
    4bdc:	2003      	movs	r0, #3
    4bde:	e082      	b.n	0x4ce6
    4be0:	2702      	movs	r7, #2
    4be2:	e382      	b.n	0x52ea
    4be4:	ffeb eaff 			; <UNDEFINED> instruction: 0xffebeaff
    4be8:	00c6      	lsls	r6, r0, #3
    4bea:	e350      	b.n	0x528e
    4bec:	0032      	movs	r2, r6
    4bee:	0a00      	lsrs	r0, r0, #8
    4bf0:	00c7      	lsls	r7, r0, #3
    4bf2:	e350      	b.n	0x5296
    4bf4:	0039      	movs	r1, r7
    4bf6:	0a00      	lsrs	r0, r0, #8
    4bf8:	30f8      	adds	r0, #248	; 0xf8
    4bfa:	e200      	b.n	0x4ffe
    4bfc:	00c0      	lsls	r0, r0, #3
    4bfe:	e353      	b.n	0x52a8
    4c00:	0042      	lsls	r2, r0, #1
    4c02:	0a00      	lsrs	r0, r0, #8
    4c04:	00c8      	lsls	r0, r1, #3
    4c06:	e350      	b.n	0x52aa
    4c08:	0045      	lsls	r5, r0, #1
    4c0a:	0a00      	lsrs	r0, r0, #8
    4c0c:	00c9      	lsls	r1, r1, #3
    4c0e:	e350      	b.n	0x52b2
    4c10:	ff9c 1aff 			; <UNDEFINED> instruction: 0xff9c1aff
    4c14:	0005      	movs	r5, r0
    4c16:	e1a0      	b.n	0x4f5a
    4c18:	ff5e ebff 	vqrdmlah.s16	q15, q15, <illegal reg q15.5>
    4c1c:	2600      	movs	r6, #0
    4c1e:	e1a0      	b.n	0x4f62
    4c20:	000f      	movs	r7, r1
    4c22:	e200      	b.n	0x5026
    4c24:	280f      	cmp	r0, #15
    4c26:	e202      	b.n	0x502e
    4c28:	0001      	movs	r1, r0
    4c2a:	e280      	b.n	0x512e
    4c2c:	2002      	movs	r0, #2
    4c2e:	e180      	b.n	0x4f32
    4c30:	ff8e eaff 			; <UNDEFINED> instruction: 0xff8eeaff
    4c34:	0000      	movs	r0, r0
    4c36:	e357      	b.n	0x52e8
    4c38:	0000      	movs	r0, r0
    4c3a:	13a0      	asrs	r0, r4, #14
    4c3c:	ff92 1aff 			; <UNDEFINED> instruction: 0xff921aff
    4c40:	400c      	ands	r4, r1
    4c42:	e28d      	b.n	0x5160
    4c44:	3007      	adds	r0, #7
    4c46:	e1a0      	b.n	0x4f8a
    4c48:	200e      	movs	r0, #14
    4c4a:	e3a0      	b.n	0x538e
    4c4c:	1007      	asrs	r7, r0, #32
    4c4e:	e1a0      	b.n	0x4f92
    4c50:	4000      	ands	r0, r0
    4c52:	e58d      	b.n	0x4770
    4c54:	0006      	movs	r6, r0
    4c56:	e1a0      	b.n	0x4f9a
    4c58:	fcb6 ebff 			; <UNDEFINED> instruction: 0xfcb6ebff
    4c5c:	4000      	ands	r0, r0
    4c5e:	e58d      	b.n	0x477c
    4c60:	0006      	movs	r6, r0
    4c62:	e1a0      	b.n	0x4fa6
    4c64:	3007      	adds	r0, #7
    4c66:	e1a0      	b.n	0x4faa
    4c68:	200f      	movs	r0, #15
    4c6a:	e3a0      	b.n	0x53ae
    4c6c:	1007      	asrs	r7, r0, #32
    4c6e:	e1a0      	b.n	0x4fb2
    4c70:	fcd6 ebff 			; <UNDEFINED> instruction: 0xfcd6ebff
    4c74:	0007      	movs	r7, r0
    4c76:	e1a0      	b.n	0x4fba
    4c78:	ff83 eaff 			; <UNDEFINED> instruction: 0xff83eaff
    4c7c:	0005      	movs	r5, r0
    4c7e:	e1a0      	b.n	0x4fc2
    4c80:	ff44 ebff 	vqrdmlah.s<illegal width 8>	q15, q10, <illegal reg q15.5>
    4c84:	2000      	movs	r0, #0
    4c86:	e250      	b.n	0x512a
    4c88:	ff7e 0aff 	vpmin.u<illegal width 64>	q8, q15, <illegal reg q15.5>
    4c8c:	30f0      	adds	r0, #240	; 0xf0
    4c8e:	e212      	b.n	0x50b6
    4c90:	ffc0 0aff 			; <UNDEFINED> instruction: 0xffc00aff
    4c94:	ff7b eaff 	vpmin.u<illegal width 64>	q15, <illegal reg q13.5>, <illegal reg q15.5>
    4c98:	0005      	movs	r5, r0
    4c9a:	e1a0      	b.n	0x4fde
    4c9c:	ff3d ebff 	vqrdmlah.s<illegal width 64>	q7, <illegal reg q14.5>, <illegal reg q15.5>
    4ca0:	3001      	adds	r0, #1
    4ca2:	e3a0      	b.n	0x53e6
    4ca4:	2600      	movs	r6, #0
    4ca6:	e1a0      	b.n	0x4fea
    4ca8:	000f      	movs	r7, r1
    4caa:	e200      	b.n	0x50ae
    4cac:	180f      	adds	r7, r1, r0
    4cae:	e202      	b.n	0x50b6
    4cb0:	2003      	movs	r0, #3
    4cb2:	e080      	b.n	0x4db6
    4cb4:	2001      	movs	r0, #1
    4cb6:	e182      	b.n	0x4fbe
    4cb8:	ffb6 eaff 			; <UNDEFINED> instruction: 0xffb6eaff
    4cbc:	0005      	movs	r5, r0
    4cbe:	e1a0      	b.n	0x5002
    4cc0:	ff34 ebff 	vqrdmlah.s<illegal width 64>	q7, q10, <illegal reg q15.5>
    4cc4:	2600      	movs	r6, #0
    4cc6:	e1a0      	b.n	0x500a
    4cc8:	000f      	movs	r7, r1
    4cca:	e200      	b.n	0x50ce
    4ccc:	180f      	adds	r7, r1, r0
    4cce:	e202      	b.n	0x50d6
    4cd0:	2001      	movs	r0, #1
    4cd2:	e280      	b.n	0x51d6
    4cd4:	3003      	adds	r0, #3
    4cd6:	e3a0      	b.n	0x541a
    4cd8:	2001      	movs	r0, #1
    4cda:	e182      	b.n	0x4fe2
    4cdc:	ffad eaff 			; <UNDEFINED> instruction: 0xffadeaff
    4ce0:	0005      	movs	r5, r0
    4ce2:	e1a0      	b.n	0x5026
    4ce4:	ff2b ebff 	vqrdmlah.s32	q7, <illegal reg q13.5>, <illegal reg q15.5>
    4ce8:	2000      	movs	r0, #0
    4cea:	e250      	b.n	0x518e
    4cec:	ff65 0aff 	vpmin.u32	q8, <illegal reg q10.5>, <illegal reg q15.5>
    4cf0:	30f0      	adds	r0, #240	; 0xf0
    4cf2:	e212      	b.n	0x511a
    4cf4:	ff63 1aff 	vpmin.u32	<illegal reg q8.5>, <illegal reg q9.5>, <illegal reg q15.5>
    4cf8:	1004      	asrs	r4, r0, #32
    4cfa:	e3a0      	b.n	0x543e
    4cfc:	0006      	movs	r6, r0
    4cfe:	e1a0      	b.n	0x5042
    4d00:	fe26 ebff 			; <UNDEFINED> instruction: 0xfe26ebff
    4d04:	0000      	movs	r0, r0
    4d06:	e350      	b.n	0x53aa
    4d08:	ff40 0aff 	vpmin.u8	q8, q8, <illegal reg q15.5>
    4d0c:	ff5d eaff 	vpmin.u16	q15, <illegal reg q14.5>, <illegal reg q15.5>
    4d10:	200f      	movs	r0, #15
    4d12:	e200      	b.n	0x5116
    4d14:	2001      	movs	r0, #1
    4d16:	e282      	b.n	0x521e
    4d18:	3003      	adds	r0, #3
    4d1a:	e3a0      	b.n	0x545e
    4d1c:	280a      	cmp	r0, #10
    4d1e:	e382      	b.n	0x5426
    4d20:	ff9c eaff 			; <UNDEFINED> instruction: 0xff9ceaff
    4d24:	0005      	movs	r5, r0
    4d26:	e1a0      	b.n	0x506a
    4d28:	ff1a ebff 	vqrdmlah.s16	q7, q13, <illegal reg q15.5>
    4d2c:	20f0      	movs	r0, #240	; 0xf0
    4d2e:	e200      	b.n	0x5132
    4d30:	300f      	adds	r0, #15
    4d32:	e200      	b.n	0x5136
    4d34:	2010      	movs	r0, #16
    4d36:	e282      	b.n	0x523e
    4d38:	3001      	adds	r0, #1
    4d3a:	e283      	b.n	0x5244
    4d3c:	2602      	movs	r6, #2
    4d3e:	e183      	b.n	0x5048
    4d40:	ff4a eaff 	vpmin.u8	q15, q13, <illegal reg q15.5>
    4d44:	3000      	adds	r0, #0
    4d46:	e3a0      	b.n	0x548a
    4d48:	900c      	str	r0, [sp, #48]	; 0x30
    4d4a:	e28d      	b.n	0x5268
    4d4c:	1003      	asrs	r3, r0, #32
    4d4e:	e1a0      	b.n	0x5092
    4d50:	200d      	movs	r0, #13
    4d52:	e3a0      	b.n	0x5496
    4d54:	9000      	str	r0, [sp, #0]
    4d56:	e58d      	b.n	0x4874
    4d58:	0006      	movs	r6, r0
    4d5a:	e1a0      	b.n	0x509e
    4d5c:	fc75 ebff 			; <UNDEFINED> instruction: 0xfc75ebff
    4d60:	0005      	movs	r5, r0
    4d62:	e1a0      	b.n	0x50a6
    4d64:	ff0b ebff 	vqrdmlah.s<illegal width 8>	q7, <illegal reg q13.5>, <illegal reg q15.5>
    4d68:	0080      	lsls	r0, r0, #2
    4d6a:	e310      	b.n	0x538e
    4d6c:	4002      	ands	r2, r0
    4d6e:	e3a0      	b.n	0x54b2
    4d70:	0008      	movs	r0, r1
    4d72:	0a00      	lsrs	r0, r0, #8
    4d74:	300c      	adds	r0, #12
    4d76:	e59d      	b.n	0x48b4
    4d78:	007f      	lsls	r7, r7, #1
    4d7a:	e200      	b.n	0x517e
    4d7c:	3410      	adds	r4, #16
    4d7e:	e083      	b.n	0x4e88
    4d80:	0005      	movs	r5, r0
    4d82:	e1a0      	b.n	0x50c6
    4d84:	300c      	adds	r0, #12
    4d86:	e58d      	b.n	0x48a4
    4d88:	ff02 ebff 	vqrdmlah.s<illegal width 8>	q7, q9, <illegal reg q15.5>
    4d8c:	0080      	lsls	r0, r0, #2
    4d8e:	e310      	b.n	0x53b2
    4d90:	4007      	ands	r7, r0
    4d92:	e284      	b.n	0x529e
    4d94:	fff6 1aff 			; <UNDEFINED> instruction: 0xfff61aff
    4d98:	3000      	adds	r0, #0
    4d9a:	e3a0      	b.n	0x54de
    4d9c:	200c      	movs	r0, #12
    4d9e:	e59d      	b.n	0x48dc
    4da0:	007f      	lsls	r7, r7, #1
    4da2:	e200      	b.n	0x51a6
    4da4:	2f81      	cmp	r7, #129	; 0x81
    4da6:	e282      	b.n	0x52ae
    4da8:	4410      	add	r0, r2
    4daa:	e082      	b.n	0x4eb2
    4dac:	9000      	str	r0, [sp, #0]
    4dae:	e58d      	b.n	0x48cc
    4db0:	1003      	asrs	r3, r0, #32
    4db2:	e1a0      	b.n	0x50f6
    4db4:	200d      	movs	r0, #13
    4db6:	e3a0      	b.n	0x54fa
    4db8:	0006      	movs	r6, r0
    4dba:	e1a0      	b.n	0x50fe
    4dbc:	400c      	ands	r4, r1
    4dbe:	e58d      	b.n	0x48dc
    4dc0:	fc82 ebff 			; <UNDEFINED> instruction: 0xfc82ebff
    4dc4:	ff11 eaff 	vpmin.u16	q7, <illegal reg q8.5>, <illegal reg q15.5>
    4dc8:	ffff 0000 	vaddl.u<illegal width 64>	q8, d15, d0
    4dcc:	4010      	ands	r0, r2
    4dce:	e92d 0006 	stmdb	sp!, {r1, r2}
    4dd2:	e3a0      	b.n	0x5516
    4dd4:	0090      	lsls	r0, r2, #2
    4dd6:	eb00 0001 	add.w	r0, r0, r1
    4dda:	e3a0      	b.n	0x551e
    4ddc:	009c      	lsls	r4, r3, #2
    4dde:	eb00 4070 	add.w	r0, r0, r0, ror #17
    4de2:	e92d 606c 	stmdb	sp!, {r2, r3, r5, r6, sp, lr}
    4de6:	e59f      	b.n	0x4928
    4de8:	506c      	str	r4, [r5, r1]
    4dea:	e59f      	b.n	0x492c
    4dec:	6005      	str	r5, [r0, #0]
    4dee:	e046      	b.n	0x4e7e
    4df0:	6146      	str	r6, [r0, #20]
    4df2:	e1b0      	b.n	0x5156
    4df4:	0007      	movs	r7, r0
    4df6:	0a00      	lsrs	r0, r0, #8
    4df8:	4000      	ands	r0, r0
    4dfa:	e3a0      	b.n	0x553e
    4dfc:	5004      	str	r4, [r0, r0]
    4dfe:	e245      	b.n	0x528c
    4e00:	4001      	ands	r1, r0
    4e02:	e284      	b.n	0x530e
    4e04:	3004      	adds	r0, #4
    4e06:	e5b5      	b.n	0x4974
    4e08:	e00f      	b.n	0x4e2a
    4e0a:	e1a0      	b.n	0x514e
    4e0c:	ff13 e12f 	vrhadd.u16	d14, d3, d31
    4e10:	0004      	movs	r4, r0
    4e12:	e156      	b.n	0x50c2
    4e14:	fff9 1aff 			; <UNDEFINED> instruction: 0xfff91aff
    4e18:	6040      	str	r0, [r0, #4]
    4e1a:	e59f      	b.n	0x495c
    4e1c:	5040      	str	r0, [r0, r1]
    4e1e:	e59f      	b.n	0x4960
    4e20:	6005      	str	r5, [r0, #0]
    4e22:	e046      	b.n	0x4eb2
    4e24:	ecf9 ebff 			; <UNDEFINED> instruction: 0xecf9ebff
    4e28:	6146      	str	r6, [r0, #20]
    4e2a:	e1b0      	b.n	0x518e
    4e2c:	0007      	movs	r7, r0
    4e2e:	0a00      	lsrs	r0, r0, #8
    4e30:	4000      	ands	r0, r0
    4e32:	e3a0      	b.n	0x5576
    4e34:	5004      	str	r4, [r0, r0]
    4e36:	e245      	b.n	0x52c4
    4e38:	4001      	ands	r1, r0
    4e3a:	e284      	b.n	0x5346
    4e3c:	3004      	adds	r0, #4
    4e3e:	e5b5      	b.n	0x49ac
    4e40:	e00f      	b.n	0x4e62
    4e42:	e1a0      	b.n	0x5186
    4e44:	ff13 e12f 	vrhadd.u16	d14, d3, d31
    4e48:	0004      	movs	r4, r0
    4e4a:	e156      	b.n	0x50fa
    4e4c:	fff9 1aff 			; <UNDEFINED> instruction: 0xfff91aff
    4e50:	4070      	eors	r0, r6
    4e52:	e8bd ff1e 	ldmia.w	sp!, {r1, r2, r3, r4, r8, r9, sl, fp, ip, sp, lr, pc}
    4e56:	e12f      	b.n	0x50b8
    4e58:	0858      	lsrs	r0, r3, #1
    4e5a:	0300      	lsls	r0, r0, #12
    4e5c:	0858      	lsrs	r0, r3, #1
    4e5e:	0300      	lsls	r0, r0, #12
    4e60:	085c      	lsrs	r4, r3, #1
    4e62:	0300      	lsls	r0, r0, #12
    4e64:	0858      	lsrs	r0, r3, #1
    4e66:	0300      	lsls	r0, r0, #12
    4e68:	000f      	movs	r7, r1
    4e6a:	e352      	b.n	0x5512
    4e6c:	0035      	movs	r5, r6
    4e6e:	9a00      	ldr	r2, [sp, #0]
    4e70:	3001      	adds	r0, #1
    4e72:	e180      	b.n	0x5176
    4e74:	0003      	movs	r3, r0
    4e76:	e313      	b.n	0x54a0
    4e78:	003e      	movs	r6, r7
    4e7a:	1a00      	subs	r0, r0, r0
    4e7c:	41f0      	rors	r0, r6
    4e7e:	e92d 8010 	stmdb	sp!, {r4, pc}
    4e82:	e242      	b.n	0x530a
    4e84:	8228      	strh	r0, [r5, #16]
    4e86:	e1a0      	b.n	0x51ca
    4e88:	7020      	strb	r0, [r4, #0]
    4e8a:	e281      	b.n	0x5390
    4e8c:	7208      	strb	r0, [r1, #8]
    4e8e:	e087      	b.n	0x4fa0
    4e90:	3010      	adds	r0, #16
    4e92:	e281      	b.n	0x5398
    4e94:	c010      	stmia	r0!, {r4}
    4e96:	e280      	b.n	0x539a
    4e98:	6010      	str	r0, [r2, #0]
    4e9a:	e513      	b.n	0x48c4
    4e9c:	500c      	str	r4, [r1, r0]
    4e9e:	e513      	b.n	0x48c8
    4ea0:	4010      	ands	r0, r2
    4ea2:	e913 3010 	ldmdb	r3, {r4, ip, sp}
    4ea6:	e283      	b.n	0x53b0
    4ea8:	0007      	movs	r7, r0
    4eaa:	e153      	b.n	0x5154
    4eac:	6010      	str	r0, [r2, #0]
    4eae:	e50c      	b.n	0x48ca
    4eb0:	500c      	str	r4, [r1, r0]
    4eb2:	e50c      	b.n	0x48ce
    4eb4:	4010      	ands	r0, r2
    4eb6:	e90c c010 	stmdb	ip, {r4, lr, pc}
    4eba:	e28c      	b.n	0x53d6
    4ebc:	fff5 1aff 			; <UNDEFINED> instruction: 0xfff51aff
    4ec0:	c001      	stmia	r0!, {r0}
    4ec2:	e288      	b.n	0x53d6
    4ec4:	c20c      	stmia	r2!, {r2, r3}
    4ec6:	e1a0      	b.n	0x520a
    4ec8:	000c      	movs	r4, r1
    4eca:	e312      	b.n	0x54f2
    4ecc:	e00f      	b.n	0x4eee
    4ece:	e202      	b.n	0x52d6
    4ed0:	100c      	asrs	r4, r1, #32
    4ed2:	e081      	b.n	0x4fd8
    4ed4:	200e      	movs	r0, #14
    4ed6:	01a0      	lsls	r0, r4, #6
    4ed8:	c00c      	stmia	r0!, {r2, r3}
    4eda:	e080      	b.n	0x4fde
    4edc:	000d      	movs	r5, r1
    4ede:	0a00      	lsrs	r0, r0, #8
    4ee0:	4001      	ands	r1, r0
    4ee2:	e1a0      	b.n	0x5226
    4ee4:	e004      	b.n	0x4ef0
    4ee6:	e24e      	b.n	0x5386
    4ee8:	e12e      	b.n	0x5148
    4eea:	e1a0      	b.n	0x522e
    4eec:	610e      	str	r6, [r1, #16]
    4eee:	e08c      	b.n	0x500a
    4ef0:	3004      	adds	r0, #4
    4ef2:	e24c      	b.n	0x538e
    4ef4:	5004      	str	r4, [r0, r0]
    4ef6:	e494      	b.n	0x4822
    4ef8:	5004      	str	r4, [r0, r0]
    4efa:	e5a3      	b.n	0x4a44
    4efc:	0006      	movs	r6, r0
    4efe:	e153      	b.n	0x51a8
    4f00:	fffb 1aff 			; <UNDEFINED> instruction: 0xfffb1aff
    4f04:	e001      	b.n	0x4f0a
    4f06:	e28e      	b.n	0x5426
    4f08:	e10e      	b.n	0x5128
    4f0a:	e1a0      	b.n	0x524e
    4f0c:	c00e      	stmia	r0!, {r1, r2, r3}
    4f0e:	e08c      	b.n	0x502a
    4f10:	100e      	asrs	r6, r1, #32
    4f12:	e081      	b.n	0x5018
    4f14:	2003      	movs	r0, #3
    4f16:	e202      	b.n	0x531e
    4f18:	0000      	movs	r0, r0
    4f1a:	e352      	b.n	0x55c2
    4f1c:	2001      	movs	r0, #1
    4f1e:	e242      	b.n	0x53a6
    4f20:	2001      	movs	r0, #1
    4f22:	1282      	asrs	r2, r0, #10
    4f24:	3002      	adds	r0, #2
    4f26:	1081      	asrs	r1, r0, #2
    4f28:	2001      	movs	r0, #1
    4f2a:	124c      	asrs	r4, r1, #9
    4f2c:	0003      	movs	r3, r0
    4f2e:	0a00      	lsrs	r0, r0, #8
    4f30:	c001      	stmia	r0!, {r0}
    4f32:	e4d1      	b.n	0x48d8
    4f34:	0003      	movs	r3, r0
    4f36:	e151      	b.n	0x51dc
    4f38:	c001      	stmia	r0!, {r0}
    4f3a:	e5e2      	b.n	0x4b02
    4f3c:	fffb 1aff 			; <UNDEFINED> instruction: 0xfffb1aff
    4f40:	41f0      	rors	r0, r6
    4f42:	e8bd ff1e 	ldmia.w	sp!, {r1, r2, r3, r4, r8, r9, sl, fp, ip, sp, lr, pc}
    4f46:	e12f      	b.n	0x51a8
    4f48:	0000      	movs	r0, r0
    4f4a:	e352      	b.n	0x55f2
    4f4c:	c000      	stmia	r0!, {}
    4f4e:	e1a0      	b.n	0x5292
    4f50:	2001      	movs	r0, #1
    4f52:	e242      	b.n	0x53da
    4f54:	ff1e 012f 	vrhadd.u16	d0, d14, d31
    4f58:	2001      	movs	r0, #1
    4f5a:	e282      	b.n	0x5462
    4f5c:	3002      	adds	r0, #2
    4f5e:	e081      	b.n	0x5064
    4f60:	2001      	movs	r0, #1
    4f62:	e24c      	b.n	0x53fe
    4f64:	c001      	stmia	r0!, {r0}
    4f66:	e4d1      	b.n	0x490c
    4f68:	0003      	movs	r3, r0
    4f6a:	e151      	b.n	0x5210
    4f6c:	c001      	stmia	r0!, {r0}
    4f6e:	e5e2      	b.n	0x4b36
    4f70:	fffb 1aff 			; <UNDEFINED> instruction: 0xfffb1aff
    4f74:	ff1e e12f 	vrhadd.u16	d14, d14, d31
    4f78:	2001      	movs	r0, #1
    4f7a:	e242      	b.n	0x5402
    4f7c:	c000      	stmia	r0!, {}
    4f7e:	e1a0      	b.n	0x52c2
    4f80:	fff4 eaff 			; <UNDEFINED> instruction: 0xfff4eaff
    4f84:	001f      	movs	r7, r3
    4f86:	e351      	b.n	0x562c
    4f88:	4070      	eors	r0, r6
    4f8a:	e92d 3016 	stmdb	sp!, {r1, r2, r4, ip, sp}
    4f8e:	83a0      	strh	r0, [r4, #28]
    4f90:	5000      	str	r0, [r0, r0]
    4f92:	e1a0      	b.n	0x52d6
    4f94:	0000      	movs	r0, r0
    4f96:	83e0      	strh	r0, [r4, #30]
    4f98:	3000      	adds	r0, #0
    4f9a:	8585      	strh	r5, [r0, #44]	; 0x2c
    4f9c:	0014      	movs	r4, r2
    4f9e:	8a00      	ldrh	r0, [r0, #16]
    4fa0:	22dc      	movs	r2, #220	; 0xdc
    4fa2:	e595      	b.n	0x4ad0
    4fa4:	0000      	movs	r0, r0
    4fa6:	e352      	b.n	0x564e
    4fa8:	4001      	ands	r1, r0
    4faa:	e1a0      	b.n	0x52ee
    4fac:	0012      	movs	r2, r2
    4fae:	0a00      	lsrs	r0, r0, #8
    4fb0:	3101      	adds	r1, #1
    4fb2:	e792      	b.n	0x4eda
    4fb4:	0000      	movs	r0, r0
    4fb6:	e353      	b.n	0x5660
    4fb8:	000f      	movs	r7, r1
    4fba:	0a00      	lsrs	r0, r0, #8
    4fbc:	0001      	movs	r1, r0
    4fbe:	e353      	b.n	0x5668
    4fc0:	0000      	movs	r0, r0
    4fc2:	03a0      	lsls	r0, r4, #14
    4fc4:	000a      	movs	r2, r1
    4fc6:	0a00      	lsrs	r0, r0, #8
    4fc8:	0001      	movs	r1, r0
    4fca:	e373      	b.n	0x56b4
    4fcc:	3016      	adds	r0, #22
    4fce:	03a0      	lsls	r0, r4, #14
    4fd0:	0001      	movs	r1, r0
    4fd2:	03a0      	lsls	r0, r4, #14
    4fd4:	3000      	adds	r0, #0
    4fd6:	0585      	lsls	r5, r0, #22
    4fd8:	0005      	movs	r5, r0
    4fda:	0a00      	lsrs	r0, r0, #8
    4fdc:	5000      	str	r0, [r0, r0]
    4fde:	e3a0      	b.n	0x5722
    4fe0:	0001      	movs	r1, r0
    4fe2:	e1a0      	b.n	0x5326
    4fe4:	5101      	str	r1, [r0, r4]
    4fe6:	e782      	b.n	0x4eee
    4fe8:	e00f      	b.n	0x500a
    4fea:	e1a0      	b.n	0x532e
    4fec:	ff13 e12f 	vrhadd.u16	d14, d3, d31
    4ff0:	0005      	movs	r5, r0
    4ff2:	e1a0      	b.n	0x5336
    4ff4:	4070      	eors	r0, r6
    4ff6:	e8bd ff1e 	ldmia.w	sp!, {r1, r2, r3, r4, r8, r9, sl, fp, ip, sp, lr, pc}
    4ffa:	e12f      	b.n	0x525c
    4ffc:	0005      	movs	r5, r0
    4ffe:	e1a0      	b.n	0x5342
    5000:	000b      	movs	r3, r1
    5002:	eb00 2004 	add.w	r0, r0, r4, lsl #8
    5006:	e1a0      	b.n	0x534a
    5008:	1000      	asrs	r0, r0, #32
    500a:	e1a0      	b.n	0x534e
    500c:	0005      	movs	r5, r0
    500e:	e1a0      	b.n	0x5352
    5010:	000b      	movs	r3, r1
    5012:	eb00 4070 	add.w	r0, r0, r0, ror #17
    5016:	e8bd ff1e 	ldmia.w	sp!, {r1, r2, r3, r4, r8, r9, sl, fp, ip, sp, lr, pc}
    501a:	e12f      	b.n	0x527c
    501c:	4010      	ands	r0, r2
    501e:	e92d 4000 	stmdb	sp!, {lr}
    5022:	e1a0      	b.n	0x5366
    5024:	0014      	movs	r4, r2
    5026:	eb00 1004 	add.w	r0, r0, r4, lsl #4
    502a:	e1a0      	b.n	0x536e
    502c:	4010      	ands	r0, r2
    502e:	e8bd ffd3 	ldmia.w	sp!, {r0, r1, r4, r6, r7, r8, r9, sl, fp, ip, sp, lr, pc}
    5032:	eaff 3058 			; <UNDEFINED> instruction: 0xeaff3058
    5036:	e3a0      	b.n	0x577a
    5038:	3000      	adds	r0, #0
    503a:	e580      	b.n	0x4b3e
    503c:	0000      	movs	r0, r0
    503e:	e3e0      	b.n	0x5802
    5040:	ff1e e12f 	vrhadd.u16	d14, d14, d31
    5044:	3058      	adds	r0, #88	; 0x58
    5046:	e3a0      	b.n	0x578a
    5048:	3000      	adds	r0, #0
    504a:	e580      	b.n	0x4b4e
    504c:	0000      	movs	r0, r0
    504e:	e3e0      	b.n	0x5812
    5050:	ff1e e12f 	vrhadd.u16	d14, d14, d31
    5054:	301c      	adds	r0, #28
    5056:	e59f      	b.n	0x4b98
    5058:	3004      	adds	r0, #4
    505a:	e593      	b.n	0x4b84
    505c:	0000      	movs	r0, r0
    505e:	e353      	b.n	0x5708
    5060:	0003      	movs	r3, r0
    5062:	0a00      	lsrs	r0, r0, #8
    5064:	4010      	ands	r0, r2
    5066:	e92d e00f 	stmdb	sp!, {r0, r1, r2, r3, sp, lr, pc}
    506a:	e1a0      	b.n	0x53ae
    506c:	ff13 e12f 	vrhadd.u16	d14, d3, d31
    5070:	fffe eaff 			; <UNDEFINED> instruction: 0xfffeeaff
    5074:	fffe eaff 			; <UNDEFINED> instruction: 0xfffeeaff
    5078:	010c      	lsls	r4, r1, #4
    507a:	0300      	lsls	r0, r0, #12
    507c:	3014      	adds	r0, #20
    507e:	e59f      	b.n	0x4bc0
    5080:	3034      	adds	r0, #52	; 0x34
    5082:	e593      	b.n	0x4bac
    5084:	0000      	movs	r0, r0
    5086:	e353      	b.n	0x5730
    5088:	ff13 112f 	vrhadd.u16	d1, d3, d31
    508c:	3008      	adds	r0, #8
    508e:	e59f      	b.n	0x4bd0
    5090:	0000      	movs	r0, r0
    5092:	e593      	b.n	0x4bbc
    5094:	ff1e e12f 	vrhadd.u16	d14, d14, d31
    5098:	010c      	lsls	r4, r1, #4
    509a:	0300      	lsls	r0, r0, #12
    509c:	03f4      	lsls	r4, r6, #15
    509e:	0300      	lsls	r0, r0, #12
    50a0:	4778      	bx	pc
    50a2:	46c0      	nop			; (mov r8, r8)
    50a4:	f77c eaff 			; <UNDEFINED> instruction: 0xf77ceaff
    50a8:	4778      	bx	pc
    50aa:	46c0      	nop			; (mov r8, r8)
    50ac:	f730 eaff 			; <UNDEFINED> instruction: 0xf730eaff
    50b0:	4778      	bx	pc
    50b2:	46c0      	nop			; (mov r8, r8)
    50b4:	f781 eaff 			; <UNDEFINED> instruction: 0xf781eaff
    50b8:	4778      	bx	pc
    50ba:	46c0      	nop			; (mov r8, r8)
    50bc:	f724 eaff 			; <UNDEFINED> instruction: 0xf724eaff
    50c0:	4778      	bx	pc
    50c2:	46c0      	nop			; (mov r8, r8)
    50c4:	f6e5 eaff 			; <UNDEFINED> instruction: 0xf6e5eaff
    50c8:	c00d      	stmia	r0!, {r0, r2, r3}
    50ca:	e1a0      	b.n	0x540e
    50cc:	dff8      	svc	248	; 0xf8
    50ce:	e92d b004 	stmdb	sp!, {r2, ip, sp, pc}
    50d2:	e24c      	b.n	0x556e
    50d4:	d028      	beq.n	0x5128
    50d6:	e24b      	b.n	0x5570
    50d8:	6ff0      	ldr	r0, [r6, #124]	; 0x7c
    50da:	e89d ff1e 	ldmia.w	sp, {r1, r2, r3, r4, r8, r9, sl, fp, ip, sp, lr, pc}
    50de:	e12f      	b.n	0x5340
    50e0:	0f78      	lsrs	r0, r7, #29
    50e2:	0800      	lsrs	r0, r0, #32
    50e4:	0f86      	lsrs	r6, r0, #30
    50e6:	0800      	lsrs	r0, r0, #32
    50e8:	0f6a      	lsrs	r2, r5, #29
    50ea:	0800      	lsrs	r0, r0, #32
    50ec:	0fa2      	lsrs	r2, r4, #30
    50ee:	0800      	lsrs	r0, r0, #32
    50f0:	0f04      	lsrs	r4, r0, #28
    50f2:	0800      	lsrs	r0, r0, #32
    50f4:	0f04      	lsrs	r4, r0, #28
    50f6:	0800      	lsrs	r0, r0, #32
    50f8:	0f04      	lsrs	r4, r0, #28
    50fa:	0800      	lsrs	r0, r0, #32
    50fc:	0f04      	lsrs	r4, r0, #28
    50fe:	0800      	lsrs	r0, r0, #32
    5100:	0f04      	lsrs	r4, r0, #28
    5102:	0800      	lsrs	r0, r0, #32
    5104:	0f04      	lsrs	r4, r0, #28
    5106:	0800      	lsrs	r0, r0, #32
    5108:	0f04      	lsrs	r4, r0, #28
    510a:	0800      	lsrs	r0, r0, #32
    510c:	0f04      	lsrs	r4, r0, #28
    510e:	0800      	lsrs	r0, r0, #32
    5110:	0f04      	lsrs	r4, r0, #28
    5112:	0800      	lsrs	r0, r0, #32
    5114:	0f04      	lsrs	r4, r0, #28
    5116:	0800      	lsrs	r0, r0, #32
    5118:	0f04      	lsrs	r4, r0, #28
    511a:	0800      	lsrs	r0, r0, #32
    511c:	0f04      	lsrs	r4, r0, #28
    511e:	0800      	lsrs	r0, r0, #32
    5120:	0f04      	lsrs	r4, r0, #28
    5122:	0800      	lsrs	r0, r0, #32
    5124:	0f94      	lsrs	r4, r2, #30
    5126:	0800      	lsrs	r0, r0, #32
    5128:	0f04      	lsrs	r4, r0, #28
    512a:	0800      	lsrs	r0, r0, #32
    512c:	0fb0      	lsrs	r0, r6, #30
    512e:	0800      	lsrs	r0, r0, #32
    5130:	0f04      	lsrs	r4, r0, #28
    5132:	0800      	lsrs	r0, r0, #32
    5134:	0f04      	lsrs	r4, r0, #28
    5136:	0800      	lsrs	r0, r0, #32
    5138:	0f04      	lsrs	r4, r0, #28
    513a:	0800      	lsrs	r0, r0, #32
    513c:	0f04      	lsrs	r4, r0, #28
    513e:	0800      	lsrs	r0, r0, #32
    5140:	0f04      	lsrs	r4, r0, #28
    5142:	0800      	lsrs	r0, r0, #32
    5144:	0f04      	lsrs	r4, r0, #28
    5146:	0800      	lsrs	r0, r0, #32
    5148:	0f04      	lsrs	r4, r0, #28
    514a:	0800      	lsrs	r0, r0, #32
    514c:	0f04      	lsrs	r4, r0, #28
    514e:	0800      	lsrs	r0, r0, #32
    5150:	0f04      	lsrs	r4, r0, #28
    5152:	0800      	lsrs	r0, r0, #32
    5154:	0f04      	lsrs	r4, r0, #28
    5156:	0800      	lsrs	r0, r0, #32
    5158:	0f04      	lsrs	r4, r0, #28
    515a:	0800      	lsrs	r0, r0, #32
    515c:	0f04      	lsrs	r4, r0, #28
    515e:	0800      	lsrs	r0, r0, #32
    5160:	0f04      	lsrs	r4, r0, #28
    5162:	0800      	lsrs	r0, r0, #32
    5164:	0f04      	lsrs	r4, r0, #28
    5166:	0800      	lsrs	r0, r0, #32
    5168:	0f04      	lsrs	r4, r0, #28
    516a:	0800      	lsrs	r0, r0, #32
    516c:	0f04      	lsrs	r4, r0, #28
    516e:	0800      	lsrs	r0, r0, #32
    5170:	0f04      	lsrs	r4, r0, #28
    5172:	0800      	lsrs	r0, r0, #32
    5174:	0f04      	lsrs	r4, r0, #28
    5176:	0800      	lsrs	r0, r0, #32
    5178:	0f04      	lsrs	r4, r0, #28
    517a:	0800      	lsrs	r0, r0, #32
    517c:	0f04      	lsrs	r4, r0, #28
    517e:	0800      	lsrs	r0, r0, #32
    5180:	0f04      	lsrs	r4, r0, #28
    5182:	0800      	lsrs	r0, r0, #32
    5184:	0f04      	lsrs	r4, r0, #28
    5186:	0800      	lsrs	r0, r0, #32
    5188:	0f04      	lsrs	r4, r0, #28
    518a:	0800      	lsrs	r0, r0, #32
    518c:	0f04      	lsrs	r4, r0, #28
    518e:	0800      	lsrs	r0, r0, #32
    5190:	0f04      	lsrs	r4, r0, #28
    5192:	0800      	lsrs	r0, r0, #32
    5194:	0f04      	lsrs	r4, r0, #28
    5196:	0800      	lsrs	r0, r0, #32
    5198:	0f04      	lsrs	r4, r0, #28
    519a:	0800      	lsrs	r0, r0, #32
    519c:	0f04      	lsrs	r4, r0, #28
    519e:	0800      	lsrs	r0, r0, #32
    51a0:	0f48      	lsrs	r0, r1, #29
    51a2:	0800      	lsrs	r0, r0, #32
    51a4:	0f04      	lsrs	r4, r0, #28
    51a6:	0800      	lsrs	r0, r0, #32
    51a8:	0ede      	lsrs	r6, r3, #27
    51aa:	0800      	lsrs	r0, r0, #32
    51ac:	104e      	asrs	r6, r1, #1
    51ae:	0800      	lsrs	r0, r0, #32
    51b0:	10ec      	asrs	r4, r5, #3
    51b2:	0800      	lsrs	r0, r0, #32
    51b4:	10e8      	asrs	r0, r5, #3
    51b6:	0800      	lsrs	r0, r0, #32
    51b8:	10d8      	asrs	r0, r3, #3
    51ba:	0800      	lsrs	r0, r0, #32
    51bc:	10c6      	asrs	r6, r0, #3
    51be:	0800      	lsrs	r0, r0, #32
    51c0:	10a4      	asrs	r4, r4, #2
    51c2:	0800      	lsrs	r0, r0, #32
    51c4:	107c      	asrs	r4, r7, #1
    51c6:	0800      	lsrs	r0, r0, #32
    51c8:	106c      	asrs	r4, r5, #1
    51ca:	0800      	lsrs	r0, r0, #32
    51cc:	1034      	asrs	r4, r6, #32
    51ce:	0800      	lsrs	r0, r0, #32
    51d0:	0007      	movs	r7, r0
    51d2:	0000      	movs	r0, r0
    51d4:	000c      	movs	r4, r1
    51d6:	0000      	movs	r0, r0
    51d8:	0011      	movs	r1, r2
    51da:	0000      	movs	r0, r0
    51dc:	0016      	movs	r6, r2
    51de:	0000      	movs	r0, r0
    51e0:	0007      	movs	r7, r0
    51e2:	0000      	movs	r0, r0
    51e4:	000c      	movs	r4, r1
    51e6:	0000      	movs	r0, r0
    51e8:	0011      	movs	r1, r2
    51ea:	0000      	movs	r0, r0
    51ec:	0016      	movs	r6, r2
    51ee:	0000      	movs	r0, r0
    51f0:	0007      	movs	r7, r0
    51f2:	0000      	movs	r0, r0
    51f4:	000c      	movs	r4, r1
    51f6:	0000      	movs	r0, r0
    51f8:	0011      	movs	r1, r2
    51fa:	0000      	movs	r0, r0
    51fc:	0016      	movs	r6, r2
    51fe:	0000      	movs	r0, r0
    5200:	0007      	movs	r7, r0
    5202:	0000      	movs	r0, r0
    5204:	000c      	movs	r4, r1
    5206:	0000      	movs	r0, r0
    5208:	0011      	movs	r1, r2
    520a:	0000      	movs	r0, r0
    520c:	0016      	movs	r6, r2
    520e:	0000      	movs	r0, r0
    5210:	0005      	movs	r5, r0
    5212:	0000      	movs	r0, r0
    5214:	0009      	movs	r1, r1
    5216:	0000      	movs	r0, r0
    5218:	000e      	movs	r6, r1
    521a:	0000      	movs	r0, r0
    521c:	0014      	movs	r4, r2
    521e:	0000      	movs	r0, r0
    5220:	0005      	movs	r5, r0
    5222:	0000      	movs	r0, r0
    5224:	0009      	movs	r1, r1
    5226:	0000      	movs	r0, r0
    5228:	000e      	movs	r6, r1
    522a:	0000      	movs	r0, r0
    522c:	0014      	movs	r4, r2
    522e:	0000      	movs	r0, r0
    5230:	0005      	movs	r5, r0
    5232:	0000      	movs	r0, r0
    5234:	0009      	movs	r1, r1
    5236:	0000      	movs	r0, r0
    5238:	000e      	movs	r6, r1
    523a:	0000      	movs	r0, r0
    523c:	0014      	movs	r4, r2
    523e:	0000      	movs	r0, r0
    5240:	0005      	movs	r5, r0
    5242:	0000      	movs	r0, r0
    5244:	0009      	movs	r1, r1
    5246:	0000      	movs	r0, r0
    5248:	000e      	movs	r6, r1
    524a:	0000      	movs	r0, r0
    524c:	0014      	movs	r4, r2
    524e:	0000      	movs	r0, r0
    5250:	0004      	movs	r4, r0
    5252:	0000      	movs	r0, r0
    5254:	000b      	movs	r3, r1
    5256:	0000      	movs	r0, r0
    5258:	0010      	movs	r0, r2
    525a:	0000      	movs	r0, r0
    525c:	0017      	movs	r7, r2
    525e:	0000      	movs	r0, r0
    5260:	0004      	movs	r4, r0
    5262:	0000      	movs	r0, r0
    5264:	000b      	movs	r3, r1
    5266:	0000      	movs	r0, r0
    5268:	0010      	movs	r0, r2
    526a:	0000      	movs	r0, r0
    526c:	0017      	movs	r7, r2
    526e:	0000      	movs	r0, r0
    5270:	0004      	movs	r4, r0
    5272:	0000      	movs	r0, r0
    5274:	000b      	movs	r3, r1
    5276:	0000      	movs	r0, r0
    5278:	0010      	movs	r0, r2
    527a:	0000      	movs	r0, r0
    527c:	0017      	movs	r7, r2
    527e:	0000      	movs	r0, r0
    5280:	0004      	movs	r4, r0
    5282:	0000      	movs	r0, r0
    5284:	000b      	movs	r3, r1
    5286:	0000      	movs	r0, r0
    5288:	0010      	movs	r0, r2
    528a:	0000      	movs	r0, r0
    528c:	0017      	movs	r7, r2
    528e:	0000      	movs	r0, r0
    5290:	0006      	movs	r6, r0
    5292:	0000      	movs	r0, r0
    5294:	000a      	movs	r2, r1
    5296:	0000      	movs	r0, r0
    5298:	000f      	movs	r7, r1
    529a:	0000      	movs	r0, r0
    529c:	0015      	movs	r5, r2
    529e:	0000      	movs	r0, r0
    52a0:	0006      	movs	r6, r0
    52a2:	0000      	movs	r0, r0
    52a4:	000a      	movs	r2, r1
    52a6:	0000      	movs	r0, r0
    52a8:	000f      	movs	r7, r1
    52aa:	0000      	movs	r0, r0
    52ac:	0015      	movs	r5, r2
    52ae:	0000      	movs	r0, r0
    52b0:	0006      	movs	r6, r0
    52b2:	0000      	movs	r0, r0
    52b4:	000a      	movs	r2, r1
    52b6:	0000      	movs	r0, r0
    52b8:	000f      	movs	r7, r1
    52ba:	0000      	movs	r0, r0
    52bc:	0015      	movs	r5, r2
    52be:	0000      	movs	r0, r0
    52c0:	0006      	movs	r6, r0
    52c2:	0000      	movs	r0, r0
    52c4:	000a      	movs	r2, r1
    52c6:	0000      	movs	r0, r0
    52c8:	000f      	movs	r7, r1
    52ca:	0000      	movs	r0, r0
    52cc:	0015      	movs	r5, r2
    52ce:	0000      	movs	r0, r0
    52d0:	a478      	add	r4, pc, #480	; (adr r4, 0x54b4)
    52d2:	d76a      	bvc.n	0x53aa
    52d4:	b756      			; <UNDEFINED> instruction: 0xb756
    52d6:	e8c7 70db 			; <UNDEFINED> instruction: 0xe8c770db
    52da:	2420      	movs	r4, #32
    52dc:	ceee      	ldmia	r6, {r1, r2, r3, r5, r6, r7}
    52de:	c1bd      	stmia	r1!, {r0, r2, r3, r4, r5, r7}
    52e0:	0faf      	lsrs	r7, r5, #30
    52e2:	f57c c62a 	blx	0xff181f38
    52e6:	4787      			; <UNDEFINED> instruction: 0x4787
    52e8:	4613      	mov	r3, r2
    52ea:	a830      	add	r0, sp, #192	; 0xc0
    52ec:	9501      	str	r5, [sp, #4]
    52ee:	fd46 98d8 			; <UNDEFINED> instruction: 0xfd4698d8
    52f2:	6980      	ldr	r0, [r0, #24]
    52f4:	f7af 8b44 	undefined (bcc, cond=0xE)
    52f8:	5bb1      	ldrh	r1, [r6, r6]
    52fa:	ffff d7be 	vqshl.u64	d29, d30, #63	; 0x3f
    52fe:	895c      	ldrh	r4, [r3, #10]
    5300:	1122      	asrs	r2, r4, #4
    5302:	6b90      	ldr	r0, [r2, #56]	; 0x38
    5304:	7193      	strb	r3, [r2, #6]
    5306:	fd98 438e 			; <UNDEFINED> instruction: 0xfd98438e
    530a:	a679      	add	r6, pc, #484	; (adr r6, 0x54f0)
    530c:	0821      	lsrs	r1, r4, #32
    530e:	49b4      	ldr	r1, [pc, #720]	; (0x55e0)
    5310:	2562      	movs	r5, #98	; 0x62
    5312:	f61e b340 	b.w	0xffa23996
    5316:	c040      	stmia	r0!, {r6}
    5318:	5a51      	ldrh	r1, [r2, r1]
    531a:	265e      	movs	r6, #94	; 0x5e
    531c:	c7aa      	stmia	r7!, {r1, r3, r5, r7}
    531e:	e9b6 105d 			; <UNDEFINED> instruction: 0xe9b6105d
    5322:	d62f      	bvs.n	0x5384
    5324:	1453      	asrs	r3, r2, #17
    5326:	0244      	lsls	r4, r0, #9
    5328:	e681      	b.n	0x502e
    532a:	d8a1      	bhi.n	0x5270
    532c:	fbc8 e7d3 	smlaldx	lr, r7, r8, r3
    5330:	cde6      	ldmia	r5, {r1, r2, r5, r6, r7}
    5332:	21e1      	movs	r1, #225	; 0xe1
    5334:	07d6      	lsls	r6, r2, #31
    5336:	c337      	stmia	r3!, {r0, r1, r2, r4, r5}
    5338:	0d87      	lsrs	r7, r0, #22
    533a:	f4d5 14ed 			; <UNDEFINED> instruction: 0xf4d514ed
    533e:	455a      	cmp	r2, fp
    5340:	e905 a9e3 	stmdb	r5, {r0, r1, r5, r6, r7, r8, fp, sp, pc}
    5344:	a3f8      	add	r3, pc, #992	; (adr r3, 0x5728)
    5346:	fcef 02d9 			; <UNDEFINED> instruction: 0xfcef02d9
    534a:	676f      	str	r7, [r5, #116]	; 0x74
    534c:	4c8a      	ldr	r4, [pc, #552]	; (0x5578)
    534e:	8d2a      	ldrh	r2, [r5, #40]	; 0x28
    5350:	3942      	subs	r1, #66	; 0x42
    5352:	fffa f681 	vrintm.f32	d31, d1
    5356:	8771      	strh	r1, [r6, #58]	; 0x3a
    5358:	6122      	str	r2, [r4, #16]
    535a:	6d9d      	ldr	r5, [r3, #88]	; 0x58
    535c:	380c      	subs	r0, #12
    535e:	fde5 ea44 			; <UNDEFINED> instruction: 0xfde5ea44
    5362:	a4be      	add	r4, pc, #760	; (adr r4, 0x565c)
    5364:	cfa9      	ldmia	r7, {r0, r3, r5, r7}
    5366:	4bde      	ldr	r3, [pc, #888]	; (0x56e0)
    5368:	4b60      	ldr	r3, [pc, #384]	; (0x54ec)
    536a:	f6bb bc70 	b.w	0xffec0c4e
    536e:	bebf      	bkpt	0x00bf
    5370:	7ec6      	ldrb	r6, [r0, #27]
    5372:	289b      	cmp	r0, #155	; 0x9b
    5374:	27fa      	movs	r7, #250	; 0xfa
    5376:	eaa1 3085 			; <UNDEFINED> instruction: 0xeaa13085
    537a:	d4ef      	bmi.n	0x535c
    537c:	1d05      	adds	r5, r0, #4
    537e:	0488      	lsls	r0, r1, #18
    5380:	d039      	beq.n	0x53f6
    5382:	d9d4      	bls.n	0x532e
    5384:	99e5      	ldr	r1, [sp, #916]	; 0x394
    5386:	e6db      	b.n	0x5140
    5388:	7cf8      	ldrb	r0, [r7, #19]
    538a:	1fa2      	subs	r2, r4, #6
    538c:	5665      	ldrsb	r5, [r4, r1]
    538e:	c4ac      	stmia	r4!, {r2, r3, r5, r7}
    5390:	2244      	movs	r2, #68	; 0x44
    5392:	f429 ff97 	bl	0xffc2f2c4
    5396:	432a      	orrs	r2, r5
    5398:	23a7      	movs	r3, #167	; 0xa7
    539a:	ab94      	add	r3, sp, #592	; 0x250
    539c:	a039      	add	r0, pc, #228	; (adr r0, 0x5484)
    539e:	fc93 59c3 			; <UNDEFINED> instruction: 0xfc9359c3
    53a2:	655b      	str	r3, [r3, #84]	; 0x54
    53a4:	cc92      	ldmia	r4, {r1, r4, r7}
    53a6:	8f0c      	ldrh	r4, [r1, #56]	; 0x38
    53a8:	f47d ffef 	bl	0xffc8338a
    53ac:	5dd1      	ldrb	r1, [r2, r7]
    53ae:	8584      	strh	r4, [r0, #44]	; 0x2c
    53b0:	7e4f      	ldrb	r7, [r1, #25]
    53b2:	6fa8      	ldr	r0, [r5, #120]	; 0x78
    53b4:	e6e0      	b.n	0x5178
    53b6:	fe2c 4314 			; <UNDEFINED> instruction: 0xfe2c4314
    53ba:	a301      	add	r3, pc, #4	; (adr r3, 0x53c0)
    53bc:	11a1      	asrs	r1, r4, #6
    53be:	4e08      	ldr	r6, [pc, #32]	; (0x53e0)
    53c0:	7e82      	ldrb	r2, [r0, #26]
    53c2:	f753 f235 	bl	0xffb58830
    53c6:	bd3a      	pop	{r1, r3, r4, r5, pc}
    53c8:	d2bb      	bcs.n	0x5342
    53ca:	2ad7      	cmp	r2, #215	; 0xd7
    53cc:	d391      	bcc.n	0x52f2
    53ce:	eb86 0003 			; <UNDEFINED> instruction: 0xeb860003
    53d2:	0000      	movs	r0, r0
    53d4:	1004      	asrs	r4, r0, #32
    53d6:	0004      	movs	r4, r0
    53d8:	0004      	movs	r4, r0
    53da:	0000      	movs	r0, r0
    53dc:	0000      	movs	r0, r0
    53de:	0000      	movs	r0, r0
    53e0:	ffff ffff 			; <UNDEFINED> instruction: 0xffffffff
    53e4:	ffff ffff 			; <UNDEFINED> instruction: 0xffffffff
    53e8:	0000      	movs	r0, r0
    53ea:	0000      	movs	r0, r0
    53ec:	0001      	movs	r1, r0
    53ee:	0000      	movs	r0, r0
    53f0:	0005      	movs	r5, r0
    53f2:	0000      	movs	r0, r0
    53f4:	0000      	movs	r0, r0
    53f6:	0000      	movs	r0, r0
    53f8:	0004      	movs	r4, r0
    53fa:	0000      	movs	r0, r0
    53fc:	0000      	movs	r0, r0
    53fe:	0000      	movs	r0, r0
    5400:	0001      	movs	r1, r0
    5402:	0000      	movs	r0, r0
    5404:	0000      	movs	r0, r0
    5406:	0000      	movs	r0, r0
    5408:	0002      	movs	r2, r0
    540a:	0000      	movs	r0, r0
    540c:	0000      	movs	r0, r0
    540e:	0000      	movs	r0, r0
    5410:	0001      	movs	r1, r0
    5412:	0000      	movs	r0, r0
    5414:	0000      	movs	r0, r0
    5416:	0000      	movs	r0, r0
    5418:	0003      	movs	r3, r0
    541a:	0000      	movs	r0, r0
    541c:	0000      	movs	r0, r0
    541e:	0000      	movs	r0, r0
    5420:	0001      	movs	r1, r0
    5422:	0000      	movs	r0, r0
    5424:	0000      	movs	r0, r0
    5426:	0000      	movs	r0, r0
    5428:	0002      	movs	r2, r0
    542a:	0000      	movs	r0, r0
    542c:	0000      	movs	r0, r0
    542e:	0000      	movs	r0, r0
    5430:	0001      	movs	r1, r0
    5432:	0000      	movs	r0, r0
    5434:	0000      	movs	r0, r0
    5436:	0000      	movs	r0, r0
    5438:	002a      	movs	r2, r5
    543a:	0000      	movs	r0, r0
    543c:	0058      	lsls	r0, r3, #1
    543e:	0000      	movs	r0, r0
    5440:	4150      	adcs	r0, r2
    5442:	5353      	strh	r3, [r2, r5]
    5444:	0000      	movs	r0, r0
    5446:	0000      	movs	r0, r0
    5448:	4146      	adcs	r6, r0
    544a:	4c49      	ldr	r4, [pc, #292]	; (0x5570)
    544c:	0000      	movs	r0, r0
    544e:	0000      	movs	r0, r0
    5450:	255b      	movs	r5, #91	; 0x5b
    5452:	5d73      	ldrb	r3, [r6, r5]
    5454:	2520      	movs	r5, #32
    5456:	3a73      	subs	r2, #115	; 0x73
    5458:	0020      	movs	r0, r4
    545a:	0000      	movs	r0, r0
    545c:	6928      	ldr	r0, [r5, #16]
    545e:	736e      	strb	r6, [r5, #13]
    5460:	6675      	str	r5, [r6, #100]	; 0x64
    5462:	6966      	ldr	r6, [r4, #20]
    5464:	6963      	ldr	r3, [r4, #20]
    5466:	6e65      	ldr	r5, [r4, #100]	; 0x64
    5468:	2074      	movs	r0, #116	; 0x74
    546a:	656d      	str	r5, [r5, #84]	; 0x54
    546c:	6f6d      	ldr	r5, [r5, #116]	; 0x74
    546e:	7972      	ldrb	r2, [r6, #5]
    5470:	0029      	movs	r1, r5
    5472:	0000      	movs	r0, r0
    5474:	6749      	str	r1, [r1, #116]	; 0x74
    5476:	6f6e      	ldr	r6, [r5, #116]	; 0x74
    5478:	6572      	str	r2, [r6, #84]	; 0x54
    547a:	2064      	movs	r0, #100	; 0x64
    547c:	7325      	strb	r5, [r4, #12]
    547e:	000a      	movs	r2, r1
    5480:	5020      	str	r0, [r4, r0]
    5482:	7361      	strb	r1, [r4, #13]
    5484:	6573      	str	r3, [r6, #84]	; 0x54
    5486:	2e64      	cmp	r6, #100	; 0x64
    5488:	0000      	movs	r0, r0
    548a:	0000      	movs	r0, r0
    548c:	4620      	mov	r0, r4
    548e:	6961      	ldr	r1, [r4, #20]
    5490:	656c      	str	r4, [r5, #84]	; 0x54
    5492:	2e64      	cmp	r6, #100	; 0x64
    5494:	0000      	movs	r0, r0
    5496:	0000      	movs	r0, r0
    5498:	2020      	movs	r0, #32
    549a:	696d      	ldr	r5, [r5, #20]
    549c:	206e      	movs	r0, #110	; 0x6e
    549e:	6974      	ldr	r4, [r6, #20]
    54a0:	656d      	str	r5, [r5, #84]	; 0x54
    54a2:	203a      	movs	r0, #58	; 0x3a
    54a4:	6425      	str	r5, [r4, #64]	; 0x40
    54a6:	6d20      	ldr	r0, [r4, #80]	; 0x50
    54a8:	2073      	movs	r0, #115	; 0x73
    54aa:	255b      	movs	r5, #91	; 0x5b
    54ac:	5d64      	ldrb	r4, [r4, r5]
    54ae:	000a      	movs	r2, r1
    54b0:	3d3d      	subs	r5, #61	; 0x3d
    54b2:	3d3d      	subs	r5, #61	; 0x3d
    54b4:	3d3d      	subs	r5, #61	; 0x3d
    54b6:	3d3d      	subs	r5, #61	; 0x3d
    54b8:	3d3d      	subs	r5, #61	; 0x3d
    54ba:	3d3d      	subs	r5, #61	; 0x3d
    54bc:	3d3d      	subs	r5, #61	; 0x3d
    54be:	3d3d      	subs	r5, #61	; 0x3d
    54c0:	3d3d      	subs	r5, #61	; 0x3d
    54c2:	3d3d      	subs	r5, #61	; 0x3d
    54c4:	3d3d      	subs	r5, #61	; 0x3d
    54c6:	3d3d      	subs	r5, #61	; 0x3d
    54c8:	3d3d      	subs	r5, #61	; 0x3d
    54ca:	3d3d      	subs	r5, #61	; 0x3d
    54cc:	3d3d      	subs	r5, #61	; 0x3d
    54ce:	3d3d      	subs	r5, #61	; 0x3d
    54d0:	3d3d      	subs	r5, #61	; 0x3d
    54d2:	3d3d      	subs	r5, #61	; 0x3d
    54d4:	3d3d      	subs	r5, #61	; 0x3d
    54d6:	3d3d      	subs	r5, #61	; 0x3d
    54d8:	3d3d      	subs	r5, #61	; 0x3d
    54da:	3d3d      	subs	r5, #61	; 0x3d
    54dc:	3d3d      	subs	r5, #61	; 0x3d
    54de:	3d3d      	subs	r5, #61	; 0x3d
    54e0:	3d3d      	subs	r5, #61	; 0x3d
    54e2:	000a      	movs	r2, r1
    54e4:	694d      	ldr	r5, [r1, #20]
    54e6:	7263      	strb	r3, [r4, #9]
    54e8:	426f      	negs	r7, r5
    54ea:	6e65      	ldr	r5, [r4, #100]	; 0x64
    54ec:	6863      	ldr	r3, [r4, #4]
    54ee:	2520      	movs	r5, #32
    54f0:	0073      	lsls	r3, r6, #1
    54f2:	0000      	movs	r0, r0
    54f4:	2020      	movs	r0, #32
    54f6:	2020      	movs	r0, #32
    54f8:	2020      	movs	r0, #32
    54fa:	2020      	movs	r0, #32
    54fc:	6425      	str	r5, [r4, #64]	; 0x40
    54fe:	4d20      	ldr	r5, [pc, #128]	; (0x5580)
    5500:	7261      	strb	r1, [r4, #9]
    5502:	736b      	strb	r3, [r5, #13]
    5504:	000a      	movs	r2, r1
    5506:	0000      	movs	r0, r0
    5508:	3769      	adds	r7, #105	; 0x69
    550a:	362d      	adds	r6, #45	; 0x2d
    550c:	3037      	adds	r0, #55	; 0x37
    550e:	2030      	movs	r0, #48	; 0x30
    5510:	2040      	movs	r0, #64	; 0x40
    5512:	2e33      	cmp	r6, #51	; 0x33
    5514:	3034      	adds	r0, #52	; 0x34
    5516:	4847      	ldr	r0, [pc, #284]	; (0x5634)
    5518:	007a      	lsls	r2, r7, #1
    551a:	0000      	movs	r0, r0
    551c:	2020      	movs	r0, #32
    551e:	2020      	movs	r0, #32
    5520:	2020      	movs	r0, #32
    5522:	2020      	movs	r0, #32
    5524:	2020      	movs	r0, #32
    5526:	2020      	movs	r0, #32
    5528:	2020      	movs	r0, #32
    552a:	2020      	movs	r0, #32
    552c:	2020      	movs	r0, #32
    552e:	7620      	strb	r0, [r4, #24]
    5530:	2e73      	cmp	r6, #115	; 0x73
    5532:	2520      	movs	r5, #32
    5534:	2064      	movs	r0, #100	; 0x64
    5536:	614d      	str	r5, [r1, #20]
    5538:	6b72      	ldr	r2, [r6, #52]	; 0x34
    553a:	2073      	movs	r0, #115	; 0x73
    553c:	2528      	movs	r5, #40	; 0x28
    553e:	2973      	cmp	r1, #115	; 0x73
    5540:	000a      	movs	r2, r1
    5542:	0000      	movs	r0, r0
    5544:	7371      	strb	r1, [r6, #13]
    5546:	726f      	strb	r7, [r5, #9]
    5548:	0074      	lsls	r4, r6, #1
    554a:	0000      	movs	r0, r0
    554c:	7551      	strb	r1, [r2, #21]
    554e:	6369      	str	r1, [r5, #52]	; 0x34
    5550:	206b      	movs	r0, #107	; 0x6b
    5552:	6f73      	ldr	r3, [r6, #116]	; 0x74
    5554:	7472      	strb	r2, [r6, #17]
    5556:	0000      	movs	r0, r0
    5558:	7571      	strb	r1, [r6, #21]
    555a:	6565      	str	r5, [r4, #84]	; 0x54
    555c:	006e      	lsls	r6, r5, #1
    555e:	0000      	movs	r0, r0
    5560:	7551      	strb	r1, [r2, #21]
    5562:	6565      	str	r5, [r4, #84]	; 0x54
    5564:	206e      	movs	r0, #110	; 0x6e
    5566:	6c70      	ldr	r0, [r6, #68]	; 0x44
    5568:	6361      	str	r1, [r4, #52]	; 0x34
    556a:	6d65      	ldr	r5, [r4, #84]	; 0x54
    556c:	6e65      	ldr	r5, [r4, #100]	; 0x64
    556e:	0074      	lsls	r4, r6, #1
    5570:	6662      	str	r2, [r4, #100]	; 0x64
    5572:	0000      	movs	r0, r0
    5574:	7242      	strb	r2, [r0, #9]
    5576:	6961      	ldr	r1, [r4, #20]
    5578:	666e      	str	r6, [r5, #100]	; 0x64
    557a:	2a2a      	cmp	r2, #42	; 0x2a
    557c:	206b      	movs	r0, #107	; 0x6b
    557e:	6e69      	ldr	r1, [r5, #100]	; 0x64
    5580:	6574      	str	r4, [r6, #84]	; 0x54
    5582:	7072      	strb	r2, [r6, #1]
    5584:	6572      	str	r2, [r6, #84]	; 0x54
    5586:	6574      	str	r4, [r6, #84]	; 0x54
    5588:	0072      	lsls	r2, r6, #1
    558a:	0000      	movs	r0, r0
    558c:	6966      	ldr	r6, [r4, #20]
    558e:	0062      	lsls	r2, r4, #1
    5590:	6946      	ldr	r6, [r0, #20]
    5592:	6f62      	ldr	r2, [r4, #116]	; 0x74
    5594:	616e      	str	r6, [r5, #20]
    5596:	6363      	str	r3, [r4, #52]	; 0x34
    5598:	2069      	movs	r0, #105	; 0x69
    559a:	756e      	strb	r6, [r5, #21]
    559c:	626d      	str	r5, [r5, #36]	; 0x24
    559e:	7265      	strb	r5, [r4, #9]
    55a0:	0000      	movs	r0, r0
    55a2:	0000      	movs	r0, r0
    55a4:	6973      	ldr	r3, [r6, #20]
    55a6:	7665      	strb	r5, [r4, #25]
    55a8:	0065      	lsls	r5, r4, #1
    55aa:	0000      	movs	r0, r0
    55ac:	7245      	strb	r5, [r0, #9]
    55ae:	7461      	strb	r1, [r4, #17]
    55b0:	736f      	strb	r7, [r5, #13]
    55b2:	6874      	ldr	r4, [r6, #4]
    55b4:	6e65      	ldr	r5, [r4, #100]	; 0x64
    55b6:	7365      	strb	r5, [r4, #13]
    55b8:	7320      	strb	r0, [r4, #12]
    55ba:	6569      	str	r1, [r5, #84]	; 0x54
    55bc:	6576      	str	r6, [r6, #84]	; 0x54
    55be:	0000      	movs	r0, r0
    55c0:	3531      	adds	r5, #49	; 0x31
    55c2:	7a70      	ldrb	r0, [r6, #9]
    55c4:	0000      	movs	r0, r0
    55c6:	0000      	movs	r0, r0
    55c8:	2a41      	cmp	r2, #65	; 0x41
    55ca:	3120      	adds	r1, #32
    55cc:	2d35      	cmp	r5, #53	; 0x35
    55ce:	7570      	strb	r0, [r6, #21]
    55d0:	7a7a      	ldrb	r2, [r7, #9]
    55d2:	656c      	str	r4, [r5, #84]	; 0x54
    55d4:	7320      	strb	r0, [r4, #12]
    55d6:	6165      	str	r5, [r4, #20]
    55d8:	6372      	str	r2, [r6, #52]	; 0x34
    55da:	0068      	lsls	r0, r5, #1
    55dc:	6964      	ldr	r4, [r4, #20]
    55de:	696e      	ldr	r6, [r5, #20]
    55e0:	0063      	lsls	r3, r4, #1
    55e2:	0000      	movs	r0, r0
    55e4:	6944      	ldr	r4, [r0, #20]
    55e6:	696e      	ldr	r6, [r5, #20]
    55e8:	2763      	movs	r7, #99	; 0x63
    55ea:	2073      	movs	r0, #115	; 0x73
    55ec:	616d      	str	r5, [r5, #20]
    55ee:	6678      	str	r0, [r7, #100]	; 0x64
    55f0:	6f6c      	ldr	r4, [r5, #116]	; 0x74
    55f2:	2077      	movs	r0, #119	; 0x77
    55f4:	6c61      	ldr	r1, [r4, #68]	; 0x44
    55f6:	6f67      	ldr	r7, [r4, #116]	; 0x74
    55f8:	6972      	ldr	r2, [r6, #20]
    55fa:	6874      	ldr	r4, [r6, #4]
    55fc:	006d      	lsls	r5, r5, #1
    55fe:	0000      	movs	r0, r0
    5600:	7a6c      	ldrb	r4, [r5, #9]
    5602:	7069      	strb	r1, [r5, #1]
    5604:	0000      	movs	r0, r0
    5606:	0000      	movs	r0, r0
    5608:	7a4c      	ldrb	r4, [r1, #9]
    560a:	7069      	strb	r1, [r5, #1]
    560c:	6320      	str	r0, [r4, #48]	; 0x30
    560e:	6d6f      	ldr	r7, [r5, #84]	; 0x54
    5610:	7270      	strb	r0, [r6, #9]
    5612:	7365      	strb	r5, [r4, #13]
    5614:	6973      	ldr	r3, [r6, #20]
    5616:	6e6f      	ldr	r7, [r5, #100]	; 0x64
    5618:	0000      	movs	r0, r0
    561a:	0000      	movs	r0, r0
    561c:	7373      	strb	r3, [r6, #13]
    561e:	726f      	strb	r7, [r5, #9]
    5620:	0074      	lsls	r4, r6, #1
    5622:	0000      	movs	r0, r0
    5624:	7553      	strb	r3, [r2, #21]
    5626:	6666      	str	r6, [r4, #100]	; 0x64
    5628:	7869      	ldrb	r1, [r5, #1]
    562a:	7320      	strb	r0, [r4, #12]
    562c:	726f      	strb	r7, [r5, #9]
    562e:	0074      	lsls	r4, r6, #1
    5630:	646d      	str	r5, [r5, #68]	; 0x44
    5632:	0035      	movs	r5, r6
    5634:	444d      	add	r5, r9
    5636:	2035      	movs	r0, #53	; 0x35
    5638:	6964      	ldr	r4, [r4, #20]
    563a:	6567      	str	r7, [r4, #84]	; 0x54
    563c:	7473      	strb	r3, [r6, #17]
    563e:	ff00 3e3e 	vacge.f32	d3, d0, d30
    5642:	3e2b      	subs	r6, #43	; 0x2b
    5644:	3e3e      	subs	r6, #62	; 0x3e
    5646:	3e3e      	subs	r6, #62	; 0x3e
    5648:	5b2c      	ldrh	r4, [r5, r4]
    564a:	2b3e      	cmp	r3, #62	; 0x3e
    564c:	3e3e      	subs	r6, #62	; 0x3e
    564e:	5d2c      	ldrb	r4, [r5, r4]
    5650:	2b3e      	cmp	r3, #62	; 0x3e
    5652:	2d5b      	cmp	r5, #91	; 0x5b
    5654:	5b2d      	ldrh	r5, [r5, r4]
    5656:	3c2b      	subs	r4, #43	; 0x2b
    5658:	3c3c      	subs	r4, #60	; 0x3c
    565a:	5d2d      	ldrb	r5, [r5, r4]
    565c:	5b3c      	ldrh	r4, [r7, r4]
    565e:	2b3c      	cmp	r3, #60	; 0x3c
    5660:	2d3e      	cmp	r5, #62	; 0x3e
    5662:	3c5d      	subs	r4, #93	; 0x5d
    5664:	3c5b      	subs	r4, #91	; 0x5b
    5666:	2d5b      	cmp	r5, #91	; 0x5b
    5668:	5b3e      	ldrh	r6, [r7, r4]
    566a:	3c3c      	subs	r4, #60	; 0x3c
    566c:	2b3c      	cmp	r3, #60	; 0x3c
    566e:	3e3e      	subs	r6, #62	; 0x3e
    5670:	3e3e      	subs	r6, #62	; 0x3e
    5672:	3c2b      	subs	r4, #43	; 0x2b
    5674:	5d2d      	ldrb	r5, [r5, r4]
    5676:	3c3c      	subs	r4, #60	; 0x3c
    5678:	3e5b      	subs	r6, #91	; 0x5b
    567a:	2b3e      	cmp	r3, #62	; 0x3e
    567c:	5b3e      	ldrh	r6, [r7, r4]
    567e:	3e2d      	subs	r6, #45	; 0x2d
    5680:	3c5d      	subs	r4, #93	; 0x5d
    5682:	5b3c      	ldrh	r4, [r7, r4]
    5684:	5d3c      	ldrb	r4, [r7, r4]
    5686:	2d3c      	cmp	r5, #60	; 0x3c
    5688:	3e5d      	subs	r6, #93	; 0x5d
    568a:	3e5d      	subs	r6, #93	; 0x5d
    568c:	3e3e      	subs	r6, #62	; 0x3e
    568e:	3c2b      	subs	r4, #43	; 0x2b
    5690:	5b5b      	ldrh	r3, [r3, r5]
    5692:	5d2d      	ldrb	r5, [r5, r4]
    5694:	5b3c      	ldrh	r4, [r7, r4]
    5696:	2b3e      	cmp	r3, #62	; 0x3e
    5698:	2d3c      	cmp	r5, #60	; 0x3c
    569a:	3c5d      	subs	r4, #93	; 0x5d
    569c:	3e5d      	subs	r6, #93	; 0x5d
    569e:	5b5b      	ldrh	r3, [r3, r5]
    56a0:	3e3e      	subs	r6, #62	; 0x3e
    56a2:	5d3e      	ldrb	r6, [r7, r4]
    56a4:	3c2b      	subs	r4, #43	; 0x2b
    56a6:	3c3c      	subs	r4, #60	; 0x3c
    56a8:	3c2d      	subs	r4, #45	; 0x2d
    56aa:	3c5b      	subs	r4, #91	; 0x5b
    56ac:	5b3c      	ldrh	r4, [r7, r4]
    56ae:	3c3c      	subs	r4, #60	; 0x3c
    56b0:	5d3c      	ldrb	r4, [r7, r4]
    56b2:	3e3e      	subs	r6, #62	; 0x3e
    56b4:	3e2b      	subs	r6, #43	; 0x2b
    56b6:	3e5b      	subs	r6, #91	; 0x5b
    56b8:	3e3e      	subs	r6, #62	; 0x3e
    56ba:	3c5d      	subs	r4, #93	; 0x5d
    56bc:	5d2d      	ldrb	r5, [r5, r4]
    56be:	3c3c      	subs	r4, #60	; 0x3c
    56c0:	3c5b      	subs	r4, #91	; 0x5b
    56c2:	3c3c      	subs	r4, #60	; 0x3c
    56c4:	3e5d      	subs	r6, #93	; 0x5d
    56c6:	3e5b      	subs	r6, #91	; 0x5b
    56c8:	5b3e      	ldrh	r6, [r7, r4]
    56ca:	3e3e      	subs	r6, #62	; 0x3e
    56cc:	5d3e      	ldrb	r6, [r7, r4]
    56ce:	2b3c      	cmp	r3, #60	; 0x3c
    56d0:	3c3c      	subs	r4, #60	; 0x3c
    56d2:	3c5b      	subs	r4, #91	; 0x5b
    56d4:	3c3c      	subs	r4, #60	; 0x3c
    56d6:	3e5d      	subs	r6, #93	; 0x5d
    56d8:	5d2d      	ldrb	r5, [r5, r4]
    56da:	2b5d      	cmp	r3, #93	; 0x5d
    56dc:	3c3c      	subs	r4, #60	; 0x3c
    56de:	5d3c      	ldrb	r4, [r7, r4]
    56e0:	5b2b      	ldrh	r3, [r5, r4]
    56e2:	3e2d      	subs	r6, #45	; 0x2d
    56e4:	3e3e      	subs	r6, #62	; 0x3e
    56e6:	3e5d      	subs	r6, #93	; 0x5d
    56e8:	5d3e      	ldrb	r6, [r7, r4]
    56ea:	3e3e      	subs	r6, #62	; 0x3e
    56ec:	2e5b      	cmp	r6, #91	; 0x5b
    56ee:	3e3e      	subs	r6, #62	; 0x3e
    56f0:	5d3e      	ldrb	r6, [r7, r4]
    56f2:	0000      	movs	r0, r0
    56f4:	3130      	adds	r1, #48	; 0x30
    56f6:	3332      	adds	r3, #50	; 0x32
    56f8:	3534      	adds	r5, #52	; 0x34
    56fa:	3736      	adds	r7, #54	; 0x36
    56fc:	3938      	subs	r1, #56	; 0x38
    56fe:	6261      	str	r1, [r4, #36]	; 0x24
    5700:	6463      	str	r3, [r4, #68]	; 0x44
    5702:	6665      	str	r5, [r4, #100]	; 0x64
    5704:	6867      	ldr	r7, [r4, #4]
    5706:	6a69      	ldr	r1, [r5, #36]	; 0x24
    5708:	6c6b      	ldr	r3, [r5, #68]	; 0x44
    570a:	6e6d      	ldr	r5, [r5, #100]	; 0x64
    570c:	706f      	strb	r7, [r5, #1]
    570e:	7271      	strb	r1, [r6, #9]
    5710:	7473      	strb	r3, [r6, #17]
    5712:	7675      	strb	r5, [r6, #25]
    5714:	7877      	ldrb	r7, [r6, #1]
    5716:	7a79      	ldrb	r1, [r7, #9]
    5718:	4241      	negs	r1, r0
    571a:	4443      	add	r3, r8
    571c:	4645      	mov	r5, r8
    571e:	4847      	ldr	r0, [pc, #284]	; (0x583c)
    5720:	4a49      	ldr	r2, [pc, #292]	; (0x5848)
    5722:	4c4b      	ldr	r4, [pc, #300]	; (0x5850)
    5724:	4e4d      	ldr	r6, [pc, #308]	; (0x585c)
    5726:	504f      	str	r7, [r1, r1]
    5728:	5251      	strh	r1, [r2, r1]
    572a:	5453      	strb	r3, [r2, r1]
    572c:	5655      	ldrsb	r5, [r2, r1]
    572e:	5857      	ldr	r7, [r2, r1]
    5730:	5a59      	ldrh	r1, [r3, r1]
    5732:	0000      	movs	r0, r0
    5734:	3080      	adds	r0, #128	; 0x80
    5736:	8101      	strh	r1, [r0, #8]
    5738:	b0b0      	sub	sp, #192	; 0xc0
    573a:	f0ab 0000 			; <UNDEFINED> instruction: 0xf0ab0000
    573e:	0000      	movs	r0, r0
    5740:	1480      	asrs	r0, r0, #18
    5742:	8101      	strh	r1, [r0, #8]
    5744:	b0b0      	sub	sp, #192	; 0xc0
    5746:	f0ab 0000 			; <UNDEFINED> instruction: 0xf0ab0000
    574a:	0000      	movs	r0, r0
    574c:	0280      	lsls	r0, r0, #10
    574e:	8101      	strh	r1, [r0, #8]
    5750:	b0b0      	sub	sp, #192	; 0xc0
    5752:	f0ab 0000 			; <UNDEFINED> instruction: 0xf0ab0000
    5756:	0000      	movs	r0, r0
    5758:	0e80      	lsrs	r0, r0, #26
    575a:	8101      	strh	r1, [r0, #8]
    575c:	b0b0      	sub	sp, #192	; 0xc0
    575e:	f0ab 0000 			; <UNDEFINED> instruction: 0xf0ab0000
    5762:	0000      	movs	r0, r0
    5764:	aac4      	add	r2, sp, #784	; 0x310
    5766:	7fff      	ldrb	r7, [r7, #31]
    5768:	0001      	movs	r1, r0
    576a:	0000      	movs	r0, r0
    576c:	ab00      	add	r3, sp, #0
    576e:	7fff      	ldrb	r7, [r7, #31]
    5770:	ffc4 7fff 			; <UNDEFINED> instruction: 0xffc47fff
    5774:	b2cc      	uxtb	r4, r1
    5776:	7fff      	ldrb	r7, [r7, #31]
    5778:	0001      	movs	r1, r0
    577a:	0000      	movs	r0, r0
    577c:	bb30      	cbnz	r0, 0x57cc
    577e:	7fff      	ldrb	r7, [r7, #31]
    5780:	ffcc 7fff 			; <UNDEFINED> instruction: 0xffcc7fff
    5784:	bd30      	pop	{r4, r5, pc}
    5786:	7fff      	ldrb	r7, [r7, #31]
    5788:	0001      	movs	r1, r0
    578a:	0000      	movs	r0, r0
    578c:	d00c      	beq.n	0x57a8
    578e:	7fff      	ldrb	r7, [r7, #31]
    5790:	70ab      	strb	r3, [r5, #2]
    5792:	8080      	strh	r0, [r0, #4]
    5794:	d0a8      	beq.n	0x56e8
    5796:	7fff      	ldrb	r7, [r7, #31]
    5798:	ffc0 7fff 			; <UNDEFINED> instruction: 0xffc07fff
    579c:	d424      	bmi.n	0x57e8
    579e:	7fff      	ldrb	r7, [r7, #31]
    57a0:	08ab      	lsrs	r3, r5, #2
    57a2:	80b1      	strh	r1, [r6, #4]
    57a4:	d474      	bmi.n	0x5890
    57a6:	7fff      	ldrb	r7, [r7, #31]
    57a8:	b0b0      	sub	sp, #192	; 0xc0
    57aa:	80a8      	strh	r0, [r5, #4]
    57ac:	d4b4      	bmi.n	0x5718
    57ae:	7fff      	ldrb	r7, [r7, #31]
    57b0:	0001      	movs	r1, r0
    57b2:	0000      	movs	r0, r0
    57b4:	da44      	bge.n	0x5840
    57b6:	7fff      	ldrb	r7, [r7, #31]
    57b8:	ff88 7fff 			; <UNDEFINED> instruction: 0xff887fff
    57bc:	db34      	blt.n	0x5828
    57be:	7fff      	ldrb	r7, [r7, #31]
    57c0:	0001      	movs	r1, r0
    57c2:	0000      	movs	r0, r0
    57c4:	dca0      	bgt.n	0x5708
    57c6:	7fff      	ldrb	r7, [r7, #31]
    57c8:	70ab      	strb	r3, [r5, #2]
    57ca:	8080      	strh	r0, [r0, #4]
    57cc:	de5c      	udf	#92	; 0x5c
    57ce:	7fff      	ldrb	r7, [r7, #31]
    57d0:	0001      	movs	r1, r0
    57d2:	0000      	movs	r0, r0
    57d4:	0000      	movs	r0, r0
    57d6:	0000      	movs	r0, r0
    57d8:	0001      	movs	r1, r0
    57da:	0000      	movs	r0, r0
    57dc:	0002      	movs	r2, r0
    57de:	0000      	movs	r0, r0
    57e0:	0003      	movs	r3, r0
    57e2:	0000      	movs	r0, r0
    57e4:	0004      	movs	r4, r0
    57e6:	0000      	movs	r0, r0
    57e8:	0005      	movs	r5, r0
    57ea:	0000      	movs	r0, r0
    57ec:	0006      	movs	r6, r0
    57ee:	0000      	movs	r0, r0
    57f0:	0007      	movs	r7, r0
    57f2:	0000      	movs	r0, r0
    57f4:	0008      	movs	r0, r1
    57f6:	0000      	movs	r0, r0
    57f8:	0009      	movs	r1, r1
    57fa:	0000      	movs	r0, r0
    57fc:	000a      	movs	r2, r1
    57fe:	0000      	movs	r0, r0
    5800:	0000      	movs	r0, r0
    5802:	0000      	movs	r0, r0
    5804:	000b      	movs	r3, r1
    5806:	0000      	movs	r0, r0
    5808:	000d      	movs	r5, r1
    580a:	0000      	movs	r0, r0
    580c:	000e      	movs	r6, r1
    580e:	0000      	movs	r0, r0
    5810:	000f      	movs	r7, r1
    5812:	0000      	movs	r0, r0
    5814:	000c      	movs	r4, r1
    5816:	0000      	movs	r0, r0
    5818:	0000      	movs	r0, r0
    581a:	0000      	movs	r0, r0
    581c:	0002      	movs	r2, r0
    581e:	0000      	movs	r0, r0
    5820:	0003      	movs	r3, r0
    5822:	0000      	movs	r0, r0
    5824:	0004      	movs	r4, r0
    5826:	0000      	movs	r0, r0
    5828:	0009      	movs	r1, r1
    582a:	0000      	movs	r0, r0
    582c:	0006      	movs	r6, r0
    582e:	0000      	movs	r0, r0
    5830:	0007      	movs	r7, r0
    5832:	0000      	movs	r0, r0
    5834:	0008      	movs	r0, r1
    5836:	0000      	movs	r0, r0
    5838:	0005      	movs	r5, r0
    583a:	0000      	movs	r0, r0
    583c:	000b      	movs	r3, r1
    583e:	0000      	movs	r0, r0
    5840:	000a      	movs	r2, r1
    5842:	0000      	movs	r0, r0
    5844:	000c      	movs	r4, r1
    5846:	0000      	movs	r0, r0
    5848:	0001      	movs	r1, r0
    584a:	0000      	movs	r0, r0
    584c:	000f      	movs	r7, r1
    584e:	0000      	movs	r0, r0
    5850:	000d      	movs	r5, r1
    5852:	0000      	movs	r0, r0
    5854:	000e      	movs	r6, r1
    5856:	0000      	movs	r0, r0
    5858:	0001      	movs	r1, r0
    585a:	0000      	movs	r0, r0
    585c:	1d59      	adds	r1, r3, #5
    585e:	0800      	lsrs	r0, r0, #32
    5860:	1da5      	adds	r5, r4, #6
    5862:	0800      	lsrs	r0, r0, #32
    5864:	1dbd      	adds	r5, r7, #6
    5866:	0800      	lsrs	r0, r0, #32
    5868:	5544      	strb	r4, [r0, r5]
    586a:	0800      	lsrs	r0, r0, #32
    586c:	554c      	strb	r4, [r1, r5]
    586e:	0800      	lsrs	r0, r0, #32
    5870:	0064      	lsls	r4, r4, #1
    5872:	0000      	movs	r0, r0
    5874:	0400      	lsls	r0, r0, #16
    5876:	0000      	movs	r0, r0
    5878:	0000      	movs	r0, r0
    587a:	0000      	movs	r0, r0
    587c:	7105      	strb	r5, [r0, #4]
    587e:	0846      	lsrs	r6, r0, #1
    5880:	86a0      	strh	r0, [r4, #52]	; 0x34
    5882:	0001      	movs	r1, r0
    5884:	0000      	movs	r0, r0
    5886:	000a      	movs	r2, r1
    5888:	158f      	asrs	r7, r1, #22
    588a:	0000      	movs	r0, r0
    588c:	ff89 ed8c 			; <UNDEFINED> instruction: 0xff89ed8c
    5890:	1e3d      	subs	r5, r7, #0
    5892:	0800      	lsrs	r0, r0, #32
    5894:	1e5d      	subs	r5, r3, #1
    5896:	0800      	lsrs	r0, r0, #32
    5898:	1e79      	subs	r1, r7, #1
    589a:	0800      	lsrs	r0, r0, #32
    589c:	5558      	strb	r0, [r3, r5]
    589e:	0800      	lsrs	r0, r0, #32
    58a0:	5560      	strb	r0, [r4, r5]
    58a2:	0800      	lsrs	r0, r0, #32
    58a4:	0008      	movs	r0, r1
	...
    58ae:	0000      	movs	r0, r0
    58b0:	005c      	lsls	r4, r3, #1
    58b2:	0000      	movs	r0, r0
    58b4:	000c      	movs	r4, r1
    58b6:	0000      	movs	r0, r0
    58b8:	0000      	movs	r0, r0
    58ba:	0000      	movs	r0, r0
    58bc:	1427      	asrs	r7, r4, #16
    58be:	0000      	movs	r0, r0
    58c0:	3778      	adds	r7, #120	; 0x78
    58c2:	0000      	movs	r0, r0
    58c4:	1109      	asrs	r1, r1, #4
    58c6:	0800      	lsrs	r0, r0, #32
    58c8:	11a1      	asrs	r1, r4, #6
    58ca:	0800      	lsrs	r0, r0, #32
    58cc:	11b1      	asrs	r1, r6, #6
    58ce:	0800      	lsrs	r0, r0, #32
    58d0:	5570      	strb	r0, [r6, r5]
    58d2:	0800      	lsrs	r0, r0, #32
    58d4:	5574      	strb	r4, [r6, r5]
    58d6:	0800      	lsrs	r0, r0, #32
    58d8:	0004      	movs	r4, r0
    58da:	0000      	movs	r0, r0
    58dc:	8000      	strh	r0, [r0, #0]
    58de:	0000      	movs	r0, r0
    58e0:	0000      	movs	r0, r0
    58e2:	0000      	movs	r0, r0
    58e4:	079e      	lsls	r6, r3, #30
    58e6:	a6f0      	add	r6, pc, #960	; (adr r6, 0x5ca8)
    58e8:	00b4      	lsls	r4, r6, #2
    58ea:	0000      	movs	r0, r0
    58ec:	8000      	strh	r0, [r0, #0]
    58ee:	0000      	movs	r0, r0
    58f0:	6661      	str	r1, [r4, #100]	; 0x64
    58f2:	0000      	movs	r0, r0
    58f4:	e2b3      	b.n	0x5e5e
    58f6:	9221      	str	r2, [sp, #132]	; 0x84
    58f8:	1739      	asrs	r1, r7, #28
    58fa:	0800      	lsrs	r0, r0, #32
    58fc:	1779      	asrs	r1, r7, #29
    58fe:	0800      	lsrs	r0, r0, #32
    5900:	1985      	adds	r5, r0, r6
    5902:	0800      	lsrs	r0, r0, #32
    5904:	558c      	strb	r4, [r1, r6]
    5906:	0800      	lsrs	r0, r0, #32
    5908:	5590      	strb	r0, [r2, r6]
    590a:	0800      	lsrs	r0, r0, #32
    590c:	0002      	movs	r2, r0
    590e:	0000      	movs	r0, r0
    5910:	0400      	lsls	r0, r0, #16
    5912:	0000      	movs	r0, r0
    5914:	0000      	movs	r0, r0
    5916:	0000      	movs	r0, r0
    5918:	ddf0      	ble.n	0x58fc
    591a:	7cfe      	ldrb	r6, [r7, #19]
    591c:	005b      	lsls	r3, r3, #1
    591e:	0000      	movs	r0, r0
    5920:	0000      	movs	r0, r0
    5922:	0004      	movs	r4, r0
    5924:	6f9f      	ldr	r7, [r3, #120]	; 0x78
    5926:	0000      	movs	r0, r0
    5928:	5f80      	ldrsh	r0, [r0, r6]
    592a:	ebdc 2645 	rsbs	r6, ip, r5, lsl #9
    592e:	0800      	lsrs	r0, r0, #32
    5930:	2691      	movs	r6, #145	; 0x91
    5932:	0800      	lsrs	r0, r0, #32
    5934:	277d      	movs	r7, #125	; 0x7d
    5936:	0800      	lsrs	r0, r0, #32
    5938:	55a4      	strb	r4, [r4, r6]
    593a:	0800      	lsrs	r0, r0, #32
    593c:	55ac      	strb	r4, [r5, r6]
    593e:	0800      	lsrs	r0, r0, #32
    5940:	0064      	lsls	r4, r4, #1
    5942:	0000      	movs	r0, r0
    5944:	0400      	lsls	r0, r0, #16
    5946:	0000      	movs	r0, r0
    5948:	0000      	movs	r0, r0
    594a:	0000      	movs	r0, r0
    594c:	0019      	movs	r1, r3
    594e:	0000      	movs	r0, r0
    5950:	9680      	str	r6, [sp, #512]	; 0x200
    5952:	0098      	lsls	r0, r3, #2
    5954:	0000      	movs	r0, r0
    5956:	0020      	movs	r0, r4
    5958:	a5a6      	add	r5, pc, #664	; (adr r5, 0x5bf4)
    595a:	0000      	movs	r0, r0
    595c:	2403      	movs	r4, #3
    595e:	000a      	movs	r2, r1
    5960:	024d      	lsls	r5, r1, #9
    5962:	0800      	lsrs	r0, r0, #32
    5964:	026d      	lsls	r5, r5, #9
    5966:	0800      	lsrs	r0, r0, #32
    5968:	0251      	lsls	r1, r2, #9
    596a:	0800      	lsrs	r0, r0, #32
    596c:	55c0      	strb	r0, [r0, r7]
    596e:	0800      	lsrs	r0, r0, #32
    5970:	55c8      	strb	r0, [r1, r7]
    5972:	0800      	lsrs	r0, r0, #32
    5974:	0000      	movs	r0, r0
    5976:	0000      	movs	r0, r0
    5978:	0000      	movs	r0, r0
    597a:	0020      	movs	r0, r4
    597c:	0000      	movs	r0, r0
    597e:	0000      	movs	r0, r0
    5980:	0006      	movs	r6, r0
    5982:	0000      	movs	r0, r0
    5984:	0001      	movs	r1, r0
    5986:	0000      	movs	r0, r0
    5988:	0000      	movs	r0, r0
    598a:	0080      	lsls	r0, r0, #2
    598c:	16a0      	asrs	r0, r4, #26
    598e:	0000      	movs	r0, r0
    5990:	8b8c      	ldrh	r4, [r1, #28]
    5992:	0006      	movs	r6, r0
    5994:	12ad      	asrs	r5, r5, #10
    5996:	0800      	lsrs	r0, r0, #32
    5998:	14b5      	asrs	r5, r6, #18
    599a:	0800      	lsrs	r0, r0, #32
    599c:	171d      	asrs	r5, r3, #28
    599e:	0800      	lsrs	r0, r0, #32
    59a0:	55dc      	strb	r4, [r3, r7]
    59a2:	0800      	lsrs	r0, r0, #32
    59a4:	55e4      	strb	r4, [r4, r7]
    59a6:	0800      	lsrs	r0, r0, #32
    59a8:	000a      	movs	r2, r1
    59aa:	0000      	movs	r0, r0
    59ac:	0000      	movs	r0, r0
    59ae:	0010      	movs	r0, r2
    59b0:	0000      	movs	r0, r0
    59b2:	0000      	movs	r0, r0
    59b4:	019c      	lsls	r4, r3, #6
    59b6:	0000      	movs	r0, r0
    59b8:	0080      	lsls	r0, r0, #2
    59ba:	0000      	movs	r0, r0
    59bc:	0000      	movs	r0, r0
    59be:	0010      	movs	r0, r2
    59c0:	34e0      	adds	r4, #224	; 0xe0
    59c2:	0000      	movs	r0, r0
    59c4:	c248      	stmia	r2!, {r3, r6}
    59c6:	0000      	movs	r0, r0
    59c8:	19ad      	adds	r5, r5, r6
    59ca:	0800      	lsrs	r0, r0, #32
    59cc:	1a0d      	subs	r5, r1, r0
    59ce:	0800      	lsrs	r0, r0, #32
    59d0:	1a29      	subs	r1, r5, r0
    59d2:	0800      	lsrs	r0, r0, #32
    59d4:	5600      	ldrsb	r0, [r0, r0]
    59d6:	0800      	lsrs	r0, r0, #32
    59d8:	5608      	ldrsb	r0, [r1, r0]
    59da:	0800      	lsrs	r0, r0, #32
    59dc:	0080      	lsls	r0, r0, #2
    59de:	0000      	movs	r0, r0
    59e0:	0000      	movs	r0, r0
    59e2:	0010      	movs	r0, r2
    59e4:	0000      	movs	r0, r0
    59e6:	0000      	movs	r0, r0
    59e8:	fa7d 03e9 			; <UNDEFINED> instruction: 0xfa7d03e9
    59ec:	0000      	movs	r0, r0
    59ee:	0010      	movs	r0, r2
    59f0:	0000      	movs	r0, r0
    59f2:	0040      	lsls	r0, r0, #1
    59f4:	6765      	str	r5, [r4, #116]	; 0x74
    59f6:	0000      	movs	r0, r0
    59f8:	1310      	asrs	r0, r2, #12
    59fa:	4360      	muls	r0, r4
    59fc:	2bc1      	cmp	r3, #193	; 0xc1
    59fe:	0800      	lsrs	r0, r0, #32
    5a00:	2c19      	cmp	r4, #25
    5a02:	0800      	lsrs	r0, r0, #32
    5a04:	2c35      	cmp	r4, #53	; 0x35
    5a06:	0800      	lsrs	r0, r0, #32
    5a08:	561c      	ldrsb	r4, [r3, r0]
    5a0a:	0800      	lsrs	r0, r0, #32
    5a0c:	5624      	ldrsb	r4, [r4, r0]
    5a0e:	0800      	lsrs	r0, r0, #32
    5a10:	0064      	lsls	r4, r4, #1
    5a12:	0000      	movs	r0, r0
    5a14:	1000      	asrs	r0, r0, #32
    5a16:	0000      	movs	r0, r0
    5a18:	0000      	movs	r0, r0
    5a1a:	0000      	movs	r0, r0
    5a1c:	5e09      	ldrsh	r1, [r1, r0]
    5a1e:	4c55      	ldr	r4, [pc, #340]	; (0x5b74)
    5a20:	86a0      	strh	r0, [r4, #52]	; 0x34
    5a22:	0001      	movs	r1, r0
    5a24:	0000      	movs	r0, r0
    5a26:	0040      	lsls	r0, r0, #1
    5a28:	171b      	asrs	r3, r3, #28
    5a2a:	0000      	movs	r0, r0
    5a2c:	b431      	push	{r0, r4, r5}
    5a2e:	4f0a      	ldr	r7, [pc, #40]	; (0x5a58)
    5a30:	1a51      	subs	r1, r2, r1
    5a32:	0800      	lsrs	r0, r0, #32
    5a34:	1a99      	subs	r1, r3, r2
    5a36:	0800      	lsrs	r0, r0, #32
    5a38:	1cad      	adds	r5, r5, #2
    5a3a:	0800      	lsrs	r0, r0, #32
    5a3c:	5630      	ldrsb	r0, [r6, r0]
    5a3e:	0800      	lsrs	r0, r0, #32
    5a40:	5634      	ldrsb	r4, [r6, r0]
    5a42:	0800      	lsrs	r0, r0, #32
    5a44:	0064      	lsls	r4, r4, #1
    5a46:	0000      	movs	r0, r0
    5a48:	0400      	lsls	r0, r0, #16
    5a4a:	0000      	movs	r0, r0
    5a4c:	0000      	movs	r0, r0
    5a4e:	0000      	movs	r0, r0
    5a50:	f28f f902 	bl	0x294c58
    5a54:	9680      	str	r6, [sp, #512]	; 0x200
    5a56:	0098      	lsls	r0, r3, #2
    5a58:	0000      	movs	r0, r0
    5a5a:	0100      	lsls	r0, r0, #4
    5a5c:	4c89      	ldr	r4, [pc, #548]	; (0x5c84)
    5a5e:	0000      	movs	r0, r0
    5a60:	6a42      	ldr	r2, [r0, #36]	; 0x24
    5a62:	2728      	movs	r7, #40	; 0x28
    5a64:	03f8      	lsls	r0, r7, #15
    5a66:	0300      	lsls	r0, r0, #12
    5a68:	0000      	movs	r0, r0
    5a6a:	0000      	movs	r0, r0
    5a6c:	06e8      	lsls	r0, r5, #27
    5a6e:	0300      	lsls	r0, r0, #12
    5a70:	0760      	lsls	r0, r4, #29
    5a72:	0300      	lsls	r0, r0, #12
    5a74:	07d8      	lsls	r0, r3, #31
    5a76:	0300      	lsls	r0, r0, #12
	...
    5b10:	0001      	movs	r1, r0
    5b12:	0000      	movs	r0, r0
    5b14:	0000      	movs	r0, r0
    5b16:	0000      	movs	r0, r0
    5b18:	330e      	adds	r3, #14
    5b1a:	abcd      	add	r3, sp, #820	; 0x334
    5b1c:	1234      	asrs	r4, r6, #8
    5b1e:	e66d      	b.n	0x57fc
    5b20:	deec      	udf	#236	; 0xec
    5b22:	0005      	movs	r5, r0
    5b24:	000b      	movs	r3, r1
	...
    5ec6:	0000      	movs	r0, r0
    5ec8:	31c4      	adds	r1, #196	; 0xc4
    5eca:	0800      	lsrs	r0, r0, #32
    5ecc:	3180      	adds	r1, #128	; 0x80
    5ece:	0800      	lsrs	r0, r0, #32
    5ed0:	6b64      	ldr	r4, [r4, #52]	; 0x34
    5ed2:	5241      	strh	r1, [r0, r1]
    5ed4:	004d      	lsls	r5, r1, #1
	...
