
test.gba:     file format binary


Disassembly of section .data:

00000000 <.data>:
   0:	ea00002e 	b	0xc0
	...
  b0:	00963130 	addseq	r3, r6, r0, lsr r1
	...
  bc:	0000f000 	andeq	pc, r0, r0
  c0:	ea000006 	b	0xe0
	...
  e0:	e3a00301 	mov	r0, #67108864	; 0x4000000
  e4:	e5800208 	str	r0, [r0, #520]	; 0x208
  e8:	e3a00012 	mov	r0, #18
  ec:	e129f000 	msr	CPSR_fc, r0
  f0:	e59fd0b8 	ldr	sp, [pc, #184]	; 0x1b0
  f4:	e3a0001f 	mov	r0, #31
  f8:	e129f000 	msr	CPSR_fc, r0
  fc:	e59fd0b0 	ldr	sp, [pc, #176]	; 0x1b4
 100:	e28f0001 	add	r0, pc, #1
 104:	e12fff10 	bx	r0
 108:	0140482b 	cmpeq	r0, fp, lsr #16
 10c:	4678d20b 	ldrbtmi	sp, [r8], -fp, lsl #4
 110:	d30d0140 	tstle	sp, #64, 2
 114:	06122202 	ldreq	r2, [r2], -r2, lsl #4
 118:	1a9b4b28 	bne	0xfe6d2dc0
 11c:	00911c16 	addseq	r1, r1, r6, lsl ip
 120:	f83cf000 			; <UNDEFINED> instruction: 0xf83cf000
 124:	21404730 	cmpcs	r0, r0, lsr r7
 128:	01c80309 	biceq	r0, r8, r9, lsl #6
 12c:	f82bf000 			; <UNDEFINED> instruction: 0xf82bf000
 130:	49244823 	stmdbmi	r4!, {r0, r1, r5, fp, lr}
 134:	f0001a09 			; <UNDEFINED> instruction: 0xf0001a09
 138:	4823f826 	stmdami	r3!, {r1, r2, r5, fp, ip, sp, lr, pc}
 13c:	1a094923 	bne	0x2525d0
 140:	f821f000 			; <UNDEFINED> instruction: 0xf821f000
 144:	4a234922 	bmi	0x8d25d4
 148:	f0004c23 			; <UNDEFINED> instruction: 0xf0004c23
 14c:	4923f826 	stmdbmi	r3!, {r1, r2, r5, fp, ip, sp, lr, pc}
 150:	4c244a23 			; <UNDEFINED> instruction: 0x4c244a23
 154:	f821f000 			; <UNDEFINED> instruction: 0xf821f000
 158:	49244a23 	stmdbmi	r4!, {r0, r1, r5, r9, fp, lr}
 15c:	d0021a53 	andle	r1, r2, r3, asr sl
 160:	f0004a23 			; <UNDEFINED> instruction: 0xf0004a23
 164:	4923f81b 	stmdbmi	r3!, {r0, r1, r3, r4, fp, ip, sp, lr, pc}
 168:	4c244a23 			; <UNDEFINED> instruction: 0x4c244a23
 16c:	f815f000 			; <UNDEFINED> instruction: 0xf815f000
 170:	48244923 	stmdami	r4!, {r0, r1, r5, r8, fp, lr}
 174:	4b246008 	blmi	0x91819c
 178:	f80ef000 			; <UNDEFINED> instruction: 0xf80ef000
 17c:	21002000 	mrscs	r2, (UNDEF: 0)
 180:	f0004b22 			; <UNDEFINED> instruction: 0xf0004b22
 184:	2203f809 	andcs	pc, r3, #589824	; 0x90000
 188:	43911889 	orrsmi	r1, r1, #8978432	; 0x890000
 18c:	2200d003 	andcs	sp, r0, #3
 190:	3904c004 	stmdbcc	r4, {r2, lr, pc}
 194:	4770d1fc 			; <UNDEFINED> instruction: 0x4770d1fc
 198:	1aa34718 	bne	0xfe8d1e00
 19c:	181b2003 	ldmdane	fp, {r0, r1, sp}
 1a0:	d0034383 	andle	r4, r3, r3, lsl #7
 1a4:	c201c901 	andgt	ip, r1, #16384	; 0x4000
 1a8:	d1fb3b04 	mvnsle	r3, r4, lsl #22
 1ac:	46c04770 			; <UNDEFINED> instruction: 0x46c04770
 1b0:	03007fa0 	tsteq	r0, #160, 30	; 0x280
 1b4:	03007f00 	tsteq	r0, #0, 30
 1b8:	08000000 	stmdaeq	r0, {}	; <UNPREDICTABLE>
 1bc:	02000000 	andeq	r0, r0, #0
 1c0:	03000000 	tsteq	r0, #0
 1c4:	03000020 	tsteq	r0, #32
 1c8:	02000000 	andeq	r0, r0, #0
 1cc:	02000000 	andeq	r0, r0, #0
 1d0:	080004ec 	stmdaeq	r0, {r2, r3, r5, r6, r7, sl}
 1d4:	03000020 	tsteq	r0, #32
 1d8:	03000138 	tsteq	r0, #56, 2
 1dc:	080004ec 	stmdaeq	r0, {r2, r3, r5, r6, r7, sl}
 1e0:	03000000 	tsteq	r0, #0
 1e4:	03000000 	tsteq	r0, #0
 1e8:	08000604 	stmdaeq	r0, {r2, r9, sl}
 1ec:	08000604 	stmdaeq	r0, {r2, r9, sl}
 1f0:	03000138 	tsteq	r0, #56, 2
 1f4:	08000604 	stmdaeq	r0, {r2, r9, sl}
 1f8:	02000000 	andeq	r0, r0, #0
 1fc:	02000000 	andeq	r0, r0, #0
 200:	0300001c 	tsteq	r0, #28
 204:	02040000 	andeq	r0, r4, #0
 208:	08000448 	stmdaeq	r0, {r3, r6, sl}
 20c:	08000390 	stmdaeq	r0, {r4, r7, r8, r9}
 210:	e1a0c00d 	mov	ip, sp
 214:	e92ddff8 	push	{r3, r4, r5, r6, r7, r8, r9, sl, fp, ip, lr, pc}
 218:	e24cb004 	sub	fp, ip, #4
 21c:	e24bd028 	sub	sp, fp, #40	; 0x28
 220:	e89d6ff0 	ldm	sp, {r4, r5, r6, r7, r8, r9, sl, fp, sp, lr}
 224:	e12fff1e 	bx	lr
 228:	e52de004 	push	{lr}		; (str lr, [sp, #-4]!)
 22c:	e59de004 	ldr	lr, [sp, #4]
 230:	e1a0c201 	lsl	ip, r1, #4
 234:	e082250e 	add	r2, r2, lr, lsl #10
 238:	e06c1401 	rsb	r1, ip, r1, lsl #8
 23c:	e0823283 	add	r3, r2, r3, lsl #5
 240:	e0811000 	add	r1, r1, r0
 244:	e1a03803 	lsl	r3, r3, #16
 248:	e1a01081 	lsl	r1, r1, #1
 24c:	e1a03823 	lsr	r3, r3, #16
 250:	e2811406 	add	r1, r1, #100663296	; 0x6000000
 254:	e1c130b0 	strh	r3, [r1]
 258:	e49de004 	pop	{lr}		; (ldr lr, [sp], #4)
 25c:	e12fff1e 	bx	lr
 260:	e3a02004 	mov	r2, #4
 264:	e3a03301 	mov	r3, #67108864	; 0x4000000
 268:	e3a01003 	mov	r1, #3
 26c:	e3500000 	cmp	r0, #0
 270:	e5c31000 	strb	r1, [r3]
 274:	e5c32001 	strb	r2, [r3, #1]
 278:	e3a03406 	mov	r3, #100663296	; 0x6000000
 27c:	13a0201f 	movne	r2, #31
 280:	03a02e3e 	moveq	r2, #992	; 0x3e0
 284:	e1c320b0 	strh	r2, [r3]
 288:	eafffffe 	b	0x288
 28c:	e3500000 	cmp	r0, #0
 290:	112fff1e 	bxne	lr
 294:	e92d4010 	push	{r4, lr}
 298:	e3a00001 	mov	r0, #1
 29c:	ebffffef 	bl	0x260
 2a0:	e1510002 	cmp	r1, r2
 2a4:	b1a02001 	movlt	r2, r1
 2a8:	e1520000 	cmp	r2, r0
 2ac:	b1a00002 	movlt	r0, r2
 2b0:	e12fff1e 	bx	lr
 2b4:	e59f0018 	ldr	r0, [pc, #24]	; 0x2d4
 2b8:	e59f3018 	ldr	r3, [pc, #24]	; 0x2d8
 2bc:	e1530000 	cmp	r3, r0
 2c0:	012fff1e 	bxeq	lr
 2c4:	e59f3010 	ldr	r3, [pc, #16]	; 0x2dc
 2c8:	e3530000 	cmp	r3, #0
 2cc:	012fff1e 	bxeq	lr
 2d0:	e12fff13 	bx	r3
 2d4:	03000130 	tsteq	r0, #48, 2
 2d8:	03000130 	tsteq	r0, #48, 2
 2dc:	00000000 	andeq	r0, r0, r0
 2e0:	e59f0024 	ldr	r0, [pc, #36]	; 0x30c
 2e4:	e59f1024 	ldr	r1, [pc, #36]	; 0x310
 2e8:	e0411000 	sub	r1, r1, r0
 2ec:	e1a01141 	asr	r1, r1, #2
 2f0:	e0811fa1 	add	r1, r1, r1, lsr #31
 2f4:	e1b010c1 	asrs	r1, r1, #1
 2f8:	012fff1e 	bxeq	lr
 2fc:	e59f3010 	ldr	r3, [pc, #16]	; 0x314
 300:	e3530000 	cmp	r3, #0
 304:	012fff1e 	bxeq	lr
 308:	e12fff13 	bx	r3
 30c:	03000130 	tsteq	r0, #48, 2
 310:	03000130 	tsteq	r0, #48, 2
 314:	00000000 	andeq	r0, r0, r0
 318:	e92d4010 	push	{r4, lr}
 31c:	e59f402c 	ldr	r4, [pc, #44]	; 0x350
 320:	e5d43000 	ldrb	r3, [r4]
 324:	e3530000 	cmp	r3, #0
 328:	1a000006 	bne	0x348
 32c:	ebffffe0 	bl	0x2b4
 330:	e59f301c 	ldr	r3, [pc, #28]	; 0x354
 334:	e3530000 	cmp	r3, #0
 338:	159f0018 	ldrne	r0, [pc, #24]	; 0x358
 33c:	11a00000 	movne	r0, r0
 340:	e3a03001 	mov	r3, #1
 344:	e5c43000 	strb	r3, [r4]
 348:	e8bd4010 	pop	{r4, lr}
 34c:	e12fff1e 	bx	lr
 350:	03000000 	tsteq	r0, #0
 354:	00000000 	andeq	r0, r0, r0
 358:	080004e8 	stmdaeq	r0, {r3, r5, r6, r7, sl}
 35c:	e59f3020 	ldr	r3, [pc, #32]	; 0x384
 360:	e3530000 	cmp	r3, #0
 364:	0a000005 	beq	0x380
 368:	e92d4010 	push	{r4, lr}
 36c:	e59f1014 	ldr	r1, [pc, #20]	; 0x388
 370:	e59f0014 	ldr	r0, [pc, #20]	; 0x38c
 374:	e1a00000 	nop			; (mov r0, r0)
 378:	e8bd4010 	pop	{r4, lr}
 37c:	eaffffd7 	b	0x2e0
 380:	eaffffd6 	b	0x2e0
 384:	00000000 	andeq	r0, r0, r0
 388:	03000004 	tsteq	r0, #4
 38c:	080004e8 	stmdaeq	r0, {r3, r5, r6, r7, sl}
 390:	e92d4ff0 	push	{r4, r5, r6, r7, r8, r9, sl, fp, lr}
 394:	e59f80a8 	ldr	r8, [pc, #168]	; 0x444
 398:	e2883010 	add	r3, r8, #16
 39c:	e1a04003 	mov	r4, r3
 3a0:	e24dd00c 	sub	sp, sp, #12
 3a4:	e58d3004 	str	r3, [sp, #4]
 3a8:	e58d8000 	str	r8, [sp]
 3ac:	e1a05008 	mov	r5, r8
 3b0:	e59d3000 	ldr	r3, [sp]
 3b4:	e4937004 	ldr	r7, [r3], #4
 3b8:	e59d6004 	ldr	r6, [sp, #4]
 3bc:	e58d3000 	str	r3, [sp]
 3c0:	e4953004 	ldr	r3, [r5], #4
 3c4:	e1570003 	cmp	r7, r3
 3c8:	b1a09007 	movlt	r9, r7
 3cc:	a1a09003 	movge	r9, r3
 3d0:	e1a0a006 	mov	sl, r6
 3d4:	e1a0b008 	mov	fp, r8
 3d8:	e49b0004 	ldr	r0, [fp], #4
 3dc:	e1500009 	cmp	r0, r9
 3e0:	a1a00009 	movge	r0, r9
 3e4:	e49a1004 	ldr	r1, [sl], #4
 3e8:	e0403001 	sub	r3, r0, r1
 3ec:	e2730000 	rsbs	r0, r3, #0
 3f0:	e0a00003 	adc	r0, r0, r3
 3f4:	ebffffa4 	bl	0x28c
 3f8:	e15b0004 	cmp	fp, r4
 3fc:	1afffff5 	bne	0x3d8
 400:	e3a00001 	mov	r0, #1
 404:	ebffffa0 	bl	0x28c
 408:	e155000b 	cmp	r5, fp
 40c:	e2866010 	add	r6, r6, #16
 410:	1affffea 	bne	0x3c0
 414:	e3a00001 	mov	r0, #1
 418:	ebffff9b 	bl	0x28c
 41c:	e59d3000 	ldr	r3, [sp]
 420:	e1530005 	cmp	r3, r5
 424:	e59d3004 	ldr	r3, [sp, #4]
 428:	e2833040 	add	r3, r3, #64	; 0x40
 42c:	e58d3004 	str	r3, [sp, #4]
 430:	1affffdd 	bne	0x3ac
 434:	e3a00001 	mov	r0, #1
 438:	ebffff93 	bl	0x28c
 43c:	e3a00000 	mov	r0, #0
 440:	ebffff86 	bl	0x260
 444:	03000020 	tsteq	r0, #32
 448:	e92d4070 	push	{r4, r5, r6, lr}
 44c:	e59f606c 	ldr	r6, [pc, #108]	; 0x4c0
 450:	e59f506c 	ldr	r5, [pc, #108]	; 0x4c4
 454:	e0466005 	sub	r6, r6, r5
 458:	e1b06146 	asrs	r6, r6, #2
 45c:	0a000007 	beq	0x480
 460:	e3a04000 	mov	r4, #0
 464:	e2455004 	sub	r5, r5, #4
 468:	e2844001 	add	r4, r4, #1
 46c:	e5b53004 	ldr	r3, [r5, #4]!
 470:	e1a0e00f 	mov	lr, pc
 474:	e12fff13 	bx	r3
 478:	e1560004 	cmp	r6, r4
 47c:	1afffff9 	bne	0x468
 480:	e59f6040 	ldr	r6, [pc, #64]	; 0x4c8
 484:	e59f5040 	ldr	r5, [pc, #64]	; 0x4cc
 488:	e0466005 	sub	r6, r6, r5
 48c:	ebffff5f 	bl	0x210
 490:	e1b06146 	asrs	r6, r6, #2
 494:	0a000007 	beq	0x4b8
 498:	e3a04000 	mov	r4, #0
 49c:	e2455004 	sub	r5, r5, #4
 4a0:	e2844001 	add	r4, r4, #1
 4a4:	e5b53004 	ldr	r3, [r5, #4]!
 4a8:	e1a0e00f 	mov	lr, pc
 4ac:	e12fff13 	bx	r3
 4b0:	e1560004 	cmp	r6, r4
 4b4:	1afffff9 	bne	0x4a0
 4b8:	e8bd4070 	pop	{r4, r5, r6, lr}
 4bc:	e12fff1e 	bx	lr
 4c0:	03000130 	tsteq	r0, #48, 2
 4c4:	03000130 	tsteq	r0, #48, 2
 4c8:	03000134 	tsteq	r0, #52, 2
 4cc:	03000130 	tsteq	r0, #48, 2
 4d0:	e1a0c00d 	mov	ip, sp
 4d4:	e92ddff8 	push	{r3, r4, r5, r6, r7, r8, r9, sl, fp, ip, lr, pc}
 4d8:	e24cb004 	sub	fp, ip, #4
 4dc:	e24bd028 	sub	sp, fp, #40	; 0x28
 4e0:	e89d6ff0 	ldm	sp, {r4, r5, r6, r7, r8, r9, sl, fp, sp, lr}
 4e4:	e12fff1e 	bx	lr
	...
 4f0:	7fffffff 	svcvc	0x00ffffff
 4f4:	80000000 	andhi	r0, r0, r0
 4f8:	ffffffff 			; <UNDEFINED> instruction: 0xffffffff
	...
 504:	80000000 	andhi	r0, r0, r0
 508:	ffffffff 			; <UNDEFINED> instruction: 0xffffffff
	...
 514:	80000000 	andhi	r0, r0, r0
 518:	ffffffff 			; <UNDEFINED> instruction: 0xffffffff
 51c:	80000000 	andhi	r0, r0, r0
 520:	80000000 	andhi	r0, r0, r0
 524:	80000000 	andhi	r0, r0, r0
 528:	80000000 	andhi	r0, r0, r0
 52c:	ffffffff 			; <UNDEFINED> instruction: 0xffffffff
 530:	ffffffff 			; <UNDEFINED> instruction: 0xffffffff
 534:	80000000 	andhi	r0, r0, r0
 538:	ffffffff 			; <UNDEFINED> instruction: 0xffffffff
	...
 544:	80000000 	andhi	r0, r0, r0
 548:	ffffffff 			; <UNDEFINED> instruction: 0xffffffff
 54c:	00000000 	andeq	r0, r0, r0
 550:	7fffffff 	svcvc	0x00ffffff
 554:	80000000 	andhi	r0, r0, r0
 558:	ffffffff 			; <UNDEFINED> instruction: 0xffffffff
 55c:	80000000 	andhi	r0, r0, r0
 560:	80000000 	andhi	r0, r0, r0
 564:	80000000 	andhi	r0, r0, r0
 568:	80000000 	andhi	r0, r0, r0
 56c:	ffffffff 			; <UNDEFINED> instruction: 0xffffffff
 570:	ffffffff 			; <UNDEFINED> instruction: 0xffffffff
 574:	80000000 	andhi	r0, r0, r0
 578:	ffffffff 			; <UNDEFINED> instruction: 0xffffffff
 57c:	80000000 	andhi	r0, r0, r0
 580:	80000000 	andhi	r0, r0, r0
 584:	80000000 	andhi	r0, r0, r0
 588:	80000000 	andhi	r0, r0, r0
 58c:	80000000 	andhi	r0, r0, r0
 590:	80000000 	andhi	r0, r0, r0
 594:	80000000 	andhi	r0, r0, r0
 598:	80000000 	andhi	r0, r0, r0
 59c:	80000000 	andhi	r0, r0, r0
 5a0:	80000000 	andhi	r0, r0, r0
 5a4:	80000000 	andhi	r0, r0, r0
 5a8:	80000000 	andhi	r0, r0, r0
 5ac:	80000000 	andhi	r0, r0, r0
 5b0:	80000000 	andhi	r0, r0, r0
 5b4:	80000000 	andhi	r0, r0, r0
 5b8:	80000000 	andhi	r0, r0, r0
 5bc:	ffffffff 			; <UNDEFINED> instruction: 0xffffffff
 5c0:	ffffffff 			; <UNDEFINED> instruction: 0xffffffff
 5c4:	80000000 	andhi	r0, r0, r0
 5c8:	ffffffff 			; <UNDEFINED> instruction: 0xffffffff
 5cc:	ffffffff 			; <UNDEFINED> instruction: 0xffffffff
 5d0:	ffffffff 			; <UNDEFINED> instruction: 0xffffffff
 5d4:	80000000 	andhi	r0, r0, r0
 5d8:	ffffffff 			; <UNDEFINED> instruction: 0xffffffff
 5dc:	80000000 	andhi	r0, r0, r0
 5e0:	80000000 	andhi	r0, r0, r0
 5e4:	80000000 	andhi	r0, r0, r0
 5e8:	80000000 	andhi	r0, r0, r0
 5ec:	ffffffff 			; <UNDEFINED> instruction: 0xffffffff
 5f0:	ffffffff 			; <UNDEFINED> instruction: 0xffffffff
 5f4:	80000000 	andhi	r0, r0, r0
 5f8:	ffffffff 			; <UNDEFINED> instruction: 0xffffffff
 5fc:	0800035c 	stmdaeq	r0, {r2, r3, r4, r6, r8, r9}
 600:	08000318 	stmdaeq	r0, {r3, r4, r8, r9}
 604:	52416b64 	subpl	r6, r1, #100, 22	; 0x19000
 608:	0000004d 	andeq	r0, r0, sp, asr #32
