
test.gba:     file format binary


Disassembly of section .data:

00000000 <.data>:
       0:	ea00002e 	b	0xc0
	...
      b0:	00963130 	addseq	r3, r6, r0, lsr r1
	...
      bc:	0000f000 	andeq	pc, r0, r0
      c0:	ea000006 	b	0xe0
	...
      e0:	e3a00301 	mov	r0, #67108864	; 0x4000000
      e4:	e5800208 	str	r0, [r0, #520]	; 0x208
      e8:	e3a00012 	mov	r0, #18
      ec:	e129f000 	msr	CPSR_fc, r0
      f0:	e59fd0b8 	ldr	sp, [pc, #184]	; 0x1b0
      f4:	e3a0001f 	mov	r0, #31
      f8:	e129f000 	msr	CPSR_fc, r0
      fc:	e59fd0b0 	ldr	sp, [pc, #176]	; 0x1b4
     100:	e28f0001 	add	r0, pc, #1
     104:	e12fff10 	bx	r0
     108:	0140482b 	cmpeq	r0, fp, lsr #16
     10c:	4678d20b 	ldrbtmi	sp, [r8], -fp, lsl #4
     110:	d30d0140 	tstle	sp, #64, 2
     114:	06122202 	ldreq	r2, [r2], -r2, lsl #4
     118:	1a9b4b28 	bne	0xfe6d2dc0
     11c:	00911c16 	addseq	r1, r1, r6, lsl ip
     120:	f83cf000 			; <UNDEFINED> instruction: 0xf83cf000
     124:	21404730 	cmpcs	r0, r0, lsr r7
     128:	01c80309 	biceq	r0, r8, r9, lsl #6
     12c:	f82bf000 			; <UNDEFINED> instruction: 0xf82bf000
     130:	49244823 	stmdbmi	r4!, {r0, r1, r5, fp, lr}
     134:	f0001a09 			; <UNDEFINED> instruction: 0xf0001a09
     138:	4823f826 	stmdami	r3!, {r1, r2, r5, fp, ip, sp, lr, pc}
     13c:	1a094923 	bne	0x2525d0
     140:	f821f000 			; <UNDEFINED> instruction: 0xf821f000
     144:	4a234922 	bmi	0x8d25d4
     148:	f0004c23 			; <UNDEFINED> instruction: 0xf0004c23
     14c:	4923f826 	stmdbmi	r3!, {r1, r2, r5, fp, ip, sp, lr, pc}
     150:	4c244a23 			; <UNDEFINED> instruction: 0x4c244a23
     154:	f821f000 			; <UNDEFINED> instruction: 0xf821f000
     158:	49244a23 	stmdbmi	r4!, {r0, r1, r5, r9, fp, lr}
     15c:	d0021a53 	andle	r1, r2, r3, asr sl
     160:	f0004a23 			; <UNDEFINED> instruction: 0xf0004a23
     164:	4923f81b 	stmdbmi	r3!, {r0, r1, r3, r4, fp, ip, sp, lr, pc}
     168:	4c244a23 			; <UNDEFINED> instruction: 0x4c244a23
     16c:	f815f000 			; <UNDEFINED> instruction: 0xf815f000
     170:	48244923 	stmdami	r4!, {r0, r1, r5, r8, fp, lr}
     174:	4b246008 	blmi	0x91819c
     178:	f80ef000 			; <UNDEFINED> instruction: 0xf80ef000
     17c:	21002000 	mrscs	r2, (UNDEF: 0)
     180:	f0004b22 			; <UNDEFINED> instruction: 0xf0004b22
     184:	2203f809 	andcs	pc, r3, #589824	; 0x90000
     188:	43911889 	orrsmi	r1, r1, #8978432	; 0x890000
     18c:	2200d003 	andcs	sp, r0, #3
     190:	3904c004 	stmdbcc	r4, {r2, lr, pc}
     194:	4770d1fc 			; <UNDEFINED> instruction: 0x4770d1fc
     198:	1aa34718 	bne	0xfe8d1e00
     19c:	181b2003 	ldmdane	fp, {r0, r1, sp}
     1a0:	d0034383 	andle	r4, r3, r3, lsl #7
     1a4:	c201c901 	andgt	ip, r1, #16384	; 0x4000
     1a8:	d1fb3b04 	mvnsle	r3, r4, lsl #22
     1ac:	46c04770 			; <UNDEFINED> instruction: 0x46c04770
     1b0:	03007fa0 	tsteq	r0, #160, 30	; 0x280
     1b4:	03007f00 	tsteq	r0, #0, 30
     1b8:	08000000 	stmdaeq	r0, {}	; <UNPREDICTABLE>
     1bc:	02000000 	andeq	r0, r0, #0
     1c0:	03000000 	tsteq	r0, #0
     1c4:	03000868 	tsteq	r0, #104, 16	; 0x680000
     1c8:	02000000 	andeq	r0, r0, #0
     1cc:	02000000 	andeq	r0, r0, #0
     1d0:	08002c6c 	stmdaeq	r0, {r2, r3, r5, r6, sl, fp, sp}
     1d4:	03000868 	tsteq	r0, #104, 16	; 0x680000
     1d8:	0300087c 	tsteq	r0, #124, 16	; 0x7c0000
     1dc:	08002c6c 	stmdaeq	r0, {r2, r3, r5, r6, sl, fp, sp}
     1e0:	03000000 	tsteq	r0, #0
     1e4:	03000000 	tsteq	r0, #0
     1e8:	08002c80 	stmdaeq	r0, {r7, sl, fp, sp}
     1ec:	08002c80 	stmdaeq	r0, {r7, sl, fp, sp}
     1f0:	0300087c 	tsteq	r0, #124, 16	; 0x7c0000
     1f4:	08002c80 	stmdaeq	r0, {r7, sl, fp, sp}
     1f8:	02000000 	andeq	r0, r0, #0
     1fc:	02000000 	andeq	r0, r0, #0
     200:	0300008c 	tsteq	r0, #140	; 0x8c
     204:	02040000 	andeq	r0, r4, #0
     208:	080026e8 	stmdaeq	r0, {r3, r5, r6, r7, r9, sl, sp}
     20c:	08002024 	stmdaeq	r0, {r2, r5, sp}
     210:	e1a0c00d 	mov	ip, sp
     214:	e92ddff8 	push	{r3, r4, r5, r6, r7, r8, r9, sl, fp, ip, lr, pc}
     218:	e24cb004 	sub	fp, ip, #4
     21c:	e24bd028 	sub	sp, fp, #40	; 0x28
     220:	e89d6ff0 	ldm	sp, {r4, r5, r6, r7, r8, r9, sl, fp, sp, lr}
     224:	e12fff1e 	bx	lr
     228:	e3520000 	cmp	r2, #0
     22c:	0a000003 	beq	0x240
     230:	e1d000f2 	ldrsh	r0, [r0, #2]
     234:	e1d130f2 	ldrsh	r3, [r1, #2]
     238:	e0400003 	sub	r0, r0, r3
     23c:	e12fff1e 	bx	lr
     240:	e1d030f0 	ldrsh	r3, [r0]
     244:	e3c320ff 	bic	r2, r3, #255	; 0xff
     248:	e1a03803 	lsl	r3, r3, #16
     24c:	e1823c23 	orr	r3, r2, r3, lsr #24
     250:	e1c030b0 	strh	r3, [r0]
     254:	e1d130f0 	ldrsh	r3, [r1]
     258:	e3c320ff 	bic	r2, r3, #255	; 0xff
     25c:	e1a03803 	lsl	r3, r3, #16
     260:	e1823c23 	orr	r3, r2, r3, lsr #24
     264:	e1c130b0 	strh	r3, [r1]
     268:	eafffff0 	b	0x230
     26c:	e92d40f0 	push	{r4, r5, r6, r7, lr}
     270:	e1d040f0 	ldrsh	r4, [r0]
     274:	e3140080 	tst	r4, #128	; 0x80
     278:	e24dd00c 	sub	sp, sp, #12
     27c:	1204607f 	andne	r6, r4, #127	; 0x7f
     280:	1a000013 	bne	0x2d4
     284:	e1a05001 	mov	r5, r1
     288:	e1a011a4 	lsr	r1, r4, #3
     28c:	e201100f 	and	r1, r1, #15
     290:	e2142007 	ands	r2, r4, #7
     294:	e1813201 	orr	r3, r1, r1, lsl #4
     298:	e1a07000 	mov	r7, r0
     29c:	e1d513b8 	ldrh	r1, [r5, #56]	; 0x38
     2a0:	0a00000f 	beq	0x2e4
     2a4:	e3520001 	cmp	r2, #1
     2a8:	0a00001e 	beq	0x328
     2ac:	e1a06004 	mov	r6, r4
     2b0:	e1a00804 	lsl	r0, r4, #16
     2b4:	e1a00820 	lsr	r0, r0, #16
     2b8:	eb0006af 	bl	0x1d7c
     2bc:	e206607f 	and	r6, r6, #127	; 0x7f
     2c0:	e3c440ff 	bic	r4, r4, #255	; 0xff
     2c4:	e1864004 	orr	r4, r6, r4
     2c8:	e3844080 	orr	r4, r4, #128	; 0x80
     2cc:	e1c503b8 	strh	r0, [r5, #56]	; 0x38
     2d0:	e1c740b0 	strh	r4, [r7]
     2d4:	e1a00006 	mov	r0, r6
     2d8:	e28dd00c 	add	sp, sp, #12
     2dc:	e8bd40f0 	pop	{r4, r5, r6, r7, lr}
     2e0:	e12fff1e 	bx	lr
     2e4:	e3530022 	cmp	r3, #34	; 0x22
     2e8:	b3a03022 	movlt	r3, #34	; 0x22
     2ec:	e58d1004 	str	r1, [sp, #4]
     2f0:	e58d3000 	str	r3, [sp]
     2f4:	e1d530f2 	ldrsh	r3, [r5, #2]
     2f8:	e1d520f0 	ldrsh	r2, [r5]
     2fc:	e5951014 	ldr	r1, [r5, #20]
     300:	e5950018 	ldr	r0, [r5, #24]
     304:	eb000608 	bl	0x1b2c
     308:	e1d533be 	ldrh	r3, [r5, #62]	; 0x3e
     30c:	e1a06800 	lsl	r6, r0, #16
     310:	e3530000 	cmp	r3, #0
     314:	e1a06846 	asr	r6, r6, #16
     318:	1a00000b 	bne	0x34c
     31c:	e1c503be 	strh	r0, [r5, #62]	; 0x3e
     320:	e1d513b8 	ldrh	r1, [r5, #56]	; 0x38
     324:	eaffffe3 	b	0x2b8
     328:	e1a02001 	mov	r2, r1
     32c:	e2850028 	add	r0, r5, #40	; 0x28
     330:	e1a01003 	mov	r1, r3
     334:	eb0004bd 	bl	0x1630
     338:	e1d533bc 	ldrh	r3, [r5, #60]	; 0x3c
     33c:	e3530000 	cmp	r3, #0
     340:	e1a06800 	lsl	r6, r0, #16
     344:	01c503bc 	strheq	r0, [r5, #60]	; 0x3c
     348:	e1a06846 	asr	r6, r6, #16
     34c:	e1d513b8 	ldrh	r1, [r5, #56]	; 0x38
     350:	eaffffd8 	b	0x2b8
     354:	e92d4070 	push	{r4, r5, r6, lr}
     358:	e1a06001 	mov	r6, r1
     35c:	e1a01002 	mov	r1, r2
     360:	e1a04002 	mov	r4, r2
     364:	ebffffc0 	bl	0x26c
     368:	e1a01004 	mov	r1, r4
     36c:	e1a05000 	mov	r5, r0
     370:	e1a00006 	mov	r0, r6
     374:	ebffffbc 	bl	0x26c
     378:	e0450000 	sub	r0, r5, r0
     37c:	e8bd4070 	pop	{r4, r5, r6, lr}
     380:	e12fff1e 	bx	lr
     384:	e1d120f0 	ldrsh	r2, [r1]
     388:	e1d130f2 	ldrsh	r3, [r1, #2]
     38c:	e1c020b0 	strh	r2, [r0]
     390:	e1c030b2 	strh	r3, [r0, #2]
     394:	e12fff1e 	bx	lr
     398:	e92d4070 	push	{r4, r5, r6, lr}
     39c:	e592c000 	ldr	ip, [r2]
     3a0:	e59d4010 	ldr	r4, [sp, #16]
     3a4:	e28ce008 	add	lr, ip, #8
     3a8:	e15e0004 	cmp	lr, r4
     3ac:	2a000014 	bcs	0x404
     3b0:	e5934000 	ldr	r4, [r3]
     3b4:	e59d6014 	ldr	r6, [sp, #20]
     3b8:	e2845004 	add	r5, r4, #4
     3bc:	e1560005 	cmp	r6, r5
     3c0:	9a00000f 	bls	0x404
     3c4:	e582e000 	str	lr, [r2]
     3c8:	e5902000 	ldr	r2, [r0]
     3cc:	e58c2000 	str	r2, [ip]
     3d0:	e580c000 	str	ip, [r0]
     3d4:	e58c4004 	str	r4, [ip, #4]
     3d8:	e5932000 	ldr	r2, [r3]
     3dc:	e2822004 	add	r2, r2, #4
     3e0:	e5832000 	str	r2, [r3]
     3e4:	e1d100f0 	ldrsh	r0, [r1]
     3e8:	e59c3004 	ldr	r3, [ip, #4]
     3ec:	e1d120f2 	ldrsh	r2, [r1, #2]
     3f0:	e8bd4070 	pop	{r4, r5, r6, lr}
     3f4:	e1c300b0 	strh	r0, [r3]
     3f8:	e1c320b2 	strh	r2, [r3, #2]
     3fc:	e1a0000c 	mov	r0, ip
     400:	e12fff1e 	bx	lr
     404:	e3a0c000 	mov	ip, #0
     408:	e8bd4070 	pop	{r4, r5, r6, lr}
     40c:	e1a0000c 	mov	r0, ip
     410:	e12fff1e 	bx	lr
     414:	e1a02000 	mov	r2, r0
     418:	e3a01000 	mov	r1, #0
     41c:	e5903000 	ldr	r3, [r0]
     420:	e52de004 	push	{lr}		; (str lr, [sp, #-4]!)
     424:	e5900004 	ldr	r0, [r0, #4]
     428:	e8935000 	ldm	r3, {ip, lr}
     42c:	e582e004 	str	lr, [r2, #4]
     430:	e5830004 	str	r0, [r3, #4]
     434:	e49de004 	pop	{lr}		; (ldr lr, [sp], #4)
     438:	e1a00003 	mov	r0, r3
     43c:	e582c000 	str	ip, [r2]
     440:	e5831000 	str	r1, [r3]
     444:	e12fff1e 	bx	lr
     448:	e590c004 	ldr	ip, [r0, #4]
     44c:	e5912000 	ldr	r2, [r1]
     450:	e52de004 	push	{lr}		; (str lr, [sp, #-4]!)
     454:	e591e004 	ldr	lr, [r1, #4]
     458:	e580e004 	str	lr, [r0, #4]
     45c:	e581c004 	str	ip, [r1, #4]
     460:	e49de004 	pop	{lr}		; (ldr lr, [sp], #4)
     464:	e5802000 	str	r2, [r0]
     468:	e5810000 	str	r0, [r1]
     46c:	e12fff1e 	bx	lr
     470:	e1d120f2 	ldrsh	r2, [r1, #2]
     474:	e3520000 	cmp	r2, #0
     478:	ba000009 	blt	0x4a4
     47c:	e3500000 	cmp	r0, #0
     480:	012fff1e 	bxeq	lr
     484:	e5903004 	ldr	r3, [r0, #4]
     488:	e1d330f2 	ldrsh	r3, [r3, #2]
     48c:	e1530002 	cmp	r3, r2
     490:	012fff1e 	bxeq	lr
     494:	e5900000 	ldr	r0, [r0]
     498:	e3500000 	cmp	r0, #0
     49c:	1afffff8 	bne	0x484
     4a0:	e12fff1e 	bx	lr
     4a4:	e3500000 	cmp	r0, #0
     4a8:	012fff1e 	bxeq	lr
     4ac:	e5903004 	ldr	r3, [r0, #4]
     4b0:	e1d120f0 	ldrsh	r2, [r1]
     4b4:	e5d33000 	ldrb	r3, [r3]
     4b8:	e1530002 	cmp	r3, r2
     4bc:	012fff1e 	bxeq	lr
     4c0:	e5900000 	ldr	r0, [r0]
     4c4:	e3500000 	cmp	r0, #0
     4c8:	012fff1e 	bxeq	lr
     4cc:	e5903004 	ldr	r3, [r0, #4]
     4d0:	e5d33000 	ldrb	r3, [r3]
     4d4:	e1530002 	cmp	r3, r2
     4d8:	1afffff8 	bne	0x4c0
     4dc:	e12fff1e 	bx	lr
     4e0:	e3500000 	cmp	r0, #0
     4e4:	012fff1e 	bxeq	lr
     4e8:	e3a02000 	mov	r2, #0
     4ec:	e5903000 	ldr	r3, [r0]
     4f0:	e3530000 	cmp	r3, #0
     4f4:	e5802000 	str	r2, [r0]
     4f8:	e1a02000 	mov	r2, r0
     4fc:	012fff1e 	bxeq	lr
     500:	e1a00003 	mov	r0, r3
     504:	eafffff8 	b	0x4ec
     508:	e92d4ff0 	push	{r4, r5, r6, r7, r8, r9, sl, fp, lr}
     50c:	e1a04000 	mov	r4, r0
     510:	e1a0b001 	mov	fp, r1
     514:	e3a08001 	mov	r8, #1
     518:	e24dd014 	sub	sp, sp, #20
     51c:	e58d200c 	str	r2, [sp, #12]
     520:	e3540000 	cmp	r4, #0
     524:	0a00003d 	beq	0x620
     528:	e3a03000 	mov	r3, #0
     52c:	e1a09003 	mov	r9, r3
     530:	e1a06003 	mov	r6, r3
     534:	e58d3004 	str	r3, [sp, #4]
     538:	e1a02004 	mov	r2, r4
     53c:	e3a05000 	mov	r5, #0
     540:	e59d3004 	ldr	r3, [sp, #4]
     544:	e2833001 	add	r3, r3, #1
     548:	e58d3004 	str	r3, [sp, #4]
     54c:	e5922000 	ldr	r2, [r2]
     550:	e3520000 	cmp	r2, #0
     554:	e2855001 	add	r5, r5, #1
     558:	0a000001 	beq	0x564
     55c:	e1580005 	cmp	r8, r5
     560:	1afffff9 	bne	0x54c
     564:	e1a0a004 	mov	sl, r4
     568:	e1a07008 	mov	r7, r8
     56c:	e58d8008 	str	r8, [sp, #8]
     570:	e1a04002 	mov	r4, r2
     574:	e1a0800a 	mov	r8, sl
     578:	e59da00c 	ldr	sl, [sp, #12]
     57c:	ea000010 	b	0x5c4
     580:	e3540000 	cmp	r4, #0
     584:	13570000 	cmpne	r7, #0
     588:	0a000016 	beq	0x5e8
     58c:	e1a0200a 	mov	r2, sl
     590:	e5941004 	ldr	r1, [r4, #4]
     594:	e5980004 	ldr	r0, [r8, #4]
     598:	e1a0e00f 	mov	lr, pc
     59c:	e12fff1b 	bx	fp
     5a0:	e3500000 	cmp	r0, #0
     5a4:	da00000f 	ble	0x5e8
     5a8:	e1a02004 	mov	r2, r4
     5ac:	e5944000 	ldr	r4, [r4]
     5b0:	e2477001 	sub	r7, r7, #1
     5b4:	e3560000 	cmp	r6, #0
     5b8:	15862000 	strne	r2, [r6]
     5bc:	01a09002 	moveq	r9, r2
     5c0:	e1a06002 	mov	r6, r2
     5c4:	e3550000 	cmp	r5, #0
     5c8:	1affffec 	bne	0x580
     5cc:	e3540000 	cmp	r4, #0
     5d0:	13570000 	cmpne	r7, #0
     5d4:	da000007 	ble	0x5f8
     5d8:	e1a02004 	mov	r2, r4
     5dc:	e2477001 	sub	r7, r7, #1
     5e0:	e5944000 	ldr	r4, [r4]
     5e4:	eafffff2 	b	0x5b4
     5e8:	e1a02008 	mov	r2, r8
     5ec:	e2455001 	sub	r5, r5, #1
     5f0:	e5988000 	ldr	r8, [r8]
     5f4:	eaffffee 	b	0x5b4
     5f8:	e3540000 	cmp	r4, #0
     5fc:	e59d8008 	ldr	r8, [sp, #8]
     600:	1affffcc 	bne	0x538
     604:	e59d3004 	ldr	r3, [sp, #4]
     608:	e3530001 	cmp	r3, #1
     60c:	e5864000 	str	r4, [r6]
     610:	0a000004 	beq	0x628
     614:	e1a08088 	lsl	r8, r8, #1
     618:	e1a04009 	mov	r4, r9
     61c:	eaffffbf 	b	0x520
     620:	e5844000 	str	r4, [r4]
     624:	e7f000f0 	udf	#0
     628:	e1a00009 	mov	r0, r9
     62c:	e28dd014 	add	sp, sp, #20
     630:	e8bd4ff0 	pop	{r4, r5, r6, r7, r8, r9, sl, fp, lr}
     634:	e12fff1e 	bx	lr
     638:	e92d4ff0 	push	{r4, r5, r6, r7, r8, r9, sl, fp, lr}
     63c:	e3a05000 	mov	r5, #0
     640:	e1d090f4 	ldrsh	r9, [r0, #4]
     644:	e24dd014 	sub	sp, sp, #20
     648:	e1590005 	cmp	r9, r5
     64c:	e58d0004 	str	r0, [sp, #4]
     650:	e58d1000 	str	r1, [sp]
     654:	e1cd10be 	strh	r1, [sp, #14]
     658:	e5904024 	ldr	r4, [r0, #36]	; 0x24
     65c:	e1cd50bc 	strh	r5, [sp, #12]
     660:	da00007d 	ble	0x85c
     664:	e1a0a001 	mov	sl, r1
     668:	e1a07005 	mov	r7, r5
     66c:	e1a06005 	mov	r6, r5
     670:	e1a0b005 	mov	fp, r5
     674:	e28d800c 	add	r8, sp, #12
     678:	e205c0ff 	and	ip, r5, #255	; 0xff
     67c:	e1a01008 	mov	r1, r8
     680:	e1a00004 	mov	r0, r4
     684:	e1cdc0bc 	strh	ip, [sp, #12]
     688:	ebffff78 	bl	0x470
     68c:	e3540000 	cmp	r4, #0
     690:	0a000007 	beq	0x6b4
     694:	e3a0c000 	mov	ip, #0
     698:	ea000000 	b	0x6a0
     69c:	e1a04001 	mov	r4, r1
     6a0:	e5941000 	ldr	r1, [r4]
     6a4:	e3510000 	cmp	r1, #0
     6a8:	e584c000 	str	ip, [r4]
     6ac:	e1a0c004 	mov	ip, r4
     6b0:	1afffff9 	bne	0x69c
     6b4:	e3500000 	cmp	r0, #0
     6b8:	0a00001a 	beq	0x728
     6bc:	e5901004 	ldr	r1, [r0, #4]
     6c0:	e1d110f0 	ldrsh	r1, [r1]
     6c4:	e3110001 	tst	r1, #1
     6c8:	11a01b01 	lslne	r1, r1, #22
     6cc:	108b2fa1 	addne	r2, fp, r1, lsr #31
     6d0:	e5901000 	ldr	r1, [r0]
     6d4:	11a0b802 	lslne	fp, r2, #16
     6d8:	11a0b82b 	lsrne	fp, fp, #16
     6dc:	e3510000 	cmp	r1, #0
     6e0:	1591c000 	ldrne	ip, [r1]
     6e4:	1580c000 	strne	ip, [r0]
     6e8:	15940000 	ldrne	r0, [r4]
     6ec:	e2866001 	add	r6, r6, #1
     6f0:	e1a06806 	lsl	r6, r6, #16
     6f4:	15810000 	strne	r0, [r1]
     6f8:	15841000 	strne	r1, [r4]
     6fc:	e1a06826 	lsr	r6, r6, #16
     700:	e35a0000 	cmp	sl, #0
     704:	a28a3001 	addge	r3, sl, #1
     708:	e2855001 	add	r5, r5, #1
     70c:	a1cd30be 	strhge	r3, [sp, #14]
     710:	e1a03805 	lsl	r3, r5, #16
     714:	e1a03843 	asr	r3, r3, #16
     718:	e1590003 	cmp	r9, r3
     71c:	da00000c 	ble	0x754
     720:	e1dda0fe 	ldrsh	sl, [sp, #14]
     724:	eaffffd3 	b	0x678
     728:	e5941000 	ldr	r1, [r4]
     72c:	e5911004 	ldr	r1, [r1, #4]
     730:	e1d110d1 	ldrsb	r1, [r1, #1]
     734:	e2011001 	and	r1, r1, #1
     738:	e2877001 	add	r7, r7, #1
     73c:	e08b2001 	add	r2, fp, r1
     740:	e1a07807 	lsl	r7, r7, #16
     744:	e1a0b802 	lsl	fp, r2, #16
     748:	e1a07827 	lsr	r7, r7, #16
     74c:	e1a0b82b 	lsr	fp, fp, #16
     750:	eaffffea 	b	0x700
     754:	e0675106 	rsb	r5, r7, r6, lsl #2
     758:	e08b2005 	add	r2, fp, r5
     75c:	e1a05802 	lsl	r5, r2, #16
     760:	e1a05825 	lsr	r5, r5, #16
     764:	e59d3000 	ldr	r3, [sp]
     768:	e3530000 	cmp	r3, #0
     76c:	da000004 	ble	0x784
     770:	e1a00004 	mov	r0, r4
     774:	e59d2004 	ldr	r2, [sp, #4]
     778:	e59f10e4 	ldr	r1, [pc, #228]	; 0x864
     77c:	ebffff61 	bl	0x508
     780:	e1a04000 	mov	r4, r0
     784:	e3a02000 	mov	r2, #0
     788:	e5943000 	ldr	r3, [r4]
     78c:	e8930280 	ldm	r3, {r7, r9}
     790:	e5970004 	ldr	r0, [r7, #4]
     794:	e5830004 	str	r0, [r3, #4]
     798:	e5970000 	ldr	r0, [r7]
     79c:	e5879004 	str	r9, [r7, #4]
     7a0:	e1a01008 	mov	r1, r8
     7a4:	e5830000 	str	r0, [r3]
     7a8:	e1a00004 	mov	r0, r4
     7ac:	e5872000 	str	r2, [r7]
     7b0:	ebffff2e 	bl	0x470
     7b4:	e2506000 	subs	r6, r0, #0
     7b8:	0a000023 	beq	0x84c
     7bc:	e5943004 	ldr	r3, [r4, #4]
     7c0:	e1a01005 	mov	r1, r5
     7c4:	e1d300f0 	ldrsh	r0, [r3]
     7c8:	eb000593 	bl	0x1e1c
     7cc:	e5966000 	ldr	r6, [r6]
     7d0:	e3560000 	cmp	r6, #0
     7d4:	e1a05000 	mov	r5, r0
     7d8:	1afffff7 	bne	0x7bc
     7dc:	e5946000 	ldr	r6, [r4]
     7e0:	e5979004 	ldr	r9, [r7, #4]
     7e4:	e5962004 	ldr	r2, [r6, #4]
     7e8:	e5963000 	ldr	r3, [r6]
     7ec:	e1a00004 	mov	r0, r4
     7f0:	e5872004 	str	r2, [r7, #4]
     7f4:	e59f106c 	ldr	r1, [pc, #108]	; 0x868
     7f8:	e5869004 	str	r9, [r6, #4]
     7fc:	e3a02000 	mov	r2, #0
     800:	e5873000 	str	r3, [r7]
     804:	e5867000 	str	r7, [r6]
     808:	ebffff3e 	bl	0x508
     80c:	e5904000 	ldr	r4, [r0]
     810:	e3540000 	cmp	r4, #0
     814:	e1a06000 	mov	r6, r0
     818:	0a000007 	beq	0x83c
     81c:	e5963004 	ldr	r3, [r6, #4]
     820:	e1a01005 	mov	r1, r5
     824:	e1d300f0 	ldrsh	r0, [r3]
     828:	eb00057b 	bl	0x1e1c
     82c:	e5944000 	ldr	r4, [r4]
     830:	e3540000 	cmp	r4, #0
     834:	e1a05000 	mov	r5, r0
     838:	1afffff7 	bne	0x81c
     83c:	e1a00005 	mov	r0, r5
     840:	e28dd014 	add	sp, sp, #20
     844:	e8bd4ff0 	pop	{r4, r5, r6, r7, r8, r9, sl, fp, lr}
     848:	e12fff1e 	bx	lr
     84c:	e5946000 	ldr	r6, [r4]
     850:	e3560000 	cmp	r6, #0
     854:	1affffd8 	bne	0x7bc
     858:	eaffffe1 	b	0x7e4
     85c:	e28d800c 	add	r8, sp, #12
     860:	eaffffbf 	b	0x764
     864:	08000354 	stmdaeq	r0, {r2, r4, r6, r8, r9}
     868:	08000228 	stmdaeq	r0, {r3, r5, r9}
     86c:	e3a03000 	mov	r3, #0
     870:	e92d4ff0 	push	{r4, r5, r6, r7, r8, r9, sl, fp, lr}
     874:	e59f6180 	ldr	r6, [pc, #384]	; 0x9fc
     878:	e08ec690 	umull	ip, lr, r0, r6
     87c:	e1a0622e 	lsr	r6, lr, #4
     880:	e2467002 	sub	r7, r6, #2
     884:	e1a00187 	lsl	r0, r7, #3
     888:	e0819000 	add	r9, r1, r0
     88c:	e59fc16c 	ldr	ip, [pc, #364]	; 0xa00
     890:	e281e010 	add	lr, r1, #16
     894:	e24dd00c 	sub	sp, sp, #12
     898:	e159000e 	cmp	r9, lr
     89c:	e8810208 	stm	r1, {r3, r9}
     8a0:	e58d2004 	str	r2, [sp, #4]
     8a4:	e1c930b2 	strh	r3, [r9, #2]
     8a8:	e089a107 	add	sl, r9, r7, lsl #2
     8ac:	e181c0b0 	strh	ip, [r1, r0]
     8b0:	e2892004 	add	r2, r9, #4
     8b4:	e281c008 	add	ip, r1, #8
     8b8:	9a00004b 	bls	0x9ec
     8bc:	e2895008 	add	r5, r9, #8
     8c0:	e15a0005 	cmp	sl, r5
     8c4:	9a000048 	bls	0x9ec
     8c8:	e3e04000 	mvn	r4, #0
     8cc:	e3e00902 	mvn	r0, #32768	; 0x8000
     8d0:	e5813008 	str	r3, [r1, #8]
     8d4:	e581c000 	str	ip, [r1]
     8d8:	e581200c 	str	r2, [r1, #12]
     8dc:	e1c940b4 	strh	r4, [r9, #4]
     8e0:	e1c900b6 	strh	r0, [r9, #6]
     8e4:	e3570000 	cmp	r7, #0
     8e8:	0a00001f 	beq	0x96c
     8ec:	e3a04000 	mov	r4, #0
     8f0:	e3e0b902 	mvn	fp, #32768	; 0x8000
     8f4:	e1a06007 	mov	r6, r7
     8f8:	e59d3004 	ldr	r3, [sp, #4]
     8fc:	e1a00803 	lsl	r0, r3, #16
     900:	e1a00820 	lsr	r0, r0, #16
     904:	e1a02804 	lsl	r2, r4, #16
     908:	e1a02822 	lsr	r2, r2, #16
     90c:	e0223000 	eor	r3, r2, r0
     910:	e1a03183 	lsl	r3, r3, #3
     914:	e2033078 	and	r3, r3, #120	; 0x78
     918:	e2022007 	and	r2, r2, #7
     91c:	e28e7008 	add	r7, lr, #8
     920:	e1832002 	orr	r2, r3, r2
     924:	e1590007 	cmp	r9, r7
     928:	e2844001 	add	r4, r4, #1
     92c:	e2858004 	add	r8, r5, #4
     930:	e1822402 	orr	r2, r2, r2, lsl #8
     934:	9a000009 	bls	0x960
     938:	e15a0008 	cmp	sl, r8
     93c:	9a000007 	bls	0x960
     940:	e58ec000 	str	ip, [lr]
     944:	e581e000 	str	lr, [r1]
     948:	e1a0c00e 	mov	ip, lr
     94c:	e58e5004 	str	r5, [lr, #4]
     950:	e1c520b0 	strh	r2, [r5]
     954:	e1c5b0b2 	strh	fp, [r5, #2]
     958:	e1a0e007 	mov	lr, r7
     95c:	e1a05008 	mov	r5, r8
     960:	e1560004 	cmp	r6, r4
     964:	1affffe6 	bne	0x904
     968:	e1a07006 	mov	r7, r6
     96c:	e59c3000 	ldr	r3, [ip]
     970:	e3530000 	cmp	r3, #0
     974:	0a000016 	beq	0x9d4
     978:	e3a02001 	mov	r2, #1
     97c:	e59f3078 	ldr	r3, [pc, #120]	; 0x9fc
     980:	e0860793 	umull	r0, r6, r3, r7
     984:	e59fe078 	ldr	lr, [pc, #120]	; 0xa04
     988:	e59d4004 	ldr	r4, [sp, #4]
     98c:	e1a06126 	lsr	r6, r6, #2
     990:	e1560002 	cmp	r6, r2
     994:	91a00802 	lslls	r0, r2, #16
     998:	91a00820 	lsrls	r0, r0, #16
     99c:	92803001 	addls	r3, r0, #1
     9a0:	91a03403 	lslls	r3, r3, #8
     9a4:	92033c07 	andls	r3, r3, #1792	; 0x700
     9a8:	90200004 	eorls	r0, r0, r4
     9ac:	91833000 	orrls	r3, r3, r0
     9b0:	e59c5004 	ldr	r5, [ip, #4]
     9b4:	e59cc000 	ldr	ip, [ip]
     9b8:	9003300e 	andls	r3, r3, lr
     9bc:	91c530b2 	strhls	r3, [r5, #2]
     9c0:	e59c3000 	ldr	r3, [ip]
     9c4:	81c520b2 	strhhi	r2, [r5, #2]
     9c8:	e3530000 	cmp	r3, #0
     9cc:	e2822001 	add	r2, r2, #1
     9d0:	1affffee 	bne	0x990
     9d4:	e1a00001 	mov	r0, r1
     9d8:	e3a02000 	mov	r2, #0
     9dc:	e59f1024 	ldr	r1, [pc, #36]	; 0xa08
     9e0:	e28dd00c 	add	sp, sp, #12
     9e4:	e8bd4ff0 	pop	{r4, r5, r6, r7, r8, r9, sl, fp, lr}
     9e8:	eafffec6 	b	0x508
     9ec:	e1a0e00c 	mov	lr, ip
     9f0:	e1a05002 	mov	r5, r2
     9f4:	e1a0c003 	mov	ip, r3
     9f8:	eaffffb9 	b	0x8e4
     9fc:	cccccccd 	stclgt	12, cr12, [ip], {205}	; 0xcd
     a00:	ffff8080 			; <UNDEFINED> instruction: 0xffff8080
     a04:	00003fff 			; <UNDEFINED> instruction: 0x00003fff
     a08:	08000228 	stmdaeq	r0, {r3, r5, r9}
     a0c:	e92d000f 	push	{r0, r1, r2, r3}
     a10:	e92d4ff0 	push	{r4, r5, r6, r7, r8, r9, sl, fp, lr}
     a14:	e3a0b000 	mov	fp, #0
     a18:	e24dd00c 	sub	sp, sp, #12
     a1c:	e28d3034 	add	r3, sp, #52	; 0x34
     a20:	e58d3004 	str	r3, [sp, #4]
     a24:	e59f82e4 	ldr	r8, [pc, #740]	; 0xd10
     a28:	e59d1030 	ldr	r1, [sp, #48]	; 0x30
     a2c:	e59f32e0 	ldr	r3, [pc, #736]	; 0xd14
     a30:	e59f62e0 	ldr	r6, [pc, #736]	; 0xd18
     a34:	e5d10000 	ldrb	r0, [r1]
     a38:	e3500000 	cmp	r0, #0
     a3c:	0a000026 	beq	0xadc
     a40:	e3500025 	cmp	r0, #37	; 0x25
     a44:	1a000028 	bne	0xaec
     a48:	e5d12001 	ldrb	r2, [r1, #1]
     a4c:	e3520064 	cmp	r2, #100	; 0x64
     a50:	e2811002 	add	r1, r1, #2
     a54:	0a00003a 	beq	0xb44
     a58:	9a00002d 	bls	0xb14
     a5c:	e3520073 	cmp	r2, #115	; 0x73
     a60:	0a000052 	beq	0xbb0
     a64:	e3520075 	cmp	r2, #117	; 0x75
     a68:	1afffff1 	bne	0xa34
     a6c:	e59d2004 	ldr	r2, [sp, #4]
     a70:	e592c000 	ldr	ip, [r2]
     a74:	e2822004 	add	r2, r2, #4
     a78:	e35c0000 	cmp	ip, #0
     a7c:	e58d2004 	str	r2, [sp, #4]
     a80:	1a00005d 	bne	0xbfc
     a84:	e3a02030 	mov	r2, #48	; 0x30
     a88:	e3a07001 	mov	r7, #1
     a8c:	e5c82000 	strb	r2, [r8]
     a90:	e7c8b007 	strb	fp, [r8, r7]
     a94:	e5d8c000 	ldrb	ip, [r8]
     a98:	e35c0000 	cmp	ip, #0
     a9c:	0affffe4 	beq	0xa34
     aa0:	e59fe274 	ldr	lr, [pc, #628]	; 0xd1c
     aa4:	e5d32001 	ldrb	r2, [r3, #1]
     aa8:	e2020001 	and	r0, r2, #1
     aac:	e15000a2 	cmp	r0, r2, lsr #1
     ab0:	1afffffb 	bne	0xaa4
     ab4:	e5c3c000 	strb	ip, [r3]
     ab8:	e5d32001 	ldrb	r2, [r3, #1]
     abc:	e2222001 	eor	r2, r2, #1
     ac0:	e5c32001 	strb	r2, [r3, #1]
     ac4:	e4dec001 	ldrb	ip, [lr], #1
     ac8:	e35c0000 	cmp	ip, #0
     acc:	1afffff4 	bne	0xaa4
     ad0:	e5d10000 	ldrb	r0, [r1]
     ad4:	e3500000 	cmp	r0, #0
     ad8:	1affffd8 	bne	0xa40
     adc:	e28dd00c 	add	sp, sp, #12
     ae0:	e8bd4ff0 	pop	{r4, r5, r6, r7, r8, r9, sl, fp, lr}
     ae4:	e28dd010 	add	sp, sp, #16
     ae8:	e12fff1e 	bx	lr
     aec:	e5d32001 	ldrb	r2, [r3, #1]
     af0:	e202c001 	and	ip, r2, #1
     af4:	e15c00a2 	cmp	ip, r2, lsr #1
     af8:	1afffffb 	bne	0xaec
     afc:	e5c30000 	strb	r0, [r3]
     b00:	e5d32001 	ldrb	r2, [r3, #1]
     b04:	e2222001 	eor	r2, r2, #1
     b08:	e5c32001 	strb	r2, [r3, #1]
     b0c:	e2811001 	add	r1, r1, #1
     b10:	eaffffc7 	b	0xa34
     b14:	e3520025 	cmp	r2, #37	; 0x25
     b18:	1affffc5 	bne	0xa34
     b1c:	e5d32001 	ldrb	r2, [r3, #1]
     b20:	e2020001 	and	r0, r2, #1
     b24:	e15000a2 	cmp	r0, r2, lsr #1
     b28:	1afffffb 	bne	0xb1c
     b2c:	e3a02025 	mov	r2, #37	; 0x25
     b30:	e5c32000 	strb	r2, [r3]
     b34:	e5d32001 	ldrb	r2, [r3, #1]
     b38:	e2222001 	eor	r2, r2, #1
     b3c:	e5c32001 	strb	r2, [r3, #1]
     b40:	eaffffbb 	b	0xa34
     b44:	e59d2004 	ldr	r2, [sp, #4]
     b48:	e5920000 	ldr	r0, [r2]
     b4c:	e2822004 	add	r2, r2, #4
     b50:	e3500000 	cmp	r0, #0
     b54:	e58d2004 	str	r2, [sp, #4]
     b58:	ba000045 	blt	0xc74
     b5c:	1a000067 	bne	0xd00
     b60:	e3a02030 	mov	r2, #48	; 0x30
     b64:	e59f91b0 	ldr	r9, [pc, #432]	; 0xd1c
     b68:	e5c82000 	strb	r2, [r8]
     b6c:	e5c9b000 	strb	fp, [r9]
     b70:	e5d8c000 	ldrb	ip, [r8]
     b74:	e35c0000 	cmp	ip, #0
     b78:	0affffad 	beq	0xa34
     b7c:	e59fe198 	ldr	lr, [pc, #408]	; 0xd1c
     b80:	e5d32001 	ldrb	r2, [r3, #1]
     b84:	e2020001 	and	r0, r2, #1
     b88:	e15000a2 	cmp	r0, r2, lsr #1
     b8c:	1afffffb 	bne	0xb80
     b90:	e5c3c000 	strb	ip, [r3]
     b94:	e5d32001 	ldrb	r2, [r3, #1]
     b98:	e2222001 	eor	r2, r2, #1
     b9c:	e5c32001 	strb	r2, [r3, #1]
     ba0:	e4dec001 	ldrb	ip, [lr], #1
     ba4:	e35c0000 	cmp	ip, #0
     ba8:	1afffff4 	bne	0xb80
     bac:	eaffffa0 	b	0xa34
     bb0:	e59d2004 	ldr	r2, [sp, #4]
     bb4:	e592e000 	ldr	lr, [r2]
     bb8:	e5dec000 	ldrb	ip, [lr]
     bbc:	e2822004 	add	r2, r2, #4
     bc0:	e35c0000 	cmp	ip, #0
     bc4:	e58d2004 	str	r2, [sp, #4]
     bc8:	0affff99 	beq	0xa34
     bcc:	e5d32001 	ldrb	r2, [r3, #1]
     bd0:	e2020001 	and	r0, r2, #1
     bd4:	e15000a2 	cmp	r0, r2, lsr #1
     bd8:	1afffffb 	bne	0xbcc
     bdc:	e5c3c000 	strb	ip, [r3]
     be0:	e5d32001 	ldrb	r2, [r3, #1]
     be4:	e2222001 	eor	r2, r2, #1
     be8:	e5c32001 	strb	r2, [r3, #1]
     bec:	e5fec001 	ldrb	ip, [lr, #1]!
     bf0:	e35c0000 	cmp	ip, #0
     bf4:	1afffff4 	bne	0xbcc
     bf8:	eaffff8d 	b	0xa34
     bfc:	e59f411c 	ldr	r4, [pc, #284]	; 0xd20
     c00:	e3a0e000 	mov	lr, #0
     c04:	e1a05004 	mov	r5, r4
     c08:	ea000001 	b	0xc14
     c0c:	e1a0e007 	mov	lr, r7
     c10:	e1a0c000 	mov	ip, r0
     c14:	e0802c96 	umull	r2, r0, r6, ip
     c18:	e1a001a0 	lsr	r0, r0, #3
     c1c:	e0802100 	add	r2, r0, r0, lsl #2
     c20:	e04c2082 	sub	r2, ip, r2, lsl #1
     c24:	e2822030 	add	r2, r2, #48	; 0x30
     c28:	e20220ff 	and	r2, r2, #255	; 0xff
     c2c:	e35c0009 	cmp	ip, #9
     c30:	e5e52001 	strb	r2, [r5, #1]!
     c34:	e28e7001 	add	r7, lr, #1
     c38:	8afffff3 	bhi	0xc0c
     c3c:	e35e0000 	cmp	lr, #0
     c40:	0a000030 	beq	0xd08
     c44:	e1a0000e 	mov	r0, lr
     c48:	e088c00e 	add	ip, r8, lr
     c4c:	ea000000 	b	0xc54
     c50:	e57c2001 	ldrb	r2, [ip, #-1]!
     c54:	e2400001 	sub	r0, r0, #1
     c58:	e5f45001 	ldrb	r5, [r4, #1]!
     c5c:	e04e9000 	sub	r9, lr, r0
     c60:	e1500009 	cmp	r0, r9
     c64:	e5c42000 	strb	r2, [r4]
     c68:	e5cc5000 	strb	r5, [ip]
     c6c:	8afffff7 	bhi	0xc50
     c70:	eaffff86 	b	0xa90
     c74:	e3a0202d 	mov	r2, #45	; 0x2d
     c78:	e3a07001 	mov	r7, #1
     c7c:	e5c82000 	strb	r2, [r8]
     c80:	e2600000 	rsb	r0, r0, #0
     c84:	e088e007 	add	lr, r8, r7
     c88:	e1a0500e 	mov	r5, lr
     c8c:	e1a04007 	mov	r4, r7
     c90:	ea000000 	b	0xc98
     c94:	e1a0400c 	mov	r4, ip
     c98:	e08c2096 	umull	r2, ip, r6, r0
     c9c:	e1a0c1ac 	lsr	ip, ip, #3
     ca0:	e08c210c 	add	r2, ip, ip, lsl #2
     ca4:	e0402082 	sub	r2, r0, r2, lsl #1
     ca8:	e2822030 	add	r2, r2, #48	; 0x30
     cac:	e20220ff 	and	r2, r2, #255	; 0xff
     cb0:	e4c52001 	strb	r2, [r5], #1
     cb4:	e25c0000 	subs	r0, ip, #0
     cb8:	e1a09005 	mov	r9, r5
     cbc:	e284c001 	add	ip, r4, #1
     cc0:	1afffff3 	bne	0xc94
     cc4:	e1570004 	cmp	r7, r4
     cc8:	2affffa7 	bcs	0xb6c
     ccc:	e1a00007 	mov	r0, r7
     cd0:	e0885004 	add	r5, r8, r4
     cd4:	ea000000 	b	0xcdc
     cd8:	e5d52000 	ldrb	r2, [r5]
     cdc:	e2800001 	add	r0, r0, #1
     ce0:	e047c000 	sub	ip, r7, r0
     ce4:	e5dea000 	ldrb	sl, [lr]
     ce8:	e08cc004 	add	ip, ip, r4
     cec:	e15c0000 	cmp	ip, r0
     cf0:	e4ce2001 	strb	r2, [lr], #1
     cf4:	e445a001 	strb	sl, [r5], #-1
     cf8:	8afffff6 	bhi	0xcd8
     cfc:	eaffff9a 	b	0xb6c
     d00:	e3a07000 	mov	r7, #0
     d04:	eaffffde 	b	0xc84
     d08:	e3a07001 	mov	r7, #1
     d0c:	eaffff5f 	b	0xa90
     d10:	0300001c 	tsteq	r0, #28
     d14:	04000400 	streq	r0, [r0], #-1024	; 0xfffffc00
     d18:	cccccccd 	stclgt	12, cr12, [ip], {205}	; 0xcd
     d1c:	0300001d 	tsteq	r0, #29
     d20:	0300001b 	tsteq	r0, #27
     d24:	e92d4070 	push	{r4, r5, r6, lr}
     d28:	e3a05000 	mov	r5, #0
     d2c:	e590601c 	ldr	r6, [r0, #28]
     d30:	e1560005 	cmp	r6, r5
     d34:	e5805038 	str	r5, [r0, #56]	; 0x38
     d38:	e580503c 	str	r5, [r0, #60]	; 0x3c
     d3c:	0a000011 	beq	0xd88
     d40:	e1a04000 	mov	r4, r0
     d44:	e3a01001 	mov	r1, #1
     d48:	e1a00004 	mov	r0, r4
     d4c:	ebfffe39 	bl	0x638
     d50:	e1d413b8 	ldrh	r1, [r4, #56]	; 0x38
     d54:	eb000408 	bl	0x1d7c
     d58:	e3e01000 	mvn	r1, #0
     d5c:	e1c403b8 	strh	r0, [r4, #56]	; 0x38
     d60:	e1a00004 	mov	r0, r4
     d64:	ebfffe33 	bl	0x638
     d68:	e1d413b8 	ldrh	r1, [r4, #56]	; 0x38
     d6c:	eb000402 	bl	0x1d7c
     d70:	e3550000 	cmp	r5, #0
     d74:	e2855001 	add	r5, r5, #1
     d78:	01c403ba 	strheq	r0, [r4, #58]	; 0x3a
     d7c:	e1560005 	cmp	r6, r5
     d80:	e1c403b8 	strh	r0, [r4, #56]	; 0x38
     d84:	1affffee 	bne	0xd44
     d88:	e3a00000 	mov	r0, #0
     d8c:	e8bd4070 	pop	{r4, r5, r6, lr}
     d90:	e12fff1e 	bx	lr
     d94:	e92d4ff0 	push	{r4, r5, r6, r7, r8, r9, sl, fp, lr}
     d98:	e2411001 	sub	r1, r1, #1
     d9c:	e24dd014 	sub	sp, sp, #20
     da0:	e3520000 	cmp	r2, #0
     da4:	e3c17003 	bic	r7, r1, #3
     da8:	03a02001 	moveq	r2, #1
     dac:	e58d300c 	str	r3, [sp, #12]
     db0:	e250c000 	subs	ip, r0, #0
     db4:	e2873004 	add	r3, r7, #4
     db8:	e58d3000 	str	r3, [sp]
     dbc:	13a00000 	movne	r0, #0
     dc0:	1a000001 	bne	0xdcc
     dc4:	ea00003b 	b	0xeb8
     dc8:	e1a00003 	mov	r0, r3
     dcc:	e2803001 	add	r3, r0, #1
     dd0:	e0010393 	mul	r1, r3, r3
     dd4:	e15c0181 	cmp	ip, r1, lsl #3
     dd8:	8afffffa 	bhi	0xdc8
     ddc:	e0030090 	mul	r3, r0, r0
     de0:	e59d1000 	ldr	r1, [sp]
     de4:	e1a03083 	lsl	r3, r3, #1
     de8:	e3500000 	cmp	r0, #0
     dec:	e58d3008 	str	r3, [sp, #8]
     df0:	e0818003 	add	r8, r1, r3
     df4:	e58d0004 	str	r0, [sp, #4]
     df8:	0a00001f 	beq	0xe7c
     dfc:	e3a0e001 	mov	lr, #1
     e00:	e3a0a000 	mov	sl, #0
     e04:	e59f60c8 	ldr	r6, [pc, #200]	; 0xed4
     e08:	e1a0be10 	lsl	fp, r0, lr
     e0c:	e2489002 	sub	r9, r8, #2
     e10:	e1a0c009 	mov	ip, r9
     e14:	e3a04000 	mov	r4, #0
     e18:	e002029e 	mul	r2, lr, r2
     e1c:	e2721000 	rsbs	r1, r2, #0
     e20:	e0011006 	and	r1, r1, r6
     e24:	e1a0380e 	lsl	r3, lr, #16
     e28:	e0022006 	and	r2, r2, r6
     e2c:	e1a03823 	lsr	r3, r3, #16
     e30:	52612000 	rsbpl	r2, r1, #0
     e34:	e0831002 	add	r1, r3, r2
     e38:	e1a01801 	lsl	r1, r1, #16
     e3c:	e1a01821 	lsr	r1, r1, #16
     e40:	e08c5007 	add	r5, ip, r7
     e44:	e2844001 	add	r4, r4, #1
     e48:	e0813003 	add	r3, r1, r3
     e4c:	e20330ff 	and	r3, r3, #255	; 0xff
     e50:	e0455008 	sub	r5, r5, r8
     e54:	e1540000 	cmp	r4, r0
     e58:	e1cc10b2 	strh	r1, [ip, #2]
     e5c:	e28ee001 	add	lr, lr, #1
     e60:	e1c530b6 	strh	r3, [r5, #6]
     e64:	e28cc002 	add	ip, ip, #2
     e68:	3affffea 	bcc	0xe18
     e6c:	e28aa001 	add	sl, sl, #1
     e70:	e15a0000 	cmp	sl, r0
     e74:	e089900b 	add	r9, r9, fp
     e78:	3affffe4 	bcc	0xe10
     e7c:	e59d3008 	ldr	r3, [sp, #8]
     e80:	e0883003 	add	r3, r8, r3
     e84:	e2433001 	sub	r3, r3, #1
     e88:	e59d200c 	ldr	r2, [sp, #12]
     e8c:	e3c33003 	bic	r3, r3, #3
     e90:	e2833004 	add	r3, r3, #4
     e94:	e582300c 	str	r3, [r2, #12]
     e98:	e1a03002 	mov	r3, r2
     e9c:	e59d2000 	ldr	r2, [sp]
     ea0:	e9830104 	stmib	r3, {r2, r8}
     ea4:	e59d2004 	ldr	r2, [sp, #4]
     ea8:	e5832000 	str	r2, [r3]
     eac:	e28dd014 	add	sp, sp, #20
     eb0:	e8bd4ff0 	pop	{r4, r5, r6, r7, r8, r9, sl, fp, lr}
     eb4:	e12fff1e 	bx	lr
     eb8:	e3e03000 	mvn	r3, #0
     ebc:	e58d3004 	str	r3, [sp, #4]
     ec0:	e1a00003 	mov	r0, r3
     ec4:	e3a03002 	mov	r3, #2
     ec8:	e2878006 	add	r8, r7, #6
     ecc:	e58d3008 	str	r3, [sp, #8]
     ed0:	eaffffc9 	b	0xdfc
     ed4:	0000ffff 			; <UNDEFINED> instruction: 0x0000ffff
     ed8:	e92d47f0 	push	{r4, r5, r6, r7, r8, r9, sl, lr}
     edc:	e2507000 	subs	r7, r0, #0
     ee0:	0a000022 	beq	0xf70
     ee4:	e3a05000 	mov	r5, #0
     ee8:	e0814107 	add	r4, r1, r7, lsl #2
     eec:	e1a00005 	mov	r0, r5
     ef0:	e1a0a005 	mov	sl, r5
     ef4:	e1a01005 	mov	r1, r5
     ef8:	e0679f07 	rsb	r9, r7, r7, lsl #30
     efc:	e0678e87 	rsb	r8, r7, r7, lsl #29
     f00:	e1a09109 	lsl	r9, r9, #2
     f04:	e1a08188 	lsl	r8, r8, #3
     f08:	e0896004 	add	r6, r9, r4
     f0c:	e1a0e006 	mov	lr, r6
     f10:	e1a03800 	lsl	r3, r0, #16
     f14:	e49ec004 	ldr	ip, [lr], #4
     f18:	e1a03823 	lsr	r3, r3, #16
     f1c:	e081100c 	add	r1, r1, ip
     f20:	e283000a 	add	r0, r3, #10
     f24:	e1520001 	cmp	r2, r1
     f28:	e1a00800 	lsl	r0, r0, #16
     f2c:	b1a00840 	asrlt	r0, r0, #16
     f30:	b3a01000 	movlt	r1, #0
     f34:	ba000004 	blt	0xf4c
     f38:	e15c000a 	cmp	ip, sl
     f3c:	d1a00003 	movle	r0, r3
     f40:	c2830001 	addgt	r0, r3, #1
     f44:	e1a00800 	lsl	r0, r0, #16
     f48:	e1a00840 	asr	r0, r0, #16
     f4c:	e154000e 	cmp	r4, lr
     f50:	e1a0a00c 	mov	sl, ip
     f54:	1affffed 	bne	0xf10
     f58:	e2855001 	add	r5, r5, #1
     f5c:	e1570005 	cmp	r7, r5
     f60:	e0464008 	sub	r4, r6, r8
     f64:	1affffe7 	bne	0xf08
     f68:	e8bd47f0 	pop	{r4, r5, r6, r7, r8, r9, sl, lr}
     f6c:	e12fff1e 	bx	lr
     f70:	e1a00007 	mov	r0, r7
     f74:	e8bd47f0 	pop	{r4, r5, r6, r7, r8, r9, sl, lr}
     f78:	e12fff1e 	bx	lr
     f7c:	e3500000 	cmp	r0, #0
     f80:	012fff1e 	bxeq	lr
     f84:	e92d47f0 	push	{r4, r5, r6, r7, r8, r9, sl, lr}
     f88:	e3a05000 	mov	r5, #0
     f8c:	e0608f80 	rsb	r8, r0, r0, lsl #31
     f90:	e0607f00 	rsb	r7, r0, r0, lsl #30
     f94:	e2414004 	sub	r4, r1, #4
     f98:	e082e080 	add	lr, r2, r0, lsl #1
     f9c:	e1a08088 	lsl	r8, r8, #1
     fa0:	e1a07107 	lsl	r7, r7, #2
     fa4:	e1a09100 	lsl	r9, r0, #2
     fa8:	e08e6008 	add	r6, lr, r8
     fac:	e1a01006 	mov	r1, r6
     fb0:	e1a0c004 	mov	ip, r4
     fb4:	e0d1a0f2 	ldrsh	sl, [r1], #2
     fb8:	e0020a93 	mul	r2, r3, sl
     fbc:	e151000e 	cmp	r1, lr
     fc0:	e5ac2004 	str	r2, [ip, #4]!
     fc4:	1afffffa 	bne	0xfb4
     fc8:	e2855001 	add	r5, r5, #1
     fcc:	e1500005 	cmp	r0, r5
     fd0:	e0844009 	add	r4, r4, r9
     fd4:	e046e007 	sub	lr, r6, r7
     fd8:	1afffff2 	bne	0xfa8
     fdc:	e8bd47f0 	pop	{r4, r5, r6, r7, r8, r9, sl, lr}
     fe0:	e12fff1e 	bx	lr
     fe4:	e3500000 	cmp	r0, #0
     fe8:	012fff1e 	bxeq	lr
     fec:	e92d4070 	push	{r4, r5, r6, lr}
     ff0:	e3a0e000 	mov	lr, #0
     ff4:	e1a0c802 	lsl	ip, r2, #16
     ff8:	e0606f80 	rsb	r6, r0, r0, lsl #31
     ffc:	e0605f00 	rsb	r5, r0, r0, lsl #30
    1000:	e1a0c82c 	lsr	ip, ip, #16
    1004:	e0811080 	add	r1, r1, r0, lsl #1
    1008:	e1a06086 	lsl	r6, r6, #1
    100c:	e1a05105 	lsl	r5, r5, #2
    1010:	e0864001 	add	r4, r6, r1
    1014:	e1a03004 	mov	r3, r4
    1018:	e1d320f0 	ldrsh	r2, [r3]
    101c:	e08c2002 	add	r2, ip, r2
    1020:	e0c320b2 	strh	r2, [r3], #2
    1024:	e1510003 	cmp	r1, r3
    1028:	1afffffa 	bne	0x1018
    102c:	e28ee001 	add	lr, lr, #1
    1030:	e150000e 	cmp	r0, lr
    1034:	e0441005 	sub	r1, r4, r5
    1038:	1afffff4 	bne	0x1010
    103c:	e8bd4070 	pop	{r4, r5, r6, lr}
    1040:	e12fff1e 	bx	lr
    1044:	e3500000 	cmp	r0, #0
    1048:	012fff1e 	bxeq	lr
    104c:	e92d41f0 	push	{r4, r5, r6, r7, r8, lr}
    1050:	e2414004 	sub	r4, r1, #4
    1054:	e2436002 	sub	r6, r3, #2
    1058:	e1a08080 	lsl	r8, r0, #1
    105c:	e2425002 	sub	r5, r2, #2
    1060:	e0847100 	add	r7, r4, r0, lsl #2
    1064:	e086e008 	add	lr, r6, r8
    1068:	e1a03006 	mov	r3, r6
    106c:	e1a01005 	mov	r1, r5
    1070:	e3a02000 	mov	r2, #0
    1074:	e2844004 	add	r4, r4, #4
    1078:	e1f3c0f2 	ldrsh	ip, [r3, #2]!
    107c:	e1f100f2 	ldrsh	r0, [r1, #2]!
    1080:	e15e0003 	cmp	lr, r3
    1084:	e022209c 	mla	r2, ip, r0, r2
    1088:	1afffffa 	bne	0x1078
    108c:	e1540007 	cmp	r4, r7
    1090:	e5842000 	str	r2, [r4]
    1094:	e0855008 	add	r5, r5, r8
    1098:	1afffff2 	bne	0x1068
    109c:	e8bd41f0 	pop	{r4, r5, r6, r7, r8, lr}
    10a0:	e12fff1e 	bx	lr
    10a4:	e92d4ff0 	push	{r4, r5, r6, r7, r8, r9, sl, fp, lr}
    10a8:	e3500000 	cmp	r0, #0
    10ac:	e24dd00c 	sub	sp, sp, #12
    10b0:	e58d3004 	str	r3, [sp, #4]
    10b4:	0a00001d 	beq	0x1130
    10b8:	e1a07002 	mov	r7, r2
    10bc:	e3a0a000 	mov	sl, #0
    10c0:	e1a0b080 	lsl	fp, r0, #1
    10c4:	e083800b 	add	r8, r3, fp
    10c8:	e1a03100 	lsl	r3, r0, #2
    10cc:	e58d3000 	str	r3, [sp]
    10d0:	e2419004 	sub	r9, r1, #4
    10d4:	e082400b 	add	r4, r2, fp
    10d8:	e1a06009 	mov	r6, r9
    10dc:	e59d5004 	ldr	r5, [sp, #4]
    10e0:	e1a01005 	mov	r1, r5
    10e4:	e1a03007 	mov	r3, r7
    10e8:	e3a02000 	mov	r2, #0
    10ec:	e2866004 	add	r6, r6, #4
    10f0:	e0d3e0f2 	ldrsh	lr, [r3], #2
    10f4:	e091c0fb 	ldrsh	ip, [r1], fp
    10f8:	e1540003 	cmp	r4, r3
    10fc:	e0222c9e 	mla	r2, lr, ip, r2
    1100:	1afffffa 	bne	0x10f0
    1104:	e2855002 	add	r5, r5, #2
    1108:	e1580005 	cmp	r8, r5
    110c:	e5862000 	str	r2, [r6]
    1110:	1afffff2 	bne	0x10e0
    1114:	e28aa001 	add	sl, sl, #1
    1118:	e59d3000 	ldr	r3, [sp]
    111c:	e150000a 	cmp	r0, sl
    1120:	e087700b 	add	r7, r7, fp
    1124:	e084400b 	add	r4, r4, fp
    1128:	e0899003 	add	r9, r9, r3
    112c:	1affffe9 	bne	0x10d8
    1130:	e28dd00c 	add	sp, sp, #12
    1134:	e8bd4ff0 	pop	{r4, r5, r6, r7, r8, r9, sl, fp, lr}
    1138:	e12fff1e 	bx	lr
    113c:	e92d4ff0 	push	{r4, r5, r6, r7, r8, r9, sl, fp, lr}
    1140:	e3500000 	cmp	r0, #0
    1144:	e24dd014 	sub	sp, sp, #20
    1148:	e58d300c 	str	r3, [sp, #12]
    114c:	0a000024 	beq	0x11e4
    1150:	e1a07002 	mov	r7, r2
    1154:	e3a0a000 	mov	sl, #0
    1158:	e1a0b080 	lsl	fp, r0, #1
    115c:	e083800b 	add	r8, r3, fp
    1160:	e1a03100 	lsl	r3, r0, #2
    1164:	e58d3008 	str	r3, [sp, #8]
    1168:	e2419004 	sub	r9, r1, #4
    116c:	e082400b 	add	r4, r2, fp
    1170:	e1a06009 	mov	r6, r9
    1174:	e59d500c 	ldr	r5, [sp, #12]
    1178:	e1a0e005 	mov	lr, r5
    117c:	e1a01007 	mov	r1, r7
    1180:	e3a0c000 	mov	ip, #0
    1184:	e58d0004 	str	r0, [sp, #4]
    1188:	e2866004 	add	r6, r6, #4
    118c:	e0d120f2 	ldrsh	r2, [r1], #2
    1190:	e09e30fb 	ldrsh	r3, [lr], fp
    1194:	e0000392 	mul	r0, r2, r3
    1198:	e1a02140 	asr	r2, r0, #2
    119c:	e1a032c0 	asr	r3, r0, #5
    11a0:	e202200f 	and	r2, r2, #15
    11a4:	e203307f 	and	r3, r3, #127	; 0x7f
    11a8:	e1540001 	cmp	r4, r1
    11ac:	e02cc293 	mla	ip, r3, r2, ip
    11b0:	1afffff5 	bne	0x118c
    11b4:	e2855002 	add	r5, r5, #2
    11b8:	e1580005 	cmp	r8, r5
    11bc:	e59d0004 	ldr	r0, [sp, #4]
    11c0:	e586c000 	str	ip, [r6]
    11c4:	1affffeb 	bne	0x1178
    11c8:	e28aa001 	add	sl, sl, #1
    11cc:	e59d3008 	ldr	r3, [sp, #8]
    11d0:	e150000a 	cmp	r0, sl
    11d4:	e087700b 	add	r7, r7, fp
    11d8:	e084400b 	add	r4, r4, fp
    11dc:	e0899003 	add	r9, r9, r3
    11e0:	1affffe2 	bne	0x1170
    11e4:	e28dd014 	add	sp, sp, #20
    11e8:	e8bd4ff0 	pop	{r4, r5, r6, r7, r8, r9, sl, fp, lr}
    11ec:	e12fff1e 	bx	lr
    11f0:	e92d4ff0 	push	{r4, r5, r6, r7, r8, r9, sl, fp, lr}
    11f4:	e2507000 	subs	r7, r0, #0
    11f8:	e24dd02c 	sub	sp, sp, #44	; 0x2c
    11fc:	e1ddc5f0 	ldrsh	ip, [sp, #80]	; 0x50
    1200:	e88d000e 	stm	sp, {r1, r2, r3}
    1204:	0a0000e8 	beq	0x15ac
    1208:	e1e04a0c 	mvn	r4, ip, lsl #20
    120c:	e1a01087 	lsl	r1, r7, #1
    1210:	e0820001 	add	r0, r2, r1
    1214:	e1e04a24 	mvn	r4, r4, lsr #20
    1218:	e1a02000 	mov	r2, r0
    121c:	e3a08000 	mov	r8, #0
    1220:	e1a0680c 	lsl	r6, ip, #16
    1224:	e067af87 	rsb	sl, r7, r7, lsl #31
    1228:	e067ef07 	rsb	lr, r7, r7, lsl #30
    122c:	e58d1018 	str	r1, [sp, #24]
    1230:	e1a06826 	lsr	r6, r6, #16
    1234:	e1a0a08a 	lsl	sl, sl, #1
    1238:	e1a0e10e 	lsl	lr, lr, #2
    123c:	e08a9002 	add	r9, sl, r2
    1240:	e1a03009 	mov	r3, r9
    1244:	e1d310f0 	ldrsh	r1, [r3]
    1248:	e0861001 	add	r1, r6, r1
    124c:	e0c310b2 	strh	r1, [r3], #2
    1250:	e1520003 	cmp	r2, r3
    1254:	1afffffa 	bne	0x1244
    1258:	e2885001 	add	r5, r8, #1
    125c:	e1570005 	cmp	r7, r5
    1260:	e049200e 	sub	r2, r9, lr
    1264:	11a08005 	movne	r8, r5
    1268:	1afffff3 	bne	0x123c
    126c:	e59d3000 	ldr	r3, [sp]
    1270:	e243b004 	sub	fp, r3, #4
    1274:	e0653f05 	rsb	r3, r5, r5, lsl #30
    1278:	e1a09103 	lsl	r9, r3, #2
    127c:	e1a03105 	lsl	r3, r5, #2
    1280:	e58d501c 	str	r5, [sp, #28]
    1284:	e1a0700b 	mov	r7, fp
    1288:	e3a0e000 	mov	lr, #0
    128c:	e1a05003 	mov	r5, r3
    1290:	e58d9010 	str	r9, [sp, #16]
    1294:	e58d300c 	str	r3, [sp, #12]
    1298:	e58d4014 	str	r4, [sp, #20]
    129c:	e08a4000 	add	r4, sl, r0
    12a0:	e1a02004 	mov	r2, r4
    12a4:	e1a01007 	mov	r1, r7
    12a8:	e0d230f2 	ldrsh	r3, [r2], #2
    12ac:	e003039c 	mul	r3, ip, r3
    12b0:	e1520000 	cmp	r2, r0
    12b4:	e5a13004 	str	r3, [r1, #4]!
    12b8:	1afffffa 	bne	0x12a8
    12bc:	e15e0008 	cmp	lr, r8
    12c0:	e0877005 	add	r7, r7, r5
    12c4:	e28ee001 	add	lr, lr, #1
    12c8:	e0440009 	sub	r0, r4, r9
    12cc:	1afffff2 	bne	0x129c
    12d0:	e3a00000 	mov	r0, #0
    12d4:	e59d501c 	ldr	r5, [sp, #28]
    12d8:	e59d3000 	ldr	r3, [sp]
    12dc:	e59d200c 	ldr	r2, [sp, #12]
    12e0:	e0837002 	add	r7, r3, r2
    12e4:	e0653e85 	rsb	r3, r5, r5, lsl #29
    12e8:	e1a03183 	lsl	r3, r3, #3
    12ec:	e58db024 	str	fp, [sp, #36]	; 0x24
    12f0:	e1a0e000 	mov	lr, r0
    12f4:	e1a02000 	mov	r2, r0
    12f8:	e1a0a000 	mov	sl, r0
    12fc:	e1a0b003 	mov	fp, r3
    1300:	e59d4014 	ldr	r4, [sp, #20]
    1304:	e1a09007 	mov	r9, r7
    1308:	e58d7014 	str	r7, [sp, #20]
    130c:	e58d301c 	str	r3, [sp, #28]
    1310:	e58d5020 	str	r5, [sp, #32]
    1314:	e59d7010 	ldr	r7, [sp, #16]
    1318:	e0895007 	add	r5, r9, r7
    131c:	e1a0c005 	mov	ip, r5
    1320:	e1a03800 	lsl	r3, r0, #16
    1324:	e49c1004 	ldr	r1, [ip], #4
    1328:	e1a03823 	lsr	r3, r3, #16
    132c:	e0822001 	add	r2, r2, r1
    1330:	e283000a 	add	r0, r3, #10
    1334:	e1520004 	cmp	r2, r4
    1338:	e1a00800 	lsl	r0, r0, #16
    133c:	c1a00840 	asrgt	r0, r0, #16
    1340:	c3a02000 	movgt	r2, #0
    1344:	ca000004 	bgt	0x135c
    1348:	e151000e 	cmp	r1, lr
    134c:	d1a00003 	movle	r0, r3
    1350:	c2830001 	addgt	r0, r3, #1
    1354:	e1a00800 	lsl	r0, r0, #16
    1358:	e1a00840 	asr	r0, r0, #16
    135c:	e159000c 	cmp	r9, ip
    1360:	e1a0e001 	mov	lr, r1
    1364:	1affffed 	bne	0x1320
    1368:	e15a0008 	cmp	sl, r8
    136c:	e045900b 	sub	r9, r5, fp
    1370:	e28aa001 	add	sl, sl, #1
    1374:	1affffe7 	bne	0x1318
    1378:	e3a01000 	mov	r1, #0
    137c:	e28d5020 	add	r5, sp, #32
    1380:	e8950820 	ldm	r5, {r5, fp}
    1384:	e59d7014 	ldr	r7, [sp, #20]
    1388:	eb0002a3 	bl	0x1e1c
    138c:	e89d000e 	ldm	sp, {r1, r2, r3}
    1390:	e58d0014 	str	r0, [sp, #20]
    1394:	e1a00005 	mov	r0, r5
    1398:	ebffff29 	bl	0x1044
    139c:	e3a00000 	mov	r0, #0
    13a0:	e1a02000 	mov	r2, r0
    13a4:	e1a01000 	mov	r1, r0
    13a8:	e1a09000 	mov	r9, r0
    13ac:	e58db024 	str	fp, [sp, #36]	; 0x24
    13b0:	e58d5020 	str	r5, [sp, #32]
    13b4:	e59da010 	ldr	sl, [sp, #16]
    13b8:	e59db01c 	ldr	fp, [sp, #28]
    13bc:	e087500a 	add	r5, r7, sl
    13c0:	e1a0e005 	mov	lr, r5
    13c4:	e1a03800 	lsl	r3, r0, #16
    13c8:	e49ec004 	ldr	ip, [lr], #4
    13cc:	e1a03823 	lsr	r3, r3, #16
    13d0:	e081100c 	add	r1, r1, ip
    13d4:	e283000a 	add	r0, r3, #10
    13d8:	e1510004 	cmp	r1, r4
    13dc:	e1a00800 	lsl	r0, r0, #16
    13e0:	c1a00840 	asrgt	r0, r0, #16
    13e4:	c3a01000 	movgt	r1, #0
    13e8:	ca000004 	bgt	0x1400
    13ec:	e15c0002 	cmp	ip, r2
    13f0:	d1a00003 	movle	r0, r3
    13f4:	c2830001 	addgt	r0, r3, #1
    13f8:	e1a00800 	lsl	r0, r0, #16
    13fc:	e1a00840 	asr	r0, r0, #16
    1400:	e157000e 	cmp	r7, lr
    1404:	e1a0200c 	mov	r2, ip
    1408:	1affffed 	bne	0x13c4
    140c:	e1590008 	cmp	r9, r8
    1410:	e045700b 	sub	r7, r5, fp
    1414:	e2899001 	add	r9, r9, #1
    1418:	1affffe7 	bne	0x13bc
    141c:	e59d1014 	ldr	r1, [sp, #20]
    1420:	e28d5020 	add	r5, sp, #32
    1424:	e8950820 	ldm	r5, {r5, fp}
    1428:	eb00027b 	bl	0x1e1c
    142c:	e89d000e 	ldm	sp, {r1, r2, r3}
    1430:	e1a0a000 	mov	sl, r0
    1434:	e1a00005 	mov	r0, r5
    1438:	ebffff19 	bl	0x10a4
    143c:	e3a00000 	mov	r0, #0
    1440:	e1a02000 	mov	r2, r0
    1444:	e1a0c000 	mov	ip, r0
    1448:	e1a08000 	mov	r8, r0
    144c:	e1a0900b 	mov	r9, fp
    1450:	e58db010 	str	fp, [sp, #16]
    1454:	e59db00c 	ldr	fp, [sp, #12]
    1458:	e1a07009 	mov	r7, r9
    145c:	e3a0e000 	mov	lr, #0
    1460:	e1a03800 	lsl	r3, r0, #16
    1464:	e5b71004 	ldr	r1, [r7, #4]!
    1468:	e1a03823 	lsr	r3, r3, #16
    146c:	e08cc001 	add	ip, ip, r1
    1470:	e283000a 	add	r0, r3, #10
    1474:	e15c0004 	cmp	ip, r4
    1478:	e1a00800 	lsl	r0, r0, #16
    147c:	c1a00840 	asrgt	r0, r0, #16
    1480:	c3a0c000 	movgt	ip, #0
    1484:	ca000004 	bgt	0x149c
    1488:	e1510002 	cmp	r1, r2
    148c:	d1a00003 	movle	r0, r3
    1490:	c2830001 	addgt	r0, r3, #1
    1494:	e1a00800 	lsl	r0, r0, #16
    1498:	e1a00840 	asr	r0, r0, #16
    149c:	e28ee001 	add	lr, lr, #1
    14a0:	e15e0005 	cmp	lr, r5
    14a4:	e1a02001 	mov	r2, r1
    14a8:	3affffec 	bcc	0x1460
    14ac:	e2888001 	add	r8, r8, #1
    14b0:	e1580005 	cmp	r8, r5
    14b4:	e089900b 	add	r9, r9, fp
    14b8:	3affffe6 	bcc	0x1458
    14bc:	e1a0100a 	mov	r1, sl
    14c0:	e59db010 	ldr	fp, [sp, #16]
    14c4:	eb000254 	bl	0x1e1c
    14c8:	e89d000e 	ldm	sp, {r1, r2, r3}
    14cc:	e1a07000 	mov	r7, r0
    14d0:	e1a00005 	mov	r0, r5
    14d4:	ebffff18 	bl	0x113c
    14d8:	e3a00000 	mov	r0, #0
    14dc:	e1a02000 	mov	r2, r0
    14e0:	e1a0c000 	mov	ip, r0
    14e4:	e1a09000 	mov	r9, r0
    14e8:	e59da00c 	ldr	sl, [sp, #12]
    14ec:	e1a0800b 	mov	r8, fp
    14f0:	e3a0e000 	mov	lr, #0
    14f4:	e1a03800 	lsl	r3, r0, #16
    14f8:	e5b81004 	ldr	r1, [r8, #4]!
    14fc:	e1a03823 	lsr	r3, r3, #16
    1500:	e08cc001 	add	ip, ip, r1
    1504:	e283000a 	add	r0, r3, #10
    1508:	e15c0004 	cmp	ip, r4
    150c:	e1a00800 	lsl	r0, r0, #16
    1510:	c1a00840 	asrgt	r0, r0, #16
    1514:	c3a0c000 	movgt	ip, #0
    1518:	ca000004 	bgt	0x1530
    151c:	e1510002 	cmp	r1, r2
    1520:	d1a00003 	movle	r0, r3
    1524:	c2830001 	addgt	r0, r3, #1
    1528:	e1a00800 	lsl	r0, r0, #16
    152c:	e1a00840 	asr	r0, r0, #16
    1530:	e28ee001 	add	lr, lr, #1
    1534:	e15e0005 	cmp	lr, r5
    1538:	e1a02001 	mov	r2, r1
    153c:	3affffec 	bcc	0x14f4
    1540:	e2899001 	add	r9, r9, #1
    1544:	e1590005 	cmp	r9, r5
    1548:	e08bb00a 	add	fp, fp, sl
    154c:	3affffe6 	bcc	0x14ec
    1550:	e1a01007 	mov	r1, r7
    1554:	eb000230 	bl	0x1e1c
    1558:	e3a0c000 	mov	ip, #0
    155c:	e59d3004 	ldr	r3, [sp, #4]
    1560:	e59d4018 	ldr	r4, [sp, #24]
    1564:	e243e002 	sub	lr, r3, #2
    1568:	e1a0100e 	mov	r1, lr
    156c:	e3a02000 	mov	r2, #0
    1570:	e1f130b2 	ldrh	r3, [r1, #2]!
    1574:	e2822001 	add	r2, r2, #1
    1578:	e0433006 	sub	r3, r3, r6
    157c:	e1520005 	cmp	r2, r5
    1580:	e1c130b0 	strh	r3, [r1]
    1584:	3afffff9 	bcc	0x1570
    1588:	e28cc001 	add	ip, ip, #1
    158c:	e15c0005 	cmp	ip, r5
    1590:	e08ee004 	add	lr, lr, r4
    1594:	3afffff3 	bcc	0x1568
    1598:	e1a00800 	lsl	r0, r0, #16
    159c:	e1a00840 	asr	r0, r0, #16
    15a0:	e28dd02c 	add	sp, sp, #44	; 0x2c
    15a4:	e8bd4ff0 	pop	{r4, r5, r6, r7, r8, r9, sl, fp, lr}
    15a8:	e12fff1e 	bx	lr
    15ac:	e1a01007 	mov	r1, r7
    15b0:	eb000219 	bl	0x1e1c
    15b4:	e1a04000 	mov	r4, r0
    15b8:	e59d8008 	ldr	r8, [sp, #8]
    15bc:	e59d6004 	ldr	r6, [sp, #4]
    15c0:	e59d5000 	ldr	r5, [sp]
    15c4:	e1a03008 	mov	r3, r8
    15c8:	e1a02006 	mov	r2, r6
    15cc:	e1a01005 	mov	r1, r5
    15d0:	e1a00007 	mov	r0, r7
    15d4:	ebfffe9a 	bl	0x1044
    15d8:	e1a01004 	mov	r1, r4
    15dc:	e1a00007 	mov	r0, r7
    15e0:	eb00020d 	bl	0x1e1c
    15e4:	e1a04000 	mov	r4, r0
    15e8:	e1a03008 	mov	r3, r8
    15ec:	e1a02006 	mov	r2, r6
    15f0:	e1a01005 	mov	r1, r5
    15f4:	e1a00007 	mov	r0, r7
    15f8:	ebfffea9 	bl	0x10a4
    15fc:	e1a01004 	mov	r1, r4
    1600:	e1a00007 	mov	r0, r7
    1604:	eb000204 	bl	0x1e1c
    1608:	e1a04000 	mov	r4, r0
    160c:	e1a01005 	mov	r1, r5
    1610:	e1a00007 	mov	r0, r7
    1614:	e1a03008 	mov	r3, r8
    1618:	e1a02006 	mov	r2, r6
    161c:	ebfffec6 	bl	0x113c
    1620:	e1a01004 	mov	r1, r4
    1624:	e1a00007 	mov	r0, r7
    1628:	eb0001fb 	bl	0x1e1c
    162c:	eaffffd9 	b	0x1598
    1630:	e92d4010 	push	{r4, lr}
    1634:	e1a04002 	mov	r4, r2
    1638:	e24dd008 	sub	sp, sp, #8
    163c:	e58d1000 	str	r1, [sp]
    1640:	e990000c 	ldmib	r0, {r2, r3}
    1644:	e590100c 	ldr	r1, [r0, #12]
    1648:	e5900000 	ldr	r0, [r0]
    164c:	ebfffee7 	bl	0x11f0
    1650:	e1a01004 	mov	r1, r4
    1654:	eb0001f0 	bl	0x1e1c
    1658:	e28dd008 	add	sp, sp, #8
    165c:	e8bd4010 	pop	{r4, lr}
    1660:	e12fff1e 	bx	lr
    1664:	e3a02000 	mov	r2, #0
    1668:	e59f3004 	ldr	r3, [pc, #4]	; 0x1674
    166c:	e5832000 	str	r2, [r3]
    1670:	e12fff1e 	bx	lr
    1674:	03000860 	tsteq	r0, #96, 16	; 0x600000
    1678:	e3a02000 	mov	r2, #0
    167c:	e59f3004 	ldr	r3, [pc, #4]	; 0x1688
    1680:	e5832000 	str	r2, [r3]
    1684:	e12fff1e 	bx	lr
    1688:	03000864 	tsteq	r0, #100, 16	; 0x640000
    168c:	e59f2010 	ldr	r2, [pc, #16]	; 0x16a4
    1690:	e59f3010 	ldr	r3, [pc, #16]	; 0x16a8
    1694:	e5920000 	ldr	r0, [r2]
    1698:	e5933000 	ldr	r3, [r3]
    169c:	e0400003 	sub	r0, r0, r3
    16a0:	e12fff1e 	bx	lr
    16a4:	03000864 	tsteq	r0, #100, 16	; 0x640000
    16a8:	03000860 	tsteq	r0, #96, 16	; 0x600000
    16ac:	e12fff1e 	bx	lr
    16b0:	e3a03001 	mov	r3, #1
    16b4:	e5c03000 	strb	r3, [r0]
    16b8:	e12fff1e 	bx	lr
    16bc:	e3a03000 	mov	r3, #0
    16c0:	e5c03000 	strb	r3, [r0]
    16c4:	e12fff1e 	bx	lr
    16c8:	e3a03000 	mov	r3, #0
    16cc:	e92d43f0 	push	{r4, r5, r6, r7, r8, r9, lr}
    16d0:	e1a0c003 	mov	ip, r3
    16d4:	e1a0e003 	mov	lr, r3
    16d8:	e08c900e 	add	r9, ip, lr
    16dc:	e2811001 	add	r1, r1, #1
    16e0:	e2405001 	sub	r5, r0, #1
    16e4:	e2898001 	add	r8, r9, #1
    16e8:	e1a01801 	lsl	r1, r1, #16
    16ec:	e1580005 	cmp	r8, r5
    16f0:	e1a01821 	lsr	r1, r1, #16
    16f4:	e3a0702c 	mov	r7, #44	; 0x2c
    16f8:	e59f60e0 	ldr	r6, [pc, #224]	; 0x17e0
    16fc:	2a000017 	bcs	0x1760
    1700:	e35e0000 	cmp	lr, #0
    1704:	1a000029 	bne	0x17b0
    1708:	e2013007 	and	r3, r1, #7
    170c:	e1a0e1a1 	lsr	lr, r1, #3
    1710:	e2433003 	sub	r3, r3, #3
    1714:	e20e4003 	and	r4, lr, #3
    1718:	e3530004 	cmp	r3, #4
    171c:	979ff103 	ldrls	pc, [pc, r3, lsl #2]
    1720:	ea00002b 	b	0x17d4
    1724:	08001790 	stmdaeq	r0, {r4, r7, r8, r9, sl, ip}
    1728:	08001790 	stmdaeq	r0, {r4, r7, r8, r9, sl, ip}
    172c:	08001738 	stmdaeq	r0, {r3, r4, r5, r8, r9, sl, ip}
    1730:	08001738 	stmdaeq	r0, {r3, r4, r5, r8, r9, sl, ip}
    1734:	080017a0 	stmdaeq	r0, {r5, r7, r8, r9, sl, ip}
    1738:	e086e104 	add	lr, r6, r4, lsl #2
    173c:	e59e3020 	ldr	r3, [lr, #32]
    1740:	e3a0e008 	mov	lr, #8
    1744:	e08c900e 	add	r9, ip, lr
    1748:	e2811001 	add	r1, r1, #1
    174c:	e2898001 	add	r8, r9, #1
    1750:	e1a01801 	lsl	r1, r1, #16
    1754:	e1580005 	cmp	r8, r5
    1758:	e1a01821 	lsr	r1, r1, #16
    175c:	3affffe7 	bcc	0x1700
    1760:	e15c0000 	cmp	ip, r0
    1764:	2a000007 	bcs	0x1788
    1768:	e3a01000 	mov	r1, #0
    176c:	e2423001 	sub	r3, r2, #1
    1770:	e24cc001 	sub	ip, ip, #1
    1774:	e082200c 	add	r2, r2, ip
    1778:	e0830000 	add	r0, r3, r0
    177c:	e5e21001 	strb	r1, [r2, #1]!
    1780:	e1520000 	cmp	r2, r0
    1784:	1afffffc 	bne	0x177c
    1788:	e8bd43f0 	pop	{r4, r5, r6, r7, r8, r9, lr}
    178c:	e12fff1e 	bx	lr
    1790:	e086e104 	add	lr, r6, r4, lsl #2
    1794:	e59e3010 	ldr	r3, [lr, #16]
    1798:	e3a0e008 	mov	lr, #8
    179c:	eaffffe8 	b	0x1744
    17a0:	e0864104 	add	r4, r6, r4, lsl #2
    17a4:	e3a0e008 	mov	lr, #8
    17a8:	e5943030 	ldr	r3, [r4, #48]	; 0x30
    17ac:	eaffffe4 	b	0x1744
    17b0:	e082c00c 	add	ip, r2, ip
    17b4:	e083e00e 	add	lr, r3, lr
    17b8:	e4d34001 	ldrb	r4, [r3], #1
    17bc:	e15e0003 	cmp	lr, r3
    17c0:	e4cc4001 	strb	r4, [ip], #1
    17c4:	1afffffb 	bne	0x17b8
    17c8:	e1a0c008 	mov	ip, r8
    17cc:	e7c27009 	strb	r7, [r2, r9]
    17d0:	eaffffcc 	b	0x1708
    17d4:	e7963104 	ldr	r3, [r6, r4, lsl #2]
    17d8:	e3a0e004 	mov	lr, #4
    17dc:	eaffffd8 	b	0x1744
    17e0:	080027ac 	stmdaeq	r0, {r2, r3, r5, r7, r8, r9, sl, sp}
    17e4:	e5903000 	ldr	r3, [r0]
    17e8:	e5d32000 	ldrb	r2, [r3]
    17ec:	e3520000 	cmp	r2, #0
    17f0:	01a0c003 	moveq	ip, r3
    17f4:	0a0000b9 	beq	0x1ae0
    17f8:	e352002c 	cmp	r2, #44	; 0x2c
    17fc:	e283c001 	add	ip, r3, #1
    1800:	0a0000b5 	beq	0x1adc
    1804:	e92d4010 	push	{r4, lr}
    1808:	e591e000 	ldr	lr, [r1]
    180c:	e2424030 	sub	r4, r2, #48	; 0x30
    1810:	e3540009 	cmp	r4, #9
    1814:	e28ee001 	add	lr, lr, #1
    1818:	8a000051 	bhi	0x1964
    181c:	e581e000 	str	lr, [r1]
    1820:	e5d32001 	ldrb	r2, [r3, #1]
    1824:	e3520000 	cmp	r2, #0
    1828:	0a00008d 	beq	0x1a64
    182c:	e352002c 	cmp	r2, #44	; 0x2c
    1830:	e2833002 	add	r3, r3, #2
    1834:	0a000089 	beq	0x1a60
    1838:	e352002e 	cmp	r2, #46	; 0x2e
    183c:	e242e030 	sub	lr, r2, #48	; 0x30
    1840:	0a00000c 	beq	0x1878
    1844:	e35e0009 	cmp	lr, #9
    1848:	8a00006c 	bhi	0x1a00
    184c:	e5dc2001 	ldrb	r2, [ip, #1]
    1850:	e3520000 	cmp	r2, #0
    1854:	0a000081 	beq	0x1a60
    1858:	e352002c 	cmp	r2, #44	; 0x2c
    185c:	e283e001 	add	lr, r3, #1
    1860:	e1a0c003 	mov	ip, r3
    1864:	0a0000ad 	beq	0x1b20
    1868:	e352002e 	cmp	r2, #46	; 0x2e
    186c:	e1a0300e 	mov	r3, lr
    1870:	e242e030 	sub	lr, r2, #48	; 0x30
    1874:	1afffff2 	bne	0x1844
    1878:	e5912010 	ldr	r2, [r1, #16]
    187c:	e2822001 	add	r2, r2, #1
    1880:	e5812010 	str	r2, [r1, #16]
    1884:	e5dce001 	ldrb	lr, [ip, #1]
    1888:	e35e0000 	cmp	lr, #0
    188c:	01a0c003 	moveq	ip, r3
    1890:	0a00008f 	beq	0x1ad4
    1894:	e35e002c 	cmp	lr, #44	; 0x2c
    1898:	e2832001 	add	r2, r3, #1
    189c:	0a00008b 	beq	0x1ad0
    18a0:	e20ec0df 	and	ip, lr, #223	; 0xdf
    18a4:	e35c0045 	cmp	ip, #69	; 0x45
    18a8:	e24ee030 	sub	lr, lr, #48	; 0x30
    18ac:	1a00004b 	bne	0x19e0
    18b0:	e591c014 	ldr	ip, [r1, #20]
    18b4:	e28cc001 	add	ip, ip, #1
    18b8:	e581c014 	str	ip, [r1, #20]
    18bc:	e5d33001 	ldrb	r3, [r3, #1]
    18c0:	e3530000 	cmp	r3, #0
    18c4:	0a00008b 	beq	0x1af8
    18c8:	e353002c 	cmp	r3, #44	; 0x2c
    18cc:	e282c001 	add	ip, r2, #1
    18d0:	0a000089 	beq	0x1afc
    18d4:	e591e00c 	ldr	lr, [r1, #12]
    18d8:	e243302b 	sub	r3, r3, #43	; 0x2b
    18dc:	e28ee001 	add	lr, lr, #1
    18e0:	e31300fd 	tst	r3, #253	; 0xfd
    18e4:	e581e00c 	str	lr, [r1, #12]
    18e8:	1a000018 	bne	0x1950
    18ec:	e5d23001 	ldrb	r3, [r2, #1]
    18f0:	e3530000 	cmp	r3, #0
    18f4:	0a000082 	beq	0x1b04
    18f8:	e353002c 	cmp	r3, #44	; 0x2c
    18fc:	e282c002 	add	ip, r2, #2
    1900:	0a00007f 	beq	0x1b04
    1904:	e591e018 	ldr	lr, [r1, #24]
    1908:	e2433030 	sub	r3, r3, #48	; 0x30
    190c:	e28ee001 	add	lr, lr, #1
    1910:	e3530009 	cmp	r3, #9
    1914:	e581e018 	str	lr, [r1, #24]
    1918:	8a00000c 	bhi	0x1950
    191c:	e5d2e002 	ldrb	lr, [r2, #2]
    1920:	e35e0000 	cmp	lr, #0
    1924:	0a000071 	beq	0x1af0
    1928:	e35e002c 	cmp	lr, #44	; 0x2c
    192c:	e2823003 	add	r3, r2, #3
    1930:	0a00006d 	beq	0x1aec
    1934:	e24ee030 	sub	lr, lr, #48	; 0x30
    1938:	e35e0009 	cmp	lr, #9
    193c:	9a00004a 	bls	0x1a6c
    1940:	e1a0c003 	mov	ip, r3
    1944:	e5912004 	ldr	r2, [r1, #4]
    1948:	e2822001 	add	r2, r2, #1
    194c:	e5812004 	str	r2, [r1, #4]
    1950:	e3a02001 	mov	r2, #1
    1954:	e580c000 	str	ip, [r0]
    1958:	e8bd4010 	pop	{r4, lr}
    195c:	e1a00002 	mov	r0, r2
    1960:	e12fff1e 	bx	lr
    1964:	e242402b 	sub	r4, r2, #43	; 0x2b
    1968:	e31400fd 	tst	r4, #253	; 0xfd
    196c:	1a00002c 	bne	0x1a24
    1970:	e581e000 	str	lr, [r1]
    1974:	e5d3e001 	ldrb	lr, [r3, #1]
    1978:	e35e0000 	cmp	lr, #0
    197c:	0a000062 	beq	0x1b0c
    1980:	e35e002c 	cmp	lr, #44	; 0x2c
    1984:	e283c002 	add	ip, r3, #2
    1988:	0a00005f 	beq	0x1b0c
    198c:	e5912008 	ldr	r2, [r1, #8]
    1990:	e24e4030 	sub	r4, lr, #48	; 0x30
    1994:	e3540009 	cmp	r4, #9
    1998:	e2822001 	add	r2, r2, #1
    199c:	9a000028 	bls	0x1a44
    19a0:	e35e002e 	cmp	lr, #46	; 0x2e
    19a4:	15812008 	strne	r2, [r1, #8]
    19a8:	13a02001 	movne	r2, #1
    19ac:	1a000018 	bne	0x1a14
    19b0:	e5812008 	str	r2, [r1, #8]
    19b4:	e5d3e002 	ldrb	lr, [r3, #2]
    19b8:	e35e0000 	cmp	lr, #0
    19bc:	0a000044 	beq	0x1ad4
    19c0:	e35e002c 	cmp	lr, #44	; 0x2c
    19c4:	e2832003 	add	r2, r3, #3
    19c8:	0a000040 	beq	0x1ad0
    19cc:	e1a0300c 	mov	r3, ip
    19d0:	e20ec0df 	and	ip, lr, #223	; 0xdf
    19d4:	e35c0045 	cmp	ip, #69	; 0x45
    19d8:	e24ee030 	sub	lr, lr, #48	; 0x30
    19dc:	0affffb3 	beq	0x18b0
    19e0:	e35e0009 	cmp	lr, #9
    19e4:	9a000029 	bls	0x1a90
    19e8:	e5913014 	ldr	r3, [r1, #20]
    19ec:	e2833001 	add	r3, r3, #1
    19f0:	e1a0c002 	mov	ip, r2
    19f4:	e5813014 	str	r3, [r1, #20]
    19f8:	e3a02001 	mov	r2, #1
    19fc:	ea000004 	b	0x1a14
    1a00:	e5912010 	ldr	r2, [r1, #16]
    1a04:	e2822001 	add	r2, r2, #1
    1a08:	e5812010 	str	r2, [r1, #16]
    1a0c:	e1a0c003 	mov	ip, r3
    1a10:	e3a02001 	mov	r2, #1
    1a14:	e580c000 	str	ip, [r0]
    1a18:	e8bd4010 	pop	{r4, lr}
    1a1c:	e1a00002 	mov	r0, r2
    1a20:	e12fff1e 	bx	lr
    1a24:	e352002e 	cmp	r2, #46	; 0x2e
    1a28:	0a000021 	beq	0x1ab4
    1a2c:	e5913004 	ldr	r3, [r1, #4]
    1a30:	e2833001 	add	r3, r3, #1
    1a34:	e581e000 	str	lr, [r1]
    1a38:	e5813004 	str	r3, [r1, #4]
    1a3c:	e3a02001 	mov	r2, #1
    1a40:	eafffff3 	b	0x1a14
    1a44:	e5812008 	str	r2, [r1, #8]
    1a48:	e5d32002 	ldrb	r2, [r3, #2]
    1a4c:	e3520000 	cmp	r2, #0
    1a50:	0a000003 	beq	0x1a64
    1a54:	e352002c 	cmp	r2, #44	; 0x2c
    1a58:	e2833003 	add	r3, r3, #3
    1a5c:	1affff75 	bne	0x1838
    1a60:	e1a0c003 	mov	ip, r3
    1a64:	e3a02004 	mov	r2, #4
    1a68:	eaffffe9 	b	0x1a14
    1a6c:	e5dce001 	ldrb	lr, [ip, #1]
    1a70:	e35e0000 	cmp	lr, #0
    1a74:	0a00001c 	beq	0x1aec
    1a78:	e35e002c 	cmp	lr, #44	; 0x2c
    1a7c:	e2832001 	add	r2, r3, #1
    1a80:	e1a0c003 	mov	ip, r3
    1a84:	0a000022 	beq	0x1b14
    1a88:	e1a03002 	mov	r3, r2
    1a8c:	eaffffa8 	b	0x1934
    1a90:	e5d3e001 	ldrb	lr, [r3, #1]
    1a94:	e35e0000 	cmp	lr, #0
    1a98:	0a00000c 	beq	0x1ad0
    1a9c:	e35e002c 	cmp	lr, #44	; 0x2c
    1aa0:	e282c001 	add	ip, r2, #1
    1aa4:	e1a03002 	mov	r3, r2
    1aa8:	0a000009 	beq	0x1ad4
    1aac:	e1a0200c 	mov	r2, ip
    1ab0:	eaffff7a 	b	0x18a0
    1ab4:	e581e000 	str	lr, [r1]
    1ab8:	e5d3e001 	ldrb	lr, [r3, #1]
    1abc:	e35e0000 	cmp	lr, #0
    1ac0:	0a000003 	beq	0x1ad4
    1ac4:	e35e002c 	cmp	lr, #44	; 0x2c
    1ac8:	e2832002 	add	r2, r3, #2
    1acc:	1affffbe 	bne	0x19cc
    1ad0:	e1a0c002 	mov	ip, r2
    1ad4:	e3a02005 	mov	r2, #5
    1ad8:	eaffffcd 	b	0x1a14
    1adc:	e3a02000 	mov	r2, #0
    1ae0:	e580c000 	str	ip, [r0]
    1ae4:	e1a00002 	mov	r0, r2
    1ae8:	e12fff1e 	bx	lr
    1aec:	e1a0c003 	mov	ip, r3
    1af0:	e3a02007 	mov	r2, #7
    1af4:	eaffffc6 	b	0x1a14
    1af8:	e1a0c002 	mov	ip, r2
    1afc:	e3a02003 	mov	r2, #3
    1b00:	eaffffc3 	b	0x1a14
    1b04:	e3a02006 	mov	r2, #6
    1b08:	eaffffc1 	b	0x1a14
    1b0c:	e3a02002 	mov	r2, #2
    1b10:	eaffffbf 	b	0x1a14
    1b14:	e1a0c002 	mov	ip, r2
    1b18:	e3a02007 	mov	r2, #7
    1b1c:	eaffffbc 	b	0x1a14
    1b20:	e1a0c00e 	mov	ip, lr
    1b24:	e3a02004 	mov	r2, #4
    1b28:	eaffffb9 	b	0x1a14
    1b2c:	e92d4ff0 	push	{r4, r5, r6, r7, r8, r9, sl, fp, lr}
    1b30:	e1a04001 	mov	r4, r1
    1b34:	e24dd054 	sub	sp, sp, #84	; 0x54
    1b38:	e28d5010 	add	r5, sp, #16
    1b3c:	e28d8030 	add	r8, sp, #48	; 0x30
    1b40:	e58d2004 	str	r2, [sp, #4]
    1b44:	e1a0b003 	mov	fp, r3
    1b48:	e1a01005 	mov	r1, r5
    1b4c:	e1a03008 	mov	r3, r8
    1b50:	e3a02000 	mov	r2, #0
    1b54:	e58d400c 	str	r4, [sp, #12]
    1b58:	e1dd67f8 	ldrsh	r6, [sp, #120]	; 0x78
    1b5c:	e1dd97bc 	ldrh	r9, [sp, #124]	; 0x7c
    1b60:	e1a0a000 	mov	sl, r0
    1b64:	e28d0050 	add	r0, sp, #80	; 0x50
    1b68:	e4832004 	str	r2, [r3], #4
    1b6c:	e1530000 	cmp	r3, r0
    1b70:	e4812004 	str	r2, [r1], #4
    1b74:	1afffffb 	bne	0x1b68
    1b78:	e5d43000 	ldrb	r3, [r4]
    1b7c:	e3530000 	cmp	r3, #0
    1b80:	0a000047 	beq	0x1ca4
    1b84:	e28d700c 	add	r7, sp, #12
    1b88:	e28d1030 	add	r1, sp, #48	; 0x30
    1b8c:	e1a00007 	mov	r0, r7
    1b90:	ebffff13 	bl	0x17e4
    1b94:	e28d3050 	add	r3, sp, #80	; 0x50
    1b98:	e59d200c 	ldr	r2, [sp, #12]
    1b9c:	e0830100 	add	r0, r3, r0, lsl #2
    1ba0:	e5103040 	ldr	r3, [r0, #-64]	; 0xffffffc0
    1ba4:	e5d22000 	ldrb	r2, [r2]
    1ba8:	e2833001 	add	r3, r3, #1
    1bac:	e3520000 	cmp	r2, #0
    1bb0:	e5003040 	str	r3, [r0, #-64]	; 0xffffffc0
    1bb4:	1afffff3 	bne	0x1b88
    1bb8:	e084a00a 	add	sl, r4, sl
    1bbc:	e15a0004 	cmp	sl, r4
    1bc0:	e58d400c 	str	r4, [sp, #12]
    1bc4:	e5d43000 	ldrb	r3, [r4]
    1bc8:	9a00003a 	bls	0x1cb8
    1bcc:	e1a01004 	mov	r1, r4
    1bd0:	ea000000 	b	0x1bd8
    1bd4:	e7d33006 	ldrb	r3, [r3, r6]
    1bd8:	e353002c 	cmp	r3, #44	; 0x2c
    1bdc:	159d2004 	ldrne	r2, [sp, #4]
    1be0:	10233002 	eorne	r3, r3, r2
    1be4:	15c13000 	strbne	r3, [r1]
    1be8:	e59d300c 	ldr	r3, [sp, #12]
    1bec:	e0831006 	add	r1, r3, r6
    1bf0:	e151000a 	cmp	r1, sl
    1bf4:	e58d100c 	str	r1, [sp, #12]
    1bf8:	3afffff5 	bcc	0x1bd4
    1bfc:	e5d43000 	ldrb	r3, [r4]
    1c00:	e3530000 	cmp	r3, #0
    1c04:	e58d400c 	str	r4, [sp, #12]
    1c08:	0a00000f 	beq	0x1c4c
    1c0c:	e28d700c 	add	r7, sp, #12
    1c10:	e28d1030 	add	r1, sp, #48	; 0x30
    1c14:	e1a00007 	mov	r0, r7
    1c18:	ebfffef1 	bl	0x17e4
    1c1c:	e28d3050 	add	r3, sp, #80	; 0x50
    1c20:	e59d100c 	ldr	r1, [sp, #12]
    1c24:	e0830100 	add	r0, r3, r0, lsl #2
    1c28:	e5103040 	ldr	r3, [r0, #-64]	; 0xffffffc0
    1c2c:	e5d11000 	ldrb	r1, [r1]
    1c30:	e2833001 	add	r3, r3, #1
    1c34:	e3510000 	cmp	r1, #0
    1c38:	e5003040 	str	r3, [r0, #-64]	; 0xffffffc0
    1c3c:	1afffff3 	bne	0x1c10
    1c40:	e154000a 	cmp	r4, sl
    1c44:	e58d400c 	str	r4, [sp, #12]
    1c48:	2a000008 	bcs	0x1c70
    1c4c:	e5d43000 	ldrb	r3, [r4]
    1c50:	e353002c 	cmp	r3, #44	; 0x2c
    1c54:	1023300b 	eorne	r3, r3, fp
    1c58:	15c43000 	strbne	r3, [r4]
    1c5c:	e59d400c 	ldr	r4, [sp, #12]
    1c60:	e0844006 	add	r4, r4, r6
    1c64:	e154000a 	cmp	r4, sl
    1c68:	e58d400c 	str	r4, [sp, #12]
    1c6c:	3afffff6 	bcc	0x1c4c
    1c70:	e2854020 	add	r4, r5, #32
    1c74:	e1a01009 	mov	r1, r9
    1c78:	e4950004 	ldr	r0, [r5], #4
    1c7c:	eb00005d 	bl	0x1df8
    1c80:	e1a01000 	mov	r1, r0
    1c84:	e4980004 	ldr	r0, [r8], #4
    1c88:	eb00005a 	bl	0x1df8
    1c8c:	e1540005 	cmp	r4, r5
    1c90:	e1a09000 	mov	r9, r0
    1c94:	1afffff6 	bne	0x1c74
    1c98:	e28dd054 	add	sp, sp, #84	; 0x54
    1c9c:	e8bd4ff0 	pop	{r4, r5, r6, r7, r8, r9, sl, fp, lr}
    1ca0:	e12fff1e 	bx	lr
    1ca4:	e084a00a 	add	sl, r4, sl
    1ca8:	e154000a 	cmp	r4, sl
    1cac:	e58d400c 	str	r4, [sp, #12]
    1cb0:	3affffc5 	bcc	0x1bcc
    1cb4:	eaffffed 	b	0x1c70
    1cb8:	e3530000 	cmp	r3, #0
    1cbc:	1affffd3 	bne	0x1c10
    1cc0:	eaffffea 	b	0x1c70
    1cc4:	e2400001 	sub	r0, r0, #1
    1cc8:	e3500004 	cmp	r0, #4
    1ccc:	979ff100 	ldrls	pc, [pc, r0, lsl #2]
    1cd0:	ea000013 	b	0x1d24
    1cd4:	08001cf4 	stmdaeq	r0, {r2, r4, r5, r6, r7, sl, fp, ip}
    1cd8:	08001d00 	stmdaeq	r0, {r8, sl, fp, ip}
    1cdc:	08001d0c 	stmdaeq	r0, {r2, r3, r8, sl, fp, ip}
    1ce0:	08001d18 	stmdaeq	r0, {r3, r4, r8, sl, fp, ip}
    1ce4:	08001ce8 	stmdaeq	r0, {r3, r5, r6, r7, sl, fp, ip}
    1ce8:	e59f303c 	ldr	r3, [pc, #60]	; 0x1d2c
    1cec:	e5930000 	ldr	r0, [r3]
    1cf0:	e12fff1e 	bx	lr
    1cf4:	e59f3034 	ldr	r3, [pc, #52]	; 0x1d30
    1cf8:	e5930000 	ldr	r0, [r3]
    1cfc:	e12fff1e 	bx	lr
    1d00:	e59f302c 	ldr	r3, [pc, #44]	; 0x1d34
    1d04:	e5930000 	ldr	r0, [r3]
    1d08:	e12fff1e 	bx	lr
    1d0c:	e59f3024 	ldr	r3, [pc, #36]	; 0x1d38
    1d10:	e5930000 	ldr	r0, [r3]
    1d14:	e12fff1e 	bx	lr
    1d18:	e59f301c 	ldr	r3, [pc, #28]	; 0x1d3c
    1d1c:	e5930000 	ldr	r0, [r3]
    1d20:	e12fff1e 	bx	lr
    1d24:	e3a00000 	mov	r0, #0
    1d28:	e12fff1e 	bx	lr
    1d2c:	03000080 	tsteq	r0, #128	; 0x80
    1d30:	03000088 	tsteq	r0, #136	; 0x88
    1d34:	03000084 	tsteq	r0, #132	; 0x84
    1d38:	03000870 	tsteq	r0, #112, 16	; 0x700000
    1d3c:	0300086c 	tsteq	r0, #108, 16	; 0x6c0000
    1d40:	e3a03008 	mov	r3, #8
    1d44:	e59fc02c 	ldr	ip, [pc, #44]	; 0x1d78
    1d48:	e0212000 	eor	r2, r1, r0
    1d4c:	e3120001 	tst	r2, #1
    1d50:	e1a010a1 	lsr	r1, r1, #1
    1d54:	1021100c 	eorne	r1, r1, ip
    1d58:	11a01801 	lslne	r1, r1, #16
    1d5c:	e2433001 	sub	r3, r3, #1
    1d60:	11a01821 	lsrne	r1, r1, #16
    1d64:	e21330ff 	ands	r3, r3, #255	; 0xff
    1d68:	e1a000a0 	lsr	r0, r0, #1
    1d6c:	1afffff5 	bne	0x1d48
    1d70:	e1a00001 	mov	r0, r1
    1d74:	e12fff1e 	bx	lr
    1d78:	ffffa001 			; <UNDEFINED> instruction: 0xffffa001
    1d7c:	e3a03008 	mov	r3, #8
    1d80:	e52de004 	push	{lr}		; (str lr, [sp, #-4]!)
    1d84:	e59fe068 	ldr	lr, [pc, #104]	; 0x1df4
    1d88:	e20020ff 	and	r2, r0, #255	; 0xff
    1d8c:	e021c002 	eor	ip, r1, r2
    1d90:	e31c0001 	tst	ip, #1
    1d94:	e1a010a1 	lsr	r1, r1, #1
    1d98:	1021100e 	eorne	r1, r1, lr
    1d9c:	11a01801 	lslne	r1, r1, #16
    1da0:	e2433001 	sub	r3, r3, #1
    1da4:	11a01821 	lsrne	r1, r1, #16
    1da8:	e21330ff 	ands	r3, r3, #255	; 0xff
    1dac:	e1a020a2 	lsr	r2, r2, #1
    1db0:	1afffff5 	bne	0x1d8c
    1db4:	e3a03008 	mov	r3, #8
    1db8:	e59fc034 	ldr	ip, [pc, #52]	; 0x1df4
    1dbc:	e1a00330 	lsr	r0, r0, r3
    1dc0:	e0212000 	eor	r2, r1, r0
    1dc4:	e3120001 	tst	r2, #1
    1dc8:	e1a010a1 	lsr	r1, r1, #1
    1dcc:	1021100c 	eorne	r1, r1, ip
    1dd0:	11a01801 	lslne	r1, r1, #16
    1dd4:	e2433001 	sub	r3, r3, #1
    1dd8:	11a01821 	lsrne	r1, r1, #16
    1ddc:	e21330ff 	ands	r3, r3, #255	; 0xff
    1de0:	e1a000a0 	lsr	r0, r0, #1
    1de4:	1afffff5 	bne	0x1dc0
    1de8:	e1a00001 	mov	r0, r1
    1dec:	e49de004 	pop	{lr}		; (ldr lr, [sp], #4)
    1df0:	e12fff1e 	bx	lr
    1df4:	ffffa001 			; <UNDEFINED> instruction: 0xffffa001
    1df8:	e92d4010 	push	{r4, lr}
    1dfc:	e1a04000 	mov	r4, r0
    1e00:	e1a00800 	lsl	r0, r0, #16
    1e04:	e1a00820 	lsr	r0, r0, #16
    1e08:	ebffffdb 	bl	0x1d7c
    1e0c:	e1a01000 	mov	r1, r0
    1e10:	e1a00824 	lsr	r0, r4, #16
    1e14:	e8bd4010 	pop	{r4, lr}
    1e18:	eaffffd7 	b	0x1d7c
    1e1c:	e1a00800 	lsl	r0, r0, #16
    1e20:	e1a00820 	lsr	r0, r0, #16
    1e24:	eaffffd4 	b	0x1d7c
    1e28:	e3a00000 	mov	r0, #0
    1e2c:	e12fff1e 	bx	lr
    1e30:	e2512001 	subs	r2, r1, #1
    1e34:	012fff1e 	bxeq	lr
    1e38:	3a000036 	bcc	0x1f18
    1e3c:	e1500001 	cmp	r0, r1
    1e40:	9a000022 	bls	0x1ed0
    1e44:	e1110002 	tst	r1, r2
    1e48:	0a000023 	beq	0x1edc
    1e4c:	e311020e 	tst	r1, #-536870912	; 0xe0000000
    1e50:	01a01181 	lsleq	r1, r1, #3
    1e54:	03a03008 	moveq	r3, #8
    1e58:	13a03001 	movne	r3, #1
    1e5c:	e3510201 	cmp	r1, #268435456	; 0x10000000
    1e60:	31510000 	cmpcc	r1, r0
    1e64:	31a01201 	lslcc	r1, r1, #4
    1e68:	31a03203 	lslcc	r3, r3, #4
    1e6c:	3afffffa 	bcc	0x1e5c
    1e70:	e3510102 	cmp	r1, #-2147483648	; 0x80000000
    1e74:	31510000 	cmpcc	r1, r0
    1e78:	31a01081 	lslcc	r1, r1, #1
    1e7c:	31a03083 	lslcc	r3, r3, #1
    1e80:	3afffffa 	bcc	0x1e70
    1e84:	e3a02000 	mov	r2, #0
    1e88:	e1500001 	cmp	r0, r1
    1e8c:	20400001 	subcs	r0, r0, r1
    1e90:	21822003 	orrcs	r2, r2, r3
    1e94:	e15000a1 	cmp	r0, r1, lsr #1
    1e98:	204000a1 	subcs	r0, r0, r1, lsr #1
    1e9c:	218220a3 	orrcs	r2, r2, r3, lsr #1
    1ea0:	e1500121 	cmp	r0, r1, lsr #2
    1ea4:	20400121 	subcs	r0, r0, r1, lsr #2
    1ea8:	21822123 	orrcs	r2, r2, r3, lsr #2
    1eac:	e15001a1 	cmp	r0, r1, lsr #3
    1eb0:	204001a1 	subcs	r0, r0, r1, lsr #3
    1eb4:	218221a3 	orrcs	r2, r2, r3, lsr #3
    1eb8:	e3500000 	cmp	r0, #0
    1ebc:	11b03223 	lsrsne	r3, r3, #4
    1ec0:	11a01221 	lsrne	r1, r1, #4
    1ec4:	1affffef 	bne	0x1e88
    1ec8:	e1a00002 	mov	r0, r2
    1ecc:	e12fff1e 	bx	lr
    1ed0:	03a00001 	moveq	r0, #1
    1ed4:	13a00000 	movne	r0, #0
    1ed8:	e12fff1e 	bx	lr
    1edc:	e3510801 	cmp	r1, #65536	; 0x10000
    1ee0:	21a01821 	lsrcs	r1, r1, #16
    1ee4:	23a02010 	movcs	r2, #16
    1ee8:	33a02000 	movcc	r2, #0
    1eec:	e3510c01 	cmp	r1, #256	; 0x100
    1ef0:	21a01421 	lsrcs	r1, r1, #8
    1ef4:	22822008 	addcs	r2, r2, #8
    1ef8:	e3510010 	cmp	r1, #16
    1efc:	21a01221 	lsrcs	r1, r1, #4
    1f00:	22822004 	addcs	r2, r2, #4
    1f04:	e3510004 	cmp	r1, #4
    1f08:	82822003 	addhi	r2, r2, #3
    1f0c:	908220a1 	addls	r2, r2, r1, lsr #1
    1f10:	e1a00230 	lsr	r0, r0, r2
    1f14:	e12fff1e 	bx	lr
    1f18:	e3500000 	cmp	r0, #0
    1f1c:	13e00000 	mvnne	r0, #0
    1f20:	ea000007 	b	0x1f44
    1f24:	e3510000 	cmp	r1, #0
    1f28:	0afffffa 	beq	0x1f18
    1f2c:	e92d4003 	push	{r0, r1, lr}
    1f30:	ebffffbe 	bl	0x1e30
    1f34:	e8bd4006 	pop	{r1, r2, lr}
    1f38:	e0030092 	mul	r3, r2, r0
    1f3c:	e0411003 	sub	r1, r1, r3
    1f40:	e12fff1e 	bx	lr
    1f44:	e12fff1e 	bx	lr
    1f48:	e59f0018 	ldr	r0, [pc, #24]	; 0x1f68
    1f4c:	e59f3018 	ldr	r3, [pc, #24]	; 0x1f6c
    1f50:	e1530000 	cmp	r3, r0
    1f54:	012fff1e 	bxeq	lr
    1f58:	e59f3010 	ldr	r3, [pc, #16]	; 0x1f70
    1f5c:	e3530000 	cmp	r3, #0
    1f60:	012fff1e 	bxeq	lr
    1f64:	e12fff13 	bx	r3
    1f68:	03000874 	tsteq	r0, #116, 16	; 0x740000
    1f6c:	03000874 	tsteq	r0, #116, 16	; 0x740000
    1f70:	00000000 	andeq	r0, r0, r0
    1f74:	e59f0024 	ldr	r0, [pc, #36]	; 0x1fa0
    1f78:	e59f1024 	ldr	r1, [pc, #36]	; 0x1fa4
    1f7c:	e0411000 	sub	r1, r1, r0
    1f80:	e1a01141 	asr	r1, r1, #2
    1f84:	e0811fa1 	add	r1, r1, r1, lsr #31
    1f88:	e1b010c1 	asrs	r1, r1, #1
    1f8c:	012fff1e 	bxeq	lr
    1f90:	e59f3010 	ldr	r3, [pc, #16]	; 0x1fa8
    1f94:	e3530000 	cmp	r3, #0
    1f98:	012fff1e 	bxeq	lr
    1f9c:	e12fff13 	bx	r3
    1fa0:	03000874 	tsteq	r0, #116, 16	; 0x740000
    1fa4:	03000874 	tsteq	r0, #116, 16	; 0x740000
    1fa8:	00000000 	andeq	r0, r0, r0
    1fac:	e92d4010 	push	{r4, lr}
    1fb0:	e59f402c 	ldr	r4, [pc, #44]	; 0x1fe4
    1fb4:	e5d43000 	ldrb	r3, [r4]
    1fb8:	e3530000 	cmp	r3, #0
    1fbc:	1a000006 	bne	0x1fdc
    1fc0:	ebffffe0 	bl	0x1f48
    1fc4:	e59f301c 	ldr	r3, [pc, #28]	; 0x1fe8
    1fc8:	e3530000 	cmp	r3, #0
    1fcc:	159f0018 	ldrne	r0, [pc, #24]	; 0x1fec
    1fd0:	11a00000 	movne	r0, r0
    1fd4:	e3a03001 	mov	r3, #1
    1fd8:	e5c43000 	strb	r3, [r4]
    1fdc:	e8bd4010 	pop	{r4, lr}
    1fe0:	e12fff1e 	bx	lr
    1fe4:	03000000 	tsteq	r0, #0
    1fe8:	00000000 	andeq	r0, r0, r0
    1fec:	08002c68 	stmdaeq	r0, {r3, r5, r6, sl, fp, sp}
    1ff0:	e59f3020 	ldr	r3, [pc, #32]	; 0x2018
    1ff4:	e3530000 	cmp	r3, #0
    1ff8:	0a000005 	beq	0x2014
    1ffc:	e92d4010 	push	{r4, lr}
    2000:	e59f1014 	ldr	r1, [pc, #20]	; 0x201c
    2004:	e59f0014 	ldr	r0, [pc, #20]	; 0x2020
    2008:	e1a00000 	nop			; (mov r0, r0)
    200c:	e8bd4010 	pop	{r4, lr}
    2010:	eaffffd7 	b	0x1f74
    2014:	eaffffd6 	b	0x1f74
    2018:	00000000 	andeq	r0, r0, r0
    201c:	03000004 	tsteq	r0, #4
    2020:	08002c68 	stmdaeq	r0, {r3, r5, r6, sl, fp, sp}
    2024:	e92d4ff0 	push	{r4, r5, r6, r7, r8, r9, sl, fp, lr}
    2028:	e1a04001 	mov	r4, r1
    202c:	e24dd054 	sub	sp, sp, #84	; 0x54
    2030:	e58d0004 	str	r0, [sp, #4]
    2034:	e3a01ffa 	mov	r1, #1000	; 0x3e8
    2038:	e59f0614 	ldr	r0, [pc, #1556]	; 0x2654
    203c:	ebfffa72 	bl	0xa0c
    2040:	e1a02004 	mov	r2, r4
    2044:	e28d1004 	add	r1, sp, #4
    2048:	e28d004e 	add	r0, sp, #78	; 0x4e
    204c:	ebfffd97 	bl	0x16b0
    2050:	e3a00001 	mov	r0, #1
    2054:	ebffff1a 	bl	0x1cc4
    2058:	e1cd00bc 	strh	r0, [sp, #12]
    205c:	e3a00002 	mov	r0, #2
    2060:	ebffff17 	bl	0x1cc4
    2064:	e1cd00be 	strh	r0, [sp, #14]
    2068:	e3a00003 	mov	r0, #3
    206c:	ebffff14 	bl	0x1cc4
    2070:	e1cd01b0 	strh	r0, [sp, #16]
    2074:	e3a00004 	mov	r0, #4
    2078:	ebffff11 	bl	0x1cc4
    207c:	e58d0028 	str	r0, [sp, #40]	; 0x28
    2080:	e3a00005 	mov	r0, #5
    2084:	ebffff0e 	bl	0x1cc4
    2088:	e3500000 	cmp	r0, #0
    208c:	03a03007 	moveq	r3, #7
    2090:	058d302c 	streq	r3, [sp, #44]	; 0x2c
    2094:	e59d300c 	ldr	r3, [sp, #12]
    2098:	158d002c 	strne	r0, [sp, #44]	; 0x2c
    209c:	e3530000 	cmp	r3, #0
    20a0:	1a000142 	bne	0x25b0
    20a4:	e1dd31f0 	ldrsh	r3, [sp, #16]
    20a8:	e3530000 	cmp	r3, #0
    20ac:	03a03066 	moveq	r3, #102	; 0x66
    20b0:	01cd31b0 	strheq	r3, [sp, #16]
    20b4:	e59d402c 	ldr	r4, [sp, #44]	; 0x2c
    20b8:	e2046001 	and	r6, r4, #1
    20bc:	e1a01006 	mov	r1, r6
    20c0:	e3a02000 	mov	r2, #0
    20c4:	e2145002 	ands	r5, r4, #2
    20c8:	12861001 	addne	r1, r6, #1
    20cc:	e3140004 	tst	r4, #4
    20d0:	12811001 	addne	r1, r1, #1
    20d4:	e59f357c 	ldr	r3, [pc, #1404]	; 0x2658
    20d8:	11a01801 	lslne	r1, r1, #16
    20dc:	11a01821 	lsrne	r1, r1, #16
    20e0:	e3a00e7d 	mov	r0, #2000	; 0x7d0
    20e4:	e1cd24bc 	strh	r2, [sp, #76]	; 0x4c
    20e8:	e58d3014 	str	r3, [sp, #20]
    20ec:	ebffff4f 	bl	0x1e30
    20f0:	e3a03000 	mov	r3, #0
    20f4:	e3a01001 	mov	r1, #1
    20f8:	e1a02003 	mov	r2, r3
    20fc:	e58d0024 	str	r0, [sp, #36]	; 0x24
    2100:	e014c311 	ands	ip, r4, r1, lsl r3
    2104:	1a00010d 	bne	0x2540
    2108:	e2833001 	add	r3, r3, #1
    210c:	e3530003 	cmp	r3, #3
    2110:	1afffffa 	bne	0x2100
    2114:	e3560000 	cmp	r6, #0
    2118:	1a00009b 	bne	0x238c
    211c:	e3550000 	cmp	r5, #0
    2120:	1a000090 	bne	0x2368
    2124:	e3140004 	tst	r4, #4
    2128:	159d2020 	ldrne	r2, [sp, #32]
    212c:	11dd10fc 	ldrshne	r1, [sp, #12]
    2130:	159d0024 	ldrne	r0, [sp, #36]	; 0x24
    2134:	1bfffd63 	blne	0x16c8
    2138:	e59d3028 	ldr	r3, [sp, #40]	; 0x28
    213c:	e3530000 	cmp	r3, #0
    2140:	1a000013 	bne	0x2194
    2144:	e3a03001 	mov	r3, #1
    2148:	e58d3028 	str	r3, [sp, #40]	; 0x28
    214c:	e59d3028 	ldr	r3, [sp, #40]	; 0x28
    2150:	e0833103 	add	r3, r3, r3, lsl #2
    2154:	e1a03083 	lsl	r3, r3, #1
    2158:	e58d3028 	str	r3, [sp, #40]	; 0x28
    215c:	ebfffd40 	bl	0x1664
    2160:	e28d000c 	add	r0, sp, #12
    2164:	ebfffaee 	bl	0xd24
    2168:	ebfffd42 	bl	0x1678
    216c:	ebfffd46 	bl	0x168c
    2170:	ebfffd4d 	bl	0x16ac
    2174:	e3500000 	cmp	r0, #0
    2178:	0afffff3 	beq	0x214c
    217c:	e1a01000 	mov	r1, r0
    2180:	e3a0000a 	mov	r0, #10
    2184:	ebffff29 	bl	0x1e30
    2188:	e59d3028 	ldr	r3, [sp, #40]	; 0x28
    218c:	e0223390 	mla	r2, r0, r3, r3
    2190:	e58d2028 	str	r2, [sp, #40]	; 0x28
    2194:	ebfffd32 	bl	0x1664
    2198:	e28d000c 	add	r0, sp, #12
    219c:	ebfffae0 	bl	0xd24
    21a0:	ebfffd34 	bl	0x1678
    21a4:	ebfffd38 	bl	0x168c
    21a8:	e3a01000 	mov	r1, #0
    21ac:	e1a0b000 	mov	fp, r0
    21b0:	e1dd00fc 	ldrsh	r0, [sp, #12]
    21b4:	ebffff18 	bl	0x1e1c
    21b8:	e1a01000 	mov	r1, r0
    21bc:	e1dd00fe 	ldrsh	r0, [sp, #14]
    21c0:	ebffff15 	bl	0x1e1c
    21c4:	e1a01000 	mov	r1, r0
    21c8:	e1dd01f0 	ldrsh	r0, [sp, #16]
    21cc:	ebffff12 	bl	0x1e1c
    21d0:	e1a01000 	mov	r1, r0
    21d4:	e1dd02f4 	ldrsh	r0, [sp, #36]	; 0x24
    21d8:	ebffff0f 	bl	0x1e1c
    21dc:	e59f3478 	ldr	r3, [pc, #1144]	; 0x265c
    21e0:	e1500003 	cmp	r0, r3
    21e4:	e1a0a000 	mov	sl, r0
    21e8:	0a00010d 	beq	0x2624
    21ec:	9a000053 	bls	0x2340
    21f0:	e59f3468 	ldr	r3, [pc, #1128]	; 0x2660
    21f4:	e1500003 	cmp	r0, r3
    21f8:	0a00010d 	beq	0x2634
    21fc:	e59f3460 	ldr	r3, [pc, #1120]	; 0x2664
    2200:	e1500003 	cmp	r0, r3
    2204:	1a000067 	bne	0x23a8
    2208:	e59f0458 	ldr	r0, [pc, #1112]	; 0x2668
    220c:	ebfff9fe 	bl	0xa0c
    2210:	e3a09003 	mov	r9, #3
    2214:	e59f8450 	ldr	r8, [pc, #1104]	; 0x266c
    2218:	e5986000 	ldr	r6, [r8]
    221c:	e3560000 	cmp	r6, #0
    2220:	0a000062 	beq	0x23b0
    2224:	e3a04000 	mov	r4, #0
    2228:	e59f3440 	ldr	r3, [pc, #1088]	; 0x2670
    222c:	e1a05004 	mov	r5, r4
    2230:	e0839089 	add	r9, r3, r9, lsl #1
    2234:	ea000016 	b	0x2294
    2238:	e15720b6 	ldrh	r2, [r7, #-6]
    223c:	e1d931b8 	ldrh	r3, [r9, #24]
    2240:	e1520003 	cmp	r2, r3
    2244:	0a00003b 	beq	0x2338
    2248:	e1a01005 	mov	r1, r5
    224c:	e59f0420 	ldr	r0, [pc, #1056]	; 0x2674
    2250:	ebfff9ed 	bl	0xa0c
    2254:	e15760b4 	ldrh	r6, [r7, #-4]
    2258:	e2866001 	add	r6, r6, #1
    225c:	e1a06806 	lsl	r6, r6, #16
    2260:	e1a06826 	lsr	r6, r6, #16
    2264:	e14760b4 	strh	r6, [r7, #-4]
    2268:	e0866004 	add	r6, r6, r4
    226c:	e2855001 	add	r5, r5, #1
    2270:	e1a06806 	lsl	r6, r6, #16
    2274:	e1a05805 	lsl	r5, r5, #16
    2278:	e5983000 	ldr	r3, [r8]
    227c:	e1a06826 	lsr	r6, r6, #16
    2280:	e1a05825 	lsr	r5, r5, #16
    2284:	e1a04806 	lsl	r4, r6, #16
    2288:	e1550003 	cmp	r5, r3
    228c:	e1a04844 	asr	r4, r4, #16
    2290:	2a000046 	bcs	0x23b0
    2294:	e3a03000 	mov	r3, #0
    2298:	e1a07205 	lsl	r7, r5, #4
    229c:	e28d2050 	add	r2, sp, #80	; 0x50
    22a0:	e0876005 	add	r6, r7, r5
    22a4:	e0826106 	add	r6, r2, r6, lsl #2
    22a8:	e5162024 	ldr	r2, [r6, #-36]	; 0xffffffdc
    22ac:	e3120001 	tst	r2, #1
    22b0:	e14630b4 	strh	r3, [r6, #-4]
    22b4:	0a000009 	beq	0x22e0
    22b8:	e15620ba 	ldrh	r2, [r6, #-10]
    22bc:	e1d930b0 	ldrh	r3, [r9]
    22c0:	e1520003 	cmp	r2, r3
    22c4:	0a000005 	beq	0x22e0
    22c8:	e1a01005 	mov	r1, r5
    22cc:	e59f03a4 	ldr	r0, [pc, #932]	; 0x2678
    22d0:	ebfff9cd 	bl	0xa0c
    22d4:	e15630b4 	ldrh	r3, [r6, #-4]
    22d8:	e2833001 	add	r3, r3, #1
    22dc:	e14630b4 	strh	r3, [r6, #-4]
    22e0:	e0876005 	add	r6, r7, r5
    22e4:	e28d3050 	add	r3, sp, #80	; 0x50
    22e8:	e0836106 	add	r6, r3, r6, lsl #2
    22ec:	e5161024 	ldr	r1, [r6, #-36]	; 0xffffffdc
    22f0:	e3110002 	tst	r1, #2
    22f4:	0a00000a 	beq	0x2324
    22f8:	e15620b8 	ldrh	r2, [r6, #-8]
    22fc:	e1d930bc 	ldrh	r3, [r9, #12]
    2300:	e1520003 	cmp	r2, r3
    2304:	0a000006 	beq	0x2324
    2308:	e1a01005 	mov	r1, r5
    230c:	e59f0368 	ldr	r0, [pc, #872]	; 0x267c
    2310:	ebfff9bd 	bl	0xa0c
    2314:	e15630b4 	ldrh	r3, [r6, #-4]
    2318:	e2833001 	add	r3, r3, #1
    231c:	e14630b4 	strh	r3, [r6, #-4]
    2320:	e5161024 	ldr	r1, [r6, #-36]	; 0xffffffdc
    2324:	e0877005 	add	r7, r7, r5
    2328:	e28d3050 	add	r3, sp, #80	; 0x50
    232c:	e3110004 	tst	r1, #4
    2330:	e0837107 	add	r7, r3, r7, lsl #2
    2334:	1affffbf 	bne	0x2238
    2338:	e15760b4 	ldrh	r6, [r7, #-4]
    233c:	eaffffc9 	b	0x2268
    2340:	e59f3338 	ldr	r3, [pc, #824]	; 0x2680
    2344:	e1500003 	cmp	r0, r3
    2348:	0a0000bd 	beq	0x2644
    234c:	e59f3330 	ldr	r3, [pc, #816]	; 0x2684
    2350:	e1500003 	cmp	r0, r3
    2354:	1a000013 	bne	0x23a8
    2358:	e59f0328 	ldr	r0, [pc, #808]	; 0x2688
    235c:	ebfff9aa 	bl	0xa0c
    2360:	e3a09002 	mov	r9, #2
    2364:	eaffffaa 	b	0x2214
    2368:	e1dd10fe 	ldrsh	r1, [sp, #14]
    236c:	e1dd20fc 	ldrsh	r2, [sp, #12]
    2370:	e28d3034 	add	r3, sp, #52	; 0x34
    2374:	e1822801 	orr	r2, r2, r1, lsl #16
    2378:	e59d0024 	ldr	r0, [sp, #36]	; 0x24
    237c:	e59d101c 	ldr	r1, [sp, #28]
    2380:	ebfffa83 	bl	0xd94
    2384:	e59d402c 	ldr	r4, [sp, #44]	; 0x2c
    2388:	eaffff65 	b	0x2124
    238c:	e1dd20fc 	ldrsh	r2, [sp, #12]
    2390:	e59d1018 	ldr	r1, [sp, #24]
    2394:	ebfff934 	bl	0x86c
    2398:	e59d402c 	ldr	r4, [sp, #44]	; 0x2c
    239c:	e58d0030 	str	r0, [sp, #48]	; 0x30
    23a0:	e2045002 	and	r5, r4, #2
    23a4:	eaffff5c 	b	0x211c
    23a8:	e59f62dc 	ldr	r6, [pc, #732]	; 0x268c
    23ac:	e59f82b8 	ldr	r8, [pc, #696]	; 0x266c
    23b0:	ebfffe9c 	bl	0x1e28
    23b4:	e59d1024 	ldr	r1, [sp, #36]	; 0x24
    23b8:	e0866000 	add	r6, r6, r0
    23bc:	e59f02cc 	ldr	r0, [pc, #716]	; 0x2690
    23c0:	ebfff991 	bl	0xa0c
    23c4:	e1a0000b 	mov	r0, fp
    23c8:	ebfffcb7 	bl	0x16ac
    23cc:	e1a01000 	mov	r1, r0
    23d0:	e59f02bc 	ldr	r0, [pc, #700]	; 0x2694
    23d4:	ebfff98c 	bl	0xa0c
    23d8:	e59d3028 	ldr	r3, [sp, #40]	; 0x28
    23dc:	e5982000 	ldr	r2, [r8]
    23e0:	e59f02b0 	ldr	r0, [pc, #688]	; 0x2698
    23e4:	e0010293 	mul	r1, r3, r2
    23e8:	ebfff987 	bl	0xa0c
    23ec:	e59f12a8 	ldr	r1, [pc, #680]	; 0x269c
    23f0:	e59f02a8 	ldr	r0, [pc, #680]	; 0x26a0
    23f4:	ebfff984 	bl	0xa0c
    23f8:	e1a0100a 	mov	r1, sl
    23fc:	e59f02a0 	ldr	r0, [pc, #672]	; 0x26a4
    2400:	ebfff981 	bl	0xa0c
    2404:	e59d302c 	ldr	r3, [sp, #44]	; 0x2c
    2408:	e1a06806 	lsl	r6, r6, #16
    240c:	e3130001 	tst	r3, #1
    2410:	e1a06846 	asr	r6, r6, #16
    2414:	0a000012 	beq	0x2464
    2418:	e5982000 	ldr	r2, [r8]
    241c:	e3520000 	cmp	r2, #0
    2420:	0a00000f 	beq	0x2464
    2424:	e3a04000 	mov	r4, #0
    2428:	e59f5278 	ldr	r5, [pc, #632]	; 0x26a8
    242c:	e0843204 	add	r3, r4, r4, lsl #4
    2430:	e28d2050 	add	r2, sp, #80	; 0x50
    2434:	e0823103 	add	r3, r2, r3, lsl #2
    2438:	e15320ba 	ldrh	r2, [r3, #-10]
    243c:	e1a01004 	mov	r1, r4
    2440:	e1a00005 	mov	r0, r5
    2444:	e2844001 	add	r4, r4, #1
    2448:	ebfff96f 	bl	0xa0c
    244c:	e1a04804 	lsl	r4, r4, #16
    2450:	e5983000 	ldr	r3, [r8]
    2454:	e1a04824 	lsr	r4, r4, #16
    2458:	e1540003 	cmp	r4, r3
    245c:	3afffff2 	bcc	0x242c
    2460:	e59d302c 	ldr	r3, [sp, #44]	; 0x2c
    2464:	e3130002 	tst	r3, #2
    2468:	0a000012 	beq	0x24b8
    246c:	e5982000 	ldr	r2, [r8]
    2470:	e3520000 	cmp	r2, #0
    2474:	0a000067 	beq	0x2618
    2478:	e3a04000 	mov	r4, #0
    247c:	e59f5228 	ldr	r5, [pc, #552]	; 0x26ac
    2480:	e0843204 	add	r3, r4, r4, lsl #4
    2484:	e28d2050 	add	r2, sp, #80	; 0x50
    2488:	e0823103 	add	r3, r2, r3, lsl #2
    248c:	e15320b8 	ldrh	r2, [r3, #-8]
    2490:	e1a01004 	mov	r1, r4
    2494:	e1a00005 	mov	r0, r5
    2498:	e2844001 	add	r4, r4, #1
    249c:	ebfff95a 	bl	0xa0c
    24a0:	e1a04804 	lsl	r4, r4, #16
    24a4:	e5983000 	ldr	r3, [r8]
    24a8:	e1a04824 	lsr	r4, r4, #16
    24ac:	e1540003 	cmp	r4, r3
    24b0:	3afffff2 	bcc	0x2480
    24b4:	e59d302c 	ldr	r3, [sp, #44]	; 0x2c
    24b8:	e3130004 	tst	r3, #4
    24bc:	1a000028 	bne	0x2564
    24c0:	e5983000 	ldr	r3, [r8]
    24c4:	e3530000 	cmp	r3, #0
    24c8:	13a04000 	movne	r4, #0
    24cc:	159f51dc 	ldrne	r5, [pc, #476]	; 0x26b0
    24d0:	0a00000c 	beq	0x2508
    24d4:	e0843204 	add	r3, r4, r4, lsl #4
    24d8:	e28d2050 	add	r2, sp, #80	; 0x50
    24dc:	e0823103 	add	r3, r2, r3, lsl #2
    24e0:	e15320bc 	ldrh	r2, [r3, #-12]
    24e4:	e1a01004 	mov	r1, r4
    24e8:	e1a00005 	mov	r0, r5
    24ec:	e2844001 	add	r4, r4, #1
    24f0:	ebfff945 	bl	0xa0c
    24f4:	e1a04804 	lsl	r4, r4, #16
    24f8:	e5983000 	ldr	r3, [r8]
    24fc:	e1a04824 	lsr	r4, r4, #16
    2500:	e1540003 	cmp	r4, r3
    2504:	3afffff2 	bcc	0x24d4
    2508:	e1a0100b 	mov	r1, fp
    250c:	e59f01a0 	ldr	r0, [pc, #416]	; 0x26b4
    2510:	ebfff93d 	bl	0xa0c
    2514:	e3560000 	cmp	r6, #0
    2518:	0a00002d 	beq	0x25d4
    251c:	c59f0194 	ldrgt	r0, [pc, #404]	; 0x26b8
    2520:	d59f0194 	ldrle	r0, [pc, #404]	; 0x26bc
    2524:	ebfff938 	bl	0xa0c
    2528:	e28d004e 	add	r0, sp, #78	; 0x4e
    252c:	ebfffc62 	bl	0x16bc
    2530:	e3a00000 	mov	r0, #0
    2534:	e28dd054 	add	sp, sp, #84	; 0x54
    2538:	e8bd4ff0 	pop	{r4, r5, r6, r7, r8, r9, sl, fp, lr}
    253c:	e12fff1e 	bx	lr
    2540:	e59de014 	ldr	lr, [sp, #20]
    2544:	e027e290 	mla	r7, r0, r2, lr
    2548:	e28dc00c 	add	ip, sp, #12
    254c:	e2822001 	add	r2, r2, #1
    2550:	e08cc103 	add	ip, ip, r3, lsl #2
    2554:	e1a02802 	lsl	r2, r2, #16
    2558:	e58c700c 	str	r7, [ip, #12]
    255c:	e1a02822 	lsr	r2, r2, #16
    2560:	eafffee8 	b	0x2108
    2564:	e5983000 	ldr	r3, [r8]
    2568:	e3530000 	cmp	r3, #0
    256c:	13a04000 	movne	r4, #0
    2570:	159f5148 	ldrne	r5, [pc, #328]	; 0x26c0
    2574:	0affffe3 	beq	0x2508
    2578:	e0843204 	add	r3, r4, r4, lsl #4
    257c:	e28d2050 	add	r2, sp, #80	; 0x50
    2580:	e0823103 	add	r3, r2, r3, lsl #2
    2584:	e15320b6 	ldrh	r2, [r3, #-6]
    2588:	e1a01004 	mov	r1, r4
    258c:	e1a00005 	mov	r0, r5
    2590:	e2844001 	add	r4, r4, #1
    2594:	ebfff91c 	bl	0xa0c
    2598:	e1a04804 	lsl	r4, r4, #16
    259c:	e5983000 	ldr	r3, [r8]
    25a0:	e1a04824 	lsr	r4, r4, #16
    25a4:	e1540003 	cmp	r4, r3
    25a8:	3afffff2 	bcc	0x2578
    25ac:	eaffffc3 	b	0x24c0
    25b0:	e3530001 	cmp	r3, #1
    25b4:	1afffebe 	bne	0x20b4
    25b8:	e1dd31f0 	ldrsh	r3, [sp, #16]
    25bc:	e3530000 	cmp	r3, #0
    25c0:	03a02066 	moveq	r2, #102	; 0x66
    25c4:	059f30f8 	ldreq	r3, [pc, #248]	; 0x26c4
    25c8:	01cd21b0 	strheq	r2, [sp, #16]
    25cc:	058d300c 	streq	r3, [sp, #12]
    25d0:	eafffeb7 	b	0x20b4
    25d4:	e59f00ec 	ldr	r0, [pc, #236]	; 0x26c8
    25d8:	ebfff90b 	bl	0xa0c
    25dc:	e1a0000b 	mov	r0, fp
    25e0:	ebfffc31 	bl	0x16ac
    25e4:	e1a01000 	mov	r1, r0
    25e8:	e59f00dc 	ldr	r0, [pc, #220]	; 0x26cc
    25ec:	ebfffe0f 	bl	0x1e30
    25f0:	e3a03ffa 	mov	r3, #1000	; 0x3e8
    25f4:	e00c0093 	mul	ip, r3, r0
    25f8:	e59f10d0 	ldr	r1, [pc, #208]	; 0x26d0
    25fc:	e083219c 	umull	r2, r3, ip, r1
    2600:	e59f00cc 	ldr	r0, [pc, #204]	; 0x26d4
    2604:	e1a01323 	lsr	r1, r3, #6
    2608:	ebfff8ff 	bl	0xa0c
    260c:	e59f00c4 	ldr	r0, [pc, #196]	; 0x26d8
    2610:	ebfff8fd 	bl	0xa0c
    2614:	eaffffc3 	b	0x2528
    2618:	e3130004 	tst	r3, #4
    261c:	1affffb9 	bne	0x2508
    2620:	eaffffa6 	b	0x24c0
    2624:	e59f00b0 	ldr	r0, [pc, #176]	; 0x26dc
    2628:	ebfff8f7 	bl	0xa0c
    262c:	e3a09001 	mov	r9, #1
    2630:	eafffef7 	b	0x2214
    2634:	e59f00a4 	ldr	r0, [pc, #164]	; 0x26e0
    2638:	ebfff8f3 	bl	0xa0c
    263c:	e3a09000 	mov	r9, #0
    2640:	eafffef3 	b	0x2214
    2644:	e59f0098 	ldr	r0, [pc, #152]	; 0x26e4
    2648:	ebfff8ef 	bl	0xa0c
    264c:	e3a09004 	mov	r9, #4
    2650:	eafffeef 	b	0x2214
    2654:	080027ec 	stmdaeq	r0, {r2, r3, r5, r6, r7, r8, r9, sl, sp}
    2658:	03000090 	tsteq	r0, #144	; 0x90
    265c:	00007b05 	andeq	r7, r0, r5, lsl #22
    2660:	00008a02 	andeq	r8, r0, r2, lsl #20
    2664:	0000e9f5 			; <UNDEFINED> instruction: 0x0000e9f5
    2668:	080028a0 	stmdaeq	r0, {r5, r7, fp, sp}
    266c:	03000868 	tsteq	r0, #104, 16	; 0x680000
    2670:	08002788 	stmdaeq	r0, {r3, r7, r8, r9, sl, sp}
    2674:	08002960 	stmdaeq	r0, {r5, r6, r8, fp, sp}
    2678:	080028fc 	stmdaeq	r0, {r2, r3, r4, r5, r6, r7, fp, sp}
    267c:	0800292c 	stmdaeq	r0, {r2, r3, r5, r8, fp, sp}
    2680:	000018f2 			; <UNDEFINED> instruction: 0x000018f2
    2684:	00004eaf 	andeq	r4, r0, pc, lsr #29
    2688:	0800286c 	stmdaeq	r0, {r2, r3, r5, r6, fp, sp}
    268c:	0000ffff 			; <UNDEFINED> instruction: 0x0000ffff
    2690:	08002990 	stmdaeq	r0, {r4, r7, r8, fp, sp}
    2694:	080029a8 	stmdaeq	r0, {r3, r5, r7, r8, fp, sp}
    2698:	080029c0 	stmdaeq	r0, {r6, r7, r8, fp, sp}
    269c:	080029d8 	stmdaeq	r0, {r3, r4, r6, r7, r8, fp, sp}
    26a0:	080029e4 	stmdaeq	r0, {r2, r5, r6, r7, r8, fp, sp}
    26a4:	080029fc 	stmdaeq	r0, {r2, r3, r4, r5, r6, r7, r8, fp, sp}
    26a8:	08002a18 	stmdaeq	r0, {r3, r4, r9, fp, sp}
    26ac:	08002a34 	stmdaeq	r0, {r2, r4, r5, r9, fp, sp}
    26b0:	08002a80 	stmdaeq	r0, {r7, r9, fp, sp}
    26b4:	08002a50 	stmdaeq	r0, {r4, r6, r9, fp, sp}
    26b8:	08002b28 	stmdaeq	r0, {r3, r5, r8, r9, fp, sp}
    26bc:	08002b3c 	stmdaeq	r0, {r2, r3, r4, r5, r8, r9, fp, sp}
    26c0:	08002a64 	stmdaeq	r0, {r2, r5, r6, r9, fp, sp}
    26c4:	34153415 	ldrcc	r3, [r5], #-1045	; 0xfffffbeb
    26c8:	08002a9c 	stmdaeq	r0, {r2, r3, r4, r7, r9, fp, sp}
    26cc:	00442f80 	subeq	r2, r4, r0, lsl #31
    26d0:	10624dd3 			; <UNDEFINED> instruction: 0x10624dd3
    26d4:	08002ad0 	stmdaeq	r0, {r4, r6, r7, r9, fp, sp}
    26d8:	08002af0 	stmdaeq	r0, {r4, r5, r6, r7, r9, fp, sp}
    26dc:	08002840 	stmdaeq	r0, {r6, fp, sp}
    26e0:	08002810 	stmdaeq	r0, {r4, fp, sp}
    26e4:	080028d0 	stmdaeq	r0, {r4, r6, r7, fp, sp}
    26e8:	e92d4070 	push	{r4, r5, r6, lr}
    26ec:	e59f606c 	ldr	r6, [pc, #108]	; 0x2760
    26f0:	e59f506c 	ldr	r5, [pc, #108]	; 0x2764
    26f4:	e0466005 	sub	r6, r6, r5
    26f8:	e1b06146 	asrs	r6, r6, #2
    26fc:	0a000007 	beq	0x2720
    2700:	e3a04000 	mov	r4, #0
    2704:	e2455004 	sub	r5, r5, #4
    2708:	e2844001 	add	r4, r4, #1
    270c:	e5b53004 	ldr	r3, [r5, #4]!
    2710:	e1a0e00f 	mov	lr, pc
    2714:	e12fff13 	bx	r3
    2718:	e1560004 	cmp	r6, r4
    271c:	1afffff9 	bne	0x2708
    2720:	e59f6040 	ldr	r6, [pc, #64]	; 0x2768
    2724:	e59f5040 	ldr	r5, [pc, #64]	; 0x276c
    2728:	e0466005 	sub	r6, r6, r5
    272c:	ebfff6b7 	bl	0x210
    2730:	e1b06146 	asrs	r6, r6, #2
    2734:	0a000007 	beq	0x2758
    2738:	e3a04000 	mov	r4, #0
    273c:	e2455004 	sub	r5, r5, #4
    2740:	e2844001 	add	r4, r4, #1
    2744:	e5b53004 	ldr	r3, [r5, #4]!
    2748:	e1a0e00f 	mov	lr, pc
    274c:	e12fff13 	bx	r3
    2750:	e1560004 	cmp	r6, r4
    2754:	1afffff9 	bne	0x2740
    2758:	e8bd4070 	pop	{r4, r5, r6, lr}
    275c:	e12fff1e 	bx	lr
    2760:	03000874 	tsteq	r0, #116, 16	; 0x740000
    2764:	03000874 	tsteq	r0, #116, 16	; 0x740000
    2768:	03000878 	tsteq	r0, #120, 16	; 0x780000
    276c:	03000874 	tsteq	r0, #116, 16	; 0x740000
    2770:	e1a0c00d 	mov	ip, sp
    2774:	e92ddff8 	push	{r3, r4, r5, r6, r7, r8, r9, sl, fp, ip, lr, pc}
    2778:	e24cb004 	sub	fp, ip, #4
    277c:	e24bd028 	sub	sp, fp, #40	; 0x28
    2780:	e89d6ff0 	ldm	sp, {r4, r5, r6, r7, r8, r9, sl, fp, sp, lr}
    2784:	e12fff1e 	bx	lr
    2788:	3340d4b0 	cmpcc	r0, #176, 8	; 0xb0000000
    278c:	e7146a79 			; <UNDEFINED> instruction: 0xe7146a79
    2790:	0000e3c1 	andeq	lr, r0, r1, asr #7
    2794:	1199be52 	orrsne	fp, r9, r2, asr lr
    2798:	1fd75608 	svcne	0x00d75608
    279c:	00000747 	andeq	r0, r0, r7, asr #14
    27a0:	39bf5e47 	ldmibcc	pc!, {r0, r1, r2, r6, r9, sl, fp, ip, lr}	; <UNPREDICTABLE>
    27a4:	8e3ae5a4 	cdphi	5, 3, cr14, cr10, cr4, {5}
    27a8:	ffff8d84 			; <UNDEFINED> instruction: 0xffff8d84
    27ac:	08002c48 	stmdaeq	r0, {r3, r6, sl, fp, sp}
    27b0:	08002c50 	stmdaeq	r0, {r4, r6, sl, fp, sp}
    27b4:	08002c58 	stmdaeq	r0, {r3, r4, r6, sl, fp, sp}
    27b8:	08002c60 	stmdaeq	r0, {r5, r6, sl, fp, sp}
    27bc:	08002c18 	stmdaeq	r0, {r3, r4, sl, fp, sp}
    27c0:	08002c24 	stmdaeq	r0, {r2, r5, sl, fp, sp}
    27c4:	08002c30 	stmdaeq	r0, {r4, r5, sl, fp, sp}
    27c8:	08002c3c 	stmdaeq	r0, {r2, r3, r4, r5, sl, fp, sp}
    27cc:	08002be8 	stmdaeq	r0, {r3, r5, r6, r7, r8, r9, fp, sp}
    27d0:	08002bf4 	stmdaeq	r0, {r2, r4, r5, r6, r7, r8, r9, fp, sp}
    27d4:	08002c00 	stmdaeq	r0, {sl, fp, sp}
    27d8:	08002c0c 	stmdaeq	r0, {r2, r3, sl, fp, sp}
    27dc:	08002bb8 	stmdaeq	r0, {r3, r4, r5, r7, r8, r9, fp, sp}
    27e0:	08002bc4 	stmdaeq	r0, {r2, r6, r7, r8, r9, fp, sp}
    27e4:	08002bd0 	stmdaeq	r0, {r4, r6, r7, r8, r9, fp, sp}
    27e8:	08002bdc 	stmdaeq	r0, {r2, r3, r4, r6, r7, r8, r9, fp, sp}
    27ec:	6e6e7552 	mcrvs	5, 3, r7, cr14, cr2, {2}
    27f0:	20676e69 	rsbcs	r6, r7, r9, ror #28
    27f4:	65726f43 	ldrbvs	r6, [r2, #-3907]!	; 0xfffff0bd
    27f8:	6b72614d 	blvs	0x1c9ad34
    27fc:	726f6620 	rsbvc	r6, pc, #32, 12	; 0x2000000
    2800:	20642520 	rsbcs	r2, r4, r0, lsr #10
    2804:	72657469 	rsbvc	r7, r5, #1761607680	; 0x69000000
    2808:	6f697461 	svcvs	0x00697461
    280c:	000a736e 	andeq	r7, sl, lr, ror #6
    2810:	70206b36 	eorvc	r6, r0, r6, lsr fp
    2814:	6f667265 	svcvs	0x00667265
    2818:	6e616d72 	mcrvs	13, 3, r6, cr1, cr2, {3}
    281c:	72206563 	eorvc	r6, r0, #415236096	; 0x18c00000
    2820:	70206e75 	eorvc	r6, r0, r5, ror lr
    2824:	6d617261 	sfmvs	f7, 2, [r1, #-388]!	; 0xfffffe7c
    2828:	72657465 	rsbvc	r7, r5, #1694498816	; 0x65000000
    282c:	6f662073 	svcvs	0x00662073
    2830:	6f632072 	svcvs	0x00632072
    2834:	616d6572 	cmnvs	sp, r2, ror r5
    2838:	0a2e6b72 	beq	0xb9d608
    283c:	00000000 	andeq	r0, r0, r0
    2840:	76206b36 			; <UNDEFINED> instruction: 0x76206b36
    2844:	64696c61 	strbtvs	r6, [r9], #-3169	; 0xfffff39f
    2848:	6f697461 	svcvs	0x00697461
    284c:	7572206e 	ldrbvc	r2, [r2, #-110]!	; 0xffffff92
    2850:	6170206e 	cmnvs	r0, lr, rrx
    2854:	656d6172 	strbvs	r6, [sp, #-370]!	; 0xfffffe8e
    2858:	73726574 	cmnvc	r2, #116, 10	; 0x1d000000
    285c:	726f6620 	rsbvc	r6, pc, #32, 12	; 0x2000000
    2860:	726f6320 	rsbvc	r6, pc, #32, 6	; 0x80000000
    2864:	72616d65 	rsbvc	r6, r1, #6464	; 0x1940
    2868:	000a2e6b 	andeq	r2, sl, fp, ror #28
    286c:	666f7250 			; <UNDEFINED> instruction: 0x666f7250
    2870:	20656c69 	rsbcs	r6, r5, r9, ror #24
    2874:	656e6567 	strbvs	r6, [lr, #-1383]!	; 0xfffffa99
    2878:	69746172 	ldmdbvs	r4!, {r1, r4, r5, r6, r8, sp, lr}^
    287c:	72206e6f 	eorvc	r6, r0, #1776	; 0x6f0
    2880:	70206e75 	eorvc	r6, r0, r5, ror lr
    2884:	6d617261 	sfmvs	f7, 2, [r1, #-388]!	; 0xfffffe7c
    2888:	72657465 	rsbvc	r7, r5, #1694498816	; 0x65000000
    288c:	6f662073 	svcvs	0x00662073
    2890:	6f632072 	svcvs	0x00632072
    2894:	616d6572 	cmnvs	sp, r2, ror r5
    2898:	0a2e6b72 	beq	0xb9d668
    289c:	00000000 	andeq	r0, r0, r0
    28a0:	70204b32 	eorvc	r4, r0, r2, lsr fp
    28a4:	6f667265 	svcvs	0x00667265
    28a8:	6e616d72 	mcrvs	13, 3, r6, cr1, cr2, {3}
    28ac:	72206563 	eorvc	r6, r0, #415236096	; 0x18c00000
    28b0:	70206e75 	eorvc	r6, r0, r5, ror lr
    28b4:	6d617261 	sfmvs	f7, 2, [r1, #-388]!	; 0xfffffe7c
    28b8:	72657465 	rsbvc	r7, r5, #1694498816	; 0x65000000
    28bc:	6f662073 	svcvs	0x00662073
    28c0:	6f632072 	svcvs	0x00632072
    28c4:	616d6572 	cmnvs	sp, r2, ror r5
    28c8:	0a2e6b72 	beq	0xb9d698
    28cc:	00000000 	andeq	r0, r0, r0
    28d0:	76204b32 			; <UNDEFINED> instruction: 0x76204b32
    28d4:	64696c61 	strbtvs	r6, [r9], #-3169	; 0xfffff39f
    28d8:	6f697461 	svcvs	0x00697461
    28dc:	7572206e 	ldrbvc	r2, [r2, #-110]!	; 0xffffff92
    28e0:	6170206e 	cmnvs	r0, lr, rrx
    28e4:	656d6172 	strbvs	r6, [sp, #-370]!	; 0xfffffe8e
    28e8:	73726574 	cmnvc	r2, #116, 10	; 0x1d000000
    28ec:	726f6620 	rsbvc	r6, pc, #32, 12	; 0x2000000
    28f0:	726f6320 	rsbvc	r6, pc, #32, 6	; 0x80000000
    28f4:	72616d65 	rsbvc	r6, r1, #6464	; 0x1940
    28f8:	000a2e6b 	andeq	r2, sl, fp, ror #28
    28fc:	5d75255b 	ldclpl	5, cr2, [r5, #-364]!	; 0xfffffe94
    2900:	4f525245 	svcmi	0x00525245
    2904:	6c202152 	stfvss	f2, [r0], #-328	; 0xfffffeb8
    2908:	20747369 	rsbscs	r7, r4, r9, ror #6
    290c:	20637263 	rsbcs	r7, r3, r3, ror #4
    2910:	30257830 	eorcc	r7, r5, r0, lsr r8
    2914:	2d207834 	stccs	8, cr7, [r0, #-208]!	; 0xffffff30
    2918:	6f687320 	svcvs	0x00687320
    291c:	20646c75 	rsbcs	r6, r4, r5, ror ip
    2920:	30206562 	eorcc	r6, r0, r2, ror #10
    2924:	34302578 	ldrtcc	r2, [r0], #-1400	; 0xfffffa88
    2928:	00000a78 	andeq	r0, r0, r8, ror sl
    292c:	5d75255b 	ldclpl	5, cr2, [r5, #-364]!	; 0xfffffe94
    2930:	4f525245 	svcmi	0x00525245
    2934:	6d202152 	stfvss	f2, [r0, #-328]!	; 0xfffffeb8
    2938:	69727461 	ldmdbvs	r2!, {r0, r5, r6, sl, ip, sp, lr}^
    293c:	72632078 	rsbvc	r2, r3, #120	; 0x78
    2940:	78302063 	ldmdavc	r0!, {r0, r1, r5, r6, sp}
    2944:	78343025 	ldmdavc	r4!, {r0, r2, r5, ip, sp}
    2948:	73202d20 			; <UNDEFINED> instruction: 0x73202d20
    294c:	6c756f68 	ldclvs	15, cr6, [r5], #-416	; 0xfffffe60
    2950:	65622064 	strbvs	r2, [r2, #-100]!	; 0xffffff9c
    2954:	25783020 	ldrbcs	r3, [r8, #-32]!	; 0xffffffe0
    2958:	0a783430 	beq	0x1e0fa20
    295c:	00000000 	andeq	r0, r0, r0
    2960:	5d75255b 	ldclpl	5, cr2, [r5, #-364]!	; 0xfffffe94
    2964:	4f525245 	svcmi	0x00525245
    2968:	73202152 			; <UNDEFINED> instruction: 0x73202152
    296c:	65746174 	ldrbvs	r6, [r4, #-372]!	; 0xfffffe8c
    2970:	63726320 	cmnvs	r2, #32, 6	; 0x80000000
    2974:	25783020 	ldrbcs	r3, [r8, #-32]!	; 0xffffffe0
    2978:	20783430 	rsbscs	r3, r8, r0, lsr r4
    297c:	6873202d 	ldmdavs	r3!, {r0, r2, r3, r5, sp}^
    2980:	646c756f 	strbtvs	r7, [ip], #-1391	; 0xfffffa91
    2984:	20656220 	rsbcs	r6, r5, r0, lsr #4
    2988:	30257830 	eorcc	r7, r5, r0, lsr r8
    298c:	000a7834 	andeq	r7, sl, r4, lsr r8
    2990:	65726f43 	ldrbvs	r6, [r2, #-3907]!	; 0xfffff0bd
    2994:	6b72614d 	blvs	0x1c9aed0
    2998:	7a695320 	bvc	0x1a57620
    299c:	20202065 	eorcs	r2, r0, r5, rrx
    29a0:	25203a20 	strcs	r3, [r0, #-2592]!	; 0xfffff5e0
    29a4:	00000a64 	andeq	r0, r0, r4, ror #20
    29a8:	61746f54 	cmnvs	r4, r4, asr pc
    29ac:	6974206c 	ldmdbvs	r4!, {r2, r3, r5, r6, sp}^
    29b0:	2820656d 	stmdacs	r0!, {r0, r2, r3, r5, r6, r8, sl, sp, lr}
    29b4:	2029736d 	eorcs	r7, r9, sp, ror #6
    29b8:	25203a20 	strcs	r3, [r0, #-2592]!	; 0xfffff5e0
    29bc:	00000a64 	andeq	r0, r0, r4, ror #20
    29c0:	72657449 	rsbvc	r7, r5, #1224736768	; 0x49000000
    29c4:	6f697461 	svcvs	0x00697461
    29c8:	2020736e 	eorcs	r7, r0, lr, ror #6
    29cc:	20202020 	eorcs	r2, r0, r0, lsr #32
    29d0:	25203a20 	strcs	r3, [r0, #-2592]!	; 0xfffff5e0
    29d4:	00000a64 	andeq	r0, r0, r4, ror #20
    29d8:	38434347 	stmdacc	r3, {r0, r1, r2, r6, r8, r9, lr}^
    29dc:	302e312e 	eorcc	r3, lr, lr, lsr #2
    29e0:	00000000 	andeq	r0, r0, r0
    29e4:	706d6f43 	rsbvc	r6, sp, r3, asr #30
    29e8:	72656c69 	rsbvc	r6, r5, #26880	; 0x6900
    29ec:	72657620 	rsbvc	r7, r5, #32, 12	; 0x2000000
    29f0:	6e6f6973 			; <UNDEFINED> instruction: 0x6e6f6973
    29f4:	25203a20 	strcs	r3, [r0, #-2592]!	; 0xfffff5e0
    29f8:	00000a73 	andeq	r0, r0, r3, ror sl
    29fc:	64656573 	strbtvs	r6, [r5], #-1395	; 0xfffffa8d
    2a00:	20637263 	rsbcs	r7, r3, r3, ror #4
    2a04:	20202020 	eorcs	r2, r0, r0, lsr #32
    2a08:	20202020 	eorcs	r2, r0, r0, lsr #32
    2a0c:	30203a20 	eorcc	r3, r0, r0, lsr #20
    2a10:	34302578 	ldrtcc	r2, [r0], #-1400	; 0xfffffa88
    2a14:	00000a78 	andeq	r0, r0, r8, ror sl
    2a18:	5d64255b 	stclpl	5, cr2, [r4, #-364]!	; 0xfffffe94
    2a1c:	6c637263 	sfmvs	f7, 2, [r3], #-396	; 0xfffffe74
    2a20:	20747369 	rsbscs	r7, r4, r9, ror #6
    2a24:	20202020 	eorcs	r2, r0, r0, lsr #32
    2a28:	203a2020 	eorscs	r2, sl, r0, lsr #32
    2a2c:	30257830 	eorcc	r7, r5, r0, lsr r8
    2a30:	000a7834 	andeq	r7, sl, r4, lsr r8
    2a34:	5d64255b 	stclpl	5, cr2, [r4, #-364]!	; 0xfffffe94
    2a38:	6d637263 	sfmvs	f7, 2, [r3, #-396]!	; 0xfffffe74
    2a3c:	69727461 	ldmdbvs	r2!, {r0, r5, r6, sl, ip, sp, lr}^
    2a40:	20202078 	eorcs	r2, r0, r8, ror r0
    2a44:	203a2020 	eorscs	r2, sl, r0, lsr #32
    2a48:	30257830 	eorcc	r7, r5, r0, lsr r8
    2a4c:	000a7834 	andeq	r7, sl, r4, lsr r8
    2a50:	696e6946 	stmdbvs	lr!, {r1, r2, r6, r8, fp, sp, lr}^
    2a54:	20646573 	rsbcs	r6, r4, r3, ror r5
    2a58:	25206e69 	strcs	r6, [r0, #-3689]!	; 0xfffff197
    2a5c:	736d2064 	cmnvc	sp, #100	; 0x64
    2a60:	00000a2e 	andeq	r0, r0, lr, lsr #20
    2a64:	5d64255b 	stclpl	5, cr2, [r4, #-364]!	; 0xfffffe94
    2a68:	73637263 	cmnvc	r3, #805306374	; 0x30000006
    2a6c:	65746174 	ldrbvs	r6, [r4, #-372]!	; 0xfffffe8c
    2a70:	20202020 	eorcs	r2, r0, r0, lsr #32
    2a74:	203a2020 	eorscs	r2, sl, r0, lsr #32
    2a78:	30257830 	eorcc	r7, r5, r0, lsr r8
    2a7c:	000a7834 	andeq	r7, sl, r4, lsr r8
    2a80:	5d64255b 	stclpl	5, cr2, [r4, #-364]!	; 0xfffffe94
    2a84:	66637263 	strbtvs	r7, [r3], -r3, ror #4
    2a88:	6c616e69 	stclvs	14, cr6, [r1], #-420	; 0xfffffe5c
    2a8c:	20202020 	eorcs	r2, r0, r0, lsr #32
    2a90:	203a2020 	eorscs	r2, sl, r0, lsr #32
    2a94:	30257830 	eorcc	r7, r5, r0, lsr r8
    2a98:	000a7834 	andeq	r7, sl, r4, lsr r8
    2a9c:	3d3d3d3d 	ldccc	13, cr3, [sp, #-244]!	; 0xffffff0c
    2aa0:	3d3d3d3d 	ldccc	13, cr3, [sp, #-244]!	; 0xffffff0c
    2aa4:	3d3d3d3d 	ldccc	13, cr3, [sp, #-244]!	; 0xffffff0c
    2aa8:	3d3d3d3d 	ldccc	13, cr3, [sp, #-244]!	; 0xffffff0c
    2aac:	3d3d3d3d 	ldccc	13, cr3, [sp, #-244]!	; 0xffffff0c
    2ab0:	3d3d3d3d 	ldccc	13, cr3, [sp, #-244]!	; 0xffffff0c
    2ab4:	3d3d3d3d 	ldccc	13, cr3, [sp, #-244]!	; 0xffffff0c
    2ab8:	3d3d3d3d 	ldccc	13, cr3, [sp, #-244]!	; 0xffffff0c
    2abc:	3d3d3d3d 	ldccc	13, cr3, [sp, #-244]!	; 0xffffff0c
    2ac0:	3d3d3d3d 	ldccc	13, cr3, [sp, #-244]!	; 0xffffff0c
    2ac4:	3d3d3d3d 	ldccc	13, cr3, [sp, #-244]!	; 0xffffff0c
    2ac8:	3d3d3d3d 	ldccc	13, cr3, [sp, #-244]!	; 0xffffff0c
    2acc:	000a3d3d 	andeq	r3, sl, sp, lsr sp
    2ad0:	65726f43 	ldrbvs	r6, [r2, #-3907]!	; 0xfffff0bd
    2ad4:	6b72614d 	blvs	0x1c9b010
    2ad8:	53415020 	cmppl	r1, #32
    2adc:	20202053 	eorcs	r2, r0, r3, asr r0
    2ae0:	20202020 	eorcs	r2, r0, r0, lsr #32
    2ae4:	4d206425 	stcmi	4, cr6, [r0, #-148]!	; 0xffffff6c
    2ae8:	736b7261 	cmnvc	fp, #268435462	; 0x10000006
    2aec:	0000000a 	andeq	r0, r0, sl
    2af0:	20202020 	eorcs	r2, r0, r0, lsr #32
    2af4:	20202020 	eorcs	r2, r0, r0, lsr #32
    2af8:	20202020 	eorcs	r2, r0, r0, lsr #32
    2afc:	20202020 	eorcs	r2, r0, r0, lsr #32
    2b00:	202e7376 	eorcs	r7, lr, r6, ror r3
    2b04:	30303031 	eorscc	r3, r0, r1, lsr r0
    2b08:	4d203030 	stcmi	0, cr3, [r0, #-192]!	; 0xffffff40
    2b0c:	736b7261 	cmnvc	fp, #268435462	; 0x10000006
    2b10:	37692820 	strbcc	r2, [r9, -r0, lsr #16]!
    2b14:	3037362d 	eorscc	r3, r7, sp, lsr #12
    2b18:	20402030 	subcs	r2, r0, r0, lsr r0
    2b1c:	30342e33 	eorscc	r2, r4, r3, lsr lr
    2b20:	297a4847 	ldmdbcs	sl!, {r0, r1, r2, r6, fp, lr}^
    2b24:	0000000a 	andeq	r0, r0, sl
    2b28:	6f727245 	svcvs	0x00727245
    2b2c:	64207372 	strtvs	r7, [r0], #-882	; 0xfffffc8e
    2b30:	63657465 	cmnvs	r5, #1694498816	; 0x65000000
    2b34:	0a646574 	beq	0x191c10c
    2b38:	00000000 	andeq	r0, r0, r0
    2b3c:	6e6e6143 	powvsem	f6, f6, f3
    2b40:	7620746f 	strtvc	r7, [r0], -pc, ror #8
    2b44:	64696c61 	strbtvs	r6, [r9], #-3169	; 0xfffff39f
    2b48:	20657461 	rsbcs	r7, r5, r1, ror #8
    2b4c:	7265706f 	rsbvc	r7, r5, #111	; 0x6f
    2b50:	6f697461 	svcvs	0x00697461
    2b54:	6f66206e 	svcvs	0x0066206e
    2b58:	68742072 	ldmdavs	r4!, {r1, r4, r5, r6, sp}^
    2b5c:	20657365 	rsbcs	r7, r5, r5, ror #6
    2b60:	64656573 	strbtvs	r6, [r5], #-1395	; 0xfffffa8d
    2b64:	6c617620 	stclvs	6, cr7, [r1], #-128	; 0xffffff80
    2b68:	2c736575 	ldclcs	5, cr6, [r3], #-468	; 0xfffffe2c
    2b6c:	656c7020 	strbvs	r7, [ip, #-32]!	; 0xffffffe0
    2b70:	20657361 	rsbcs	r7, r5, r1, ror #6
    2b74:	706d6f63 	rsbvc	r6, sp, r3, ror #30
    2b78:	20657261 	rsbcs	r7, r5, r1, ror #4
    2b7c:	68746977 	ldmdavs	r4!, {r0, r1, r2, r4, r5, r6, r8, fp, sp, lr}^
    2b80:	73657220 	cmnvc	r5, #32, 4
    2b84:	73746c75 	cmnvc	r4, #29952	; 0x7500
    2b88:	206e6f20 	rsbcs	r6, lr, r0, lsr #30
    2b8c:	6e6b2061 	cdpvs	0, 6, cr2, cr11, cr1, {3}
    2b90:	206e776f 	rsbcs	r7, lr, pc, ror #14
    2b94:	74616c70 	strbtvc	r6, [r1], #-3184	; 0xfffff390
    2b98:	6d726f66 	ldclvs	15, cr6, [r2, #-408]!	; 0xfffffe68
    2b9c:	00000a2e 	andeq	r0, r0, lr, lsr #20
    2ba0:	74617453 	strbtvc	r7, [r1], #-1107	; 0xfffffbad
    2ba4:	00006369 	andeq	r6, r0, r9, ror #6
    2ba8:	70616548 	rsbvc	r6, r1, r8, asr #10
    2bac:	00000000 	andeq	r0, r0, r0
    2bb0:	63617453 	cmnvs	r1, #1392508928	; 0x53000000
    2bb4:	ffff006b 			; <UNDEFINED> instruction: 0xffff006b
    2bb8:	332e3054 			; <UNDEFINED> instruction: 0x332e3054
    2bbc:	46312d65 	ldrtmi	r2, [r1], -r5, ror #26
    2bc0:	00000000 	andeq	r0, r0, r0
    2bc4:	542e542d 	strtpl	r5, [lr], #-1069	; 0xfffffbd3
    2bc8:	71542b2b 	cmpvc	r4, fp, lsr #22
    2bcc:	00000000 	andeq	r0, r0, r0
    2bd0:	2e335431 	mrccs	4, 1, r5, cr3, cr1, {1}
    2bd4:	7a346534 	bvc	0xd1c0ac
    2bd8:	00000000 	andeq	r0, r0, r0
    2bdc:	302e3433 	eorcc	r3, lr, r3, lsr r4
    2be0:	5e542d65 	cdppl	13, 5, cr2, cr4, cr5, {3}
    2be4:	00000000 	andeq	r0, r0, r0
    2be8:	30352e35 	eorscc	r2, r5, r5, lsr lr
    2bec:	332b6530 			; <UNDEFINED> instruction: 0x332b6530
    2bf0:	00000000 	andeq	r0, r0, r0
    2bf4:	32312e2d 	eorscc	r2, r1, #720	; 0x2d0
    2bf8:	322d6533 	eorcc	r6, sp, #213909504	; 0xcc00000
    2bfc:	00000000 	andeq	r0, r0, r0
    2c00:	6537382d 	ldrvs	r3, [r7, #-2093]!	; 0xfffff7d3
    2c04:	3233382b 	eorscc	r3, r3, #2818048	; 0x2b0000
    2c08:	00000000 	andeq	r0, r0, r0
    2c0c:	362e302b 	strtcc	r3, [lr], -fp, lsr #32
    2c10:	32312d65 	eorscc	r2, r1, #6464	; 0x1940
    2c14:	00000000 	andeq	r0, r0, r0
    2c18:	352e3533 	strcc	r3, [lr, #-1331]!	; 0xfffffacd
    2c1c:	30303434 	eorscc	r3, r0, r4, lsr r4
    2c20:	00000000 	andeq	r0, r0, r0
    2c24:	3332312e 	teqcc	r2, #-2147483637	; 0x8000000b
    2c28:	30303534 	eorscc	r3, r0, r4, lsr r5
    2c2c:	00000000 	andeq	r0, r0, r0
    2c30:	3031312d 	eorscc	r3, r1, sp, lsr #2
    2c34:	3030372e 	eorscc	r3, r0, lr, lsr #14
    2c38:	00000000 	andeq	r0, r0, r0
    2c3c:	362e302b 	strtcc	r3, [lr], -fp, lsr #32
    2c40:	30303434 	eorscc	r3, r0, r4, lsr r4
    2c44:	00000000 	andeq	r0, r0, r0
    2c48:	32313035 	eorscc	r3, r1, #53	; 0x35
    2c4c:	00000000 	andeq	r0, r0, r0
    2c50:	34333231 	ldrtcc	r3, [r3], #-561	; 0xfffffdcf
    2c54:	00000000 	andeq	r0, r0, r0
    2c58:	3437382d 	ldrtcc	r3, [r7], #-2093	; 0xfffff7d3
    2c5c:	00000000 	andeq	r0, r0, r0
    2c60:	3232312b 	eorscc	r3, r2, #-1073741814	; 0xc000000a
	...
    2c6c:	00000001 	andeq	r0, r0, r1
    2c70:	000003e8 	andeq	r0, r0, r8, ror #7
    2c74:	00000066 	andeq	r0, r0, r6, rrx
    2c78:	08001ff0 	stmdaeq	r0, {r4, r5, r6, r7, r8, r9, sl, fp, ip}
    2c7c:	08001fac 	stmdaeq	r0, {r2, r3, r5, r7, r8, r9, sl, fp, ip}
    2c80:	52416b64 	subpl	r6, r1, #100, 22	; 0x19000
    2c84:	0000004d 	andeq	r0, r0, sp, asr #32
