
test.gba:     file format binary


Disassembly of section .data:

00000000 <.data>:
       0:	002e      	movs	r6, r5
       2:	ea00 0000 	and.w	r0, r0, r0
	...
      ae:	0000      	movs	r0, r0
      b0:	3130      	adds	r1, #48	; 0x30
      b2:	0096      	lsls	r6, r2, #2
	...
      bc:	f000 0000 	and.w	r0, r0, #0
      c0:	0006      	movs	r6, r0
      c2:	ea00 0000 	and.w	r0, r0, r0
	...
      de:	0000      	movs	r0, r0
      e0:	0301      	lsls	r1, r0, #12
      e2:	e3a0      	b.n	0x826
      e4:	0208      	lsls	r0, r1, #8
      e6:	e580      	b.n	0xfffffbea
      e8:	0012      	movs	r2, r2
      ea:	e3a0      	b.n	0x82e
      ec:	f000 e129 			; <UNDEFINED> instruction: 0xf000e129
      f0:	d0b8      	beq.n	0x64
      f2:	e59f      	b.n	0xfffffc34
      f4:	001f      	movs	r7, r3
      f6:	e3a0      	b.n	0x83a
      f8:	f000 e129 			; <UNDEFINED> instruction: 0xf000e129
      fc:	d0b0      	beq.n	0x60
      fe:	e59f      	b.n	0xfffffc40
     100:	0001      	movs	r1, r0
     102:	e28f      	b.n	0x624
     104:	ff10 e12f 	vrhadd.u16	d14, d0, d31
     108:	482b      	ldr	r0, [pc, #172]	; (0x1b8)
     10a:	0140      	lsls	r0, r0, #5
     10c:	d20b      	bcs.n	0x126
     10e:	4678      	mov	r0, pc
     110:	0140      	lsls	r0, r0, #5
     112:	d30d      	bcc.n	0x130
     114:	2202      	movs	r2, #2
     116:	0612      	lsls	r2, r2, #24
     118:	4b28      	ldr	r3, [pc, #160]	; (0x1bc)
     11a:	1a9b      	subs	r3, r3, r2
     11c:	1c16      	adds	r6, r2, #0
     11e:	0091      	lsls	r1, r2, #2
     120:	f000 f83c 	bl	0x19c
     124:	4730      	bx	r6
     126:	2140      	movs	r1, #64	; 0x40
     128:	0309      	lsls	r1, r1, #12
     12a:	01c8      	lsls	r0, r1, #7
     12c:	f000 f82b 	bl	0x186
     130:	4823      	ldr	r0, [pc, #140]	; (0x1c0)
     132:	4924      	ldr	r1, [pc, #144]	; (0x1c4)
     134:	1a09      	subs	r1, r1, r0
     136:	f000 f826 	bl	0x186
     13a:	4823      	ldr	r0, [pc, #140]	; (0x1c8)
     13c:	4923      	ldr	r1, [pc, #140]	; (0x1cc)
     13e:	1a09      	subs	r1, r1, r0
     140:	f000 f821 	bl	0x186
     144:	4922      	ldr	r1, [pc, #136]	; (0x1d0)
     146:	4a23      	ldr	r2, [pc, #140]	; (0x1d4)
     148:	4c23      	ldr	r4, [pc, #140]	; (0x1d8)
     14a:	f000 f826 	bl	0x19a
     14e:	4923      	ldr	r1, [pc, #140]	; (0x1dc)
     150:	4a23      	ldr	r2, [pc, #140]	; (0x1e0)
     152:	4c24      	ldr	r4, [pc, #144]	; (0x1e4)
     154:	f000 f821 	bl	0x19a
     158:	4a23      	ldr	r2, [pc, #140]	; (0x1e8)
     15a:	4924      	ldr	r1, [pc, #144]	; (0x1ec)
     15c:	1a53      	subs	r3, r2, r1
     15e:	d002      	beq.n	0x166
     160:	4a23      	ldr	r2, [pc, #140]	; (0x1f0)
     162:	f000 f81b 	bl	0x19c
     166:	4923      	ldr	r1, [pc, #140]	; (0x1f4)
     168:	4a23      	ldr	r2, [pc, #140]	; (0x1f8)
     16a:	4c24      	ldr	r4, [pc, #144]	; (0x1fc)
     16c:	f000 f815 	bl	0x19a
     170:	4923      	ldr	r1, [pc, #140]	; (0x200)
     172:	4824      	ldr	r0, [pc, #144]	; (0x204)
     174:	6008      	str	r0, [r1, #0]
     176:	4b24      	ldr	r3, [pc, #144]	; (0x208)
     178:	f000 f80e 	bl	0x198
     17c:	2000      	movs	r0, #0
     17e:	2100      	movs	r1, #0
     180:	4b22      	ldr	r3, [pc, #136]	; (0x20c)
     182:	f000 f809 	bl	0x198
     186:	2203      	movs	r2, #3
     188:	1889      	adds	r1, r1, r2
     18a:	4391      	bics	r1, r2
     18c:	d003      	beq.n	0x196
     18e:	2200      	movs	r2, #0
     190:	c004      	stmia	r0!, {r2}
     192:	3904      	subs	r1, #4
     194:	d1fc      	bne.n	0x190
     196:	4770      	bx	lr
     198:	4718      	bx	r3
     19a:	1aa3      	subs	r3, r4, r2
     19c:	2003      	movs	r0, #3
     19e:	181b      	adds	r3, r3, r0
     1a0:	4383      	bics	r3, r0
     1a2:	d003      	beq.n	0x1ac
     1a4:	c901      	ldmia	r1!, {r0}
     1a6:	c201      	stmia	r2!, {r0}
     1a8:	3b04      	subs	r3, #4
     1aa:	d1fb      	bne.n	0x1a4
     1ac:	4770      	bx	lr
     1ae:	46c0      	nop			; (mov r8, r8)
     1b0:	7fa0      	ldrb	r0, [r4, #30]
     1b2:	0300      	lsls	r0, r0, #12
     1b4:	7f00      	ldrb	r0, [r0, #28]
     1b6:	0300      	lsls	r0, r0, #12
     1b8:	0000      	movs	r0, r0
     1ba:	0800      	lsrs	r0, r0, #32
     1bc:	0000      	movs	r0, r0
     1be:	0200      	lsls	r0, r0, #8
     1c0:	0000      	movs	r0, r0
     1c2:	0300      	lsls	r0, r0, #12
     1c4:	0868      	lsrs	r0, r5, #1
     1c6:	0300      	lsls	r0, r0, #12
     1c8:	0000      	movs	r0, r0
     1ca:	0200      	lsls	r0, r0, #8
     1cc:	0000      	movs	r0, r0
     1ce:	0200      	lsls	r0, r0, #8
     1d0:	246c      	movs	r4, #108	; 0x6c
     1d2:	0800      	lsrs	r0, r0, #32
     1d4:	0868      	lsrs	r0, r5, #1
     1d6:	0300      	lsls	r0, r0, #12
     1d8:	087c      	lsrs	r4, r7, #1
     1da:	0300      	lsls	r0, r0, #12
     1dc:	246c      	movs	r4, #108	; 0x6c
     1de:	0800      	lsrs	r0, r0, #32
     1e0:	0000      	movs	r0, r0
     1e2:	0300      	lsls	r0, r0, #12
     1e4:	0000      	movs	r0, r0
     1e6:	0300      	lsls	r0, r0, #12
     1e8:	2480      	movs	r4, #128	; 0x80
     1ea:	0800      	lsrs	r0, r0, #32
     1ec:	2480      	movs	r4, #128	; 0x80
     1ee:	0800      	lsrs	r0, r0, #32
     1f0:	087c      	lsrs	r4, r7, #1
     1f2:	0300      	lsls	r0, r0, #12
     1f4:	2480      	movs	r4, #128	; 0x80
     1f6:	0800      	lsrs	r0, r0, #32
     1f8:	0000      	movs	r0, r0
     1fa:	0200      	lsls	r0, r0, #8
     1fc:	0000      	movs	r0, r0
     1fe:	0200      	lsls	r0, r0, #8
     200:	008c      	lsls	r4, r1, #2
     202:	0300      	lsls	r0, r0, #12
     204:	0000      	movs	r0, r0
     206:	0204      	lsls	r4, r0, #8
     208:	1ed1      	subs	r1, r2, #3
     20a:	0800      	lsrs	r0, r0, #32
     20c:	19c5      	adds	r5, r0, r7
     20e:	0800      	lsrs	r0, r0, #32
     210:	b5f8      	push	{r3, r4, r5, r6, r7, lr}
     212:	46c0      	nop			; (mov r8, r8)
     214:	bcf8      	pop	{r3, r4, r5, r6, r7}
     216:	bc08      	pop	{r3}
     218:	469e      	mov	lr, r3
     21a:	4770      	bx	lr
     21c:	0000      	movs	r0, r0
     21e:	0000      	movs	r0, r0
     220:	b510      	push	{r4, lr}
     222:	2a00      	cmp	r2, #0
     224:	d007      	beq.n	0x236
     226:	2302      	movs	r3, #2
     228:	5ec0      	ldrsh	r0, [r0, r3]
     22a:	2202      	movs	r2, #2
     22c:	5e8b      	ldrsh	r3, [r1, r2]
     22e:	1ac0      	subs	r0, r0, r3
     230:	bc10      	pop	{r4}
     232:	bc02      	pop	{r1}
     234:	4708      	bx	r1
     236:	2200      	movs	r2, #0
     238:	5e83      	ldrsh	r3, [r0, r2]
     23a:	24ff      	movs	r4, #255	; 0xff
     23c:	001a      	movs	r2, r3
     23e:	041b      	lsls	r3, r3, #16
     240:	43a2      	bics	r2, r4
     242:	0e1b      	lsrs	r3, r3, #24
     244:	4313      	orrs	r3, r2
     246:	8003      	strh	r3, [r0, #0]
     248:	2200      	movs	r2, #0
     24a:	5e8b      	ldrsh	r3, [r1, r2]
     24c:	001a      	movs	r2, r3
     24e:	041b      	lsls	r3, r3, #16
     250:	43a2      	bics	r2, r4
     252:	0e1b      	lsrs	r3, r3, #24
     254:	4313      	orrs	r3, r2
     256:	800b      	strh	r3, [r1, #0]
     258:	e7e5      	b.n	0x226
     25a:	46c0      	nop			; (mov r8, r8)
     25c:	b5f0      	push	{r4, r5, r6, r7, lr}
     25e:	46c6      	mov	lr, r8
     260:	b500      	push	{lr}
     262:	2300      	movs	r3, #0
     264:	5ec4      	ldrsh	r4, [r0, r3]
     266:	b082      	sub	sp, #8
     268:	0006      	movs	r6, r0
     26a:	000d      	movs	r5, r1
     26c:	0623      	lsls	r3, r4, #24
     26e:	d507      	bpl.n	0x280
     270:	207f      	movs	r0, #127	; 0x7f
     272:	4020      	ands	r0, r4
     274:	b002      	add	sp, #8
     276:	bc04      	pop	{r2}
     278:	4690      	mov	r8, r2
     27a:	bcf0      	pop	{r4, r5, r6, r7}
     27c:	bc02      	pop	{r1}
     27e:	4708      	bx	r1
     280:	2307      	movs	r3, #7
     282:	0661      	lsls	r1, r4, #25
     284:	0f09      	lsrs	r1, r1, #28
     286:	010f      	lsls	r7, r1, #4
     288:	430f      	orrs	r7, r1
     28a:	4023      	ands	r3, r4
     28c:	8f29      	ldrh	r1, [r5, #56]	; 0x38
     28e:	2b00      	cmp	r3, #0
     290:	d010      	beq.n	0x2b4
     292:	2b01      	cmp	r3, #1
     294:	d02a      	beq.n	0x2ec
     296:	0027      	movs	r7, r4
     298:	0420      	lsls	r0, r4, #16
     29a:	0c00      	lsrs	r0, r0, #16
     29c:	f001 f9bc 	bl	0x1618
     2a0:	23ff      	movs	r3, #255	; 0xff
     2a2:	8728      	strh	r0, [r5, #56]	; 0x38
     2a4:	207f      	movs	r0, #127	; 0x7f
     2a6:	439c      	bics	r4, r3
     2a8:	2380      	movs	r3, #128	; 0x80
     2aa:	4038      	ands	r0, r7
     2ac:	4304      	orrs	r4, r0
     2ae:	431c      	orrs	r4, r3
     2b0:	8034      	strh	r4, [r6, #0]
     2b2:	e7df      	b.n	0x274
     2b4:	2202      	movs	r2, #2
     2b6:	5eab      	ldrsh	r3, [r5, r2]
     2b8:	4698      	mov	r8, r3
     2ba:	2300      	movs	r3, #0
     2bc:	5eea      	ldrsh	r2, [r5, r3]
     2be:	696b      	ldr	r3, [r5, #20]
     2c0:	69a8      	ldr	r0, [r5, #24]
     2c2:	469c      	mov	ip, r3
     2c4:	9101      	str	r1, [sp, #4]
     2c6:	1c3b      	adds	r3, r7, #0
     2c8:	2f22      	cmp	r7, #34	; 0x22
     2ca:	da00      	bge.n	0x2ce
     2cc:	2322      	movs	r3, #34	; 0x22
     2ce:	041b      	lsls	r3, r3, #16
     2d0:	141b      	asrs	r3, r3, #16
     2d2:	9300      	str	r3, [sp, #0]
     2d4:	4661      	mov	r1, ip
     2d6:	4643      	mov	r3, r8
     2d8:	f001 f8e0 	bl	0x149c
     2dc:	8feb      	ldrh	r3, [r5, #62]	; 0x3e
     2de:	0407      	lsls	r7, r0, #16
     2e0:	143f      	asrs	r7, r7, #16
     2e2:	2b00      	cmp	r3, #0
     2e4:	d10e      	bne.n	0x304
     2e6:	87e8      	strh	r0, [r5, #62]	; 0x3e
     2e8:	8f29      	ldrh	r1, [r5, #56]	; 0x38
     2ea:	e7d7      	b.n	0x29c
     2ec:	0028      	movs	r0, r5
     2ee:	000a      	movs	r2, r1
     2f0:	3028      	adds	r0, #40	; 0x28
     2f2:	0039      	movs	r1, r7
     2f4:	f000 ff32 	bl	0x115c
     2f8:	8fab      	ldrh	r3, [r5, #60]	; 0x3c
     2fa:	0407      	lsls	r7, r0, #16
     2fc:	143f      	asrs	r7, r7, #16
     2fe:	2b00      	cmp	r3, #0
     300:	d100      	bne.n	0x304
     302:	87a8      	strh	r0, [r5, #60]	; 0x3c
     304:	8f29      	ldrh	r1, [r5, #56]	; 0x38
     306:	e7c9      	b.n	0x29c
     308:	b570      	push	{r4, r5, r6, lr}
     30a:	000e      	movs	r6, r1
     30c:	0011      	movs	r1, r2
     30e:	0015      	movs	r5, r2
     310:	f7ff ffa4 	bl	0x25c
     314:	0029      	movs	r1, r5
     316:	0004      	movs	r4, r0
     318:	0030      	movs	r0, r6
     31a:	f7ff ff9f 	bl	0x25c
     31e:	1a20      	subs	r0, r4, r0
     320:	bc70      	pop	{r4, r5, r6}
     322:	bc02      	pop	{r1}
     324:	4708      	bx	r1
     326:	46c0      	nop			; (mov r8, r8)
     328:	2200      	movs	r2, #0
     32a:	5e8b      	ldrsh	r3, [r1, r2]
     32c:	8003      	strh	r3, [r0, #0]
     32e:	2202      	movs	r2, #2
     330:	5e8b      	ldrsh	r3, [r1, r2]
     332:	8043      	strh	r3, [r0, #2]
     334:	4770      	bx	lr
     336:	46c0      	nop			; (mov r8, r8)
     338:	b5f0      	push	{r4, r5, r6, r7, lr}
     33a:	0005      	movs	r5, r0
     33c:	6810      	ldr	r0, [r2, #0]
     33e:	0004      	movs	r4, r0
     340:	9e05      	ldr	r6, [sp, #20]
     342:	3408      	adds	r4, #8
     344:	42b4      	cmp	r4, r6
     346:	d217      	bcs.n	0x378
     348:	681e      	ldr	r6, [r3, #0]
     34a:	1d37      	adds	r7, r6, #4
     34c:	46bc      	mov	ip, r7
     34e:	9f06      	ldr	r7, [sp, #24]
     350:	4567      	cmp	r7, ip
     352:	d911      	bls.n	0x378
     354:	6014      	str	r4, [r2, #0]
     356:	682a      	ldr	r2, [r5, #0]
     358:	6002      	str	r2, [r0, #0]
     35a:	6028      	str	r0, [r5, #0]
     35c:	6046      	str	r6, [r0, #4]
     35e:	681a      	ldr	r2, [r3, #0]
     360:	3204      	adds	r2, #4
     362:	601a      	str	r2, [r3, #0]
     364:	2400      	movs	r4, #0
     366:	5f0a      	ldrsh	r2, [r1, r4]
     368:	6843      	ldr	r3, [r0, #4]
     36a:	801a      	strh	r2, [r3, #0]
     36c:	2202      	movs	r2, #2
     36e:	5e8a      	ldrsh	r2, [r1, r2]
     370:	805a      	strh	r2, [r3, #2]
     372:	bcf0      	pop	{r4, r5, r6, r7}
     374:	bc02      	pop	{r1}
     376:	4708      	bx	r1
     378:	2000      	movs	r0, #0
     37a:	e7fa      	b.n	0x372
     37c:	6803      	ldr	r3, [r0, #0]
     37e:	6842      	ldr	r2, [r0, #4]
     380:	6859      	ldr	r1, [r3, #4]
     382:	6041      	str	r1, [r0, #4]
     384:	605a      	str	r2, [r3, #4]
     386:	681a      	ldr	r2, [r3, #0]
     388:	6002      	str	r2, [r0, #0]
     38a:	2200      	movs	r2, #0
     38c:	0018      	movs	r0, r3
     38e:	601a      	str	r2, [r3, #0]
     390:	4770      	bx	lr
     392:	46c0      	nop			; (mov r8, r8)
     394:	6843      	ldr	r3, [r0, #4]
     396:	684a      	ldr	r2, [r1, #4]
     398:	6042      	str	r2, [r0, #4]
     39a:	604b      	str	r3, [r1, #4]
     39c:	680b      	ldr	r3, [r1, #0]
     39e:	6003      	str	r3, [r0, #0]
     3a0:	6008      	str	r0, [r1, #0]
     3a2:	4770      	bx	lr
     3a4:	2302      	movs	r3, #2
     3a6:	5eca      	ldrsh	r2, [r1, r3]
     3a8:	2a00      	cmp	r2, #0
     3aa:	da06      	bge.n	0x3ba
     3ac:	e008      	b.n	0x3c0
     3ae:	6843      	ldr	r3, [r0, #4]
     3b0:	2102      	movs	r1, #2
     3b2:	5e5b      	ldrsh	r3, [r3, r1]
     3b4:	4293      	cmp	r3, r2
     3b6:	d002      	beq.n	0x3be
     3b8:	6800      	ldr	r0, [r0, #0]
     3ba:	2800      	cmp	r0, #0
     3bc:	d1f7      	bne.n	0x3ae
     3be:	4770      	bx	lr
     3c0:	2800      	cmp	r0, #0
     3c2:	d0fc      	beq.n	0x3be
     3c4:	2300      	movs	r3, #0
     3c6:	5eca      	ldrsh	r2, [r1, r3]
     3c8:	6843      	ldr	r3, [r0, #4]
     3ca:	781b      	ldrb	r3, [r3, #0]
     3cc:	21ff      	movs	r1, #255	; 0xff
     3ce:	4293      	cmp	r3, r2
     3d0:	d105      	bne.n	0x3de
     3d2:	e7f4      	b.n	0x3be
     3d4:	6843      	ldr	r3, [r0, #4]
     3d6:	881b      	ldrh	r3, [r3, #0]
     3d8:	400b      	ands	r3, r1
     3da:	4293      	cmp	r3, r2
     3dc:	d0ef      	beq.n	0x3be
     3de:	6800      	ldr	r0, [r0, #0]
     3e0:	2800      	cmp	r0, #0
     3e2:	d1f7      	bne.n	0x3d4
     3e4:	e7eb      	b.n	0x3be
     3e6:	46c0      	nop			; (mov r8, r8)
     3e8:	2800      	cmp	r0, #0
     3ea:	d007      	beq.n	0x3fc
     3ec:	2200      	movs	r2, #0
     3ee:	e000      	b.n	0x3f2
     3f0:	0018      	movs	r0, r3
     3f2:	6803      	ldr	r3, [r0, #0]
     3f4:	6002      	str	r2, [r0, #0]
     3f6:	0002      	movs	r2, r0
     3f8:	2b00      	cmp	r3, #0
     3fa:	d1f9      	bne.n	0x3f0
     3fc:	4770      	bx	lr
     3fe:	46c0      	nop			; (mov r8, r8)
     400:	2301      	movs	r3, #1
     402:	b5f0      	push	{r4, r5, r6, r7, lr}
     404:	46de      	mov	lr, fp
     406:	464e      	mov	r6, r9
     408:	4657      	mov	r7, sl
     40a:	4645      	mov	r5, r8
     40c:	0004      	movs	r4, r0
     40e:	468b      	mov	fp, r1
     410:	4699      	mov	r9, r3
     412:	b5e0      	push	{r5, r6, r7, lr}
     414:	b083      	sub	sp, #12
     416:	9200      	str	r2, [sp, #0]
     418:	2c00      	cmp	r4, #0
     41a:	d042      	beq.n	0x4a2
     41c:	2300      	movs	r3, #0
     41e:	2600      	movs	r6, #0
     420:	469a      	mov	sl, r3
     422:	9301      	str	r3, [sp, #4]
     424:	9b01      	ldr	r3, [sp, #4]
     426:	3301      	adds	r3, #1
     428:	9301      	str	r3, [sp, #4]
     42a:	2500      	movs	r5, #0
     42c:	0023      	movs	r3, r4
     42e:	464a      	mov	r2, r9
     430:	681b      	ldr	r3, [r3, #0]
     432:	3501      	adds	r5, #1
     434:	2b00      	cmp	r3, #0
     436:	d001      	beq.n	0x43c
     438:	42aa      	cmp	r2, r5
     43a:	d1f9      	bne.n	0x430
     43c:	46a0      	mov	r8, r4
     43e:	4691      	mov	r9, r2
     440:	0017      	movs	r7, r2
     442:	001c      	movs	r4, r3
     444:	2d00      	cmp	r5, #0
     446:	d014      	beq.n	0x472
     448:	2f00      	cmp	r7, #0
     44a:	d021      	beq.n	0x490
     44c:	2c00      	cmp	r4, #0
     44e:	d01f      	beq.n	0x490
     450:	4643      	mov	r3, r8
     452:	9a00      	ldr	r2, [sp, #0]
     454:	6861      	ldr	r1, [r4, #4]
     456:	6858      	ldr	r0, [r3, #4]
     458:	f000 f99a 	bl	0x790
     45c:	2800      	cmp	r0, #0
     45e:	dd17      	ble.n	0x490
     460:	0023      	movs	r3, r4
     462:	3f01      	subs	r7, #1
     464:	6824      	ldr	r4, [r4, #0]
     466:	2e00      	cmp	r6, #0
     468:	d018      	beq.n	0x49c
     46a:	6033      	str	r3, [r6, #0]
     46c:	001e      	movs	r6, r3
     46e:	2d00      	cmp	r5, #0
     470:	d1ea      	bne.n	0x448
     472:	2f00      	cmp	r7, #0
     474:	dd01      	ble.n	0x47a
     476:	2c00      	cmp	r4, #0
     478:	d1f2      	bne.n	0x460
     47a:	2c00      	cmp	r4, #0
     47c:	d1d2      	bne.n	0x424
     47e:	9b01      	ldr	r3, [sp, #4]
     480:	6034      	str	r4, [r6, #0]
     482:	2b01      	cmp	r3, #1
     484:	d00f      	beq.n	0x4a6
     486:	464b      	mov	r3, r9
     488:	005b      	lsls	r3, r3, #1
     48a:	4699      	mov	r9, r3
     48c:	4654      	mov	r4, sl
     48e:	e7c3      	b.n	0x418
     490:	4643      	mov	r3, r8
     492:	681a      	ldr	r2, [r3, #0]
     494:	3d01      	subs	r5, #1
     496:	4690      	mov	r8, r2
     498:	2e00      	cmp	r6, #0
     49a:	d1e6      	bne.n	0x46a
     49c:	469a      	mov	sl, r3
     49e:	001e      	movs	r6, r3
     4a0:	e7e5      	b.n	0x46e
     4a2:	6024      	str	r4, [r4, #0]
     4a4:	deff      	udf	#255	; 0xff
     4a6:	4650      	mov	r0, sl
     4a8:	b003      	add	sp, #12
     4aa:	bc3c      	pop	{r2, r3, r4, r5}
     4ac:	4690      	mov	r8, r2
     4ae:	4699      	mov	r9, r3
     4b0:	46a2      	mov	sl, r4
     4b2:	46ab      	mov	fp, r5
     4b4:	bcf0      	pop	{r4, r5, r6, r7}
     4b6:	bc02      	pop	{r1}
     4b8:	4708      	bx	r1
     4ba:	46c0      	nop			; (mov r8, r8)
     4bc:	b5f0      	push	{r4, r5, r6, r7, lr}
     4be:	46de      	mov	lr, fp
     4c0:	4657      	mov	r7, sl
     4c2:	464e      	mov	r6, r9
     4c4:	4645      	mov	r5, r8
     4c6:	0003      	movs	r3, r0
     4c8:	b5e0      	push	{r5, r6, r7, lr}
     4ca:	b087      	sub	sp, #28
     4cc:	9003      	str	r0, [sp, #12]
     4ce:	9102      	str	r1, [sp, #8]
     4d0:	6a44      	ldr	r4, [r0, #36]	; 0x24
     4d2:	2004      	movs	r0, #4
     4d4:	5e1a      	ldrsh	r2, [r3, r0]
     4d6:	2300      	movs	r3, #0
     4d8:	af05      	add	r7, sp, #20
     4da:	4693      	mov	fp, r2
     4dc:	803b      	strh	r3, [r7, #0]
     4de:	8079      	strh	r1, [r7, #2]
     4e0:	2a00      	cmp	r2, #0
     4e2:	dc00      	bgt.n	0x4e6
     4e4:	e0b1      	b.n	0x64a
     4e6:	2300      	movs	r3, #0
     4e8:	9301      	str	r3, [sp, #4]
     4ea:	4698      	mov	r8, r3
     4ec:	3301      	adds	r3, #1
     4ee:	4689      	mov	r9, r1
     4f0:	2600      	movs	r6, #0
     4f2:	2500      	movs	r5, #0
     4f4:	469a      	mov	sl, r3
     4f6:	23ff      	movs	r3, #255	; 0xff
     4f8:	0039      	movs	r1, r7
     4fa:	4033      	ands	r3, r6
     4fc:	0020      	movs	r0, r4
     4fe:	803b      	strh	r3, [r7, #0]
     500:	f7ff ff50 	bl	0x3a4
     504:	2c00      	cmp	r4, #0
     506:	d007      	beq.n	0x518
     508:	2200      	movs	r2, #0
     50a:	e000      	b.n	0x50e
     50c:	001c      	movs	r4, r3
     50e:	6823      	ldr	r3, [r4, #0]
     510:	6022      	str	r2, [r4, #0]
     512:	0022      	movs	r2, r4
     514:	2b00      	cmp	r3, #0
     516:	d1f9      	bne.n	0x50c
     518:	2800      	cmp	r0, #0
     51a:	d024      	beq.n	0x566
     51c:	6843      	ldr	r3, [r0, #4]
     51e:	2200      	movs	r2, #0
     520:	5e9b      	ldrsh	r3, [r3, r2]
     522:	4652      	mov	r2, sl
     524:	3501      	adds	r5, #1
     526:	042d      	lsls	r5, r5, #16
     528:	0c2d      	lsrs	r5, r5, #16
     52a:	421a      	tst	r2, r3
     52c:	d005      	beq.n	0x53a
     52e:	125b      	asrs	r3, r3, #9
     530:	4013      	ands	r3, r2
     532:	4443      	add	r3, r8
     534:	041b      	lsls	r3, r3, #16
     536:	0c1b      	lsrs	r3, r3, #16
     538:	4698      	mov	r8, r3
     53a:	6803      	ldr	r3, [r0, #0]
     53c:	2b00      	cmp	r3, #0
     53e:	d004      	beq.n	0x54a
     540:	681a      	ldr	r2, [r3, #0]
     542:	6002      	str	r2, [r0, #0]
     544:	6822      	ldr	r2, [r4, #0]
     546:	601a      	str	r2, [r3, #0]
     548:	6023      	str	r3, [r4, #0]
     54a:	464b      	mov	r3, r9
     54c:	2b00      	cmp	r3, #0
     54e:	db01      	blt.n	0x554
     550:	3301      	adds	r3, #1
     552:	807b      	strh	r3, [r7, #2]
     554:	3601      	adds	r6, #1
     556:	0436      	lsls	r6, r6, #16
     558:	1436      	asrs	r6, r6, #16
     55a:	45b3      	cmp	fp, r6
     55c:	d014      	beq.n	0x588
     55e:	2202      	movs	r2, #2
     560:	5ebb      	ldrsh	r3, [r7, r2]
     562:	4699      	mov	r9, r3
     564:	e7c7      	b.n	0x4f6
     566:	4652      	mov	r2, sl
     568:	9b01      	ldr	r3, [sp, #4]
     56a:	3301      	adds	r3, #1
     56c:	041b      	lsls	r3, r3, #16
     56e:	0c1b      	lsrs	r3, r3, #16
     570:	9301      	str	r3, [sp, #4]
     572:	6823      	ldr	r3, [r4, #0]
     574:	685b      	ldr	r3, [r3, #4]
     576:	785b      	ldrb	r3, [r3, #1]
     578:	061b      	lsls	r3, r3, #24
     57a:	161b      	asrs	r3, r3, #24
     57c:	4013      	ands	r3, r2
     57e:	4443      	add	r3, r8
     580:	041b      	lsls	r3, r3, #16
     582:	0c1b      	lsrs	r3, r3, #16
     584:	4698      	mov	r8, r3
     586:	e7e0      	b.n	0x54a
     588:	002b      	movs	r3, r5
     58a:	4645      	mov	r5, r8
     58c:	9a01      	ldr	r2, [sp, #4]
     58e:	009b      	lsls	r3, r3, #2
     590:	1a9b      	subs	r3, r3, r2
     592:	18ed      	adds	r5, r5, r3
     594:	042d      	lsls	r5, r5, #16
     596:	0c2d      	lsrs	r5, r5, #16
     598:	9b02      	ldr	r3, [sp, #8]
     59a:	2b00      	cmp	r3, #0
     59c:	dd05      	ble.n	0x5aa
     59e:	0020      	movs	r0, r4
     5a0:	9a03      	ldr	r2, [sp, #12]
     5a2:	492b      	ldr	r1, [pc, #172]	; (0x650)
     5a4:	f7ff ff2c 	bl	0x400
     5a8:	0004      	movs	r4, r0
     5aa:	6823      	ldr	r3, [r4, #0]
     5ac:	681a      	ldr	r2, [r3, #0]
     5ae:	4690      	mov	r8, r2
     5b0:	685a      	ldr	r2, [r3, #4]
     5b2:	4691      	mov	r9, r2
     5b4:	4642      	mov	r2, r8
     5b6:	6852      	ldr	r2, [r2, #4]
     5b8:	4649      	mov	r1, r9
     5ba:	605a      	str	r2, [r3, #4]
     5bc:	4642      	mov	r2, r8
     5be:	6051      	str	r1, [r2, #4]
     5c0:	6812      	ldr	r2, [r2, #0]
     5c2:	601a      	str	r2, [r3, #0]
     5c4:	2300      	movs	r3, #0
     5c6:	4642      	mov	r2, r8
     5c8:	0039      	movs	r1, r7
     5ca:	6013      	str	r3, [r2, #0]
     5cc:	0020      	movs	r0, r4
     5ce:	f7ff fee9 	bl	0x3a4
     5d2:	1e06      	subs	r6, r0, #0
     5d4:	d035      	beq.n	0x642
     5d6:	0029      	movs	r1, r5
     5d8:	6863      	ldr	r3, [r4, #4]
     5da:	2000      	movs	r0, #0
     5dc:	5e18      	ldrsh	r0, [r3, r0]
     5de:	f001 f853 	bl	0x1688
     5e2:	6836      	ldr	r6, [r6, #0]
     5e4:	0001      	movs	r1, r0
     5e6:	2e00      	cmp	r6, #0
     5e8:	d1f6      	bne.n	0x5d8
     5ea:	4643      	mov	r3, r8
     5ec:	685b      	ldr	r3, [r3, #4]
     5ee:	0005      	movs	r5, r0
     5f0:	4699      	mov	r9, r3
     5f2:	6826      	ldr	r6, [r4, #0]
     5f4:	4643      	mov	r3, r8
     5f6:	6872      	ldr	r2, [r6, #4]
     5f8:	605a      	str	r2, [r3, #4]
     5fa:	464b      	mov	r3, r9
     5fc:	6073      	str	r3, [r6, #4]
     5fe:	4643      	mov	r3, r8
     600:	6832      	ldr	r2, [r6, #0]
     602:	0020      	movs	r0, r4
     604:	601a      	str	r2, [r3, #0]
     606:	4913      	ldr	r1, [pc, #76]	; (0x654)
     608:	6033      	str	r3, [r6, #0]
     60a:	2200      	movs	r2, #0
     60c:	f7ff fef8 	bl	0x400
     610:	6804      	ldr	r4, [r0, #0]
     612:	0006      	movs	r6, r0
     614:	2c00      	cmp	r4, #0
     616:	d00a      	beq.n	0x62e
     618:	0029      	movs	r1, r5
     61a:	6873      	ldr	r3, [r6, #4]
     61c:	2000      	movs	r0, #0
     61e:	5e18      	ldrsh	r0, [r3, r0]
     620:	f001 f832 	bl	0x1688
     624:	6824      	ldr	r4, [r4, #0]
     626:	0001      	movs	r1, r0
     628:	2c00      	cmp	r4, #0
     62a:	d1f6      	bne.n	0x61a
     62c:	0005      	movs	r5, r0
     62e:	0028      	movs	r0, r5
     630:	b007      	add	sp, #28
     632:	bc3c      	pop	{r2, r3, r4, r5}
     634:	4690      	mov	r8, r2
     636:	4699      	mov	r9, r3
     638:	46a2      	mov	sl, r4
     63a:	46ab      	mov	fp, r5
     63c:	bcf0      	pop	{r4, r5, r6, r7}
     63e:	bc02      	pop	{r1}
     640:	4708      	bx	r1
     642:	6826      	ldr	r6, [r4, #0]
     644:	2e00      	cmp	r6, #0
     646:	d1c6      	bne.n	0x5d6
     648:	e7d4      	b.n	0x5f4
     64a:	2500      	movs	r5, #0
     64c:	e7a4      	b.n	0x598
     64e:	46c0      	nop			; (mov r8, r8)
     650:	0309      	lsls	r1, r1, #12
     652:	0800      	lsrs	r0, r0, #32
     654:	0221      	lsls	r1, r4, #8
     656:	0800      	lsrs	r0, r0, #32
     658:	b5f0      	push	{r4, r5, r6, r7, lr}
     65a:	46de      	mov	lr, fp
     65c:	4657      	mov	r7, sl
     65e:	464e      	mov	r6, r9
     660:	4645      	mov	r5, r8
     662:	b5e0      	push	{r5, r6, r7, lr}
     664:	4688      	mov	r8, r1
     666:	b085      	sub	sp, #20
     668:	2114      	movs	r1, #20
     66a:	9203      	str	r2, [sp, #12]
     66c:	f001 fc58 	bl	0x1f20
     670:	1e83      	subs	r3, r0, #2
     672:	00d8      	lsls	r0, r3, #3
     674:	4699      	mov	r9, r3
     676:	009b      	lsls	r3, r3, #2
     678:	4642      	mov	r2, r8
     67a:	469a      	mov	sl, r3
     67c:	2300      	movs	r3, #0
     67e:	4440      	add	r0, r8
     680:	6013      	str	r3, [r2, #0]
     682:	6050      	str	r0, [r2, #4]
     684:	4a3f      	ldr	r2, [pc, #252]	; (0x784)
     686:	8002      	strh	r2, [r0, #0]
     688:	4642      	mov	r2, r8
     68a:	4644      	mov	r4, r8
     68c:	3210      	adds	r2, #16
     68e:	4482      	add	sl, r0
     690:	8043      	strh	r3, [r0, #2]
     692:	3408      	adds	r4, #8
     694:	1d01      	adds	r1, r0, #4
     696:	4290      	cmp	r0, r2
     698:	d970      	bls.n	0x77c
     69a:	0005      	movs	r5, r0
     69c:	3508      	adds	r5, #8
     69e:	45aa      	cmp	sl, r5
     6a0:	d96c      	bls.n	0x77c
     6a2:	4646      	mov	r6, r8
     6a4:	60b3      	str	r3, [r6, #8]
     6a6:	2301      	movs	r3, #1
     6a8:	425b      	negs	r3, r3
     6aa:	6034      	str	r4, [r6, #0]
     6ac:	60f1      	str	r1, [r6, #12]
     6ae:	8083      	strh	r3, [r0, #4]
     6b0:	4b35      	ldr	r3, [pc, #212]	; (0x788)
     6b2:	80c3      	strh	r3, [r0, #6]
     6b4:	464b      	mov	r3, r9
     6b6:	2b00      	cmp	r3, #0
     6b8:	d02e      	beq.n	0x718
     6ba:	9b03      	ldr	r3, [sp, #12]
     6bc:	041b      	lsls	r3, r3, #16
     6be:	0c1b      	lsrs	r3, r3, #16
     6c0:	469b      	mov	fp, r3
     6c2:	464b      	mov	r3, r9
     6c4:	2600      	movs	r6, #0
     6c6:	4684      	mov	ip, r0
     6c8:	9302      	str	r3, [sp, #8]
     6ca:	9401      	str	r4, [sp, #4]
     6cc:	0011      	movs	r1, r2
     6ce:	3108      	adds	r1, #8
     6d0:	458c      	cmp	ip, r1
     6d2:	d91b      	bls.n	0x70c
     6d4:	1d2f      	adds	r7, r5, #4
     6d6:	45ba      	cmp	sl, r7
     6d8:	d918      	bls.n	0x70c
     6da:	4658      	mov	r0, fp
     6dc:	2478      	movs	r4, #120	; 0x78
     6de:	0433      	lsls	r3, r6, #16
     6e0:	0c1b      	lsrs	r3, r3, #16
     6e2:	4058      	eors	r0, r3
     6e4:	00c0      	lsls	r0, r0, #3
     6e6:	4020      	ands	r0, r4
     6e8:	4681      	mov	r9, r0
     6ea:	2007      	movs	r0, #7
     6ec:	4003      	ands	r3, r0
     6ee:	4648      	mov	r0, r9
     6f0:	4303      	orrs	r3, r0
     6f2:	9801      	ldr	r0, [sp, #4]
     6f4:	6010      	str	r0, [r2, #0]
     6f6:	4640      	mov	r0, r8
     6f8:	021c      	lsls	r4, r3, #8
     6fa:	4323      	orrs	r3, r4
     6fc:	6002      	str	r2, [r0, #0]
     6fe:	6055      	str	r5, [r2, #4]
     700:	802b      	strh	r3, [r5, #0]
     702:	4b21      	ldr	r3, [pc, #132]	; (0x788)
     704:	9201      	str	r2, [sp, #4]
     706:	806b      	strh	r3, [r5, #2]
     708:	000a      	movs	r2, r1
     70a:	003d      	movs	r5, r7
     70c:	9b02      	ldr	r3, [sp, #8]
     70e:	3601      	adds	r6, #1
     710:	42b3      	cmp	r3, r6
     712:	d1db      	bne.n	0x6cc
     714:	4699      	mov	r9, r3
     716:	9c01      	ldr	r4, [sp, #4]
     718:	6823      	ldr	r3, [r4, #0]
     71a:	2b00      	cmp	r3, #0
     71c:	d020      	beq.n	0x760
     71e:	25e0      	movs	r5, #224	; 0xe0
     720:	2105      	movs	r1, #5
     722:	4648      	mov	r0, r9
     724:	f001 fbfc 	bl	0x1f20
     728:	00ed      	lsls	r5, r5, #3
     72a:	2201      	movs	r2, #1
     72c:	9e03      	ldr	r6, [sp, #12]
     72e:	e005      	b.n	0x73c
     730:	6824      	ldr	r4, [r4, #0]
     732:	6823      	ldr	r3, [r4, #0]
     734:	804a      	strh	r2, [r1, #2]
     736:	3201      	adds	r2, #1
     738:	2b00      	cmp	r3, #0
     73a:	d011      	beq.n	0x760
     73c:	6861      	ldr	r1, [r4, #4]
     73e:	4290      	cmp	r0, r2
     740:	d8f6      	bhi.n	0x730
     742:	0417      	lsls	r7, r2, #16
     744:	0c3f      	lsrs	r7, r7, #16
     746:	1c7b      	adds	r3, r7, #1
     748:	021b      	lsls	r3, r3, #8
     74a:	402b      	ands	r3, r5
     74c:	4077      	eors	r7, r6
     74e:	433b      	orrs	r3, r7
     750:	049b      	lsls	r3, r3, #18
     752:	6824      	ldr	r4, [r4, #0]
     754:	0c9b      	lsrs	r3, r3, #18
     756:	804b      	strh	r3, [r1, #2]
     758:	6823      	ldr	r3, [r4, #0]
     75a:	3201      	adds	r2, #1
     75c:	2b00      	cmp	r3, #0
     75e:	d1ed      	bne.n	0x73c
     760:	2200      	movs	r2, #0
     762:	490a      	ldr	r1, [pc, #40]	; (0x78c)
     764:	4640      	mov	r0, r8
     766:	f7ff fe4b 	bl	0x400
     76a:	b005      	add	sp, #20
     76c:	bc3c      	pop	{r2, r3, r4, r5}
     76e:	4690      	mov	r8, r2
     770:	4699      	mov	r9, r3
     772:	46a2      	mov	sl, r4
     774:	46ab      	mov	fp, r5
     776:	bcf0      	pop	{r4, r5, r6, r7}
     778:	bc02      	pop	{r1}
     77a:	4708      	bx	r1
     77c:	0022      	movs	r2, r4
     77e:	000d      	movs	r5, r1
     780:	2400      	movs	r4, #0
     782:	e797      	b.n	0x6b4
     784:	8080      	strh	r0, [r0, #4]
     786:	ffff 7fff 			; <UNDEFINED> instruction: 0xffff7fff
     78a:	0000      	movs	r0, r0
     78c:	0221      	lsls	r1, r4, #8
     78e:	0800      	lsrs	r0, r0, #32
     790:	4758      	bx	fp
     792:	46c0      	nop			; (mov r8, r8)
     794:	b40f      	push	{r0, r1, r2, r3}
     796:	b5f0      	push	{r4, r5, r6, r7, lr}
     798:	46de      	mov	lr, fp
     79a:	4645      	mov	r5, r8
     79c:	4657      	mov	r7, sl
     79e:	464e      	mov	r6, r9
     7a0:	b5e0      	push	{r5, r6, r7, lr}
     7a2:	b083      	sub	sp, #12
     7a4:	ab0c      	add	r3, sp, #48	; 0x30
     7a6:	cb01      	ldmia	r3!, {r0}
     7a8:	9301      	str	r3, [sp, #4]
     7aa:	7805      	ldrb	r5, [r0, #0]
     7ac:	4b88      	ldr	r3, [pc, #544]	; (0x9d0)
     7ae:	4c89      	ldr	r4, [pc, #548]	; (0x9d4)
     7b0:	469b      	mov	fp, r3
     7b2:	2d00      	cmp	r5, #0
     7b4:	d035      	beq.n	0x822
     7b6:	2101      	movs	r1, #1
     7b8:	2d25      	cmp	r5, #37	; 0x25
     7ba:	d13d      	bne.n	0x838
     7bc:	1c83      	adds	r3, r0, #2
     7be:	469a      	mov	sl, r3
     7c0:	7843      	ldrb	r3, [r0, #1]
     7c2:	2b64      	cmp	r3, #100	; 0x64
     7c4:	d05a      	beq.n	0x87c
     7c6:	d947      	bls.n	0x858
     7c8:	2b73      	cmp	r3, #115	; 0x73
     7ca:	d100      	bne.n	0x7ce
     7cc:	e07d      	b.n	0x8ca
     7ce:	2b75      	cmp	r3, #117	; 0x75
     7d0:	d123      	bne.n	0x81a
     7d2:	9b01      	ldr	r3, [sp, #4]
     7d4:	1d1a      	adds	r2, r3, #4
     7d6:	681b      	ldr	r3, [r3, #0]
     7d8:	9201      	str	r2, [sp, #4]
     7da:	4699      	mov	r9, r3
     7dc:	2b00      	cmp	r3, #0
     7de:	d000      	beq.n	0x7e2
     7e0:	e08f      	b.n	0x902
     7e2:	2701      	movs	r7, #1
     7e4:	4d7a      	ldr	r5, [pc, #488]	; (0x9d0)
     7e6:	3330      	adds	r3, #48	; 0x30
     7e8:	702b      	strb	r3, [r5, #0]
     7ea:	2300      	movs	r3, #0
     7ec:	55eb      	strb	r3, [r5, r7]
     7ee:	7828      	ldrb	r0, [r5, #0]
     7f0:	2800      	cmp	r0, #0
     7f2:	d012      	beq.n	0x81a
     7f4:	2701      	movs	r7, #1
     7f6:	2101      	movs	r1, #1
     7f8:	4e77      	ldr	r6, [pc, #476]	; (0x9d8)
     7fa:	3501      	adds	r5, #1
     7fc:	7823      	ldrb	r3, [r4, #0]
     7fe:	001a      	movs	r2, r3
     800:	085b      	lsrs	r3, r3, #1
     802:	400a      	ands	r2, r1
     804:	429a      	cmp	r2, r3
     806:	d1f9      	bne.n	0x7fc
     808:	7030      	strb	r0, [r6, #0]
     80a:	7823      	ldrb	r3, [r4, #0]
     80c:	407b      	eors	r3, r7
     80e:	7023      	strb	r3, [r4, #0]
     810:	3501      	adds	r5, #1
     812:	1e6b      	subs	r3, r5, #1
     814:	7818      	ldrb	r0, [r3, #0]
     816:	2800      	cmp	r0, #0
     818:	d1f0      	bne.n	0x7fc
     81a:	4650      	mov	r0, sl
     81c:	7805      	ldrb	r5, [r0, #0]
     81e:	2d00      	cmp	r5, #0
     820:	d1c9      	bne.n	0x7b6
     822:	2000      	movs	r0, #0
     824:	b003      	add	sp, #12
     826:	bc3c      	pop	{r2, r3, r4, r5}
     828:	4690      	mov	r8, r2
     82a:	4699      	mov	r9, r3
     82c:	46a2      	mov	sl, r4
     82e:	46ab      	mov	fp, r5
     830:	bcf0      	pop	{r4, r5, r6, r7}
     832:	bc08      	pop	{r3}
     834:	b004      	add	sp, #16
     836:	4718      	bx	r3
     838:	7823      	ldrb	r3, [r4, #0]
     83a:	001a      	movs	r2, r3
     83c:	085b      	lsrs	r3, r3, #1
     83e:	400a      	ands	r2, r1
     840:	429a      	cmp	r2, r3
     842:	d1f9      	bne.n	0x838
     844:	2201      	movs	r2, #1
     846:	4b64      	ldr	r3, [pc, #400]	; (0x9d8)
     848:	701d      	strb	r5, [r3, #0]
     84a:	7823      	ldrb	r3, [r4, #0]
     84c:	4053      	eors	r3, r2
     84e:	7023      	strb	r3, [r4, #0]
     850:	1c43      	adds	r3, r0, #1
     852:	469a      	mov	sl, r3
     854:	4650      	mov	r0, sl
     856:	e7e1      	b.n	0x81c
     858:	2b25      	cmp	r3, #37	; 0x25
     85a:	d1de      	bne.n	0x81a
     85c:	2101      	movs	r1, #1
     85e:	7823      	ldrb	r3, [r4, #0]
     860:	001a      	movs	r2, r3
     862:	085b      	lsrs	r3, r3, #1
     864:	400a      	ands	r2, r1
     866:	429a      	cmp	r2, r3
     868:	d1f9      	bne.n	0x85e
     86a:	2225      	movs	r2, #37	; 0x25
     86c:	4b5a      	ldr	r3, [pc, #360]	; (0x9d8)
     86e:	701a      	strb	r2, [r3, #0]
     870:	2201      	movs	r2, #1
     872:	7823      	ldrb	r3, [r4, #0]
     874:	4053      	eors	r3, r2
     876:	7023      	strb	r3, [r4, #0]
     878:	4650      	mov	r0, sl
     87a:	e7cf      	b.n	0x81c
     87c:	9b01      	ldr	r3, [sp, #4]
     87e:	1d1a      	adds	r2, r3, #4
     880:	681b      	ldr	r3, [r3, #0]
     882:	9201      	str	r2, [sp, #4]
     884:	4699      	mov	r9, r3
     886:	2b00      	cmp	r3, #0
     888:	db6b      	blt.n	0x962
     88a:	d000      	beq.n	0x88e
     88c:	e099      	b.n	0x9c2
     88e:	4d50      	ldr	r5, [pc, #320]	; (0x9d0)
     890:	3330      	adds	r3, #48	; 0x30
     892:	702b      	strb	r3, [r5, #0]
     894:	4a51      	ldr	r2, [pc, #324]	; (0x9dc)
     896:	2300      	movs	r3, #0
     898:	7013      	strb	r3, [r2, #0]
     89a:	7828      	ldrb	r0, [r5, #0]
     89c:	2800      	cmp	r0, #0
     89e:	d0bc      	beq.n	0x81a
     8a0:	2701      	movs	r7, #1
     8a2:	2101      	movs	r1, #1
     8a4:	4e4c      	ldr	r6, [pc, #304]	; (0x9d8)
     8a6:	3501      	adds	r5, #1
     8a8:	7823      	ldrb	r3, [r4, #0]
     8aa:	001a      	movs	r2, r3
     8ac:	085b      	lsrs	r3, r3, #1
     8ae:	400a      	ands	r2, r1
     8b0:	429a      	cmp	r2, r3
     8b2:	d1f9      	bne.n	0x8a8
     8b4:	7030      	strb	r0, [r6, #0]
     8b6:	7823      	ldrb	r3, [r4, #0]
     8b8:	407b      	eors	r3, r7
     8ba:	7023      	strb	r3, [r4, #0]
     8bc:	3501      	adds	r5, #1
     8be:	1e6b      	subs	r3, r5, #1
     8c0:	7818      	ldrb	r0, [r3, #0]
     8c2:	2800      	cmp	r0, #0
     8c4:	d1f0      	bne.n	0x8a8
     8c6:	4650      	mov	r0, sl
     8c8:	e7a8      	b.n	0x81c
     8ca:	9b01      	ldr	r3, [sp, #4]
     8cc:	6818      	ldr	r0, [r3, #0]
     8ce:	7805      	ldrb	r5, [r0, #0]
     8d0:	1d1a      	adds	r2, r3, #4
     8d2:	9201      	str	r2, [sp, #4]
     8d4:	2d00      	cmp	r5, #0
     8d6:	d0a0      	beq.n	0x81a
     8d8:	2701      	movs	r7, #1
     8da:	2101      	movs	r1, #1
     8dc:	4e3e      	ldr	r6, [pc, #248]	; (0x9d8)
     8de:	3001      	adds	r0, #1
     8e0:	7823      	ldrb	r3, [r4, #0]
     8e2:	001a      	movs	r2, r3
     8e4:	085b      	lsrs	r3, r3, #1
     8e6:	400a      	ands	r2, r1
     8e8:	429a      	cmp	r2, r3
     8ea:	d1f9      	bne.n	0x8e0
     8ec:	7035      	strb	r5, [r6, #0]
     8ee:	7823      	ldrb	r3, [r4, #0]
     8f0:	407b      	eors	r3, r7
     8f2:	7023      	strb	r3, [r4, #0]
     8f4:	3001      	adds	r0, #1
     8f6:	1e43      	subs	r3, r0, #1
     8f8:	781d      	ldrb	r5, [r3, #0]
     8fa:	2d00      	cmp	r5, #0
     8fc:	d1f0      	bne.n	0x8e0
     8fe:	4650      	mov	r0, sl
     900:	e78c      	b.n	0x81c
     902:	2300      	movs	r3, #0
     904:	464f      	mov	r7, r9
     906:	4698      	mov	r8, r3
     908:	46d9      	mov	r9, fp
     90a:	e001      	b.n	0x910
     90c:	46a8      	mov	r8, r5
     90e:	0007      	movs	r7, r0
     910:	4643      	mov	r3, r8
     912:	210a      	movs	r1, #10
     914:	0038      	movs	r0, r7
     916:	1c5d      	adds	r5, r3, #1
     918:	f001 fb14 	bl	0x1f44
     91c:	3130      	adds	r1, #48	; 0x30
     91e:	060e      	lsls	r6, r1, #24
     920:	4b2f      	ldr	r3, [pc, #188]	; (0x9e0)
     922:	0e36      	lsrs	r6, r6, #24
     924:	555e      	strb	r6, [r3, r5]
     926:	210a      	movs	r1, #10
     928:	0038      	movs	r0, r7
     92a:	f001 faf9 	bl	0x1f20
     92e:	2f09      	cmp	r7, #9
     930:	d8ec      	bhi.n	0x90c
     932:	4643      	mov	r3, r8
     934:	002f      	movs	r7, r5
     936:	464d      	mov	r5, r9
     938:	2b00      	cmp	r3, #0
     93a:	d046      	beq.n	0x9ca
     93c:	465a      	mov	r2, fp
     93e:	2300      	movs	r3, #0
     940:	4442      	add	r2, r8
     942:	4640      	mov	r0, r8
     944:	46cc      	mov	ip, r9
     946:	e000      	b.n	0x94a
     948:	7816      	ldrb	r6, [r2, #0]
     94a:	4659      	mov	r1, fp
     94c:	465d      	mov	r5, fp
     94e:	5cc9      	ldrb	r1, [r1, r3]
     950:	54ee      	strb	r6, [r5, r3]
     952:	3301      	adds	r3, #1
     954:	7011      	strb	r1, [r2, #0]
     956:	3a01      	subs	r2, #1
     958:	1ac1      	subs	r1, r0, r3
     95a:	428b      	cmp	r3, r1
     95c:	d3f4      	bcc.n	0x948
     95e:	4665      	mov	r5, ip
     960:	e743      	b.n	0x7ea
     962:	232d      	movs	r3, #45	; 0x2d
     964:	4d1a      	ldr	r5, [pc, #104]	; (0x9d0)
     966:	702b      	strb	r3, [r5, #0]
     968:	464b      	mov	r3, r9
     96a:	425b      	negs	r3, r3
     96c:	4699      	mov	r9, r3
     96e:	2301      	movs	r3, #1
     970:	4698      	mov	r8, r3
     972:	002b      	movs	r3, r5
     974:	4647      	mov	r7, r8
     976:	464d      	mov	r5, r9
     978:	4699      	mov	r9, r3
     97a:	e000      	b.n	0x97e
     97c:	001f      	movs	r7, r3
     97e:	0028      	movs	r0, r5
     980:	210a      	movs	r1, #10
     982:	f001 fadb 	bl	0x1f3c
     986:	464b      	mov	r3, r9
     988:	3130      	adds	r1, #48	; 0x30
     98a:	060e      	lsls	r6, r1, #24
     98c:	0e36      	lsrs	r6, r6, #24
     98e:	55de      	strb	r6, [r3, r7]
     990:	0028      	movs	r0, r5
     992:	210a      	movs	r1, #10
     994:	f001 fac8 	bl	0x1f28
     998:	4b10      	ldr	r3, [pc, #64]	; (0x9dc)
     99a:	0005      	movs	r5, r0
     99c:	19da      	adds	r2, r3, r7
     99e:	1c7b      	adds	r3, r7, #1
     9a0:	2800      	cmp	r0, #0
     9a2:	d1eb      	bne.n	0x97c
     9a4:	464d      	mov	r5, r9
     9a6:	4547      	cmp	r7, r8
     9a8:	d800      	bhi.n	0x9ac
     9aa:	e774      	b.n	0x896
     9ac:	4643      	mov	r3, r8
     9ae:	e000      	b.n	0x9b2
     9b0:	5dee      	ldrb	r6, [r5, r7]
     9b2:	5ce9      	ldrb	r1, [r5, r3]
     9b4:	54ee      	strb	r6, [r5, r3]
     9b6:	55e9      	strb	r1, [r5, r7]
     9b8:	3301      	adds	r3, #1
     9ba:	3f01      	subs	r7, #1
     9bc:	42bb      	cmp	r3, r7
     9be:	d3f7      	bcc.n	0x9b0
     9c0:	e769      	b.n	0x896
     9c2:	2300      	movs	r3, #0
     9c4:	4d02      	ldr	r5, [pc, #8]	; (0x9d0)
     9c6:	4698      	mov	r8, r3
     9c8:	e7d3      	b.n	0x972
     9ca:	2701      	movs	r7, #1
     9cc:	e70d      	b.n	0x7ea
     9ce:	46c0      	nop			; (mov r8, r8)
     9d0:	001c      	movs	r4, r3
     9d2:	0300      	lsls	r0, r0, #12
     9d4:	0401      	lsls	r1, r0, #16
     9d6:	0400      	lsls	r0, r0, #16
     9d8:	0400      	lsls	r0, r0, #16
     9da:	0400      	lsls	r0, r0, #16
     9dc:	001d      	movs	r5, r3
     9de:	0300      	lsls	r0, r0, #12
     9e0:	001b      	movs	r3, r3
     9e2:	0300      	lsls	r0, r0, #12
     9e4:	2300      	movs	r3, #0
     9e6:	b570      	push	{r4, r5, r6, lr}
     9e8:	69c6      	ldr	r6, [r0, #28]
     9ea:	0004      	movs	r4, r0
     9ec:	6383      	str	r3, [r0, #56]	; 0x38
     9ee:	63c3      	str	r3, [r0, #60]	; 0x3c
     9f0:	2e00      	cmp	r6, #0
     9f2:	d017      	beq.n	0xa24
     9f4:	2500      	movs	r5, #0
     9f6:	2101      	movs	r1, #1
     9f8:	0020      	movs	r0, r4
     9fa:	f7ff fd5f 	bl	0x4bc
     9fe:	8f21      	ldrh	r1, [r4, #56]	; 0x38
     a00:	f000 fe0a 	bl	0x1618
     a04:	2101      	movs	r1, #1
     a06:	8720      	strh	r0, [r4, #56]	; 0x38
     a08:	4249      	negs	r1, r1
     a0a:	0020      	movs	r0, r4
     a0c:	f7ff fd56 	bl	0x4bc
     a10:	8f21      	ldrh	r1, [r4, #56]	; 0x38
     a12:	f000 fe01 	bl	0x1618
     a16:	8720      	strh	r0, [r4, #56]	; 0x38
     a18:	2d00      	cmp	r5, #0
     a1a:	d100      	bne.n	0xa1e
     a1c:	8760      	strh	r0, [r4, #58]	; 0x3a
     a1e:	3501      	adds	r5, #1
     a20:	42ae      	cmp	r6, r5
     a22:	d1e8      	bne.n	0x9f6
     a24:	2000      	movs	r0, #0
     a26:	bc70      	pop	{r4, r5, r6}
     a28:	bc02      	pop	{r1}
     a2a:	4708      	bx	r1
     a2c:	b5f0      	push	{r4, r5, r6, r7, lr}
     a2e:	46de      	mov	lr, fp
     a30:	4645      	mov	r5, r8
     a32:	4657      	mov	r7, sl
     a34:	464e      	mov	r6, r9
     a36:	b5e0      	push	{r5, r6, r7, lr}
     a38:	469b      	mov	fp, r3
     a3a:	b085      	sub	sp, #20
     a3c:	0005      	movs	r5, r0
     a3e:	2a00      	cmp	r2, #0
     a40:	d100      	bne.n	0xa44
     a42:	3201      	adds	r2, #1
     a44:	1e4b      	subs	r3, r1, #1
     a46:	2103      	movs	r1, #3
     a48:	438b      	bics	r3, r1
     a4a:	1d19      	adds	r1, r3, #4
     a4c:	4688      	mov	r8, r1
     a4e:	9103      	str	r1, [sp, #12]
     a50:	2000      	movs	r0, #0
     a52:	2d00      	cmp	r5, #0
     a54:	d101      	bne.n	0xa5a
     a56:	e056      	b.n	0xb06
     a58:	0020      	movs	r0, r4
     a5a:	1c44      	adds	r4, r0, #1
     a5c:	0021      	movs	r1, r4
     a5e:	4361      	muls	r1, r4
     a60:	00c9      	lsls	r1, r1, #3
     a62:	428d      	cmp	r5, r1
     a64:	d8f8      	bhi.n	0xa58
     a66:	0001      	movs	r1, r0
     a68:	4341      	muls	r1, r0
     a6a:	0049      	lsls	r1, r1, #1
     a6c:	9102      	str	r1, [sp, #8]
     a6e:	4441      	add	r1, r8
     a70:	9100      	str	r1, [sp, #0]
     a72:	9001      	str	r0, [sp, #4]
     a74:	2800      	cmp	r0, #0
     a76:	d02c      	beq.n	0xad2
     a78:	0041      	lsls	r1, r0, #1
     a7a:	468a      	mov	sl, r1
     a7c:	2100      	movs	r1, #0
     a7e:	4689      	mov	r9, r1
     a80:	9900      	ldr	r1, [sp, #0]
     a82:	1acb      	subs	r3, r1, r3
     a84:	21ff      	movs	r1, #255	; 0xff
     a86:	2601      	movs	r6, #1
     a88:	468c      	mov	ip, r1
     a8a:	465f      	mov	r7, fp
     a8c:	3b04      	subs	r3, #4
     a8e:	4644      	mov	r4, r8
     a90:	2500      	movs	r5, #0
     a92:	46bb      	mov	fp, r7
     a94:	0031      	movs	r1, r6
     a96:	4351      	muls	r1, r2
     a98:	17cf      	asrs	r7, r1, #31
     a9a:	0c3f      	lsrs	r7, r7, #16
     a9c:	19ca      	adds	r2, r1, r7
     a9e:	0412      	lsls	r2, r2, #16
     aa0:	0c12      	lsrs	r2, r2, #16
     aa2:	1bd2      	subs	r2, r2, r7
     aa4:	0437      	lsls	r7, r6, #16
     aa6:	0c3f      	lsrs	r7, r7, #16
     aa8:	18b9      	adds	r1, r7, r2
     aaa:	0409      	lsls	r1, r1, #16
     aac:	0c09      	lsrs	r1, r1, #16
     aae:	5319      	strh	r1, [r3, r4]
     ab0:	19c9      	adds	r1, r1, r7
     ab2:	4667      	mov	r7, ip
     ab4:	3501      	adds	r5, #1
     ab6:	4039      	ands	r1, r7
     ab8:	8021      	strh	r1, [r4, #0]
     aba:	3601      	adds	r6, #1
     abc:	3402      	adds	r4, #2
     abe:	4285      	cmp	r5, r0
     ac0:	d3e8      	bcc.n	0xa94
     ac2:	2101      	movs	r1, #1
     ac4:	465f      	mov	r7, fp
     ac6:	468b      	mov	fp, r1
     ac8:	44d9      	add	r9, fp
     aca:	44d0      	add	r8, sl
     acc:	4581      	cmp	r9, r0
     ace:	d3de      	bcc.n	0xa8e
     ad0:	46bb      	mov	fp, r7
     ad2:	465b      	mov	r3, fp
     ad4:	9a03      	ldr	r2, [sp, #12]
     ad6:	605a      	str	r2, [r3, #4]
     ad8:	9a00      	ldr	r2, [sp, #0]
     ada:	4694      	mov	ip, r2
     adc:	609a      	str	r2, [r3, #8]
     ade:	2203      	movs	r2, #3
     ae0:	9b02      	ldr	r3, [sp, #8]
     ae2:	4463      	add	r3, ip
     ae4:	3b01      	subs	r3, #1
     ae6:	4393      	bics	r3, r2
     ae8:	465a      	mov	r2, fp
     aea:	3304      	adds	r3, #4
     aec:	60d3      	str	r3, [r2, #12]
     aee:	465b      	mov	r3, fp
     af0:	9a01      	ldr	r2, [sp, #4]
     af2:	601a      	str	r2, [r3, #0]
     af4:	b005      	add	sp, #20
     af6:	bc3c      	pop	{r2, r3, r4, r5}
     af8:	4690      	mov	r8, r2
     afa:	4699      	mov	r9, r3
     afc:	46a2      	mov	sl, r4
     afe:	46ab      	mov	fp, r5
     b00:	bcf0      	pop	{r4, r5, r6, r7}
     b02:	bc02      	pop	{r1}
     b04:	4708      	bx	r1
     b06:	1d99      	adds	r1, r3, #6
     b08:	9100      	str	r1, [sp, #0]
     b0a:	2101      	movs	r1, #1
     b0c:	4249      	negs	r1, r1
     b0e:	9101      	str	r1, [sp, #4]
     b10:	0008      	movs	r0, r1
     b12:	3103      	adds	r1, #3
     b14:	9102      	str	r1, [sp, #8]
     b16:	e7af      	b.n	0xa78
     b18:	b5f0      	push	{r4, r5, r6, r7, lr}
     b1a:	4645      	mov	r5, r8
     b1c:	46de      	mov	lr, fp
     b1e:	4657      	mov	r7, sl
     b20:	464e      	mov	r6, r9
     b22:	b5e0      	push	{r5, r6, r7, lr}
     b24:	4680      	mov	r8, r0
     b26:	b083      	sub	sp, #12
     b28:	2800      	cmp	r0, #0
     b2a:	d03b      	beq.n	0xba4
     b2c:	0083      	lsls	r3, r0, #2
     b2e:	18c9      	adds	r1, r1, r3
     b30:	0083      	lsls	r3, r0, #2
     b32:	425b      	negs	r3, r3
     b34:	469a      	mov	sl, r3
     b36:	2300      	movs	r3, #0
     b38:	469b      	mov	fp, r3
     b3a:	4643      	mov	r3, r8
     b3c:	2000      	movs	r0, #0
     b3e:	2600      	movs	r6, #0
     b40:	2400      	movs	r4, #0
     b42:	00db      	lsls	r3, r3, #3
     b44:	425b      	negs	r3, r3
     b46:	9301      	str	r3, [sp, #4]
     b48:	468c      	mov	ip, r1
     b4a:	44d4      	add	ip, sl
     b4c:	4663      	mov	r3, ip
     b4e:	e007      	b.n	0xb60
     b50:	300a      	adds	r0, #10
     b52:	0400      	lsls	r0, r0, #16
     b54:	3304      	adds	r3, #4
     b56:	1400      	asrs	r0, r0, #16
     b58:	2400      	movs	r4, #0
     b5a:	002e      	movs	r6, r5
     b5c:	4299      	cmp	r1, r3
     b5e:	d010      	beq.n	0xb82
     b60:	681d      	ldr	r5, [r3, #0]
     b62:	0400      	lsls	r0, r0, #16
     b64:	1964      	adds	r4, r4, r5
     b66:	0c00      	lsrs	r0, r0, #16
     b68:	42a2      	cmp	r2, r4
     b6a:	dbf1      	blt.n	0xb50
     b6c:	2701      	movs	r7, #1
     b6e:	42b5      	cmp	r5, r6
     b70:	dc00      	bgt.n	0xb74
     b72:	2700      	movs	r7, #0
     b74:	19c0      	adds	r0, r0, r7
     b76:	0400      	lsls	r0, r0, #16
     b78:	3304      	adds	r3, #4
     b7a:	1400      	asrs	r0, r0, #16
     b7c:	002e      	movs	r6, r5
     b7e:	4299      	cmp	r1, r3
     b80:	d1ee      	bne.n	0xb60
     b82:	2301      	movs	r3, #1
     b84:	4699      	mov	r9, r3
     b86:	4663      	mov	r3, ip
     b88:	9901      	ldr	r1, [sp, #4]
     b8a:	44cb      	add	fp, r9
     b8c:	1a59      	subs	r1, r3, r1
     b8e:	45d8      	cmp	r8, fp
     b90:	d1da      	bne.n	0xb48
     b92:	b003      	add	sp, #12
     b94:	bc3c      	pop	{r2, r3, r4, r5}
     b96:	4690      	mov	r8, r2
     b98:	4699      	mov	r9, r3
     b9a:	46a2      	mov	sl, r4
     b9c:	46ab      	mov	fp, r5
     b9e:	bcf0      	pop	{r4, r5, r6, r7}
     ba0:	bc02      	pop	{r1}
     ba2:	4708      	bx	r1
     ba4:	2000      	movs	r0, #0
     ba6:	e7f4      	b.n	0xb92
     ba8:	b5f0      	push	{r4, r5, r6, r7, lr}
     baa:	46de      	mov	lr, fp
     bac:	4657      	mov	r7, sl
     bae:	464e      	mov	r6, r9
     bb0:	4645      	mov	r5, r8
     bb2:	b5e0      	push	{r5, r6, r7, lr}
     bb4:	4684      	mov	ip, r0
     bb6:	b083      	sub	sp, #12
     bb8:	2800      	cmp	r0, #0
     bba:	d022      	beq.n	0xc02
     bbc:	0080      	lsls	r0, r0, #2
     bbe:	4682      	mov	sl, r0
     bc0:	4660      	mov	r0, ip
     bc2:	0040      	lsls	r0, r0, #1
     bc4:	1812      	adds	r2, r2, r0
     bc6:	4660      	mov	r0, ip
     bc8:	0040      	lsls	r0, r0, #1
     bca:	4240      	negs	r0, r0
     bcc:	4681      	mov	r9, r0
     bce:	4650      	mov	r0, sl
     bd0:	4240      	negs	r0, r0
     bd2:	2700      	movs	r7, #0
     bd4:	4680      	mov	r8, r0
     bd6:	9101      	str	r1, [sp, #4]
     bd8:	4648      	mov	r0, r9
     bda:	1880      	adds	r0, r0, r2
     bdc:	0004      	movs	r4, r0
     bde:	9e01      	ldr	r6, [sp, #4]
     be0:	2500      	movs	r5, #0
     be2:	5f61      	ldrsh	r1, [r4, r5]
     be4:	468b      	mov	fp, r1
     be6:	465d      	mov	r5, fp
     be8:	435d      	muls	r5, r3
     bea:	3402      	adds	r4, #2
     bec:	c620      	stmia	r6!, {r5}
     bee:	4294      	cmp	r4, r2
     bf0:	d1f6      	bne.n	0xbe0
     bf2:	9a01      	ldr	r2, [sp, #4]
     bf4:	4452      	add	r2, sl
     bf6:	9201      	str	r2, [sp, #4]
     bf8:	4642      	mov	r2, r8
     bfa:	3701      	adds	r7, #1
     bfc:	1a82      	subs	r2, r0, r2
     bfe:	45bc      	cmp	ip, r7
     c00:	d1ea      	bne.n	0xbd8
     c02:	b003      	add	sp, #12
     c04:	bc3c      	pop	{r2, r3, r4, r5}
     c06:	4690      	mov	r8, r2
     c08:	4699      	mov	r9, r3
     c0a:	46a2      	mov	sl, r4
     c0c:	46ab      	mov	fp, r5
     c0e:	bcf0      	pop	{r4, r5, r6, r7}
     c10:	bc01      	pop	{r0}
     c12:	4700      	bx	r0
     c14:	b5f0      	push	{r4, r5, r6, r7, lr}
     c16:	2800      	cmp	r0, #0
     c18:	d015      	beq.n	0xc46
     c1a:	0043      	lsls	r3, r0, #1
     c1c:	18c9      	adds	r1, r1, r3
     c1e:	425b      	negs	r3, r3
     c20:	469c      	mov	ip, r3
     c22:	2500      	movs	r5, #0
     c24:	0412      	lsls	r2, r2, #16
     c26:	0087      	lsls	r7, r0, #2
     c28:	0c14      	lsrs	r4, r2, #16
     c2a:	427f      	negs	r7, r7
     c2c:	4663      	mov	r3, ip
     c2e:	185e      	adds	r6, r3, r1
     c30:	0033      	movs	r3, r6
     c32:	881a      	ldrh	r2, [r3, #0]
     c34:	18a2      	adds	r2, r4, r2
     c36:	801a      	strh	r2, [r3, #0]
     c38:	3302      	adds	r3, #2
     c3a:	4299      	cmp	r1, r3
     c3c:	d1f9      	bne.n	0xc32
     c3e:	3501      	adds	r5, #1
     c40:	1bf1      	subs	r1, r6, r7
     c42:	42a8      	cmp	r0, r5
     c44:	d1f2      	bne.n	0xc2c
     c46:	bcf0      	pop	{r4, r5, r6, r7}
     c48:	bc01      	pop	{r0}
     c4a:	4700      	bx	r0
     c4c:	b5f0      	push	{r4, r5, r6, r7, lr}
     c4e:	46ce      	mov	lr, r9
     c50:	4647      	mov	r7, r8
     c52:	b580      	push	{r7, lr}
     c54:	2800      	cmp	r0, #0
     c56:	d015      	beq.n	0xc84
     c58:	0047      	lsls	r7, r0, #1
     c5a:	0080      	lsls	r0, r0, #2
     c5c:	4689      	mov	r9, r1
     c5e:	4684      	mov	ip, r0
     c60:	44cc      	add	ip, r9
     c62:	2000      	movs	r0, #0
     c64:	2500      	movs	r5, #0
     c66:	5e19      	ldrsh	r1, [r3, r0]
     c68:	4688      	mov	r8, r1
     c6a:	5e16      	ldrsh	r6, [r2, r0]
     c6c:	4644      	mov	r4, r8
     c6e:	4374      	muls	r4, r6
     c70:	3002      	adds	r0, #2
     c72:	192d      	adds	r5, r5, r4
     c74:	4287      	cmp	r7, r0
     c76:	d1f6      	bne.n	0xc66
     c78:	4649      	mov	r1, r9
     c7a:	c120      	stmia	r1!, {r5}
     c7c:	19d2      	adds	r2, r2, r7
     c7e:	4689      	mov	r9, r1
     c80:	458c      	cmp	ip, r1
     c82:	d1ee      	bne.n	0xc62
     c84:	bc0c      	pop	{r2, r3}
     c86:	4690      	mov	r8, r2
     c88:	4699      	mov	r9, r3
     c8a:	bcf0      	pop	{r4, r5, r6, r7}
     c8c:	bc01      	pop	{r0}
     c8e:	4700      	bx	r0
     c90:	b5f0      	push	{r4, r5, r6, r7, lr}
     c92:	46de      	mov	lr, fp
     c94:	4657      	mov	r7, sl
     c96:	464e      	mov	r6, r9
     c98:	4645      	mov	r5, r8
     c9a:	b5e0      	push	{r5, r6, r7, lr}
     c9c:	b087      	sub	sp, #28
     c9e:	9002      	str	r0, [sp, #8]
     ca0:	9303      	str	r3, [sp, #12]
     ca2:	2800      	cmp	r0, #0
     ca4:	d03d      	beq.n	0xd22
     ca6:	4689      	mov	r9, r1
     ca8:	0083      	lsls	r3, r0, #2
     caa:	4499      	add	r9, r3
     cac:	0083      	lsls	r3, r0, #2
     cae:	425b      	negs	r3, r3
     cb0:	9304      	str	r3, [sp, #16]
     cb2:	2300      	movs	r3, #0
     cb4:	469a      	mov	sl, r3
     cb6:	00c3      	lsls	r3, r0, #3
     cb8:	425b      	negs	r3, r3
     cba:	0047      	lsls	r7, r0, #1
     cbc:	9305      	str	r3, [sp, #20]
     cbe:	4690      	mov	r8, r2
     cc0:	19d2      	adds	r2, r2, r7
     cc2:	9b04      	ldr	r3, [sp, #16]
     cc4:	444b      	add	r3, r9
     cc6:	469b      	mov	fp, r3
     cc8:	9b03      	ldr	r3, [sp, #12]
     cca:	465e      	mov	r6, fp
     ccc:	469c      	mov	ip, r3
     cce:	4651      	mov	r1, sl
     cd0:	4660      	mov	r0, ip
     cd2:	4643      	mov	r3, r8
     cd4:	2400      	movs	r4, #0
     cd6:	468a      	mov	sl, r1
     cd8:	9000      	str	r0, [sp, #0]
     cda:	9601      	str	r6, [sp, #4]
     cdc:	2100      	movs	r1, #0
     cde:	5e46      	ldrsh	r6, [r0, r1]
     ce0:	46b4      	mov	ip, r6
     ce2:	2100      	movs	r1, #0
     ce4:	5e5d      	ldrsh	r5, [r3, r1]
     ce6:	4661      	mov	r1, ip
     ce8:	4369      	muls	r1, r5
     cea:	3302      	adds	r3, #2
     cec:	1864      	adds	r4, r4, r1
     cee:	19c0      	adds	r0, r0, r7
     cf0:	4293      	cmp	r3, r2
     cf2:	d1f3      	bne.n	0xcdc
     cf4:	9b00      	ldr	r3, [sp, #0]
     cf6:	469c      	mov	ip, r3
     cf8:	2302      	movs	r3, #2
     cfa:	4651      	mov	r1, sl
     cfc:	469a      	mov	sl, r3
     cfe:	9e01      	ldr	r6, [sp, #4]
     d00:	c610      	stmia	r6!, {r4}
     d02:	44d4      	add	ip, sl
     d04:	45b1      	cmp	r9, r6
     d06:	d1e3      	bne.n	0xcd0
     d08:	3b01      	subs	r3, #1
     d0a:	469c      	mov	ip, r3
     d0c:	465b      	mov	r3, fp
     d0e:	468a      	mov	sl, r1
     d10:	9905      	ldr	r1, [sp, #20]
     d12:	1a5b      	subs	r3, r3, r1
     d14:	4699      	mov	r9, r3
     d16:	9b02      	ldr	r3, [sp, #8]
     d18:	44e2      	add	sl, ip
     d1a:	44b8      	add	r8, r7
     d1c:	19d2      	adds	r2, r2, r7
     d1e:	4553      	cmp	r3, sl
     d20:	d1cf      	bne.n	0xcc2
     d22:	b007      	add	sp, #28
     d24:	bc3c      	pop	{r2, r3, r4, r5}
     d26:	4690      	mov	r8, r2
     d28:	4699      	mov	r9, r3
     d2a:	46a2      	mov	sl, r4
     d2c:	46ab      	mov	fp, r5
     d2e:	bcf0      	pop	{r4, r5, r6, r7}
     d30:	bc01      	pop	{r0}
     d32:	4700      	bx	r0
     d34:	b5f0      	push	{r4, r5, r6, r7, lr}
     d36:	46de      	mov	lr, fp
     d38:	4657      	mov	r7, sl
     d3a:	464e      	mov	r6, r9
     d3c:	4645      	mov	r5, r8
     d3e:	b5e0      	push	{r5, r6, r7, lr}
     d40:	b087      	sub	sp, #28
     d42:	9002      	str	r0, [sp, #8]
     d44:	9303      	str	r3, [sp, #12]
     d46:	2800      	cmp	r0, #0
     d48:	d042      	beq.n	0xdd0
     d4a:	468b      	mov	fp, r1
     d4c:	0083      	lsls	r3, r0, #2
     d4e:	449b      	add	fp, r3
     d50:	0083      	lsls	r3, r0, #2
     d52:	425b      	negs	r3, r3
     d54:	9304      	str	r3, [sp, #16]
     d56:	2300      	movs	r3, #0
     d58:	4692      	mov	sl, r2
     d5a:	9300      	str	r3, [sp, #0]
     d5c:	330f      	adds	r3, #15
     d5e:	469c      	mov	ip, r3
     d60:	00c3      	lsls	r3, r0, #3
     d62:	425b      	negs	r3, r3
     d64:	0046      	lsls	r6, r0, #1
     d66:	9305      	str	r3, [sp, #20]
     d68:	1997      	adds	r7, r2, r6
     d6a:	9b04      	ldr	r3, [sp, #16]
     d6c:	9a03      	ldr	r2, [sp, #12]
     d6e:	445b      	add	r3, fp
     d70:	4691      	mov	r9, r2
     d72:	4698      	mov	r8, r3
     d74:	465a      	mov	r2, fp
     d76:	9301      	str	r3, [sp, #4]
     d78:	4648      	mov	r0, r9
     d7a:	4651      	mov	r1, sl
     d7c:	2400      	movs	r4, #0
     d7e:	4693      	mov	fp, r2
     d80:	2500      	movs	r5, #0
     d82:	5f4b      	ldrsh	r3, [r1, r5]
     d84:	2200      	movs	r2, #0
     d86:	5e85      	ldrsh	r5, [r0, r2]
     d88:	001a      	movs	r2, r3
     d8a:	436a      	muls	r2, r5
     d8c:	4663      	mov	r3, ip
     d8e:	1095      	asrs	r5, r2, #2
     d90:	401d      	ands	r5, r3
     d92:	1153      	asrs	r3, r2, #5
     d94:	227f      	movs	r2, #127	; 0x7f
     d96:	401a      	ands	r2, r3
     d98:	0013      	movs	r3, r2
     d9a:	436b      	muls	r3, r5
     d9c:	3102      	adds	r1, #2
     d9e:	18e4      	adds	r4, r4, r3
     da0:	1980      	adds	r0, r0, r6
     da2:	428f      	cmp	r7, r1
     da4:	d1ec      	bne.n	0xd80
     da6:	4643      	mov	r3, r8
     da8:	c310      	stmia	r3!, {r4}
     daa:	4698      	mov	r8, r3
     dac:	2302      	movs	r3, #2
     dae:	465a      	mov	r2, fp
     db0:	469b      	mov	fp, r3
     db2:	44d9      	add	r9, fp
     db4:	4542      	cmp	r2, r8
     db6:	d1df      	bne.n	0xd78
     db8:	9a01      	ldr	r2, [sp, #4]
     dba:	9905      	ldr	r1, [sp, #20]
     dbc:	9b00      	ldr	r3, [sp, #0]
     dbe:	1a52      	subs	r2, r2, r1
     dc0:	4693      	mov	fp, r2
     dc2:	9a02      	ldr	r2, [sp, #8]
     dc4:	3301      	adds	r3, #1
     dc6:	9300      	str	r3, [sp, #0]
     dc8:	44b2      	add	sl, r6
     dca:	19bf      	adds	r7, r7, r6
     dcc:	429a      	cmp	r2, r3
     dce:	d1cc      	bne.n	0xd6a
     dd0:	b007      	add	sp, #28
     dd2:	bc3c      	pop	{r2, r3, r4, r5}
     dd4:	4690      	mov	r8, r2
     dd6:	4699      	mov	r9, r3
     dd8:	46a2      	mov	sl, r4
     dda:	46ab      	mov	fp, r5
     ddc:	bcf0      	pop	{r4, r5, r6, r7}
     dde:	bc01      	pop	{r0}
     de0:	4700      	bx	r0
     de2:	46c0      	nop			; (mov r8, r8)
     de4:	b5f0      	push	{r4, r5, r6, r7, lr}
     de6:	46de      	mov	lr, fp
     de8:	4657      	mov	r7, sl
     dea:	464e      	mov	r6, r9
     dec:	4645      	mov	r5, r8
     dee:	4684      	mov	ip, r0
     df0:	b5e0      	push	{r5, r6, r7, lr}
     df2:	b08d      	sub	sp, #52	; 0x34
     df4:	9308      	str	r3, [sp, #32]
     df6:	ab16      	add	r3, sp, #88	; 0x58
     df8:	2000      	movs	r0, #0
     dfa:	5e18      	ldrsh	r0, [r3, r0]
     dfc:	4663      	mov	r3, ip
     dfe:	4cd6      	ldr	r4, [pc, #856]	; (0x1158)
     e00:	9106      	str	r1, [sp, #24]
     e02:	9207      	str	r2, [sp, #28]
     e04:	4304      	orrs	r4, r0
     e06:	2b00      	cmp	r3, #0
     e08:	d100      	bne.n	0xe0c
     e0a:	e17b      	b.n	0x1104
     e0c:	4690      	mov	r8, r2
     e0e:	005b      	lsls	r3, r3, #1
     e10:	930b      	str	r3, [sp, #44]	; 0x2c
     e12:	4443      	add	r3, r8
     e14:	001f      	movs	r7, r3
     e16:	4663      	mov	r3, ip
     e18:	005b      	lsls	r3, r3, #1
     e1a:	425b      	negs	r3, r3
     e1c:	469a      	mov	sl, r3
     e1e:	4663      	mov	r3, ip
     e20:	2100      	movs	r1, #0
     e22:	009b      	lsls	r3, r3, #2
     e24:	425b      	negs	r3, r3
     e26:	0406      	lsls	r6, r0, #16
     e28:	920a      	str	r2, [sp, #40]	; 0x28
     e2a:	46a1      	mov	r9, r4
     e2c:	003a      	movs	r2, r7
     e2e:	4664      	mov	r4, ip
     e30:	4698      	mov	r8, r3
     e32:	46bc      	mov	ip, r7
     e34:	4657      	mov	r7, sl
     e36:	4682      	mov	sl, r0
     e38:	0008      	movs	r0, r1
     e3a:	0c36      	lsrs	r6, r6, #16
     e3c:	18bd      	adds	r5, r7, r2
     e3e:	002b      	movs	r3, r5
     e40:	8819      	ldrh	r1, [r3, #0]
     e42:	1871      	adds	r1, r6, r1
     e44:	8019      	strh	r1, [r3, #0]
     e46:	3302      	adds	r3, #2
     e48:	429a      	cmp	r2, r3
     e4a:	d1f9      	bne.n	0xe40
     e4c:	4642      	mov	r2, r8
     e4e:	1c43      	adds	r3, r0, #1
     e50:	1aaa      	subs	r2, r5, r2
     e52:	429c      	cmp	r4, r3
     e54:	d001      	beq.n	0xe5a
     e56:	0018      	movs	r0, r3
     e58:	e7f0      	b.n	0xe3c
     e5a:	001d      	movs	r5, r3
     e5c:	009b      	lsls	r3, r3, #2
     e5e:	9301      	str	r3, [sp, #4]
     e60:	9b06      	ldr	r3, [sp, #24]
     e62:	9000      	str	r0, [sp, #0]
     e64:	9309      	str	r3, [sp, #36]	; 0x24
     e66:	4650      	mov	r0, sl
     e68:	46ba      	mov	sl, r7
     e6a:	4667      	mov	r7, ip
     e6c:	469c      	mov	ip, r3
     e6e:	2300      	movs	r3, #0
     e70:	464c      	mov	r4, r9
     e72:	4699      	mov	r9, r3
     e74:	00ab      	lsls	r3, r5, #2
     e76:	425b      	negs	r3, r3
     e78:	9402      	str	r4, [sp, #8]
     e7a:	46b3      	mov	fp, r6
     e7c:	4664      	mov	r4, ip
     e7e:	464e      	mov	r6, r9
     e80:	469c      	mov	ip, r3
     e82:	46a9      	mov	r9, r5
     e84:	9303      	str	r3, [sp, #12]
     e86:	4653      	mov	r3, sl
     e88:	9a02      	ldr	r2, [sp, #8]
     e8a:	4690      	mov	r8, r2
     e8c:	4662      	mov	r2, ip
     e8e:	18fd      	adds	r5, r7, r3
     e90:	0021      	movs	r1, r4
     e92:	002b      	movs	r3, r5
     e94:	9404      	str	r4, [sp, #16]
     e96:	9205      	str	r2, [sp, #20]
     e98:	2200      	movs	r2, #0
     e9a:	5e9c      	ldrsh	r4, [r3, r2]
     e9c:	46a4      	mov	ip, r4
     e9e:	4662      	mov	r2, ip
     ea0:	4342      	muls	r2, r0
     ea2:	3302      	adds	r3, #2
     ea4:	c104      	stmia	r1!, {r2}
     ea6:	429f      	cmp	r7, r3
     ea8:	d1f6      	bne.n	0xe98
     eaa:	4643      	mov	r3, r8
     eac:	9302      	str	r3, [sp, #8]
     eae:	9b05      	ldr	r3, [sp, #20]
     eb0:	469c      	mov	ip, r3
     eb2:	9a01      	ldr	r2, [sp, #4]
     eb4:	4690      	mov	r8, r2
     eb6:	4662      	mov	r2, ip
     eb8:	9c04      	ldr	r4, [sp, #16]
     eba:	1aaf      	subs	r7, r5, r2
     ebc:	9a00      	ldr	r2, [sp, #0]
     ebe:	1c73      	adds	r3, r6, #1
     ec0:	4444      	add	r4, r8
     ec2:	4296      	cmp	r6, r2
     ec4:	d001      	beq.n	0xeca
     ec6:	001e      	movs	r6, r3
     ec8:	e7dd      	b.n	0xe86
     eca:	9b06      	ldr	r3, [sp, #24]
     ecc:	4443      	add	r3, r8
     ece:	001f      	movs	r7, r3
     ed0:	4698      	mov	r8, r3
     ed2:	2300      	movs	r3, #0
     ed4:	469c      	mov	ip, r3
     ed6:	464d      	mov	r5, r9
     ed8:	9c02      	ldr	r4, [sp, #8]
     eda:	003e      	movs	r6, r7
     edc:	2000      	movs	r0, #0
     ede:	0027      	movs	r7, r4
     ee0:	2200      	movs	r2, #0
     ee2:	4664      	mov	r4, ip
     ee4:	469a      	mov	sl, r3
     ee6:	00eb      	lsls	r3, r5, #3
     ee8:	425b      	negs	r3, r3
     eea:	9302      	str	r3, [sp, #8]
     eec:	9b03      	ldr	r3, [sp, #12]
     eee:	469c      	mov	ip, r3
     ef0:	44b4      	add	ip, r6
     ef2:	4663      	mov	r3, ip
     ef4:	e007      	b.n	0xf06
     ef6:	300a      	adds	r0, #10
     ef8:	0400      	lsls	r0, r0, #16
     efa:	3304      	adds	r3, #4
     efc:	1400      	asrs	r0, r0, #16
     efe:	2200      	movs	r2, #0
     f00:	000c      	movs	r4, r1
     f02:	429e      	cmp	r6, r3
     f04:	d010      	beq.n	0xf28
     f06:	6819      	ldr	r1, [r3, #0]
     f08:	0400      	lsls	r0, r0, #16
     f0a:	1852      	adds	r2, r2, r1
     f0c:	0c00      	lsrs	r0, r0, #16
     f0e:	42ba      	cmp	r2, r7
     f10:	dcf1      	bgt.n	0xef6
     f12:	2501      	movs	r5, #1
     f14:	42a1      	cmp	r1, r4
     f16:	dc00      	bgt.n	0xf1a
     f18:	2500      	movs	r5, #0
     f1a:	1940      	adds	r0, r0, r5
     f1c:	0400      	lsls	r0, r0, #16
     f1e:	3304      	adds	r3, #4
     f20:	1400      	asrs	r0, r0, #16
     f22:	000c      	movs	r4, r1
     f24:	429e      	cmp	r6, r3
     f26:	d1ee      	bne.n	0xf06
     f28:	4661      	mov	r1, ip
     f2a:	4653      	mov	r3, sl
     f2c:	9d02      	ldr	r5, [sp, #8]
     f2e:	1b4e      	subs	r6, r1, r5
     f30:	9900      	ldr	r1, [sp, #0]
     f32:	3301      	adds	r3, #1
     f34:	458a      	cmp	sl, r1
     f36:	d001      	beq.n	0xf3c
     f38:	469a      	mov	sl, r3
     f3a:	e7d7      	b.n	0xeec
     f3c:	2100      	movs	r1, #0
     f3e:	f000 fba3 	bl	0x1688
     f42:	465e      	mov	r6, fp
     f44:	9b08      	ldr	r3, [sp, #32]
     f46:	9a07      	ldr	r2, [sp, #28]
     f48:	4683      	mov	fp, r0
     f4a:	9906      	ldr	r1, [sp, #24]
     f4c:	4648      	mov	r0, r9
     f4e:	464d      	mov	r5, r9
     f50:	f7ff fe7c 	bl	0xc4c
     f54:	003c      	movs	r4, r7
     f56:	2300      	movs	r3, #0
     f58:	4647      	mov	r7, r8
     f5a:	46b2      	mov	sl, r6
     f5c:	46a8      	mov	r8, r5
     f5e:	2000      	movs	r0, #0
     f60:	003d      	movs	r5, r7
     f62:	2200      	movs	r2, #0
     f64:	4699      	mov	r9, r3
     f66:	001f      	movs	r7, r3
     f68:	0026      	movs	r6, r4
     f6a:	9b03      	ldr	r3, [sp, #12]
     f6c:	469c      	mov	ip, r3
     f6e:	44ac      	add	ip, r5
     f70:	4663      	mov	r3, ip
     f72:	e007      	b.n	0xf84
     f74:	300a      	adds	r0, #10
     f76:	0400      	lsls	r0, r0, #16
     f78:	3304      	adds	r3, #4
     f7a:	1400      	asrs	r0, r0, #16
     f7c:	2200      	movs	r2, #0
     f7e:	000f      	movs	r7, r1
     f80:	429d      	cmp	r5, r3
     f82:	d010      	beq.n	0xfa6
     f84:	6819      	ldr	r1, [r3, #0]
     f86:	0400      	lsls	r0, r0, #16
     f88:	1852      	adds	r2, r2, r1
     f8a:	0c00      	lsrs	r0, r0, #16
     f8c:	42b2      	cmp	r2, r6
     f8e:	dcf1      	bgt.n	0xf74
     f90:	2401      	movs	r4, #1
     f92:	42b9      	cmp	r1, r7
     f94:	dc00      	bgt.n	0xf98
     f96:	2400      	movs	r4, #0
     f98:	1900      	adds	r0, r0, r4
     f9a:	0400      	lsls	r0, r0, #16
     f9c:	3304      	adds	r3, #4
     f9e:	1400      	asrs	r0, r0, #16
     fa0:	000f      	movs	r7, r1
     fa2:	429d      	cmp	r5, r3
     fa4:	d1ee      	bne.n	0xf84
     fa6:	4661      	mov	r1, ip
     fa8:	464b      	mov	r3, r9
     faa:	9c02      	ldr	r4, [sp, #8]
     fac:	1b0d      	subs	r5, r1, r4
     fae:	9900      	ldr	r1, [sp, #0]
     fb0:	3301      	adds	r3, #1
     fb2:	4589      	cmp	r9, r1
     fb4:	d001      	beq.n	0xfba
     fb6:	4699      	mov	r9, r3
     fb8:	e7d7      	b.n	0xf6a
     fba:	4659      	mov	r1, fp
     fbc:	f000 fb64 	bl	0x1688
     fc0:	9f06      	ldr	r7, [sp, #24]
     fc2:	9b08      	ldr	r3, [sp, #32]
     fc4:	9a07      	ldr	r2, [sp, #28]
     fc6:	4683      	mov	fp, r0
     fc8:	0039      	movs	r1, r7
     fca:	4640      	mov	r0, r8
     fcc:	f7ff fe60 	bl	0xc90
     fd0:	0034      	movs	r4, r6
     fd2:	2300      	movs	r3, #0
     fd4:	4645      	mov	r5, r8
     fd6:	469c      	mov	ip, r3
     fd8:	4698      	mov	r8, r3
     fda:	0023      	movs	r3, r4
     fdc:	002e      	movs	r6, r5
     fde:	46b9      	mov	r9, r7
     fe0:	2000      	movs	r0, #0
     fe2:	2200      	movs	r2, #0
     fe4:	4664      	mov	r4, ip
     fe6:	001d      	movs	r5, r3
     fe8:	464f      	mov	r7, r9
     fea:	2100      	movs	r1, #0
     fec:	9500      	str	r5, [sp, #0]
     fee:	e008      	b.n	0x1002
     ff0:	300a      	adds	r0, #10
     ff2:	0400      	lsls	r0, r0, #16
     ff4:	3101      	adds	r1, #1
     ff6:	1400      	asrs	r0, r0, #16
     ff8:	2200      	movs	r2, #0
     ffa:	3704      	adds	r7, #4
     ffc:	001c      	movs	r4, r3
     ffe:	42b1      	cmp	r1, r6
    1000:	d214      	bcs.n	0x102c
    1002:	683b      	ldr	r3, [r7, #0]
    1004:	9d00      	ldr	r5, [sp, #0]
    1006:	0400      	lsls	r0, r0, #16
    1008:	18d2      	adds	r2, r2, r3
    100a:	0c00      	lsrs	r0, r0, #16
    100c:	42aa      	cmp	r2, r5
    100e:	dcef      	bgt.n	0xff0
    1010:	2501      	movs	r5, #1
    1012:	46ac      	mov	ip, r5
    1014:	42a3      	cmp	r3, r4
    1016:	dc01      	bgt.n	0x101c
    1018:	2400      	movs	r4, #0
    101a:	46a4      	mov	ip, r4
    101c:	4460      	add	r0, ip
    101e:	0400      	lsls	r0, r0, #16
    1020:	3101      	adds	r1, #1
    1022:	1400      	asrs	r0, r0, #16
    1024:	3704      	adds	r7, #4
    1026:	001c      	movs	r4, r3
    1028:	42b1      	cmp	r1, r6
    102a:	d3ea      	bcc.n	0x1002
    102c:	2101      	movs	r1, #1
    102e:	468c      	mov	ip, r1
    1030:	9901      	ldr	r1, [sp, #4]
    1032:	44e0      	add	r8, ip
    1034:	468c      	mov	ip, r1
    1036:	9d00      	ldr	r5, [sp, #0]
    1038:	44e1      	add	r9, ip
    103a:	45b0      	cmp	r8, r6
    103c:	d3d4      	bcc.n	0xfe8
    103e:	4659      	mov	r1, fp
    1040:	f000 fb22 	bl	0x1688
    1044:	002c      	movs	r4, r5
    1046:	0035      	movs	r5, r6
    1048:	9b08      	ldr	r3, [sp, #32]
    104a:	4656      	mov	r6, sl
    104c:	9a07      	ldr	r2, [sp, #28]
    104e:	4682      	mov	sl, r0
    1050:	9906      	ldr	r1, [sp, #24]
    1052:	0028      	movs	r0, r5
    1054:	f7ff fe6e 	bl	0xd34
    1058:	2300      	movs	r3, #0
    105a:	469c      	mov	ip, r3
    105c:	4698      	mov	r8, r3
    105e:	9b09      	ldr	r3, [sp, #36]	; 0x24
    1060:	9400      	str	r4, [sp, #0]
    1062:	46b3      	mov	fp, r6
    1064:	2000      	movs	r0, #0
    1066:	2200      	movs	r2, #0
    1068:	4699      	mov	r9, r3
    106a:	002e      	movs	r6, r5
    106c:	4664      	mov	r4, ip
    106e:	464f      	mov	r7, r9
    1070:	2100      	movs	r1, #0
    1072:	e008      	b.n	0x1086
    1074:	300a      	adds	r0, #10
    1076:	0400      	lsls	r0, r0, #16
    1078:	3101      	adds	r1, #1
    107a:	1400      	asrs	r0, r0, #16
    107c:	2200      	movs	r2, #0
    107e:	3704      	adds	r7, #4
    1080:	001c      	movs	r4, r3
    1082:	42b1      	cmp	r1, r6
    1084:	d214      	bcs.n	0x10b0
    1086:	683b      	ldr	r3, [r7, #0]
    1088:	9d00      	ldr	r5, [sp, #0]
    108a:	0400      	lsls	r0, r0, #16
    108c:	18d2      	adds	r2, r2, r3
    108e:	0c00      	lsrs	r0, r0, #16
    1090:	42aa      	cmp	r2, r5
    1092:	dcef      	bgt.n	0x1074
    1094:	2501      	movs	r5, #1
    1096:	46ac      	mov	ip, r5
    1098:	42a3      	cmp	r3, r4
    109a:	dc01      	bgt.n	0x10a0
    109c:	2400      	movs	r4, #0
    109e:	46a4      	mov	ip, r4
    10a0:	4460      	add	r0, ip
    10a2:	0400      	lsls	r0, r0, #16
    10a4:	3101      	adds	r1, #1
    10a6:	1400      	asrs	r0, r0, #16
    10a8:	3704      	adds	r7, #4
    10aa:	001c      	movs	r4, r3
    10ac:	42b1      	cmp	r1, r6
    10ae:	d3ea      	bcc.n	0x1086
    10b0:	2101      	movs	r1, #1
    10b2:	468c      	mov	ip, r1
    10b4:	9901      	ldr	r1, [sp, #4]
    10b6:	44e0      	add	r8, ip
    10b8:	468c      	mov	ip, r1
    10ba:	44e1      	add	r9, ip
    10bc:	45b0      	cmp	r8, r6
    10be:	d3d6      	bcc.n	0x106e
    10c0:	4651      	mov	r1, sl
    10c2:	f000 fae1 	bl	0x1688
    10c6:	0035      	movs	r5, r6
    10c8:	2400      	movs	r4, #0
    10ca:	465e      	mov	r6, fp
    10cc:	4684      	mov	ip, r0
    10ce:	9f0a      	ldr	r7, [sp, #40]	; 0x28
    10d0:	980b      	ldr	r0, [sp, #44]	; 0x2c
    10d2:	003b      	movs	r3, r7
    10d4:	2100      	movs	r1, #0
    10d6:	881a      	ldrh	r2, [r3, #0]
    10d8:	3101      	adds	r1, #1
    10da:	1b92      	subs	r2, r2, r6
    10dc:	801a      	strh	r2, [r3, #0]
    10de:	3302      	adds	r3, #2
    10e0:	42a9      	cmp	r1, r5
    10e2:	d3f8      	bcc.n	0x10d6
    10e4:	3401      	adds	r4, #1
    10e6:	183f      	adds	r7, r7, r0
    10e8:	42ac      	cmp	r4, r5
    10ea:	d3f2      	bcc.n	0x10d2
    10ec:	4660      	mov	r0, ip
    10ee:	0400      	lsls	r0, r0, #16
    10f0:	1400      	asrs	r0, r0, #16
    10f2:	b00d      	add	sp, #52	; 0x34
    10f4:	bc3c      	pop	{r2, r3, r4, r5}
    10f6:	4690      	mov	r8, r2
    10f8:	4699      	mov	r9, r3
    10fa:	46a2      	mov	sl, r4
    10fc:	46ab      	mov	fp, r5
    10fe:	bcf0      	pop	{r4, r5, r6, r7}
    1100:	bc02      	pop	{r1}
    1102:	4708      	bx	r1
    1104:	2100      	movs	r1, #0
    1106:	2000      	movs	r0, #0
    1108:	f000 fabe 	bl	0x1688
    110c:	0004      	movs	r4, r0
    110e:	9f08      	ldr	r7, [sp, #32]
    1110:	9e07      	ldr	r6, [sp, #28]
    1112:	9d06      	ldr	r5, [sp, #24]
    1114:	003b      	movs	r3, r7
    1116:	0032      	movs	r2, r6
    1118:	0029      	movs	r1, r5
    111a:	2000      	movs	r0, #0
    111c:	f7ff fd96 	bl	0xc4c
    1120:	0021      	movs	r1, r4
    1122:	2000      	movs	r0, #0
    1124:	f000 fab0 	bl	0x1688
    1128:	0004      	movs	r4, r0
    112a:	003b      	movs	r3, r7
    112c:	0032      	movs	r2, r6
    112e:	0029      	movs	r1, r5
    1130:	2000      	movs	r0, #0
    1132:	f7ff fdad 	bl	0xc90
    1136:	0021      	movs	r1, r4
    1138:	2000      	movs	r0, #0
    113a:	f000 faa5 	bl	0x1688
    113e:	0004      	movs	r4, r0
    1140:	0029      	movs	r1, r5
    1142:	003b      	movs	r3, r7
    1144:	0032      	movs	r2, r6
    1146:	2000      	movs	r0, #0
    1148:	f7ff fdf4 	bl	0xd34
    114c:	0021      	movs	r1, r4
    114e:	2000      	movs	r0, #0
    1150:	f000 fa9a 	bl	0x1688
    1154:	e7cb      	b.n	0x10ee
    1156:	46c0      	nop			; (mov r8, r8)
    1158:	f000 ffff 	bl	0x215a
    115c:	b530      	push	{r4, r5, lr}
    115e:	000d      	movs	r5, r1
    1160:	0014      	movs	r4, r2
    1162:	b083      	sub	sp, #12
    1164:	6883      	ldr	r3, [r0, #8]
    1166:	6842      	ldr	r2, [r0, #4]
    1168:	68c1      	ldr	r1, [r0, #12]
    116a:	6800      	ldr	r0, [r0, #0]
    116c:	9500      	str	r5, [sp, #0]
    116e:	f7ff fe39 	bl	0xde4
    1172:	0021      	movs	r1, r4
    1174:	f000 fa88 	bl	0x1688
    1178:	b003      	add	sp, #12
    117a:	bc30      	pop	{r4, r5}
    117c:	bc02      	pop	{r1}
    117e:	4708      	bx	r1
    1180:	2200      	movs	r2, #0
    1182:	4b01      	ldr	r3, [pc, #4]	; (0x1188)
    1184:	601a      	str	r2, [r3, #0]
    1186:	4770      	bx	lr
    1188:	0860      	lsrs	r0, r4, #1
    118a:	0300      	lsls	r0, r0, #12
    118c:	2200      	movs	r2, #0
    118e:	4b01      	ldr	r3, [pc, #4]	; (0x1194)
    1190:	601a      	str	r2, [r3, #0]
    1192:	4770      	bx	lr
    1194:	0864      	lsrs	r4, r4, #1
    1196:	0300      	lsls	r0, r0, #12
    1198:	4b02      	ldr	r3, [pc, #8]	; (0x11a4)
    119a:	6818      	ldr	r0, [r3, #0]
    119c:	4b02      	ldr	r3, [pc, #8]	; (0x11a8)
    119e:	681b      	ldr	r3, [r3, #0]
    11a0:	1ac0      	subs	r0, r0, r3
    11a2:	4770      	bx	lr
    11a4:	0864      	lsrs	r4, r4, #1
    11a6:	0300      	lsls	r0, r0, #12
    11a8:	0860      	lsrs	r0, r4, #1
    11aa:	0300      	lsls	r0, r0, #12
    11ac:	4770      	bx	lr
    11ae:	46c0      	nop			; (mov r8, r8)
    11b0:	2301      	movs	r3, #1
    11b2:	7003      	strb	r3, [r0, #0]
    11b4:	4770      	bx	lr
    11b6:	46c0      	nop			; (mov r8, r8)
    11b8:	2300      	movs	r3, #0
    11ba:	7003      	strb	r3, [r0, #0]
    11bc:	4770      	bx	lr
    11be:	46c0      	nop			; (mov r8, r8)
    11c0:	0003      	movs	r3, r0
    11c2:	b5f0      	push	{r4, r5, r6, r7, lr}
    11c4:	464e      	mov	r6, r9
    11c6:	4645      	mov	r5, r8
    11c8:	46de      	mov	lr, fp
    11ca:	4657      	mov	r7, sl
    11cc:	3b01      	subs	r3, #1
    11ce:	4698      	mov	r8, r3
    11d0:	b5e0      	push	{r5, r6, r7, lr}
    11d2:	2303      	movs	r3, #3
    11d4:	b083      	sub	sp, #12
    11d6:	9001      	str	r0, [sp, #4]
    11d8:	2400      	movs	r4, #0
    11da:	2000      	movs	r0, #0
    11dc:	4694      	mov	ip, r2
    11de:	4642      	mov	r2, r8
    11e0:	469a      	mov	sl, r3
    11e2:	3304      	adds	r3, #4
    11e4:	4699      	mov	r9, r3
    11e6:	4b30      	ldr	r3, [pc, #192]	; (0x12a8)
    11e8:	3101      	adds	r1, #1
    11ea:	469b      	mov	fp, r3
    11ec:	1823      	adds	r3, r4, r0
    11ee:	0409      	lsls	r1, r1, #16
    11f0:	1c5d      	adds	r5, r3, #1
    11f2:	0c09      	lsrs	r1, r1, #16
    11f4:	2600      	movs	r6, #0
    11f6:	4698      	mov	r8, r3
    11f8:	4295      	cmp	r5, r2
    11fa:	d21f      	bcs.n	0x123c
    11fc:	2800      	cmp	r0, #0
    11fe:	d140      	bne.n	0x1282
    1200:	4650      	mov	r0, sl
    1202:	040b      	lsls	r3, r1, #16
    1204:	141b      	asrs	r3, r3, #16
    1206:	10db      	asrs	r3, r3, #3
    1208:	4018      	ands	r0, r3
    120a:	464b      	mov	r3, r9
    120c:	400b      	ands	r3, r1
    120e:	3b03      	subs	r3, #3
    1210:	041b      	lsls	r3, r3, #16
    1212:	0c1b      	lsrs	r3, r3, #16
    1214:	2b04      	cmp	r3, #4
    1216:	d841      	bhi.n	0x129c
    1218:	465d      	mov	r5, fp
    121a:	009b      	lsls	r3, r3, #2
    121c:	58eb      	ldr	r3, [r5, r3]
    121e:	469f      	mov	pc, r3
    1220:	0083      	lsls	r3, r0, #2
    1222:	4822      	ldr	r0, [pc, #136]	; (0x12ac)
    1224:	4680      	mov	r8, r0
    1226:	2008      	movs	r0, #8
    1228:	4443      	add	r3, r8
    122a:	691e      	ldr	r6, [r3, #16]
    122c:	1823      	adds	r3, r4, r0
    122e:	3101      	adds	r1, #1
    1230:	0409      	lsls	r1, r1, #16
    1232:	1c5d      	adds	r5, r3, #1
    1234:	0c09      	lsrs	r1, r1, #16
    1236:	4698      	mov	r8, r3
    1238:	4295      	cmp	r5, r2
    123a:	d3df      	bcc.n	0x11fc
    123c:	9801      	ldr	r0, [sp, #4]
    123e:	4663      	mov	r3, ip
    1240:	0002      	movs	r2, r0
    1242:	191b      	adds	r3, r3, r4
    1244:	4462      	add	r2, ip
    1246:	2100      	movs	r1, #0
    1248:	4284      	cmp	r4, r0
    124a:	d203      	bcs.n	0x1254
    124c:	7019      	strb	r1, [r3, #0]
    124e:	3301      	adds	r3, #1
    1250:	429a      	cmp	r2, r3
    1252:	d1fb      	bne.n	0x124c
    1254:	b003      	add	sp, #12
    1256:	bc3c      	pop	{r2, r3, r4, r5}
    1258:	4690      	mov	r8, r2
    125a:	4699      	mov	r9, r3
    125c:	46a2      	mov	sl, r4
    125e:	46ab      	mov	fp, r5
    1260:	bcf0      	pop	{r4, r5, r6, r7}
    1262:	bc01      	pop	{r0}
    1264:	4700      	bx	r0
    1266:	0083      	lsls	r3, r0, #2
    1268:	4810      	ldr	r0, [pc, #64]	; (0x12ac)
    126a:	4680      	mov	r8, r0
    126c:	4443      	add	r3, r8
    126e:	6a1e      	ldr	r6, [r3, #32]
    1270:	2008      	movs	r0, #8
    1272:	e7db      	b.n	0x122c
    1274:	0083      	lsls	r3, r0, #2
    1276:	480d      	ldr	r0, [pc, #52]	; (0x12ac)
    1278:	4680      	mov	r8, r0
    127a:	4443      	add	r3, r8
    127c:	6b1e      	ldr	r6, [r3, #48]	; 0x30
    127e:	2008      	movs	r0, #8
    1280:	e7d4      	b.n	0x122c
    1282:	2300      	movs	r3, #0
    1284:	4464      	add	r4, ip
    1286:	5cf7      	ldrb	r7, [r6, r3]
    1288:	54e7      	strb	r7, [r4, r3]
    128a:	3301      	adds	r3, #1
    128c:	4298      	cmp	r0, r3
    128e:	d1fa      	bne.n	0x1286
    1290:	242c      	movs	r4, #44	; 0x2c
    1292:	4663      	mov	r3, ip
    1294:	4640      	mov	r0, r8
    1296:	541c      	strb	r4, [r3, r0]
    1298:	002c      	movs	r4, r5
    129a:	e7b1      	b.n	0x1200
    129c:	4b03      	ldr	r3, [pc, #12]	; (0x12ac)
    129e:	0080      	lsls	r0, r0, #2
    12a0:	58c6      	ldr	r6, [r0, r3]
    12a2:	2004      	movs	r0, #4
    12a4:	e7c2      	b.n	0x122c
    12a6:	46c0      	nop			; (mov r8, r8)
    12a8:	1f80      	subs	r0, r0, #6
    12aa:	0800      	lsrs	r0, r0, #32
    12ac:	1f94      	subs	r4, r2, #6
    12ae:	0800      	lsrs	r0, r0, #32
    12b0:	b5f0      	push	{r4, r5, r6, r7, lr}
    12b2:	6803      	ldr	r3, [r0, #0]
    12b4:	781d      	ldrb	r5, [r3, #0]
    12b6:	2d00      	cmp	r5, #0
    12b8:	d100      	bne.n	0x12bc
    12ba:	e0db      	b.n	0x1474
    12bc:	1c5c      	adds	r4, r3, #1
    12be:	2d2c      	cmp	r5, #44	; 0x2c
    12c0:	d100      	bne.n	0x12c4
    12c2:	e0d0      	b.n	0x1466
    12c4:	680a      	ldr	r2, [r1, #0]
    12c6:	1c56      	adds	r6, r2, #1
    12c8:	002a      	movs	r2, r5
    12ca:	3a30      	subs	r2, #48	; 0x30
    12cc:	0612      	lsls	r2, r2, #24
    12ce:	0e12      	lsrs	r2, r2, #24
    12d0:	2a09      	cmp	r2, #9
    12d2:	d860      	bhi.n	0x1396
    12d4:	600e      	str	r6, [r1, #0]
    12d6:	785a      	ldrb	r2, [r3, #1]
    12d8:	2a00      	cmp	r2, #0
    12da:	d100      	bne.n	0x12de
    12dc:	e091      	b.n	0x1402
    12de:	3302      	adds	r3, #2
    12e0:	2a2c      	cmp	r2, #44	; 0x2c
    12e2:	d100      	bne.n	0x12e6
    12e4:	e08c      	b.n	0x1400
    12e6:	2a2e      	cmp	r2, #46	; 0x2e
    12e8:	d010      	beq.n	0x130c
    12ea:	3a30      	subs	r2, #48	; 0x30
    12ec:	0612      	lsls	r2, r2, #24
    12ee:	0e12      	lsrs	r2, r2, #24
    12f0:	2a09      	cmp	r2, #9
    12f2:	d86b      	bhi.n	0x13cc
    12f4:	7862      	ldrb	r2, [r4, #1]
    12f6:	2a00      	cmp	r2, #0
    12f8:	d100      	bne.n	0x12fc
    12fa:	e081      	b.n	0x1400
    12fc:	1c5d      	adds	r5, r3, #1
    12fe:	001c      	movs	r4, r3
    1300:	2a2c      	cmp	r2, #44	; 0x2c
    1302:	d100      	bne.n	0x1306
    1304:	e0c6      	b.n	0x1494
    1306:	002b      	movs	r3, r5
    1308:	2a2e      	cmp	r2, #46	; 0x2e
    130a:	d1ee      	bne.n	0x12ea
    130c:	690a      	ldr	r2, [r1, #16]
    130e:	3201      	adds	r2, #1
    1310:	610a      	str	r2, [r1, #16]
    1312:	7862      	ldrb	r2, [r4, #1]
    1314:	2a00      	cmp	r2, #0
    1316:	d100      	bne.n	0x131a
    1318:	e0af      	b.n	0x147a
    131a:	1c5d      	adds	r5, r3, #1
    131c:	2a2c      	cmp	r2, #44	; 0x2c
    131e:	d100      	bne.n	0x1322
    1320:	e09e      	b.n	0x1460
    1322:	2620      	movs	r6, #32
    1324:	0014      	movs	r4, r2
    1326:	43b4      	bics	r4, r6
    1328:	2c45      	cmp	r4, #69	; 0x45
    132a:	d16c      	bne.n	0x1406
    132c:	694a      	ldr	r2, [r1, #20]
    132e:	3201      	adds	r2, #1
    1330:	614a      	str	r2, [r1, #20]
    1332:	785b      	ldrb	r3, [r3, #1]
    1334:	2b00      	cmp	r3, #0
    1336:	d100      	bne.n	0x133a
    1338:	e0a2      	b.n	0x1480
    133a:	1c6c      	adds	r4, r5, #1
    133c:	2b2c      	cmp	r3, #44	; 0x2c
    133e:	d100      	bne.n	0x1342
    1340:	e0a4      	b.n	0x148c
    1342:	26fd      	movs	r6, #253	; 0xfd
    1344:	68ca      	ldr	r2, [r1, #12]
    1346:	3b2b      	subs	r3, #43	; 0x2b
    1348:	3201      	adds	r2, #1
    134a:	60ca      	str	r2, [r1, #12]
    134c:	4233      	tst	r3, r6
    134e:	d120      	bne.n	0x1392
    1350:	786a      	ldrb	r2, [r5, #1]
    1352:	2a00      	cmp	r2, #0
    1354:	d100      	bne.n	0x1358
    1356:	e08b      	b.n	0x1470
    1358:	1cac      	adds	r4, r5, #2
    135a:	2a2c      	cmp	r2, #44	; 0x2c
    135c:	d100      	bne.n	0x1360
    135e:	e087      	b.n	0x1470
    1360:	698b      	ldr	r3, [r1, #24]
    1362:	3a30      	subs	r2, #48	; 0x30
    1364:	3301      	adds	r3, #1
    1366:	0612      	lsls	r2, r2, #24
    1368:	0e12      	lsrs	r2, r2, #24
    136a:	618b      	str	r3, [r1, #24]
    136c:	2a09      	cmp	r2, #9
    136e:	d810      	bhi.n	0x1392
    1370:	78aa      	ldrb	r2, [r5, #2]
    1372:	2a00      	cmp	r2, #0
    1374:	d100      	bne.n	0x1378
    1376:	e079      	b.n	0x146c
    1378:	1ceb      	adds	r3, r5, #3
    137a:	2a2c      	cmp	r2, #44	; 0x2c
    137c:	d100      	bne.n	0x1380
    137e:	e074      	b.n	0x146a
    1380:	3a30      	subs	r2, #48	; 0x30
    1382:	0612      	lsls	r2, r2, #24
    1384:	0e12      	lsrs	r2, r2, #24
    1386:	2a09      	cmp	r2, #9
    1388:	d948      	bls.n	0x141c
    138a:	001c      	movs	r4, r3
    138c:	684a      	ldr	r2, [r1, #4]
    138e:	3201      	adds	r2, #1
    1390:	604a      	str	r2, [r1, #4]
    1392:	2301      	movs	r3, #1
    1394:	e01f      	b.n	0x13d6
    1396:	002a      	movs	r2, r5
    1398:	27fd      	movs	r7, #253	; 0xfd
    139a:	3a2b      	subs	r2, #43	; 0x2b
    139c:	423a      	tst	r2, r7
    139e:	d11f      	bne.n	0x13e0
    13a0:	600e      	str	r6, [r1, #0]
    13a2:	785e      	ldrb	r6, [r3, #1]
    13a4:	2e00      	cmp	r6, #0
    13a6:	d100      	bne.n	0x13aa
    13a8:	e072      	b.n	0x1490
    13aa:	1c9c      	adds	r4, r3, #2
    13ac:	2e2c      	cmp	r6, #44	; 0x2c
    13ae:	d100      	bne.n	0x13b2
    13b0:	e06e      	b.n	0x1490
    13b2:	688a      	ldr	r2, [r1, #8]
    13b4:	1c55      	adds	r5, r2, #1
    13b6:	0032      	movs	r2, r6
    13b8:	3a30      	subs	r2, #48	; 0x30
    13ba:	0612      	lsls	r2, r2, #24
    13bc:	0e12      	lsrs	r2, r2, #24
    13be:	2a09      	cmp	r2, #9
    13c0:	d916      	bls.n	0x13f0
    13c2:	2e2e      	cmp	r6, #46	; 0x2e
    13c4:	d045      	beq.n	0x1452
    13c6:	608d      	str	r5, [r1, #8]
    13c8:	2301      	movs	r3, #1
    13ca:	e004      	b.n	0x13d6
    13cc:	001c      	movs	r4, r3
    13ce:	2301      	movs	r3, #1
    13d0:	690a      	ldr	r2, [r1, #16]
    13d2:	3201      	adds	r2, #1
    13d4:	610a      	str	r2, [r1, #16]
    13d6:	6004      	str	r4, [r0, #0]
    13d8:	0018      	movs	r0, r3
    13da:	bcf0      	pop	{r4, r5, r6, r7}
    13dc:	bc02      	pop	{r1}
    13de:	4708      	bx	r1
    13e0:	2d2e      	cmp	r5, #46	; 0x2e
    13e2:	d02d      	beq.n	0x1440
    13e4:	684b      	ldr	r3, [r1, #4]
    13e6:	3301      	adds	r3, #1
    13e8:	604b      	str	r3, [r1, #4]
    13ea:	600e      	str	r6, [r1, #0]
    13ec:	2301      	movs	r3, #1
    13ee:	e7f2      	b.n	0x13d6
    13f0:	608d      	str	r5, [r1, #8]
    13f2:	789a      	ldrb	r2, [r3, #2]
    13f4:	2a00      	cmp	r2, #0
    13f6:	d004      	beq.n	0x1402
    13f8:	3303      	adds	r3, #3
    13fa:	2a2c      	cmp	r2, #44	; 0x2c
    13fc:	d000      	beq.n	0x1400
    13fe:	e772      	b.n	0x12e6
    1400:	001c      	movs	r4, r3
    1402:	2304      	movs	r3, #4
    1404:	e7e7      	b.n	0x13d6
    1406:	3a30      	subs	r2, #48	; 0x30
    1408:	0612      	lsls	r2, r2, #24
    140a:	0e12      	lsrs	r2, r2, #24
    140c:	2a09      	cmp	r2, #9
    140e:	d90e      	bls.n	0x142e
    1410:	694b      	ldr	r3, [r1, #20]
    1412:	3301      	adds	r3, #1
    1414:	614b      	str	r3, [r1, #20]
    1416:	002c      	movs	r4, r5
    1418:	2301      	movs	r3, #1
    141a:	e7dc      	b.n	0x13d6
    141c:	7862      	ldrb	r2, [r4, #1]
    141e:	2a00      	cmp	r2, #0
    1420:	d023      	beq.n	0x146a
    1422:	1c5d      	adds	r5, r3, #1
    1424:	001c      	movs	r4, r3
    1426:	2a2c      	cmp	r2, #44	; 0x2c
    1428:	d02d      	beq.n	0x1486
    142a:	002b      	movs	r3, r5
    142c:	e7a8      	b.n	0x1380
    142e:	785a      	ldrb	r2, [r3, #1]
    1430:	2a00      	cmp	r2, #0
    1432:	d015      	beq.n	0x1460
    1434:	1c6c      	adds	r4, r5, #1
    1436:	002b      	movs	r3, r5
    1438:	2a2c      	cmp	r2, #44	; 0x2c
    143a:	d01f      	beq.n	0x147c
    143c:	0025      	movs	r5, r4
    143e:	e771      	b.n	0x1324
    1440:	600e      	str	r6, [r1, #0]
    1442:	785a      	ldrb	r2, [r3, #1]
    1444:	2a00      	cmp	r2, #0
    1446:	d019      	beq.n	0x147c
    1448:	1c9d      	adds	r5, r3, #2
    144a:	2a2c      	cmp	r2, #44	; 0x2c
    144c:	d008      	beq.n	0x1460
    144e:	0023      	movs	r3, r4
    1450:	e767      	b.n	0x1322
    1452:	608d      	str	r5, [r1, #8]
    1454:	789a      	ldrb	r2, [r3, #2]
    1456:	2a00      	cmp	r2, #0
    1458:	d010      	beq.n	0x147c
    145a:	1cdd      	adds	r5, r3, #3
    145c:	2a2c      	cmp	r2, #44	; 0x2c
    145e:	d1f6      	bne.n	0x144e
    1460:	002c      	movs	r4, r5
    1462:	2305      	movs	r3, #5
    1464:	e7b7      	b.n	0x13d6
    1466:	2300      	movs	r3, #0
    1468:	e7b5      	b.n	0x13d6
    146a:	001c      	movs	r4, r3
    146c:	2307      	movs	r3, #7
    146e:	e7b2      	b.n	0x13d6
    1470:	2306      	movs	r3, #6
    1472:	e7b0      	b.n	0x13d6
    1474:	001c      	movs	r4, r3
    1476:	2300      	movs	r3, #0
    1478:	e7ad      	b.n	0x13d6
    147a:	001c      	movs	r4, r3
    147c:	2305      	movs	r3, #5
    147e:	e7aa      	b.n	0x13d6
    1480:	002c      	movs	r4, r5
    1482:	3303      	adds	r3, #3
    1484:	e7a7      	b.n	0x13d6
    1486:	002c      	movs	r4, r5
    1488:	2307      	movs	r3, #7
    148a:	e7a4      	b.n	0x13d6
    148c:	3b29      	subs	r3, #41	; 0x29
    148e:	e7a2      	b.n	0x13d6
    1490:	2302      	movs	r3, #2
    1492:	e7a0      	b.n	0x13d6
    1494:	002c      	movs	r4, r5
    1496:	2304      	movs	r3, #4
    1498:	e79d      	b.n	0x13d6
    149a:	46c0      	nop			; (mov r8, r8)
    149c:	b5f0      	push	{r4, r5, r6, r7, lr}
    149e:	4657      	mov	r7, sl
    14a0:	4645      	mov	r5, r8
    14a2:	46de      	mov	lr, fp
    14a4:	464e      	mov	r6, r9
    14a6:	b5e0      	push	{r5, r6, r7, lr}
    14a8:	b095      	sub	sp, #84	; 0x54
    14aa:	9301      	str	r3, [sp, #4]
    14ac:	ab1e      	add	r3, sp, #120	; 0x78
    14ae:	9200      	str	r2, [sp, #0]
    14b0:	2200      	movs	r2, #0
    14b2:	5e9b      	ldrsh	r3, [r3, r2]
    14b4:	469a      	mov	sl, r3
    14b6:	ab1f      	add	r3, sp, #124	; 0x7c
    14b8:	881b      	ldrh	r3, [r3, #0]
    14ba:	ad04      	add	r5, sp, #16
    14bc:	4698      	mov	r8, r3
    14be:	ab0c      	add	r3, sp, #48	; 0x30
    14c0:	000c      	movs	r4, r1
    14c2:	9103      	str	r1, [sp, #12]
    14c4:	469b      	mov	fp, r3
    14c6:	002e      	movs	r6, r5
    14c8:	0029      	movs	r1, r5
    14ca:	2200      	movs	r2, #0
    14cc:	0007      	movs	r7, r0
    14ce:	a814      	add	r0, sp, #80	; 0x50
    14d0:	c304      	stmia	r3!, {r2}
    14d2:	c104      	stmia	r1!, {r2}
    14d4:	4283      	cmp	r3, r0
    14d6:	d1fb      	bne.n	0x14d0
    14d8:	7822      	ldrb	r2, [r4, #0]
    14da:	2a00      	cmp	r2, #0
    14dc:	d05a      	beq.n	0x1594
    14de:	ab03      	add	r3, sp, #12
    14e0:	4699      	mov	r9, r3
    14e2:	a90c      	add	r1, sp, #48	; 0x30
    14e4:	4648      	mov	r0, r9
    14e6:	f7ff fee3 	bl	0x12b0
    14ea:	0080      	lsls	r0, r0, #2
    14ec:	582b      	ldr	r3, [r5, r0]
    14ee:	3301      	adds	r3, #1
    14f0:	502b      	str	r3, [r5, r0]
    14f2:	9b03      	ldr	r3, [sp, #12]
    14f4:	781b      	ldrb	r3, [r3, #0]
    14f6:	2b00      	cmp	r3, #0
    14f8:	d1f3      	bne.n	0x14e2
    14fa:	19e7      	adds	r7, r4, r7
    14fc:	7822      	ldrb	r2, [r4, #0]
    14fe:	9403      	str	r4, [sp, #12]
    1500:	42a7      	cmp	r7, r4
    1502:	d944      	bls.n	0x158e
    1504:	0023      	movs	r3, r4
    1506:	e000      	b.n	0x150a
    1508:	781a      	ldrb	r2, [r3, #0]
    150a:	2a2c      	cmp	r2, #44	; 0x2c
    150c:	d002      	beq.n	0x1514
    150e:	9900      	ldr	r1, [sp, #0]
    1510:	404a      	eors	r2, r1
    1512:	701a      	strb	r2, [r3, #0]
    1514:	9b03      	ldr	r3, [sp, #12]
    1516:	4453      	add	r3, sl
    1518:	9303      	str	r3, [sp, #12]
    151a:	42bb      	cmp	r3, r7
    151c:	d3f4      	bcc.n	0x1508
    151e:	7823      	ldrb	r3, [r4, #0]
    1520:	aa03      	add	r2, sp, #12
    1522:	9403      	str	r4, [sp, #12]
    1524:	4691      	mov	r9, r2
    1526:	2b00      	cmp	r3, #0
    1528:	d00e      	beq.n	0x1548
    152a:	a90c      	add	r1, sp, #48	; 0x30
    152c:	4648      	mov	r0, r9
    152e:	f7ff febf 	bl	0x12b0
    1532:	0080      	lsls	r0, r0, #2
    1534:	582b      	ldr	r3, [r5, r0]
    1536:	3301      	adds	r3, #1
    1538:	502b      	str	r3, [r5, r0]
    153a:	9b03      	ldr	r3, [sp, #12]
    153c:	781b      	ldrb	r3, [r3, #0]
    153e:	2b00      	cmp	r3, #0
    1540:	d1f3      	bne.n	0x152a
    1542:	9403      	str	r4, [sp, #12]
    1544:	42bc      	cmp	r4, r7
    1546:	d20b      	bcs.n	0x1560
    1548:	7823      	ldrb	r3, [r4, #0]
    154a:	2b2c      	cmp	r3, #44	; 0x2c
    154c:	d002      	beq.n	0x1554
    154e:	9a01      	ldr	r2, [sp, #4]
    1550:	4053      	eors	r3, r2
    1552:	7023      	strb	r3, [r4, #0]
    1554:	9b03      	ldr	r3, [sp, #12]
    1556:	4453      	add	r3, sl
    1558:	001c      	movs	r4, r3
    155a:	9403      	str	r4, [sp, #12]
    155c:	42bc      	cmp	r4, r7
    155e:	d3f3      	bcc.n	0x1548
    1560:	3520      	adds	r5, #32
    1562:	4641      	mov	r1, r8
    1564:	ce01      	ldmia	r6!, {r0}
    1566:	f000 f881 	bl	0x166c
    156a:	465b      	mov	r3, fp
    156c:	0001      	movs	r1, r0
    156e:	cb01      	ldmia	r3!, {r0}
    1570:	469b      	mov	fp, r3
    1572:	f000 f87b 	bl	0x166c
    1576:	4680      	mov	r8, r0
    1578:	42b5      	cmp	r5, r6
    157a:	d1f2      	bne.n	0x1562
    157c:	b015      	add	sp, #84	; 0x54
    157e:	bc3c      	pop	{r2, r3, r4, r5}
    1580:	4690      	mov	r8, r2
    1582:	4699      	mov	r9, r3
    1584:	46a2      	mov	sl, r4
    1586:	46ab      	mov	fp, r5
    1588:	bcf0      	pop	{r4, r5, r6, r7}
    158a:	bc02      	pop	{r1}
    158c:	4708      	bx	r1
    158e:	2a00      	cmp	r2, #0
    1590:	d1cb      	bne.n	0x152a
    1592:	e7e5      	b.n	0x1560
    1594:	19e7      	adds	r7, r4, r7
    1596:	9403      	str	r4, [sp, #12]
    1598:	42bc      	cmp	r4, r7
    159a:	d3b3      	bcc.n	0x1504
    159c:	e7e0      	b.n	0x1560
    159e:	46c0      	nop			; (mov r8, r8)
    15a0:	2805      	cmp	r0, #5
    15a2:	d812      	bhi.n	0x15ca
    15a4:	4b0a      	ldr	r3, [pc, #40]	; (0x15d0)
    15a6:	0080      	lsls	r0, r0, #2
    15a8:	581b      	ldr	r3, [r3, r0]
    15aa:	469f      	mov	pc, r3
    15ac:	4b09      	ldr	r3, [pc, #36]	; (0x15d4)
    15ae:	6818      	ldr	r0, [r3, #0]
    15b0:	4770      	bx	lr
    15b2:	4b09      	ldr	r3, [pc, #36]	; (0x15d8)
    15b4:	6818      	ldr	r0, [r3, #0]
    15b6:	e7fb      	b.n	0x15b0
    15b8:	4b08      	ldr	r3, [pc, #32]	; (0x15dc)
    15ba:	6818      	ldr	r0, [r3, #0]
    15bc:	e7f8      	b.n	0x15b0
    15be:	4b08      	ldr	r3, [pc, #32]	; (0x15e0)
    15c0:	6818      	ldr	r0, [r3, #0]
    15c2:	e7f5      	b.n	0x15b0
    15c4:	4b07      	ldr	r3, [pc, #28]	; (0x15e4)
    15c6:	6818      	ldr	r0, [r3, #0]
    15c8:	e7f2      	b.n	0x15b0
    15ca:	2000      	movs	r0, #0
    15cc:	e7f0      	b.n	0x15b0
    15ce:	46c0      	nop			; (mov r8, r8)
    15d0:	1fd4      	subs	r4, r2, #7
    15d2:	0800      	lsrs	r0, r0, #32
    15d4:	0080      	lsls	r0, r0, #2
    15d6:	0300      	lsls	r0, r0, #12
    15d8:	0088      	lsls	r0, r1, #2
    15da:	0300      	lsls	r0, r0, #12
    15dc:	0084      	lsls	r4, r0, #2
    15de:	0300      	lsls	r0, r0, #12
    15e0:	0870      	lsrs	r0, r6, #1
    15e2:	0300      	lsls	r0, r0, #12
    15e4:	086c      	lsrs	r4, r5, #1
    15e6:	0300      	lsls	r0, r0, #12
    15e8:	b530      	push	{r4, r5, lr}
    15ea:	2308      	movs	r3, #8
    15ec:	2401      	movs	r4, #1
    15ee:	4d09      	ldr	r5, [pc, #36]	; (0x1614)
    15f0:	000a      	movs	r2, r1
    15f2:	4042      	eors	r2, r0
    15f4:	0849      	lsrs	r1, r1, #1
    15f6:	0840      	lsrs	r0, r0, #1
    15f8:	4214      	tst	r4, r2
    15fa:	d002      	beq.n	0x1602
    15fc:	4069      	eors	r1, r5
    15fe:	0409      	lsls	r1, r1, #16
    1600:	0c09      	lsrs	r1, r1, #16
    1602:	3b01      	subs	r3, #1
    1604:	061b      	lsls	r3, r3, #24
    1606:	0e1b      	lsrs	r3, r3, #24
    1608:	d1f2      	bne.n	0x15f0
    160a:	0008      	movs	r0, r1
    160c:	bc30      	pop	{r4, r5}
    160e:	bc02      	pop	{r1}
    1610:	4708      	bx	r1
    1612:	46c0      	nop			; (mov r8, r8)
    1614:	a001      	add	r0, pc, #4	; (adr r0, 0x161c)
    1616:	ffff b570 	vsli.32	<illegal reg q13.5>, q8, #31
    161a:	2308      	movs	r3, #8
    161c:	2501      	movs	r5, #1
    161e:	0602      	lsls	r2, r0, #24
    1620:	4e11      	ldr	r6, [pc, #68]	; (0x1668)
    1622:	0e12      	lsrs	r2, r2, #24
    1624:	000c      	movs	r4, r1
    1626:	4054      	eors	r4, r2
    1628:	0849      	lsrs	r1, r1, #1
    162a:	0852      	lsrs	r2, r2, #1
    162c:	4225      	tst	r5, r4
    162e:	d002      	beq.n	0x1636
    1630:	4071      	eors	r1, r6
    1632:	0409      	lsls	r1, r1, #16
    1634:	0c09      	lsrs	r1, r1, #16
    1636:	3b01      	subs	r3, #1
    1638:	061b      	lsls	r3, r3, #24
    163a:	0e1b      	lsrs	r3, r3, #24
    163c:	d1f2      	bne.n	0x1624
    163e:	2401      	movs	r4, #1
    1640:	4d09      	ldr	r5, [pc, #36]	; (0x1668)
    1642:	0a02      	lsrs	r2, r0, #8
    1644:	3308      	adds	r3, #8
    1646:	0008      	movs	r0, r1
    1648:	4050      	eors	r0, r2
    164a:	0849      	lsrs	r1, r1, #1
    164c:	0852      	lsrs	r2, r2, #1
    164e:	4204      	tst	r4, r0
    1650:	d002      	beq.n	0x1658
    1652:	4069      	eors	r1, r5
    1654:	0409      	lsls	r1, r1, #16
    1656:	0c09      	lsrs	r1, r1, #16
    1658:	3b01      	subs	r3, #1
    165a:	061b      	lsls	r3, r3, #24
    165c:	0e1b      	lsrs	r3, r3, #24
    165e:	d1f2      	bne.n	0x1646
    1660:	0008      	movs	r0, r1
    1662:	bc70      	pop	{r4, r5, r6}
    1664:	bc02      	pop	{r1}
    1666:	4708      	bx	r1
    1668:	a001      	add	r0, pc, #4	; (adr r0, 0x1670)
    166a:	ffff b510 	vsli.32	d27, d0, #31
    166e:	0004      	movs	r4, r0
    1670:	0400      	lsls	r0, r0, #16
    1672:	0c00      	lsrs	r0, r0, #16
    1674:	f7ff ffd0 	bl	0x1618
    1678:	0001      	movs	r1, r0
    167a:	0c20      	lsrs	r0, r4, #16
    167c:	f7ff ffcc 	bl	0x1618
    1680:	bc10      	pop	{r4}
    1682:	bc02      	pop	{r1}
    1684:	4708      	bx	r1
    1686:	46c0      	nop			; (mov r8, r8)
    1688:	b510      	push	{r4, lr}
    168a:	0400      	lsls	r0, r0, #16
    168c:	0c00      	lsrs	r0, r0, #16
    168e:	f7ff ffc3 	bl	0x1618
    1692:	bc10      	pop	{r4}
    1694:	bc02      	pop	{r1}
    1696:	4708      	bx	r1
    1698:	2000      	movs	r0, #0
    169a:	4770      	bx	lr
    169c:	2001      	movs	r0, #1
    169e:	e251      	b.n	0x1b44
    16a0:	ff1e 012f 	vrhadd.u16	d0, d14, d31
    16a4:	0036      	movs	r6, r6
    16a6:	3a00      	subs	r2, #0
    16a8:	0001      	movs	r1, r0
    16aa:	e150      	b.n	0x194e
    16ac:	0022      	movs	r2, r4
    16ae:	9a00      	ldr	r2, [sp, #0]
    16b0:	0002      	movs	r2, r0
    16b2:	e111      	b.n	0x18d8
    16b4:	0023      	movs	r3, r4
    16b6:	0a00      	lsrs	r0, r0, #8
    16b8:	020e      	lsls	r6, r1, #8
    16ba:	e311      	b.n	0x1ce0
    16bc:	1181      	asrs	r1, r0, #6
    16be:	01a0      	lsls	r0, r4, #6
    16c0:	3008      	adds	r0, #8
    16c2:	03a0      	lsls	r0, r4, #14
    16c4:	3001      	adds	r0, #1
    16c6:	13a0      	asrs	r0, r4, #14
    16c8:	0201      	lsls	r1, r0, #8
    16ca:	e351      	b.n	0x1d70
    16cc:	0000      	movs	r0, r0
    16ce:	3151      	adds	r1, #81	; 0x51
    16d0:	1201      	asrs	r1, r0, #8
    16d2:	31a0      	adds	r1, #160	; 0xa0
    16d4:	3203      	adds	r2, #3
    16d6:	31a0      	adds	r1, #160	; 0xa0
    16d8:	fffa 3aff 			; <UNDEFINED> instruction: 0xfffa3aff
    16dc:	0102      	lsls	r2, r0, #4
    16de:	e351      	b.n	0x1d84
    16e0:	0000      	movs	r0, r0
    16e2:	3151      	adds	r1, #81	; 0x51
    16e4:	1081      	asrs	r1, r0, #2
    16e6:	31a0      	adds	r1, #160	; 0xa0
    16e8:	3083      	adds	r0, #131	; 0x83
    16ea:	31a0      	adds	r1, #160	; 0xa0
    16ec:	fffa 3aff 			; <UNDEFINED> instruction: 0xfffa3aff
    16f0:	2000      	movs	r0, #0
    16f2:	e3a0      	b.n	0x1e36
    16f4:	0001      	movs	r1, r0
    16f6:	e150      	b.n	0x199a
    16f8:	0001      	movs	r1, r0
    16fa:	2040      	movs	r0, #64	; 0x40
    16fc:	2003      	movs	r0, #3
    16fe:	2182      	movs	r1, #130	; 0x82
    1700:	00a1      	lsls	r1, r4, #2
    1702:	e150      	b.n	0x19a6
    1704:	00a1      	lsls	r1, r4, #2
    1706:	2040      	movs	r0, #64	; 0x40
    1708:	20a3      	movs	r0, #163	; 0xa3
    170a:	2182      	movs	r1, #130	; 0x82
    170c:	0121      	lsls	r1, r4, #4
    170e:	e150      	b.n	0x19b2
    1710:	0121      	lsls	r1, r4, #4
    1712:	2040      	movs	r0, #64	; 0x40
    1714:	2123      	movs	r1, #35	; 0x23
    1716:	2182      	movs	r1, #130	; 0x82
    1718:	01a1      	lsls	r1, r4, #6
    171a:	e150      	b.n	0x19be
    171c:	01a1      	lsls	r1, r4, #6
    171e:	2040      	movs	r0, #64	; 0x40
    1720:	21a3      	movs	r1, #163	; 0xa3
    1722:	2182      	movs	r1, #130	; 0x82
    1724:	0000      	movs	r0, r0
    1726:	e350      	b.n	0x1dca
    1728:	3223      	adds	r2, #35	; 0x23
    172a:	11b0      	asrs	r0, r6, #6
    172c:	1221      	asrs	r1, r4, #8
    172e:	11a0      	asrs	r0, r4, #6
    1730:	ffef 1aff 			; <UNDEFINED> instruction: 0xffef1aff
    1734:	0002      	movs	r2, r0
    1736:	e1a0      	b.n	0x1a7a
    1738:	ff1e e12f 	vrhadd.u16	d14, d14, d31
    173c:	0001      	movs	r1, r0
    173e:	03a0      	lsls	r0, r4, #14
    1740:	0000      	movs	r0, r0
    1742:	13a0      	asrs	r0, r4, #14
    1744:	ff1e e12f 	vrhadd.u16	d14, d14, d31
    1748:	0801      	lsrs	r1, r0, #32
    174a:	e351      	b.n	0x1df0
    174c:	1821      	adds	r1, r4, r0
    174e:	21a0      	movs	r1, #160	; 0xa0
    1750:	2010      	movs	r0, #16
    1752:	23a0      	movs	r3, #160	; 0xa0
    1754:	2000      	movs	r0, #0
    1756:	33a0      	adds	r3, #160	; 0xa0
    1758:	0c01      	lsrs	r1, r0, #16
    175a:	e351      	b.n	0x1e00
    175c:	1421      	asrs	r1, r4, #16
    175e:	21a0      	movs	r1, #160	; 0xa0
    1760:	2008      	movs	r0, #8
    1762:	2282      	movs	r2, #130	; 0x82
    1764:	0010      	movs	r0, r2
    1766:	e351      	b.n	0x1e0c
    1768:	1221      	asrs	r1, r4, #8
    176a:	21a0      	movs	r1, #160	; 0xa0
    176c:	2004      	movs	r0, #4
    176e:	2282      	movs	r2, #130	; 0x82
    1770:	0004      	movs	r4, r0
    1772:	e351      	b.n	0x1e18
    1774:	2003      	movs	r0, #3
    1776:	8282      	strh	r2, [r0, #20]
    1778:	20a1      	movs	r0, #161	; 0xa1
    177a:	9082      	str	r0, [sp, #520]	; 0x208
    177c:	0230      	lsls	r0, r6, #8
    177e:	e1a0      	b.n	0x1ac2
    1780:	ff1e e12f 	vrhadd.u16	d14, d14, d31
    1784:	ff1f e12f 	vrhadd.u16	d14, d15, d31
    1788:	0000      	movs	r0, r0
    178a:	e1a0      	b.n	0x1ace
    178c:	0000      	movs	r0, r0
    178e:	e350      	b.n	0x1e32
    1790:	0000      	movs	r0, r0
    1792:	13e0      	asrs	r0, r4, #15
    1794:	01e5      	lsls	r5, r4, #7
    1796:	ea00 0000 	and.w	r0, r0, r0
    179a:	e351      	b.n	0x1e40
    179c:	fff8 0aff 			; <UNDEFINED> instruction: 0xfff80aff
    17a0:	4003      	ands	r3, r0
    17a2:	e92d ffbc 	stmdb	sp!, {r2, r3, r4, r5, r7, r8, r9, sl, fp, ip, sp, lr, pc}
    17a6:	ebff 4006 			; <UNDEFINED> instruction: 0xebff4006
    17aa:	e8bd 0092 	ldmia.w	sp!, {r1, r4, r7}
    17ae:	e003      	b.n	0x17b8
    17b0:	1003      	asrs	r3, r0, #32
    17b2:	e041      	b.n	0x1838
    17b4:	ff1e e12f 	vrhadd.u16	d14, d14, d31
    17b8:	0000      	movs	r0, r0
    17ba:	e351      	b.n	0x1e60
    17bc:	0043      	lsls	r3, r0, #1
    17be:	0a00      	lsrs	r0, r0, #8
    17c0:	c001      	stmia	r0!, {r0}
    17c2:	e020      	b.n	0x1806
    17c4:	1000      	asrs	r0, r0, #32
    17c6:	4261      	negs	r1, r4
    17c8:	2001      	movs	r0, #1
    17ca:	e251      	b.n	0x1c70
    17cc:	0027      	movs	r7, r4
    17ce:	0a00      	lsrs	r0, r0, #8
    17d0:	3000      	adds	r0, #0
    17d2:	e1b0      	b.n	0x1b36
    17d4:	3000      	adds	r0, #0
    17d6:	4260      	negs	r0, r4
    17d8:	0001      	movs	r1, r0
    17da:	e153      	b.n	0x1a84
    17dc:	0026      	movs	r6, r4
    17de:	9a00      	ldr	r2, [sp, #0]
    17e0:	0002      	movs	r2, r0
    17e2:	e111      	b.n	0x1a08
    17e4:	0028      	movs	r0, r5
    17e6:	0a00      	lsrs	r0, r0, #8
    17e8:	020e      	lsls	r6, r1, #8
    17ea:	e311      	b.n	0x1e10
    17ec:	1181      	asrs	r1, r0, #6
    17ee:	01a0      	lsls	r0, r4, #6
    17f0:	2008      	movs	r0, #8
    17f2:	03a0      	lsls	r0, r4, #14
    17f4:	2001      	movs	r0, #1
    17f6:	13a0      	asrs	r0, r4, #14
    17f8:	0201      	lsls	r1, r0, #8
    17fa:	e351      	b.n	0x1ea0
    17fc:	0003      	movs	r3, r0
    17fe:	3151      	adds	r1, #81	; 0x51
    1800:	1201      	asrs	r1, r0, #8
    1802:	31a0      	adds	r1, #160	; 0xa0
    1804:	2202      	movs	r2, #2
    1806:	31a0      	adds	r1, #160	; 0xa0
    1808:	fffa 3aff 			; <UNDEFINED> instruction: 0xfffa3aff
    180c:	0102      	lsls	r2, r0, #4
    180e:	e351      	b.n	0x1eb4
    1810:	0003      	movs	r3, r0
    1812:	3151      	adds	r1, #81	; 0x51
    1814:	1081      	asrs	r1, r0, #2
    1816:	31a0      	adds	r1, #160	; 0xa0
    1818:	2082      	movs	r0, #130	; 0x82
    181a:	31a0      	adds	r1, #160	; 0xa0
    181c:	fffa 3aff 			; <UNDEFINED> instruction: 0xfffa3aff
    1820:	0000      	movs	r0, r0
    1822:	e3a0      	b.n	0x1f66
    1824:	0001      	movs	r1, r0
    1826:	e153      	b.n	0x1ad0
    1828:	3001      	adds	r0, #1
    182a:	2043      	movs	r0, #67	; 0x43
    182c:	0002      	movs	r2, r0
    182e:	2180      	movs	r1, #128	; 0x80
    1830:	00a1      	lsls	r1, r4, #2
    1832:	e153      	b.n	0x1adc
    1834:	30a1      	adds	r0, #161	; 0xa1
    1836:	2043      	movs	r0, #67	; 0x43
    1838:	00a2      	lsls	r2, r4, #2
    183a:	2180      	movs	r1, #128	; 0x80
    183c:	0121      	lsls	r1, r4, #4
    183e:	e153      	b.n	0x1ae8
    1840:	3121      	adds	r1, #33	; 0x21
    1842:	2043      	movs	r0, #67	; 0x43
    1844:	0122      	lsls	r2, r4, #4
    1846:	2180      	movs	r1, #128	; 0x80
    1848:	01a1      	lsls	r1, r4, #6
    184a:	e153      	b.n	0x1af4
    184c:	31a1      	adds	r1, #161	; 0xa1
    184e:	2043      	movs	r0, #67	; 0x43
    1850:	01a2      	lsls	r2, r4, #6
    1852:	2180      	movs	r1, #128	; 0x80
    1854:	0000      	movs	r0, r0
    1856:	e353      	b.n	0x1f00
    1858:	2222      	movs	r2, #34	; 0x22
    185a:	11b0      	asrs	r0, r6, #6
    185c:	1221      	asrs	r1, r4, #8
    185e:	11a0      	asrs	r0, r4, #6
    1860:	ffef 1aff 			; <UNDEFINED> instruction: 0xffef1aff
    1864:	0000      	movs	r0, r0
    1866:	e35c      	b.n	0x1f22
    1868:	0000      	movs	r0, r0
    186a:	4260      	negs	r0, r4
    186c:	ff1e e12f 	vrhadd.u16	d14, d14, d31
    1870:	0000      	movs	r0, r0
    1872:	e13c      	b.n	0x1aee
    1874:	0000      	movs	r0, r0
    1876:	4260      	negs	r0, r4
    1878:	ff1e e12f 	vrhadd.u16	d14, d14, d31
    187c:	0000      	movs	r0, r0
    187e:	33a0      	adds	r3, #160	; 0xa0
    1880:	0fcc      	lsrs	r4, r1, #31
    1882:	01a0      	lsls	r0, r4, #6
    1884:	0001      	movs	r1, r0
    1886:	0380      	lsls	r0, r0, #14
    1888:	ff1e e12f 	vrhadd.u16	d14, d14, d31
    188c:	0801      	lsrs	r1, r0, #32
    188e:	e351      	b.n	0x1f34
    1890:	1821      	adds	r1, r4, r0
    1892:	21a0      	movs	r1, #160	; 0xa0
    1894:	2010      	movs	r0, #16
    1896:	23a0      	movs	r3, #160	; 0xa0
    1898:	2000      	movs	r0, #0
    189a:	33a0      	adds	r3, #160	; 0xa0
    189c:	0c01      	lsrs	r1, r0, #16
    189e:	e351      	b.n	0x1f44
    18a0:	1421      	asrs	r1, r4, #16
    18a2:	21a0      	movs	r1, #160	; 0xa0
    18a4:	2008      	movs	r0, #8
    18a6:	2282      	movs	r2, #130	; 0x82
    18a8:	0010      	movs	r0, r2
    18aa:	e351      	b.n	0x1f50
    18ac:	1221      	asrs	r1, r4, #8
    18ae:	21a0      	movs	r1, #160	; 0xa0
    18b0:	2004      	movs	r0, #4
    18b2:	2282      	movs	r2, #130	; 0x82
    18b4:	0004      	movs	r4, r0
    18b6:	e351      	b.n	0x1f5c
    18b8:	2003      	movs	r0, #3
    18ba:	8282      	strh	r2, [r0, #20]
    18bc:	20a1      	movs	r0, #161	; 0xa1
    18be:	9082      	str	r0, [sp, #520]	; 0x208
    18c0:	0000      	movs	r0, r0
    18c2:	e35c      	b.n	0x1f7e
    18c4:	0233      	lsls	r3, r6, #8
    18c6:	e1a0      	b.n	0x1c0a
    18c8:	0000      	movs	r0, r0
    18ca:	4260      	negs	r0, r4
    18cc:	ff1e e12f 	vrhadd.u16	d14, d14, d31
    18d0:	ff1f e12f 	vrhadd.u16	d14, d15, d31
    18d4:	0000      	movs	r0, r0
    18d6:	e1a0      	b.n	0x1c1a
    18d8:	0000      	movs	r0, r0
    18da:	e350      	b.n	0x1f7e
    18dc:	0102      	lsls	r2, r0, #4
    18de:	c3e0      	stmia	r3!, {r5, r6, r7}
    18e0:	0102      	lsls	r2, r0, #4
    18e2:	b3a0      	cbz	r0, 0x194e
    18e4:	0191      	lsls	r1, r2, #6
    18e6:	ea00 0000 	and.w	r0, r0, r0
    18ea:	e351      	b.n	0x1f90
    18ec:	fff7 0aff 			; <UNDEFINED> instruction: 0xfff70aff
    18f0:	4003      	ands	r3, r0
    18f2:	e92d ffb1 	stmdb	sp!, {r0, r4, r5, r7, r8, r9, sl, fp, ip, sp, lr, pc}
    18f6:	ebff 4006 			; <UNDEFINED> instruction: 0xebff4006
    18fa:	e8bd 0092 	ldmia.w	sp!, {r1, r4, r7}
    18fe:	e003      	b.n	0x1908
    1900:	1003      	asrs	r3, r0, #32
    1902:	e041      	b.n	0x1988
    1904:	ff1e e12f 	vrhadd.u16	d14, d14, d31
    1908:	4770      	bx	lr
    190a:	46c0      	nop			; (mov r8, r8)
    190c:	4806      	ldr	r0, [pc, #24]	; (0x1928)
    190e:	4b07      	ldr	r3, [pc, #28]	; (0x192c)
    1910:	b510      	push	{r4, lr}
    1912:	4283      	cmp	r3, r0
    1914:	d004      	beq.n	0x1920
    1916:	4b06      	ldr	r3, [pc, #24]	; (0x1930)
    1918:	2b00      	cmp	r3, #0
    191a:	d001      	beq.n	0x1920
    191c:	f000 f80a 	bl	0x1934
    1920:	bc10      	pop	{r4}
    1922:	bc01      	pop	{r0}
    1924:	4700      	bx	r0
    1926:	46c0      	nop			; (mov r8, r8)
    1928:	0874      	lsrs	r4, r6, #1
    192a:	0300      	lsls	r0, r0, #12
    192c:	0874      	lsrs	r4, r6, #1
    192e:	0300      	lsls	r0, r0, #12
    1930:	0000      	movs	r0, r0
    1932:	0000      	movs	r0, r0
    1934:	4718      	bx	r3
    1936:	46c0      	nop			; (mov r8, r8)
    1938:	4808      	ldr	r0, [pc, #32]	; (0x195c)
    193a:	4909      	ldr	r1, [pc, #36]	; (0x1960)
    193c:	1a09      	subs	r1, r1, r0
    193e:	1089      	asrs	r1, r1, #2
    1940:	0fcb      	lsrs	r3, r1, #31
    1942:	1859      	adds	r1, r3, r1
    1944:	b510      	push	{r4, lr}
    1946:	1049      	asrs	r1, r1, #1
    1948:	d004      	beq.n	0x1954
    194a:	4b06      	ldr	r3, [pc, #24]	; (0x1964)
    194c:	2b00      	cmp	r3, #0
    194e:	d001      	beq.n	0x1954
    1950:	f000 f80a 	bl	0x1968
    1954:	bc10      	pop	{r4}
    1956:	bc01      	pop	{r0}
    1958:	4700      	bx	r0
    195a:	46c0      	nop			; (mov r8, r8)
    195c:	0874      	lsrs	r4, r6, #1
    195e:	0300      	lsls	r0, r0, #12
    1960:	0874      	lsrs	r4, r6, #1
    1962:	0300      	lsls	r0, r0, #12
    1964:	0000      	movs	r0, r0
    1966:	0000      	movs	r0, r0
    1968:	4718      	bx	r3
    196a:	46c0      	nop			; (mov r8, r8)
    196c:	b510      	push	{r4, lr}
    196e:	4c08      	ldr	r4, [pc, #32]	; (0x1990)
    1970:	7823      	ldrb	r3, [r4, #0]
    1972:	2b00      	cmp	r3, #0
    1974:	d109      	bne.n	0x198a
    1976:	f7ff ffc9 	bl	0x190c
    197a:	4b06      	ldr	r3, [pc, #24]	; (0x1994)
    197c:	2b00      	cmp	r3, #0
    197e:	d002      	beq.n	0x1986
    1980:	4805      	ldr	r0, [pc, #20]	; (0x1998)
    1982:	e000      	b.n	0x1986
    1984:	bf00      	nop
    1986:	2301      	movs	r3, #1
    1988:	7023      	strb	r3, [r4, #0]
    198a:	bc10      	pop	{r4}
    198c:	bc01      	pop	{r0}
    198e:	4700      	bx	r0
    1990:	0000      	movs	r0, r0
    1992:	0300      	lsls	r0, r0, #12
    1994:	0000      	movs	r0, r0
    1996:	0000      	movs	r0, r0
    1998:	2468      	movs	r4, #104	; 0x68
    199a:	0800      	lsrs	r0, r0, #32
    199c:	4b06      	ldr	r3, [pc, #24]	; (0x19b8)
    199e:	b510      	push	{r4, lr}
    19a0:	2b00      	cmp	r3, #0
    19a2:	d003      	beq.n	0x19ac
    19a4:	4905      	ldr	r1, [pc, #20]	; (0x19bc)
    19a6:	4806      	ldr	r0, [pc, #24]	; (0x19c0)
    19a8:	e000      	b.n	0x19ac
    19aa:	bf00      	nop
    19ac:	f7ff ffc4 	bl	0x1938
    19b0:	bc10      	pop	{r4}
    19b2:	bc01      	pop	{r0}
    19b4:	4700      	bx	r0
    19b6:	46c0      	nop			; (mov r8, r8)
    19b8:	0000      	movs	r0, r0
    19ba:	0000      	movs	r0, r0
    19bc:	0004      	movs	r4, r0
    19be:	0300      	lsls	r0, r0, #12
    19c0:	2468      	movs	r4, #104	; 0x68
    19c2:	0800      	lsrs	r0, r0, #32
    19c4:	b5f0      	push	{r4, r5, r6, r7, lr}
    19c6:	46de      	mov	lr, fp
    19c8:	4645      	mov	r5, r8
    19ca:	4657      	mov	r7, sl
    19cc:	464e      	mov	r6, r9
    19ce:	b5e0      	push	{r5, r6, r7, lr}
    19d0:	000d      	movs	r5, r1
    19d2:	21fa      	movs	r1, #250	; 0xfa
    19d4:	b097      	sub	sp, #92	; 0x5c
    19d6:	9003      	str	r0, [sp, #12]
    19d8:	0089      	lsls	r1, r1, #2
    19da:	48a0      	ldr	r0, [pc, #640]	; (0x1c5c)
    19dc:	f7fe feda 	bl	0x794
    19e0:	a802      	add	r0, sp, #8
    19e2:	4684      	mov	ip, r0
    19e4:	234e      	movs	r3, #78	; 0x4e
    19e6:	4463      	add	r3, ip
    19e8:	0018      	movs	r0, r3
    19ea:	002a      	movs	r2, r5
    19ec:	a903      	add	r1, sp, #12
    19ee:	f7ff fbdf 	bl	0x11b0
    19f2:	2001      	movs	r0, #1
    19f4:	f7ff fdd4 	bl	0x15a0
    19f8:	ac05      	add	r4, sp, #20
    19fa:	8020      	strh	r0, [r4, #0]
    19fc:	2002      	movs	r0, #2
    19fe:	f7ff fdcf 	bl	0x15a0
    1a02:	8060      	strh	r0, [r4, #2]
    1a04:	2003      	movs	r0, #3
    1a06:	f7ff fdcb 	bl	0x15a0
    1a0a:	80a0      	strh	r0, [r4, #4]
    1a0c:	2004      	movs	r0, #4
    1a0e:	f7ff fdc7 	bl	0x15a0
    1a12:	61e0      	str	r0, [r4, #28]
    1a14:	2005      	movs	r0, #5
    1a16:	f7ff fdc3 	bl	0x15a0
    1a1a:	2800      	cmp	r0, #0
    1a1c:	d100      	bne.n	0x1a20
    1a1e:	e1ce      	b.n	0x1dbe
    1a20:	6220      	str	r0, [r4, #32]
    1a22:	9b05      	ldr	r3, [sp, #20]
    1a24:	2b00      	cmp	r3, #0
    1a26:	d000      	beq.n	0x1a2a
    1a28:	e1ea      	b.n	0x1e00
    1a2a:	2204      	movs	r2, #4
    1a2c:	5ea3      	ldrsh	r3, [r4, r2]
    1a2e:	2b00      	cmp	r3, #0
    1a30:	d100      	bne.n	0x1a34
    1a32:	e1ef      	b.n	0x1e14
    1a34:	4b8a      	ldr	r3, [pc, #552]	; (0x1c60)
    1a36:	2601      	movs	r6, #1
    1a38:	60a3      	str	r3, [r4, #8]
    1a3a:	2200      	movs	r2, #0
    1a3c:	2340      	movs	r3, #64	; 0x40
    1a3e:	6a25      	ldr	r5, [r4, #32]
    1a40:	402e      	ands	r6, r5
    1a42:	52e2      	strh	r2, [r4, r3]
    1a44:	0031      	movs	r1, r6
    1a46:	07ab      	lsls	r3, r5, #30
    1a48:	d500      	bpl.n	0x1a4c
    1a4a:	3101      	adds	r1, #1
    1a4c:	076b      	lsls	r3, r5, #29
    1a4e:	d502      	bpl.n	0x1a56
    1a50:	3101      	adds	r1, #1
    1a52:	0409      	lsls	r1, r1, #16
    1a54:	0c09      	lsrs	r1, r1, #16
    1a56:	20fa      	movs	r0, #250	; 0xfa
    1a58:	00c0      	lsls	r0, r0, #3
    1a5a:	f000 fa61 	bl	0x1f20
    1a5e:	2101      	movs	r1, #1
    1a60:	2300      	movs	r3, #0
    1a62:	2200      	movs	r2, #0
    1a64:	468a      	mov	sl, r1
    1a66:	61a0      	str	r0, [r4, #24]
    1a68:	4651      	mov	r1, sl
    1a6a:	4099      	lsls	r1, r3
    1a6c:	420d      	tst	r5, r1
    1a6e:	d000      	beq.n	0x1a72
    1a70:	e0e4      	b.n	0x1c3c
    1a72:	3301      	adds	r3, #1
    1a74:	2b03      	cmp	r3, #3
    1a76:	d1f7      	bne.n	0x1a68
    1a78:	2e00      	cmp	r6, #0
    1a7a:	d000      	beq.n	0x1a7e
    1a7c:	e0d6      	b.n	0x1c2c
    1a7e:	07ab      	lsls	r3, r5, #30
    1a80:	d500      	bpl.n	0x1a84
    1a82:	e0c6      	b.n	0x1c12
    1a84:	076b      	lsls	r3, r5, #29
    1a86:	d505      	bpl.n	0x1a94
    1a88:	2300      	movs	r3, #0
    1a8a:	5ee1      	ldrsh	r1, [r4, r3]
    1a8c:	6962      	ldr	r2, [r4, #20]
    1a8e:	69a0      	ldr	r0, [r4, #24]
    1a90:	f7ff fb96 	bl	0x11c0
    1a94:	69e3      	ldr	r3, [r4, #28]
    1a96:	2b00      	cmp	r3, #0
    1a98:	d11b      	bne.n	0x1ad2
    1a9a:	3301      	adds	r3, #1
    1a9c:	61e3      	str	r3, [r4, #28]
    1a9e:	69e2      	ldr	r2, [r4, #28]
    1aa0:	0093      	lsls	r3, r2, #2
    1aa2:	189b      	adds	r3, r3, r2
    1aa4:	005b      	lsls	r3, r3, #1
    1aa6:	61e3      	str	r3, [r4, #28]
    1aa8:	f7ff fb6a 	bl	0x1180
    1aac:	0020      	movs	r0, r4
    1aae:	f7fe ff99 	bl	0x9e4
    1ab2:	f7ff fb6b 	bl	0x118c
    1ab6:	f7ff fb6f 	bl	0x1198
    1aba:	f7ff fb77 	bl	0x11ac
    1abe:	2800      	cmp	r0, #0
    1ac0:	d0ed      	beq.n	0x1a9e
    1ac2:	0001      	movs	r1, r0
    1ac4:	200a      	movs	r0, #10
    1ac6:	f000 fa2b 	bl	0x1f20
    1aca:	69e3      	ldr	r3, [r4, #28]
    1acc:	3001      	adds	r0, #1
    1ace:	4343      	muls	r3, r0
    1ad0:	61e3      	str	r3, [r4, #28]
    1ad2:	f7ff fb55 	bl	0x1180
    1ad6:	0020      	movs	r0, r4
    1ad8:	f7fe ff84 	bl	0x9e4
    1adc:	f7ff fb56 	bl	0x118c
    1ae0:	f7ff fb5a 	bl	0x1198
    1ae4:	2100      	movs	r1, #0
    1ae6:	9002      	str	r0, [sp, #8]
    1ae8:	2300      	movs	r3, #0
    1aea:	5ee0      	ldrsh	r0, [r4, r3]
    1aec:	f7ff fdcc 	bl	0x1688
    1af0:	0001      	movs	r1, r0
    1af2:	2302      	movs	r3, #2
    1af4:	5ee0      	ldrsh	r0, [r4, r3]
    1af6:	f7ff fdc7 	bl	0x1688
    1afa:	0001      	movs	r1, r0
    1afc:	2304      	movs	r3, #4
    1afe:	5ee0      	ldrsh	r0, [r4, r3]
    1b00:	f7ff fdc2 	bl	0x1688
    1b04:	0001      	movs	r1, r0
    1b06:	2318      	movs	r3, #24
    1b08:	5ee0      	ldrsh	r0, [r4, r3]
    1b0a:	f7ff fdbd 	bl	0x1688
    1b0e:	4b55      	ldr	r3, [pc, #340]	; (0x1c64)
    1b10:	4682      	mov	sl, r0
    1b12:	4298      	cmp	r0, r3
    1b14:	d100      	bne.n	0x1b18
    1b16:	e19c      	b.n	0x1e52
    1b18:	d96e      	bls.n	0x1bf8
    1b1a:	4b53      	ldr	r3, [pc, #332]	; (0x1c68)
    1b1c:	4298      	cmp	r0, r3
    1b1e:	d100      	bne.n	0x1b22
    1b20:	e19c      	b.n	0x1e5c
    1b22:	4b52      	ldr	r3, [pc, #328]	; (0x1c6c)
    1b24:	4298      	cmp	r0, r3
    1b26:	d000      	beq.n	0x1b2a
    1b28:	e145      	b.n	0x1db6
    1b2a:	4851      	ldr	r0, [pc, #324]	; (0x1c70)
    1b2c:	f7fe fe32 	bl	0x794
    1b30:	2303      	movs	r3, #3
    1b32:	4a50      	ldr	r2, [pc, #320]	; (0x1c74)
    1b34:	4691      	mov	r9, r2
    1b36:	6812      	ldr	r2, [r2, #0]
    1b38:	2500      	movs	r5, #0
    1b3a:	2700      	movs	r7, #0
    1b3c:	2a00      	cmp	r2, #0
    1b3e:	d100      	bne.n	0x1b42
    1b40:	e196      	b.n	0x1e70
    1b42:	005b      	lsls	r3, r3, #1
    1b44:	469c      	mov	ip, r3
    1b46:	4a4c      	ldr	r2, [pc, #304]	; (0x1c78)
    1b48:	4462      	add	r2, ip
    1b4a:	9300      	str	r3, [sp, #0]
    1b4c:	4693      	mov	fp, r2
    1b4e:	9201      	str	r2, [sp, #4]
    1b50:	46a8      	mov	r8, r5
    1b52:	e01c      	b.n	0x1b8e
    1b54:	9b01      	ldr	r3, [sp, #4]
    1b56:	8ff2      	ldrh	r2, [r6, #62]	; 0x3e
    1b58:	8b1b      	ldrh	r3, [r3, #24]
    1b5a:	429a      	cmp	r2, r3
    1b5c:	d049      	beq.n	0x1bf2
    1b5e:	3640      	adds	r6, #64	; 0x40
    1b60:	0039      	movs	r1, r7
    1b62:	4846      	ldr	r0, [pc, #280]	; (0x1c7c)
    1b64:	f7fe fe16 	bl	0x794
    1b68:	8833      	ldrh	r3, [r6, #0]
    1b6a:	3301      	adds	r3, #1
    1b6c:	041b      	lsls	r3, r3, #16
    1b6e:	0c1b      	lsrs	r3, r3, #16
    1b70:	8033      	strh	r3, [r6, #0]
    1b72:	4443      	add	r3, r8
    1b74:	041b      	lsls	r3, r3, #16
    1b76:	0c1b      	lsrs	r3, r3, #16
    1b78:	041a      	lsls	r2, r3, #16
    1b7a:	1412      	asrs	r2, r2, #16
    1b7c:	4690      	mov	r8, r2
    1b7e:	464a      	mov	r2, r9
    1b80:	3701      	adds	r7, #1
    1b82:	6812      	ldr	r2, [r2, #0]
    1b84:	043f      	lsls	r7, r7, #16
    1b86:	0c3f      	lsrs	r7, r7, #16
    1b88:	4297      	cmp	r7, r2
    1b8a:	d300      	bcc.n	0x1b8e
    1b8c:	e082      	b.n	0x1c94
    1b8e:	013e      	lsls	r6, r7, #4
    1b90:	19f3      	adds	r3, r6, r7
    1b92:	009b      	lsls	r3, r3, #2
    1b94:	18e3      	adds	r3, r4, r3
    1b96:	001d      	movs	r5, r3
    1b98:	2200      	movs	r2, #0
    1b9a:	3540      	adds	r5, #64	; 0x40
    1b9c:	802a      	strh	r2, [r5, #0]
    1b9e:	6a1a      	ldr	r2, [r3, #32]
    1ba0:	07d2      	lsls	r2, r2, #31
    1ba2:	d50c      	bpl.n	0x1bbe
    1ba4:	8f5a      	ldrh	r2, [r3, #58]	; 0x3a
    1ba6:	9900      	ldr	r1, [sp, #0]
    1ba8:	4b33      	ldr	r3, [pc, #204]	; (0x1c78)
    1baa:	5acb      	ldrh	r3, [r1, r3]
    1bac:	429a      	cmp	r2, r3
    1bae:	d006      	beq.n	0x1bbe
    1bb0:	0039      	movs	r1, r7
    1bb2:	4833      	ldr	r0, [pc, #204]	; (0x1c80)
    1bb4:	f7fe fdee 	bl	0x794
    1bb8:	882b      	ldrh	r3, [r5, #0]
    1bba:	3301      	adds	r3, #1
    1bbc:	802b      	strh	r3, [r5, #0]
    1bbe:	19f5      	adds	r5, r6, r7
    1bc0:	00ad      	lsls	r5, r5, #2
    1bc2:	1965      	adds	r5, r4, r5
    1bc4:	6a29      	ldr	r1, [r5, #32]
    1bc6:	078b      	lsls	r3, r1, #30
    1bc8:	d50e      	bpl.n	0x1be8
    1bca:	465b      	mov	r3, fp
    1bcc:	8faa      	ldrh	r2, [r5, #60]	; 0x3c
    1bce:	899b      	ldrh	r3, [r3, #12]
    1bd0:	429a      	cmp	r2, r3
    1bd2:	d009      	beq.n	0x1be8
    1bd4:	0039      	movs	r1, r7
    1bd6:	482b      	ldr	r0, [pc, #172]	; (0x1c84)
    1bd8:	f7fe fddc 	bl	0x794
    1bdc:	002a      	movs	r2, r5
    1bde:	3240      	adds	r2, #64	; 0x40
    1be0:	8813      	ldrh	r3, [r2, #0]
    1be2:	3301      	adds	r3, #1
    1be4:	8013      	strh	r3, [r2, #0]
    1be6:	6a29      	ldr	r1, [r5, #32]
    1be8:	19f6      	adds	r6, r6, r7
    1bea:	00b6      	lsls	r6, r6, #2
    1bec:	19a6      	adds	r6, r4, r6
    1bee:	074b      	lsls	r3, r1, #29
    1bf0:	d4b0      	bmi.n	0x1b54
    1bf2:	3640      	adds	r6, #64	; 0x40
    1bf4:	8833      	ldrh	r3, [r6, #0]
    1bf6:	e7bc      	b.n	0x1b72
    1bf8:	4b23      	ldr	r3, [pc, #140]	; (0x1c88)
    1bfa:	4298      	cmp	r0, r3
    1bfc:	d100      	bne.n	0x1c00
    1bfe:	e132      	b.n	0x1e66
    1c00:	4b22      	ldr	r3, [pc, #136]	; (0x1c8c)
    1c02:	4298      	cmp	r0, r3
    1c04:	d000      	beq.n	0x1c08
    1c06:	e0d6      	b.n	0x1db6
    1c08:	4821      	ldr	r0, [pc, #132]	; (0x1c90)
    1c0a:	f7fe fdc3 	bl	0x794
    1c0e:	2302      	movs	r3, #2
    1c10:	e78f      	b.n	0x1b32
    1c12:	2302      	movs	r3, #2
    1c14:	5ee2      	ldrsh	r2, [r4, r3]
    1c16:	2100      	movs	r1, #0
    1c18:	5e63      	ldrsh	r3, [r4, r1]
    1c1a:	0412      	lsls	r2, r2, #16
    1c1c:	431a      	orrs	r2, r3
    1c1e:	6921      	ldr	r1, [r4, #16]
    1c20:	ab0f      	add	r3, sp, #60	; 0x3c
    1c22:	69a0      	ldr	r0, [r4, #24]
    1c24:	f7fe ff02 	bl	0xa2c
    1c28:	6a25      	ldr	r5, [r4, #32]
    1c2a:	e72b      	b.n	0x1a84
    1c2c:	2300      	movs	r3, #0
    1c2e:	5ee2      	ldrsh	r2, [r4, r3]
    1c30:	68e1      	ldr	r1, [r4, #12]
    1c32:	f7fe fd11 	bl	0x658
    1c36:	6a25      	ldr	r5, [r4, #32]
    1c38:	6260      	str	r0, [r4, #36]	; 0x24
    1c3a:	e720      	b.n	0x1a7e
    1c3c:	0099      	lsls	r1, r3, #2
    1c3e:	4689      	mov	r9, r1
    1c40:	0001      	movs	r1, r0
    1c42:	4351      	muls	r1, r2
    1c44:	468c      	mov	ip, r1
    1c46:	68a1      	ldr	r1, [r4, #8]
    1c48:	4688      	mov	r8, r1
    1c4a:	44a1      	add	r9, r4
    1c4c:	44c4      	add	ip, r8
    1c4e:	4661      	mov	r1, ip
    1c50:	464f      	mov	r7, r9
    1c52:	3201      	adds	r2, #1
    1c54:	0412      	lsls	r2, r2, #16
    1c56:	60f9      	str	r1, [r7, #12]
    1c58:	0c12      	lsrs	r2, r2, #16
    1c5a:	e70a      	b.n	0x1a72
    1c5c:	1fec      	subs	r4, r5, #7
    1c5e:	0800      	lsrs	r0, r0, #32
    1c60:	0090      	lsls	r0, r2, #2
    1c62:	0300      	lsls	r0, r0, #12
    1c64:	7b05      	ldrb	r5, [r0, #12]
    1c66:	0000      	movs	r0, r0
    1c68:	8a02      	ldrh	r2, [r0, #16]
    1c6a:	0000      	movs	r0, r0
    1c6c:	e9f5 0000 	ldrd	r0, r0, [r5]
    1c70:	20a0      	movs	r0, #160	; 0xa0
    1c72:	0800      	lsrs	r0, r0, #32
    1c74:	0868      	lsrs	r0, r5, #1
    1c76:	0300      	lsls	r0, r0, #12
    1c78:	1f5c      	subs	r4, r3, #5
    1c7a:	0800      	lsrs	r0, r0, #32
    1c7c:	2160      	movs	r1, #96	; 0x60
    1c7e:	0800      	lsrs	r0, r0, #32
    1c80:	20fc      	movs	r0, #252	; 0xfc
    1c82:	0800      	lsrs	r0, r0, #32
    1c84:	212c      	movs	r1, #44	; 0x2c
    1c86:	0800      	lsrs	r0, r0, #32
    1c88:	18f2      	adds	r2, r6, r3
    1c8a:	0000      	movs	r0, r0
    1c8c:	4eaf      	ldr	r6, [pc, #700]	; (0x1f4c)
    1c8e:	0000      	movs	r0, r0
    1c90:	206c      	movs	r0, #108	; 0x6c
    1c92:	0800      	lsrs	r0, r0, #32
    1c94:	001e      	movs	r6, r3
    1c96:	f7ff fcff 	bl	0x1698
    1c9a:	69a1      	ldr	r1, [r4, #24]
    1c9c:	1836      	adds	r6, r6, r0
    1c9e:	4875      	ldr	r0, [pc, #468]	; (0x1e74)
    1ca0:	f7fe fd78 	bl	0x794
    1ca4:	9802      	ldr	r0, [sp, #8]
    1ca6:	f7ff fa81 	bl	0x11ac
    1caa:	0001      	movs	r1, r0
    1cac:	4872      	ldr	r0, [pc, #456]	; (0x1e78)
    1cae:	f7fe fd71 	bl	0x794
    1cb2:	464b      	mov	r3, r9
    1cb4:	681b      	ldr	r3, [r3, #0]
    1cb6:	469c      	mov	ip, r3
    1cb8:	69e3      	ldr	r3, [r4, #28]
    1cba:	4870      	ldr	r0, [pc, #448]	; (0x1e7c)
    1cbc:	4661      	mov	r1, ip
    1cbe:	4359      	muls	r1, r3
    1cc0:	f7fe fd68 	bl	0x794
    1cc4:	496e      	ldr	r1, [pc, #440]	; (0x1e80)
    1cc6:	486f      	ldr	r0, [pc, #444]	; (0x1e84)
    1cc8:	f7fe fd64 	bl	0x794
    1ccc:	4651      	mov	r1, sl
    1cce:	486e      	ldr	r0, [pc, #440]	; (0x1e88)
    1cd0:	f7fe fd60 	bl	0x794
    1cd4:	6a23      	ldr	r3, [r4, #32]
    1cd6:	0436      	lsls	r6, r6, #16
    1cd8:	1436      	asrs	r6, r6, #16
    1cda:	07db      	lsls	r3, r3, #31
    1cdc:	d518      	bpl.n	0x1d10
    1cde:	464b      	mov	r3, r9
    1ce0:	681b      	ldr	r3, [r3, #0]
    1ce2:	2b00      	cmp	r3, #0
    1ce4:	d014      	beq.n	0x1d10
    1ce6:	46b0      	mov	r8, r6
    1ce8:	2500      	movs	r5, #0
    1cea:	464e      	mov	r6, r9
    1cec:	4f67      	ldr	r7, [pc, #412]	; (0x1e8c)
    1cee:	012b      	lsls	r3, r5, #4
    1cf0:	195b      	adds	r3, r3, r5
    1cf2:	009b      	lsls	r3, r3, #2
    1cf4:	18e3      	adds	r3, r4, r3
    1cf6:	8f5a      	ldrh	r2, [r3, #58]	; 0x3a
    1cf8:	0029      	movs	r1, r5
    1cfa:	0038      	movs	r0, r7
    1cfc:	f7fe fd4a 	bl	0x794
    1d00:	3501      	adds	r5, #1
    1d02:	6833      	ldr	r3, [r6, #0]
    1d04:	042d      	lsls	r5, r5, #16
    1d06:	0c2d      	lsrs	r5, r5, #16
    1d08:	429d      	cmp	r5, r3
    1d0a:	d3f0      	bcc.n	0x1cee
    1d0c:	46b1      	mov	r9, r6
    1d0e:	4646      	mov	r6, r8
    1d10:	6a23      	ldr	r3, [r4, #32]
    1d12:	079a      	lsls	r2, r3, #30
    1d14:	d519      	bpl.n	0x1d4a
    1d16:	464a      	mov	r2, r9
    1d18:	6812      	ldr	r2, [r2, #0]
    1d1a:	2a00      	cmp	r2, #0
    1d1c:	d100      	bne.n	0x1d20
    1d1e:	e095      	b.n	0x1e4c
    1d20:	46b0      	mov	r8, r6
    1d22:	2500      	movs	r5, #0
    1d24:	464e      	mov	r6, r9
    1d26:	4f5a      	ldr	r7, [pc, #360]	; (0x1e90)
    1d28:	012b      	lsls	r3, r5, #4
    1d2a:	195b      	adds	r3, r3, r5
    1d2c:	009b      	lsls	r3, r3, #2
    1d2e:	18e3      	adds	r3, r4, r3
    1d30:	8f9a      	ldrh	r2, [r3, #60]	; 0x3c
    1d32:	0029      	movs	r1, r5
    1d34:	0038      	movs	r0, r7
    1d36:	f7fe fd2d 	bl	0x794
    1d3a:	3501      	adds	r5, #1
    1d3c:	6833      	ldr	r3, [r6, #0]
    1d3e:	042d      	lsls	r5, r5, #16
    1d40:	0c2d      	lsrs	r5, r5, #16
    1d42:	429d      	cmp	r5, r3
    1d44:	d3f0      	bcc.n	0x1d28
    1d46:	46b1      	mov	r9, r6
    1d48:	4646      	mov	r6, r8
    1d4a:	6a23      	ldr	r3, [r4, #32]
    1d4c:	075b      	lsls	r3, r3, #29
    1d4e:	d439      	bmi.n	0x1dc4
    1d50:	464b      	mov	r3, r9
    1d52:	681b      	ldr	r3, [r3, #0]
    1d54:	2b00      	cmp	r3, #0
    1d56:	d013      	beq.n	0x1d80
    1d58:	46b0      	mov	r8, r6
    1d5a:	2700      	movs	r7, #0
    1d5c:	464e      	mov	r6, r9
    1d5e:	4d4d      	ldr	r5, [pc, #308]	; (0x1e94)
    1d60:	013b      	lsls	r3, r7, #4
    1d62:	19db      	adds	r3, r3, r7
    1d64:	009b      	lsls	r3, r3, #2
    1d66:	18e3      	adds	r3, r4, r3
    1d68:	8f1a      	ldrh	r2, [r3, #56]	; 0x38
    1d6a:	0039      	movs	r1, r7
    1d6c:	0028      	movs	r0, r5
    1d6e:	f7fe fd11 	bl	0x794
    1d72:	3701      	adds	r7, #1
    1d74:	6833      	ldr	r3, [r6, #0]
    1d76:	043f      	lsls	r7, r7, #16
    1d78:	0c3f      	lsrs	r7, r7, #16
    1d7a:	429f      	cmp	r7, r3
    1d7c:	d3f0      	bcc.n	0x1d60
    1d7e:	4646      	mov	r6, r8
    1d80:	9902      	ldr	r1, [sp, #8]
    1d82:	4845      	ldr	r0, [pc, #276]	; (0x1e98)
    1d84:	f7fe fd06 	bl	0x794
    1d88:	2e00      	cmp	r6, #0
    1d8a:	d046      	beq.n	0x1e1a
    1d8c:	dd34      	ble.n	0x1df8
    1d8e:	4843      	ldr	r0, [pc, #268]	; (0x1e9c)
    1d90:	f7fe fd00 	bl	0x794
    1d94:	aa02      	add	r2, sp, #8
    1d96:	4694      	mov	ip, r2
    1d98:	234e      	movs	r3, #78	; 0x4e
    1d9a:	4463      	add	r3, ip
    1d9c:	0018      	movs	r0, r3
    1d9e:	f7ff fa0b 	bl	0x11b8
    1da2:	2000      	movs	r0, #0
    1da4:	b017      	add	sp, #92	; 0x5c
    1da6:	bc3c      	pop	{r2, r3, r4, r5}
    1da8:	4690      	mov	r8, r2
    1daa:	4699      	mov	r9, r3
    1dac:	46a2      	mov	sl, r4
    1dae:	46ab      	mov	fp, r5
    1db0:	bcf0      	pop	{r4, r5, r6, r7}
    1db2:	bc02      	pop	{r1}
    1db4:	4708      	bx	r1
    1db6:	4b3a      	ldr	r3, [pc, #232]	; (0x1ea0)
    1db8:	4e3a      	ldr	r6, [pc, #232]	; (0x1ea4)
    1dba:	4699      	mov	r9, r3
    1dbc:	e76b      	b.n	0x1c96
    1dbe:	2307      	movs	r3, #7
    1dc0:	6223      	str	r3, [r4, #32]
    1dc2:	e62e      	b.n	0x1a22
    1dc4:	464b      	mov	r3, r9
    1dc6:	2500      	movs	r5, #0
    1dc8:	681b      	ldr	r3, [r3, #0]
    1dca:	4f37      	ldr	r7, [pc, #220]	; (0x1ea8)
    1dcc:	42ab      	cmp	r3, r5
    1dce:	d0d7      	beq.n	0x1d80
    1dd0:	46b0      	mov	r8, r6
    1dd2:	464e      	mov	r6, r9
    1dd4:	012b      	lsls	r3, r5, #4
    1dd6:	195b      	adds	r3, r3, r5
    1dd8:	009b      	lsls	r3, r3, #2
    1dda:	18e3      	adds	r3, r4, r3
    1ddc:	8fda      	ldrh	r2, [r3, #62]	; 0x3e
    1dde:	0029      	movs	r1, r5
    1de0:	0038      	movs	r0, r7
    1de2:	f7fe fcd7 	bl	0x794
    1de6:	3501      	adds	r5, #1
    1de8:	6833      	ldr	r3, [r6, #0]
    1dea:	042d      	lsls	r5, r5, #16
    1dec:	0c2d      	lsrs	r5, r5, #16
    1dee:	429d      	cmp	r5, r3
    1df0:	d3f0      	bcc.n	0x1dd4
    1df2:	46b1      	mov	r9, r6
    1df4:	4646      	mov	r6, r8
    1df6:	e7ab      	b.n	0x1d50
    1df8:	482c      	ldr	r0, [pc, #176]	; (0x1eac)
    1dfa:	f7fe fccb 	bl	0x794
    1dfe:	e7c9      	b.n	0x1d94
    1e00:	2b01      	cmp	r3, #1
    1e02:	d000      	beq.n	0x1e06
    1e04:	e616      	b.n	0x1a34
    1e06:	2204      	movs	r2, #4
    1e08:	5ea3      	ldrsh	r3, [r4, r2]
    1e0a:	2b00      	cmp	r3, #0
    1e0c:	d000      	beq.n	0x1e10
    1e0e:	e611      	b.n	0x1a34
    1e10:	4b27      	ldr	r3, [pc, #156]	; (0x1eb0)
    1e12:	9305      	str	r3, [sp, #20]
    1e14:	2366      	movs	r3, #102	; 0x66
    1e16:	80a3      	strh	r3, [r4, #4]
    1e18:	e60c      	b.n	0x1a34
    1e1a:	4826      	ldr	r0, [pc, #152]	; (0x1eb4)
    1e1c:	f7fe fcba 	bl	0x794
    1e20:	9802      	ldr	r0, [sp, #8]
    1e22:	f7ff f9c3 	bl	0x11ac
    1e26:	0001      	movs	r1, r0
    1e28:	4823      	ldr	r0, [pc, #140]	; (0x1eb8)
    1e2a:	f000 f879 	bl	0x1f20
    1e2e:	21fa      	movs	r1, #250	; 0xfa
    1e30:	0003      	movs	r3, r0
    1e32:	0089      	lsls	r1, r1, #2
    1e34:	0018      	movs	r0, r3
    1e36:	4348      	muls	r0, r1
    1e38:	f000 f872 	bl	0x1f20
    1e3c:	0001      	movs	r1, r0
    1e3e:	481f      	ldr	r0, [pc, #124]	; (0x1ebc)
    1e40:	f7fe fca8 	bl	0x794
    1e44:	481e      	ldr	r0, [pc, #120]	; (0x1ec0)
    1e46:	f7fe fca5 	bl	0x794
    1e4a:	e7a3      	b.n	0x1d94
    1e4c:	075b      	lsls	r3, r3, #29
    1e4e:	d497      	bmi.n	0x1d80
    1e50:	e77e      	b.n	0x1d50
    1e52:	481c      	ldr	r0, [pc, #112]	; (0x1ec4)
    1e54:	f7fe fc9e 	bl	0x794
    1e58:	2301      	movs	r3, #1
    1e5a:	e66a      	b.n	0x1b32
    1e5c:	481a      	ldr	r0, [pc, #104]	; (0x1ec8)
    1e5e:	f7fe fc99 	bl	0x794
    1e62:	2300      	movs	r3, #0
    1e64:	e665      	b.n	0x1b32
    1e66:	4819      	ldr	r0, [pc, #100]	; (0x1ecc)
    1e68:	f7fe fc94 	bl	0x794
    1e6c:	2304      	movs	r3, #4
    1e6e:	e660      	b.n	0x1b32
    1e70:	2600      	movs	r6, #0
    1e72:	e710      	b.n	0x1c96
    1e74:	2190      	movs	r1, #144	; 0x90
    1e76:	0800      	lsrs	r0, r0, #32
    1e78:	21a8      	movs	r1, #168	; 0xa8
    1e7a:	0800      	lsrs	r0, r0, #32
    1e7c:	21c0      	movs	r1, #192	; 0xc0
    1e7e:	0800      	lsrs	r0, r0, #32
    1e80:	21d8      	movs	r1, #216	; 0xd8
    1e82:	0800      	lsrs	r0, r0, #32
    1e84:	21e4      	movs	r1, #228	; 0xe4
    1e86:	0800      	lsrs	r0, r0, #32
    1e88:	21fc      	movs	r1, #252	; 0xfc
    1e8a:	0800      	lsrs	r0, r0, #32
    1e8c:	2218      	movs	r2, #24
    1e8e:	0800      	lsrs	r0, r0, #32
    1e90:	2234      	movs	r2, #52	; 0x34
    1e92:	0800      	lsrs	r0, r0, #32
    1e94:	2280      	movs	r2, #128	; 0x80
    1e96:	0800      	lsrs	r0, r0, #32
    1e98:	2250      	movs	r2, #80	; 0x50
    1e9a:	0800      	lsrs	r0, r0, #32
    1e9c:	2328      	movs	r3, #40	; 0x28
    1e9e:	0800      	lsrs	r0, r0, #32
    1ea0:	0868      	lsrs	r0, r5, #1
    1ea2:	0300      	lsls	r0, r0, #12
    1ea4:	ffff 0000 	vaddl.u<illegal width 64>	q8, d15, d0
    1ea8:	2264      	movs	r2, #100	; 0x64
    1eaa:	0800      	lsrs	r0, r0, #32
    1eac:	233c      	movs	r3, #60	; 0x3c
    1eae:	0800      	lsrs	r0, r0, #32
    1eb0:	3415      	adds	r4, #21
    1eb2:	3415      	adds	r4, #21
    1eb4:	229c      	movs	r2, #156	; 0x9c
    1eb6:	0800      	lsrs	r0, r0, #32
    1eb8:	2f80      	cmp	r7, #128	; 0x80
    1eba:	0044      	lsls	r4, r0, #1
    1ebc:	22d0      	movs	r2, #208	; 0xd0
    1ebe:	0800      	lsrs	r0, r0, #32
    1ec0:	22f0      	movs	r2, #240	; 0xf0
    1ec2:	0800      	lsrs	r0, r0, #32
    1ec4:	2040      	movs	r0, #64	; 0x40
    1ec6:	0800      	lsrs	r0, r0, #32
    1ec8:	2010      	movs	r0, #16
    1eca:	0800      	lsrs	r0, r0, #32
    1ecc:	20d0      	movs	r0, #208	; 0xd0
    1ece:	0800      	lsrs	r0, r0, #32
    1ed0:	b570      	push	{r4, r5, r6, lr}
    1ed2:	4d0e      	ldr	r5, [pc, #56]	; (0x1f0c)
    1ed4:	4e0e      	ldr	r6, [pc, #56]	; (0x1f10)
    1ed6:	1b76      	subs	r6, r6, r5
    1ed8:	10b6      	asrs	r6, r6, #2
    1eda:	d006      	beq.n	0x1eea
    1edc:	2400      	movs	r4, #0
    1ede:	cd08      	ldmia	r5!, {r3}
    1ee0:	3401      	adds	r4, #1
    1ee2:	f000 f81b 	bl	0x1f1c
    1ee6:	42a6      	cmp	r6, r4
    1ee8:	d1f9      	bne.n	0x1ede
    1eea:	f7fe f991 	bl	0x210
    1eee:	4d09      	ldr	r5, [pc, #36]	; (0x1f14)
    1ef0:	4e09      	ldr	r6, [pc, #36]	; (0x1f18)
    1ef2:	1b76      	subs	r6, r6, r5
    1ef4:	10b6      	asrs	r6, r6, #2
    1ef6:	d006      	beq.n	0x1f06
    1ef8:	2400      	movs	r4, #0
    1efa:	cd08      	ldmia	r5!, {r3}
    1efc:	3401      	adds	r4, #1
    1efe:	f000 f80d 	bl	0x1f1c
    1f02:	42a6      	cmp	r6, r4
    1f04:	d1f9      	bne.n	0x1efa
    1f06:	bc70      	pop	{r4, r5, r6}
    1f08:	bc01      	pop	{r0}
    1f0a:	4700      	bx	r0
    1f0c:	0874      	lsrs	r4, r6, #1
    1f0e:	0300      	lsls	r0, r0, #12
    1f10:	0874      	lsrs	r4, r6, #1
    1f12:	0300      	lsls	r0, r0, #12
    1f14:	0874      	lsrs	r4, r6, #1
    1f16:	0300      	lsls	r0, r0, #12
    1f18:	0878      	lsrs	r0, r7, #1
    1f1a:	0300      	lsls	r0, r0, #12
    1f1c:	4718      	bx	r3
    1f1e:	46c0      	nop			; (mov r8, r8)
    1f20:	4778      	bx	pc
    1f22:	46c0      	nop			; (mov r8, r8)
    1f24:	fddc eaff 			; <UNDEFINED> instruction: 0xfddceaff
    1f28:	4778      	bx	pc
    1f2a:	46c0      	nop			; (mov r8, r8)
    1f2c:	fe21 eaff 			; <UNDEFINED> instruction: 0xfe21eaff
    1f30:	c000      	stmia	r0!, {}
    1f32:	e59f      	b.n	0x1a74
    1f34:	ff1c e12f 	vrhadd.u16	d14, d12, d31
    1f38:	1909      	adds	r1, r1, r4
    1f3a:	0800      	lsrs	r0, r0, #32
    1f3c:	4778      	bx	pc
    1f3e:	46c0      	nop			; (mov r8, r8)
    1f40:	fe68 eaff 			; <UNDEFINED> instruction: 0xfe68eaff
    1f44:	4778      	bx	pc
    1f46:	46c0      	nop			; (mov r8, r8)
    1f48:	fe12 eaff 			; <UNDEFINED> instruction: 0xfe12eaff
    1f4c:	0000      	movs	r0, r0
    1f4e:	0000      	movs	r0, r0
    1f50:	b5f8      	push	{r3, r4, r5, r6, r7, lr}
    1f52:	46c0      	nop			; (mov r8, r8)
    1f54:	bcf8      	pop	{r3, r4, r5, r6, r7}
    1f56:	bc08      	pop	{r3}
    1f58:	469e      	mov	lr, r3
    1f5a:	4770      	bx	lr
    1f5c:	d4b0      	bmi.n	0x1ec0
    1f5e:	3340      	adds	r3, #64	; 0x40
    1f60:	6a79      	ldr	r1, [r7, #36]	; 0x24
    1f62:	e714      	b.n	0x1d8e
    1f64:	e3c1      	b.n	0x26ea
    1f66:	0000      	movs	r0, r0
    1f68:	be52      	bkpt	0x0052
    1f6a:	1199      	asrs	r1, r3, #6
    1f6c:	5608      	ldrsb	r0, [r1, r0]
    1f6e:	1fd7      	subs	r7, r2, #7
    1f70:	0747      	lsls	r7, r0, #29
    1f72:	0000      	movs	r0, r0
    1f74:	5e47      	ldrsh	r7, [r0, r1]
    1f76:	39bf      	subs	r1, #191	; 0xbf
    1f78:	e5a4      	b.n	0x1ac4
    1f7a:	8e3a      	ldrh	r2, [r7, #48]	; 0x30
    1f7c:	8d84      	ldrh	r4, [r0, #44]	; 0x2c
    1f7e:	ffff 1220 	vsubl.u<illegal width 64>	<illegal reg q8.5>, d15, d16
    1f82:	0800      	lsrs	r0, r0, #32
    1f84:	1220      	asrs	r0, r4, #8
    1f86:	0800      	lsrs	r0, r0, #32
    1f88:	1266      	asrs	r6, r4, #9
    1f8a:	0800      	lsrs	r0, r0, #32
    1f8c:	1266      	asrs	r6, r4, #9
    1f8e:	0800      	lsrs	r0, r0, #32
    1f90:	1274      	asrs	r4, r6, #9
    1f92:	0800      	lsrs	r0, r0, #32
    1f94:	2448      	movs	r4, #72	; 0x48
    1f96:	0800      	lsrs	r0, r0, #32
    1f98:	2450      	movs	r4, #80	; 0x50
    1f9a:	0800      	lsrs	r0, r0, #32
    1f9c:	2458      	movs	r4, #88	; 0x58
    1f9e:	0800      	lsrs	r0, r0, #32
    1fa0:	2460      	movs	r4, #96	; 0x60
    1fa2:	0800      	lsrs	r0, r0, #32
    1fa4:	2418      	movs	r4, #24
    1fa6:	0800      	lsrs	r0, r0, #32
    1fa8:	2424      	movs	r4, #36	; 0x24
    1faa:	0800      	lsrs	r0, r0, #32
    1fac:	2430      	movs	r4, #48	; 0x30
    1fae:	0800      	lsrs	r0, r0, #32
    1fb0:	243c      	movs	r4, #60	; 0x3c
    1fb2:	0800      	lsrs	r0, r0, #32
    1fb4:	23e8      	movs	r3, #232	; 0xe8
    1fb6:	0800      	lsrs	r0, r0, #32
    1fb8:	23f4      	movs	r3, #244	; 0xf4
    1fba:	0800      	lsrs	r0, r0, #32
    1fbc:	2400      	movs	r4, #0
    1fbe:	0800      	lsrs	r0, r0, #32
    1fc0:	240c      	movs	r4, #12
    1fc2:	0800      	lsrs	r0, r0, #32
    1fc4:	23b8      	movs	r3, #184	; 0xb8
    1fc6:	0800      	lsrs	r0, r0, #32
    1fc8:	23c4      	movs	r3, #196	; 0xc4
    1fca:	0800      	lsrs	r0, r0, #32
    1fcc:	23d0      	movs	r3, #208	; 0xd0
    1fce:	0800      	lsrs	r0, r0, #32
    1fd0:	23dc      	movs	r3, #220	; 0xdc
    1fd2:	0800      	lsrs	r0, r0, #32
    1fd4:	15ca      	asrs	r2, r1, #23
    1fd6:	0800      	lsrs	r0, r0, #32
    1fd8:	15b2      	asrs	r2, r6, #22
    1fda:	0800      	lsrs	r0, r0, #32
    1fdc:	15b8      	asrs	r0, r7, #22
    1fde:	0800      	lsrs	r0, r0, #32
    1fe0:	15be      	asrs	r6, r7, #22
    1fe2:	0800      	lsrs	r0, r0, #32
    1fe4:	15c4      	asrs	r4, r0, #23
    1fe6:	0800      	lsrs	r0, r0, #32
    1fe8:	15ac      	asrs	r4, r5, #22
    1fea:	0800      	lsrs	r0, r0, #32
    1fec:	7552      	strb	r2, [r2, #21]
    1fee:	6e6e      	ldr	r6, [r5, #100]	; 0x64
    1ff0:	6e69      	ldr	r1, [r5, #100]	; 0x64
    1ff2:	2067      	movs	r0, #103	; 0x67
    1ff4:	6f43      	ldr	r3, [r0, #116]	; 0x74
    1ff6:	6572      	str	r2, [r6, #84]	; 0x54
    1ff8:	614d      	str	r5, [r1, #20]
    1ffa:	6b72      	ldr	r2, [r6, #52]	; 0x34
    1ffc:	6620      	str	r0, [r4, #96]	; 0x60
    1ffe:	726f      	strb	r7, [r5, #9]
    2000:	2520      	movs	r5, #32
    2002:	2064      	movs	r0, #100	; 0x64
    2004:	7469      	strb	r1, [r5, #17]
    2006:	7265      	strb	r5, [r4, #9]
    2008:	7461      	strb	r1, [r4, #17]
    200a:	6f69      	ldr	r1, [r5, #116]	; 0x74
    200c:	736e      	strb	r6, [r5, #13]
    200e:	000a      	movs	r2, r1
    2010:	6b36      	ldr	r6, [r6, #48]	; 0x30
    2012:	7020      	strb	r0, [r4, #0]
    2014:	7265      	strb	r5, [r4, #9]
    2016:	6f66      	ldr	r6, [r4, #116]	; 0x74
    2018:	6d72      	ldr	r2, [r6, #84]	; 0x54
    201a:	6e61      	ldr	r1, [r4, #100]	; 0x64
    201c:	6563      	str	r3, [r4, #84]	; 0x54
    201e:	7220      	strb	r0, [r4, #8]
    2020:	6e75      	ldr	r5, [r6, #100]	; 0x64
    2022:	7020      	strb	r0, [r4, #0]
    2024:	7261      	strb	r1, [r4, #9]
    2026:	6d61      	ldr	r1, [r4, #84]	; 0x54
    2028:	7465      	strb	r5, [r4, #17]
    202a:	7265      	strb	r5, [r4, #9]
    202c:	2073      	movs	r0, #115	; 0x73
    202e:	6f66      	ldr	r6, [r4, #116]	; 0x74
    2030:	2072      	movs	r0, #114	; 0x72
    2032:	6f63      	ldr	r3, [r4, #116]	; 0x74
    2034:	6572      	str	r2, [r6, #84]	; 0x54
    2036:	616d      	str	r5, [r5, #20]
    2038:	6b72      	ldr	r2, [r6, #52]	; 0x34
    203a:	0a2e      	lsrs	r6, r5, #8
    203c:	0000      	movs	r0, r0
    203e:	0000      	movs	r0, r0
    2040:	6b36      	ldr	r6, [r6, #48]	; 0x30
    2042:	7620      	strb	r0, [r4, #24]
    2044:	6c61      	ldr	r1, [r4, #68]	; 0x44
    2046:	6469      	str	r1, [r5, #68]	; 0x44
    2048:	7461      	strb	r1, [r4, #17]
    204a:	6f69      	ldr	r1, [r5, #116]	; 0x74
    204c:	206e      	movs	r0, #110	; 0x6e
    204e:	7572      	strb	r2, [r6, #21]
    2050:	206e      	movs	r0, #110	; 0x6e
    2052:	6170      	str	r0, [r6, #20]
    2054:	6172      	str	r2, [r6, #20]
    2056:	656d      	str	r5, [r5, #84]	; 0x54
    2058:	6574      	str	r4, [r6, #84]	; 0x54
    205a:	7372      	strb	r2, [r6, #13]
    205c:	6620      	str	r0, [r4, #96]	; 0x60
    205e:	726f      	strb	r7, [r5, #9]
    2060:	6320      	str	r0, [r4, #48]	; 0x30
    2062:	726f      	strb	r7, [r5, #9]
    2064:	6d65      	ldr	r5, [r4, #84]	; 0x54
    2066:	7261      	strb	r1, [r4, #9]
    2068:	2e6b      	cmp	r6, #107	; 0x6b
    206a:	000a      	movs	r2, r1
    206c:	7250      	strb	r0, [r2, #9]
    206e:	666f      	str	r7, [r5, #100]	; 0x64
    2070:	6c69      	ldr	r1, [r5, #68]	; 0x44
    2072:	2065      	movs	r0, #101	; 0x65
    2074:	6567      	str	r7, [r4, #84]	; 0x54
    2076:	656e      	str	r6, [r5, #84]	; 0x54
    2078:	6172      	str	r2, [r6, #20]
    207a:	6974      	ldr	r4, [r6, #20]
    207c:	6e6f      	ldr	r7, [r5, #100]	; 0x64
    207e:	7220      	strb	r0, [r4, #8]
    2080:	6e75      	ldr	r5, [r6, #100]	; 0x64
    2082:	7020      	strb	r0, [r4, #0]
    2084:	7261      	strb	r1, [r4, #9]
    2086:	6d61      	ldr	r1, [r4, #84]	; 0x54
    2088:	7465      	strb	r5, [r4, #17]
    208a:	7265      	strb	r5, [r4, #9]
    208c:	2073      	movs	r0, #115	; 0x73
    208e:	6f66      	ldr	r6, [r4, #116]	; 0x74
    2090:	2072      	movs	r0, #114	; 0x72
    2092:	6f63      	ldr	r3, [r4, #116]	; 0x74
    2094:	6572      	str	r2, [r6, #84]	; 0x54
    2096:	616d      	str	r5, [r5, #20]
    2098:	6b72      	ldr	r2, [r6, #52]	; 0x34
    209a:	0a2e      	lsrs	r6, r5, #8
    209c:	0000      	movs	r0, r0
    209e:	0000      	movs	r0, r0
    20a0:	4b32      	ldr	r3, [pc, #200]	; (0x216c)
    20a2:	7020      	strb	r0, [r4, #0]
    20a4:	7265      	strb	r5, [r4, #9]
    20a6:	6f66      	ldr	r6, [r4, #116]	; 0x74
    20a8:	6d72      	ldr	r2, [r6, #84]	; 0x54
    20aa:	6e61      	ldr	r1, [r4, #100]	; 0x64
    20ac:	6563      	str	r3, [r4, #84]	; 0x54
    20ae:	7220      	strb	r0, [r4, #8]
    20b0:	6e75      	ldr	r5, [r6, #100]	; 0x64
    20b2:	7020      	strb	r0, [r4, #0]
    20b4:	7261      	strb	r1, [r4, #9]
    20b6:	6d61      	ldr	r1, [r4, #84]	; 0x54
    20b8:	7465      	strb	r5, [r4, #17]
    20ba:	7265      	strb	r5, [r4, #9]
    20bc:	2073      	movs	r0, #115	; 0x73
    20be:	6f66      	ldr	r6, [r4, #116]	; 0x74
    20c0:	2072      	movs	r0, #114	; 0x72
    20c2:	6f63      	ldr	r3, [r4, #116]	; 0x74
    20c4:	6572      	str	r2, [r6, #84]	; 0x54
    20c6:	616d      	str	r5, [r5, #20]
    20c8:	6b72      	ldr	r2, [r6, #52]	; 0x34
    20ca:	0a2e      	lsrs	r6, r5, #8
    20cc:	0000      	movs	r0, r0
    20ce:	0000      	movs	r0, r0
    20d0:	4b32      	ldr	r3, [pc, #200]	; (0x219c)
    20d2:	7620      	strb	r0, [r4, #24]
    20d4:	6c61      	ldr	r1, [r4, #68]	; 0x44
    20d6:	6469      	str	r1, [r5, #68]	; 0x44
    20d8:	7461      	strb	r1, [r4, #17]
    20da:	6f69      	ldr	r1, [r5, #116]	; 0x74
    20dc:	206e      	movs	r0, #110	; 0x6e
    20de:	7572      	strb	r2, [r6, #21]
    20e0:	206e      	movs	r0, #110	; 0x6e
    20e2:	6170      	str	r0, [r6, #20]
    20e4:	6172      	str	r2, [r6, #20]
    20e6:	656d      	str	r5, [r5, #84]	; 0x54
    20e8:	6574      	str	r4, [r6, #84]	; 0x54
    20ea:	7372      	strb	r2, [r6, #13]
    20ec:	6620      	str	r0, [r4, #96]	; 0x60
    20ee:	726f      	strb	r7, [r5, #9]
    20f0:	6320      	str	r0, [r4, #48]	; 0x30
    20f2:	726f      	strb	r7, [r5, #9]
    20f4:	6d65      	ldr	r5, [r4, #84]	; 0x54
    20f6:	7261      	strb	r1, [r4, #9]
    20f8:	2e6b      	cmp	r6, #107	; 0x6b
    20fa:	000a      	movs	r2, r1
    20fc:	255b      	movs	r5, #91	; 0x5b
    20fe:	5d75      	ldrb	r5, [r6, r5]
    2100:	5245      	strh	r5, [r0, r1]
    2102:	4f52      	ldr	r7, [pc, #328]	; (0x224c)
    2104:	2152      	movs	r1, #82	; 0x52
    2106:	6c20      	ldr	r0, [r4, #64]	; 0x40
    2108:	7369      	strb	r1, [r5, #13]
    210a:	2074      	movs	r0, #116	; 0x74
    210c:	7263      	strb	r3, [r4, #9]
    210e:	2063      	movs	r0, #99	; 0x63
    2110:	7830      	ldrb	r0, [r6, #0]
    2112:	3025      	adds	r0, #37	; 0x25
    2114:	7834      	ldrb	r4, [r6, #0]
    2116:	2d20      	cmp	r5, #32
    2118:	7320      	strb	r0, [r4, #12]
    211a:	6f68      	ldr	r0, [r5, #116]	; 0x74
    211c:	6c75      	ldr	r5, [r6, #68]	; 0x44
    211e:	2064      	movs	r0, #100	; 0x64
    2120:	6562      	str	r2, [r4, #84]	; 0x54
    2122:	3020      	adds	r0, #32
    2124:	2578      	movs	r5, #120	; 0x78
    2126:	3430      	adds	r4, #48	; 0x30
    2128:	0a78      	lsrs	r0, r7, #9
    212a:	0000      	movs	r0, r0
    212c:	255b      	movs	r5, #91	; 0x5b
    212e:	5d75      	ldrb	r5, [r6, r5]
    2130:	5245      	strh	r5, [r0, r1]
    2132:	4f52      	ldr	r7, [pc, #328]	; (0x227c)
    2134:	2152      	movs	r1, #82	; 0x52
    2136:	6d20      	ldr	r0, [r4, #80]	; 0x50
    2138:	7461      	strb	r1, [r4, #17]
    213a:	6972      	ldr	r2, [r6, #20]
    213c:	2078      	movs	r0, #120	; 0x78
    213e:	7263      	strb	r3, [r4, #9]
    2140:	2063      	movs	r0, #99	; 0x63
    2142:	7830      	ldrb	r0, [r6, #0]
    2144:	3025      	adds	r0, #37	; 0x25
    2146:	7834      	ldrb	r4, [r6, #0]
    2148:	2d20      	cmp	r5, #32
    214a:	7320      	strb	r0, [r4, #12]
    214c:	6f68      	ldr	r0, [r5, #116]	; 0x74
    214e:	6c75      	ldr	r5, [r6, #68]	; 0x44
    2150:	2064      	movs	r0, #100	; 0x64
    2152:	6562      	str	r2, [r4, #84]	; 0x54
    2154:	3020      	adds	r0, #32
    2156:	2578      	movs	r5, #120	; 0x78
    2158:	3430      	adds	r4, #48	; 0x30
    215a:	0a78      	lsrs	r0, r7, #9
    215c:	0000      	movs	r0, r0
    215e:	0000      	movs	r0, r0
    2160:	255b      	movs	r5, #91	; 0x5b
    2162:	5d75      	ldrb	r5, [r6, r5]
    2164:	5245      	strh	r5, [r0, r1]
    2166:	4f52      	ldr	r7, [pc, #328]	; (0x22b0)
    2168:	2152      	movs	r1, #82	; 0x52
    216a:	7320      	strb	r0, [r4, #12]
    216c:	6174      	str	r4, [r6, #20]
    216e:	6574      	str	r4, [r6, #84]	; 0x54
    2170:	6320      	str	r0, [r4, #48]	; 0x30
    2172:	6372      	str	r2, [r6, #52]	; 0x34
    2174:	3020      	adds	r0, #32
    2176:	2578      	movs	r5, #120	; 0x78
    2178:	3430      	adds	r4, #48	; 0x30
    217a:	2078      	movs	r0, #120	; 0x78
    217c:	202d      	movs	r0, #45	; 0x2d
    217e:	6873      	ldr	r3, [r6, #4]
    2180:	756f      	strb	r7, [r5, #21]
    2182:	646c      	str	r4, [r5, #68]	; 0x44
    2184:	6220      	str	r0, [r4, #32]
    2186:	2065      	movs	r0, #101	; 0x65
    2188:	7830      	ldrb	r0, [r6, #0]
    218a:	3025      	adds	r0, #37	; 0x25
    218c:	7834      	ldrb	r4, [r6, #0]
    218e:	000a      	movs	r2, r1
    2190:	6f43      	ldr	r3, [r0, #116]	; 0x74
    2192:	6572      	str	r2, [r6, #84]	; 0x54
    2194:	614d      	str	r5, [r1, #20]
    2196:	6b72      	ldr	r2, [r6, #52]	; 0x34
    2198:	5320      	strh	r0, [r4, r4]
    219a:	7a69      	ldrb	r1, [r5, #9]
    219c:	2065      	movs	r0, #101	; 0x65
    219e:	2020      	movs	r0, #32
    21a0:	3a20      	subs	r2, #32
    21a2:	2520      	movs	r5, #32
    21a4:	0a64      	lsrs	r4, r4, #9
    21a6:	0000      	movs	r0, r0
    21a8:	6f54      	ldr	r4, [r2, #116]	; 0x74
    21aa:	6174      	str	r4, [r6, #20]
    21ac:	206c      	movs	r0, #108	; 0x6c
    21ae:	6974      	ldr	r4, [r6, #20]
    21b0:	656d      	str	r5, [r5, #84]	; 0x54
    21b2:	2820      	cmp	r0, #32
    21b4:	736d      	strb	r5, [r5, #13]
    21b6:	2029      	movs	r0, #41	; 0x29
    21b8:	3a20      	subs	r2, #32
    21ba:	2520      	movs	r5, #32
    21bc:	0a64      	lsrs	r4, r4, #9
    21be:	0000      	movs	r0, r0
    21c0:	7449      	strb	r1, [r1, #17]
    21c2:	7265      	strb	r5, [r4, #9]
    21c4:	7461      	strb	r1, [r4, #17]
    21c6:	6f69      	ldr	r1, [r5, #116]	; 0x74
    21c8:	736e      	strb	r6, [r5, #13]
    21ca:	2020      	movs	r0, #32
    21cc:	2020      	movs	r0, #32
    21ce:	2020      	movs	r0, #32
    21d0:	3a20      	subs	r2, #32
    21d2:	2520      	movs	r5, #32
    21d4:	0a64      	lsrs	r4, r4, #9
    21d6:	0000      	movs	r0, r0
    21d8:	4347      	muls	r7, r0
    21da:	3843      	subs	r0, #67	; 0x43
    21dc:	312e      	adds	r1, #46	; 0x2e
    21de:	302e      	adds	r0, #46	; 0x2e
    21e0:	0000      	movs	r0, r0
    21e2:	0000      	movs	r0, r0
    21e4:	6f43      	ldr	r3, [r0, #116]	; 0x74
    21e6:	706d      	strb	r5, [r5, #1]
    21e8:	6c69      	ldr	r1, [r5, #68]	; 0x44
    21ea:	7265      	strb	r5, [r4, #9]
    21ec:	7620      	strb	r0, [r4, #24]
    21ee:	7265      	strb	r5, [r4, #9]
    21f0:	6973      	ldr	r3, [r6, #20]
    21f2:	6e6f      	ldr	r7, [r5, #100]	; 0x64
    21f4:	3a20      	subs	r2, #32
    21f6:	2520      	movs	r5, #32
    21f8:	0a73      	lsrs	r3, r6, #9
    21fa:	0000      	movs	r0, r0
    21fc:	6573      	str	r3, [r6, #84]	; 0x54
    21fe:	6465      	str	r5, [r4, #68]	; 0x44
    2200:	7263      	strb	r3, [r4, #9]
    2202:	2063      	movs	r0, #99	; 0x63
    2204:	2020      	movs	r0, #32
    2206:	2020      	movs	r0, #32
    2208:	2020      	movs	r0, #32
    220a:	2020      	movs	r0, #32
    220c:	3a20      	subs	r2, #32
    220e:	3020      	adds	r0, #32
    2210:	2578      	movs	r5, #120	; 0x78
    2212:	3430      	adds	r4, #48	; 0x30
    2214:	0a78      	lsrs	r0, r7, #9
    2216:	0000      	movs	r0, r0
    2218:	255b      	movs	r5, #91	; 0x5b
    221a:	5d64      	ldrb	r4, [r4, r5]
    221c:	7263      	strb	r3, [r4, #9]
    221e:	6c63      	ldr	r3, [r4, #68]	; 0x44
    2220:	7369      	strb	r1, [r5, #13]
    2222:	2074      	movs	r0, #116	; 0x74
    2224:	2020      	movs	r0, #32
    2226:	2020      	movs	r0, #32
    2228:	2020      	movs	r0, #32
    222a:	203a      	movs	r0, #58	; 0x3a
    222c:	7830      	ldrb	r0, [r6, #0]
    222e:	3025      	adds	r0, #37	; 0x25
    2230:	7834      	ldrb	r4, [r6, #0]
    2232:	000a      	movs	r2, r1
    2234:	255b      	movs	r5, #91	; 0x5b
    2236:	5d64      	ldrb	r4, [r4, r5]
    2238:	7263      	strb	r3, [r4, #9]
    223a:	6d63      	ldr	r3, [r4, #84]	; 0x54
    223c:	7461      	strb	r1, [r4, #17]
    223e:	6972      	ldr	r2, [r6, #20]
    2240:	2078      	movs	r0, #120	; 0x78
    2242:	2020      	movs	r0, #32
    2244:	2020      	movs	r0, #32
    2246:	203a      	movs	r0, #58	; 0x3a
    2248:	7830      	ldrb	r0, [r6, #0]
    224a:	3025      	adds	r0, #37	; 0x25
    224c:	7834      	ldrb	r4, [r6, #0]
    224e:	000a      	movs	r2, r1
    2250:	6946      	ldr	r6, [r0, #20]
    2252:	696e      	ldr	r6, [r5, #20]
    2254:	6573      	str	r3, [r6, #84]	; 0x54
    2256:	2064      	movs	r0, #100	; 0x64
    2258:	6e69      	ldr	r1, [r5, #100]	; 0x64
    225a:	2520      	movs	r5, #32
    225c:	2064      	movs	r0, #100	; 0x64
    225e:	736d      	strb	r5, [r5, #13]
    2260:	0a2e      	lsrs	r6, r5, #8
    2262:	0000      	movs	r0, r0
    2264:	255b      	movs	r5, #91	; 0x5b
    2266:	5d64      	ldrb	r4, [r4, r5]
    2268:	7263      	strb	r3, [r4, #9]
    226a:	7363      	strb	r3, [r4, #13]
    226c:	6174      	str	r4, [r6, #20]
    226e:	6574      	str	r4, [r6, #84]	; 0x54
    2270:	2020      	movs	r0, #32
    2272:	2020      	movs	r0, #32
    2274:	2020      	movs	r0, #32
    2276:	203a      	movs	r0, #58	; 0x3a
    2278:	7830      	ldrb	r0, [r6, #0]
    227a:	3025      	adds	r0, #37	; 0x25
    227c:	7834      	ldrb	r4, [r6, #0]
    227e:	000a      	movs	r2, r1
    2280:	255b      	movs	r5, #91	; 0x5b
    2282:	5d64      	ldrb	r4, [r4, r5]
    2284:	7263      	strb	r3, [r4, #9]
    2286:	6663      	str	r3, [r4, #100]	; 0x64
    2288:	6e69      	ldr	r1, [r5, #100]	; 0x64
    228a:	6c61      	ldr	r1, [r4, #68]	; 0x44
    228c:	2020      	movs	r0, #32
    228e:	2020      	movs	r0, #32
    2290:	2020      	movs	r0, #32
    2292:	203a      	movs	r0, #58	; 0x3a
    2294:	7830      	ldrb	r0, [r6, #0]
    2296:	3025      	adds	r0, #37	; 0x25
    2298:	7834      	ldrb	r4, [r6, #0]
    229a:	000a      	movs	r2, r1
    229c:	3d3d      	subs	r5, #61	; 0x3d
    229e:	3d3d      	subs	r5, #61	; 0x3d
    22a0:	3d3d      	subs	r5, #61	; 0x3d
    22a2:	3d3d      	subs	r5, #61	; 0x3d
    22a4:	3d3d      	subs	r5, #61	; 0x3d
    22a6:	3d3d      	subs	r5, #61	; 0x3d
    22a8:	3d3d      	subs	r5, #61	; 0x3d
    22aa:	3d3d      	subs	r5, #61	; 0x3d
    22ac:	3d3d      	subs	r5, #61	; 0x3d
    22ae:	3d3d      	subs	r5, #61	; 0x3d
    22b0:	3d3d      	subs	r5, #61	; 0x3d
    22b2:	3d3d      	subs	r5, #61	; 0x3d
    22b4:	3d3d      	subs	r5, #61	; 0x3d
    22b6:	3d3d      	subs	r5, #61	; 0x3d
    22b8:	3d3d      	subs	r5, #61	; 0x3d
    22ba:	3d3d      	subs	r5, #61	; 0x3d
    22bc:	3d3d      	subs	r5, #61	; 0x3d
    22be:	3d3d      	subs	r5, #61	; 0x3d
    22c0:	3d3d      	subs	r5, #61	; 0x3d
    22c2:	3d3d      	subs	r5, #61	; 0x3d
    22c4:	3d3d      	subs	r5, #61	; 0x3d
    22c6:	3d3d      	subs	r5, #61	; 0x3d
    22c8:	3d3d      	subs	r5, #61	; 0x3d
    22ca:	3d3d      	subs	r5, #61	; 0x3d
    22cc:	3d3d      	subs	r5, #61	; 0x3d
    22ce:	000a      	movs	r2, r1
    22d0:	6f43      	ldr	r3, [r0, #116]	; 0x74
    22d2:	6572      	str	r2, [r6, #84]	; 0x54
    22d4:	614d      	str	r5, [r1, #20]
    22d6:	6b72      	ldr	r2, [r6, #52]	; 0x34
    22d8:	5020      	str	r0, [r4, r0]
    22da:	5341      	strh	r1, [r0, r5]
    22dc:	2053      	movs	r0, #83	; 0x53
    22de:	2020      	movs	r0, #32
    22e0:	2020      	movs	r0, #32
    22e2:	2020      	movs	r0, #32
    22e4:	6425      	str	r5, [r4, #64]	; 0x40
    22e6:	4d20      	ldr	r5, [pc, #128]	; (0x2368)
    22e8:	7261      	strb	r1, [r4, #9]
    22ea:	736b      	strb	r3, [r5, #13]
    22ec:	000a      	movs	r2, r1
    22ee:	0000      	movs	r0, r0
    22f0:	2020      	movs	r0, #32
    22f2:	2020      	movs	r0, #32
    22f4:	2020      	movs	r0, #32
    22f6:	2020      	movs	r0, #32
    22f8:	2020      	movs	r0, #32
    22fa:	2020      	movs	r0, #32
    22fc:	2020      	movs	r0, #32
    22fe:	2020      	movs	r0, #32
    2300:	7376      	strb	r6, [r6, #13]
    2302:	202e      	movs	r0, #46	; 0x2e
    2304:	3031      	adds	r0, #49	; 0x31
    2306:	3030      	adds	r0, #48	; 0x30
    2308:	3030      	adds	r0, #48	; 0x30
    230a:	4d20      	ldr	r5, [pc, #128]	; (0x238c)
    230c:	7261      	strb	r1, [r4, #9]
    230e:	736b      	strb	r3, [r5, #13]
    2310:	2820      	cmp	r0, #32
    2312:	3769      	adds	r7, #105	; 0x69
    2314:	362d      	adds	r6, #45	; 0x2d
    2316:	3037      	adds	r0, #55	; 0x37
    2318:	2030      	movs	r0, #48	; 0x30
    231a:	2040      	movs	r0, #64	; 0x40
    231c:	2e33      	cmp	r6, #51	; 0x33
    231e:	3034      	adds	r0, #52	; 0x34
    2320:	4847      	ldr	r0, [pc, #284]	; (0x2440)
    2322:	297a      	cmp	r1, #122	; 0x7a
    2324:	000a      	movs	r2, r1
    2326:	0000      	movs	r0, r0
    2328:	7245      	strb	r5, [r0, #9]
    232a:	6f72      	ldr	r2, [r6, #116]	; 0x74
    232c:	7372      	strb	r2, [r6, #13]
    232e:	6420      	str	r0, [r4, #64]	; 0x40
    2330:	7465      	strb	r5, [r4, #17]
    2332:	6365      	str	r5, [r4, #52]	; 0x34
    2334:	6574      	str	r4, [r6, #84]	; 0x54
    2336:	0a64      	lsrs	r4, r4, #9
    2338:	0000      	movs	r0, r0
    233a:	0000      	movs	r0, r0
    233c:	6143      	str	r3, [r0, #20]
    233e:	6e6e      	ldr	r6, [r5, #100]	; 0x64
    2340:	746f      	strb	r7, [r5, #17]
    2342:	7620      	strb	r0, [r4, #24]
    2344:	6c61      	ldr	r1, [r4, #68]	; 0x44
    2346:	6469      	str	r1, [r5, #68]	; 0x44
    2348:	7461      	strb	r1, [r4, #17]
    234a:	2065      	movs	r0, #101	; 0x65
    234c:	706f      	strb	r7, [r5, #1]
    234e:	7265      	strb	r5, [r4, #9]
    2350:	7461      	strb	r1, [r4, #17]
    2352:	6f69      	ldr	r1, [r5, #116]	; 0x74
    2354:	206e      	movs	r0, #110	; 0x6e
    2356:	6f66      	ldr	r6, [r4, #116]	; 0x74
    2358:	2072      	movs	r0, #114	; 0x72
    235a:	6874      	ldr	r4, [r6, #4]
    235c:	7365      	strb	r5, [r4, #13]
    235e:	2065      	movs	r0, #101	; 0x65
    2360:	6573      	str	r3, [r6, #84]	; 0x54
    2362:	6465      	str	r5, [r4, #68]	; 0x44
    2364:	7620      	strb	r0, [r4, #24]
    2366:	6c61      	ldr	r1, [r4, #68]	; 0x44
    2368:	6575      	str	r5, [r6, #84]	; 0x54
    236a:	2c73      	cmp	r4, #115	; 0x73
    236c:	7020      	strb	r0, [r4, #0]
    236e:	656c      	str	r4, [r5, #84]	; 0x54
    2370:	7361      	strb	r1, [r4, #13]
    2372:	2065      	movs	r0, #101	; 0x65
    2374:	6f63      	ldr	r3, [r4, #116]	; 0x74
    2376:	706d      	strb	r5, [r5, #1]
    2378:	7261      	strb	r1, [r4, #9]
    237a:	2065      	movs	r0, #101	; 0x65
    237c:	6977      	ldr	r7, [r6, #20]
    237e:	6874      	ldr	r4, [r6, #4]
    2380:	7220      	strb	r0, [r4, #8]
    2382:	7365      	strb	r5, [r4, #13]
    2384:	6c75      	ldr	r5, [r6, #68]	; 0x44
    2386:	7374      	strb	r4, [r6, #13]
    2388:	6f20      	ldr	r0, [r4, #112]	; 0x70
    238a:	206e      	movs	r0, #110	; 0x6e
    238c:	2061      	movs	r0, #97	; 0x61
    238e:	6e6b      	ldr	r3, [r5, #100]	; 0x64
    2390:	776f      	strb	r7, [r5, #29]
    2392:	206e      	movs	r0, #110	; 0x6e
    2394:	6c70      	ldr	r0, [r6, #68]	; 0x44
    2396:	7461      	strb	r1, [r4, #17]
    2398:	6f66      	ldr	r6, [r4, #116]	; 0x74
    239a:	6d72      	ldr	r2, [r6, #84]	; 0x54
    239c:	0a2e      	lsrs	r6, r5, #8
    239e:	0000      	movs	r0, r0
    23a0:	7453      	strb	r3, [r2, #17]
    23a2:	7461      	strb	r1, [r4, #17]
    23a4:	6369      	str	r1, [r5, #52]	; 0x34
    23a6:	0000      	movs	r0, r0
    23a8:	6548      	str	r0, [r1, #84]	; 0x54
    23aa:	7061      	strb	r1, [r4, #1]
    23ac:	0000      	movs	r0, r0
    23ae:	0000      	movs	r0, r0
    23b0:	7453      	strb	r3, [r2, #17]
    23b2:	6361      	str	r1, [r4, #52]	; 0x34
    23b4:	006b      	lsls	r3, r5, #1
    23b6:	ffff 3054 	vshr.u32	<illegal reg q9.5>, q2, #1
    23ba:	332e      	adds	r3, #46	; 0x2e
    23bc:	2d65      	cmp	r5, #101	; 0x65
    23be:	4631      	mov	r1, r6
    23c0:	0000      	movs	r0, r0
    23c2:	0000      	movs	r0, r0
    23c4:	542d      	strb	r5, [r5, r0]
    23c6:	542e      	strb	r6, [r5, r0]
    23c8:	2b2b      	cmp	r3, #43	; 0x2b
    23ca:	7154      	strb	r4, [r2, #5]
    23cc:	0000      	movs	r0, r0
    23ce:	0000      	movs	r0, r0
    23d0:	5431      	strb	r1, [r6, r0]
    23d2:	2e33      	cmp	r6, #51	; 0x33
    23d4:	6534      	str	r4, [r6, #80]	; 0x50
    23d6:	7a34      	ldrb	r4, [r6, #8]
    23d8:	0000      	movs	r0, r0
    23da:	0000      	movs	r0, r0
    23dc:	3433      	adds	r4, #51	; 0x33
    23de:	302e      	adds	r0, #46	; 0x2e
    23e0:	2d65      	cmp	r5, #101	; 0x65
    23e2:	5e54      	ldrsh	r4, [r2, r1]
    23e4:	0000      	movs	r0, r0
    23e6:	0000      	movs	r0, r0
    23e8:	2e35      	cmp	r6, #53	; 0x35
    23ea:	3035      	adds	r0, #53	; 0x35
    23ec:	6530      	str	r0, [r6, #80]	; 0x50
    23ee:	332b      	adds	r3, #43	; 0x2b
    23f0:	0000      	movs	r0, r0
    23f2:	0000      	movs	r0, r0
    23f4:	2e2d      	cmp	r6, #45	; 0x2d
    23f6:	3231      	adds	r2, #49	; 0x31
    23f8:	6533      	str	r3, [r6, #80]	; 0x50
    23fa:	322d      	adds	r2, #45	; 0x2d
    23fc:	0000      	movs	r0, r0
    23fe:	0000      	movs	r0, r0
    2400:	382d      	subs	r0, #45	; 0x2d
    2402:	6537      	str	r7, [r6, #80]	; 0x50
    2404:	382b      	subs	r0, #43	; 0x2b
    2406:	3233      	adds	r2, #51	; 0x33
    2408:	0000      	movs	r0, r0
    240a:	0000      	movs	r0, r0
    240c:	302b      	adds	r0, #43	; 0x2b
    240e:	362e      	adds	r6, #46	; 0x2e
    2410:	2d65      	cmp	r5, #101	; 0x65
    2412:	3231      	adds	r2, #49	; 0x31
    2414:	0000      	movs	r0, r0
    2416:	0000      	movs	r0, r0
    2418:	3533      	adds	r5, #51	; 0x33
    241a:	352e      	adds	r5, #46	; 0x2e
    241c:	3434      	adds	r4, #52	; 0x34
    241e:	3030      	adds	r0, #48	; 0x30
    2420:	0000      	movs	r0, r0
    2422:	0000      	movs	r0, r0
    2424:	312e      	adds	r1, #46	; 0x2e
    2426:	3332      	adds	r3, #50	; 0x32
    2428:	3534      	adds	r5, #52	; 0x34
    242a:	3030      	adds	r0, #48	; 0x30
    242c:	0000      	movs	r0, r0
    242e:	0000      	movs	r0, r0
    2430:	312d      	adds	r1, #45	; 0x2d
    2432:	3031      	adds	r0, #49	; 0x31
    2434:	372e      	adds	r7, #46	; 0x2e
    2436:	3030      	adds	r0, #48	; 0x30
    2438:	0000      	movs	r0, r0
    243a:	0000      	movs	r0, r0
    243c:	302b      	adds	r0, #43	; 0x2b
    243e:	362e      	adds	r6, #46	; 0x2e
    2440:	3434      	adds	r4, #52	; 0x34
    2442:	3030      	adds	r0, #48	; 0x30
    2444:	0000      	movs	r0, r0
    2446:	0000      	movs	r0, r0
    2448:	3035      	adds	r0, #53	; 0x35
    244a:	3231      	adds	r2, #49	; 0x31
    244c:	0000      	movs	r0, r0
    244e:	0000      	movs	r0, r0
    2450:	3231      	adds	r2, #49	; 0x31
    2452:	3433      	adds	r4, #51	; 0x33
    2454:	0000      	movs	r0, r0
    2456:	0000      	movs	r0, r0
    2458:	382d      	subs	r0, #45	; 0x2d
    245a:	3437      	adds	r4, #55	; 0x37
    245c:	0000      	movs	r0, r0
    245e:	0000      	movs	r0, r0
    2460:	312b      	adds	r1, #43	; 0x2b
    2462:	3232      	adds	r2, #50	; 0x32
	...
    246c:	0001      	movs	r1, r0
    246e:	0000      	movs	r0, r0
    2470:	03e8      	lsls	r0, r5, #15
    2472:	0000      	movs	r0, r0
    2474:	0066      	lsls	r6, r4, #1
    2476:	0000      	movs	r0, r0
    2478:	199d      	adds	r5, r3, r6
    247a:	0800      	lsrs	r0, r0, #32
    247c:	196d      	adds	r5, r5, r5
    247e:	0800      	lsrs	r0, r0, #32
    2480:	6b64      	ldr	r4, [r4, #52]	; 0x34
    2482:	5241      	strh	r1, [r0, r1]
    2484:	004d      	lsls	r5, r1, #1
	...
