
test.gba:     file format binary


Disassembly of section .data:

00000000 <.data>:
       0:	002e      	movs	r6, r5
       2:	ea00 0000 	and.w	r0, r0, r0
	...
      ae:	0000      	movs	r0, r0
      b0:	3130      	adds	r1, #48	; 0x30
      b2:	0096      	lsls	r6, r2, #2
	...
      bc:	f000 0000 	and.w	r0, r0, #0
      c0:	0006      	movs	r6, r0
      c2:	ea00 0000 	and.w	r0, r0, r0
	...
      de:	0000      	movs	r0, r0
      e0:	0301      	lsls	r1, r0, #12
      e2:	e3a0      	b.n	0x826
      e4:	0208      	lsls	r0, r1, #8
      e6:	e580      	b.n	0xfffffbea
      e8:	0012      	movs	r2, r2
      ea:	e3a0      	b.n	0x82e
      ec:	f000 e129 			; <UNDEFINED> instruction: 0xf000e129
      f0:	d0b8      	beq.n	0x64
      f2:	e59f      	b.n	0xfffffc34
      f4:	001f      	movs	r7, r3
      f6:	e3a0      	b.n	0x83a
      f8:	f000 e129 			; <UNDEFINED> instruction: 0xf000e129
      fc:	d0b0      	beq.n	0x60
      fe:	e59f      	b.n	0xfffffc40
     100:	0001      	movs	r1, r0
     102:	e28f      	b.n	0x624
     104:	ff10 e12f 	vrhadd.u16	d14, d0, d31
     108:	482b      	ldr	r0, [pc, #172]	; (0x1b8)
     10a:	0140      	lsls	r0, r0, #5
     10c:	d20b      	bcs.n	0x126
     10e:	4678      	mov	r0, pc
     110:	0140      	lsls	r0, r0, #5
     112:	d30d      	bcc.n	0x130
     114:	2202      	movs	r2, #2
     116:	0612      	lsls	r2, r2, #24
     118:	4b28      	ldr	r3, [pc, #160]	; (0x1bc)
     11a:	1a9b      	subs	r3, r3, r2
     11c:	1c16      	adds	r6, r2, #0
     11e:	0091      	lsls	r1, r2, #2
     120:	f000 f83c 	bl	0x19c
     124:	4730      	bx	r6
     126:	2140      	movs	r1, #64	; 0x40
     128:	0309      	lsls	r1, r1, #12
     12a:	01c8      	lsls	r0, r1, #7
     12c:	f000 f82b 	bl	0x186
     130:	4823      	ldr	r0, [pc, #140]	; (0x1c0)
     132:	4924      	ldr	r1, [pc, #144]	; (0x1c4)
     134:	1a09      	subs	r1, r1, r0
     136:	f000 f826 	bl	0x186
     13a:	4823      	ldr	r0, [pc, #140]	; (0x1c8)
     13c:	4923      	ldr	r1, [pc, #140]	; (0x1cc)
     13e:	1a09      	subs	r1, r1, r0
     140:	f000 f821 	bl	0x186
     144:	4922      	ldr	r1, [pc, #136]	; (0x1d0)
     146:	4a23      	ldr	r2, [pc, #140]	; (0x1d4)
     148:	4c23      	ldr	r4, [pc, #140]	; (0x1d8)
     14a:	f000 f826 	bl	0x19a
     14e:	4923      	ldr	r1, [pc, #140]	; (0x1dc)
     150:	4a23      	ldr	r2, [pc, #140]	; (0x1e0)
     152:	4c24      	ldr	r4, [pc, #144]	; (0x1e4)
     154:	f000 f821 	bl	0x19a
     158:	4a23      	ldr	r2, [pc, #140]	; (0x1e8)
     15a:	4924      	ldr	r1, [pc, #144]	; (0x1ec)
     15c:	1a53      	subs	r3, r2, r1
     15e:	d002      	beq.n	0x166
     160:	4a23      	ldr	r2, [pc, #140]	; (0x1f0)
     162:	f000 f81b 	bl	0x19c
     166:	4923      	ldr	r1, [pc, #140]	; (0x1f4)
     168:	4a23      	ldr	r2, [pc, #140]	; (0x1f8)
     16a:	4c24      	ldr	r4, [pc, #144]	; (0x1fc)
     16c:	f000 f815 	bl	0x19a
     170:	4923      	ldr	r1, [pc, #140]	; (0x200)
     172:	4824      	ldr	r0, [pc, #144]	; (0x204)
     174:	6008      	str	r0, [r1, #0]
     176:	4b24      	ldr	r3, [pc, #144]	; (0x208)
     178:	f000 f80e 	bl	0x198
     17c:	2000      	movs	r0, #0
     17e:	2100      	movs	r1, #0
     180:	4b22      	ldr	r3, [pc, #136]	; (0x20c)
     182:	f000 f809 	bl	0x198
     186:	2203      	movs	r2, #3
     188:	1889      	adds	r1, r1, r2
     18a:	4391      	bics	r1, r2
     18c:	d003      	beq.n	0x196
     18e:	2200      	movs	r2, #0
     190:	c004      	stmia	r0!, {r2}
     192:	3904      	subs	r1, #4
     194:	d1fc      	bne.n	0x190
     196:	4770      	bx	lr
     198:	4718      	bx	r3
     19a:	1aa3      	subs	r3, r4, r2
     19c:	2003      	movs	r0, #3
     19e:	181b      	adds	r3, r3, r0
     1a0:	4383      	bics	r3, r0
     1a2:	d003      	beq.n	0x1ac
     1a4:	c901      	ldmia	r1!, {r0}
     1a6:	c201      	stmia	r2!, {r0}
     1a8:	3b04      	subs	r3, #4
     1aa:	d1fb      	bne.n	0x1a4
     1ac:	4770      	bx	lr
     1ae:	46c0      	nop			; (mov r8, r8)
     1b0:	7fa0      	ldrb	r0, [r4, #30]
     1b2:	0300      	lsls	r0, r0, #12
     1b4:	7f00      	ldrb	r0, [r0, #28]
     1b6:	0300      	lsls	r0, r0, #12
     1b8:	0000      	movs	r0, r0
     1ba:	0800      	lsrs	r0, r0, #32
     1bc:	0000      	movs	r0, r0
     1be:	0200      	lsls	r0, r0, #8
     1c0:	0000      	movs	r0, r0
     1c2:	0300      	lsls	r0, r0, #12
     1c4:	0868      	lsrs	r0, r5, #1
     1c6:	0300      	lsls	r0, r0, #12
     1c8:	0000      	movs	r0, r0
     1ca:	0200      	lsls	r0, r0, #8
     1cc:	0000      	movs	r0, r0
     1ce:	0200      	lsls	r0, r0, #8
     1d0:	2c6c      	cmp	r4, #108	; 0x6c
     1d2:	0800      	lsrs	r0, r0, #32
     1d4:	0868      	lsrs	r0, r5, #1
     1d6:	0300      	lsls	r0, r0, #12
     1d8:	087c      	lsrs	r4, r7, #1
     1da:	0300      	lsls	r0, r0, #12
     1dc:	2c6c      	cmp	r4, #108	; 0x6c
     1de:	0800      	lsrs	r0, r0, #32
     1e0:	0000      	movs	r0, r0
     1e2:	0300      	lsls	r0, r0, #12
     1e4:	0000      	movs	r0, r0
     1e6:	0300      	lsls	r0, r0, #12
     1e8:	2c80      	cmp	r4, #128	; 0x80
     1ea:	0800      	lsrs	r0, r0, #32
     1ec:	2c80      	cmp	r4, #128	; 0x80
     1ee:	0800      	lsrs	r0, r0, #32
     1f0:	087c      	lsrs	r4, r7, #1
     1f2:	0300      	lsls	r0, r0, #12
     1f4:	2c80      	cmp	r4, #128	; 0x80
     1f6:	0800      	lsrs	r0, r0, #32
     1f8:	0000      	movs	r0, r0
     1fa:	0200      	lsls	r0, r0, #8
     1fc:	0000      	movs	r0, r0
     1fe:	0200      	lsls	r0, r0, #8
     200:	008c      	lsls	r4, r1, #2
     202:	0300      	lsls	r0, r0, #12
     204:	0000      	movs	r0, r0
     206:	0204      	lsls	r4, r0, #8
     208:	26e8      	movs	r6, #232	; 0xe8
     20a:	0800      	lsrs	r0, r0, #32
     20c:	2024      	movs	r0, #36	; 0x24
     20e:	0800      	lsrs	r0, r0, #32
     210:	c00d      	stmia	r0!, {r0, r2, r3}
     212:	e1a0      	b.n	0x556
     214:	dff8      	svc	248	; 0xf8
     216:	e92d b004 	stmdb	sp!, {r2, ip, sp, pc}
     21a:	e24c      	b.n	0x6b6
     21c:	d028      	beq.n	0x270
     21e:	e24b      	b.n	0x6b8
     220:	6ff0      	ldr	r0, [r6, #124]	; 0x7c
     222:	e89d ff1e 	ldmia.w	sp, {r1, r2, r3, r4, r8, r9, sl, fp, ip, sp, lr, pc}
     226:	e12f      	b.n	0x488
     228:	0000      	movs	r0, r0
     22a:	e352      	b.n	0x8d2
     22c:	0003      	movs	r3, r0
     22e:	0a00      	lsrs	r0, r0, #8
     230:	00f2      	lsls	r2, r6, #3
     232:	e1d0      	b.n	0x5d6
     234:	30f2      	adds	r0, #242	; 0xf2
     236:	e1d1      	b.n	0x5dc
     238:	0003      	movs	r3, r0
     23a:	e040      	b.n	0x2be
     23c:	ff1e e12f 	vrhadd.u16	d14, d14, d31
     240:	30f0      	adds	r0, #240	; 0xf0
     242:	e1d0      	b.n	0x5e6
     244:	20ff      	movs	r0, #255	; 0xff
     246:	e3c3      	b.n	0x9d0
     248:	3803      	subs	r0, #3
     24a:	e1a0      	b.n	0x58e
     24c:	3c23      	subs	r4, #35	; 0x23
     24e:	e182      	b.n	0x556
     250:	30b0      	adds	r0, #176	; 0xb0
     252:	e1c0      	b.n	0x5d6
     254:	30f0      	adds	r0, #240	; 0xf0
     256:	e1d1      	b.n	0x5fc
     258:	20ff      	movs	r0, #255	; 0xff
     25a:	e3c3      	b.n	0x9e4
     25c:	3803      	subs	r0, #3
     25e:	e1a0      	b.n	0x5a2
     260:	3c23      	subs	r4, #35	; 0x23
     262:	e182      	b.n	0x56a
     264:	30b0      	adds	r0, #176	; 0xb0
     266:	e1c1      	b.n	0x5ec
     268:	fff0 eaff 			; <UNDEFINED> instruction: 0xfff0eaff
     26c:	40f0      	lsrs	r0, r6
     26e:	e92d 40f0 	stmdb	sp!, {r4, r5, r6, r7, lr}
     272:	e1d0      	b.n	0x616
     274:	0080      	lsls	r0, r0, #2
     276:	e314      	b.n	0x8a2
     278:	d00c      	beq.n	0x294
     27a:	e24d      	b.n	0x718
     27c:	607f      	str	r7, [r7, #4]
     27e:	1204      	asrs	r4, r0, #8
     280:	0013      	movs	r3, r2
     282:	1a00      	subs	r0, r0, r0
     284:	5001      	str	r1, [r0, r0]
     286:	e1a0      	b.n	0x5ca
     288:	11a4      	asrs	r4, r4, #6
     28a:	e1a0      	b.n	0x5ce
     28c:	100f      	asrs	r7, r1, #32
     28e:	e201      	b.n	0x694
     290:	2007      	movs	r0, #7
     292:	e214      	b.n	0x6be
     294:	3201      	adds	r2, #1
     296:	e181      	b.n	0x59c
     298:	7000      	strb	r0, [r0, #0]
     29a:	e1a0      	b.n	0x5de
     29c:	13b8      	asrs	r0, r7, #14
     29e:	e1d5      	b.n	0x64c
     2a0:	000f      	movs	r7, r1
     2a2:	0a00      	lsrs	r0, r0, #8
     2a4:	0001      	movs	r1, r0
     2a6:	e352      	b.n	0x94e
     2a8:	001e      	movs	r6, r3
     2aa:	0a00      	lsrs	r0, r0, #8
     2ac:	6004      	str	r4, [r0, #0]
     2ae:	e1a0      	b.n	0x5f2
     2b0:	0804      	lsrs	r4, r0, #32
     2b2:	e1a0      	b.n	0x5f6
     2b4:	0820      	lsrs	r0, r4, #32
     2b6:	e1a0      	b.n	0x5fa
     2b8:	06af      	lsls	r7, r5, #26
     2ba:	eb00 607f 	add.w	r0, r0, pc, ror #25
     2be:	e206      	b.n	0x6ce
     2c0:	40ff      	lsrs	r7, r7
     2c2:	e3c4      	b.n	0xa4e
     2c4:	4004      	ands	r4, r0
     2c6:	e186      	b.n	0x5d6
     2c8:	4080      	lsls	r0, r0
     2ca:	e384      	b.n	0x9d6
     2cc:	03b8      	lsls	r0, r7, #14
     2ce:	e1c5      	b.n	0x65c
     2d0:	40b0      	lsls	r0, r6
     2d2:	e1c7      	b.n	0x664
     2d4:	0006      	movs	r6, r0
     2d6:	e1a0      	b.n	0x61a
     2d8:	d00c      	beq.n	0x2f4
     2da:	e28d      	b.n	0x7f8
     2dc:	40f0      	lsrs	r0, r6
     2de:	e8bd ff1e 	ldmia.w	sp!, {r1, r2, r3, r4, r8, r9, sl, fp, ip, sp, lr, pc}
     2e2:	e12f      	b.n	0x544
     2e4:	0022      	movs	r2, r4
     2e6:	e353      	b.n	0x990
     2e8:	3022      	adds	r0, #34	; 0x22
     2ea:	b3a0      	cbz	r0, 0x356
     2ec:	1004      	asrs	r4, r0, #32
     2ee:	e58d      	b.n	0xfffffe0c
     2f0:	3000      	adds	r0, #0
     2f2:	e58d      	b.n	0xfffffe10
     2f4:	30f2      	adds	r0, #242	; 0xf2
     2f6:	e1d5      	b.n	0x6a4
     2f8:	20f0      	movs	r0, #240	; 0xf0
     2fa:	e1d5      	b.n	0x6a8
     2fc:	1014      	asrs	r4, r2, #32
     2fe:	e595      	b.n	0xfffffe2c
     300:	0018      	movs	r0, r3
     302:	e595      	b.n	0xfffffe30
     304:	0608      	lsls	r0, r1, #24
     306:	eb00 33be 	add.w	r3, r0, lr, ror #14
     30a:	e1d5      	b.n	0x6b8
     30c:	6800      	ldr	r0, [r0, #0]
     30e:	e1a0      	b.n	0x652
     310:	0000      	movs	r0, r0
     312:	e353      	b.n	0x9bc
     314:	6846      	ldr	r6, [r0, #4]
     316:	e1a0      	b.n	0x65a
     318:	000b      	movs	r3, r1
     31a:	1a00      	subs	r0, r0, r0
     31c:	03be      	lsls	r6, r7, #14
     31e:	e1c5      	b.n	0x6ac
     320:	13b8      	asrs	r0, r7, #14
     322:	e1d5      	b.n	0x6d0
     324:	ffe3 eaff 			; <UNDEFINED> instruction: 0xffe3eaff
     328:	2001      	movs	r0, #1
     32a:	e1a0      	b.n	0x66e
     32c:	0028      	movs	r0, r5
     32e:	e285      	b.n	0x83c
     330:	1003      	asrs	r3, r0, #32
     332:	e1a0      	b.n	0x676
     334:	04bd      	lsls	r5, r7, #18
     336:	eb00 33bc 	add.w	r3, r0, ip, ror #14
     33a:	e1d5      	b.n	0x6e8
     33c:	0000      	movs	r0, r0
     33e:	e353      	b.n	0x9e8
     340:	6800      	ldr	r0, [r0, #0]
     342:	e1a0      	b.n	0x686
     344:	03bc      	lsls	r4, r7, #14
     346:	01c5      	lsls	r5, r0, #7
     348:	6846      	ldr	r6, [r0, #4]
     34a:	e1a0      	b.n	0x68e
     34c:	13b8      	asrs	r0, r7, #14
     34e:	e1d5      	b.n	0x6fc
     350:	ffd8 eaff 			; <UNDEFINED> instruction: 0xffd8eaff
     354:	4070      	eors	r0, r6
     356:	e92d 6001 	stmdb	sp!, {r0, sp, lr}
     35a:	e1a0      	b.n	0x69e
     35c:	1002      	asrs	r2, r0, #32
     35e:	e1a0      	b.n	0x6a2
     360:	4002      	ands	r2, r0
     362:	e1a0      	b.n	0x6a6
     364:	ffc0 ebff 			; <UNDEFINED> instruction: 0xffc0ebff
     368:	1004      	asrs	r4, r0, #32
     36a:	e1a0      	b.n	0x6ae
     36c:	5000      	str	r0, [r0, r0]
     36e:	e1a0      	b.n	0x6b2
     370:	0006      	movs	r6, r0
     372:	e1a0      	b.n	0x6b6
     374:	ffbc ebff 			; <UNDEFINED> instruction: 0xffbcebff
     378:	0000      	movs	r0, r0
     37a:	e045      	b.n	0x408
     37c:	4070      	eors	r0, r6
     37e:	e8bd ff1e 	ldmia.w	sp!, {r1, r2, r3, r4, r8, r9, sl, fp, ip, sp, lr, pc}
     382:	e12f      	b.n	0x5e4
     384:	20f0      	movs	r0, #240	; 0xf0
     386:	e1d1      	b.n	0x72c
     388:	30f2      	adds	r0, #242	; 0xf2
     38a:	e1d1      	b.n	0x730
     38c:	20b0      	movs	r0, #176	; 0xb0
     38e:	e1c0      	b.n	0x712
     390:	30b2      	adds	r0, #178	; 0xb2
     392:	e1c0      	b.n	0x716
     394:	ff1e e12f 	vrhadd.u16	d14, d14, d31
     398:	4070      	eors	r0, r6
     39a:	e92d c000 	stmdb	sp!, {lr, pc}
     39e:	e592      	b.n	0xfffffec6
     3a0:	4010      	ands	r0, r2
     3a2:	e59d      	b.n	0xfffffee0
     3a4:	e008      	b.n	0x3b8
     3a6:	e28c      	b.n	0x8c2
     3a8:	0004      	movs	r4, r0
     3aa:	e15e      	b.n	0x66a
     3ac:	0014      	movs	r4, r2
     3ae:	2a00      	cmp	r2, #0
     3b0:	4000      	ands	r0, r0
     3b2:	e593      	b.n	0xfffffedc
     3b4:	6014      	str	r4, [r2, #0]
     3b6:	e59d      	b.n	0xfffffef4
     3b8:	5004      	str	r4, [r0, r0]
     3ba:	e284      	b.n	0x8c6
     3bc:	0005      	movs	r5, r0
     3be:	e156      	b.n	0x66e
     3c0:	000f      	movs	r7, r1
     3c2:	9a00      	ldr	r2, [sp, #0]
     3c4:	e000      	b.n	0x3c8
     3c6:	e582      	b.n	0xfffffece
     3c8:	2000      	movs	r0, #0
     3ca:	e590      	b.n	0xfffffeee
     3cc:	2000      	movs	r0, #0
     3ce:	e58c      	b.n	0xfffffeea
     3d0:	c000      	stmia	r0!, {}
     3d2:	e580      	b.n	0xfffffed6
     3d4:	4004      	ands	r4, r0
     3d6:	e58c      	b.n	0xfffffef2
     3d8:	2000      	movs	r0, #0
     3da:	e593      	b.n	0xffffff04
     3dc:	2004      	movs	r0, #4
     3de:	e282      	b.n	0x8e6
     3e0:	2000      	movs	r0, #0
     3e2:	e583      	b.n	0xfffffeec
     3e4:	00f0      	lsls	r0, r6, #3
     3e6:	e1d1      	b.n	0x78c
     3e8:	3004      	adds	r0, #4
     3ea:	e59c      	b.n	0xffffff26
     3ec:	20f2      	movs	r0, #242	; 0xf2
     3ee:	e1d1      	b.n	0x794
     3f0:	4070      	eors	r0, r6
     3f2:	e8bd 00b0 	ldmia.w	sp!, {r4, r5, r7}
     3f6:	e1c3      	b.n	0x780
     3f8:	20b2      	movs	r0, #178	; 0xb2
     3fa:	e1c3      	b.n	0x784
     3fc:	000c      	movs	r4, r1
     3fe:	e1a0      	b.n	0x742
     400:	ff1e e12f 	vrhadd.u16	d14, d14, d31
     404:	c000      	stmia	r0!, {}
     406:	e3a0      	b.n	0xb4a
     408:	4070      	eors	r0, r6
     40a:	e8bd 000c 	ldmia.w	sp!, {r2, r3}
     40e:	e1a0      	b.n	0x752
     410:	ff1e e12f 	vrhadd.u16	d14, d14, d31
     414:	2000      	movs	r0, #0
     416:	e1a0      	b.n	0x75a
     418:	1000      	asrs	r0, r0, #32
     41a:	e3a0      	b.n	0xb5e
     41c:	3000      	adds	r0, #0
     41e:	e590      	b.n	0xffffff42
     420:	e004      	b.n	0x42c
     422:	e52d      	b.n	0xfffffe80
     424:	0004      	movs	r4, r0
     426:	e590      	b.n	0xffffff4a
     428:	5000      	str	r0, [r0, r0]
     42a:	e893 e004 	ldmia.w	r3, {r2, sp, lr, pc}
     42e:	e582      	b.n	0xffffff36
     430:	0004      	movs	r4, r0
     432:	e583      	b.n	0xffffff3c
     434:	e004      	b.n	0x440
     436:	e49d      	b.n	0xfffffd74
     438:	0003      	movs	r3, r0
     43a:	e1a0      	b.n	0x77e
     43c:	c000      	stmia	r0!, {}
     43e:	e582      	b.n	0xffffff46
     440:	1000      	asrs	r0, r0, #32
     442:	e583      	b.n	0xffffff4c
     444:	ff1e e12f 	vrhadd.u16	d14, d14, d31
     448:	c004      	stmia	r0!, {r2}
     44a:	e590      	b.n	0xffffff6e
     44c:	2000      	movs	r0, #0
     44e:	e591      	b.n	0xffffff74
     450:	e004      	b.n	0x45c
     452:	e52d      	b.n	0xfffffeb0
     454:	e004      	b.n	0x460
     456:	e591      	b.n	0xffffff7c
     458:	e004      	b.n	0x464
     45a:	e580      	b.n	0xffffff5e
     45c:	c004      	stmia	r0!, {r2}
     45e:	e581      	b.n	0xffffff64
     460:	e004      	b.n	0x46c
     462:	e49d      	b.n	0xfffffda0
     464:	2000      	movs	r0, #0
     466:	e580      	b.n	0xffffff6a
     468:	0000      	movs	r0, r0
     46a:	e581      	b.n	0xffffff70
     46c:	ff1e e12f 	vrhadd.u16	d14, d14, d31
     470:	20f2      	movs	r0, #242	; 0xf2
     472:	e1d1      	b.n	0x818
     474:	0000      	movs	r0, r0
     476:	e352      	b.n	0xb1e
     478:	0009      	movs	r1, r1
     47a:	ba00      	rev	r0, r0
     47c:	0000      	movs	r0, r0
     47e:	e350      	b.n	0xb22
     480:	ff1e 012f 	vrhadd.u16	d0, d14, d31
     484:	3004      	adds	r0, #4
     486:	e590      	b.n	0xffffffaa
     488:	30f2      	adds	r0, #242	; 0xf2
     48a:	e1d3      	b.n	0x834
     48c:	0002      	movs	r2, r0
     48e:	e153      	b.n	0x738
     490:	ff1e 012f 	vrhadd.u16	d0, d14, d31
     494:	0000      	movs	r0, r0
     496:	e590      	b.n	0xffffffba
     498:	0000      	movs	r0, r0
     49a:	e350      	b.n	0xb3e
     49c:	fff8 1aff 			; <UNDEFINED> instruction: 0xfff81aff
     4a0:	ff1e e12f 	vrhadd.u16	d14, d14, d31
     4a4:	0000      	movs	r0, r0
     4a6:	e350      	b.n	0xb4a
     4a8:	ff1e 012f 	vrhadd.u16	d0, d14, d31
     4ac:	3004      	adds	r0, #4
     4ae:	e590      	b.n	0xffffffd2
     4b0:	20f0      	movs	r0, #240	; 0xf0
     4b2:	e1d1      	b.n	0x858
     4b4:	3000      	adds	r0, #0
     4b6:	e5d3      	b.n	0x60
     4b8:	0002      	movs	r2, r0
     4ba:	e153      	b.n	0x764
     4bc:	ff1e 012f 	vrhadd.u16	d0, d14, d31
     4c0:	0000      	movs	r0, r0
     4c2:	e590      	b.n	0xffffffe6
     4c4:	0000      	movs	r0, r0
     4c6:	e350      	b.n	0xb6a
     4c8:	ff1e 012f 	vrhadd.u16	d0, d14, d31
     4cc:	3004      	adds	r0, #4
     4ce:	e590      	b.n	0xfffffff2
     4d0:	3000      	adds	r0, #0
     4d2:	e5d3      	b.n	0x7c
     4d4:	0002      	movs	r2, r0
     4d6:	e153      	b.n	0x780
     4d8:	fff8 1aff 			; <UNDEFINED> instruction: 0xfff81aff
     4dc:	ff1e e12f 	vrhadd.u16	d14, d14, d31
     4e0:	0000      	movs	r0, r0
     4e2:	e350      	b.n	0xb86
     4e4:	ff1e 012f 	vrhadd.u16	d0, d14, d31
     4e8:	2000      	movs	r0, #0
     4ea:	e3a0      	b.n	0xc2e
     4ec:	3000      	adds	r0, #0
     4ee:	e590      	b.n	0x12
     4f0:	0000      	movs	r0, r0
     4f2:	e353      	b.n	0xb9c
     4f4:	2000      	movs	r0, #0
     4f6:	e580      	b.n	0xfffffffa
     4f8:	2000      	movs	r0, #0
     4fa:	e1a0      	b.n	0x83e
     4fc:	ff1e 012f 	vrhadd.u16	d0, d14, d31
     500:	0003      	movs	r3, r0
     502:	e1a0      	b.n	0x846
     504:	fff8 eaff 			; <UNDEFINED> instruction: 0xfff8eaff
     508:	4ff0      	ldr	r7, [pc, #960]	; (0x8cc)
     50a:	e92d 4000 	stmdb	sp!, {lr}
     50e:	e1a0      	b.n	0x852
     510:	b001      	add	sp, #4
     512:	e1a0      	b.n	0x856
     514:	8001      	strh	r1, [r0, #0]
     516:	e3a0      	b.n	0xc5a
     518:	d014      	beq.n	0x544
     51a:	e24d      	b.n	0x9b8
     51c:	200c      	movs	r0, #12
     51e:	e58d      	b.n	0x3c
     520:	0000      	movs	r0, r0
     522:	e354      	b.n	0xbce
     524:	003d      	movs	r5, r7
     526:	0a00      	lsrs	r0, r0, #8
     528:	3000      	adds	r0, #0
     52a:	e3a0      	b.n	0xc6e
     52c:	9003      	str	r0, [sp, #12]
     52e:	e1a0      	b.n	0x872
     530:	6003      	str	r3, [r0, #0]
     532:	e1a0      	b.n	0x876
     534:	3004      	adds	r0, #4
     536:	e58d      	b.n	0x54
     538:	2004      	movs	r0, #4
     53a:	e1a0      	b.n	0x87e
     53c:	5000      	str	r0, [r0, r0]
     53e:	e3a0      	b.n	0xc82
     540:	3004      	adds	r0, #4
     542:	e59d      	b.n	0x80
     544:	3001      	adds	r0, #1
     546:	e283      	b.n	0xa50
     548:	3004      	adds	r0, #4
     54a:	e58d      	b.n	0x68
     54c:	2000      	movs	r0, #0
     54e:	e592      	b.n	0x76
     550:	0000      	movs	r0, r0
     552:	e352      	b.n	0xbfa
     554:	5001      	str	r1, [r0, r0]
     556:	e285      	b.n	0xa64
     558:	0001      	movs	r1, r0
     55a:	0a00      	lsrs	r0, r0, #8
     55c:	0005      	movs	r5, r0
     55e:	e158      	b.n	0x812
     560:	fff9 1aff 			; <UNDEFINED> instruction: 0xfff91aff
     564:	a004      	add	r0, pc, #16	; (adr r0, 0x578)
     566:	e1a0      	b.n	0x8aa
     568:	7008      	strb	r0, [r1, #0]
     56a:	e1a0      	b.n	0x8ae
     56c:	8008      	strh	r0, [r1, #0]
     56e:	e58d      	b.n	0x8c
     570:	4002      	ands	r2, r0
     572:	e1a0      	b.n	0x8b6
     574:	800a      	strh	r2, [r1, #0]
     576:	e1a0      	b.n	0x8ba
     578:	a00c      	add	r0, pc, #48	; (adr r0, 0x5ac)
     57a:	e59d      	b.n	0xb8
     57c:	0010      	movs	r0, r2
     57e:	ea00 0000 	and.w	r0, r0, r0
     582:	e354      	b.n	0xc2e
     584:	0000      	movs	r0, r0
     586:	1357      	asrs	r7, r2, #13
     588:	0016      	movs	r6, r2
     58a:	0a00      	lsrs	r0, r0, #8
     58c:	200a      	movs	r0, #10
     58e:	e1a0      	b.n	0x8d2
     590:	1004      	asrs	r4, r0, #32
     592:	e594      	b.n	0xbe
     594:	0004      	movs	r4, r0
     596:	e598      	b.n	0xca
     598:	e00f      	b.n	0x5ba
     59a:	e1a0      	b.n	0x8de
     59c:	ff1b e12f 	vrhadd.u16	d14, d11, d31
     5a0:	0000      	movs	r0, r0
     5a2:	e350      	b.n	0xc46
     5a4:	000f      	movs	r7, r1
     5a6:	da00      	bge.n	0x5aa
     5a8:	2004      	movs	r0, #4
     5aa:	e1a0      	b.n	0x8ee
     5ac:	4000      	ands	r0, r0
     5ae:	e594      	b.n	0xda
     5b0:	7001      	strb	r1, [r0, #0]
     5b2:	e247      	b.n	0xa44
     5b4:	0000      	movs	r0, r0
     5b6:	e356      	b.n	0xc66
     5b8:	2000      	movs	r0, #0
     5ba:	1586      	asrs	r6, r0, #22
     5bc:	9002      	str	r0, [sp, #8]
     5be:	01a0      	lsls	r0, r4, #6
     5c0:	6002      	str	r2, [r0, #0]
     5c2:	e1a0      	b.n	0x906
     5c4:	0000      	movs	r0, r0
     5c6:	e355      	b.n	0xc74
     5c8:	ffec 1aff 			; <UNDEFINED> instruction: 0xffec1aff
     5cc:	0000      	movs	r0, r0
     5ce:	e354      	b.n	0xc7a
     5d0:	0000      	movs	r0, r0
     5d2:	1357      	asrs	r7, r2, #13
     5d4:	0007      	movs	r7, r0
     5d6:	da00      	bge.n	0x5da
     5d8:	2004      	movs	r0, #4
     5da:	e1a0      	b.n	0x91e
     5dc:	7001      	strb	r1, [r0, #0]
     5de:	e247      	b.n	0xa70
     5e0:	4000      	ands	r0, r0
     5e2:	e594      	b.n	0x10e
     5e4:	fff2 eaff 			; <UNDEFINED> instruction: 0xfff2eaff
     5e8:	2008      	movs	r0, #8
     5ea:	e1a0      	b.n	0x92e
     5ec:	5001      	str	r1, [r0, r0]
     5ee:	e245      	b.n	0xa7c
     5f0:	8000      	strh	r0, [r0, #0]
     5f2:	e598      	b.n	0x126
     5f4:	ffee eaff 			; <UNDEFINED> instruction: 0xffeeeaff
     5f8:	0000      	movs	r0, r0
     5fa:	e354      	b.n	0xca6
     5fc:	8008      	strh	r0, [r1, #0]
     5fe:	e59d      	b.n	0x13c
     600:	ffcc 1aff 			; <UNDEFINED> instruction: 0xffcc1aff
     604:	3004      	adds	r0, #4
     606:	e59d      	b.n	0x144
     608:	0001      	movs	r1, r0
     60a:	e353      	b.n	0xcb4
     60c:	4000      	ands	r0, r0
     60e:	e586      	b.n	0x11e
     610:	0004      	movs	r4, r0
     612:	0a00      	lsrs	r0, r0, #8
     614:	8088      	strh	r0, [r1, #4]
     616:	e1a0      	b.n	0x95a
     618:	4009      	ands	r1, r1
     61a:	e1a0      	b.n	0x95e
     61c:	ffbf eaff 			; <UNDEFINED> instruction: 0xffbfeaff
     620:	4000      	ands	r0, r0
     622:	e584      	b.n	0x12e
     624:	00f0      	lsls	r0, r6, #3
     626:	e7f0      	b.n	0x60a
     628:	0009      	movs	r1, r1
     62a:	e1a0      	b.n	0x96e
     62c:	d014      	beq.n	0x658
     62e:	e28d      	b.n	0xb4c
     630:	4ff0      	ldr	r7, [pc, #960]	; (0x9f4)
     632:	e8bd ff1e 	ldmia.w	sp!, {r1, r2, r3, r4, r8, r9, sl, fp, ip, sp, lr, pc}
     636:	e12f      	b.n	0x898
     638:	4ff0      	ldr	r7, [pc, #960]	; (0x9fc)
     63a:	e92d 5000 	stmdb	sp!, {ip, lr}
     63e:	e3a0      	b.n	0xd82
     640:	90f4      	str	r0, [sp, #976]	; 0x3d0
     642:	e1d0      	b.n	0x9e6
     644:	d014      	beq.n	0x670
     646:	e24d      	b.n	0xae4
     648:	0005      	movs	r5, r0
     64a:	e159      	b.n	0x900
     64c:	0004      	movs	r4, r0
     64e:	e58d      	b.n	0x16c
     650:	1000      	asrs	r0, r0, #32
     652:	e58d      	b.n	0x170
     654:	10be      	asrs	r6, r7, #2
     656:	e1cd      	b.n	0x9f4
     658:	4024      	ands	r4, r4
     65a:	e590      	b.n	0x17e
     65c:	50bc      	str	r4, [r7, r2]
     65e:	e1cd      	b.n	0x9fc
     660:	007d      	lsls	r5, r7, #1
     662:	da00      	bge.n	0x666
     664:	a001      	add	r0, pc, #4	; (adr r0, 0x66c)
     666:	e1a0      	b.n	0x9aa
     668:	7005      	strb	r5, [r0, #0]
     66a:	e1a0      	b.n	0x9ae
     66c:	6005      	str	r5, [r0, #0]
     66e:	e1a0      	b.n	0x9b2
     670:	b005      	add	sp, #20
     672:	e1a0      	b.n	0x9b6
     674:	800c      	strh	r4, [r1, #0]
     676:	e28d      	b.n	0xb94
     678:	c0ff      	stmia	r0!, {r0, r1, r2, r3, r4, r5, r6, r7}
     67a:	e205      	b.n	0xa88
     67c:	1008      	asrs	r0, r1, #32
     67e:	e1a0      	b.n	0x9c2
     680:	0004      	movs	r4, r0
     682:	e1a0      	b.n	0x9c6
     684:	c0bc      	stmia	r0!, {r2, r3, r4, r5, r7}
     686:	e1cd      	b.n	0xa24
     688:	ff78 ebff 	vqrdmlah.s<illegal width 64>	q15, q12, <illegal reg q15.5>
     68c:	0000      	movs	r0, r0
     68e:	e354      	b.n	0xd3a
     690:	0007      	movs	r7, r0
     692:	0a00      	lsrs	r0, r0, #8
     694:	c000      	stmia	r0!, {}
     696:	e3a0      	b.n	0xdda
     698:	0000      	movs	r0, r0
     69a:	ea00 4001 	and.w	r0, r0, r1, lsl #16
     69e:	e1a0      	b.n	0x9e2
     6a0:	1000      	asrs	r0, r0, #32
     6a2:	e594      	b.n	0x1ce
     6a4:	0000      	movs	r0, r0
     6a6:	e351      	b.n	0xd4c
     6a8:	c000      	stmia	r0!, {}
     6aa:	e584      	b.n	0x1b6
     6ac:	c004      	stmia	r0!, {r2}
     6ae:	e1a0      	b.n	0x9f2
     6b0:	fff9 1aff 			; <UNDEFINED> instruction: 0xfff91aff
     6b4:	0000      	movs	r0, r0
     6b6:	e350      	b.n	0xd5a
     6b8:	001a      	movs	r2, r3
     6ba:	0a00      	lsrs	r0, r0, #8
     6bc:	1004      	asrs	r4, r0, #32
     6be:	e590      	b.n	0x1e2
     6c0:	10f0      	asrs	r0, r6, #3
     6c2:	e1d1      	b.n	0xa68
     6c4:	0001      	movs	r1, r0
     6c6:	e311      	b.n	0xcec
     6c8:	1b01      	subs	r1, r0, r4
     6ca:	11a0      	asrs	r0, r4, #6
     6cc:	2fa1      	cmp	r7, #161	; 0xa1
     6ce:	108b      	asrs	r3, r1, #2
     6d0:	1000      	asrs	r0, r0, #32
     6d2:	e590      	b.n	0x1f6
     6d4:	b802      			; <UNDEFINED> instruction: 0xb802
     6d6:	11a0      	asrs	r0, r4, #6
     6d8:	b82b      			; <UNDEFINED> instruction: 0xb82b
     6da:	11a0      	asrs	r0, r4, #6
     6dc:	0000      	movs	r0, r0
     6de:	e351      	b.n	0xd84
     6e0:	c000      	stmia	r0!, {}
     6e2:	1591      	asrs	r1, r2, #22
     6e4:	c000      	stmia	r0!, {}
     6e6:	1580      	asrs	r0, r0, #22
     6e8:	0000      	movs	r0, r0
     6ea:	1594      	asrs	r4, r2, #22
     6ec:	6001      	str	r1, [r0, #0]
     6ee:	e286      	b.n	0xbfe
     6f0:	6806      	ldr	r6, [r0, #0]
     6f2:	e1a0      	b.n	0xa36
     6f4:	0000      	movs	r0, r0
     6f6:	1581      	asrs	r1, r0, #22
     6f8:	1000      	asrs	r0, r0, #32
     6fa:	1584      	asrs	r4, r0, #22
     6fc:	6826      	ldr	r6, [r4, #0]
     6fe:	e1a0      	b.n	0xa42
     700:	0000      	movs	r0, r0
     702:	e35a      	b.n	0xdba
     704:	3001      	adds	r0, #1
     706:	a28a      	add	r2, pc, #552	; (adr r2, 0x930)
     708:	5001      	str	r1, [r0, r0]
     70a:	e285      	b.n	0xc18
     70c:	30be      	adds	r0, #190	; 0xbe
     70e:	a1cd      	add	r1, pc, #820	; (adr r1, 0xa44)
     710:	3805      	subs	r0, #5
     712:	e1a0      	b.n	0xa56
     714:	3843      	subs	r0, #67	; 0x43
     716:	e1a0      	b.n	0xa5a
     718:	0003      	movs	r3, r0
     71a:	e159      	b.n	0x9d0
     71c:	000c      	movs	r4, r1
     71e:	da00      	bge.n	0x722
     720:	a0fe      	add	r0, pc, #1016	; (adr r0, 0xb1c)
     722:	e1dd      	b.n	0xae0
     724:	ffd3 eaff 			; <UNDEFINED> instruction: 0xffd3eaff
     728:	1000      	asrs	r0, r0, #32
     72a:	e594      	b.n	0x256
     72c:	1004      	asrs	r4, r0, #32
     72e:	e591      	b.n	0x254
     730:	10d1      	asrs	r1, r2, #3
     732:	e1d1      	b.n	0xad8
     734:	1001      	asrs	r1, r0, #32
     736:	e201      	b.n	0xb3c
     738:	7001      	strb	r1, [r0, #0]
     73a:	e287      	b.n	0xc4c
     73c:	2001      	movs	r0, #1
     73e:	e08b      	b.n	0x858
     740:	7807      	ldrb	r7, [r0, #0]
     742:	e1a0      	b.n	0xa86
     744:	b802      			; <UNDEFINED> instruction: 0xb802
     746:	e1a0      	b.n	0xa8a
     748:	7827      	ldrb	r7, [r4, #0]
     74a:	e1a0      	b.n	0xa8e
     74c:	b82b      			; <UNDEFINED> instruction: 0xb82b
     74e:	e1a0      	b.n	0xa92
     750:	ffea eaff 			; <UNDEFINED> instruction: 0xffeaeaff
     754:	5106      	str	r6, [r0, r4]
     756:	e067      	b.n	0x828
     758:	2005      	movs	r0, #5
     75a:	e08b      	b.n	0x874
     75c:	5802      	ldr	r2, [r0, r0]
     75e:	e1a0      	b.n	0xaa2
     760:	5825      	ldr	r5, [r4, r0]
     762:	e1a0      	b.n	0xaa6
     764:	3000      	adds	r0, #0
     766:	e59d      	b.n	0x2a4
     768:	0000      	movs	r0, r0
     76a:	e353      	b.n	0xe14
     76c:	0004      	movs	r4, r0
     76e:	da00      	bge.n	0x772
     770:	0004      	movs	r4, r0
     772:	e1a0      	b.n	0xab6
     774:	2004      	movs	r0, #4
     776:	e59d      	b.n	0x2b4
     778:	10e4      	asrs	r4, r4, #3
     77a:	e59f      	b.n	0x2bc
     77c:	ff61 ebff 	vqrdmlah.s32	q15, <illegal reg q8.5>, <illegal reg q15.5>
     780:	4000      	ands	r0, r0
     782:	e1a0      	b.n	0xac6
     784:	2000      	movs	r0, #0
     786:	e3a0      	b.n	0xeca
     788:	3000      	adds	r0, #0
     78a:	e594      	b.n	0x2b6
     78c:	0280      	lsls	r0, r0, #10
     78e:	e893 0004 	ldmia.w	r3, {r2}
     792:	e597      	b.n	0x2c4
     794:	0004      	movs	r4, r0
     796:	e583      	b.n	0x2a0
     798:	0000      	movs	r0, r0
     79a:	e597      	b.n	0x2cc
     79c:	9004      	str	r0, [sp, #16]
     79e:	e587      	b.n	0x2b0
     7a0:	1008      	asrs	r0, r1, #32
     7a2:	e1a0      	b.n	0xae6
     7a4:	0000      	movs	r0, r0
     7a6:	e583      	b.n	0x2b0
     7a8:	0004      	movs	r4, r0
     7aa:	e1a0      	b.n	0xaee
     7ac:	2000      	movs	r0, #0
     7ae:	e587      	b.n	0x2c0
     7b0:	ff2e ebff 	vqrdmlah.s32	q7, q15, <illegal reg q15.5>
     7b4:	6000      	str	r0, [r0, #0]
     7b6:	e250      	b.n	0xc5a
     7b8:	0023      	movs	r3, r4
     7ba:	0a00      	lsrs	r0, r0, #8
     7bc:	3004      	adds	r0, #4
     7be:	e594      	b.n	0x2ea
     7c0:	1005      	asrs	r5, r0, #32
     7c2:	e1a0      	b.n	0xb06
     7c4:	00f0      	lsls	r0, r6, #3
     7c6:	e1d3      	b.n	0xb70
     7c8:	0593      	lsls	r3, r2, #22
     7ca:	eb00 6000 	add.w	r0, r0, r0, lsl #24
     7ce:	e596      	b.n	0x2fe
     7d0:	0000      	movs	r0, r0
     7d2:	e356      	b.n	0xe82
     7d4:	5000      	str	r0, [r0, r0]
     7d6:	e1a0      	b.n	0xb1a
     7d8:	fff7 1aff 			; <UNDEFINED> instruction: 0xfff71aff
     7dc:	6000      	str	r0, [r0, #0]
     7de:	e594      	b.n	0x30a
     7e0:	9004      	str	r0, [sp, #16]
     7e2:	e597      	b.n	0x314
     7e4:	2004      	movs	r0, #4
     7e6:	e596      	b.n	0x316
     7e8:	3000      	adds	r0, #0
     7ea:	e596      	b.n	0x31a
     7ec:	0004      	movs	r4, r0
     7ee:	e1a0      	b.n	0xb32
     7f0:	2004      	movs	r0, #4
     7f2:	e587      	b.n	0x304
     7f4:	106c      	asrs	r4, r5, #1
     7f6:	e59f      	b.n	0x338
     7f8:	9004      	str	r0, [sp, #16]
     7fa:	e586      	b.n	0x30a
     7fc:	2000      	movs	r0, #0
     7fe:	e3a0      	b.n	0xf42
     800:	3000      	adds	r0, #0
     802:	e587      	b.n	0x314
     804:	7000      	strb	r0, [r0, #0]
     806:	e586      	b.n	0x316
     808:	ff3e ebff 	vqrdmlah.s<illegal width 64>	q7, q15, <illegal reg q15.5>
     80c:	4000      	ands	r0, r0
     80e:	e590      	b.n	0x332
     810:	0000      	movs	r0, r0
     812:	e354      	b.n	0xebe
     814:	6000      	str	r0, [r0, #0]
     816:	e1a0      	b.n	0xb5a
     818:	0007      	movs	r7, r0
     81a:	0a00      	lsrs	r0, r0, #8
     81c:	3004      	adds	r0, #4
     81e:	e596      	b.n	0x34e
     820:	1005      	asrs	r5, r0, #32
     822:	e1a0      	b.n	0xb66
     824:	00f0      	lsls	r0, r6, #3
     826:	e1d3      	b.n	0xbd0
     828:	057b      	lsls	r3, r7, #21
     82a:	eb00 4000 	add.w	r0, r0, r0, lsl #16
     82e:	e594      	b.n	0x35a
     830:	0000      	movs	r0, r0
     832:	e354      	b.n	0xede
     834:	5000      	str	r0, [r0, r0]
     836:	e1a0      	b.n	0xb7a
     838:	fff7 1aff 			; <UNDEFINED> instruction: 0xfff71aff
     83c:	0005      	movs	r5, r0
     83e:	e1a0      	b.n	0xb82
     840:	d014      	beq.n	0x86c
     842:	e28d      	b.n	0xd60
     844:	4ff0      	ldr	r7, [pc, #960]	; (0xc08)
     846:	e8bd ff1e 	ldmia.w	sp!, {r1, r2, r3, r4, r8, r9, sl, fp, ip, sp, lr, pc}
     84a:	e12f      	b.n	0xaac
     84c:	6000      	str	r0, [r0, #0]
     84e:	e594      	b.n	0x37a
     850:	0000      	movs	r0, r0
     852:	e356      	b.n	0xf02
     854:	ffd8 1aff 			; <UNDEFINED> instruction: 0xffd81aff
     858:	ffe1 eaff 			; <UNDEFINED> instruction: 0xffe1eaff
     85c:	800c      	strh	r4, [r1, #0]
     85e:	e28d      	b.n	0xd7c
     860:	ffbf eaff 			; <UNDEFINED> instruction: 0xffbfeaff
     864:	0354      	lsls	r4, r2, #13
     866:	0800      	lsrs	r0, r0, #32
     868:	0228      	lsls	r0, r5, #8
     86a:	0800      	lsrs	r0, r0, #32
     86c:	3000      	adds	r0, #0
     86e:	e3a0      	b.n	0xfb2
     870:	4ff0      	ldr	r7, [pc, #960]	; (0xc34)
     872:	e92d 6180 	stmdb	sp!, {r7, r8, sp, lr}
     876:	e59f      	b.n	0x3b8
     878:	c690      	stmia	r6!, {r4, r7}
     87a:	e08e      	b.n	0x99a
     87c:	622e      	str	r6, [r5, #32]
     87e:	e1a0      	b.n	0xbc2
     880:	7002      	strb	r2, [r0, #0]
     882:	e246      	b.n	0xd12
     884:	0187      	lsls	r7, r0, #6
     886:	e1a0      	b.n	0xbca
     888:	9000      	str	r0, [sp, #0]
     88a:	e081      	b.n	0x990
     88c:	c16c      	stmia	r1!, {r2, r3, r5, r6}
     88e:	e59f      	b.n	0x3d0
     890:	e010      	b.n	0x8b4
     892:	e281      	b.n	0xd98
     894:	d00c      	beq.n	0x8b0
     896:	e24d      	b.n	0xd34
     898:	000e      	movs	r6, r1
     89a:	e159      	b.n	0xb50
     89c:	0208      	lsls	r0, r1, #8
     89e:	e881 2004 	stmia.w	r1, {r2, sp}
     8a2:	e58d      	b.n	0x3c0
     8a4:	30b2      	adds	r0, #178	; 0xb2
     8a6:	e1c9      	b.n	0xc3c
     8a8:	a107      	add	r1, pc, #28	; (adr r1, 0x8c8)
     8aa:	e089      	b.n	0x9c0
     8ac:	c0b0      	stmia	r0!, {r4, r5, r7}
     8ae:	e181      	b.n	0xbb4
     8b0:	2004      	movs	r0, #4
     8b2:	e289      	b.n	0xdc8
     8b4:	c008      	stmia	r0!, {r3}
     8b6:	e281      	b.n	0xdbc
     8b8:	004b      	lsls	r3, r1, #1
     8ba:	9a00      	ldr	r2, [sp, #0]
     8bc:	5008      	str	r0, [r1, r0]
     8be:	e289      	b.n	0xdd4
     8c0:	0005      	movs	r5, r0
     8c2:	e15a      	b.n	0xb7a
     8c4:	0048      	lsls	r0, r1, #1
     8c6:	9a00      	ldr	r2, [sp, #0]
     8c8:	4000      	ands	r0, r0
     8ca:	e3e0      	b.n	0x108e
     8cc:	0902      	lsrs	r2, r0, #4
     8ce:	e3e0      	b.n	0x1092
     8d0:	3008      	adds	r0, #8
     8d2:	e581      	b.n	0x3d8
     8d4:	c000      	stmia	r0!, {}
     8d6:	e581      	b.n	0x3dc
     8d8:	200c      	movs	r0, #12
     8da:	e581      	b.n	0x3e0
     8dc:	40b4      	lsls	r4, r6
     8de:	e1c9      	b.n	0xc74
     8e0:	00b6      	lsls	r6, r6, #2
     8e2:	e1c9      	b.n	0xc78
     8e4:	0000      	movs	r0, r0
     8e6:	e357      	b.n	0xf98
     8e8:	001f      	movs	r7, r3
     8ea:	0a00      	lsrs	r0, r0, #8
     8ec:	4000      	ands	r0, r0
     8ee:	e3a0      	b.n	0x1032
     8f0:	b902      	cbnz	r2, 0x8f4
     8f2:	e3e0      	b.n	0x10b6
     8f4:	6007      	str	r7, [r0, #0]
     8f6:	e1a0      	b.n	0xc3a
     8f8:	3004      	adds	r0, #4
     8fa:	e59d      	b.n	0x438
     8fc:	0803      	lsrs	r3, r0, #32
     8fe:	e1a0      	b.n	0xc42
     900:	0820      	lsrs	r0, r4, #32
     902:	e1a0      	b.n	0xc46
     904:	2804      	cmp	r0, #4
     906:	e1a0      	b.n	0xc4a
     908:	2822      	cmp	r0, #34	; 0x22
     90a:	e1a0      	b.n	0xc4e
     90c:	3000      	adds	r0, #0
     90e:	e022      	b.n	0x956
     910:	3183      	adds	r1, #131	; 0x83
     912:	e1a0      	b.n	0xc56
     914:	3078      	adds	r0, #120	; 0x78
     916:	e203      	b.n	0xd20
     918:	2007      	movs	r0, #7
     91a:	e202      	b.n	0xd22
     91c:	7008      	strb	r0, [r1, #0]
     91e:	e28e      	b.n	0xe3e
     920:	2002      	movs	r0, #2
     922:	e183      	b.n	0xc2c
     924:	0007      	movs	r7, r0
     926:	e159      	b.n	0xbdc
     928:	4001      	ands	r1, r0
     92a:	e284      	b.n	0xe36
     92c:	8004      	strh	r4, [r0, #0]
     92e:	e285      	b.n	0xe3c
     930:	2402      	movs	r4, #2
     932:	e182      	b.n	0xc3a
     934:	0009      	movs	r1, r1
     936:	9a00      	ldr	r2, [sp, #0]
     938:	0008      	movs	r0, r1
     93a:	e15a      	b.n	0xbf2
     93c:	0007      	movs	r7, r0
     93e:	9a00      	ldr	r2, [sp, #0]
     940:	c000      	stmia	r0!, {}
     942:	e58e      	b.n	0x462
     944:	e000      	b.n	0x948
     946:	e581      	b.n	0x44c
     948:	c00e      	stmia	r0!, {r1, r2, r3}
     94a:	e1a0      	b.n	0xc8e
     94c:	5004      	str	r4, [r0, r0]
     94e:	e58e      	b.n	0x46e
     950:	20b0      	movs	r0, #176	; 0xb0
     952:	e1c5      	b.n	0xce0
     954:	b0b2      	sub	sp, #200	; 0xc8
     956:	e1c5      	b.n	0xce4
     958:	e007      	b.n	0x96a
     95a:	e1a0      	b.n	0xc9e
     95c:	5008      	str	r0, [r1, r0]
     95e:	e1a0      	b.n	0xca2
     960:	0004      	movs	r4, r0
     962:	e156      	b.n	0xc12
     964:	ffe6 1aff 			; <UNDEFINED> instruction: 0xffe61aff
     968:	7006      	strb	r6, [r0, #0]
     96a:	e1a0      	b.n	0xcae
     96c:	3000      	adds	r0, #0
     96e:	e59c      	b.n	0x4aa
     970:	0000      	movs	r0, r0
     972:	e353      	b.n	0x101c
     974:	0016      	movs	r6, r2
     976:	0a00      	lsrs	r0, r0, #8
     978:	2001      	movs	r0, #1
     97a:	e3a0      	b.n	0x10be
     97c:	3078      	adds	r0, #120	; 0x78
     97e:	e59f      	b.n	0x4c0
     980:	0793      	lsls	r3, r2, #30
     982:	e086      	b.n	0xa92
     984:	e078      	b.n	0xa78
     986:	e59f      	b.n	0x4c8
     988:	4004      	ands	r4, r0
     98a:	e59d      	b.n	0x4c8
     98c:	6126      	str	r6, [r4, #16]
     98e:	e1a0      	b.n	0xcd2
     990:	0002      	movs	r2, r0
     992:	e156      	b.n	0xc42
     994:	0802      	lsrs	r2, r0, #32
     996:	91a0      	str	r1, [sp, #640]	; 0x280
     998:	0820      	lsrs	r0, r4, #32
     99a:	91a0      	str	r1, [sp, #640]	; 0x280
     99c:	3001      	adds	r0, #1
     99e:	9280      	str	r2, [sp, #512]	; 0x200
     9a0:	3403      	adds	r4, #3
     9a2:	91a0      	str	r1, [sp, #640]	; 0x280
     9a4:	3c07      	subs	r4, #7
     9a6:	9203      	str	r2, [sp, #12]
     9a8:	0004      	movs	r4, r0
     9aa:	9020      	str	r0, [sp, #128]	; 0x80
     9ac:	3000      	adds	r0, #0
     9ae:	9183      	str	r1, [sp, #524]	; 0x20c
     9b0:	5004      	str	r4, [r0, r0]
     9b2:	e59c      	b.n	0x4ee
     9b4:	c000      	stmia	r0!, {}
     9b6:	e59c      	b.n	0x4f2
     9b8:	300e      	adds	r0, #14
     9ba:	9003      	str	r0, [sp, #12]
     9bc:	30b2      	adds	r0, #178	; 0xb2
     9be:	91c5      	str	r1, [sp, #788]	; 0x314
     9c0:	3000      	adds	r0, #0
     9c2:	e59c      	b.n	0x4fe
     9c4:	20b2      	movs	r0, #178	; 0xb2
     9c6:	81c5      	strh	r5, [r0, #14]
     9c8:	0000      	movs	r0, r0
     9ca:	e353      	b.n	0x1074
     9cc:	2001      	movs	r0, #1
     9ce:	e282      	b.n	0xed6
     9d0:	ffee 1aff 			; <UNDEFINED> instruction: 0xffee1aff
     9d4:	0001      	movs	r1, r0
     9d6:	e1a0      	b.n	0xd1a
     9d8:	2000      	movs	r0, #0
     9da:	e3a0      	b.n	0x111e
     9dc:	1024      	asrs	r4, r4, #32
     9de:	e59f      	b.n	0x520
     9e0:	d00c      	beq.n	0x9fc
     9e2:	e28d      	b.n	0xf00
     9e4:	4ff0      	ldr	r7, [pc, #960]	; (0xda8)
     9e6:	e8bd fec6 	ldmia.w	sp!, {r1, r2, r6, r7, r9, sl, fp, ip, sp, lr, pc}
     9ea:	eaff e00c 			; <UNDEFINED> instruction: 0xeaffe00c
     9ee:	e1a0      	b.n	0xd32
     9f0:	5002      	str	r2, [r0, r0]
     9f2:	e1a0      	b.n	0xd36
     9f4:	c003      	stmia	r0!, {r0, r1}
     9f6:	e1a0      	b.n	0xd3a
     9f8:	ffb9 eaff 			; <UNDEFINED> instruction: 0xffb9eaff
     9fc:	cccd      	ldmia	r4!, {r0, r2, r3, r6, r7}
     9fe:	cccc      	ldmia	r4!, {r2, r3, r6, r7}
     a00:	8080      	strh	r0, [r0, #4]
     a02:	ffff 3fff 			; <UNDEFINED> instruction: 0xffff3fff
     a06:	0000      	movs	r0, r0
     a08:	0228      	lsls	r0, r5, #8
     a0a:	0800      	lsrs	r0, r0, #32
     a0c:	000f      	movs	r7, r1
     a0e:	e92d 4ff0 	stmdb	sp!, {r4, r5, r6, r7, r8, r9, sl, fp, lr}
     a12:	e92d b000 	stmdb	sp!, {ip, sp, pc}
     a16:	e3a0      	b.n	0x115a
     a18:	d00c      	beq.n	0xa34
     a1a:	e24d      	b.n	0xeb8
     a1c:	3034      	adds	r0, #52	; 0x34
     a1e:	e28d      	b.n	0xf3c
     a20:	3004      	adds	r0, #4
     a22:	e58d      	b.n	0x540
     a24:	82e4      	strh	r4, [r4, #22]
     a26:	e59f      	b.n	0x568
     a28:	1030      	asrs	r0, r6, #32
     a2a:	e59d      	b.n	0x568
     a2c:	32e0      	adds	r2, #224	; 0xe0
     a2e:	e59f      	b.n	0x570
     a30:	62e0      	str	r0, [r4, #44]	; 0x2c
     a32:	e59f      	b.n	0x574
     a34:	0000      	movs	r0, r0
     a36:	e5d1      	b.n	0x5dc
     a38:	0000      	movs	r0, r0
     a3a:	e350      	b.n	0x10de
     a3c:	0026      	movs	r6, r4
     a3e:	0a00      	lsrs	r0, r0, #8
     a40:	0025      	movs	r5, r4
     a42:	e350      	b.n	0x10e6
     a44:	0028      	movs	r0, r5
     a46:	1a00      	subs	r0, r0, r0
     a48:	2001      	movs	r0, #1
     a4a:	e5d1      	b.n	0x5f0
     a4c:	0064      	lsls	r4, r4, #1
     a4e:	e352      	b.n	0x10f6
     a50:	1002      	asrs	r2, r0, #32
     a52:	e281      	b.n	0xf58
     a54:	003a      	movs	r2, r7
     a56:	0a00      	lsrs	r0, r0, #8
     a58:	002d      	movs	r5, r5
     a5a:	9a00      	ldr	r2, [sp, #0]
     a5c:	0073      	lsls	r3, r6, #1
     a5e:	e352      	b.n	0x1106
     a60:	0052      	lsls	r2, r2, #1
     a62:	0a00      	lsrs	r0, r0, #8
     a64:	0075      	lsls	r5, r6, #1
     a66:	e352      	b.n	0x110e
     a68:	fff1 1aff 			; <UNDEFINED> instruction: 0xfff11aff
     a6c:	2004      	movs	r0, #4
     a6e:	e59d      	b.n	0x5ac
     a70:	c000      	stmia	r0!, {}
     a72:	e592      	b.n	0x59a
     a74:	2004      	movs	r0, #4
     a76:	e282      	b.n	0xf7e
     a78:	0000      	movs	r0, r0
     a7a:	e35c      	b.n	0x1136
     a7c:	2004      	movs	r0, #4
     a7e:	e58d      	b.n	0x59c
     a80:	005d      	lsls	r5, r3, #1
     a82:	1a00      	subs	r0, r0, r0
     a84:	2030      	movs	r0, #48	; 0x30
     a86:	e3a0      	b.n	0x11ca
     a88:	7001      	strb	r1, [r0, #0]
     a8a:	e3a0      	b.n	0x11ce
     a8c:	2000      	movs	r0, #0
     a8e:	e5c8      	b.n	0x622
     a90:	b007      	add	sp, #28
     a92:	e7c8      	b.n	0xa26
     a94:	c000      	stmia	r0!, {}
     a96:	e5d8      	b.n	0x64a
     a98:	0000      	movs	r0, r0
     a9a:	e35c      	b.n	0x1156
     a9c:	ffe4 0aff 			; <UNDEFINED> instruction: 0xffe40aff
     aa0:	e274      	b.n	0xf8c
     aa2:	e59f      	b.n	0x5e4
     aa4:	2001      	movs	r0, #1
     aa6:	e5d3      	b.n	0x650
     aa8:	0001      	movs	r1, r0
     aaa:	e202      	b.n	0xeb2
     aac:	00a2      	lsls	r2, r4, #2
     aae:	e150      	b.n	0xd52
     ab0:	fffb 1aff 			; <UNDEFINED> instruction: 0xfffb1aff
     ab4:	c000      	stmia	r0!, {}
     ab6:	e5c3      	b.n	0x640
     ab8:	2001      	movs	r0, #1
     aba:	e5d3      	b.n	0x664
     abc:	2001      	movs	r0, #1
     abe:	e222      	b.n	0xf06
     ac0:	2001      	movs	r0, #1
     ac2:	e5c3      	b.n	0x64c
     ac4:	c001      	stmia	r0!, {r0}
     ac6:	e4de      	b.n	0x486
     ac8:	0000      	movs	r0, r0
     aca:	e35c      	b.n	0x1186
     acc:	fff4 1aff 			; <UNDEFINED> instruction: 0xfff41aff
     ad0:	0000      	movs	r0, r0
     ad2:	e5d1      	b.n	0x678
     ad4:	0000      	movs	r0, r0
     ad6:	e350      	b.n	0x117a
     ad8:	ffd8 1aff 			; <UNDEFINED> instruction: 0xffd81aff
     adc:	d00c      	beq.n	0xaf8
     ade:	e28d      	b.n	0xffc
     ae0:	4ff0      	ldr	r7, [pc, #960]	; (0xea4)
     ae2:	e8bd d010 	ldmia.w	sp!, {r4, ip, lr, pc}
     ae6:	e28d      	b.n	0x1004
     ae8:	ff1e e12f 	vrhadd.u16	d14, d14, d31
     aec:	2001      	movs	r0, #1
     aee:	e5d3      	b.n	0x698
     af0:	c001      	stmia	r0!, {r0}
     af2:	e202      	b.n	0xefa
     af4:	00a2      	lsls	r2, r4, #2
     af6:	e15c      	b.n	0xdb2
     af8:	fffb 1aff 			; <UNDEFINED> instruction: 0xfffb1aff
     afc:	0000      	movs	r0, r0
     afe:	e5c3      	b.n	0x688
     b00:	2001      	movs	r0, #1
     b02:	e5d3      	b.n	0x6ac
     b04:	2001      	movs	r0, #1
     b06:	e222      	b.n	0xf4e
     b08:	2001      	movs	r0, #1
     b0a:	e5c3      	b.n	0x694
     b0c:	1001      	asrs	r1, r0, #32
     b0e:	e281      	b.n	0x1014
     b10:	ffc7 eaff 			; <UNDEFINED> instruction: 0xffc7eaff
     b14:	0025      	movs	r5, r4
     b16:	e352      	b.n	0x11be
     b18:	ffc5 1aff 			; <UNDEFINED> instruction: 0xffc51aff
     b1c:	2001      	movs	r0, #1
     b1e:	e5d3      	b.n	0x6c8
     b20:	0001      	movs	r1, r0
     b22:	e202      	b.n	0xf2a
     b24:	00a2      	lsls	r2, r4, #2
     b26:	e150      	b.n	0xdca
     b28:	fffb 1aff 			; <UNDEFINED> instruction: 0xfffb1aff
     b2c:	2025      	movs	r0, #37	; 0x25
     b2e:	e3a0      	b.n	0x1272
     b30:	2000      	movs	r0, #0
     b32:	e5c3      	b.n	0x6bc
     b34:	2001      	movs	r0, #1
     b36:	e5d3      	b.n	0x6e0
     b38:	2001      	movs	r0, #1
     b3a:	e222      	b.n	0xf82
     b3c:	2001      	movs	r0, #1
     b3e:	e5c3      	b.n	0x6c8
     b40:	ffbb eaff 			; <UNDEFINED> instruction: 0xffbbeaff
     b44:	2004      	movs	r0, #4
     b46:	e59d      	b.n	0x684
     b48:	0000      	movs	r0, r0
     b4a:	e592      	b.n	0x672
     b4c:	2004      	movs	r0, #4
     b4e:	e282      	b.n	0x1056
     b50:	0000      	movs	r0, r0
     b52:	e350      	b.n	0x11f6
     b54:	2004      	movs	r0, #4
     b56:	e58d      	b.n	0x674
     b58:	0045      	lsls	r5, r0, #1
     b5a:	ba00      	rev	r0, r0
     b5c:	0067      	lsls	r7, r4, #1
     b5e:	1a00      	subs	r0, r0, r0
     b60:	2030      	movs	r0, #48	; 0x30
     b62:	e3a0      	b.n	0x12a6
     b64:	91b0      	str	r1, [sp, #704]	; 0x2c0
     b66:	e59f      	b.n	0x6a8
     b68:	2000      	movs	r0, #0
     b6a:	e5c8      	b.n	0x6fe
     b6c:	b000      	add	sp, #0
     b6e:	e5c9      	b.n	0x704
     b70:	c000      	stmia	r0!, {}
     b72:	e5d8      	b.n	0x726
     b74:	0000      	movs	r0, r0
     b76:	e35c      	b.n	0x1232
     b78:	ffad 0aff 			; <UNDEFINED> instruction: 0xffad0aff
     b7c:	e198      	b.n	0xeb0
     b7e:	e59f      	b.n	0x6c0
     b80:	2001      	movs	r0, #1
     b82:	e5d3      	b.n	0x72c
     b84:	0001      	movs	r1, r0
     b86:	e202      	b.n	0xf8e
     b88:	00a2      	lsls	r2, r4, #2
     b8a:	e150      	b.n	0xe2e
     b8c:	fffb 1aff 			; <UNDEFINED> instruction: 0xfffb1aff
     b90:	c000      	stmia	r0!, {}
     b92:	e5c3      	b.n	0x71c
     b94:	2001      	movs	r0, #1
     b96:	e5d3      	b.n	0x740
     b98:	2001      	movs	r0, #1
     b9a:	e222      	b.n	0xfe2
     b9c:	2001      	movs	r0, #1
     b9e:	e5c3      	b.n	0x728
     ba0:	c001      	stmia	r0!, {r0}
     ba2:	e4de      	b.n	0x562
     ba4:	0000      	movs	r0, r0
     ba6:	e35c      	b.n	0x1262
     ba8:	fff4 1aff 			; <UNDEFINED> instruction: 0xfff41aff
     bac:	ffa0 eaff 			; <UNDEFINED> instruction: 0xffa0eaff
     bb0:	2004      	movs	r0, #4
     bb2:	e59d      	b.n	0x6f0
     bb4:	e000      	b.n	0xbb8
     bb6:	e592      	b.n	0x6de
     bb8:	c000      	stmia	r0!, {}
     bba:	e5de      	b.n	0x77a
     bbc:	2004      	movs	r0, #4
     bbe:	e282      	b.n	0x10c6
     bc0:	0000      	movs	r0, r0
     bc2:	e35c      	b.n	0x127e
     bc4:	2004      	movs	r0, #4
     bc6:	e58d      	b.n	0x6e4
     bc8:	ff99 0aff 			; <UNDEFINED> instruction: 0xff990aff
     bcc:	2001      	movs	r0, #1
     bce:	e5d3      	b.n	0x778
     bd0:	0001      	movs	r1, r0
     bd2:	e202      	b.n	0xfda
     bd4:	00a2      	lsls	r2, r4, #2
     bd6:	e150      	b.n	0xe7a
     bd8:	fffb 1aff 			; <UNDEFINED> instruction: 0xfffb1aff
     bdc:	c000      	stmia	r0!, {}
     bde:	e5c3      	b.n	0x768
     be0:	2001      	movs	r0, #1
     be2:	e5d3      	b.n	0x78c
     be4:	2001      	movs	r0, #1
     be6:	e222      	b.n	0x102e
     be8:	2001      	movs	r0, #1
     bea:	e5c3      	b.n	0x774
     bec:	c001      	stmia	r0!, {r0}
     bee:	e5fe      	b.n	0x7ee
     bf0:	0000      	movs	r0, r0
     bf2:	e35c      	b.n	0x12ae
     bf4:	fff4 1aff 			; <UNDEFINED> instruction: 0xfff41aff
     bf8:	ff8d eaff 			; <UNDEFINED> instruction: 0xff8deaff
     bfc:	411c      	asrs	r4, r3
     bfe:	e59f      	b.n	0x740
     c00:	e000      	b.n	0xc04
     c02:	e3a0      	b.n	0x1346
     c04:	5004      	str	r4, [r0, r0]
     c06:	e1a0      	b.n	0xf4a
     c08:	0001      	movs	r1, r0
     c0a:	ea00 e007 			; <UNDEFINED> instruction: 0xea00e007
     c0e:	e1a0      	b.n	0xf52
     c10:	c000      	stmia	r0!, {}
     c12:	e1a0      	b.n	0xf56
     c14:	2c96      	cmp	r4, #150	; 0x96
     c16:	e080      	b.n	0xd1a
     c18:	01a0      	lsls	r0, r4, #6
     c1a:	e1a0      	b.n	0xf5e
     c1c:	2100      	movs	r1, #0
     c1e:	e080      	b.n	0xd22
     c20:	2082      	movs	r0, #130	; 0x82
     c22:	e04c      	b.n	0xcbe
     c24:	2030      	movs	r0, #48	; 0x30
     c26:	e282      	b.n	0x112e
     c28:	20ff      	movs	r0, #255	; 0xff
     c2a:	e202      	b.n	0x1032
     c2c:	0009      	movs	r1, r1
     c2e:	e35c      	b.n	0x12ea
     c30:	2001      	movs	r0, #1
     c32:	e5e5      	b.n	0x800
     c34:	7001      	strb	r1, [r0, #0]
     c36:	e28e      	b.n	0x1156
     c38:	fff3 8aff 			; <UNDEFINED> instruction: 0xfff38aff
     c3c:	0000      	movs	r0, r0
     c3e:	e35e      	b.n	0x12fe
     c40:	0030      	movs	r0, r6
     c42:	0a00      	lsrs	r0, r0, #8
     c44:	000e      	movs	r6, r1
     c46:	e1a0      	b.n	0xf8a
     c48:	c00e      	stmia	r0!, {r1, r2, r3}
     c4a:	e088      	b.n	0xd5e
     c4c:	0000      	movs	r0, r0
     c4e:	ea00 2001 	and.w	r0, r0, r1, lsl #8
     c52:	e57c      	b.n	0x74e
     c54:	0001      	movs	r1, r0
     c56:	e240      	b.n	0x10da
     c58:	5001      	str	r1, [r0, r0]
     c5a:	e5f4      	b.n	0x846
     c5c:	9000      	str	r0, [sp, #0]
     c5e:	e04e      	b.n	0xcfe
     c60:	0009      	movs	r1, r1
     c62:	e150      	b.n	0xf06
     c64:	2000      	movs	r0, #0
     c66:	e5c4      	b.n	0x7f2
     c68:	5000      	str	r0, [r0, r0]
     c6a:	e5cc      	b.n	0x806
     c6c:	fff7 8aff 			; <UNDEFINED> instruction: 0xfff78aff
     c70:	ff86 eaff 			; <UNDEFINED> instruction: 0xff86eaff
     c74:	202d      	movs	r0, #45	; 0x2d
     c76:	e3a0      	b.n	0x13ba
     c78:	7001      	strb	r1, [r0, #0]
     c7a:	e3a0      	b.n	0x13be
     c7c:	2000      	movs	r0, #0
     c7e:	e5c8      	b.n	0x812
     c80:	0000      	movs	r0, r0
     c82:	e260      	b.n	0x1146
     c84:	e007      	b.n	0xc96
     c86:	e088      	b.n	0xd9a
     c88:	500e      	str	r6, [r1, r0]
     c8a:	e1a0      	b.n	0xfce
     c8c:	4007      	ands	r7, r0
     c8e:	e1a0      	b.n	0xfd2
     c90:	0000      	movs	r0, r0
     c92:	ea00 400c 	and.w	r0, r0, ip, lsl #16
     c96:	e1a0      	b.n	0xfda
     c98:	2096      	movs	r0, #150	; 0x96
     c9a:	e08c      	b.n	0xdb6
     c9c:	c1ac      	stmia	r1!, {r2, r3, r5, r7}
     c9e:	e1a0      	b.n	0xfe2
     ca0:	210c      	movs	r1, #12
     ca2:	e08c      	b.n	0xdbe
     ca4:	2082      	movs	r0, #130	; 0x82
     ca6:	e040      	b.n	0xd2a
     ca8:	2030      	movs	r0, #48	; 0x30
     caa:	e282      	b.n	0x11b2
     cac:	20ff      	movs	r0, #255	; 0xff
     cae:	e202      	b.n	0x10b6
     cb0:	2001      	movs	r0, #1
     cb2:	e4c5      	b.n	0x640
     cb4:	0000      	movs	r0, r0
     cb6:	e25c      	b.n	0x1172
     cb8:	9005      	str	r0, [sp, #20]
     cba:	e1a0      	b.n	0xffe
     cbc:	c001      	stmia	r0!, {r0}
     cbe:	e284      	b.n	0x11ca
     cc0:	fff3 1aff 			; <UNDEFINED> instruction: 0xfff31aff
     cc4:	0004      	movs	r4, r0
     cc6:	e157      	b.n	0xf78
     cc8:	ffa7 2aff 			; <UNDEFINED> instruction: 0xffa72aff
     ccc:	0007      	movs	r7, r0
     cce:	e1a0      	b.n	0x1012
     cd0:	5004      	str	r4, [r0, r0]
     cd2:	e088      	b.n	0xde6
     cd4:	0000      	movs	r0, r0
     cd6:	ea00 2000 	and.w	r0, r0, r0, lsl #8
     cda:	e5d5      	b.n	0x888
     cdc:	0001      	movs	r1, r0
     cde:	e280      	b.n	0x11e2
     ce0:	c000      	stmia	r0!, {}
     ce2:	e047      	b.n	0xd74
     ce4:	a000      	add	r0, pc, #0	; (adr r0, 0xce8)
     ce6:	e5de      	b.n	0x8a6
     ce8:	c004      	stmia	r0!, {r2}
     cea:	e08c      	b.n	0xe06
     cec:	0000      	movs	r0, r0
     cee:	e15c      	b.n	0xfaa
     cf0:	2001      	movs	r0, #1
     cf2:	e4ce      	b.n	0x692
     cf4:	a001      	add	r0, pc, #4	; (adr r0, 0xcfc)
     cf6:	e445      	b.n	0x584
     cf8:	fff6 8aff 			; <UNDEFINED> instruction: 0xfff68aff
     cfc:	ff9a eaff 			; <UNDEFINED> instruction: 0xff9aeaff
     d00:	7000      	strb	r0, [r0, #0]
     d02:	e3a0      	b.n	0x1446
     d04:	ffde eaff 			; <UNDEFINED> instruction: 0xffdeeaff
     d08:	7001      	strb	r1, [r0, #0]
     d0a:	e3a0      	b.n	0x144e
     d0c:	ff5f eaff 	vpmin.u16	q15, <illegal reg q15.5>, <illegal reg q15.5>
     d10:	001c      	movs	r4, r3
     d12:	0300      	lsls	r0, r0, #12
     d14:	0400      	lsls	r0, r0, #16
     d16:	0400      	lsls	r0, r0, #16
     d18:	cccd      	ldmia	r4!, {r0, r2, r3, r6, r7}
     d1a:	cccc      	ldmia	r4!, {r2, r3, r6, r7}
     d1c:	001d      	movs	r5, r3
     d1e:	0300      	lsls	r0, r0, #12
     d20:	001b      	movs	r3, r3
     d22:	0300      	lsls	r0, r0, #12
     d24:	4070      	eors	r0, r6
     d26:	e92d 5000 	stmdb	sp!, {ip, lr}
     d2a:	e3a0      	b.n	0x146e
     d2c:	601c      	str	r4, [r3, #0]
     d2e:	e590      	b.n	0x852
     d30:	0005      	movs	r5, r0
     d32:	e156      	b.n	0xfe2
     d34:	5038      	str	r0, [r7, r0]
     d36:	e580      	b.n	0x83a
     d38:	503c      	str	r4, [r7, r0]
     d3a:	e580      	b.n	0x83e
     d3c:	0011      	movs	r1, r2
     d3e:	0a00      	lsrs	r0, r0, #8
     d40:	4000      	ands	r0, r0
     d42:	e1a0      	b.n	0x1086
     d44:	1001      	asrs	r1, r0, #32
     d46:	e3a0      	b.n	0x148a
     d48:	0004      	movs	r4, r0
     d4a:	e1a0      	b.n	0x108e
     d4c:	fe39 ebff 			; <UNDEFINED> instruction: 0xfe39ebff
     d50:	13b8      	asrs	r0, r7, #14
     d52:	e1d4      	b.n	0x10fe
     d54:	0408      	lsls	r0, r1, #16
     d56:	eb00 1000 	add.w	r0, r0, r0, lsl #4
     d5a:	e3e0      	b.n	0x151e
     d5c:	03b8      	lsls	r0, r7, #14
     d5e:	e1c4      	b.n	0x10ea
     d60:	0004      	movs	r4, r0
     d62:	e1a0      	b.n	0x10a6
     d64:	fe33 ebff 			; <UNDEFINED> instruction: 0xfe33ebff
     d68:	13b8      	asrs	r0, r7, #14
     d6a:	e1d4      	b.n	0x1116
     d6c:	0402      	lsls	r2, r0, #16
     d6e:	eb00 0000 	add.w	r0, r0, r0
     d72:	e355      	b.n	0x1420
     d74:	5001      	str	r1, [r0, r0]
     d76:	e285      	b.n	0x1284
     d78:	03ba      	lsls	r2, r7, #14
     d7a:	01c4      	lsls	r4, r0, #7
     d7c:	0005      	movs	r5, r0
     d7e:	e156      	b.n	0x102e
     d80:	03b8      	lsls	r0, r7, #14
     d82:	e1c4      	b.n	0x110e
     d84:	ffee 1aff 			; <UNDEFINED> instruction: 0xffee1aff
     d88:	0000      	movs	r0, r0
     d8a:	e3a0      	b.n	0x14ce
     d8c:	4070      	eors	r0, r6
     d8e:	e8bd ff1e 	ldmia.w	sp!, {r1, r2, r3, r4, r8, r9, sl, fp, ip, sp, lr, pc}
     d92:	e12f      	b.n	0xff4
     d94:	4ff0      	ldr	r7, [pc, #960]	; (0x1158)
     d96:	e92d 1001 	stmdb	sp!, {r0, ip}
     d9a:	e241      	b.n	0x1220
     d9c:	d014      	beq.n	0xdc8
     d9e:	e24d      	b.n	0x123c
     da0:	0000      	movs	r0, r0
     da2:	e352      	b.n	0x144a
     da4:	7003      	strb	r3, [r0, #0]
     da6:	e3c1      	b.n	0x152c
     da8:	2001      	movs	r0, #1
     daa:	03a0      	lsls	r0, r4, #14
     dac:	300c      	adds	r0, #12
     dae:	e58d      	b.n	0x8cc
     db0:	c000      	stmia	r0!, {}
     db2:	e250      	b.n	0x1256
     db4:	3004      	adds	r0, #4
     db6:	e287      	b.n	0x12c8
     db8:	3000      	adds	r0, #0
     dba:	e58d      	b.n	0x8d8
     dbc:	0000      	movs	r0, r0
     dbe:	13a0      	asrs	r0, r4, #14
     dc0:	0001      	movs	r1, r0
     dc2:	1a00      	subs	r0, r0, r0
     dc4:	003b      	movs	r3, r7
     dc6:	ea00 0003 	and.w	r0, r0, r3
     dca:	e1a0      	b.n	0x110e
     dcc:	3001      	adds	r0, #1
     dce:	e280      	b.n	0x12d2
     dd0:	0393      	lsls	r3, r2, #14
     dd2:	e001      	b.n	0xdd8
     dd4:	0181      	lsls	r1, r0, #6
     dd6:	e15c      	b.n	0x1092
     dd8:	fffa 8aff 			; <UNDEFINED> instruction: 0xfffa8aff
     ddc:	0090      	lsls	r0, r2, #2
     dde:	e003      	b.n	0xde8
     de0:	1000      	asrs	r0, r0, #32
     de2:	e59d      	b.n	0x920
     de4:	3083      	adds	r0, #131	; 0x83
     de6:	e1a0      	b.n	0x112a
     de8:	0000      	movs	r0, r0
     dea:	e350      	b.n	0x148e
     dec:	3008      	adds	r0, #8
     dee:	e58d      	b.n	0x90c
     df0:	8003      	strh	r3, [r0, #0]
     df2:	e081      	b.n	0xef8
     df4:	0004      	movs	r4, r0
     df6:	e58d      	b.n	0x914
     df8:	001f      	movs	r7, r3
     dfa:	0a00      	lsrs	r0, r0, #8
     dfc:	e001      	b.n	0xe02
     dfe:	e3a0      	b.n	0x1542
     e00:	a000      	add	r0, pc, #0	; (adr r0, 0xe04)
     e02:	e3a0      	b.n	0x1546
     e04:	60c8      	str	r0, [r1, #12]
     e06:	e59f      	b.n	0x948
     e08:	be10      	bkpt	0x0010
     e0a:	e1a0      	b.n	0x114e
     e0c:	9002      	str	r0, [sp, #8]
     e0e:	e248      	b.n	0x12a2
     e10:	c009      	stmia	r0!, {r0, r3}
     e12:	e1a0      	b.n	0x1156
     e14:	4000      	ands	r0, r0
     e16:	e3a0      	b.n	0x155a
     e18:	029e      	lsls	r6, r3, #10
     e1a:	e002      	b.n	0xe22
     e1c:	1000      	asrs	r0, r0, #32
     e1e:	e272      	b.n	0x1306
     e20:	1006      	asrs	r6, r0, #32
     e22:	e001      	b.n	0xe28
     e24:	380e      	subs	r0, #14
     e26:	e1a0      	b.n	0x116a
     e28:	2006      	movs	r0, #6
     e2a:	e002      	b.n	0xe32
     e2c:	3823      	subs	r0, #35	; 0x23
     e2e:	e1a0      	b.n	0x1172
     e30:	2000      	movs	r0, #0
     e32:	5261      	strh	r1, [r4, r1]
     e34:	1002      	asrs	r2, r0, #32
     e36:	e083      	b.n	0xf40
     e38:	1801      	adds	r1, r0, r0
     e3a:	e1a0      	b.n	0x117e
     e3c:	1821      	adds	r1, r4, r0
     e3e:	e1a0      	b.n	0x1182
     e40:	5007      	str	r7, [r0, r0]
     e42:	e08c      	b.n	0xf5e
     e44:	4001      	ands	r1, r0
     e46:	e284      	b.n	0x1352
     e48:	3003      	adds	r0, #3
     e4a:	e081      	b.n	0xf50
     e4c:	30ff      	adds	r0, #255	; 0xff
     e4e:	e203      	b.n	0x1258
     e50:	5008      	str	r0, [r1, r0]
     e52:	e045      	b.n	0xee0
     e54:	0000      	movs	r0, r0
     e56:	e154      	b.n	0x1102
     e58:	10b2      	asrs	r2, r6, #2
     e5a:	e1cc      	b.n	0x11f6
     e5c:	e001      	b.n	0xe62
     e5e:	e28e      	b.n	0x137e
     e60:	30b6      	adds	r0, #182	; 0xb6
     e62:	e1c5      	b.n	0x11f0
     e64:	c002      	stmia	r0!, {r1}
     e66:	e28c      	b.n	0x1382
     e68:	ffea 3aff 			; <UNDEFINED> instruction: 0xffea3aff
     e6c:	a001      	add	r0, pc, #4	; (adr r0, 0xe74)
     e6e:	e28a      	b.n	0x1386
     e70:	0000      	movs	r0, r0
     e72:	e15a      	b.n	0x112a
     e74:	900b      	str	r0, [sp, #44]	; 0x2c
     e76:	e089      	b.n	0xf8c
     e78:	ffe4 3aff 			; <UNDEFINED> instruction: 0xffe43aff
     e7c:	3008      	adds	r0, #8
     e7e:	e59d      	b.n	0x9bc
     e80:	3003      	adds	r0, #3
     e82:	e088      	b.n	0xf96
     e84:	3001      	adds	r0, #1
     e86:	e243      	b.n	0x1310
     e88:	200c      	movs	r0, #12
     e8a:	e59d      	b.n	0x9c8
     e8c:	3003      	adds	r0, #3
     e8e:	e3c3      	b.n	0x1618
     e90:	3004      	adds	r0, #4
     e92:	e283      	b.n	0x139c
     e94:	300c      	adds	r0, #12
     e96:	e582      	b.n	0x99e
     e98:	3002      	adds	r0, #2
     e9a:	e1a0      	b.n	0x11de
     e9c:	2000      	movs	r0, #0
     e9e:	e59d      	b.n	0x9dc
     ea0:	0104      	lsls	r4, r0, #4
     ea2:	e983 2004 			; <UNDEFINED> instruction: 0xe9832004
     ea6:	e59d      	b.n	0x9e4
     ea8:	2000      	movs	r0, #0
     eaa:	e583      	b.n	0x9b4
     eac:	d014      	beq.n	0xed8
     eae:	e28d      	b.n	0x13cc
     eb0:	4ff0      	ldr	r7, [pc, #960]	; (0x1274)
     eb2:	e8bd ff1e 	ldmia.w	sp!, {r1, r2, r3, r4, r8, r9, sl, fp, ip, sp, lr, pc}
     eb6:	e12f      	b.n	0x1118
     eb8:	3000      	adds	r0, #0
     eba:	e3e0      	b.n	0x167e
     ebc:	3004      	adds	r0, #4
     ebe:	e58d      	b.n	0x9dc
     ec0:	0003      	movs	r3, r0
     ec2:	e1a0      	b.n	0x1206
     ec4:	3002      	adds	r0, #2
     ec6:	e3a0      	b.n	0x160a
     ec8:	8006      	strh	r6, [r0, #0]
     eca:	e287      	b.n	0x13dc
     ecc:	3008      	adds	r0, #8
     ece:	e58d      	b.n	0x9ec
     ed0:	ffc9 eaff 			; <UNDEFINED> instruction: 0xffc9eaff
     ed4:	ffff 0000 	vaddl.u<illegal width 64>	q8, d15, d0
     ed8:	47f0      	blx	lr
     eda:	e92d 7000 	stmdb	sp!, {ip, sp, lr}
     ede:	e250      	b.n	0x1382
     ee0:	0022      	movs	r2, r4
     ee2:	0a00      	lsrs	r0, r0, #8
     ee4:	5000      	str	r0, [r0, r0]
     ee6:	e3a0      	b.n	0x162a
     ee8:	4107      	asrs	r7, r0
     eea:	e081      	b.n	0xff0
     eec:	0005      	movs	r5, r0
     eee:	e1a0      	b.n	0x1232
     ef0:	a005      	add	r0, pc, #20	; (adr r0, 0xf08)
     ef2:	e1a0      	b.n	0x1236
     ef4:	1005      	asrs	r5, r0, #32
     ef6:	e1a0      	b.n	0x123a
     ef8:	9f07      	ldr	r7, [sp, #28]
     efa:	e067      	b.n	0xfcc
     efc:	8e87      	ldrh	r7, [r0, #52]	; 0x34
     efe:	e067      	b.n	0xfd0
     f00:	9109      	str	r1, [sp, #36]	; 0x24
     f02:	e1a0      	b.n	0x1246
     f04:	8188      	strh	r0, [r1, #12]
     f06:	e1a0      	b.n	0x124a
     f08:	6004      	str	r4, [r0, #0]
     f0a:	e089      	b.n	0x1020
     f0c:	e006      	b.n	0xf1c
     f0e:	e1a0      	b.n	0x1252
     f10:	3800      	subs	r0, #0
     f12:	e1a0      	b.n	0x1256
     f14:	c004      	stmia	r0!, {r2}
     f16:	e49e      	b.n	0x856
     f18:	3823      	subs	r0, #35	; 0x23
     f1a:	e1a0      	b.n	0x125e
     f1c:	100c      	asrs	r4, r1, #32
     f1e:	e081      	b.n	0x1024
     f20:	000a      	movs	r2, r1
     f22:	e283      	b.n	0x142c
     f24:	0001      	movs	r1, r0
     f26:	e152      	b.n	0x11ce
     f28:	0800      	lsrs	r0, r0, #32
     f2a:	e1a0      	b.n	0x126e
     f2c:	0840      	lsrs	r0, r0, #1
     f2e:	b1a0      	cbz	r0, 0xf5a
     f30:	1000      	asrs	r0, r0, #32
     f32:	b3a0      	cbz	r0, 0xf9e
     f34:	0004      	movs	r4, r0
     f36:	ba00      	rev	r0, r0
     f38:	000a      	movs	r2, r1
     f3a:	e15c      	b.n	0x11f6
     f3c:	0003      	movs	r3, r0
     f3e:	d1a0      	bne.n	0xe82
     f40:	0001      	movs	r1, r0
     f42:	c283      	stmia	r2!, {r0, r1, r7}
     f44:	0800      	lsrs	r0, r0, #32
     f46:	e1a0      	b.n	0x128a
     f48:	0840      	lsrs	r0, r0, #1
     f4a:	e1a0      	b.n	0x128e
     f4c:	000e      	movs	r6, r1
     f4e:	e154      	b.n	0x11fa
     f50:	a00c      	add	r0, pc, #48	; (adr r0, 0xf84)
     f52:	e1a0      	b.n	0x1296
     f54:	ffed 1aff 			; <UNDEFINED> instruction: 0xffed1aff
     f58:	5001      	str	r1, [r0, r0]
     f5a:	e285      	b.n	0x1468
     f5c:	0005      	movs	r5, r0
     f5e:	e157      	b.n	0x1210
     f60:	4008      	ands	r0, r1
     f62:	e046      	b.n	0xff2
     f64:	ffe7 1aff 			; <UNDEFINED> instruction: 0xffe71aff
     f68:	47f0      	blx	lr
     f6a:	e8bd ff1e 	ldmia.w	sp!, {r1, r2, r3, r4, r8, r9, sl, fp, ip, sp, lr, pc}
     f6e:	e12f      	b.n	0x11d0
     f70:	0007      	movs	r7, r0
     f72:	e1a0      	b.n	0x12b6
     f74:	47f0      	blx	lr
     f76:	e8bd ff1e 	ldmia.w	sp!, {r1, r2, r3, r4, r8, r9, sl, fp, ip, sp, lr, pc}
     f7a:	e12f      	b.n	0x11dc
     f7c:	0000      	movs	r0, r0
     f7e:	e350      	b.n	0x1622
     f80:	ff1e 012f 	vrhadd.u16	d0, d14, d31
     f84:	47f0      	blx	lr
     f86:	e92d 5000 	stmdb	sp!, {ip, lr}
     f8a:	e3a0      	b.n	0x16ce
     f8c:	8f80      	ldrh	r0, [r0, #60]	; 0x3c
     f8e:	e060      	b.n	0x1052
     f90:	7f00      	ldrb	r0, [r0, #28]
     f92:	e060      	b.n	0x1056
     f94:	4004      	ands	r4, r0
     f96:	e241      	b.n	0x141c
     f98:	e080      	b.n	0x109c
     f9a:	e082      	b.n	0x10a2
     f9c:	8088      	strh	r0, [r1, #4]
     f9e:	e1a0      	b.n	0x12e2
     fa0:	7107      	strb	r7, [r0, #4]
     fa2:	e1a0      	b.n	0x12e6
     fa4:	9100      	str	r1, [sp, #0]
     fa6:	e1a0      	b.n	0x12ea
     fa8:	6008      	str	r0, [r1, #0]
     faa:	e08e      	b.n	0x10ca
     fac:	1006      	asrs	r6, r0, #32
     fae:	e1a0      	b.n	0x12f2
     fb0:	c004      	stmia	r0!, {r2}
     fb2:	e1a0      	b.n	0x12f6
     fb4:	a0f2      	add	r0, pc, #968	; (adr r0, 0x1380)
     fb6:	e0d1      	b.n	0x115c
     fb8:	0a93      	lsrs	r3, r2, #10
     fba:	e002      	b.n	0xfc2
     fbc:	000e      	movs	r6, r1
     fbe:	e151      	b.n	0x1264
     fc0:	2004      	movs	r0, #4
     fc2:	e5ac      	b.n	0xb1e
     fc4:	fffa 1aff 			; <UNDEFINED> instruction: 0xfffa1aff
     fc8:	5001      	str	r1, [r0, r0]
     fca:	e285      	b.n	0x14d8
     fcc:	0005      	movs	r5, r0
     fce:	e150      	b.n	0x1272
     fd0:	4009      	ands	r1, r1
     fd2:	e084      	b.n	0x10de
     fd4:	e007      	b.n	0xfe6
     fd6:	e046      	b.n	0x1066
     fd8:	fff2 1aff 			; <UNDEFINED> instruction: 0xfff21aff
     fdc:	47f0      	blx	lr
     fde:	e8bd ff1e 	ldmia.w	sp!, {r1, r2, r3, r4, r8, r9, sl, fp, ip, sp, lr, pc}
     fe2:	e12f      	b.n	0x1244
     fe4:	0000      	movs	r0, r0
     fe6:	e350      	b.n	0x168a
     fe8:	ff1e 012f 	vrhadd.u16	d0, d14, d31
     fec:	4070      	eors	r0, r6
     fee:	e92d e000 	stmdb	sp!, {sp, lr, pc}
     ff2:	e3a0      	b.n	0x1736
     ff4:	c802      	ldmia	r0!, {r1}
     ff6:	e1a0      	b.n	0x133a
     ff8:	6f80      	ldr	r0, [r0, #120]	; 0x78
     ffa:	e060      	b.n	0x10be
     ffc:	5f00      	ldrsh	r0, [r0, r4]
     ffe:	e060      	b.n	0x10c2
    1000:	c82c      	ldmia	r0!, {r2, r3, r5}
    1002:	e1a0      	b.n	0x1346
    1004:	1080      	asrs	r0, r0, #2
    1006:	e081      	b.n	0x110c
    1008:	6086      	str	r6, [r0, #8]
    100a:	e1a0      	b.n	0x134e
    100c:	5105      	str	r5, [r0, r4]
    100e:	e1a0      	b.n	0x1352
    1010:	4001      	ands	r1, r0
    1012:	e086      	b.n	0x1122
    1014:	3004      	adds	r0, #4
    1016:	e1a0      	b.n	0x135a
    1018:	20f0      	movs	r0, #240	; 0xf0
    101a:	e1d3      	b.n	0x13c4
    101c:	2002      	movs	r0, #2
    101e:	e08c      	b.n	0x113a
    1020:	20b2      	movs	r0, #178	; 0xb2
    1022:	e0c3      	b.n	0x11ac
    1024:	0003      	movs	r3, r0
    1026:	e151      	b.n	0x12cc
    1028:	fffa 1aff 			; <UNDEFINED> instruction: 0xfffa1aff
    102c:	e001      	b.n	0x1032
    102e:	e28e      	b.n	0x154e
    1030:	000e      	movs	r6, r1
    1032:	e150      	b.n	0x12d6
    1034:	1005      	asrs	r5, r0, #32
    1036:	e044      	b.n	0x10c2
    1038:	fff4 1aff 			; <UNDEFINED> instruction: 0xfff41aff
    103c:	4070      	eors	r0, r6
    103e:	e8bd ff1e 	ldmia.w	sp!, {r1, r2, r3, r4, r8, r9, sl, fp, ip, sp, lr, pc}
    1042:	e12f      	b.n	0x12a4
    1044:	0000      	movs	r0, r0
    1046:	e350      	b.n	0x16ea
    1048:	ff1e 012f 	vrhadd.u16	d0, d14, d31
    104c:	41f0      	rors	r0, r6
    104e:	e92d 4004 	stmdb	sp!, {r2, lr}
    1052:	e241      	b.n	0x14d8
    1054:	6002      	str	r2, [r0, #0]
    1056:	e243      	b.n	0x14e0
    1058:	8080      	strh	r0, [r0, #4]
    105a:	e1a0      	b.n	0x139e
    105c:	5002      	str	r2, [r0, r0]
    105e:	e242      	b.n	0x14e6
    1060:	7100      	strb	r0, [r0, #4]
    1062:	e084      	b.n	0x116e
    1064:	e008      	b.n	0x1078
    1066:	e086      	b.n	0x1176
    1068:	3006      	adds	r0, #6
    106a:	e1a0      	b.n	0x13ae
    106c:	1005      	asrs	r5, r0, #32
    106e:	e1a0      	b.n	0x13b2
    1070:	2000      	movs	r0, #0
    1072:	e3a0      	b.n	0x17b6
    1074:	4004      	ands	r4, r0
    1076:	e284      	b.n	0x1582
    1078:	c0f2      	stmia	r0!, {r1, r4, r5, r6, r7}
    107a:	e1f3      	b.n	0x1464
    107c:	00f2      	lsls	r2, r6, #3
    107e:	e1f1      	b.n	0x1464
    1080:	0003      	movs	r3, r0
    1082:	e15e      	b.n	0x1342
    1084:	209c      	movs	r0, #156	; 0x9c
    1086:	e022      	b.n	0x10ce
    1088:	fffa 1aff 			; <UNDEFINED> instruction: 0xfffa1aff
    108c:	0007      	movs	r7, r0
    108e:	e154      	b.n	0x133a
    1090:	2000      	movs	r0, #0
    1092:	e584      	b.n	0xb9e
    1094:	5008      	str	r0, [r1, r0]
    1096:	e085      	b.n	0x11a4
    1098:	fff2 1aff 			; <UNDEFINED> instruction: 0xfff21aff
    109c:	41f0      	rors	r0, r6
    109e:	e8bd ff1e 	ldmia.w	sp!, {r1, r2, r3, r4, r8, r9, sl, fp, ip, sp, lr, pc}
    10a2:	e12f      	b.n	0x1304
    10a4:	4ff0      	ldr	r7, [pc, #960]	; (0x1468)
    10a6:	e92d 0000 	stmdb	sp!, {}
    10aa:	e350      	b.n	0x174e
    10ac:	d00c      	beq.n	0x10c8
    10ae:	e24d      	b.n	0x154c
    10b0:	3004      	adds	r0, #4
    10b2:	e58d      	b.n	0xbd0
    10b4:	001d      	movs	r5, r3
    10b6:	0a00      	lsrs	r0, r0, #8
    10b8:	7002      	strb	r2, [r0, #0]
    10ba:	e1a0      	b.n	0x13fe
    10bc:	a000      	add	r0, pc, #0	; (adr r0, 0x10c0)
    10be:	e3a0      	b.n	0x1802
    10c0:	b080      	sub	sp, #0
    10c2:	e1a0      	b.n	0x1406
    10c4:	800b      	strh	r3, [r1, #0]
    10c6:	e083      	b.n	0x11d0
    10c8:	3100      	adds	r1, #0
    10ca:	e1a0      	b.n	0x140e
    10cc:	3000      	adds	r0, #0
    10ce:	e58d      	b.n	0xbec
    10d0:	9004      	str	r0, [sp, #16]
    10d2:	e241      	b.n	0x1558
    10d4:	400b      	ands	r3, r1
    10d6:	e082      	b.n	0x11de
    10d8:	6009      	str	r1, [r1, #0]
    10da:	e1a0      	b.n	0x141e
    10dc:	5004      	str	r4, [r0, r0]
    10de:	e59d      	b.n	0xc1c
    10e0:	1005      	asrs	r5, r0, #32
    10e2:	e1a0      	b.n	0x1426
    10e4:	3007      	adds	r0, #7
    10e6:	e1a0      	b.n	0x142a
    10e8:	2000      	movs	r0, #0
    10ea:	e3a0      	b.n	0x182e
    10ec:	6004      	str	r4, [r0, #0]
    10ee:	e286      	b.n	0x15fe
    10f0:	e0f2      	b.n	0x12d8
    10f2:	e0d3      	b.n	0x129c
    10f4:	c0fb      	stmia	r0!, {r0, r1, r3, r4, r5, r6, r7}
    10f6:	e091      	b.n	0x121c
    10f8:	0003      	movs	r3, r0
    10fa:	e154      	b.n	0x13a6
    10fc:	2c9e      	cmp	r4, #158	; 0x9e
    10fe:	e022      	b.n	0x1146
    1100:	fffa 1aff 			; <UNDEFINED> instruction: 0xfffa1aff
    1104:	5002      	str	r2, [r0, r0]
    1106:	e285      	b.n	0x1614
    1108:	0005      	movs	r5, r0
    110a:	e158      	b.n	0x13be
    110c:	2000      	movs	r0, #0
    110e:	e586      	b.n	0xc1e
    1110:	fff2 1aff 			; <UNDEFINED> instruction: 0xfff21aff
    1114:	a001      	add	r0, pc, #4	; (adr r0, 0x111c)
    1116:	e28a      	b.n	0x162e
    1118:	3000      	adds	r0, #0
    111a:	e59d      	b.n	0xc58
    111c:	000a      	movs	r2, r1
    111e:	e150      	b.n	0x13c2
    1120:	700b      	strb	r3, [r1, #0]
    1122:	e087      	b.n	0x1234
    1124:	400b      	ands	r3, r1
    1126:	e084      	b.n	0x1232
    1128:	9003      	str	r0, [sp, #12]
    112a:	e089      	b.n	0x1240
    112c:	ffe9 1aff 			; <UNDEFINED> instruction: 0xffe91aff
    1130:	d00c      	beq.n	0x114c
    1132:	e28d      	b.n	0x1650
    1134:	4ff0      	ldr	r7, [pc, #960]	; (0x14f8)
    1136:	e8bd ff1e 	ldmia.w	sp!, {r1, r2, r3, r4, r8, r9, sl, fp, ip, sp, lr, pc}
    113a:	e12f      	b.n	0x139c
    113c:	4ff0      	ldr	r7, [pc, #960]	; (0x1500)
    113e:	e92d 0000 	stmdb	sp!, {}
    1142:	e350      	b.n	0x17e6
    1144:	d014      	beq.n	0x1170
    1146:	e24d      	b.n	0x15e4
    1148:	300c      	adds	r0, #12
    114a:	e58d      	b.n	0xc68
    114c:	0024      	movs	r4, r4
    114e:	0a00      	lsrs	r0, r0, #8
    1150:	7002      	strb	r2, [r0, #0]
    1152:	e1a0      	b.n	0x1496
    1154:	a000      	add	r0, pc, #0	; (adr r0, 0x1158)
    1156:	e3a0      	b.n	0x189a
    1158:	b080      	sub	sp, #0
    115a:	e1a0      	b.n	0x149e
    115c:	800b      	strh	r3, [r1, #0]
    115e:	e083      	b.n	0x1268
    1160:	3100      	adds	r1, #0
    1162:	e1a0      	b.n	0x14a6
    1164:	3008      	adds	r0, #8
    1166:	e58d      	b.n	0xc84
    1168:	9004      	str	r0, [sp, #16]
    116a:	e241      	b.n	0x15f0
    116c:	400b      	ands	r3, r1
    116e:	e082      	b.n	0x1276
    1170:	6009      	str	r1, [r1, #0]
    1172:	e1a0      	b.n	0x14b6
    1174:	500c      	str	r4, [r1, r0]
    1176:	e59d      	b.n	0xcb4
    1178:	e005      	b.n	0x1186
    117a:	e1a0      	b.n	0x14be
    117c:	1007      	asrs	r7, r0, #32
    117e:	e1a0      	b.n	0x14c2
    1180:	c000      	stmia	r0!, {}
    1182:	e3a0      	b.n	0x18c6
    1184:	0004      	movs	r4, r0
    1186:	e58d      	b.n	0xca4
    1188:	6004      	str	r4, [r0, #0]
    118a:	e286      	b.n	0x169a
    118c:	20f2      	movs	r0, #242	; 0xf2
    118e:	e0d1      	b.n	0x1334
    1190:	30fb      	adds	r0, #251	; 0xfb
    1192:	e09e      	b.n	0x12d2
    1194:	0392      	lsls	r2, r2, #14
    1196:	e000      	b.n	0x119a
    1198:	2140      	movs	r1, #64	; 0x40
    119a:	e1a0      	b.n	0x14de
    119c:	32c0      	adds	r2, #192	; 0xc0
    119e:	e1a0      	b.n	0x14e2
    11a0:	200f      	movs	r0, #15
    11a2:	e202      	b.n	0x15aa
    11a4:	307f      	adds	r0, #127	; 0x7f
    11a6:	e203      	b.n	0x15b0
    11a8:	0001      	movs	r1, r0
    11aa:	e154      	b.n	0x1456
    11ac:	c293      	stmia	r2!, {r0, r1, r4, r7}
    11ae:	e02c      	b.n	0x120a
    11b0:	fff5 1aff 			; <UNDEFINED> instruction: 0xfff51aff
    11b4:	5002      	str	r2, [r0, r0]
    11b6:	e285      	b.n	0x16c4
    11b8:	0005      	movs	r5, r0
    11ba:	e158      	b.n	0x146e
    11bc:	0004      	movs	r4, r0
    11be:	e59d      	b.n	0xcfc
    11c0:	c000      	stmia	r0!, {}
    11c2:	e586      	b.n	0xcd2
    11c4:	ffeb 1aff 			; <UNDEFINED> instruction: 0xffeb1aff
    11c8:	a001      	add	r0, pc, #4	; (adr r0, 0x11d0)
    11ca:	e28a      	b.n	0x16e2
    11cc:	3008      	adds	r0, #8
    11ce:	e59d      	b.n	0xd0c
    11d0:	000a      	movs	r2, r1
    11d2:	e150      	b.n	0x1476
    11d4:	700b      	strb	r3, [r1, #0]
    11d6:	e087      	b.n	0x12e8
    11d8:	400b      	ands	r3, r1
    11da:	e084      	b.n	0x12e6
    11dc:	9003      	str	r0, [sp, #12]
    11de:	e089      	b.n	0x12f4
    11e0:	ffe2 1aff 			; <UNDEFINED> instruction: 0xffe21aff
    11e4:	d014      	beq.n	0x1210
    11e6:	e28d      	b.n	0x1704
    11e8:	4ff0      	ldr	r7, [pc, #960]	; (0x15ac)
    11ea:	e8bd ff1e 	ldmia.w	sp!, {r1, r2, r3, r4, r8, r9, sl, fp, ip, sp, lr, pc}
    11ee:	e12f      	b.n	0x1450
    11f0:	4ff0      	ldr	r7, [pc, #960]	; (0x15b4)
    11f2:	e92d 7000 	stmdb	sp!, {ip, sp, lr}
    11f6:	e250      	b.n	0x169a
    11f8:	d02c      	beq.n	0x1254
    11fa:	e24d      	b.n	0x1698
    11fc:	c5f0      	stmia	r5!, {r4, r5, r6, r7}
    11fe:	e1dd      	b.n	0x15bc
    1200:	000e      	movs	r6, r1
    1202:	e88d 00e8 	stmia.w	sp, {r3, r5, r6, r7}
    1206:	0a00      	lsrs	r0, r0, #8
    1208:	4a0c      	ldr	r2, [pc, #48]	; (0x123c)
    120a:	e1e0      	b.n	0x15ce
    120c:	1087      	asrs	r7, r0, #2
    120e:	e1a0      	b.n	0x1552
    1210:	0001      	movs	r1, r0
    1212:	e082      	b.n	0x131a
    1214:	4a24      	ldr	r2, [pc, #144]	; (0x12a8)
    1216:	e1e0      	b.n	0x15da
    1218:	2000      	movs	r0, #0
    121a:	e1a0      	b.n	0x155e
    121c:	8000      	strh	r0, [r0, #0]
    121e:	e3a0      	b.n	0x1962
    1220:	680c      	ldr	r4, [r1, #0]
    1222:	e1a0      	b.n	0x1566
    1224:	af87      	add	r7, sp, #540	; 0x21c
    1226:	e067      	b.n	0x12f8
    1228:	ef07 e067 	vhadd.s8	q7, <illegal reg q3.5>, <illegal reg q11.5>
    122c:	1018      	asrs	r0, r3, #32
    122e:	e58d      	b.n	0xd4c
    1230:	6826      	ldr	r6, [r4, #0]
    1232:	e1a0      	b.n	0x1576
    1234:	a08a      	add	r0, pc, #552	; (adr r0, 0x1460)
    1236:	e1a0      	b.n	0x157a
    1238:	e10e      	b.n	0x1458
    123a:	e1a0      	b.n	0x157e
    123c:	9002      	str	r0, [sp, #8]
    123e:	e08a      	b.n	0x1356
    1240:	3009      	adds	r0, #9
    1242:	e1a0      	b.n	0x1586
    1244:	10f0      	asrs	r0, r6, #3
    1246:	e1d3      	b.n	0x15f0
    1248:	1001      	asrs	r1, r0, #32
    124a:	e086      	b.n	0x135a
    124c:	10b2      	asrs	r2, r6, #2
    124e:	e0c3      	b.n	0x13d8
    1250:	0003      	movs	r3, r0
    1252:	e152      	b.n	0x14fa
    1254:	fffa 1aff 			; <UNDEFINED> instruction: 0xfffa1aff
    1258:	5001      	str	r1, [r0, r0]
    125a:	e288      	b.n	0x176e
    125c:	0005      	movs	r5, r0
    125e:	e157      	b.n	0x1510
    1260:	200e      	movs	r0, #14
    1262:	e049      	b.n	0x12f8
    1264:	8005      	strh	r5, [r0, #0]
    1266:	11a0      	asrs	r0, r4, #6
    1268:	fff3 1aff 			; <UNDEFINED> instruction: 0xfff31aff
    126c:	3000      	adds	r0, #0
    126e:	e59d      	b.n	0xdac
    1270:	b004      	add	sp, #16
    1272:	e243      	b.n	0x16fc
    1274:	3f05      	subs	r7, #5
    1276:	e065      	b.n	0x1344
    1278:	9103      	str	r1, [sp, #12]
    127a:	e1a0      	b.n	0x15be
    127c:	3105      	adds	r1, #5
    127e:	e1a0      	b.n	0x15c2
    1280:	501c      	str	r4, [r3, r0]
    1282:	e58d      	b.n	0xda0
    1284:	700b      	strb	r3, [r1, #0]
    1286:	e1a0      	b.n	0x15ca
    1288:	e000      	b.n	0x128c
    128a:	e3a0      	b.n	0x19ce
    128c:	5003      	str	r3, [r0, r0]
    128e:	e1a0      	b.n	0x15d2
    1290:	9010      	str	r0, [sp, #64]	; 0x40
    1292:	e58d      	b.n	0xdb0
    1294:	300c      	adds	r0, #12
    1296:	e58d      	b.n	0xdb4
    1298:	4014      	ands	r4, r2
    129a:	e58d      	b.n	0xdb8
    129c:	4000      	ands	r0, r0
    129e:	e08a      	b.n	0x13b6
    12a0:	2004      	movs	r0, #4
    12a2:	e1a0      	b.n	0x15e6
    12a4:	1007      	asrs	r7, r0, #32
    12a6:	e1a0      	b.n	0x15ea
    12a8:	30f2      	adds	r0, #242	; 0xf2
    12aa:	e0d2      	b.n	0x1452
    12ac:	039c      	lsls	r4, r3, #14
    12ae:	e003      	b.n	0x12b8
    12b0:	0000      	movs	r0, r0
    12b2:	e152      	b.n	0x155a
    12b4:	3004      	adds	r0, #4
    12b6:	e5a1      	b.n	0xdfc
    12b8:	fffa 1aff 			; <UNDEFINED> instruction: 0xfffa1aff
    12bc:	0008      	movs	r0, r1
    12be:	e15e      	b.n	0x157e
    12c0:	7005      	strb	r5, [r0, #0]
    12c2:	e087      	b.n	0x13d4
    12c4:	e001      	b.n	0x12ca
    12c6:	e28e      	b.n	0x17e6
    12c8:	0009      	movs	r1, r1
    12ca:	e044      	b.n	0x1356
    12cc:	fff2 1aff 			; <UNDEFINED> instruction: 0xfff21aff
    12d0:	0000      	movs	r0, r0
    12d2:	e3a0      	b.n	0x1a16
    12d4:	501c      	str	r4, [r3, r0]
    12d6:	e59d      	b.n	0xe14
    12d8:	3000      	adds	r0, #0
    12da:	e59d      	b.n	0xe18
    12dc:	200c      	movs	r0, #12
    12de:	e59d      	b.n	0xe1c
    12e0:	7002      	strb	r2, [r0, #0]
    12e2:	e083      	b.n	0x13ec
    12e4:	3e85      	subs	r6, #133	; 0x85
    12e6:	e065      	b.n	0x13b4
    12e8:	3183      	adds	r1, #131	; 0x83
    12ea:	e1a0      	b.n	0x162e
    12ec:	b024      	add	sp, #144	; 0x90
    12ee:	e58d      	b.n	0xe0c
    12f0:	e000      	b.n	0x12f4
    12f2:	e1a0      	b.n	0x1636
    12f4:	2000      	movs	r0, #0
    12f6:	e1a0      	b.n	0x163a
    12f8:	a000      	add	r0, pc, #0	; (adr r0, 0x12fc)
    12fa:	e1a0      	b.n	0x163e
    12fc:	b003      	add	sp, #12
    12fe:	e1a0      	b.n	0x1642
    1300:	4014      	ands	r4, r2
    1302:	e59d      	b.n	0xe40
    1304:	9007      	str	r0, [sp, #28]
    1306:	e1a0      	b.n	0x164a
    1308:	7014      	strb	r4, [r2, #0]
    130a:	e58d      	b.n	0xe28
    130c:	301c      	adds	r0, #28
    130e:	e58d      	b.n	0xe2c
    1310:	5020      	str	r0, [r4, r0]
    1312:	e58d      	b.n	0xe30
    1314:	7010      	strb	r0, [r2, #0]
    1316:	e59d      	b.n	0xe54
    1318:	5007      	str	r7, [r0, r0]
    131a:	e089      	b.n	0x1430
    131c:	c005      	stmia	r0!, {r0, r2}
    131e:	e1a0      	b.n	0x1662
    1320:	3800      	subs	r0, #0
    1322:	e1a0      	b.n	0x1666
    1324:	1004      	asrs	r4, r0, #32
    1326:	e49c      	b.n	0xc62
    1328:	3823      	subs	r0, #35	; 0x23
    132a:	e1a0      	b.n	0x166e
    132c:	2001      	movs	r0, #1
    132e:	e082      	b.n	0x1436
    1330:	000a      	movs	r2, r1
    1332:	e283      	b.n	0x183c
    1334:	0004      	movs	r4, r0
    1336:	e152      	b.n	0x15de
    1338:	0800      	lsrs	r0, r0, #32
    133a:	e1a0      	b.n	0x167e
    133c:	0840      	lsrs	r0, r0, #1
    133e:	c1a0      	stmia	r1!, {r5, r7}
    1340:	2000      	movs	r0, #0
    1342:	c3a0      	stmia	r3!, {r5, r7}
    1344:	0004      	movs	r4, r0
    1346:	ca00      	ldmia	r2!, {}
    1348:	000e      	movs	r6, r1
    134a:	e151      	b.n	0x15f0
    134c:	0003      	movs	r3, r0
    134e:	d1a0      	bne.n	0x1292
    1350:	0001      	movs	r1, r0
    1352:	c283      	stmia	r2!, {r0, r1, r7}
    1354:	0800      	lsrs	r0, r0, #32
    1356:	e1a0      	b.n	0x169a
    1358:	0840      	lsrs	r0, r0, #1
    135a:	e1a0      	b.n	0x169e
    135c:	000c      	movs	r4, r1
    135e:	e159      	b.n	0x1614
    1360:	e001      	b.n	0x1366
    1362:	e1a0      	b.n	0x16a6
    1364:	ffed 1aff 			; <UNDEFINED> instruction: 0xffed1aff
    1368:	0008      	movs	r0, r1
    136a:	e15a      	b.n	0x1622
    136c:	900b      	str	r0, [sp, #44]	; 0x2c
    136e:	e045      	b.n	0x13fc
    1370:	a001      	add	r0, pc, #4	; (adr r0, 0x1378)
    1372:	e28a      	b.n	0x188a
    1374:	ffe7 1aff 			; <UNDEFINED> instruction: 0xffe71aff
    1378:	1000      	asrs	r0, r0, #32
    137a:	e3a0      	b.n	0x1abe
    137c:	5020      	str	r0, [r4, r0]
    137e:	e28d      	b.n	0x189c
    1380:	0820      	lsrs	r0, r4, #32
    1382:	e895 7014 	ldmia.w	r5, {r2, r4, ip, sp, lr}
    1386:	e59d      	b.n	0xec4
    1388:	02a3      	lsls	r3, r4, #10
    138a:	eb00 000e 	add.w	r0, r0, lr
    138e:	e89d 0014 	ldmia.w	sp, {r2, r4}
    1392:	e58d      	b.n	0xeb0
    1394:	0005      	movs	r5, r0
    1396:	e1a0      	b.n	0x16da
    1398:	ff29 ebff 	vqrdmlah.s32	q7, <illegal reg q12.5>, <illegal reg q15.5>
    139c:	0000      	movs	r0, r0
    139e:	e3a0      	b.n	0x1ae2
    13a0:	2000      	movs	r0, #0
    13a2:	e1a0      	b.n	0x16e6
    13a4:	1000      	asrs	r0, r0, #32
    13a6:	e1a0      	b.n	0x16ea
    13a8:	9000      	str	r0, [sp, #0]
    13aa:	e1a0      	b.n	0x16ee
    13ac:	b024      	add	sp, #144	; 0x90
    13ae:	e58d      	b.n	0xecc
    13b0:	5020      	str	r0, [r4, r0]
    13b2:	e58d      	b.n	0xed0
    13b4:	a010      	add	r0, pc, #64	; (adr r0, 0x13f8)
    13b6:	e59d      	b.n	0xef4
    13b8:	b01c      	add	sp, #112	; 0x70
    13ba:	e59d      	b.n	0xef8
    13bc:	500a      	str	r2, [r1, r0]
    13be:	e087      	b.n	0x14d0
    13c0:	e005      	b.n	0x13ce
    13c2:	e1a0      	b.n	0x1706
    13c4:	3800      	subs	r0, #0
    13c6:	e1a0      	b.n	0x170a
    13c8:	c004      	stmia	r0!, {r2}
    13ca:	e49e      	b.n	0xd0a
    13cc:	3823      	subs	r0, #35	; 0x23
    13ce:	e1a0      	b.n	0x1712
    13d0:	100c      	asrs	r4, r1, #32
    13d2:	e081      	b.n	0x14d8
    13d4:	000a      	movs	r2, r1
    13d6:	e283      	b.n	0x18e0
    13d8:	0004      	movs	r4, r0
    13da:	e151      	b.n	0x1680
    13dc:	0800      	lsrs	r0, r0, #32
    13de:	e1a0      	b.n	0x1722
    13e0:	0840      	lsrs	r0, r0, #1
    13e2:	c1a0      	stmia	r1!, {r5, r7}
    13e4:	1000      	asrs	r0, r0, #32
    13e6:	c3a0      	stmia	r3!, {r5, r7}
    13e8:	0004      	movs	r4, r0
    13ea:	ca00      	ldmia	r2!, {}
    13ec:	0002      	movs	r2, r0
    13ee:	e15c      	b.n	0x16aa
    13f0:	0003      	movs	r3, r0
    13f2:	d1a0      	bne.n	0x1336
    13f4:	0001      	movs	r1, r0
    13f6:	c283      	stmia	r2!, {r0, r1, r7}
    13f8:	0800      	lsrs	r0, r0, #32
    13fa:	e1a0      	b.n	0x173e
    13fc:	0840      	lsrs	r0, r0, #1
    13fe:	e1a0      	b.n	0x1742
    1400:	000e      	movs	r6, r1
    1402:	e157      	b.n	0x16b4
    1404:	200c      	movs	r0, #12
    1406:	e1a0      	b.n	0x174a
    1408:	ffed 1aff 			; <UNDEFINED> instruction: 0xffed1aff
    140c:	0008      	movs	r0, r1
    140e:	e159      	b.n	0x16c4
    1410:	700b      	strb	r3, [r1, #0]
    1412:	e045      	b.n	0x14a0
    1414:	9001      	str	r0, [sp, #4]
    1416:	e289      	b.n	0x192c
    1418:	ffe7 1aff 			; <UNDEFINED> instruction: 0xffe71aff
    141c:	1014      	asrs	r4, r2, #32
    141e:	e59d      	b.n	0xf5c
    1420:	5020      	str	r0, [r4, r0]
    1422:	e28d      	b.n	0x1940
    1424:	0820      	lsrs	r0, r4, #32
    1426:	e895 027b 	ldmia.w	r5, {r0, r1, r3, r4, r5, r6, r9}
    142a:	eb00 000e 	add.w	r0, r0, lr
    142e:	e89d a000 	ldmia.w	sp, {sp, pc}
    1432:	e1a0      	b.n	0x1776
    1434:	0005      	movs	r5, r0
    1436:	e1a0      	b.n	0x177a
    1438:	ff19 ebff 	vqrdmlah.s16	q7, <illegal reg q12.5>, <illegal reg q15.5>
    143c:	0000      	movs	r0, r0
    143e:	e3a0      	b.n	0x1b82
    1440:	2000      	movs	r0, #0
    1442:	e1a0      	b.n	0x1786
    1444:	c000      	stmia	r0!, {}
    1446:	e1a0      	b.n	0x178a
    1448:	8000      	strh	r0, [r0, #0]
    144a:	e1a0      	b.n	0x178e
    144c:	900b      	str	r0, [sp, #44]	; 0x2c
    144e:	e1a0      	b.n	0x1792
    1450:	b010      	add	sp, #64	; 0x40
    1452:	e58d      	b.n	0xf70
    1454:	b00c      	add	sp, #48	; 0x30
    1456:	e59d      	b.n	0xf94
    1458:	7009      	strb	r1, [r1, #0]
    145a:	e1a0      	b.n	0x179e
    145c:	e000      	b.n	0x1460
    145e:	e3a0      	b.n	0x1ba2
    1460:	3800      	subs	r0, #0
    1462:	e1a0      	b.n	0x17a6
    1464:	1004      	asrs	r4, r0, #32
    1466:	e5b7      	b.n	0xfd8
    1468:	3823      	subs	r0, #35	; 0x23
    146a:	e1a0      	b.n	0x17ae
    146c:	c001      	stmia	r0!, {r0}
    146e:	e08c      	b.n	0x158a
    1470:	000a      	movs	r2, r1
    1472:	e283      	b.n	0x197c
    1474:	0004      	movs	r4, r0
    1476:	e15c      	b.n	0x1732
    1478:	0800      	lsrs	r0, r0, #32
    147a:	e1a0      	b.n	0x17be
    147c:	0840      	lsrs	r0, r0, #1
    147e:	c1a0      	stmia	r1!, {r5, r7}
    1480:	c000      	stmia	r0!, {}
    1482:	c3a0      	stmia	r3!, {r5, r7}
    1484:	0004      	movs	r4, r0
    1486:	ca00      	ldmia	r2!, {}
    1488:	0002      	movs	r2, r0
    148a:	e151      	b.n	0x1730
    148c:	0003      	movs	r3, r0
    148e:	d1a0      	bne.n	0x13d2
    1490:	0001      	movs	r1, r0
    1492:	c283      	stmia	r2!, {r0, r1, r7}
    1494:	0800      	lsrs	r0, r0, #32
    1496:	e1a0      	b.n	0x17da
    1498:	0840      	lsrs	r0, r0, #1
    149a:	e1a0      	b.n	0x17de
    149c:	e001      	b.n	0x14a2
    149e:	e28e      	b.n	0x19be
    14a0:	0005      	movs	r5, r0
    14a2:	e15e      	b.n	0x1762
    14a4:	2001      	movs	r0, #1
    14a6:	e1a0      	b.n	0x17ea
    14a8:	ffec 3aff 			; <UNDEFINED> instruction: 0xffec3aff
    14ac:	8001      	strh	r1, [r0, #0]
    14ae:	e288      	b.n	0x19c2
    14b0:	0005      	movs	r5, r0
    14b2:	e158      	b.n	0x1766
    14b4:	900b      	str	r0, [sp, #44]	; 0x2c
    14b6:	e089      	b.n	0x15cc
    14b8:	ffe6 3aff 			; <UNDEFINED> instruction: 0xffe63aff
    14bc:	100a      	asrs	r2, r1, #32
    14be:	e1a0      	b.n	0x1802
    14c0:	b010      	add	sp, #64	; 0x40
    14c2:	e59d      	b.n	0x1000
    14c4:	0254      	lsls	r4, r2, #9
    14c6:	eb00 000e 	add.w	r0, r0, lr
    14ca:	e89d 7000 	ldmia.w	sp, {ip, sp, lr}
    14ce:	e1a0      	b.n	0x1812
    14d0:	0005      	movs	r5, r0
    14d2:	e1a0      	b.n	0x1816
    14d4:	ff18 ebff 	vqrdmlah.s16	q7, q12, <illegal reg q15.5>
    14d8:	0000      	movs	r0, r0
    14da:	e3a0      	b.n	0x1c1e
    14dc:	2000      	movs	r0, #0
    14de:	e1a0      	b.n	0x1822
    14e0:	c000      	stmia	r0!, {}
    14e2:	e1a0      	b.n	0x1826
    14e4:	9000      	str	r0, [sp, #0]
    14e6:	e1a0      	b.n	0x182a
    14e8:	a00c      	add	r0, pc, #48	; (adr r0, 0x151c)
    14ea:	e59d      	b.n	0x1028
    14ec:	800b      	strh	r3, [r1, #0]
    14ee:	e1a0      	b.n	0x1832
    14f0:	e000      	b.n	0x14f4
    14f2:	e3a0      	b.n	0x1c36
    14f4:	3800      	subs	r0, #0
    14f6:	e1a0      	b.n	0x183a
    14f8:	1004      	asrs	r4, r0, #32
    14fa:	e5b8      	b.n	0x106e
    14fc:	3823      	subs	r0, #35	; 0x23
    14fe:	e1a0      	b.n	0x1842
    1500:	c001      	stmia	r0!, {r0}
    1502:	e08c      	b.n	0x161e
    1504:	000a      	movs	r2, r1
    1506:	e283      	b.n	0x1a10
    1508:	0004      	movs	r4, r0
    150a:	e15c      	b.n	0x17c6
    150c:	0800      	lsrs	r0, r0, #32
    150e:	e1a0      	b.n	0x1852
    1510:	0840      	lsrs	r0, r0, #1
    1512:	c1a0      	stmia	r1!, {r5, r7}
    1514:	c000      	stmia	r0!, {}
    1516:	c3a0      	stmia	r3!, {r5, r7}
    1518:	0004      	movs	r4, r0
    151a:	ca00      	ldmia	r2!, {}
    151c:	0002      	movs	r2, r0
    151e:	e151      	b.n	0x17c4
    1520:	0003      	movs	r3, r0
    1522:	d1a0      	bne.n	0x1466
    1524:	0001      	movs	r1, r0
    1526:	c283      	stmia	r2!, {r0, r1, r7}
    1528:	0800      	lsrs	r0, r0, #32
    152a:	e1a0      	b.n	0x186e
    152c:	0840      	lsrs	r0, r0, #1
    152e:	e1a0      	b.n	0x1872
    1530:	e001      	b.n	0x1536
    1532:	e28e      	b.n	0x1a52
    1534:	0005      	movs	r5, r0
    1536:	e15e      	b.n	0x17f6
    1538:	2001      	movs	r0, #1
    153a:	e1a0      	b.n	0x187e
    153c:	ffec 3aff 			; <UNDEFINED> instruction: 0xffec3aff
    1540:	9001      	str	r0, [sp, #4]
    1542:	e289      	b.n	0x1a58
    1544:	0005      	movs	r5, r0
    1546:	e159      	b.n	0x17fc
    1548:	b00a      	add	sp, #40	; 0x28
    154a:	e08b      	b.n	0x1664
    154c:	ffe6 3aff 			; <UNDEFINED> instruction: 0xffe63aff
    1550:	1007      	asrs	r7, r0, #32
    1552:	e1a0      	b.n	0x1896
    1554:	0230      	lsls	r0, r6, #8
    1556:	eb00 c000 			; <UNDEFINED> instruction: 0xeb00c000
    155a:	e3a0      	b.n	0x1c9e
    155c:	3004      	adds	r0, #4
    155e:	e59d      	b.n	0x109c
    1560:	4018      	ands	r0, r3
    1562:	e59d      	b.n	0x10a0
    1564:	e002      	b.n	0x156c
    1566:	e243      	b.n	0x19f0
    1568:	100e      	asrs	r6, r1, #32
    156a:	e1a0      	b.n	0x18ae
    156c:	2000      	movs	r0, #0
    156e:	e3a0      	b.n	0x1cb2
    1570:	30b2      	adds	r0, #178	; 0xb2
    1572:	e1f1      	b.n	0x1958
    1574:	2001      	movs	r0, #1
    1576:	e282      	b.n	0x1a7e
    1578:	3006      	adds	r0, #6
    157a:	e043      	b.n	0x1604
    157c:	0005      	movs	r5, r0
    157e:	e152      	b.n	0x1826
    1580:	30b0      	adds	r0, #176	; 0xb0
    1582:	e1c1      	b.n	0x1908
    1584:	fff9 3aff 			; <UNDEFINED> instruction: 0xfff93aff
    1588:	c001      	stmia	r0!, {r0}
    158a:	e28c      	b.n	0x1aa6
    158c:	0005      	movs	r5, r0
    158e:	e15c      	b.n	0x184a
    1590:	e004      	b.n	0x159c
    1592:	e08e      	b.n	0x16b2
    1594:	fff3 3aff 			; <UNDEFINED> instruction: 0xfff33aff
    1598:	0800      	lsrs	r0, r0, #32
    159a:	e1a0      	b.n	0x18de
    159c:	0840      	lsrs	r0, r0, #1
    159e:	e1a0      	b.n	0x18e2
    15a0:	d02c      	beq.n	0x15fc
    15a2:	e28d      	b.n	0x1ac0
    15a4:	4ff0      	ldr	r7, [pc, #960]	; (0x1968)
    15a6:	e8bd ff1e 	ldmia.w	sp!, {r1, r2, r3, r4, r8, r9, sl, fp, ip, sp, lr, pc}
    15aa:	e12f      	b.n	0x180c
    15ac:	1007      	asrs	r7, r0, #32
    15ae:	e1a0      	b.n	0x18f2
    15b0:	0219      	lsls	r1, r3, #8
    15b2:	eb00 4000 	add.w	r0, r0, r0, lsl #16
    15b6:	e1a0      	b.n	0x18fa
    15b8:	8008      	strh	r0, [r1, #0]
    15ba:	e59d      	b.n	0x10f8
    15bc:	6004      	str	r4, [r0, #0]
    15be:	e59d      	b.n	0x10fc
    15c0:	5000      	str	r0, [r0, r0]
    15c2:	e59d      	b.n	0x1100
    15c4:	3008      	adds	r0, #8
    15c6:	e1a0      	b.n	0x190a
    15c8:	2006      	movs	r0, #6
    15ca:	e1a0      	b.n	0x190e
    15cc:	1005      	asrs	r5, r0, #32
    15ce:	e1a0      	b.n	0x1912
    15d0:	0007      	movs	r7, r0
    15d2:	e1a0      	b.n	0x1916
    15d4:	fe9a ebff 			; <UNDEFINED> instruction: 0xfe9aebff
    15d8:	1004      	asrs	r4, r0, #32
    15da:	e1a0      	b.n	0x191e
    15dc:	0007      	movs	r7, r0
    15de:	e1a0      	b.n	0x1922
    15e0:	020d      	lsls	r5, r1, #8
    15e2:	eb00 4000 	add.w	r0, r0, r0, lsl #16
    15e6:	e1a0      	b.n	0x192a
    15e8:	3008      	adds	r0, #8
    15ea:	e1a0      	b.n	0x192e
    15ec:	2006      	movs	r0, #6
    15ee:	e1a0      	b.n	0x1932
    15f0:	1005      	asrs	r5, r0, #32
    15f2:	e1a0      	b.n	0x1936
    15f4:	0007      	movs	r7, r0
    15f6:	e1a0      	b.n	0x193a
    15f8:	fea9 ebff 			; <UNDEFINED> instruction: 0xfea9ebff
    15fc:	1004      	asrs	r4, r0, #32
    15fe:	e1a0      	b.n	0x1942
    1600:	0007      	movs	r7, r0
    1602:	e1a0      	b.n	0x1946
    1604:	0204      	lsls	r4, r0, #8
    1606:	eb00 4000 	add.w	r0, r0, r0, lsl #16
    160a:	e1a0      	b.n	0x194e
    160c:	1005      	asrs	r5, r0, #32
    160e:	e1a0      	b.n	0x1952
    1610:	0007      	movs	r7, r0
    1612:	e1a0      	b.n	0x1956
    1614:	3008      	adds	r0, #8
    1616:	e1a0      	b.n	0x195a
    1618:	2006      	movs	r0, #6
    161a:	e1a0      	b.n	0x195e
    161c:	fec6 ebff 			; <UNDEFINED> instruction: 0xfec6ebff
    1620:	1004      	asrs	r4, r0, #32
    1622:	e1a0      	b.n	0x1966
    1624:	0007      	movs	r7, r0
    1626:	e1a0      	b.n	0x196a
    1628:	01fb      	lsls	r3, r7, #7
    162a:	eb00 ffd9 			; <UNDEFINED> instruction: 0xeb00ffd9
    162e:	eaff 4010 			; <UNDEFINED> instruction: 0xeaff4010
    1632:	e92d 4002 	stmdb	sp!, {r1, lr}
    1636:	e1a0      	b.n	0x197a
    1638:	d008      	beq.n	0x164c
    163a:	e24d      	b.n	0x1ad8
    163c:	1000      	asrs	r0, r0, #32
    163e:	e58d      	b.n	0x115c
    1640:	000c      	movs	r4, r1
    1642:	e990 100c 			; <UNDEFINED> instruction: 0xe990100c
    1646:	e590      	b.n	0x116a
    1648:	0000      	movs	r0, r0
    164a:	e590      	b.n	0x116e
    164c:	fee7 ebff 			; <UNDEFINED> instruction: 0xfee7ebff
    1650:	1004      	asrs	r4, r0, #32
    1652:	e1a0      	b.n	0x1996
    1654:	01f0      	lsls	r0, r6, #7
    1656:	eb00 d008 			; <UNDEFINED> instruction: 0xeb00d008
    165a:	e28d      	b.n	0x1b78
    165c:	4010      	ands	r0, r2
    165e:	e8bd ff1e 	ldmia.w	sp!, {r1, r2, r3, r4, r8, r9, sl, fp, ip, sp, lr, pc}
    1662:	e12f      	b.n	0x18c4
    1664:	2000      	movs	r0, #0
    1666:	e3a0      	b.n	0x1daa
    1668:	3004      	adds	r0, #4
    166a:	e59f      	b.n	0x11ac
    166c:	2000      	movs	r0, #0
    166e:	e583      	b.n	0x1178
    1670:	ff1e e12f 	vrhadd.u16	d14, d14, d31
    1674:	0860      	lsrs	r0, r4, #1
    1676:	0300      	lsls	r0, r0, #12
    1678:	2000      	movs	r0, #0
    167a:	e3a0      	b.n	0x1dbe
    167c:	3004      	adds	r0, #4
    167e:	e59f      	b.n	0x11c0
    1680:	2000      	movs	r0, #0
    1682:	e583      	b.n	0x118c
    1684:	ff1e e12f 	vrhadd.u16	d14, d14, d31
    1688:	0864      	lsrs	r4, r4, #1
    168a:	0300      	lsls	r0, r0, #12
    168c:	2010      	movs	r0, #16
    168e:	e59f      	b.n	0x11d0
    1690:	3010      	adds	r0, #16
    1692:	e59f      	b.n	0x11d4
    1694:	0000      	movs	r0, r0
    1696:	e592      	b.n	0x11be
    1698:	3000      	adds	r0, #0
    169a:	e593      	b.n	0x11c4
    169c:	0003      	movs	r3, r0
    169e:	e040      	b.n	0x1722
    16a0:	ff1e e12f 	vrhadd.u16	d14, d14, d31
    16a4:	0864      	lsrs	r4, r4, #1
    16a6:	0300      	lsls	r0, r0, #12
    16a8:	0860      	lsrs	r0, r4, #1
    16aa:	0300      	lsls	r0, r0, #12
    16ac:	ff1e e12f 	vrhadd.u16	d14, d14, d31
    16b0:	3001      	adds	r0, #1
    16b2:	e3a0      	b.n	0x1df6
    16b4:	3000      	adds	r0, #0
    16b6:	e5c0      	b.n	0x123a
    16b8:	ff1e e12f 	vrhadd.u16	d14, d14, d31
    16bc:	3000      	adds	r0, #0
    16be:	e3a0      	b.n	0x1e02
    16c0:	3000      	adds	r0, #0
    16c2:	e5c0      	b.n	0x1246
    16c4:	ff1e e12f 	vrhadd.u16	d14, d14, d31
    16c8:	3000      	adds	r0, #0
    16ca:	e3a0      	b.n	0x1e0e
    16cc:	43f0      	mvns	r0, r6
    16ce:	e92d c003 	stmdb	sp!, {r0, r1, lr, pc}
    16d2:	e1a0      	b.n	0x1a16
    16d4:	e003      	b.n	0x16de
    16d6:	e1a0      	b.n	0x1a1a
    16d8:	900e      	str	r0, [sp, #56]	; 0x38
    16da:	e08c      	b.n	0x17f6
    16dc:	1001      	asrs	r1, r0, #32
    16de:	e281      	b.n	0x1be4
    16e0:	5001      	str	r1, [r0, r0]
    16e2:	e240      	b.n	0x1b66
    16e4:	8001      	strh	r1, [r0, #0]
    16e6:	e289      	b.n	0x1bfc
    16e8:	1801      	adds	r1, r0, r0
    16ea:	e1a0      	b.n	0x1a2e
    16ec:	0005      	movs	r5, r0
    16ee:	e158      	b.n	0x19a2
    16f0:	1821      	adds	r1, r4, r0
    16f2:	e1a0      	b.n	0x1a36
    16f4:	702c      	strb	r4, [r5, #0]
    16f6:	e3a0      	b.n	0x1e3a
    16f8:	60e0      	str	r0, [r4, #12]
    16fa:	e59f      	b.n	0x123c
    16fc:	0017      	movs	r7, r2
    16fe:	2a00      	cmp	r2, #0
    1700:	0000      	movs	r0, r0
    1702:	e35e      	b.n	0x1dc2
    1704:	0029      	movs	r1, r5
    1706:	1a00      	subs	r0, r0, r0
    1708:	3007      	adds	r0, #7
    170a:	e201      	b.n	0x1b10
    170c:	e1a1      	b.n	0x1a52
    170e:	e1a0      	b.n	0x1a52
    1710:	3003      	adds	r0, #3
    1712:	e243      	b.n	0x1b9c
    1714:	4003      	ands	r3, r0
    1716:	e20e      	b.n	0x1b36
    1718:	0004      	movs	r4, r0
    171a:	e353      	b.n	0x1dc4
    171c:	f103 979f 	b.w	0xd0565e
    1720:	002b      	movs	r3, r5
    1722:	ea00 1790 	and.w	r7, r0, r0, lsr #6
    1726:	0800      	lsrs	r0, r0, #32
    1728:	1790      	asrs	r0, r2, #30
    172a:	0800      	lsrs	r0, r0, #32
    172c:	1738      	asrs	r0, r7, #28
    172e:	0800      	lsrs	r0, r0, #32
    1730:	1738      	asrs	r0, r7, #28
    1732:	0800      	lsrs	r0, r0, #32
    1734:	17a0      	asrs	r0, r4, #30
    1736:	0800      	lsrs	r0, r0, #32
    1738:	e104      	b.n	0x1944
    173a:	e086      	b.n	0x184a
    173c:	3020      	adds	r0, #32
    173e:	e59e      	b.n	0x127e
    1740:	e008      	b.n	0x1754
    1742:	e3a0      	b.n	0x1e86
    1744:	900e      	str	r0, [sp, #56]	; 0x38
    1746:	e08c      	b.n	0x1862
    1748:	1001      	asrs	r1, r0, #32
    174a:	e281      	b.n	0x1c50
    174c:	8001      	strh	r1, [r0, #0]
    174e:	e289      	b.n	0x1c64
    1750:	1801      	adds	r1, r0, r0
    1752:	e1a0      	b.n	0x1a96
    1754:	0005      	movs	r5, r0
    1756:	e158      	b.n	0x1a0a
    1758:	1821      	adds	r1, r4, r0
    175a:	e1a0      	b.n	0x1a9e
    175c:	ffe7 3aff 			; <UNDEFINED> instruction: 0xffe73aff
    1760:	0000      	movs	r0, r0
    1762:	e15c      	b.n	0x1a1e
    1764:	0007      	movs	r7, r0
    1766:	2a00      	cmp	r2, #0
    1768:	1000      	asrs	r0, r0, #32
    176a:	e3a0      	b.n	0x1eae
    176c:	3001      	adds	r0, #1
    176e:	e242      	b.n	0x1bf6
    1770:	c001      	stmia	r0!, {r0}
    1772:	e24c      	b.n	0x1c0e
    1774:	200c      	movs	r0, #12
    1776:	e082      	b.n	0x187e
    1778:	0000      	movs	r0, r0
    177a:	e083      	b.n	0x1884
    177c:	1001      	asrs	r1, r0, #32
    177e:	e5e2      	b.n	0x1346
    1780:	0000      	movs	r0, r0
    1782:	e152      	b.n	0x1a2a
    1784:	fffc 1aff 			; <UNDEFINED> instruction: 0xfffc1aff
    1788:	43f0      	mvns	r0, r6
    178a:	e8bd ff1e 	ldmia.w	sp!, {r1, r2, r3, r4, r8, r9, sl, fp, ip, sp, lr, pc}
    178e:	e12f      	b.n	0x19f0
    1790:	e104      	b.n	0x199c
    1792:	e086      	b.n	0x18a2
    1794:	3010      	adds	r0, #16
    1796:	e59e      	b.n	0x12d6
    1798:	e008      	b.n	0x17ac
    179a:	e3a0      	b.n	0x1ede
    179c:	ffe8 eaff 			; <UNDEFINED> instruction: 0xffe8eaff
    17a0:	4104      	asrs	r4, r0
    17a2:	e086      	b.n	0x18b2
    17a4:	e008      	b.n	0x17b8
    17a6:	e3a0      	b.n	0x1eea
    17a8:	3030      	adds	r0, #48	; 0x30
    17aa:	e594      	b.n	0x12d6
    17ac:	ffe4 eaff 			; <UNDEFINED> instruction: 0xffe4eaff
    17b0:	c00c      	stmia	r0!, {r2, r3}
    17b2:	e082      	b.n	0x18ba
    17b4:	e00e      	b.n	0x17d4
    17b6:	e083      	b.n	0x18c0
    17b8:	4001      	ands	r1, r0
    17ba:	e4d3      	b.n	0x1164
    17bc:	0003      	movs	r3, r0
    17be:	e15e      	b.n	0x1a7e
    17c0:	4001      	ands	r1, r0
    17c2:	e4cc      	b.n	0x115e
    17c4:	fffb 1aff 			; <UNDEFINED> instruction: 0xfffb1aff
    17c8:	c008      	stmia	r0!, {r3}
    17ca:	e1a0      	b.n	0x1b0e
    17cc:	7009      	strb	r1, [r1, #0]
    17ce:	e7c2      	b.n	0x1756
    17d0:	ffcc eaff 			; <UNDEFINED> instruction: 0xffcceaff
    17d4:	3104      	adds	r1, #4
    17d6:	e796      	b.n	0x1706
    17d8:	e004      	b.n	0x17e4
    17da:	e3a0      	b.n	0x1f1e
    17dc:	ffd8 eaff 			; <UNDEFINED> instruction: 0xffd8eaff
    17e0:	27ac      	movs	r7, #172	; 0xac
    17e2:	0800      	lsrs	r0, r0, #32
    17e4:	3000      	adds	r0, #0
    17e6:	e590      	b.n	0x130a
    17e8:	2000      	movs	r0, #0
    17ea:	e5d3      	b.n	0x1394
    17ec:	0000      	movs	r0, r0
    17ee:	e352      	b.n	0x1e96
    17f0:	c003      	stmia	r0!, {r0, r1}
    17f2:	01a0      	lsls	r0, r4, #6
    17f4:	00b9      	lsls	r1, r7, #2
    17f6:	0a00      	lsrs	r0, r0, #8
    17f8:	002c      	movs	r4, r5
    17fa:	e352      	b.n	0x1ea2
    17fc:	c001      	stmia	r0!, {r0}
    17fe:	e283      	b.n	0x1d08
    1800:	00b5      	lsls	r5, r6, #2
    1802:	0a00      	lsrs	r0, r0, #8
    1804:	4010      	ands	r0, r2
    1806:	e92d e000 	stmdb	sp!, {sp, lr, pc}
    180a:	e591      	b.n	0x1330
    180c:	4030      	ands	r0, r6
    180e:	e242      	b.n	0x1c96
    1810:	0009      	movs	r1, r1
    1812:	e354      	b.n	0x1ebe
    1814:	e001      	b.n	0x181a
    1816:	e28e      	b.n	0x1d36
    1818:	0051      	lsls	r1, r2, #1
    181a:	8a00      	ldrh	r0, [r0, #16]
    181c:	e000      	b.n	0x1820
    181e:	e581      	b.n	0x1324
    1820:	2001      	movs	r0, #1
    1822:	e5d3      	b.n	0x13cc
    1824:	0000      	movs	r0, r0
    1826:	e352      	b.n	0x1ece
    1828:	008d      	lsls	r5, r1, #2
    182a:	0a00      	lsrs	r0, r0, #8
    182c:	002c      	movs	r4, r5
    182e:	e352      	b.n	0x1ed6
    1830:	3002      	adds	r0, #2
    1832:	e283      	b.n	0x1d3c
    1834:	0089      	lsls	r1, r1, #2
    1836:	0a00      	lsrs	r0, r0, #8
    1838:	002e      	movs	r6, r5
    183a:	e352      	b.n	0x1ee2
    183c:	e030      	b.n	0x18a0
    183e:	e242      	b.n	0x1cc6
    1840:	000c      	movs	r4, r1
    1842:	0a00      	lsrs	r0, r0, #8
    1844:	0009      	movs	r1, r1
    1846:	e35e      	b.n	0x1f06
    1848:	006c      	lsls	r4, r5, #1
    184a:	8a00      	ldrh	r0, [r0, #16]
    184c:	2001      	movs	r0, #1
    184e:	e5dc      	b.n	0x140a
    1850:	0000      	movs	r0, r0
    1852:	e352      	b.n	0x1efa
    1854:	0081      	lsls	r1, r0, #2
    1856:	0a00      	lsrs	r0, r0, #8
    1858:	002c      	movs	r4, r5
    185a:	e352      	b.n	0x1f02
    185c:	e001      	b.n	0x1862
    185e:	e283      	b.n	0x1d68
    1860:	c003      	stmia	r0!, {r0, r1}
    1862:	e1a0      	b.n	0x1ba6
    1864:	00ad      	lsls	r5, r5, #2
    1866:	0a00      	lsrs	r0, r0, #8
    1868:	002e      	movs	r6, r5
    186a:	e352      	b.n	0x1f12
    186c:	300e      	adds	r0, #14
    186e:	e1a0      	b.n	0x1bb2
    1870:	e030      	b.n	0x18d4
    1872:	e242      	b.n	0x1cfa
    1874:	fff2 1aff 			; <UNDEFINED> instruction: 0xfff21aff
    1878:	2010      	movs	r0, #16
    187a:	e591      	b.n	0x13a0
    187c:	2001      	movs	r0, #1
    187e:	e282      	b.n	0x1d86
    1880:	2010      	movs	r0, #16
    1882:	e581      	b.n	0x1388
    1884:	e001      	b.n	0x188a
    1886:	e5dc      	b.n	0x1442
    1888:	0000      	movs	r0, r0
    188a:	e35e      	b.n	0x1f4a
    188c:	c003      	stmia	r0!, {r0, r1}
    188e:	01a0      	lsls	r0, r4, #6
    1890:	008f      	lsls	r7, r1, #2
    1892:	0a00      	lsrs	r0, r0, #8
    1894:	002c      	movs	r4, r5
    1896:	e35e      	b.n	0x1f56
    1898:	2001      	movs	r0, #1
    189a:	e283      	b.n	0x1da4
    189c:	008b      	lsls	r3, r1, #2
    189e:	0a00      	lsrs	r0, r0, #8
    18a0:	c0df      	stmia	r0!, {r0, r1, r2, r3, r4, r6, r7}
    18a2:	e20e      	b.n	0x1cc2
    18a4:	0045      	lsls	r5, r0, #1
    18a6:	e35c      	b.n	0x1f62
    18a8:	e030      	b.n	0x190c
    18aa:	e24e      	b.n	0x1d4a
    18ac:	004b      	lsls	r3, r1, #1
    18ae:	1a00      	subs	r0, r0, r0
    18b0:	c014      	stmia	r0!, {r2, r4}
    18b2:	e591      	b.n	0x13d8
    18b4:	c001      	stmia	r0!, {r0}
    18b6:	e28c      	b.n	0x1dd2
    18b8:	c014      	stmia	r0!, {r2, r4}
    18ba:	e581      	b.n	0x13c0
    18bc:	3001      	adds	r0, #1
    18be:	e5d3      	b.n	0x1468
    18c0:	0000      	movs	r0, r0
    18c2:	e353      	b.n	0x1f6c
    18c4:	008b      	lsls	r3, r1, #2
    18c6:	0a00      	lsrs	r0, r0, #8
    18c8:	002c      	movs	r4, r5
    18ca:	e353      	b.n	0x1f74
    18cc:	c001      	stmia	r0!, {r0}
    18ce:	e282      	b.n	0x1dd6
    18d0:	0089      	lsls	r1, r1, #2
    18d2:	0a00      	lsrs	r0, r0, #8
    18d4:	e00c      	b.n	0x18f0
    18d6:	e591      	b.n	0x13fc
    18d8:	302b      	adds	r0, #43	; 0x2b
    18da:	e243      	b.n	0x1d64
    18dc:	e001      	b.n	0x18e2
    18de:	e28e      	b.n	0x1dfe
    18e0:	00fd      	lsls	r5, r7, #3
    18e2:	e313      	b.n	0x1f0c
    18e4:	e00c      	b.n	0x1900
    18e6:	e581      	b.n	0x13ec
    18e8:	0018      	movs	r0, r3
    18ea:	1a00      	subs	r0, r0, r0
    18ec:	3001      	adds	r0, #1
    18ee:	e5d2      	b.n	0x1496
    18f0:	0000      	movs	r0, r0
    18f2:	e353      	b.n	0x1f9c
    18f4:	0082      	lsls	r2, r0, #2
    18f6:	0a00      	lsrs	r0, r0, #8
    18f8:	002c      	movs	r4, r5
    18fa:	e353      	b.n	0x1fa4
    18fc:	c002      	stmia	r0!, {r1}
    18fe:	e282      	b.n	0x1e06
    1900:	007f      	lsls	r7, r7, #1
    1902:	0a00      	lsrs	r0, r0, #8
    1904:	e018      	b.n	0x1938
    1906:	e591      	b.n	0x142c
    1908:	3030      	adds	r0, #48	; 0x30
    190a:	e243      	b.n	0x1d94
    190c:	e001      	b.n	0x1912
    190e:	e28e      	b.n	0x1e2e
    1910:	0009      	movs	r1, r1
    1912:	e353      	b.n	0x1fbc
    1914:	e018      	b.n	0x1948
    1916:	e581      	b.n	0x141c
    1918:	000c      	movs	r4, r1
    191a:	8a00      	ldrh	r0, [r0, #16]
    191c:	e002      	b.n	0x1924
    191e:	e5d2      	b.n	0x14c6
    1920:	0000      	movs	r0, r0
    1922:	e35e      	b.n	0x1fe2
    1924:	0071      	lsls	r1, r6, #1
    1926:	0a00      	lsrs	r0, r0, #8
    1928:	002c      	movs	r4, r5
    192a:	e35e      	b.n	0x1fea
    192c:	3003      	adds	r0, #3
    192e:	e282      	b.n	0x1e36
    1930:	006d      	lsls	r5, r5, #1
    1932:	0a00      	lsrs	r0, r0, #8
    1934:	e030      	b.n	0x1998
    1936:	e24e      	b.n	0x1dd6
    1938:	0009      	movs	r1, r1
    193a:	e35e      	b.n	0x1ffa
    193c:	004a      	lsls	r2, r1, #1
    193e:	9a00      	ldr	r2, [sp, #0]
    1940:	c003      	stmia	r0!, {r0, r1}
    1942:	e1a0      	b.n	0x1c86
    1944:	2004      	movs	r0, #4
    1946:	e591      	b.n	0x146c
    1948:	2001      	movs	r0, #1
    194a:	e282      	b.n	0x1e52
    194c:	2004      	movs	r0, #4
    194e:	e581      	b.n	0x1454
    1950:	2001      	movs	r0, #1
    1952:	e3a0      	b.n	0x2096
    1954:	c000      	stmia	r0!, {}
    1956:	e580      	b.n	0x145a
    1958:	4010      	ands	r0, r2
    195a:	e8bd 0002 	ldmia.w	sp!, {r1}
    195e:	e1a0      	b.n	0x1ca2
    1960:	ff1e e12f 	vrhadd.u16	d14, d14, d31
    1964:	402b      	ands	r3, r5
    1966:	e242      	b.n	0x1dee
    1968:	00fd      	lsls	r5, r7, #3
    196a:	e314      	b.n	0x1f96
    196c:	002c      	movs	r4, r5
    196e:	1a00      	subs	r0, r0, r0
    1970:	e000      	b.n	0x1974
    1972:	e581      	b.n	0x1478
    1974:	e001      	b.n	0x197a
    1976:	e5d3      	b.n	0x1520
    1978:	0000      	movs	r0, r0
    197a:	e35e      	b.n	0x203a
    197c:	0062      	lsls	r2, r4, #1
    197e:	0a00      	lsrs	r0, r0, #8
    1980:	002c      	movs	r4, r5
    1982:	e35e      	b.n	0x2042
    1984:	c002      	stmia	r0!, {r1}
    1986:	e283      	b.n	0x1e90
    1988:	005f      	lsls	r7, r3, #1
    198a:	0a00      	lsrs	r0, r0, #8
    198c:	2008      	movs	r0, #8
    198e:	e591      	b.n	0x14b4
    1990:	4030      	ands	r0, r6
    1992:	e24e      	b.n	0x1e32
    1994:	0009      	movs	r1, r1
    1996:	e354      	b.n	0x2042
    1998:	2001      	movs	r0, #1
    199a:	e282      	b.n	0x1ea2
    199c:	0028      	movs	r0, r5
    199e:	9a00      	ldr	r2, [sp, #0]
    19a0:	002e      	movs	r6, r5
    19a2:	e35e      	b.n	0x2062
    19a4:	2008      	movs	r0, #8
    19a6:	1581      	asrs	r1, r0, #22
    19a8:	2001      	movs	r0, #1
    19aa:	13a0      	asrs	r0, r4, #14
    19ac:	0018      	movs	r0, r3
    19ae:	1a00      	subs	r0, r0, r0
    19b0:	2008      	movs	r0, #8
    19b2:	e581      	b.n	0x14b8
    19b4:	e002      	b.n	0x19bc
    19b6:	e5d3      	b.n	0x1560
    19b8:	0000      	movs	r0, r0
    19ba:	e35e      	b.n	0x207a
    19bc:	0044      	lsls	r4, r0, #1
    19be:	0a00      	lsrs	r0, r0, #8
    19c0:	002c      	movs	r4, r5
    19c2:	e35e      	b.n	0x2082
    19c4:	2003      	movs	r0, #3
    19c6:	e283      	b.n	0x1ed0
    19c8:	0040      	lsls	r0, r0, #1
    19ca:	0a00      	lsrs	r0, r0, #8
    19cc:	300c      	adds	r0, #12
    19ce:	e1a0      	b.n	0x1d12
    19d0:	c0df      	stmia	r0!, {r0, r1, r2, r3, r4, r6, r7}
    19d2:	e20e      	b.n	0x1df2
    19d4:	0045      	lsls	r5, r0, #1
    19d6:	e35c      	b.n	0x2092
    19d8:	e030      	b.n	0x1a3c
    19da:	e24e      	b.n	0x1e7a
    19dc:	ffb3 0aff 			; <UNDEFINED> instruction: 0xffb30aff
    19e0:	0009      	movs	r1, r1
    19e2:	e35e      	b.n	0x20a2
    19e4:	0029      	movs	r1, r5
    19e6:	9a00      	ldr	r2, [sp, #0]
    19e8:	3014      	adds	r0, #20
    19ea:	e591      	b.n	0x1510
    19ec:	3001      	adds	r0, #1
    19ee:	e283      	b.n	0x1ef8
    19f0:	c002      	stmia	r0!, {r1}
    19f2:	e1a0      	b.n	0x1d36
    19f4:	3014      	adds	r0, #20
    19f6:	e581      	b.n	0x14fc
    19f8:	2001      	movs	r0, #1
    19fa:	e3a0      	b.n	0x213e
    19fc:	0004      	movs	r4, r0
    19fe:	ea00 2010 	and.w	r0, r0, r0, lsr #8
    1a02:	e591      	b.n	0x1528
    1a04:	2001      	movs	r0, #1
    1a06:	e282      	b.n	0x1f0e
    1a08:	2010      	movs	r0, #16
    1a0a:	e581      	b.n	0x1510
    1a0c:	c003      	stmia	r0!, {r0, r1}
    1a0e:	e1a0      	b.n	0x1d52
    1a10:	2001      	movs	r0, #1
    1a12:	e3a0      	b.n	0x2156
    1a14:	c000      	stmia	r0!, {}
    1a16:	e580      	b.n	0x151a
    1a18:	4010      	ands	r0, r2
    1a1a:	e8bd 0002 	ldmia.w	sp!, {r1}
    1a1e:	e1a0      	b.n	0x1d62
    1a20:	ff1e e12f 	vrhadd.u16	d14, d14, d31
    1a24:	002e      	movs	r6, r5
    1a26:	e352      	b.n	0x20ce
    1a28:	0021      	movs	r1, r4
    1a2a:	0a00      	lsrs	r0, r0, #8
    1a2c:	3004      	adds	r0, #4
    1a2e:	e591      	b.n	0x1554
    1a30:	3001      	adds	r0, #1
    1a32:	e283      	b.n	0x1f3c
    1a34:	e000      	b.n	0x1a38
    1a36:	e581      	b.n	0x153c
    1a38:	3004      	adds	r0, #4
    1a3a:	e581      	b.n	0x1540
    1a3c:	2001      	movs	r0, #1
    1a3e:	e3a0      	b.n	0x2182
    1a40:	fff3 eaff 			; <UNDEFINED> instruction: 0xfff3eaff
    1a44:	2008      	movs	r0, #8
    1a46:	e581      	b.n	0x154c
    1a48:	2002      	movs	r0, #2
    1a4a:	e5d3      	b.n	0x15f4
    1a4c:	0000      	movs	r0, r0
    1a4e:	e352      	b.n	0x20f6
    1a50:	0003      	movs	r3, r0
    1a52:	0a00      	lsrs	r0, r0, #8
    1a54:	002c      	movs	r4, r5
    1a56:	e352      	b.n	0x20fe
    1a58:	3003      	adds	r0, #3
    1a5a:	e283      	b.n	0x1f64
    1a5c:	ff75 1aff 	vpmin.u<illegal width 64>	<illegal reg q8.5>, <illegal reg q10.5>, <illegal reg q15.5>
    1a60:	c003      	stmia	r0!, {r0, r1}
    1a62:	e1a0      	b.n	0x1da6
    1a64:	2004      	movs	r0, #4
    1a66:	e3a0      	b.n	0x21aa
    1a68:	ffe9 eaff 			; <UNDEFINED> instruction: 0xffe9eaff
    1a6c:	e001      	b.n	0x1a72
    1a6e:	e5dc      	b.n	0x162a
    1a70:	0000      	movs	r0, r0
    1a72:	e35e      	b.n	0x2132
    1a74:	001c      	movs	r4, r3
    1a76:	0a00      	lsrs	r0, r0, #8
    1a78:	002c      	movs	r4, r5
    1a7a:	e35e      	b.n	0x213a
    1a7c:	2001      	movs	r0, #1
    1a7e:	e283      	b.n	0x1f88
    1a80:	c003      	stmia	r0!, {r0, r1}
    1a82:	e1a0      	b.n	0x1dc6
    1a84:	0022      	movs	r2, r4
    1a86:	0a00      	lsrs	r0, r0, #8
    1a88:	3002      	adds	r0, #2
    1a8a:	e1a0      	b.n	0x1dce
    1a8c:	ffa8 eaff 			; <UNDEFINED> instruction: 0xffa8eaff
    1a90:	e001      	b.n	0x1a96
    1a92:	e5d3      	b.n	0x163c
    1a94:	0000      	movs	r0, r0
    1a96:	e35e      	b.n	0x2156
    1a98:	000c      	movs	r4, r1
    1a9a:	0a00      	lsrs	r0, r0, #8
    1a9c:	002c      	movs	r4, r5
    1a9e:	e35e      	b.n	0x215e
    1aa0:	c001      	stmia	r0!, {r0}
    1aa2:	e282      	b.n	0x1faa
    1aa4:	3002      	adds	r0, #2
    1aa6:	e1a0      	b.n	0x1dea
    1aa8:	0009      	movs	r1, r1
    1aaa:	0a00      	lsrs	r0, r0, #8
    1aac:	200c      	movs	r0, #12
    1aae:	e1a0      	b.n	0x1df2
    1ab0:	ff7a eaff 	vpmin.u<illegal width 64>	q15, q13, <illegal reg q15.5>
    1ab4:	e000      	b.n	0x1ab8
    1ab6:	e581      	b.n	0x15bc
    1ab8:	e001      	b.n	0x1abe
    1aba:	e5d3      	b.n	0x1664
    1abc:	0000      	movs	r0, r0
    1abe:	e35e      	b.n	0x217e
    1ac0:	0003      	movs	r3, r0
    1ac2:	0a00      	lsrs	r0, r0, #8
    1ac4:	002c      	movs	r4, r5
    1ac6:	e35e      	b.n	0x2186
    1ac8:	2002      	movs	r0, #2
    1aca:	e283      	b.n	0x1fd4
    1acc:	ffbe 1aff 			; <UNDEFINED> instruction: 0xffbe1aff
    1ad0:	c002      	stmia	r0!, {r1}
    1ad2:	e1a0      	b.n	0x1e16
    1ad4:	2005      	movs	r0, #5
    1ad6:	e3a0      	b.n	0x221a
    1ad8:	ffcd eaff 			; <UNDEFINED> instruction: 0xffcdeaff
    1adc:	2000      	movs	r0, #0
    1ade:	e3a0      	b.n	0x2222
    1ae0:	c000      	stmia	r0!, {}
    1ae2:	e580      	b.n	0x15e6
    1ae4:	0002      	movs	r2, r0
    1ae6:	e1a0      	b.n	0x1e2a
    1ae8:	ff1e e12f 	vrhadd.u16	d14, d14, d31
    1aec:	c003      	stmia	r0!, {r0, r1}
    1aee:	e1a0      	b.n	0x1e32
    1af0:	2007      	movs	r0, #7
    1af2:	e3a0      	b.n	0x2236
    1af4:	ffc6 eaff 			; <UNDEFINED> instruction: 0xffc6eaff
    1af8:	c002      	stmia	r0!, {r1}
    1afa:	e1a0      	b.n	0x1e3e
    1afc:	2003      	movs	r0, #3
    1afe:	e3a0      	b.n	0x2242
    1b00:	ffc3 eaff 			; <UNDEFINED> instruction: 0xffc3eaff
    1b04:	2006      	movs	r0, #6
    1b06:	e3a0      	b.n	0x224a
    1b08:	ffc1 eaff 			; <UNDEFINED> instruction: 0xffc1eaff
    1b0c:	2002      	movs	r0, #2
    1b0e:	e3a0      	b.n	0x2252
    1b10:	ffbf eaff 			; <UNDEFINED> instruction: 0xffbfeaff
    1b14:	c002      	stmia	r0!, {r1}
    1b16:	e1a0      	b.n	0x1e5a
    1b18:	2007      	movs	r0, #7
    1b1a:	e3a0      	b.n	0x225e
    1b1c:	ffbc eaff 			; <UNDEFINED> instruction: 0xffbceaff
    1b20:	c00e      	stmia	r0!, {r1, r2, r3}
    1b22:	e1a0      	b.n	0x1e66
    1b24:	2004      	movs	r0, #4
    1b26:	e3a0      	b.n	0x226a
    1b28:	ffb9 eaff 			; <UNDEFINED> instruction: 0xffb9eaff
    1b2c:	4ff0      	ldr	r7, [pc, #960]	; (0x1ef0)
    1b2e:	e92d 4001 	stmdb	sp!, {r0, lr}
    1b32:	e1a0      	b.n	0x1e76
    1b34:	d054      	beq.n	0x1be0
    1b36:	e24d      	b.n	0x1fd4
    1b38:	5010      	str	r0, [r2, r0]
    1b3a:	e28d      	b.n	0x2058
    1b3c:	8030      	strh	r0, [r6, #0]
    1b3e:	e28d      	b.n	0x205c
    1b40:	2004      	movs	r0, #4
    1b42:	e58d      	b.n	0x1660
    1b44:	b003      	add	sp, #12
    1b46:	e1a0      	b.n	0x1e8a
    1b48:	1005      	asrs	r5, r0, #32
    1b4a:	e1a0      	b.n	0x1e8e
    1b4c:	3008      	adds	r0, #8
    1b4e:	e1a0      	b.n	0x1e92
    1b50:	2000      	movs	r0, #0
    1b52:	e3a0      	b.n	0x2296
    1b54:	400c      	ands	r4, r1
    1b56:	e58d      	b.n	0x1674
    1b58:	67f8      	str	r0, [r7, #124]	; 0x7c
    1b5a:	e1dd      	b.n	0x1f18
    1b5c:	97bc      	str	r7, [sp, #752]	; 0x2f0
    1b5e:	e1dd      	b.n	0x1f1c
    1b60:	a000      	add	r0, pc, #0	; (adr r0, 0x1b64)
    1b62:	e1a0      	b.n	0x1ea6
    1b64:	0050      	lsls	r0, r2, #1
    1b66:	e28d      	b.n	0x2084
    1b68:	2004      	movs	r0, #4
    1b6a:	e483      	b.n	0x1474
    1b6c:	0000      	movs	r0, r0
    1b6e:	e153      	b.n	0x1e18
    1b70:	2004      	movs	r0, #4
    1b72:	e481      	b.n	0x1478
    1b74:	fffb 1aff 			; <UNDEFINED> instruction: 0xfffb1aff
    1b78:	3000      	adds	r0, #0
    1b7a:	e5d4      	b.n	0x1726
    1b7c:	0000      	movs	r0, r0
    1b7e:	e353      	b.n	0x2228
    1b80:	0047      	lsls	r7, r0, #1
    1b82:	0a00      	lsrs	r0, r0, #8
    1b84:	700c      	strb	r4, [r1, #0]
    1b86:	e28d      	b.n	0x20a4
    1b88:	1030      	asrs	r0, r6, #32
    1b8a:	e28d      	b.n	0x20a8
    1b8c:	0007      	movs	r7, r0
    1b8e:	e1a0      	b.n	0x1ed2
    1b90:	ff13 ebff 	vqrdmlah.s16	q7, <illegal reg q9.5>, <illegal reg q15.5>
    1b94:	3050      	adds	r0, #80	; 0x50
    1b96:	e28d      	b.n	0x20b4
    1b98:	200c      	movs	r0, #12
    1b9a:	e59d      	b.n	0x16d8
    1b9c:	0100      	lsls	r0, r0, #4
    1b9e:	e083      	b.n	0x1ca8
    1ba0:	3040      	adds	r0, #64	; 0x40
    1ba2:	e510      	b.n	0x15c6
    1ba4:	2000      	movs	r0, #0
    1ba6:	e5d2      	b.n	0x174e
    1ba8:	3001      	adds	r0, #1
    1baa:	e283      	b.n	0x20b4
    1bac:	0000      	movs	r0, r0
    1bae:	e352      	b.n	0x2256
    1bb0:	3040      	adds	r0, #64	; 0x40
    1bb2:	e500      	b.n	0x15b6
    1bb4:	fff3 1aff 			; <UNDEFINED> instruction: 0xfff31aff
    1bb8:	a00a      	add	r0, pc, #40	; (adr r0, 0x1be4)
    1bba:	e084      	b.n	0x1cc6
    1bbc:	0004      	movs	r4, r0
    1bbe:	e15a      	b.n	0x1e76
    1bc0:	400c      	ands	r4, r1
    1bc2:	e58d      	b.n	0x16e0
    1bc4:	3000      	adds	r0, #0
    1bc6:	e5d4      	b.n	0x1772
    1bc8:	003a      	movs	r2, r7
    1bca:	9a00      	ldr	r2, [sp, #0]
    1bcc:	1004      	asrs	r4, r0, #32
    1bce:	e1a0      	b.n	0x1f12
    1bd0:	0000      	movs	r0, r0
    1bd2:	ea00 3006 	and.w	r0, r0, r6, lsl #12
    1bd6:	e7d3      	b.n	0x1b80
    1bd8:	002c      	movs	r4, r5
    1bda:	e353      	b.n	0x2284
    1bdc:	2004      	movs	r0, #4
    1bde:	159d      	asrs	r5, r3, #22
    1be0:	3002      	adds	r0, #2
    1be2:	1023      	asrs	r3, r4, #32
    1be4:	3000      	adds	r0, #0
    1be6:	15c1      	asrs	r1, r0, #23
    1be8:	300c      	adds	r0, #12
    1bea:	e59d      	b.n	0x1728
    1bec:	1006      	asrs	r6, r0, #32
    1bee:	e083      	b.n	0x1cf8
    1bf0:	000a      	movs	r2, r1
    1bf2:	e151      	b.n	0x1e98
    1bf4:	100c      	asrs	r4, r1, #32
    1bf6:	e58d      	b.n	0x1714
    1bf8:	fff5 3aff 			; <UNDEFINED> instruction: 0xfff53aff
    1bfc:	3000      	adds	r0, #0
    1bfe:	e5d4      	b.n	0x17aa
    1c00:	0000      	movs	r0, r0
    1c02:	e353      	b.n	0x22ac
    1c04:	400c      	ands	r4, r1
    1c06:	e58d      	b.n	0x1724
    1c08:	000f      	movs	r7, r1
    1c0a:	0a00      	lsrs	r0, r0, #8
    1c0c:	700c      	strb	r4, [r1, #0]
    1c0e:	e28d      	b.n	0x212c
    1c10:	1030      	asrs	r0, r6, #32
    1c12:	e28d      	b.n	0x2130
    1c14:	0007      	movs	r7, r0
    1c16:	e1a0      	b.n	0x1f5a
    1c18:	fef1 ebff 			; <UNDEFINED> instruction: 0xfef1ebff
    1c1c:	3050      	adds	r0, #80	; 0x50
    1c1e:	e28d      	b.n	0x213c
    1c20:	100c      	asrs	r4, r1, #32
    1c22:	e59d      	b.n	0x1760
    1c24:	0100      	lsls	r0, r0, #4
    1c26:	e083      	b.n	0x1d30
    1c28:	3040      	adds	r0, #64	; 0x40
    1c2a:	e510      	b.n	0x164e
    1c2c:	1000      	asrs	r0, r0, #32
    1c2e:	e5d1      	b.n	0x17d4
    1c30:	3001      	adds	r0, #1
    1c32:	e283      	b.n	0x213c
    1c34:	0000      	movs	r0, r0
    1c36:	e351      	b.n	0x22dc
    1c38:	3040      	adds	r0, #64	; 0x40
    1c3a:	e500      	b.n	0x163e
    1c3c:	fff3 1aff 			; <UNDEFINED> instruction: 0xfff31aff
    1c40:	000a      	movs	r2, r1
    1c42:	e154      	b.n	0x1eee
    1c44:	400c      	ands	r4, r1
    1c46:	e58d      	b.n	0x1764
    1c48:	0008      	movs	r0, r1
    1c4a:	2a00      	cmp	r2, #0
    1c4c:	3000      	adds	r0, #0
    1c4e:	e5d4      	b.n	0x17fa
    1c50:	002c      	movs	r4, r5
    1c52:	e353      	b.n	0x22fc
    1c54:	300b      	adds	r0, #11
    1c56:	1023      	asrs	r3, r4, #32
    1c58:	3000      	adds	r0, #0
    1c5a:	15c4      	asrs	r4, r0, #23
    1c5c:	400c      	ands	r4, r1
    1c5e:	e59d      	b.n	0x179c
    1c60:	4006      	ands	r6, r0
    1c62:	e084      	b.n	0x1d6e
    1c64:	000a      	movs	r2, r1
    1c66:	e154      	b.n	0x1f12
    1c68:	400c      	ands	r4, r1
    1c6a:	e58d      	b.n	0x1788
    1c6c:	fff6 3aff 			; <UNDEFINED> instruction: 0xfff63aff
    1c70:	4020      	ands	r0, r4
    1c72:	e285      	b.n	0x2180
    1c74:	1009      	asrs	r1, r1, #32
    1c76:	e1a0      	b.n	0x1fba
    1c78:	0004      	movs	r4, r0
    1c7a:	e495      	b.n	0x15a8
    1c7c:	005d      	lsls	r5, r3, #1
    1c7e:	eb00 1000 	add.w	r0, r0, r0, lsl #4
    1c82:	e1a0      	b.n	0x1fc6
    1c84:	0004      	movs	r4, r0
    1c86:	e498      	b.n	0x15ba
    1c88:	005a      	lsls	r2, r3, #1
    1c8a:	eb00 0005 	add.w	r0, r0, r5
    1c8e:	e154      	b.n	0x1f3a
    1c90:	9000      	str	r0, [sp, #0]
    1c92:	e1a0      	b.n	0x1fd6
    1c94:	fff6 1aff 			; <UNDEFINED> instruction: 0xfff61aff
    1c98:	d054      	beq.n	0x1d44
    1c9a:	e28d      	b.n	0x21b8
    1c9c:	4ff0      	ldr	r7, [pc, #960]	; (0x2060)
    1c9e:	e8bd ff1e 	ldmia.w	sp!, {r1, r2, r3, r4, r8, r9, sl, fp, ip, sp, lr, pc}
    1ca2:	e12f      	b.n	0x1f04
    1ca4:	a00a      	add	r0, pc, #40	; (adr r0, 0x1cd0)
    1ca6:	e084      	b.n	0x1db2
    1ca8:	000a      	movs	r2, r1
    1caa:	e154      	b.n	0x1f56
    1cac:	400c      	ands	r4, r1
    1cae:	e58d      	b.n	0x17cc
    1cb0:	ffc5 3aff 			; <UNDEFINED> instruction: 0xffc53aff
    1cb4:	ffed eaff 			; <UNDEFINED> instruction: 0xffedeaff
    1cb8:	0000      	movs	r0, r0
    1cba:	e353      	b.n	0x2364
    1cbc:	ffd3 1aff 			; <UNDEFINED> instruction: 0xffd31aff
    1cc0:	ffea eaff 			; <UNDEFINED> instruction: 0xffeaeaff
    1cc4:	0001      	movs	r1, r0
    1cc6:	e240      	b.n	0x214a
    1cc8:	0004      	movs	r4, r0
    1cca:	e350      	b.n	0x236e
    1ccc:	f100 979f 	b.w	0xd02c0e
    1cd0:	0013      	movs	r3, r2
    1cd2:	ea00 1cf4 	and.w	ip, r0, r4, ror #7
    1cd6:	0800      	lsrs	r0, r0, #32
    1cd8:	1d00      	adds	r0, r0, #4
    1cda:	0800      	lsrs	r0, r0, #32
    1cdc:	1d0c      	adds	r4, r1, #4
    1cde:	0800      	lsrs	r0, r0, #32
    1ce0:	1d18      	adds	r0, r3, #4
    1ce2:	0800      	lsrs	r0, r0, #32
    1ce4:	1ce8      	adds	r0, r5, #3
    1ce6:	0800      	lsrs	r0, r0, #32
    1ce8:	303c      	adds	r0, #60	; 0x3c
    1cea:	e59f      	b.n	0x182c
    1cec:	0000      	movs	r0, r0
    1cee:	e593      	b.n	0x1818
    1cf0:	ff1e e12f 	vrhadd.u16	d14, d14, d31
    1cf4:	3034      	adds	r0, #52	; 0x34
    1cf6:	e59f      	b.n	0x1838
    1cf8:	0000      	movs	r0, r0
    1cfa:	e593      	b.n	0x1824
    1cfc:	ff1e e12f 	vrhadd.u16	d14, d14, d31
    1d00:	302c      	adds	r0, #44	; 0x2c
    1d02:	e59f      	b.n	0x1844
    1d04:	0000      	movs	r0, r0
    1d06:	e593      	b.n	0x1830
    1d08:	ff1e e12f 	vrhadd.u16	d14, d14, d31
    1d0c:	3024      	adds	r0, #36	; 0x24
    1d0e:	e59f      	b.n	0x1850
    1d10:	0000      	movs	r0, r0
    1d12:	e593      	b.n	0x183c
    1d14:	ff1e e12f 	vrhadd.u16	d14, d14, d31
    1d18:	301c      	adds	r0, #28
    1d1a:	e59f      	b.n	0x185c
    1d1c:	0000      	movs	r0, r0
    1d1e:	e593      	b.n	0x1848
    1d20:	ff1e e12f 	vrhadd.u16	d14, d14, d31
    1d24:	0000      	movs	r0, r0
    1d26:	e3a0      	b.n	0x246a
    1d28:	ff1e e12f 	vrhadd.u16	d14, d14, d31
    1d2c:	0080      	lsls	r0, r0, #2
    1d2e:	0300      	lsls	r0, r0, #12
    1d30:	0088      	lsls	r0, r1, #2
    1d32:	0300      	lsls	r0, r0, #12
    1d34:	0084      	lsls	r4, r0, #2
    1d36:	0300      	lsls	r0, r0, #12
    1d38:	0870      	lsrs	r0, r6, #1
    1d3a:	0300      	lsls	r0, r0, #12
    1d3c:	086c      	lsrs	r4, r5, #1
    1d3e:	0300      	lsls	r0, r0, #12
    1d40:	3008      	adds	r0, #8
    1d42:	e3a0      	b.n	0x2486
    1d44:	c02c      	stmia	r0!, {r2, r3, r5}
    1d46:	e59f      	b.n	0x1888
    1d48:	2000      	movs	r0, #0
    1d4a:	e021      	b.n	0x1d90
    1d4c:	0001      	movs	r1, r0
    1d4e:	e312      	b.n	0x2376
    1d50:	10a1      	asrs	r1, r4, #2
    1d52:	e1a0      	b.n	0x2096
    1d54:	100c      	asrs	r4, r1, #32
    1d56:	1021      	asrs	r1, r4, #32
    1d58:	1801      	adds	r1, r0, r0
    1d5a:	11a0      	asrs	r0, r4, #6
    1d5c:	3001      	adds	r0, #1
    1d5e:	e243      	b.n	0x21e8
    1d60:	1821      	adds	r1, r4, r0
    1d62:	11a0      	asrs	r0, r4, #6
    1d64:	30ff      	adds	r0, #255	; 0xff
    1d66:	e213      	b.n	0x2190
    1d68:	00a0      	lsls	r0, r4, #2
    1d6a:	e1a0      	b.n	0x20ae
    1d6c:	fff5 1aff 			; <UNDEFINED> instruction: 0xfff51aff
    1d70:	0001      	movs	r1, r0
    1d72:	e1a0      	b.n	0x20b6
    1d74:	ff1e e12f 	vrhadd.u16	d14, d14, d31
    1d78:	a001      	add	r0, pc, #4	; (adr r0, 0x1d80)
    1d7a:	ffff 3008 	vaddl.u<illegal width 64>	<illegal reg q9.5>, d15, d8
    1d7e:	e3a0      	b.n	0x24c2
    1d80:	e004      	b.n	0x1d8c
    1d82:	e52d      	b.n	0x17e0
    1d84:	e068      	b.n	0x1e58
    1d86:	e59f      	b.n	0x18c8
    1d88:	20ff      	movs	r0, #255	; 0xff
    1d8a:	e200      	b.n	0x218e
    1d8c:	c002      	stmia	r0!, {r1}
    1d8e:	e021      	b.n	0x1dd4
    1d90:	0001      	movs	r1, r0
    1d92:	e31c      	b.n	0x23ce
    1d94:	10a1      	asrs	r1, r4, #2
    1d96:	e1a0      	b.n	0x20da
    1d98:	100e      	asrs	r6, r1, #32
    1d9a:	1021      	asrs	r1, r4, #32
    1d9c:	1801      	adds	r1, r0, r0
    1d9e:	11a0      	asrs	r0, r4, #6
    1da0:	3001      	adds	r0, #1
    1da2:	e243      	b.n	0x222c
    1da4:	1821      	adds	r1, r4, r0
    1da6:	11a0      	asrs	r0, r4, #6
    1da8:	30ff      	adds	r0, #255	; 0xff
    1daa:	e213      	b.n	0x21d4
    1dac:	20a2      	movs	r0, #162	; 0xa2
    1dae:	e1a0      	b.n	0x20f2
    1db0:	fff5 1aff 			; <UNDEFINED> instruction: 0xfff51aff
    1db4:	3008      	adds	r0, #8
    1db6:	e3a0      	b.n	0x24fa
    1db8:	c034      	stmia	r0!, {r2, r4, r5}
    1dba:	e59f      	b.n	0x18fc
    1dbc:	0330      	lsls	r0, r6, #12
    1dbe:	e1a0      	b.n	0x2102
    1dc0:	2000      	movs	r0, #0
    1dc2:	e021      	b.n	0x1e08
    1dc4:	0001      	movs	r1, r0
    1dc6:	e312      	b.n	0x23ee
    1dc8:	10a1      	asrs	r1, r4, #2
    1dca:	e1a0      	b.n	0x210e
    1dcc:	100c      	asrs	r4, r1, #32
    1dce:	1021      	asrs	r1, r4, #32
    1dd0:	1801      	adds	r1, r0, r0
    1dd2:	11a0      	asrs	r0, r4, #6
    1dd4:	3001      	adds	r0, #1
    1dd6:	e243      	b.n	0x2260
    1dd8:	1821      	adds	r1, r4, r0
    1dda:	11a0      	asrs	r0, r4, #6
    1ddc:	30ff      	adds	r0, #255	; 0xff
    1dde:	e213      	b.n	0x2208
    1de0:	00a0      	lsls	r0, r4, #2
    1de2:	e1a0      	b.n	0x2126
    1de4:	fff5 1aff 			; <UNDEFINED> instruction: 0xfff51aff
    1de8:	0001      	movs	r1, r0
    1dea:	e1a0      	b.n	0x212e
    1dec:	e004      	b.n	0x1df8
    1dee:	e49d      	b.n	0x172c
    1df0:	ff1e e12f 	vrhadd.u16	d14, d14, d31
    1df4:	a001      	add	r0, pc, #4	; (adr r0, 0x1dfc)
    1df6:	ffff 4010 	vshr.u32	d20, d0, #1
    1dfa:	e92d 4000 	stmdb	sp!, {lr}
    1dfe:	e1a0      	b.n	0x2142
    1e00:	0800      	lsrs	r0, r0, #32
    1e02:	e1a0      	b.n	0x2146
    1e04:	0820      	lsrs	r0, r4, #32
    1e06:	e1a0      	b.n	0x214a
    1e08:	ffdb ebff 			; <UNDEFINED> instruction: 0xffdbebff
    1e0c:	1000      	asrs	r0, r0, #32
    1e0e:	e1a0      	b.n	0x2152
    1e10:	0824      	lsrs	r4, r4, #32
    1e12:	e1a0      	b.n	0x2156
    1e14:	4010      	ands	r0, r2
    1e16:	e8bd ffd7 	ldmia.w	sp!, {r0, r1, r2, r4, r6, r7, r8, r9, sl, fp, ip, sp, lr, pc}
    1e1a:	eaff 0800 			; <UNDEFINED> instruction: 0xeaff0800
    1e1e:	e1a0      	b.n	0x2162
    1e20:	0820      	lsrs	r0, r4, #32
    1e22:	e1a0      	b.n	0x2166
    1e24:	ffd4 eaff 			; <UNDEFINED> instruction: 0xffd4eaff
    1e28:	0000      	movs	r0, r0
    1e2a:	e3a0      	b.n	0x256e
    1e2c:	ff1e e12f 	vrhadd.u16	d14, d14, d31
    1e30:	2001      	movs	r0, #1
    1e32:	e251      	b.n	0x22d8
    1e34:	ff1e 012f 	vrhadd.u16	d0, d14, d31
    1e38:	0036      	movs	r6, r6
    1e3a:	3a00      	subs	r2, #0
    1e3c:	0001      	movs	r1, r0
    1e3e:	e150      	b.n	0x20e2
    1e40:	0022      	movs	r2, r4
    1e42:	9a00      	ldr	r2, [sp, #0]
    1e44:	0002      	movs	r2, r0
    1e46:	e111      	b.n	0x206c
    1e48:	0023      	movs	r3, r4
    1e4a:	0a00      	lsrs	r0, r0, #8
    1e4c:	020e      	lsls	r6, r1, #8
    1e4e:	e311      	b.n	0x2474
    1e50:	1181      	asrs	r1, r0, #6
    1e52:	01a0      	lsls	r0, r4, #6
    1e54:	3008      	adds	r0, #8
    1e56:	03a0      	lsls	r0, r4, #14
    1e58:	3001      	adds	r0, #1
    1e5a:	13a0      	asrs	r0, r4, #14
    1e5c:	0201      	lsls	r1, r0, #8
    1e5e:	e351      	b.n	0x2504
    1e60:	0000      	movs	r0, r0
    1e62:	3151      	adds	r1, #81	; 0x51
    1e64:	1201      	asrs	r1, r0, #8
    1e66:	31a0      	adds	r1, #160	; 0xa0
    1e68:	3203      	adds	r2, #3
    1e6a:	31a0      	adds	r1, #160	; 0xa0
    1e6c:	fffa 3aff 			; <UNDEFINED> instruction: 0xfffa3aff
    1e70:	0102      	lsls	r2, r0, #4
    1e72:	e351      	b.n	0x2518
    1e74:	0000      	movs	r0, r0
    1e76:	3151      	adds	r1, #81	; 0x51
    1e78:	1081      	asrs	r1, r0, #2
    1e7a:	31a0      	adds	r1, #160	; 0xa0
    1e7c:	3083      	adds	r0, #131	; 0x83
    1e7e:	31a0      	adds	r1, #160	; 0xa0
    1e80:	fffa 3aff 			; <UNDEFINED> instruction: 0xfffa3aff
    1e84:	2000      	movs	r0, #0
    1e86:	e3a0      	b.n	0x25ca
    1e88:	0001      	movs	r1, r0
    1e8a:	e150      	b.n	0x212e
    1e8c:	0001      	movs	r1, r0
    1e8e:	2040      	movs	r0, #64	; 0x40
    1e90:	2003      	movs	r0, #3
    1e92:	2182      	movs	r1, #130	; 0x82
    1e94:	00a1      	lsls	r1, r4, #2
    1e96:	e150      	b.n	0x213a
    1e98:	00a1      	lsls	r1, r4, #2
    1e9a:	2040      	movs	r0, #64	; 0x40
    1e9c:	20a3      	movs	r0, #163	; 0xa3
    1e9e:	2182      	movs	r1, #130	; 0x82
    1ea0:	0121      	lsls	r1, r4, #4
    1ea2:	e150      	b.n	0x2146
    1ea4:	0121      	lsls	r1, r4, #4
    1ea6:	2040      	movs	r0, #64	; 0x40
    1ea8:	2123      	movs	r1, #35	; 0x23
    1eaa:	2182      	movs	r1, #130	; 0x82
    1eac:	01a1      	lsls	r1, r4, #6
    1eae:	e150      	b.n	0x2152
    1eb0:	01a1      	lsls	r1, r4, #6
    1eb2:	2040      	movs	r0, #64	; 0x40
    1eb4:	21a3      	movs	r1, #163	; 0xa3
    1eb6:	2182      	movs	r1, #130	; 0x82
    1eb8:	0000      	movs	r0, r0
    1eba:	e350      	b.n	0x255e
    1ebc:	3223      	adds	r2, #35	; 0x23
    1ebe:	11b0      	asrs	r0, r6, #6
    1ec0:	1221      	asrs	r1, r4, #8
    1ec2:	11a0      	asrs	r0, r4, #6
    1ec4:	ffef 1aff 			; <UNDEFINED> instruction: 0xffef1aff
    1ec8:	0002      	movs	r2, r0
    1eca:	e1a0      	b.n	0x220e
    1ecc:	ff1e e12f 	vrhadd.u16	d14, d14, d31
    1ed0:	0001      	movs	r1, r0
    1ed2:	03a0      	lsls	r0, r4, #14
    1ed4:	0000      	movs	r0, r0
    1ed6:	13a0      	asrs	r0, r4, #14
    1ed8:	ff1e e12f 	vrhadd.u16	d14, d14, d31
    1edc:	0801      	lsrs	r1, r0, #32
    1ede:	e351      	b.n	0x2584
    1ee0:	1821      	adds	r1, r4, r0
    1ee2:	21a0      	movs	r1, #160	; 0xa0
    1ee4:	2010      	movs	r0, #16
    1ee6:	23a0      	movs	r3, #160	; 0xa0
    1ee8:	2000      	movs	r0, #0
    1eea:	33a0      	adds	r3, #160	; 0xa0
    1eec:	0c01      	lsrs	r1, r0, #16
    1eee:	e351      	b.n	0x2594
    1ef0:	1421      	asrs	r1, r4, #16
    1ef2:	21a0      	movs	r1, #160	; 0xa0
    1ef4:	2008      	movs	r0, #8
    1ef6:	2282      	movs	r2, #130	; 0x82
    1ef8:	0010      	movs	r0, r2
    1efa:	e351      	b.n	0x25a0
    1efc:	1221      	asrs	r1, r4, #8
    1efe:	21a0      	movs	r1, #160	; 0xa0
    1f00:	2004      	movs	r0, #4
    1f02:	2282      	movs	r2, #130	; 0x82
    1f04:	0004      	movs	r4, r0
    1f06:	e351      	b.n	0x25ac
    1f08:	2003      	movs	r0, #3
    1f0a:	8282      	strh	r2, [r0, #20]
    1f0c:	20a1      	movs	r0, #161	; 0xa1
    1f0e:	9082      	str	r0, [sp, #520]	; 0x208
    1f10:	0230      	lsls	r0, r6, #8
    1f12:	e1a0      	b.n	0x2256
    1f14:	ff1e e12f 	vrhadd.u16	d14, d14, d31
    1f18:	0000      	movs	r0, r0
    1f1a:	e350      	b.n	0x25be
    1f1c:	0000      	movs	r0, r0
    1f1e:	13e0      	asrs	r0, r4, #15
    1f20:	0007      	movs	r7, r0
    1f22:	ea00 0000 	and.w	r0, r0, r0
    1f26:	e351      	b.n	0x25cc
    1f28:	fffa 0aff 			; <UNDEFINED> instruction: 0xfffa0aff
    1f2c:	4003      	ands	r3, r0
    1f2e:	e92d ffbe 	stmdb	sp!, {r1, r2, r3, r4, r5, r7, r8, r9, sl, fp, ip, sp, lr, pc}
    1f32:	ebff 4006 			; <UNDEFINED> instruction: 0xebff4006
    1f36:	e8bd 0092 	ldmia.w	sp!, {r1, r4, r7}
    1f3a:	e003      	b.n	0x1f44
    1f3c:	1003      	asrs	r3, r0, #32
    1f3e:	e041      	b.n	0x1fc4
    1f40:	ff1e e12f 	vrhadd.u16	d14, d14, d31
    1f44:	ff1e e12f 	vrhadd.u16	d14, d14, d31
    1f48:	0018      	movs	r0, r3
    1f4a:	e59f      	b.n	0x1a8c
    1f4c:	3018      	adds	r0, #24
    1f4e:	e59f      	b.n	0x1a90
    1f50:	0000      	movs	r0, r0
    1f52:	e153      	b.n	0x21fc
    1f54:	ff1e 012f 	vrhadd.u16	d0, d14, d31
    1f58:	3010      	adds	r0, #16
    1f5a:	e59f      	b.n	0x1a9c
    1f5c:	0000      	movs	r0, r0
    1f5e:	e353      	b.n	0x2608
    1f60:	ff1e 012f 	vrhadd.u16	d0, d14, d31
    1f64:	ff13 e12f 	vrhadd.u16	d14, d3, d31
    1f68:	0874      	lsrs	r4, r6, #1
    1f6a:	0300      	lsls	r0, r0, #12
    1f6c:	0874      	lsrs	r4, r6, #1
    1f6e:	0300      	lsls	r0, r0, #12
    1f70:	0000      	movs	r0, r0
    1f72:	0000      	movs	r0, r0
    1f74:	0024      	movs	r4, r4
    1f76:	e59f      	b.n	0x1ab8
    1f78:	1024      	asrs	r4, r4, #32
    1f7a:	e59f      	b.n	0x1abc
    1f7c:	1000      	asrs	r0, r0, #32
    1f7e:	e041      	b.n	0x2004
    1f80:	1141      	asrs	r1, r0, #5
    1f82:	e1a0      	b.n	0x22c6
    1f84:	1fa1      	subs	r1, r4, #6
    1f86:	e081      	b.n	0x208c
    1f88:	10c1      	asrs	r1, r0, #3
    1f8a:	e1b0      	b.n	0x22ee
    1f8c:	ff1e 012f 	vrhadd.u16	d0, d14, d31
    1f90:	3010      	adds	r0, #16
    1f92:	e59f      	b.n	0x1ad4
    1f94:	0000      	movs	r0, r0
    1f96:	e353      	b.n	0x2640
    1f98:	ff1e 012f 	vrhadd.u16	d0, d14, d31
    1f9c:	ff13 e12f 	vrhadd.u16	d14, d3, d31
    1fa0:	0874      	lsrs	r4, r6, #1
    1fa2:	0300      	lsls	r0, r0, #12
    1fa4:	0874      	lsrs	r4, r6, #1
    1fa6:	0300      	lsls	r0, r0, #12
    1fa8:	0000      	movs	r0, r0
    1faa:	0000      	movs	r0, r0
    1fac:	4010      	ands	r0, r2
    1fae:	e92d 402c 	stmdb	sp!, {r2, r3, r5, lr}
    1fb2:	e59f      	b.n	0x1af4
    1fb4:	3000      	adds	r0, #0
    1fb6:	e5d4      	b.n	0x1b62
    1fb8:	0000      	movs	r0, r0
    1fba:	e353      	b.n	0x2664
    1fbc:	0006      	movs	r6, r0
    1fbe:	1a00      	subs	r0, r0, r0
    1fc0:	ffe0 ebff 			; <UNDEFINED> instruction: 0xffe0ebff
    1fc4:	301c      	adds	r0, #28
    1fc6:	e59f      	b.n	0x1b08
    1fc8:	0000      	movs	r0, r0
    1fca:	e353      	b.n	0x2674
    1fcc:	0018      	movs	r0, r3
    1fce:	159f      	asrs	r7, r3, #22
    1fd0:	0000      	movs	r0, r0
    1fd2:	11a0      	asrs	r0, r4, #6
    1fd4:	3001      	adds	r0, #1
    1fd6:	e3a0      	b.n	0x271a
    1fd8:	3000      	adds	r0, #0
    1fda:	e5c4      	b.n	0x1b66
    1fdc:	4010      	ands	r0, r2
    1fde:	e8bd ff1e 	ldmia.w	sp!, {r1, r2, r3, r4, r8, r9, sl, fp, ip, sp, lr, pc}
    1fe2:	e12f      	b.n	0x2244
    1fe4:	0000      	movs	r0, r0
    1fe6:	0300      	lsls	r0, r0, #12
    1fe8:	0000      	movs	r0, r0
    1fea:	0000      	movs	r0, r0
    1fec:	2c68      	cmp	r4, #104	; 0x68
    1fee:	0800      	lsrs	r0, r0, #32
    1ff0:	3020      	adds	r0, #32
    1ff2:	e59f      	b.n	0x1b34
    1ff4:	0000      	movs	r0, r0
    1ff6:	e353      	b.n	0x26a0
    1ff8:	0005      	movs	r5, r0
    1ffa:	0a00      	lsrs	r0, r0, #8
    1ffc:	4010      	ands	r0, r2
    1ffe:	e92d 1014 	stmdb	sp!, {r2, r4, ip}
    2002:	e59f      	b.n	0x1b44
    2004:	0014      	movs	r4, r2
    2006:	e59f      	b.n	0x1b48
    2008:	0000      	movs	r0, r0
    200a:	e1a0      	b.n	0x234e
    200c:	4010      	ands	r0, r2
    200e:	e8bd ffd7 	ldmia.w	sp!, {r0, r1, r2, r4, r6, r7, r8, r9, sl, fp, ip, sp, lr, pc}
    2012:	eaff ffd6 			; <UNDEFINED> instruction: 0xeaffffd6
    2016:	eaff 0000 			; <UNDEFINED> instruction: 0xeaff0000
    201a:	0000      	movs	r0, r0
    201c:	0004      	movs	r4, r0
    201e:	0300      	lsls	r0, r0, #12
    2020:	2c68      	cmp	r4, #104	; 0x68
    2022:	0800      	lsrs	r0, r0, #32
    2024:	4ff0      	ldr	r7, [pc, #960]	; (0x23e8)
    2026:	e92d 4001 	stmdb	sp!, {r0, lr}
    202a:	e1a0      	b.n	0x236e
    202c:	d054      	beq.n	0x20d8
    202e:	e24d      	b.n	0x24cc
    2030:	0004      	movs	r4, r0
    2032:	e58d      	b.n	0x1b50
    2034:	1ffa      	subs	r2, r7, #7
    2036:	e3a0      	b.n	0x277a
    2038:	0614      	lsls	r4, r2, #24
    203a:	e59f      	b.n	0x1b7c
    203c:	fa72 ebff 			; <UNDEFINED> instruction: 0xfa72ebff
    2040:	2004      	movs	r0, #4
    2042:	e1a0      	b.n	0x2386
    2044:	1004      	asrs	r4, r0, #32
    2046:	e28d      	b.n	0x2564
    2048:	004e      	lsls	r6, r1, #1
    204a:	e28d      	b.n	0x2568
    204c:	fd97 ebff 			; <UNDEFINED> instruction: 0xfd97ebff
    2050:	0001      	movs	r1, r0
    2052:	e3a0      	b.n	0x2796
    2054:	ff1a ebff 	vqrdmlah.s16	q7, q13, <illegal reg q15.5>
    2058:	00bc      	lsls	r4, r7, #2
    205a:	e1cd      	b.n	0x23f8
    205c:	0002      	movs	r2, r0
    205e:	e3a0      	b.n	0x27a2
    2060:	ff17 ebff 	vqrdmlah.s16	q7, <illegal reg q11.5>, <illegal reg q15.5>
    2064:	00be      	lsls	r6, r7, #2
    2066:	e1cd      	b.n	0x2404
    2068:	0003      	movs	r3, r0
    206a:	e3a0      	b.n	0x27ae
    206c:	ff14 ebff 	vqrdmlah.s16	q7, q10, <illegal reg q15.5>
    2070:	01b0      	lsls	r0, r6, #6
    2072:	e1cd      	b.n	0x2410
    2074:	0004      	movs	r4, r0
    2076:	e3a0      	b.n	0x27ba
    2078:	ff11 ebff 	vqrdmlah.s16	q7, <illegal reg q8.5>, <illegal reg q15.5>
    207c:	0028      	movs	r0, r5
    207e:	e58d      	b.n	0x1b9c
    2080:	0005      	movs	r5, r0
    2082:	e3a0      	b.n	0x27c6
    2084:	ff0e ebff 	vqrdmlah.s<illegal width 8>	q7, q15, <illegal reg q15.5>
    2088:	0000      	movs	r0, r0
    208a:	e350      	b.n	0x272e
    208c:	3007      	adds	r0, #7
    208e:	03a0      	lsls	r0, r4, #14
    2090:	302c      	adds	r0, #44	; 0x2c
    2092:	058d      	lsls	r5, r1, #22
    2094:	300c      	adds	r0, #12
    2096:	e59d      	b.n	0x1bd4
    2098:	002c      	movs	r4, r5
    209a:	158d      	asrs	r5, r1, #22
    209c:	0000      	movs	r0, r0
    209e:	e353      	b.n	0x2748
    20a0:	0142      	lsls	r2, r0, #5
    20a2:	1a00      	subs	r0, r0, r0
    20a4:	31f0      	adds	r1, #240	; 0xf0
    20a6:	e1dd      	b.n	0x2464
    20a8:	0000      	movs	r0, r0
    20aa:	e353      	b.n	0x2754
    20ac:	3066      	adds	r0, #102	; 0x66
    20ae:	03a0      	lsls	r0, r4, #14
    20b0:	31b0      	adds	r1, #176	; 0xb0
    20b2:	01cd      	lsls	r5, r1, #7
    20b4:	402c      	ands	r4, r5
    20b6:	e59d      	b.n	0x1bf4
    20b8:	6001      	str	r1, [r0, #0]
    20ba:	e204      	b.n	0x24c6
    20bc:	1006      	asrs	r6, r0, #32
    20be:	e1a0      	b.n	0x2402
    20c0:	2000      	movs	r0, #0
    20c2:	e3a0      	b.n	0x2806
    20c4:	5002      	str	r2, [r0, r0]
    20c6:	e214      	b.n	0x24f2
    20c8:	1001      	asrs	r1, r0, #32
    20ca:	1286      	asrs	r6, r0, #10
    20cc:	0004      	movs	r4, r0
    20ce:	e314      	b.n	0x26fa
    20d0:	1001      	asrs	r1, r0, #32
    20d2:	1281      	asrs	r1, r0, #10
    20d4:	357c      	adds	r5, #124	; 0x7c
    20d6:	e59f      	b.n	0x1c18
    20d8:	1801      	adds	r1, r0, r0
    20da:	11a0      	asrs	r0, r4, #6
    20dc:	1821      	adds	r1, r4, r0
    20de:	11a0      	asrs	r0, r4, #6
    20e0:	0e7d      	lsrs	r5, r7, #25
    20e2:	e3a0      	b.n	0x2826
    20e4:	24bc      	movs	r4, #188	; 0xbc
    20e6:	e1cd      	b.n	0x2484
    20e8:	3014      	adds	r0, #20
    20ea:	e58d      	b.n	0x1c08
    20ec:	ff4f ebff 	vqrdmlah.s<illegal width 8>	q15, <illegal reg q15.5>, <illegal reg q15.5>
    20f0:	3000      	adds	r0, #0
    20f2:	e3a0      	b.n	0x2836
    20f4:	1001      	asrs	r1, r0, #32
    20f6:	e3a0      	b.n	0x283a
    20f8:	2003      	movs	r0, #3
    20fa:	e1a0      	b.n	0x243e
    20fc:	0024      	movs	r4, r4
    20fe:	e58d      	b.n	0x1c1c
    2100:	c311      	stmia	r3!, {r0, r4}
    2102:	e014      	b.n	0x212e
    2104:	010d      	lsls	r5, r1, #4
    2106:	1a00      	subs	r0, r0, r0
    2108:	3001      	adds	r0, #1
    210a:	e283      	b.n	0x2614
    210c:	0003      	movs	r3, r0
    210e:	e353      	b.n	0x27b8
    2110:	fffa 1aff 			; <UNDEFINED> instruction: 0xfffa1aff
    2114:	0000      	movs	r0, r0
    2116:	e356      	b.n	0x27c6
    2118:	009b      	lsls	r3, r3, #2
    211a:	1a00      	subs	r0, r0, r0
    211c:	0000      	movs	r0, r0
    211e:	e355      	b.n	0x27cc
    2120:	0090      	lsls	r0, r2, #2
    2122:	1a00      	subs	r0, r0, r0
    2124:	0004      	movs	r4, r0
    2126:	e314      	b.n	0x2752
    2128:	2020      	movs	r0, #32
    212a:	159d      	asrs	r5, r3, #22
    212c:	10fc      	asrs	r4, r7, #3
    212e:	11dd      	asrs	r5, r3, #7
    2130:	0024      	movs	r4, r4
    2132:	159d      	asrs	r5, r3, #22
    2134:	fd63 1bff 			; <UNDEFINED> instruction: 0xfd631bff
    2138:	3028      	adds	r0, #40	; 0x28
    213a:	e59d      	b.n	0x1c78
    213c:	0000      	movs	r0, r0
    213e:	e353      	b.n	0x27e8
    2140:	0013      	movs	r3, r2
    2142:	1a00      	subs	r0, r0, r0
    2144:	3001      	adds	r0, #1
    2146:	e3a0      	b.n	0x288a
    2148:	3028      	adds	r0, #40	; 0x28
    214a:	e58d      	b.n	0x1c68
    214c:	3028      	adds	r0, #40	; 0x28
    214e:	e59d      	b.n	0x1c8c
    2150:	3103      	adds	r1, #3
    2152:	e083      	b.n	0x225c
    2154:	3083      	adds	r0, #131	; 0x83
    2156:	e1a0      	b.n	0x249a
    2158:	3028      	adds	r0, #40	; 0x28
    215a:	e58d      	b.n	0x1c78
    215c:	fd40 ebff 			; <UNDEFINED> instruction: 0xfd40ebff
    2160:	000c      	movs	r4, r1
    2162:	e28d      	b.n	0x2680
    2164:	faee ebff 			; <UNDEFINED> instruction: 0xfaeeebff
    2168:	fd42 ebff 			; <UNDEFINED> instruction: 0xfd42ebff
    216c:	fd46 ebff 			; <UNDEFINED> instruction: 0xfd46ebff
    2170:	fd4d ebff 			; <UNDEFINED> instruction: 0xfd4debff
    2174:	0000      	movs	r0, r0
    2176:	e350      	b.n	0x281a
    2178:	fff3 0aff 			; <UNDEFINED> instruction: 0xfff30aff
    217c:	1000      	asrs	r0, r0, #32
    217e:	e1a0      	b.n	0x24c2
    2180:	000a      	movs	r2, r1
    2182:	e3a0      	b.n	0x28c6
    2184:	ff29 ebff 	vqrdmlah.s32	q7, <illegal reg q12.5>, <illegal reg q15.5>
    2188:	3028      	adds	r0, #40	; 0x28
    218a:	e59d      	b.n	0x1cc8
    218c:	3390      	adds	r3, #144	; 0x90
    218e:	e022      	b.n	0x21d6
    2190:	2028      	movs	r0, #40	; 0x28
    2192:	e58d      	b.n	0x1cb0
    2194:	fd32 ebff 			; <UNDEFINED> instruction: 0xfd32ebff
    2198:	000c      	movs	r4, r1
    219a:	e28d      	b.n	0x26b8
    219c:	fae0 ebff 			; <UNDEFINED> instruction: 0xfae0ebff
    21a0:	fd34 ebff 			; <UNDEFINED> instruction: 0xfd34ebff
    21a4:	fd38 ebff 			; <UNDEFINED> instruction: 0xfd38ebff
    21a8:	1000      	asrs	r0, r0, #32
    21aa:	e3a0      	b.n	0x28ee
    21ac:	b000      	add	sp, #0
    21ae:	e1a0      	b.n	0x24f2
    21b0:	00fc      	lsls	r4, r7, #3
    21b2:	e1dd      	b.n	0x2570
    21b4:	ff18 ebff 	vqrdmlah.s16	q7, q12, <illegal reg q15.5>
    21b8:	1000      	asrs	r0, r0, #32
    21ba:	e1a0      	b.n	0x24fe
    21bc:	00fe      	lsls	r6, r7, #3
    21be:	e1dd      	b.n	0x257c
    21c0:	ff15 ebff 	vqrdmlah.s16	q7, <illegal reg q10.5>, <illegal reg q15.5>
    21c4:	1000      	asrs	r0, r0, #32
    21c6:	e1a0      	b.n	0x250a
    21c8:	01f0      	lsls	r0, r6, #7
    21ca:	e1dd      	b.n	0x2588
    21cc:	ff12 ebff 	vqrdmlah.s16	q7, q9, <illegal reg q15.5>
    21d0:	1000      	asrs	r0, r0, #32
    21d2:	e1a0      	b.n	0x2516
    21d4:	02f4      	lsls	r4, r6, #11
    21d6:	e1dd      	b.n	0x2594
    21d8:	ff0f ebff 	vqrdmlah.s<illegal width 8>	q7, <illegal reg q15.5>, <illegal reg q15.5>
    21dc:	3478      	adds	r4, #120	; 0x78
    21de:	e59f      	b.n	0x1d20
    21e0:	0003      	movs	r3, r0
    21e2:	e150      	b.n	0x2486
    21e4:	a000      	add	r0, pc, #0	; (adr r0, 0x21e8)
    21e6:	e1a0      	b.n	0x252a
    21e8:	010d      	lsls	r5, r1, #4
    21ea:	0a00      	lsrs	r0, r0, #8
    21ec:	0053      	lsls	r3, r2, #1
    21ee:	9a00      	ldr	r2, [sp, #0]
    21f0:	3468      	adds	r4, #104	; 0x68
    21f2:	e59f      	b.n	0x1d34
    21f4:	0003      	movs	r3, r0
    21f6:	e150      	b.n	0x249a
    21f8:	010d      	lsls	r5, r1, #4
    21fa:	0a00      	lsrs	r0, r0, #8
    21fc:	3460      	adds	r4, #96	; 0x60
    21fe:	e59f      	b.n	0x1d40
    2200:	0003      	movs	r3, r0
    2202:	e150      	b.n	0x24a6
    2204:	0067      	lsls	r7, r4, #1
    2206:	1a00      	subs	r0, r0, r0
    2208:	0458      	lsls	r0, r3, #17
    220a:	e59f      	b.n	0x1d4c
    220c:	f9fe ebff 	ldr??.w	lr, [lr, #3071]	; 0xbff
    2210:	9003      	str	r0, [sp, #12]
    2212:	e3a0      	b.n	0x2956
    2214:	8450      	strh	r0, [r2, #34]	; 0x22
    2216:	e59f      	b.n	0x1d58
    2218:	6000      	str	r0, [r0, #0]
    221a:	e598      	b.n	0x1d4e
    221c:	0000      	movs	r0, r0
    221e:	e356      	b.n	0x28ce
    2220:	0062      	lsls	r2, r4, #1
    2222:	0a00      	lsrs	r0, r0, #8
    2224:	4000      	ands	r0, r0
    2226:	e3a0      	b.n	0x296a
    2228:	3440      	adds	r4, #64	; 0x40
    222a:	e59f      	b.n	0x1d6c
    222c:	5004      	str	r4, [r0, r0]
    222e:	e1a0      	b.n	0x2572
    2230:	9089      	str	r0, [sp, #548]	; 0x224
    2232:	e083      	b.n	0x233c
    2234:	0016      	movs	r6, r2
    2236:	ea00 20b6 	and.w	r0, r0, r6, ror #10
    223a:	e157      	b.n	0x24ec
    223c:	31b8      	adds	r1, #184	; 0xb8
    223e:	e1d9      	b.n	0x25f4
    2240:	0003      	movs	r3, r0
    2242:	e152      	b.n	0x24ea
    2244:	003b      	movs	r3, r7
    2246:	0a00      	lsrs	r0, r0, #8
    2248:	1005      	asrs	r5, r0, #32
    224a:	e1a0      	b.n	0x258e
    224c:	0420      	lsls	r0, r4, #16
    224e:	e59f      	b.n	0x1d90
    2250:	f9ed ebff 	vld4.32			; <UNDEFINED> instruction: 0xf9edebff
    2254:	60b4      	str	r4, [r6, #8]
    2256:	e157      	b.n	0x2508
    2258:	6001      	str	r1, [r0, #0]
    225a:	e286      	b.n	0x276a
    225c:	6806      	ldr	r6, [r0, #0]
    225e:	e1a0      	b.n	0x25a2
    2260:	6826      	ldr	r6, [r4, #0]
    2262:	e1a0      	b.n	0x25a6
    2264:	60b4      	str	r4, [r6, #8]
    2266:	e147      	b.n	0x24f8
    2268:	6004      	str	r4, [r0, #0]
    226a:	e086      	b.n	0x237a
    226c:	5001      	str	r1, [r0, r0]
    226e:	e285      	b.n	0x277c
    2270:	6806      	ldr	r6, [r0, #0]
    2272:	e1a0      	b.n	0x25b6
    2274:	5805      	ldr	r5, [r0, r0]
    2276:	e1a0      	b.n	0x25ba
    2278:	3000      	adds	r0, #0
    227a:	e598      	b.n	0x1dae
    227c:	6826      	ldr	r6, [r4, #0]
    227e:	e1a0      	b.n	0x25c2
    2280:	5825      	ldr	r5, [r4, r0]
    2282:	e1a0      	b.n	0x25c6
    2284:	4806      	ldr	r0, [pc, #24]	; (0x22a0)
    2286:	e1a0      	b.n	0x25ca
    2288:	0003      	movs	r3, r0
    228a:	e155      	b.n	0x2538
    228c:	4844      	ldr	r0, [pc, #272]	; (0x23a0)
    228e:	e1a0      	b.n	0x25d2
    2290:	0046      	lsls	r6, r0, #1
    2292:	2a00      	cmp	r2, #0
    2294:	3000      	adds	r0, #0
    2296:	e3a0      	b.n	0x29da
    2298:	7205      	strb	r5, [r0, #8]
    229a:	e1a0      	b.n	0x25de
    229c:	2050      	movs	r0, #80	; 0x50
    229e:	e28d      	b.n	0x27bc
    22a0:	6005      	str	r5, [r0, #0]
    22a2:	e087      	b.n	0x23b4
    22a4:	6106      	str	r6, [r0, #16]
    22a6:	e082      	b.n	0x23ae
    22a8:	2024      	movs	r0, #36	; 0x24
    22aa:	e516      	b.n	0x1cda
    22ac:	0001      	movs	r1, r0
    22ae:	e312      	b.n	0x28d6
    22b0:	30b4      	adds	r0, #180	; 0xb4
    22b2:	e146      	b.n	0x2542
    22b4:	0009      	movs	r1, r1
    22b6:	0a00      	lsrs	r0, r0, #8
    22b8:	20ba      	movs	r0, #186	; 0xba
    22ba:	e156      	b.n	0x256a
    22bc:	30b0      	adds	r0, #176	; 0xb0
    22be:	e1d9      	b.n	0x2674
    22c0:	0003      	movs	r3, r0
    22c2:	e152      	b.n	0x256a
    22c4:	0005      	movs	r5, r0
    22c6:	0a00      	lsrs	r0, r0, #8
    22c8:	1005      	asrs	r5, r0, #32
    22ca:	e1a0      	b.n	0x260e
    22cc:	03a4      	lsls	r4, r4, #14
    22ce:	e59f      	b.n	0x1e10
    22d0:	f9cd ebff 	vst4.32			; <UNDEFINED> instruction: 0xf9cdebff
    22d4:	30b4      	adds	r0, #180	; 0xb4
    22d6:	e156      	b.n	0x2586
    22d8:	3001      	adds	r0, #1
    22da:	e283      	b.n	0x27e4
    22dc:	30b4      	adds	r0, #180	; 0xb4
    22de:	e146      	b.n	0x256e
    22e0:	6005      	str	r5, [r0, #0]
    22e2:	e087      	b.n	0x23f4
    22e4:	3050      	adds	r0, #80	; 0x50
    22e6:	e28d      	b.n	0x2804
    22e8:	6106      	str	r6, [r0, #16]
    22ea:	e083      	b.n	0x23f4
    22ec:	1024      	asrs	r4, r4, #32
    22ee:	e516      	b.n	0x1d1e
    22f0:	0002      	movs	r2, r0
    22f2:	e311      	b.n	0x2918
    22f4:	000a      	movs	r2, r1
    22f6:	0a00      	lsrs	r0, r0, #8
    22f8:	20b8      	movs	r0, #184	; 0xb8
    22fa:	e156      	b.n	0x25aa
    22fc:	30bc      	adds	r0, #188	; 0xbc
    22fe:	e1d9      	b.n	0x26b4
    2300:	0003      	movs	r3, r0
    2302:	e152      	b.n	0x25aa
    2304:	0006      	movs	r6, r0
    2306:	0a00      	lsrs	r0, r0, #8
    2308:	1005      	asrs	r5, r0, #32
    230a:	e1a0      	b.n	0x264e
    230c:	0368      	lsls	r0, r5, #13
    230e:	e59f      	b.n	0x1e50
    2310:	f9bd ebff 	ldrsh.w	lr, [sp, #3071]	; 0xbff
    2314:	30b4      	adds	r0, #180	; 0xb4
    2316:	e156      	b.n	0x25c6
    2318:	3001      	adds	r0, #1
    231a:	e283      	b.n	0x2824
    231c:	30b4      	adds	r0, #180	; 0xb4
    231e:	e146      	b.n	0x25ae
    2320:	1024      	asrs	r4, r4, #32
    2322:	e516      	b.n	0x1d52
    2324:	7005      	strb	r5, [r0, #0]
    2326:	e087      	b.n	0x2438
    2328:	3050      	adds	r0, #80	; 0x50
    232a:	e28d      	b.n	0x2848
    232c:	0004      	movs	r4, r0
    232e:	e311      	b.n	0x2954
    2330:	7107      	strb	r7, [r0, #4]
    2332:	e083      	b.n	0x243c
    2334:	ffbf 1aff 			; <UNDEFINED> instruction: 0xffbf1aff
    2338:	60b4      	str	r4, [r6, #8]
    233a:	e157      	b.n	0x25ec
    233c:	ffc9 eaff 			; <UNDEFINED> instruction: 0xffc9eaff
    2340:	3338      	adds	r3, #56	; 0x38
    2342:	e59f      	b.n	0x1e84
    2344:	0003      	movs	r3, r0
    2346:	e150      	b.n	0x25ea
    2348:	00bd      	lsls	r5, r7, #2
    234a:	0a00      	lsrs	r0, r0, #8
    234c:	3330      	adds	r3, #48	; 0x30
    234e:	e59f      	b.n	0x1e90
    2350:	0003      	movs	r3, r0
    2352:	e150      	b.n	0x25f6
    2354:	0013      	movs	r3, r2
    2356:	1a00      	subs	r0, r0, r0
    2358:	0328      	lsls	r0, r5, #12
    235a:	e59f      	b.n	0x1e9c
    235c:	f9aa ebff 	vld4.32			; <UNDEFINED> instruction: 0xf9aaebff
    2360:	9002      	str	r0, [sp, #8]
    2362:	e3a0      	b.n	0x2aa6
    2364:	ffaa eaff 			; <UNDEFINED> instruction: 0xffaaeaff
    2368:	10fe      	asrs	r6, r7, #3
    236a:	e1dd      	b.n	0x2728
    236c:	20fc      	movs	r0, #252	; 0xfc
    236e:	e1dd      	b.n	0x272c
    2370:	3034      	adds	r0, #52	; 0x34
    2372:	e28d      	b.n	0x2890
    2374:	2801      	cmp	r0, #1
    2376:	e182      	b.n	0x267e
    2378:	0024      	movs	r4, r4
    237a:	e59d      	b.n	0x1eb8
    237c:	101c      	asrs	r4, r3, #32
    237e:	e59d      	b.n	0x1ebc
    2380:	fa83 ebff 			; <UNDEFINED> instruction: 0xfa83ebff
    2384:	402c      	ands	r4, r5
    2386:	e59d      	b.n	0x1ec4
    2388:	ff65 eaff 	vpmin.u32	q15, <illegal reg q10.5>, <illegal reg q15.5>
    238c:	20fc      	movs	r0, #252	; 0xfc
    238e:	e1dd      	b.n	0x274c
    2390:	1018      	asrs	r0, r3, #32
    2392:	e59d      	b.n	0x1ed0
    2394:	f934 ebff 	ldrsh.w	lr, [r4], #255
    2398:	402c      	ands	r4, r5
    239a:	e59d      	b.n	0x1ed8
    239c:	0030      	movs	r0, r6
    239e:	e58d      	b.n	0x1ebc
    23a0:	5002      	str	r2, [r0, r0]
    23a2:	e204      	b.n	0x27ae
    23a4:	ff5c eaff 	vpmin.u16	q15, q14, <illegal reg q15.5>
    23a8:	62dc      	str	r4, [r3, #44]	; 0x2c
    23aa:	e59f      	b.n	0x1eec
    23ac:	82b8      	strh	r0, [r7, #20]
    23ae:	e59f      	b.n	0x1ef0
    23b0:	fe9c ebff 			; <UNDEFINED> instruction: 0xfe9cebff
    23b4:	1024      	asrs	r4, r4, #32
    23b6:	e59d      	b.n	0x1ef4
    23b8:	6000      	str	r0, [r0, #0]
    23ba:	e086      	b.n	0x24ca
    23bc:	02cc      	lsls	r4, r1, #11
    23be:	e59f      	b.n	0x1f00
    23c0:	f991 ebff 	ldrsb.w	lr, [r1, #3071]	; 0xbff
    23c4:	000b      	movs	r3, r1
    23c6:	e1a0      	b.n	0x270a
    23c8:	fcb7 ebff 			; <UNDEFINED> instruction: 0xfcb7ebff
    23cc:	1000      	asrs	r0, r0, #32
    23ce:	e1a0      	b.n	0x2712
    23d0:	02bc      	lsls	r4, r7, #10
    23d2:	e59f      	b.n	0x1f14
    23d4:	f98c ebff 	vst4.32			; <UNDEFINED> instruction: 0xf98cebff
    23d8:	3028      	adds	r0, #40	; 0x28
    23da:	e59d      	b.n	0x1f18
    23dc:	2000      	movs	r0, #0
    23de:	e598      	b.n	0x1f12
    23e0:	02b0      	lsls	r0, r6, #10
    23e2:	e59f      	b.n	0x1f24
    23e4:	0293      	lsls	r3, r2, #10
    23e6:	e001      	b.n	0x23ec
    23e8:	f987 ebff 	vst4.32			; <UNDEFINED> instruction: 0xf987ebff
    23ec:	12a8      	asrs	r0, r5, #10
    23ee:	e59f      	b.n	0x1f30
    23f0:	02a8      	lsls	r0, r5, #10
    23f2:	e59f      	b.n	0x1f34
    23f4:	f984 ebff 	vst4.32			; <UNDEFINED> instruction: 0xf984ebff
    23f8:	100a      	asrs	r2, r1, #32
    23fa:	e1a0      	b.n	0x273e
    23fc:	02a0      	lsls	r0, r4, #10
    23fe:	e59f      	b.n	0x1f40
    2400:	f981 ebff 	vst4.32			; <UNDEFINED> instruction: 0xf981ebff
    2404:	302c      	adds	r0, #44	; 0x2c
    2406:	e59d      	b.n	0x1f44
    2408:	6806      	ldr	r6, [r0, #0]
    240a:	e1a0      	b.n	0x274e
    240c:	0001      	movs	r1, r0
    240e:	e313      	b.n	0x2a38
    2410:	6846      	ldr	r6, [r0, #4]
    2412:	e1a0      	b.n	0x2756
    2414:	0012      	movs	r2, r2
    2416:	0a00      	lsrs	r0, r0, #8
    2418:	2000      	movs	r0, #0
    241a:	e598      	b.n	0x1f4e
    241c:	0000      	movs	r0, r0
    241e:	e352      	b.n	0x2ac6
    2420:	000f      	movs	r7, r1
    2422:	0a00      	lsrs	r0, r0, #8
    2424:	4000      	ands	r0, r0
    2426:	e3a0      	b.n	0x2b6a
    2428:	5278      	strh	r0, [r7, r1]
    242a:	e59f      	b.n	0x1f6c
    242c:	3204      	adds	r2, #4
    242e:	e084      	b.n	0x253a
    2430:	2050      	movs	r0, #80	; 0x50
    2432:	e28d      	b.n	0x2950
    2434:	3103      	adds	r1, #3
    2436:	e082      	b.n	0x253e
    2438:	20ba      	movs	r0, #186	; 0xba
    243a:	e153      	b.n	0x26e4
    243c:	1004      	asrs	r4, r0, #32
    243e:	e1a0      	b.n	0x2782
    2440:	0005      	movs	r5, r0
    2442:	e1a0      	b.n	0x2786
    2444:	4001      	ands	r1, r0
    2446:	e284      	b.n	0x2952
    2448:	f96f ebff 			; <UNDEFINED> instruction: 0xf96febff
    244c:	4804      	ldr	r0, [pc, #16]	; (0x2460)
    244e:	e1a0      	b.n	0x2792
    2450:	3000      	adds	r0, #0
    2452:	e598      	b.n	0x1f86
    2454:	4824      	ldr	r0, [pc, #144]	; (0x24e8)
    2456:	e1a0      	b.n	0x279a
    2458:	0003      	movs	r3, r0
    245a:	e154      	b.n	0x2706
    245c:	fff2 3aff 			; <UNDEFINED> instruction: 0xfff23aff
    2460:	302c      	adds	r0, #44	; 0x2c
    2462:	e59d      	b.n	0x1fa0
    2464:	0002      	movs	r2, r0
    2466:	e313      	b.n	0x2a90
    2468:	0012      	movs	r2, r2
    246a:	0a00      	lsrs	r0, r0, #8
    246c:	2000      	movs	r0, #0
    246e:	e598      	b.n	0x1fa2
    2470:	0000      	movs	r0, r0
    2472:	e352      	b.n	0x2b1a
    2474:	0067      	lsls	r7, r4, #1
    2476:	0a00      	lsrs	r0, r0, #8
    2478:	4000      	ands	r0, r0
    247a:	e3a0      	b.n	0x2bbe
    247c:	5228      	strh	r0, [r5, r0]
    247e:	e59f      	b.n	0x1fc0
    2480:	3204      	adds	r2, #4
    2482:	e084      	b.n	0x258e
    2484:	2050      	movs	r0, #80	; 0x50
    2486:	e28d      	b.n	0x29a4
    2488:	3103      	adds	r1, #3
    248a:	e082      	b.n	0x2592
    248c:	20b8      	movs	r0, #184	; 0xb8
    248e:	e153      	b.n	0x2738
    2490:	1004      	asrs	r4, r0, #32
    2492:	e1a0      	b.n	0x27d6
    2494:	0005      	movs	r5, r0
    2496:	e1a0      	b.n	0x27da
    2498:	4001      	ands	r1, r0
    249a:	e284      	b.n	0x29a6
    249c:	f95a ebff 	ldr??.w	lr, [sl], #255
    24a0:	4804      	ldr	r0, [pc, #16]	; (0x24b4)
    24a2:	e1a0      	b.n	0x27e6
    24a4:	3000      	adds	r0, #0
    24a6:	e598      	b.n	0x1fda
    24a8:	4824      	ldr	r0, [pc, #144]	; (0x253c)
    24aa:	e1a0      	b.n	0x27ee
    24ac:	0003      	movs	r3, r0
    24ae:	e154      	b.n	0x275a
    24b0:	fff2 3aff 			; <UNDEFINED> instruction: 0xfff23aff
    24b4:	302c      	adds	r0, #44	; 0x2c
    24b6:	e59d      	b.n	0x1ff4
    24b8:	0004      	movs	r4, r0
    24ba:	e313      	b.n	0x2ae4
    24bc:	0028      	movs	r0, r5
    24be:	1a00      	subs	r0, r0, r0
    24c0:	3000      	adds	r0, #0
    24c2:	e598      	b.n	0x1ff6
    24c4:	0000      	movs	r0, r0
    24c6:	e353      	b.n	0x2b70
    24c8:	4000      	ands	r0, r0
    24ca:	13a0      	asrs	r0, r4, #14
    24cc:	51dc      	str	r4, [r3, r7]
    24ce:	159f      	asrs	r7, r3, #22
    24d0:	000c      	movs	r4, r1
    24d2:	0a00      	lsrs	r0, r0, #8
    24d4:	3204      	adds	r2, #4
    24d6:	e084      	b.n	0x25e2
    24d8:	2050      	movs	r0, #80	; 0x50
    24da:	e28d      	b.n	0x29f8
    24dc:	3103      	adds	r1, #3
    24de:	e082      	b.n	0x25e6
    24e0:	20bc      	movs	r0, #188	; 0xbc
    24e2:	e153      	b.n	0x278c
    24e4:	1004      	asrs	r4, r0, #32
    24e6:	e1a0      	b.n	0x282a
    24e8:	0005      	movs	r5, r0
    24ea:	e1a0      	b.n	0x282e
    24ec:	4001      	ands	r1, r0
    24ee:	e284      	b.n	0x29fa
    24f0:	f945 ebff 			; <UNDEFINED> instruction: 0xf945ebff
    24f4:	4804      	ldr	r0, [pc, #16]	; (0x2508)
    24f6:	e1a0      	b.n	0x283a
    24f8:	3000      	adds	r0, #0
    24fa:	e598      	b.n	0x202e
    24fc:	4824      	ldr	r0, [pc, #144]	; (0x2590)
    24fe:	e1a0      	b.n	0x2842
    2500:	0003      	movs	r3, r0
    2502:	e154      	b.n	0x27ae
    2504:	fff2 3aff 			; <UNDEFINED> instruction: 0xfff23aff
    2508:	100b      	asrs	r3, r1, #32
    250a:	e1a0      	b.n	0x284e
    250c:	01a0      	lsls	r0, r4, #6
    250e:	e59f      	b.n	0x2050
    2510:	f93d ebff 	ldrsh.w	lr, [sp], #255
    2514:	0000      	movs	r0, r0
    2516:	e356      	b.n	0x2bc6
    2518:	002d      	movs	r5, r5
    251a:	0a00      	lsrs	r0, r0, #8
    251c:	0194      	lsls	r4, r2, #6
    251e:	c59f      	stmia	r5!, {r0, r1, r2, r3, r4, r7}
    2520:	0194      	lsls	r4, r2, #6
    2522:	d59f      	bpl.n	0x2464
    2524:	f938 ebff 	ldrsh.w	lr, [r8], #255
    2528:	004e      	lsls	r6, r1, #1
    252a:	e28d      	b.n	0x2a48
    252c:	fc62 ebff 			; <UNDEFINED> instruction: 0xfc62ebff
    2530:	0000      	movs	r0, r0
    2532:	e3a0      	b.n	0x2c76
    2534:	d054      	beq.n	0x25e0
    2536:	e28d      	b.n	0x2a54
    2538:	4ff0      	ldr	r7, [pc, #960]	; (0x28fc)
    253a:	e8bd ff1e 	ldmia.w	sp!, {r1, r2, r3, r4, r8, r9, sl, fp, ip, sp, lr, pc}
    253e:	e12f      	b.n	0x27a0
    2540:	e014      	b.n	0x256c
    2542:	e59d      	b.n	0x2080
    2544:	e290      	b.n	0x2a68
    2546:	e027      	b.n	0x2598
    2548:	c00c      	stmia	r0!, {r2, r3}
    254a:	e28d      	b.n	0x2a68
    254c:	2001      	movs	r0, #1
    254e:	e282      	b.n	0x2a56
    2550:	c103      	stmia	r1!, {r0, r1}
    2552:	e08c      	b.n	0x266e
    2554:	2802      	cmp	r0, #2
    2556:	e1a0      	b.n	0x289a
    2558:	700c      	strb	r4, [r1, #0]
    255a:	e58c      	b.n	0x2076
    255c:	2822      	cmp	r0, #34	; 0x22
    255e:	e1a0      	b.n	0x28a2
    2560:	fee8 eaff 			; <UNDEFINED> instruction: 0xfee8eaff
    2564:	3000      	adds	r0, #0
    2566:	e598      	b.n	0x209a
    2568:	0000      	movs	r0, r0
    256a:	e353      	b.n	0x2c14
    256c:	4000      	ands	r0, r0
    256e:	13a0      	asrs	r0, r4, #14
    2570:	5148      	str	r0, [r1, r5]
    2572:	159f      	asrs	r7, r3, #22
    2574:	ffe3 0aff 			; <UNDEFINED> instruction: 0xffe30aff
    2578:	3204      	adds	r2, #4
    257a:	e084      	b.n	0x2686
    257c:	2050      	movs	r0, #80	; 0x50
    257e:	e28d      	b.n	0x2a9c
    2580:	3103      	adds	r1, #3
    2582:	e082      	b.n	0x268a
    2584:	20b6      	movs	r0, #182	; 0xb6
    2586:	e153      	b.n	0x2830
    2588:	1004      	asrs	r4, r0, #32
    258a:	e1a0      	b.n	0x28ce
    258c:	0005      	movs	r5, r0
    258e:	e1a0      	b.n	0x28d2
    2590:	4001      	ands	r1, r0
    2592:	e284      	b.n	0x2a9e
    2594:	f91c ebff 	ldrsb.w	lr, [ip], #255
    2598:	4804      	ldr	r0, [pc, #16]	; (0x25ac)
    259a:	e1a0      	b.n	0x28de
    259c:	3000      	adds	r0, #0
    259e:	e598      	b.n	0x20d2
    25a0:	4824      	ldr	r0, [pc, #144]	; (0x2634)
    25a2:	e1a0      	b.n	0x28e6
    25a4:	0003      	movs	r3, r0
    25a6:	e154      	b.n	0x2852
    25a8:	fff2 3aff 			; <UNDEFINED> instruction: 0xfff23aff
    25ac:	ffc3 eaff 			; <UNDEFINED> instruction: 0xffc3eaff
    25b0:	0001      	movs	r1, r0
    25b2:	e353      	b.n	0x2c5c
    25b4:	febe 1aff 			; <UNDEFINED> instruction: 0xfebe1aff
    25b8:	31f0      	adds	r1, #240	; 0xf0
    25ba:	e1dd      	b.n	0x2978
    25bc:	0000      	movs	r0, r0
    25be:	e353      	b.n	0x2c68
    25c0:	2066      	movs	r0, #102	; 0x66
    25c2:	03a0      	lsls	r0, r4, #14
    25c4:	30f8      	adds	r0, #248	; 0xf8
    25c6:	059f      	lsls	r7, r3, #22
    25c8:	21b0      	movs	r1, #176	; 0xb0
    25ca:	01cd      	lsls	r5, r1, #7
    25cc:	300c      	adds	r0, #12
    25ce:	058d      	lsls	r5, r1, #22
    25d0:	feb7 eaff 			; <UNDEFINED> instruction: 0xfeb7eaff
    25d4:	00ec      	lsls	r4, r5, #3
    25d6:	e59f      	b.n	0x2118
    25d8:	f90b ebff 			; <UNDEFINED> instruction: 0xf90bebff
    25dc:	000b      	movs	r3, r1
    25de:	e1a0      	b.n	0x2922
    25e0:	fc31 ebff 			; <UNDEFINED> instruction: 0xfc31ebff
    25e4:	1000      	asrs	r0, r0, #32
    25e6:	e1a0      	b.n	0x292a
    25e8:	00dc      	lsls	r4, r3, #3
    25ea:	e59f      	b.n	0x212c
    25ec:	fe0f ebff 			; <UNDEFINED> instruction: 0xfe0febff
    25f0:	3ffa      	subs	r7, #250	; 0xfa
    25f2:	e3a0      	b.n	0x2d36
    25f4:	0093      	lsls	r3, r2, #2
    25f6:	e00c      	b.n	0x2612
    25f8:	10d0      	asrs	r0, r2, #3
    25fa:	e59f      	b.n	0x213c
    25fc:	219c      	movs	r1, #156	; 0x9c
    25fe:	e083      	b.n	0x2708
    2600:	00cc      	lsls	r4, r1, #3
    2602:	e59f      	b.n	0x2144
    2604:	1323      	asrs	r3, r4, #12
    2606:	e1a0      	b.n	0x294a
    2608:	f8ff ebff 	ldr??.w	lr, [pc, #3071]	; 0x320b
    260c:	00c4      	lsls	r4, r0, #3
    260e:	e59f      	b.n	0x2150
    2610:	f8fd ebff 	ldr??.w	lr, [sp, #3071]	; 0xbff
    2614:	ffc3 eaff 			; <UNDEFINED> instruction: 0xffc3eaff
    2618:	0004      	movs	r4, r0
    261a:	e313      	b.n	0x2c44
    261c:	ffb9 1aff 			; <UNDEFINED> instruction: 0xffb91aff
    2620:	ffa6 eaff 			; <UNDEFINED> instruction: 0xffa6eaff
    2624:	00b0      	lsls	r0, r6, #2
    2626:	e59f      	b.n	0x2168
    2628:	f8f7 ebff 	ldr??.w	lr, [r7, #3071]	; 0xbff
    262c:	9001      	str	r0, [sp, #4]
    262e:	e3a0      	b.n	0x2d72
    2630:	fef7 eaff 			; <UNDEFINED> instruction: 0xfef7eaff
    2634:	00a4      	lsls	r4, r4, #2
    2636:	e59f      	b.n	0x2178
    2638:	f8f3 ebff 	ldr??.w	lr, [r3, #3071]	; 0xbff
    263c:	9000      	str	r0, [sp, #0]
    263e:	e3a0      	b.n	0x2d82
    2640:	fef3 eaff 			; <UNDEFINED> instruction: 0xfef3eaff
    2644:	0098      	lsls	r0, r3, #2
    2646:	e59f      	b.n	0x2188
    2648:	f8ef ebff 	str??.w	lr, [pc, #3071]	; 0x324b
    264c:	9004      	str	r0, [sp, #16]
    264e:	e3a0      	b.n	0x2d92
    2650:	feef eaff 			; <UNDEFINED> instruction: 0xfeefeaff
    2654:	27ec      	movs	r7, #236	; 0xec
    2656:	0800      	lsrs	r0, r0, #32
    2658:	0090      	lsls	r0, r2, #2
    265a:	0300      	lsls	r0, r0, #12
    265c:	7b05      	ldrb	r5, [r0, #12]
    265e:	0000      	movs	r0, r0
    2660:	8a02      	ldrh	r2, [r0, #16]
    2662:	0000      	movs	r0, r0
    2664:	e9f5 0000 	ldrd	r0, r0, [r5]
    2668:	28a0      	cmp	r0, #160	; 0xa0
    266a:	0800      	lsrs	r0, r0, #32
    266c:	0868      	lsrs	r0, r5, #1
    266e:	0300      	lsls	r0, r0, #12
    2670:	2788      	movs	r7, #136	; 0x88
    2672:	0800      	lsrs	r0, r0, #32
    2674:	2960      	cmp	r1, #96	; 0x60
    2676:	0800      	lsrs	r0, r0, #32
    2678:	28fc      	cmp	r0, #252	; 0xfc
    267a:	0800      	lsrs	r0, r0, #32
    267c:	292c      	cmp	r1, #44	; 0x2c
    267e:	0800      	lsrs	r0, r0, #32
    2680:	18f2      	adds	r2, r6, r3
    2682:	0000      	movs	r0, r0
    2684:	4eaf      	ldr	r6, [pc, #700]	; (0x2944)
    2686:	0000      	movs	r0, r0
    2688:	286c      	cmp	r0, #108	; 0x6c
    268a:	0800      	lsrs	r0, r0, #32
    268c:	ffff 0000 	vaddl.u<illegal width 64>	q8, d15, d0
    2690:	2990      	cmp	r1, #144	; 0x90
    2692:	0800      	lsrs	r0, r0, #32
    2694:	29a8      	cmp	r1, #168	; 0xa8
    2696:	0800      	lsrs	r0, r0, #32
    2698:	29c0      	cmp	r1, #192	; 0xc0
    269a:	0800      	lsrs	r0, r0, #32
    269c:	29d8      	cmp	r1, #216	; 0xd8
    269e:	0800      	lsrs	r0, r0, #32
    26a0:	29e4      	cmp	r1, #228	; 0xe4
    26a2:	0800      	lsrs	r0, r0, #32
    26a4:	29fc      	cmp	r1, #252	; 0xfc
    26a6:	0800      	lsrs	r0, r0, #32
    26a8:	2a18      	cmp	r2, #24
    26aa:	0800      	lsrs	r0, r0, #32
    26ac:	2a34      	cmp	r2, #52	; 0x34
    26ae:	0800      	lsrs	r0, r0, #32
    26b0:	2a80      	cmp	r2, #128	; 0x80
    26b2:	0800      	lsrs	r0, r0, #32
    26b4:	2a50      	cmp	r2, #80	; 0x50
    26b6:	0800      	lsrs	r0, r0, #32
    26b8:	2b28      	cmp	r3, #40	; 0x28
    26ba:	0800      	lsrs	r0, r0, #32
    26bc:	2b3c      	cmp	r3, #60	; 0x3c
    26be:	0800      	lsrs	r0, r0, #32
    26c0:	2a64      	cmp	r2, #100	; 0x64
    26c2:	0800      	lsrs	r0, r0, #32
    26c4:	3415      	adds	r4, #21
    26c6:	3415      	adds	r4, #21
    26c8:	2a9c      	cmp	r2, #156	; 0x9c
    26ca:	0800      	lsrs	r0, r0, #32
    26cc:	2f80      	cmp	r7, #128	; 0x80
    26ce:	0044      	lsls	r4, r0, #1
    26d0:	4dd3      	ldr	r5, [pc, #844]	; (0x2a20)
    26d2:	1062      	asrs	r2, r4, #1
    26d4:	2ad0      	cmp	r2, #208	; 0xd0
    26d6:	0800      	lsrs	r0, r0, #32
    26d8:	2af0      	cmp	r2, #240	; 0xf0
    26da:	0800      	lsrs	r0, r0, #32
    26dc:	2840      	cmp	r0, #64	; 0x40
    26de:	0800      	lsrs	r0, r0, #32
    26e0:	2810      	cmp	r0, #16
    26e2:	0800      	lsrs	r0, r0, #32
    26e4:	28d0      	cmp	r0, #208	; 0xd0
    26e6:	0800      	lsrs	r0, r0, #32
    26e8:	4070      	eors	r0, r6
    26ea:	e92d 606c 	stmdb	sp!, {r2, r3, r5, r6, sp, lr}
    26ee:	e59f      	b.n	0x2230
    26f0:	506c      	str	r4, [r5, r1]
    26f2:	e59f      	b.n	0x2234
    26f4:	6005      	str	r5, [r0, #0]
    26f6:	e046      	b.n	0x2786
    26f8:	6146      	str	r6, [r0, #20]
    26fa:	e1b0      	b.n	0x2a5e
    26fc:	0007      	movs	r7, r0
    26fe:	0a00      	lsrs	r0, r0, #8
    2700:	4000      	ands	r0, r0
    2702:	e3a0      	b.n	0x2e46
    2704:	5004      	str	r4, [r0, r0]
    2706:	e245      	b.n	0x2b94
    2708:	4001      	ands	r1, r0
    270a:	e284      	b.n	0x2c16
    270c:	3004      	adds	r0, #4
    270e:	e5b5      	b.n	0x227c
    2710:	e00f      	b.n	0x2732
    2712:	e1a0      	b.n	0x2a56
    2714:	ff13 e12f 	vrhadd.u16	d14, d3, d31
    2718:	0004      	movs	r4, r0
    271a:	e156      	b.n	0x29ca
    271c:	fff9 1aff 			; <UNDEFINED> instruction: 0xfff91aff
    2720:	6040      	str	r0, [r0, #4]
    2722:	e59f      	b.n	0x2264
    2724:	5040      	str	r0, [r0, r1]
    2726:	e59f      	b.n	0x2268
    2728:	6005      	str	r5, [r0, #0]
    272a:	e046      	b.n	0x27ba
    272c:	f6b7 ebff 			; <UNDEFINED> instruction: 0xf6b7ebff
    2730:	6146      	str	r6, [r0, #20]
    2732:	e1b0      	b.n	0x2a96
    2734:	0007      	movs	r7, r0
    2736:	0a00      	lsrs	r0, r0, #8
    2738:	4000      	ands	r0, r0
    273a:	e3a0      	b.n	0x2e7e
    273c:	5004      	str	r4, [r0, r0]
    273e:	e245      	b.n	0x2bcc
    2740:	4001      	ands	r1, r0
    2742:	e284      	b.n	0x2c4e
    2744:	3004      	adds	r0, #4
    2746:	e5b5      	b.n	0x22b4
    2748:	e00f      	b.n	0x276a
    274a:	e1a0      	b.n	0x2a8e
    274c:	ff13 e12f 	vrhadd.u16	d14, d3, d31
    2750:	0004      	movs	r4, r0
    2752:	e156      	b.n	0x2a02
    2754:	fff9 1aff 			; <UNDEFINED> instruction: 0xfff91aff
    2758:	4070      	eors	r0, r6
    275a:	e8bd ff1e 	ldmia.w	sp!, {r1, r2, r3, r4, r8, r9, sl, fp, ip, sp, lr, pc}
    275e:	e12f      	b.n	0x29c0
    2760:	0874      	lsrs	r4, r6, #1
    2762:	0300      	lsls	r0, r0, #12
    2764:	0874      	lsrs	r4, r6, #1
    2766:	0300      	lsls	r0, r0, #12
    2768:	0878      	lsrs	r0, r7, #1
    276a:	0300      	lsls	r0, r0, #12
    276c:	0874      	lsrs	r4, r6, #1
    276e:	0300      	lsls	r0, r0, #12
    2770:	c00d      	stmia	r0!, {r0, r2, r3}
    2772:	e1a0      	b.n	0x2ab6
    2774:	dff8      	svc	248	; 0xf8
    2776:	e92d b004 	stmdb	sp!, {r2, ip, sp, pc}
    277a:	e24c      	b.n	0x2c16
    277c:	d028      	beq.n	0x27d0
    277e:	e24b      	b.n	0x2c18
    2780:	6ff0      	ldr	r0, [r6, #124]	; 0x7c
    2782:	e89d ff1e 	ldmia.w	sp, {r1, r2, r3, r4, r8, r9, sl, fp, ip, sp, lr, pc}
    2786:	e12f      	b.n	0x29e8
    2788:	d4b0      	bmi.n	0x26ec
    278a:	3340      	adds	r3, #64	; 0x40
    278c:	6a79      	ldr	r1, [r7, #36]	; 0x24
    278e:	e714      	b.n	0x25ba
    2790:	e3c1      	b.n	0x2f16
    2792:	0000      	movs	r0, r0
    2794:	be52      	bkpt	0x0052
    2796:	1199      	asrs	r1, r3, #6
    2798:	5608      	ldrsb	r0, [r1, r0]
    279a:	1fd7      	subs	r7, r2, #7
    279c:	0747      	lsls	r7, r0, #29
    279e:	0000      	movs	r0, r0
    27a0:	5e47      	ldrsh	r7, [r0, r1]
    27a2:	39bf      	subs	r1, #191	; 0xbf
    27a4:	e5a4      	b.n	0x22f0
    27a6:	8e3a      	ldrh	r2, [r7, #48]	; 0x30
    27a8:	8d84      	ldrh	r4, [r0, #44]	; 0x2c
    27aa:	ffff 2c48 	vdup.8	q9, d8[7]
    27ae:	0800      	lsrs	r0, r0, #32
    27b0:	2c50      	cmp	r4, #80	; 0x50
    27b2:	0800      	lsrs	r0, r0, #32
    27b4:	2c58      	cmp	r4, #88	; 0x58
    27b6:	0800      	lsrs	r0, r0, #32
    27b8:	2c60      	cmp	r4, #96	; 0x60
    27ba:	0800      	lsrs	r0, r0, #32
    27bc:	2c18      	cmp	r4, #24
    27be:	0800      	lsrs	r0, r0, #32
    27c0:	2c24      	cmp	r4, #36	; 0x24
    27c2:	0800      	lsrs	r0, r0, #32
    27c4:	2c30      	cmp	r4, #48	; 0x30
    27c6:	0800      	lsrs	r0, r0, #32
    27c8:	2c3c      	cmp	r4, #60	; 0x3c
    27ca:	0800      	lsrs	r0, r0, #32
    27cc:	2be8      	cmp	r3, #232	; 0xe8
    27ce:	0800      	lsrs	r0, r0, #32
    27d0:	2bf4      	cmp	r3, #244	; 0xf4
    27d2:	0800      	lsrs	r0, r0, #32
    27d4:	2c00      	cmp	r4, #0
    27d6:	0800      	lsrs	r0, r0, #32
    27d8:	2c0c      	cmp	r4, #12
    27da:	0800      	lsrs	r0, r0, #32
    27dc:	2bb8      	cmp	r3, #184	; 0xb8
    27de:	0800      	lsrs	r0, r0, #32
    27e0:	2bc4      	cmp	r3, #196	; 0xc4
    27e2:	0800      	lsrs	r0, r0, #32
    27e4:	2bd0      	cmp	r3, #208	; 0xd0
    27e6:	0800      	lsrs	r0, r0, #32
    27e8:	2bdc      	cmp	r3, #220	; 0xdc
    27ea:	0800      	lsrs	r0, r0, #32
    27ec:	7552      	strb	r2, [r2, #21]
    27ee:	6e6e      	ldr	r6, [r5, #100]	; 0x64
    27f0:	6e69      	ldr	r1, [r5, #100]	; 0x64
    27f2:	2067      	movs	r0, #103	; 0x67
    27f4:	6f43      	ldr	r3, [r0, #116]	; 0x74
    27f6:	6572      	str	r2, [r6, #84]	; 0x54
    27f8:	614d      	str	r5, [r1, #20]
    27fa:	6b72      	ldr	r2, [r6, #52]	; 0x34
    27fc:	6620      	str	r0, [r4, #96]	; 0x60
    27fe:	726f      	strb	r7, [r5, #9]
    2800:	2520      	movs	r5, #32
    2802:	2064      	movs	r0, #100	; 0x64
    2804:	7469      	strb	r1, [r5, #17]
    2806:	7265      	strb	r5, [r4, #9]
    2808:	7461      	strb	r1, [r4, #17]
    280a:	6f69      	ldr	r1, [r5, #116]	; 0x74
    280c:	736e      	strb	r6, [r5, #13]
    280e:	000a      	movs	r2, r1
    2810:	6b36      	ldr	r6, [r6, #48]	; 0x30
    2812:	7020      	strb	r0, [r4, #0]
    2814:	7265      	strb	r5, [r4, #9]
    2816:	6f66      	ldr	r6, [r4, #116]	; 0x74
    2818:	6d72      	ldr	r2, [r6, #84]	; 0x54
    281a:	6e61      	ldr	r1, [r4, #100]	; 0x64
    281c:	6563      	str	r3, [r4, #84]	; 0x54
    281e:	7220      	strb	r0, [r4, #8]
    2820:	6e75      	ldr	r5, [r6, #100]	; 0x64
    2822:	7020      	strb	r0, [r4, #0]
    2824:	7261      	strb	r1, [r4, #9]
    2826:	6d61      	ldr	r1, [r4, #84]	; 0x54
    2828:	7465      	strb	r5, [r4, #17]
    282a:	7265      	strb	r5, [r4, #9]
    282c:	2073      	movs	r0, #115	; 0x73
    282e:	6f66      	ldr	r6, [r4, #116]	; 0x74
    2830:	2072      	movs	r0, #114	; 0x72
    2832:	6f63      	ldr	r3, [r4, #116]	; 0x74
    2834:	6572      	str	r2, [r6, #84]	; 0x54
    2836:	616d      	str	r5, [r5, #20]
    2838:	6b72      	ldr	r2, [r6, #52]	; 0x34
    283a:	0a2e      	lsrs	r6, r5, #8
    283c:	0000      	movs	r0, r0
    283e:	0000      	movs	r0, r0
    2840:	6b36      	ldr	r6, [r6, #48]	; 0x30
    2842:	7620      	strb	r0, [r4, #24]
    2844:	6c61      	ldr	r1, [r4, #68]	; 0x44
    2846:	6469      	str	r1, [r5, #68]	; 0x44
    2848:	7461      	strb	r1, [r4, #17]
    284a:	6f69      	ldr	r1, [r5, #116]	; 0x74
    284c:	206e      	movs	r0, #110	; 0x6e
    284e:	7572      	strb	r2, [r6, #21]
    2850:	206e      	movs	r0, #110	; 0x6e
    2852:	6170      	str	r0, [r6, #20]
    2854:	6172      	str	r2, [r6, #20]
    2856:	656d      	str	r5, [r5, #84]	; 0x54
    2858:	6574      	str	r4, [r6, #84]	; 0x54
    285a:	7372      	strb	r2, [r6, #13]
    285c:	6620      	str	r0, [r4, #96]	; 0x60
    285e:	726f      	strb	r7, [r5, #9]
    2860:	6320      	str	r0, [r4, #48]	; 0x30
    2862:	726f      	strb	r7, [r5, #9]
    2864:	6d65      	ldr	r5, [r4, #84]	; 0x54
    2866:	7261      	strb	r1, [r4, #9]
    2868:	2e6b      	cmp	r6, #107	; 0x6b
    286a:	000a      	movs	r2, r1
    286c:	7250      	strb	r0, [r2, #9]
    286e:	666f      	str	r7, [r5, #100]	; 0x64
    2870:	6c69      	ldr	r1, [r5, #68]	; 0x44
    2872:	2065      	movs	r0, #101	; 0x65
    2874:	6567      	str	r7, [r4, #84]	; 0x54
    2876:	656e      	str	r6, [r5, #84]	; 0x54
    2878:	6172      	str	r2, [r6, #20]
    287a:	6974      	ldr	r4, [r6, #20]
    287c:	6e6f      	ldr	r7, [r5, #100]	; 0x64
    287e:	7220      	strb	r0, [r4, #8]
    2880:	6e75      	ldr	r5, [r6, #100]	; 0x64
    2882:	7020      	strb	r0, [r4, #0]
    2884:	7261      	strb	r1, [r4, #9]
    2886:	6d61      	ldr	r1, [r4, #84]	; 0x54
    2888:	7465      	strb	r5, [r4, #17]
    288a:	7265      	strb	r5, [r4, #9]
    288c:	2073      	movs	r0, #115	; 0x73
    288e:	6f66      	ldr	r6, [r4, #116]	; 0x74
    2890:	2072      	movs	r0, #114	; 0x72
    2892:	6f63      	ldr	r3, [r4, #116]	; 0x74
    2894:	6572      	str	r2, [r6, #84]	; 0x54
    2896:	616d      	str	r5, [r5, #20]
    2898:	6b72      	ldr	r2, [r6, #52]	; 0x34
    289a:	0a2e      	lsrs	r6, r5, #8
    289c:	0000      	movs	r0, r0
    289e:	0000      	movs	r0, r0
    28a0:	4b32      	ldr	r3, [pc, #200]	; (0x296c)
    28a2:	7020      	strb	r0, [r4, #0]
    28a4:	7265      	strb	r5, [r4, #9]
    28a6:	6f66      	ldr	r6, [r4, #116]	; 0x74
    28a8:	6d72      	ldr	r2, [r6, #84]	; 0x54
    28aa:	6e61      	ldr	r1, [r4, #100]	; 0x64
    28ac:	6563      	str	r3, [r4, #84]	; 0x54
    28ae:	7220      	strb	r0, [r4, #8]
    28b0:	6e75      	ldr	r5, [r6, #100]	; 0x64
    28b2:	7020      	strb	r0, [r4, #0]
    28b4:	7261      	strb	r1, [r4, #9]
    28b6:	6d61      	ldr	r1, [r4, #84]	; 0x54
    28b8:	7465      	strb	r5, [r4, #17]
    28ba:	7265      	strb	r5, [r4, #9]
    28bc:	2073      	movs	r0, #115	; 0x73
    28be:	6f66      	ldr	r6, [r4, #116]	; 0x74
    28c0:	2072      	movs	r0, #114	; 0x72
    28c2:	6f63      	ldr	r3, [r4, #116]	; 0x74
    28c4:	6572      	str	r2, [r6, #84]	; 0x54
    28c6:	616d      	str	r5, [r5, #20]
    28c8:	6b72      	ldr	r2, [r6, #52]	; 0x34
    28ca:	0a2e      	lsrs	r6, r5, #8
    28cc:	0000      	movs	r0, r0
    28ce:	0000      	movs	r0, r0
    28d0:	4b32      	ldr	r3, [pc, #200]	; (0x299c)
    28d2:	7620      	strb	r0, [r4, #24]
    28d4:	6c61      	ldr	r1, [r4, #68]	; 0x44
    28d6:	6469      	str	r1, [r5, #68]	; 0x44
    28d8:	7461      	strb	r1, [r4, #17]
    28da:	6f69      	ldr	r1, [r5, #116]	; 0x74
    28dc:	206e      	movs	r0, #110	; 0x6e
    28de:	7572      	strb	r2, [r6, #21]
    28e0:	206e      	movs	r0, #110	; 0x6e
    28e2:	6170      	str	r0, [r6, #20]
    28e4:	6172      	str	r2, [r6, #20]
    28e6:	656d      	str	r5, [r5, #84]	; 0x54
    28e8:	6574      	str	r4, [r6, #84]	; 0x54
    28ea:	7372      	strb	r2, [r6, #13]
    28ec:	6620      	str	r0, [r4, #96]	; 0x60
    28ee:	726f      	strb	r7, [r5, #9]
    28f0:	6320      	str	r0, [r4, #48]	; 0x30
    28f2:	726f      	strb	r7, [r5, #9]
    28f4:	6d65      	ldr	r5, [r4, #84]	; 0x54
    28f6:	7261      	strb	r1, [r4, #9]
    28f8:	2e6b      	cmp	r6, #107	; 0x6b
    28fa:	000a      	movs	r2, r1
    28fc:	255b      	movs	r5, #91	; 0x5b
    28fe:	5d75      	ldrb	r5, [r6, r5]
    2900:	5245      	strh	r5, [r0, r1]
    2902:	4f52      	ldr	r7, [pc, #328]	; (0x2a4c)
    2904:	2152      	movs	r1, #82	; 0x52
    2906:	6c20      	ldr	r0, [r4, #64]	; 0x40
    2908:	7369      	strb	r1, [r5, #13]
    290a:	2074      	movs	r0, #116	; 0x74
    290c:	7263      	strb	r3, [r4, #9]
    290e:	2063      	movs	r0, #99	; 0x63
    2910:	7830      	ldrb	r0, [r6, #0]
    2912:	3025      	adds	r0, #37	; 0x25
    2914:	7834      	ldrb	r4, [r6, #0]
    2916:	2d20      	cmp	r5, #32
    2918:	7320      	strb	r0, [r4, #12]
    291a:	6f68      	ldr	r0, [r5, #116]	; 0x74
    291c:	6c75      	ldr	r5, [r6, #68]	; 0x44
    291e:	2064      	movs	r0, #100	; 0x64
    2920:	6562      	str	r2, [r4, #84]	; 0x54
    2922:	3020      	adds	r0, #32
    2924:	2578      	movs	r5, #120	; 0x78
    2926:	3430      	adds	r4, #48	; 0x30
    2928:	0a78      	lsrs	r0, r7, #9
    292a:	0000      	movs	r0, r0
    292c:	255b      	movs	r5, #91	; 0x5b
    292e:	5d75      	ldrb	r5, [r6, r5]
    2930:	5245      	strh	r5, [r0, r1]
    2932:	4f52      	ldr	r7, [pc, #328]	; (0x2a7c)
    2934:	2152      	movs	r1, #82	; 0x52
    2936:	6d20      	ldr	r0, [r4, #80]	; 0x50
    2938:	7461      	strb	r1, [r4, #17]
    293a:	6972      	ldr	r2, [r6, #20]
    293c:	2078      	movs	r0, #120	; 0x78
    293e:	7263      	strb	r3, [r4, #9]
    2940:	2063      	movs	r0, #99	; 0x63
    2942:	7830      	ldrb	r0, [r6, #0]
    2944:	3025      	adds	r0, #37	; 0x25
    2946:	7834      	ldrb	r4, [r6, #0]
    2948:	2d20      	cmp	r5, #32
    294a:	7320      	strb	r0, [r4, #12]
    294c:	6f68      	ldr	r0, [r5, #116]	; 0x74
    294e:	6c75      	ldr	r5, [r6, #68]	; 0x44
    2950:	2064      	movs	r0, #100	; 0x64
    2952:	6562      	str	r2, [r4, #84]	; 0x54
    2954:	3020      	adds	r0, #32
    2956:	2578      	movs	r5, #120	; 0x78
    2958:	3430      	adds	r4, #48	; 0x30
    295a:	0a78      	lsrs	r0, r7, #9
    295c:	0000      	movs	r0, r0
    295e:	0000      	movs	r0, r0
    2960:	255b      	movs	r5, #91	; 0x5b
    2962:	5d75      	ldrb	r5, [r6, r5]
    2964:	5245      	strh	r5, [r0, r1]
    2966:	4f52      	ldr	r7, [pc, #328]	; (0x2ab0)
    2968:	2152      	movs	r1, #82	; 0x52
    296a:	7320      	strb	r0, [r4, #12]
    296c:	6174      	str	r4, [r6, #20]
    296e:	6574      	str	r4, [r6, #84]	; 0x54
    2970:	6320      	str	r0, [r4, #48]	; 0x30
    2972:	6372      	str	r2, [r6, #52]	; 0x34
    2974:	3020      	adds	r0, #32
    2976:	2578      	movs	r5, #120	; 0x78
    2978:	3430      	adds	r4, #48	; 0x30
    297a:	2078      	movs	r0, #120	; 0x78
    297c:	202d      	movs	r0, #45	; 0x2d
    297e:	6873      	ldr	r3, [r6, #4]
    2980:	756f      	strb	r7, [r5, #21]
    2982:	646c      	str	r4, [r5, #68]	; 0x44
    2984:	6220      	str	r0, [r4, #32]
    2986:	2065      	movs	r0, #101	; 0x65
    2988:	7830      	ldrb	r0, [r6, #0]
    298a:	3025      	adds	r0, #37	; 0x25
    298c:	7834      	ldrb	r4, [r6, #0]
    298e:	000a      	movs	r2, r1
    2990:	6f43      	ldr	r3, [r0, #116]	; 0x74
    2992:	6572      	str	r2, [r6, #84]	; 0x54
    2994:	614d      	str	r5, [r1, #20]
    2996:	6b72      	ldr	r2, [r6, #52]	; 0x34
    2998:	5320      	strh	r0, [r4, r4]
    299a:	7a69      	ldrb	r1, [r5, #9]
    299c:	2065      	movs	r0, #101	; 0x65
    299e:	2020      	movs	r0, #32
    29a0:	3a20      	subs	r2, #32
    29a2:	2520      	movs	r5, #32
    29a4:	0a64      	lsrs	r4, r4, #9
    29a6:	0000      	movs	r0, r0
    29a8:	6f54      	ldr	r4, [r2, #116]	; 0x74
    29aa:	6174      	str	r4, [r6, #20]
    29ac:	206c      	movs	r0, #108	; 0x6c
    29ae:	6974      	ldr	r4, [r6, #20]
    29b0:	656d      	str	r5, [r5, #84]	; 0x54
    29b2:	2820      	cmp	r0, #32
    29b4:	736d      	strb	r5, [r5, #13]
    29b6:	2029      	movs	r0, #41	; 0x29
    29b8:	3a20      	subs	r2, #32
    29ba:	2520      	movs	r5, #32
    29bc:	0a64      	lsrs	r4, r4, #9
    29be:	0000      	movs	r0, r0
    29c0:	7449      	strb	r1, [r1, #17]
    29c2:	7265      	strb	r5, [r4, #9]
    29c4:	7461      	strb	r1, [r4, #17]
    29c6:	6f69      	ldr	r1, [r5, #116]	; 0x74
    29c8:	736e      	strb	r6, [r5, #13]
    29ca:	2020      	movs	r0, #32
    29cc:	2020      	movs	r0, #32
    29ce:	2020      	movs	r0, #32
    29d0:	3a20      	subs	r2, #32
    29d2:	2520      	movs	r5, #32
    29d4:	0a64      	lsrs	r4, r4, #9
    29d6:	0000      	movs	r0, r0
    29d8:	4347      	muls	r7, r0
    29da:	3843      	subs	r0, #67	; 0x43
    29dc:	312e      	adds	r1, #46	; 0x2e
    29de:	302e      	adds	r0, #46	; 0x2e
    29e0:	0000      	movs	r0, r0
    29e2:	0000      	movs	r0, r0
    29e4:	6f43      	ldr	r3, [r0, #116]	; 0x74
    29e6:	706d      	strb	r5, [r5, #1]
    29e8:	6c69      	ldr	r1, [r5, #68]	; 0x44
    29ea:	7265      	strb	r5, [r4, #9]
    29ec:	7620      	strb	r0, [r4, #24]
    29ee:	7265      	strb	r5, [r4, #9]
    29f0:	6973      	ldr	r3, [r6, #20]
    29f2:	6e6f      	ldr	r7, [r5, #100]	; 0x64
    29f4:	3a20      	subs	r2, #32
    29f6:	2520      	movs	r5, #32
    29f8:	0a73      	lsrs	r3, r6, #9
    29fa:	0000      	movs	r0, r0
    29fc:	6573      	str	r3, [r6, #84]	; 0x54
    29fe:	6465      	str	r5, [r4, #68]	; 0x44
    2a00:	7263      	strb	r3, [r4, #9]
    2a02:	2063      	movs	r0, #99	; 0x63
    2a04:	2020      	movs	r0, #32
    2a06:	2020      	movs	r0, #32
    2a08:	2020      	movs	r0, #32
    2a0a:	2020      	movs	r0, #32
    2a0c:	3a20      	subs	r2, #32
    2a0e:	3020      	adds	r0, #32
    2a10:	2578      	movs	r5, #120	; 0x78
    2a12:	3430      	adds	r4, #48	; 0x30
    2a14:	0a78      	lsrs	r0, r7, #9
    2a16:	0000      	movs	r0, r0
    2a18:	255b      	movs	r5, #91	; 0x5b
    2a1a:	5d64      	ldrb	r4, [r4, r5]
    2a1c:	7263      	strb	r3, [r4, #9]
    2a1e:	6c63      	ldr	r3, [r4, #68]	; 0x44
    2a20:	7369      	strb	r1, [r5, #13]
    2a22:	2074      	movs	r0, #116	; 0x74
    2a24:	2020      	movs	r0, #32
    2a26:	2020      	movs	r0, #32
    2a28:	2020      	movs	r0, #32
    2a2a:	203a      	movs	r0, #58	; 0x3a
    2a2c:	7830      	ldrb	r0, [r6, #0]
    2a2e:	3025      	adds	r0, #37	; 0x25
    2a30:	7834      	ldrb	r4, [r6, #0]
    2a32:	000a      	movs	r2, r1
    2a34:	255b      	movs	r5, #91	; 0x5b
    2a36:	5d64      	ldrb	r4, [r4, r5]
    2a38:	7263      	strb	r3, [r4, #9]
    2a3a:	6d63      	ldr	r3, [r4, #84]	; 0x54
    2a3c:	7461      	strb	r1, [r4, #17]
    2a3e:	6972      	ldr	r2, [r6, #20]
    2a40:	2078      	movs	r0, #120	; 0x78
    2a42:	2020      	movs	r0, #32
    2a44:	2020      	movs	r0, #32
    2a46:	203a      	movs	r0, #58	; 0x3a
    2a48:	7830      	ldrb	r0, [r6, #0]
    2a4a:	3025      	adds	r0, #37	; 0x25
    2a4c:	7834      	ldrb	r4, [r6, #0]
    2a4e:	000a      	movs	r2, r1
    2a50:	6946      	ldr	r6, [r0, #20]
    2a52:	696e      	ldr	r6, [r5, #20]
    2a54:	6573      	str	r3, [r6, #84]	; 0x54
    2a56:	2064      	movs	r0, #100	; 0x64
    2a58:	6e69      	ldr	r1, [r5, #100]	; 0x64
    2a5a:	2520      	movs	r5, #32
    2a5c:	2064      	movs	r0, #100	; 0x64
    2a5e:	736d      	strb	r5, [r5, #13]
    2a60:	0a2e      	lsrs	r6, r5, #8
    2a62:	0000      	movs	r0, r0
    2a64:	255b      	movs	r5, #91	; 0x5b
    2a66:	5d64      	ldrb	r4, [r4, r5]
    2a68:	7263      	strb	r3, [r4, #9]
    2a6a:	7363      	strb	r3, [r4, #13]
    2a6c:	6174      	str	r4, [r6, #20]
    2a6e:	6574      	str	r4, [r6, #84]	; 0x54
    2a70:	2020      	movs	r0, #32
    2a72:	2020      	movs	r0, #32
    2a74:	2020      	movs	r0, #32
    2a76:	203a      	movs	r0, #58	; 0x3a
    2a78:	7830      	ldrb	r0, [r6, #0]
    2a7a:	3025      	adds	r0, #37	; 0x25
    2a7c:	7834      	ldrb	r4, [r6, #0]
    2a7e:	000a      	movs	r2, r1
    2a80:	255b      	movs	r5, #91	; 0x5b
    2a82:	5d64      	ldrb	r4, [r4, r5]
    2a84:	7263      	strb	r3, [r4, #9]
    2a86:	6663      	str	r3, [r4, #100]	; 0x64
    2a88:	6e69      	ldr	r1, [r5, #100]	; 0x64
    2a8a:	6c61      	ldr	r1, [r4, #68]	; 0x44
    2a8c:	2020      	movs	r0, #32
    2a8e:	2020      	movs	r0, #32
    2a90:	2020      	movs	r0, #32
    2a92:	203a      	movs	r0, #58	; 0x3a
    2a94:	7830      	ldrb	r0, [r6, #0]
    2a96:	3025      	adds	r0, #37	; 0x25
    2a98:	7834      	ldrb	r4, [r6, #0]
    2a9a:	000a      	movs	r2, r1
    2a9c:	3d3d      	subs	r5, #61	; 0x3d
    2a9e:	3d3d      	subs	r5, #61	; 0x3d
    2aa0:	3d3d      	subs	r5, #61	; 0x3d
    2aa2:	3d3d      	subs	r5, #61	; 0x3d
    2aa4:	3d3d      	subs	r5, #61	; 0x3d
    2aa6:	3d3d      	subs	r5, #61	; 0x3d
    2aa8:	3d3d      	subs	r5, #61	; 0x3d
    2aaa:	3d3d      	subs	r5, #61	; 0x3d
    2aac:	3d3d      	subs	r5, #61	; 0x3d
    2aae:	3d3d      	subs	r5, #61	; 0x3d
    2ab0:	3d3d      	subs	r5, #61	; 0x3d
    2ab2:	3d3d      	subs	r5, #61	; 0x3d
    2ab4:	3d3d      	subs	r5, #61	; 0x3d
    2ab6:	3d3d      	subs	r5, #61	; 0x3d
    2ab8:	3d3d      	subs	r5, #61	; 0x3d
    2aba:	3d3d      	subs	r5, #61	; 0x3d
    2abc:	3d3d      	subs	r5, #61	; 0x3d
    2abe:	3d3d      	subs	r5, #61	; 0x3d
    2ac0:	3d3d      	subs	r5, #61	; 0x3d
    2ac2:	3d3d      	subs	r5, #61	; 0x3d
    2ac4:	3d3d      	subs	r5, #61	; 0x3d
    2ac6:	3d3d      	subs	r5, #61	; 0x3d
    2ac8:	3d3d      	subs	r5, #61	; 0x3d
    2aca:	3d3d      	subs	r5, #61	; 0x3d
    2acc:	3d3d      	subs	r5, #61	; 0x3d
    2ace:	000a      	movs	r2, r1
    2ad0:	6f43      	ldr	r3, [r0, #116]	; 0x74
    2ad2:	6572      	str	r2, [r6, #84]	; 0x54
    2ad4:	614d      	str	r5, [r1, #20]
    2ad6:	6b72      	ldr	r2, [r6, #52]	; 0x34
    2ad8:	5020      	str	r0, [r4, r0]
    2ada:	5341      	strh	r1, [r0, r5]
    2adc:	2053      	movs	r0, #83	; 0x53
    2ade:	2020      	movs	r0, #32
    2ae0:	2020      	movs	r0, #32
    2ae2:	2020      	movs	r0, #32
    2ae4:	6425      	str	r5, [r4, #64]	; 0x40
    2ae6:	4d20      	ldr	r5, [pc, #128]	; (0x2b68)
    2ae8:	7261      	strb	r1, [r4, #9]
    2aea:	736b      	strb	r3, [r5, #13]
    2aec:	000a      	movs	r2, r1
    2aee:	0000      	movs	r0, r0
    2af0:	2020      	movs	r0, #32
    2af2:	2020      	movs	r0, #32
    2af4:	2020      	movs	r0, #32
    2af6:	2020      	movs	r0, #32
    2af8:	2020      	movs	r0, #32
    2afa:	2020      	movs	r0, #32
    2afc:	2020      	movs	r0, #32
    2afe:	2020      	movs	r0, #32
    2b00:	7376      	strb	r6, [r6, #13]
    2b02:	202e      	movs	r0, #46	; 0x2e
    2b04:	3031      	adds	r0, #49	; 0x31
    2b06:	3030      	adds	r0, #48	; 0x30
    2b08:	3030      	adds	r0, #48	; 0x30
    2b0a:	4d20      	ldr	r5, [pc, #128]	; (0x2b8c)
    2b0c:	7261      	strb	r1, [r4, #9]
    2b0e:	736b      	strb	r3, [r5, #13]
    2b10:	2820      	cmp	r0, #32
    2b12:	3769      	adds	r7, #105	; 0x69
    2b14:	362d      	adds	r6, #45	; 0x2d
    2b16:	3037      	adds	r0, #55	; 0x37
    2b18:	2030      	movs	r0, #48	; 0x30
    2b1a:	2040      	movs	r0, #64	; 0x40
    2b1c:	2e33      	cmp	r6, #51	; 0x33
    2b1e:	3034      	adds	r0, #52	; 0x34
    2b20:	4847      	ldr	r0, [pc, #284]	; (0x2c40)
    2b22:	297a      	cmp	r1, #122	; 0x7a
    2b24:	000a      	movs	r2, r1
    2b26:	0000      	movs	r0, r0
    2b28:	7245      	strb	r5, [r0, #9]
    2b2a:	6f72      	ldr	r2, [r6, #116]	; 0x74
    2b2c:	7372      	strb	r2, [r6, #13]
    2b2e:	6420      	str	r0, [r4, #64]	; 0x40
    2b30:	7465      	strb	r5, [r4, #17]
    2b32:	6365      	str	r5, [r4, #52]	; 0x34
    2b34:	6574      	str	r4, [r6, #84]	; 0x54
    2b36:	0a64      	lsrs	r4, r4, #9
    2b38:	0000      	movs	r0, r0
    2b3a:	0000      	movs	r0, r0
    2b3c:	6143      	str	r3, [r0, #20]
    2b3e:	6e6e      	ldr	r6, [r5, #100]	; 0x64
    2b40:	746f      	strb	r7, [r5, #17]
    2b42:	7620      	strb	r0, [r4, #24]
    2b44:	6c61      	ldr	r1, [r4, #68]	; 0x44
    2b46:	6469      	str	r1, [r5, #68]	; 0x44
    2b48:	7461      	strb	r1, [r4, #17]
    2b4a:	2065      	movs	r0, #101	; 0x65
    2b4c:	706f      	strb	r7, [r5, #1]
    2b4e:	7265      	strb	r5, [r4, #9]
    2b50:	7461      	strb	r1, [r4, #17]
    2b52:	6f69      	ldr	r1, [r5, #116]	; 0x74
    2b54:	206e      	movs	r0, #110	; 0x6e
    2b56:	6f66      	ldr	r6, [r4, #116]	; 0x74
    2b58:	2072      	movs	r0, #114	; 0x72
    2b5a:	6874      	ldr	r4, [r6, #4]
    2b5c:	7365      	strb	r5, [r4, #13]
    2b5e:	2065      	movs	r0, #101	; 0x65
    2b60:	6573      	str	r3, [r6, #84]	; 0x54
    2b62:	6465      	str	r5, [r4, #68]	; 0x44
    2b64:	7620      	strb	r0, [r4, #24]
    2b66:	6c61      	ldr	r1, [r4, #68]	; 0x44
    2b68:	6575      	str	r5, [r6, #84]	; 0x54
    2b6a:	2c73      	cmp	r4, #115	; 0x73
    2b6c:	7020      	strb	r0, [r4, #0]
    2b6e:	656c      	str	r4, [r5, #84]	; 0x54
    2b70:	7361      	strb	r1, [r4, #13]
    2b72:	2065      	movs	r0, #101	; 0x65
    2b74:	6f63      	ldr	r3, [r4, #116]	; 0x74
    2b76:	706d      	strb	r5, [r5, #1]
    2b78:	7261      	strb	r1, [r4, #9]
    2b7a:	2065      	movs	r0, #101	; 0x65
    2b7c:	6977      	ldr	r7, [r6, #20]
    2b7e:	6874      	ldr	r4, [r6, #4]
    2b80:	7220      	strb	r0, [r4, #8]
    2b82:	7365      	strb	r5, [r4, #13]
    2b84:	6c75      	ldr	r5, [r6, #68]	; 0x44
    2b86:	7374      	strb	r4, [r6, #13]
    2b88:	6f20      	ldr	r0, [r4, #112]	; 0x70
    2b8a:	206e      	movs	r0, #110	; 0x6e
    2b8c:	2061      	movs	r0, #97	; 0x61
    2b8e:	6e6b      	ldr	r3, [r5, #100]	; 0x64
    2b90:	776f      	strb	r7, [r5, #29]
    2b92:	206e      	movs	r0, #110	; 0x6e
    2b94:	6c70      	ldr	r0, [r6, #68]	; 0x44
    2b96:	7461      	strb	r1, [r4, #17]
    2b98:	6f66      	ldr	r6, [r4, #116]	; 0x74
    2b9a:	6d72      	ldr	r2, [r6, #84]	; 0x54
    2b9c:	0a2e      	lsrs	r6, r5, #8
    2b9e:	0000      	movs	r0, r0
    2ba0:	7453      	strb	r3, [r2, #17]
    2ba2:	7461      	strb	r1, [r4, #17]
    2ba4:	6369      	str	r1, [r5, #52]	; 0x34
    2ba6:	0000      	movs	r0, r0
    2ba8:	6548      	str	r0, [r1, #84]	; 0x54
    2baa:	7061      	strb	r1, [r4, #1]
    2bac:	0000      	movs	r0, r0
    2bae:	0000      	movs	r0, r0
    2bb0:	7453      	strb	r3, [r2, #17]
    2bb2:	6361      	str	r1, [r4, #52]	; 0x34
    2bb4:	006b      	lsls	r3, r5, #1
    2bb6:	ffff 3054 	vshr.u32	<illegal reg q9.5>, q2, #1
    2bba:	332e      	adds	r3, #46	; 0x2e
    2bbc:	2d65      	cmp	r5, #101	; 0x65
    2bbe:	4631      	mov	r1, r6
    2bc0:	0000      	movs	r0, r0
    2bc2:	0000      	movs	r0, r0
    2bc4:	542d      	strb	r5, [r5, r0]
    2bc6:	542e      	strb	r6, [r5, r0]
    2bc8:	2b2b      	cmp	r3, #43	; 0x2b
    2bca:	7154      	strb	r4, [r2, #5]
    2bcc:	0000      	movs	r0, r0
    2bce:	0000      	movs	r0, r0
    2bd0:	5431      	strb	r1, [r6, r0]
    2bd2:	2e33      	cmp	r6, #51	; 0x33
    2bd4:	6534      	str	r4, [r6, #80]	; 0x50
    2bd6:	7a34      	ldrb	r4, [r6, #8]
    2bd8:	0000      	movs	r0, r0
    2bda:	0000      	movs	r0, r0
    2bdc:	3433      	adds	r4, #51	; 0x33
    2bde:	302e      	adds	r0, #46	; 0x2e
    2be0:	2d65      	cmp	r5, #101	; 0x65
    2be2:	5e54      	ldrsh	r4, [r2, r1]
    2be4:	0000      	movs	r0, r0
    2be6:	0000      	movs	r0, r0
    2be8:	2e35      	cmp	r6, #53	; 0x35
    2bea:	3035      	adds	r0, #53	; 0x35
    2bec:	6530      	str	r0, [r6, #80]	; 0x50
    2bee:	332b      	adds	r3, #43	; 0x2b
    2bf0:	0000      	movs	r0, r0
    2bf2:	0000      	movs	r0, r0
    2bf4:	2e2d      	cmp	r6, #45	; 0x2d
    2bf6:	3231      	adds	r2, #49	; 0x31
    2bf8:	6533      	str	r3, [r6, #80]	; 0x50
    2bfa:	322d      	adds	r2, #45	; 0x2d
    2bfc:	0000      	movs	r0, r0
    2bfe:	0000      	movs	r0, r0
    2c00:	382d      	subs	r0, #45	; 0x2d
    2c02:	6537      	str	r7, [r6, #80]	; 0x50
    2c04:	382b      	subs	r0, #43	; 0x2b
    2c06:	3233      	adds	r2, #51	; 0x33
    2c08:	0000      	movs	r0, r0
    2c0a:	0000      	movs	r0, r0
    2c0c:	302b      	adds	r0, #43	; 0x2b
    2c0e:	362e      	adds	r6, #46	; 0x2e
    2c10:	2d65      	cmp	r5, #101	; 0x65
    2c12:	3231      	adds	r2, #49	; 0x31
    2c14:	0000      	movs	r0, r0
    2c16:	0000      	movs	r0, r0
    2c18:	3533      	adds	r5, #51	; 0x33
    2c1a:	352e      	adds	r5, #46	; 0x2e
    2c1c:	3434      	adds	r4, #52	; 0x34
    2c1e:	3030      	adds	r0, #48	; 0x30
    2c20:	0000      	movs	r0, r0
    2c22:	0000      	movs	r0, r0
    2c24:	312e      	adds	r1, #46	; 0x2e
    2c26:	3332      	adds	r3, #50	; 0x32
    2c28:	3534      	adds	r5, #52	; 0x34
    2c2a:	3030      	adds	r0, #48	; 0x30
    2c2c:	0000      	movs	r0, r0
    2c2e:	0000      	movs	r0, r0
    2c30:	312d      	adds	r1, #45	; 0x2d
    2c32:	3031      	adds	r0, #49	; 0x31
    2c34:	372e      	adds	r7, #46	; 0x2e
    2c36:	3030      	adds	r0, #48	; 0x30
    2c38:	0000      	movs	r0, r0
    2c3a:	0000      	movs	r0, r0
    2c3c:	302b      	adds	r0, #43	; 0x2b
    2c3e:	362e      	adds	r6, #46	; 0x2e
    2c40:	3434      	adds	r4, #52	; 0x34
    2c42:	3030      	adds	r0, #48	; 0x30
    2c44:	0000      	movs	r0, r0
    2c46:	0000      	movs	r0, r0
    2c48:	3035      	adds	r0, #53	; 0x35
    2c4a:	3231      	adds	r2, #49	; 0x31
    2c4c:	0000      	movs	r0, r0
    2c4e:	0000      	movs	r0, r0
    2c50:	3231      	adds	r2, #49	; 0x31
    2c52:	3433      	adds	r4, #51	; 0x33
    2c54:	0000      	movs	r0, r0
    2c56:	0000      	movs	r0, r0
    2c58:	382d      	subs	r0, #45	; 0x2d
    2c5a:	3437      	adds	r4, #55	; 0x37
    2c5c:	0000      	movs	r0, r0
    2c5e:	0000      	movs	r0, r0
    2c60:	312b      	adds	r1, #43	; 0x2b
    2c62:	3232      	adds	r2, #50	; 0x32
	...
    2c6c:	0001      	movs	r1, r0
    2c6e:	0000      	movs	r0, r0
    2c70:	03e8      	lsls	r0, r5, #15
    2c72:	0000      	movs	r0, r0
    2c74:	0066      	lsls	r6, r4, #1
    2c76:	0000      	movs	r0, r0
    2c78:	1ff0      	subs	r0, r6, #7
    2c7a:	0800      	lsrs	r0, r0, #32
    2c7c:	1fac      	subs	r4, r5, #6
    2c7e:	0800      	lsrs	r0, r0, #32
    2c80:	6b64      	ldr	r4, [r4, #52]	; 0x34
    2c82:	5241      	strh	r1, [r0, r1]
    2c84:	004d      	lsls	r5, r1, #1
	...
