
test.gba:     file format binary


Disassembly of section .data:

00000000 <.data>:
   0:	ea00002e 	b	0xc0
	...
  b0:	00963130 	addseq	r3, r6, r0, lsr r1
	...
  bc:	0000f000 	andeq	pc, r0, r0
  c0:	ea000006 	b	0xe0
	...
  e0:	e3a00301 	mov	r0, #67108864	; 0x4000000
  e4:	e5800208 	str	r0, [r0, #520]	; 0x208
  e8:	e3a00012 	mov	r0, #18
  ec:	e129f000 	msr	CPSR_fc, r0
  f0:	e59fd0b8 	ldr	sp, [pc, #184]	; 0x1b0
  f4:	e3a0001f 	mov	r0, #31
  f8:	e129f000 	msr	CPSR_fc, r0
  fc:	e59fd0b0 	ldr	sp, [pc, #176]	; 0x1b4
 100:	e28f0001 	add	r0, pc, #1
 104:	e12fff10 	bx	r0
 108:	0140482b 	cmpeq	r0, fp, lsr #16
 10c:	4678d20b 	ldrbtmi	sp, [r8], -fp, lsl #4
 110:	d30d0140 	tstle	sp, #64, 2
 114:	06122202 	ldreq	r2, [r2], -r2, lsl #4
 118:	1a9b4b28 	bne	0xfe6d2dc0
 11c:	00911c16 	addseq	r1, r1, r6, lsl ip
 120:	f83cf000 			; <UNDEFINED> instruction: 0xf83cf000
 124:	21404730 	cmpcs	r0, r0, lsr r7
 128:	01c80309 	biceq	r0, r8, r9, lsl #6
 12c:	f82bf000 			; <UNDEFINED> instruction: 0xf82bf000
 130:	49244823 	stmdbmi	r4!, {r0, r1, r5, fp, lr}
 134:	f0001a09 			; <UNDEFINED> instruction: 0xf0001a09
 138:	4823f826 	stmdami	r3!, {r1, r2, r5, fp, ip, sp, lr, pc}
 13c:	1a094923 	bne	0x2525d0
 140:	f821f000 			; <UNDEFINED> instruction: 0xf821f000
 144:	4a234922 	bmi	0x8d25d4
 148:	f0004c23 			; <UNDEFINED> instruction: 0xf0004c23
 14c:	4923f826 	stmdbmi	r3!, {r1, r2, r5, fp, ip, sp, lr, pc}
 150:	4c244a23 			; <UNDEFINED> instruction: 0x4c244a23
 154:	f821f000 			; <UNDEFINED> instruction: 0xf821f000
 158:	49244a23 	stmdbmi	r4!, {r0, r1, r5, r9, fp, lr}
 15c:	d0021a53 	andle	r1, r2, r3, asr sl
 160:	f0004a23 			; <UNDEFINED> instruction: 0xf0004a23
 164:	4923f81b 	stmdbmi	r3!, {r0, r1, r3, r4, fp, ip, sp, lr, pc}
 168:	4c244a23 			; <UNDEFINED> instruction: 0x4c244a23
 16c:	f815f000 			; <UNDEFINED> instruction: 0xf815f000
 170:	48244923 	stmdami	r4!, {r0, r1, r5, r8, fp, lr}
 174:	4b246008 	blmi	0x91819c
 178:	f80ef000 			; <UNDEFINED> instruction: 0xf80ef000
 17c:	21002000 	mrscs	r2, (UNDEF: 0)
 180:	f0004b22 			; <UNDEFINED> instruction: 0xf0004b22
 184:	2203f809 	andcs	pc, r3, #589824	; 0x90000
 188:	43911889 	orrsmi	r1, r1, #8978432	; 0x890000
 18c:	2200d003 	andcs	sp, r0, #3
 190:	3904c004 	stmdbcc	r4, {r2, lr, pc}
 194:	4770d1fc 			; <UNDEFINED> instruction: 0x4770d1fc
 198:	1aa34718 	bne	0xfe8d1e00
 19c:	181b2003 	ldmdane	fp, {r0, r1, sp}
 1a0:	d0034383 	andle	r4, r3, r3, lsl #7
 1a4:	c201c901 	andgt	ip, r1, #16384	; 0x4000
 1a8:	d1fb3b04 	mvnsle	r3, r4, lsl #22
 1ac:	46c04770 			; <UNDEFINED> instruction: 0x46c04770
 1b0:	03007fa0 	tsteq	r0, #160, 30	; 0x280
 1b4:	03007f00 	tsteq	r0, #0, 30
 1b8:	08000000 	stmdaeq	r0, {}	; <UNPREDICTABLE>
 1bc:	02000000 	andeq	r0, r0, #0
 1c0:	03000000 	tsteq	r0, #0
 1c4:	03000028 	tsteq	r0, #40	; 0x28
 1c8:	02000000 	andeq	r0, r0, #0
 1cc:	02000000 	andeq	r0, r0, #0
 1d0:	08000718 	stmdaeq	r0, {r3, r4, r8, r9, sl}
 1d4:	03000028 	tsteq	r0, #40	; 0x28
 1d8:	03000044 	tsteq	r0, #68	; 0x44
 1dc:	08000718 	stmdaeq	r0, {r3, r4, r8, r9, sl}
 1e0:	03000000 	tsteq	r0, #0
 1e4:	03000000 	tsteq	r0, #0
 1e8:	08000734 	stmdaeq	r0, {r2, r4, r5, r8, r9, sl}
 1ec:	08000734 	stmdaeq	r0, {r2, r4, r5, r8, r9, sl}
 1f0:	03000044 	tsteq	r0, #68	; 0x44
 1f4:	08000734 	stmdaeq	r0, {r2, r4, r5, r8, r9, sl}
 1f8:	02000000 	andeq	r0, r0, #0
 1fc:	02000000 	andeq	r0, r0, #0
 200:	03000024 	tsteq	r0, #36	; 0x24
 204:	02040000 	andeq	r0, r4, #0
 208:	08000674 	stmdaeq	r0, {r2, r4, r5, r6, r9, sl}
 20c:	08000400 	stmdaeq	r0, {sl}
 210:	e1a0c00d 	mov	ip, sp
 214:	e92ddff8 	push	{r3, r4, r5, r6, r7, r8, r9, sl, fp, ip, lr, pc}
 218:	e24cb004 	sub	fp, ip, #4
 21c:	e24bd028 	sub	sp, fp, #40	; 0x28
 220:	e89d6ff0 	ldm	sp, {r4, r5, r6, r7, r8, r9, sl, fp, sp, lr}
 224:	e12fff1e 	bx	lr
 228:	e3a02000 	mov	r2, #0
 22c:	e59f1060 	ldr	r1, [pc, #96]	; 0x294
 230:	e5913000 	ldr	r3, [r1]
 234:	e5c32208 	strb	r2, [r3, #520]	; 0x208
 238:	e5d32130 	ldrb	r2, [r3, #304]	; 0x130
 23c:	e1e02002 	mvn	r2, r2
 240:	e3120010 	tst	r2, #16
 244:	13a02001 	movne	r2, #1
 248:	15812004 	strne	r2, [r1, #4]
 24c:	1a00000a 	bne	0x27c
 250:	e3120020 	tst	r2, #32
 254:	13e02000 	mvnne	r2, #0
 258:	15812004 	strne	r2, [r1, #4]
 25c:	1a000006 	bne	0x27c
 260:	e3120040 	tst	r2, #64	; 0x40
 264:	13e02000 	mvnne	r2, #0
 268:	15812008 	strne	r2, [r1, #8]
 26c:	1a000002 	bne	0x27c
 270:	e3120080 	tst	r2, #128	; 0x80
 274:	13a02001 	movne	r2, #1
 278:	15812008 	strne	r2, [r1, #8]
 27c:	e3a00a01 	mov	r0, #4096	; 0x1000
 280:	e3a02001 	mov	r2, #1
 284:	e2831c02 	add	r1, r3, #512	; 0x200
 288:	e1c100b2 	strh	r0, [r1, #2]
 28c:	e5c32208 	strb	r2, [r3, #520]	; 0x208
 290:	e12fff1e 	bx	lr
 294:	03000028 	tsteq	r0, #40	; 0x28
 298:	e59f3024 	ldr	r3, [pc, #36]	; 0x2c4
 29c:	e593200c 	ldr	r2, [r3, #12]
 2a0:	e3520406 	cmp	r2, #100663296	; 0x6000000
 2a4:	03a01004 	moveq	r1, #4
 2a8:	13a00406 	movne	r0, #100663296	; 0x6000000
 2ac:	13a01014 	movne	r1, #20
 2b0:	e5932000 	ldr	r2, [r3]
 2b4:	059f000c 	ldreq	r0, [pc, #12]	; 0x2c8
 2b8:	e583000c 	str	r0, [r3, #12]
 2bc:	e5c21000 	strb	r1, [r2]
 2c0:	e12fff1e 	bx	lr
 2c4:	03000028 	tsteq	r0, #40	; 0x28
 2c8:	0600a000 	streq	sl, [r0], -r0
 2cc:	e59f3010 	ldr	r3, [pc, #16]	; 0x2e4
 2d0:	e5932010 	ldr	r2, [r3, #16]
 2d4:	e1d230b0 	ldrh	r3, [r2]
 2d8:	e353009f 	cmp	r3, #159	; 0x9f
 2dc:	9afffffc 	bls	0x2d4
 2e0:	e12fff1e 	bx	lr
 2e4:	03000028 	tsteq	r0, #40	; 0x28
 2e8:	e1a03201 	lsl	r3, r1, #4
 2ec:	e59fc02c 	ldr	ip, [pc, #44]	; 0x320
 2f0:	e0631401 	rsb	r1, r3, r1, lsl #8
 2f4:	e0810000 	add	r0, r1, r0
 2f8:	e59c100c 	ldr	r1, [ip, #12]
 2fc:	e3100001 	tst	r0, #1
 300:	e3c00001 	bic	r0, r0, #1
 304:	e19130f0 	ldrsh	r3, [r1, r0]
 308:	120330ff 	andne	r3, r3, #255	; 0xff
 30c:	03c330ff 	biceq	r3, r3, #255	; 0xff
 310:	11833402 	orrne	r3, r3, r2, lsl #8
 314:	01833002 	orreq	r3, r3, r2
 318:	e18130b0 	strh	r3, [r1, r0]
 31c:	e12fff1e 	bx	lr
 320:	03000028 	tsteq	r0, #40	; 0x28
 324:	e59f0018 	ldr	r0, [pc, #24]	; 0x344
 328:	e59f3018 	ldr	r3, [pc, #24]	; 0x348
 32c:	e1530000 	cmp	r3, r0
 330:	012fff1e 	bxeq	lr
 334:	e59f3010 	ldr	r3, [pc, #16]	; 0x34c
 338:	e3530000 	cmp	r3, #0
 33c:	012fff1e 	bxeq	lr
 340:	e12fff13 	bx	r3
 344:	0300003c 	tsteq	r0, #60	; 0x3c
 348:	0300003c 	tsteq	r0, #60	; 0x3c
 34c:	00000000 	andeq	r0, r0, r0
 350:	e59f0024 	ldr	r0, [pc, #36]	; 0x37c
 354:	e59f1024 	ldr	r1, [pc, #36]	; 0x380
 358:	e0411000 	sub	r1, r1, r0
 35c:	e1a01141 	asr	r1, r1, #2
 360:	e0811fa1 	add	r1, r1, r1, lsr #31
 364:	e1b010c1 	asrs	r1, r1, #1
 368:	012fff1e 	bxeq	lr
 36c:	e59f3010 	ldr	r3, [pc, #16]	; 0x384
 370:	e3530000 	cmp	r3, #0
 374:	012fff1e 	bxeq	lr
 378:	e12fff13 	bx	r3
 37c:	0300003c 	tsteq	r0, #60	; 0x3c
 380:	0300003c 	tsteq	r0, #60	; 0x3c
 384:	00000000 	andeq	r0, r0, r0
 388:	e92d4010 	push	{r4, lr}
 38c:	e59f402c 	ldr	r4, [pc, #44]	; 0x3c0
 390:	e5d43000 	ldrb	r3, [r4]
 394:	e3530000 	cmp	r3, #0
 398:	1a000006 	bne	0x3b8
 39c:	ebffffe0 	bl	0x324
 3a0:	e59f301c 	ldr	r3, [pc, #28]	; 0x3c4
 3a4:	e3530000 	cmp	r3, #0
 3a8:	159f0018 	ldrne	r0, [pc, #24]	; 0x3c8
 3ac:	11a00000 	movne	r0, r0
 3b0:	e3a03001 	mov	r3, #1
 3b4:	e5c43000 	strb	r3, [r4]
 3b8:	e8bd4010 	pop	{r4, lr}
 3bc:	e12fff1e 	bx	lr
 3c0:	03000000 	tsteq	r0, #0
 3c4:	00000000 	andeq	r0, r0, r0
 3c8:	08000714 	stmdaeq	r0, {r2, r4, r8, r9, sl}
 3cc:	e59f3020 	ldr	r3, [pc, #32]	; 0x3f4
 3d0:	e3530000 	cmp	r3, #0
 3d4:	0a000005 	beq	0x3f0
 3d8:	e92d4010 	push	{r4, lr}
 3dc:	e59f1014 	ldr	r1, [pc, #20]	; 0x3f8
 3e0:	e59f0014 	ldr	r0, [pc, #20]	; 0x3fc
 3e4:	e1a00000 	nop			; (mov r0, r0)
 3e8:	e8bd4010 	pop	{r4, lr}
 3ec:	eaffffd7 	b	0x350
 3f0:	eaffffd6 	b	0x350
 3f4:	00000000 	andeq	r0, r0, r0
 3f8:	03000004 	tsteq	r0, #4
 3fc:	08000714 	stmdaeq	r0, {r2, r4, r8, r9, sl}
 400:	e3a03004 	mov	r3, #4
 404:	e92d47f0 	push	{r4, r5, r6, r7, r8, r9, sl, lr}
 408:	e59f524c 	ldr	r5, [pc, #588]	; 0x65c
 40c:	e5956000 	ldr	r6, [r5]
 410:	e3a0e001 	mov	lr, #1
 414:	e5c63000 	strb	r3, [r6]
 418:	e3e00000 	mvn	r0, #0
 41c:	e3a01043 	mov	r1, #67	; 0x43
 420:	e3a04a01 	mov	r4, #4096	; 0x1000
 424:	e5956000 	ldr	r6, [r5]
 428:	e3a02405 	mov	r2, #83886080	; 0x5000000
 42c:	e3e0c902 	mvn	ip, #32768	; 0x8000
 430:	e5c63001 	strb	r3, [r6, #1]
 434:	e3a06000 	mov	r6, #0
 438:	e5953000 	ldr	r3, [r5]
 43c:	e5c3e208 	strb	lr, [r3, #520]	; 0x208
 440:	e283ec02 	add	lr, r3, #512	; 0x200
 444:	e1ce40b0 	strh	r4, [lr]
 448:	e5c30132 	strb	r0, [r3, #306]	; 0x132
 44c:	e5c31133 	strb	r1, [r3, #307]	; 0x133
 450:	e59f0208 	ldr	r0, [pc, #520]	; 0x660
 454:	e59f1208 	ldr	r1, [pc, #520]	; 0x664
 458:	e59f3208 	ldr	r3, [pc, #520]	; 0x668
 45c:	e1c2c0b0 	strh	ip, [r2]
 460:	e1c200b2 	strh	r0, [r2, #2]
 464:	e5831ffc 	str	r1, [r3, #4092]	; 0xffc
 468:	e3a04000 	mov	r4, #0
 46c:	e1a00004 	mov	r0, r4
 470:	e3a02000 	mov	r2, #0
 474:	e1a01006 	mov	r1, r6
 478:	e2844001 	add	r4, r4, #1
 47c:	ebffff99 	bl	0x2e8
 480:	e35400f0 	cmp	r4, #240	; 0xf0
 484:	1afffff8 	bne	0x46c
 488:	e2866001 	add	r6, r6, #1
 48c:	e35600a0 	cmp	r6, #160	; 0xa0
 490:	1afffff4 	bne	0x468
 494:	e595300c 	ldr	r3, [r5, #12]
 498:	e3530406 	cmp	r3, #100663296	; 0x6000000
 49c:	03a02004 	moveq	r2, #4
 4a0:	13a01406 	movne	r1, #100663296	; 0x6000000
 4a4:	13a02014 	movne	r2, #20
 4a8:	e3a06000 	mov	r6, #0
 4ac:	e5953000 	ldr	r3, [r5]
 4b0:	059f11b4 	ldreq	r1, [pc, #436]	; 0x66c
 4b4:	e585100c 	str	r1, [r5, #12]
 4b8:	e5c32000 	strb	r2, [r3]
 4bc:	e3a04000 	mov	r4, #0
 4c0:	e1a00004 	mov	r0, r4
 4c4:	e3a02000 	mov	r2, #0
 4c8:	e1a01006 	mov	r1, r6
 4cc:	e2844001 	add	r4, r4, #1
 4d0:	ebffff84 	bl	0x2e8
 4d4:	e35400f0 	cmp	r4, #240	; 0xf0
 4d8:	1afffff8 	bne	0x4c0
 4dc:	e2866001 	add	r6, r6, #1
 4e0:	e35600a0 	cmp	r6, #160	; 0xa0
 4e4:	1afffff4 	bne	0x4bc
 4e8:	e3a04000 	mov	r4, #0
 4ec:	e3a06000 	mov	r6, #0
 4f0:	e3a02001 	mov	r2, #1
 4f4:	e1a00006 	mov	r0, r6
 4f8:	e1a01004 	mov	r1, r4
 4fc:	e0866002 	add	r6, r6, r2
 500:	ebffff78 	bl	0x2e8
 504:	e356000a 	cmp	r6, #10
 508:	1afffff8 	bne	0x4f0
 50c:	e2844001 	add	r4, r4, #1
 510:	e354000a 	cmp	r4, #10
 514:	1afffff4 	bne	0x4ec
 518:	e3e0307c 	mvn	r3, #124	; 0x7c
 51c:	e3a06000 	mov	r6, #0
 520:	e5951000 	ldr	r1, [r5]
 524:	e59f8144 	ldr	r8, [pc, #324]	; 0x670
 528:	e5c13102 	strb	r3, [r1, #258]	; 0x102
 52c:	e59f7138 	ldr	r7, [pc, #312]	; 0x66c
 530:	e5d13101 	ldrb	r3, [r1, #257]	; 0x101
 534:	e20330fe 	and	r3, r3, #254	; 0xfe
 538:	e1530006 	cmp	r3, r6
 53c:	0afffffb 	beq	0x530
 540:	e595c004 	ldr	ip, [r5, #4]
 544:	e5983000 	ldr	r3, [r8]
 548:	e08c3003 	add	r3, ip, r3
 54c:	e35300e6 	cmp	r3, #230	; 0xe6
 550:	13530000 	cmpne	r3, #0
 554:	e5950008 	ldr	r0, [r5, #8]
 558:	e5982004 	ldr	r2, [r8, #4]
 55c:	026cc000 	rsbeq	ip, ip, #0
 560:	e0802002 	add	r2, r0, r2
 564:	0585c004 	streq	ip, [r5, #4]
 568:	e3520096 	cmp	r2, #150	; 0x96
 56c:	13520000 	cmpne	r2, #0
 570:	e3e09001 	mvn	r9, #1
 574:	e5d16101 	ldrb	r6, [r1, #257]	; 0x101
 578:	02600000 	rsbeq	r0, r0, #0
 57c:	e5883000 	str	r3, [r8]
 580:	e5882004 	str	r2, [r8, #4]
 584:	05850008 	streq	r0, [r5, #8]
 588:	e20660fe 	and	r6, r6, #254	; 0xfe
 58c:	e3e04001 	mvn	r4, #1
 590:	ea000001 	b	0x59c
 594:	e354000c 	cmp	r4, #12
 598:	0a00000c 	beq	0x5d0
 59c:	e0840003 	add	r0, r4, r3
 5a0:	e35000ef 	cmp	r0, #239	; 0xef
 5a4:	e2844001 	add	r4, r4, #1
 5a8:	e0891002 	add	r1, r9, r2
 5ac:	8afffff8 	bhi	0x594
 5b0:	e351009f 	cmp	r1, #159	; 0x9f
 5b4:	8afffff6 	bhi	0x594
 5b8:	e3a02000 	mov	r2, #0
 5bc:	ebffff49 	bl	0x2e8
 5c0:	e354000c 	cmp	r4, #12
 5c4:	e5983000 	ldr	r3, [r8]
 5c8:	e5982004 	ldr	r2, [r8, #4]
 5cc:	1afffff2 	bne	0x59c
 5d0:	e2899001 	add	r9, r9, #1
 5d4:	e359000c 	cmp	r9, #12
 5d8:	1affffeb 	bne	0x58c
 5dc:	e3a09000 	mov	r9, #0
 5e0:	e3a04000 	mov	r4, #0
 5e4:	ea000001 	b	0x5f0
 5e8:	e5983000 	ldr	r3, [r8]
 5ec:	e5982004 	ldr	r2, [r8, #4]
 5f0:	e0891002 	add	r1, r9, r2
 5f4:	e3a02001 	mov	r2, #1
 5f8:	e0840003 	add	r0, r4, r3
 5fc:	e0844002 	add	r4, r4, r2
 600:	ebffff38 	bl	0x2e8
 604:	e354000a 	cmp	r4, #10
 608:	1afffff6 	bne	0x5e8
 60c:	e2899001 	add	r9, r9, #1
 610:	e359000a 	cmp	r9, #10
 614:	15983000 	ldrne	r3, [r8]
 618:	15982004 	ldrne	r2, [r8, #4]
 61c:	1affffef 	bne	0x5e0
 620:	e5952010 	ldr	r2, [r5, #16]
 624:	e1d230b0 	ldrh	r3, [r2]
 628:	e353009f 	cmp	r3, #159	; 0x9f
 62c:	9afffffc 	bls	0x624
 630:	e595300c 	ldr	r3, [r5, #12]
 634:	e3530406 	cmp	r3, #100663296	; 0x6000000
 638:	13a01406 	movne	r1, #100663296	; 0x6000000
 63c:	03a02004 	moveq	r2, #4
 640:	13a02014 	movne	r2, #20
 644:	e5953000 	ldr	r3, [r5]
 648:	1585100c 	strne	r1, [r5, #12]
 64c:	0585700c 	streq	r7, [r5, #12]
 650:	e5c32000 	strb	r2, [r3]
 654:	e5951000 	ldr	r1, [r5]
 658:	eaffffb4 	b	0x530
 65c:	03000028 	tsteq	r0, #40	; 0x28
 660:	00007dad 	andeq	r7, r0, sp, lsr #27
 664:	08000228 	stmdaeq	r0, {r3, r5, r9}
 668:	03007000 	tsteq	r0, #0
 66c:	0600a000 	streq	sl, [r0], -r0
 670:	0300001c 	tsteq	r0, #28
 674:	e92d4070 	push	{r4, r5, r6, lr}
 678:	e59f606c 	ldr	r6, [pc, #108]	; 0x6ec
 67c:	e59f506c 	ldr	r5, [pc, #108]	; 0x6f0
 680:	e0466005 	sub	r6, r6, r5
 684:	e1b06146 	asrs	r6, r6, #2
 688:	0a000007 	beq	0x6ac
 68c:	e3a04000 	mov	r4, #0
 690:	e2455004 	sub	r5, r5, #4
 694:	e2844001 	add	r4, r4, #1
 698:	e5b53004 	ldr	r3, [r5, #4]!
 69c:	e1a0e00f 	mov	lr, pc
 6a0:	e12fff13 	bx	r3
 6a4:	e1560004 	cmp	r6, r4
 6a8:	1afffff9 	bne	0x694
 6ac:	e59f6040 	ldr	r6, [pc, #64]	; 0x6f4
 6b0:	e59f5040 	ldr	r5, [pc, #64]	; 0x6f8
 6b4:	e0466005 	sub	r6, r6, r5
 6b8:	ebfffed4 	bl	0x210
 6bc:	e1b06146 	asrs	r6, r6, #2
 6c0:	0a000007 	beq	0x6e4
 6c4:	e3a04000 	mov	r4, #0
 6c8:	e2455004 	sub	r5, r5, #4
 6cc:	e2844001 	add	r4, r4, #1
 6d0:	e5b53004 	ldr	r3, [r5, #4]!
 6d4:	e1a0e00f 	mov	lr, pc
 6d8:	e12fff13 	bx	r3
 6dc:	e1560004 	cmp	r6, r4
 6e0:	1afffff9 	bne	0x6cc
 6e4:	e8bd4070 	pop	{r4, r5, r6, lr}
 6e8:	e12fff1e 	bx	lr
 6ec:	0300003c 	tsteq	r0, #60	; 0x3c
 6f0:	0300003c 	tsteq	r0, #60	; 0x3c
 6f4:	03000040 	tsteq	r0, #64	; 0x40
 6f8:	0300003c 	tsteq	r0, #60	; 0x3c
 6fc:	e1a0c00d 	mov	ip, sp
 700:	e92ddff8 	push	{r3, r4, r5, r6, r7, r8, r9, sl, fp, ip, lr, pc}
 704:	e24cb004 	sub	fp, ip, #4
 708:	e24bd028 	sub	sp, fp, #40	; 0x28
 70c:	e89d6ff0 	ldm	sp, {r4, r5, r6, r7, r8, r9, sl, fp, sp, lr}
 710:	e12fff1e 	bx	lr
 714:	00000000 	andeq	r0, r0, r0
 718:	04000000 	streq	r0, [r0], #-0
 71c:	00000001 	andeq	r0, r0, r1
 720:	00000001 	andeq	r0, r0, r1
 724:	0600a000 	streq	sl, [r0], -r0
 728:	04000006 	streq	r0, [r0], #-6
 72c:	080003cc 	stmdaeq	r0, {r2, r3, r6, r7, r8, r9}
 730:	08000388 	stmdaeq	r0, {r3, r7, r8, r9}
 734:	52416b64 	subpl	r6, r1, #100, 22	; 0x19000
 738:	0000004d 	andeq	r0, r0, sp, asr #32
