
test.gba:     file format binary


Disassembly of section .data:

00000000 <.data>:
   0:	ea00002e 	b	0xc0
	...
  b0:	00963130 	addseq	r3, r6, r0, lsr r1
	...
  bc:	0000f000 	andeq	pc, r0, r0
  c0:	ea000006 	b	0xe0
	...
  e0:	e3a00301 	mov	r0, #67108864	; 0x4000000
  e4:	e5800208 	str	r0, [r0, #520]	; 0x208
  e8:	e3a00012 	mov	r0, #18
  ec:	e129f000 	msr	CPSR_fc, r0
  f0:	e59fd0b8 	ldr	sp, [pc, #184]	; 0x1b0
  f4:	e3a0001f 	mov	r0, #31
  f8:	e129f000 	msr	CPSR_fc, r0
  fc:	e59fd0b0 	ldr	sp, [pc, #176]	; 0x1b4
 100:	e28f0001 	add	r0, pc, #1
 104:	e12fff10 	bx	r0
 108:	0140482b 	cmpeq	r0, fp, lsr #16
 10c:	4678d20b 	ldrbtmi	sp, [r8], -fp, lsl #4
 110:	d30d0140 	tstle	sp, #64, 2
 114:	06122202 	ldreq	r2, [r2], -r2, lsl #4
 118:	1a9b4b28 	bne	0xfe6d2dc0
 11c:	00911c16 	addseq	r1, r1, r6, lsl ip
 120:	f83cf000 			; <UNDEFINED> instruction: 0xf83cf000
 124:	21404730 	cmpcs	r0, r0, lsr r7
 128:	01c80309 	biceq	r0, r8, r9, lsl #6
 12c:	f82bf000 			; <UNDEFINED> instruction: 0xf82bf000
 130:	49244823 	stmdbmi	r4!, {r0, r1, r5, fp, lr}
 134:	f0001a09 			; <UNDEFINED> instruction: 0xf0001a09
 138:	4823f826 	stmdami	r3!, {r1, r2, r5, fp, ip, sp, lr, pc}
 13c:	1a094923 	bne	0x2525d0
 140:	f821f000 			; <UNDEFINED> instruction: 0xf821f000
 144:	4a234922 	bmi	0x8d25d4
 148:	f0004c23 			; <UNDEFINED> instruction: 0xf0004c23
 14c:	4923f826 	stmdbmi	r3!, {r1, r2, r5, fp, ip, sp, lr, pc}
 150:	4c244a23 			; <UNDEFINED> instruction: 0x4c244a23
 154:	f821f000 			; <UNDEFINED> instruction: 0xf821f000
 158:	49244a23 	stmdbmi	r4!, {r0, r1, r5, r9, fp, lr}
 15c:	d0021a53 	andle	r1, r2, r3, asr sl
 160:	f0004a23 			; <UNDEFINED> instruction: 0xf0004a23
 164:	4923f81b 	stmdbmi	r3!, {r0, r1, r3, r4, fp, ip, sp, lr, pc}
 168:	4c244a23 			; <UNDEFINED> instruction: 0x4c244a23
 16c:	f815f000 			; <UNDEFINED> instruction: 0xf815f000
 170:	48244923 	stmdami	r4!, {r0, r1, r5, r8, fp, lr}
 174:	4b246008 	blmi	0x91819c
 178:	f80ef000 			; <UNDEFINED> instruction: 0xf80ef000
 17c:	21002000 	mrscs	r2, (UNDEF: 0)
 180:	f0004b22 			; <UNDEFINED> instruction: 0xf0004b22
 184:	2203f809 	andcs	pc, r3, #589824	; 0x90000
 188:	43911889 	orrsmi	r1, r1, #8978432	; 0x890000
 18c:	2200d003 	andcs	sp, r0, #3
 190:	3904c004 	stmdbcc	r4, {r2, lr, pc}
 194:	4770d1fc 			; <UNDEFINED> instruction: 0x4770d1fc
 198:	1aa34718 	bne	0xfe8d1e00
 19c:	181b2003 	ldmdane	fp, {r0, r1, sp}
 1a0:	d0034383 	andle	r4, r3, r3, lsl #7
 1a4:	c201c901 	andgt	ip, r1, #16384	; 0x4000
 1a8:	d1fb3b04 	mvnsle	r3, r4, lsl #22
 1ac:	46c04770 			; <UNDEFINED> instruction: 0x46c04770
 1b0:	03007fa0 	tsteq	r0, #160, 30	; 0x280
 1b4:	03007f00 	tsteq	r0, #0, 30
 1b8:	08000000 	stmdaeq	r0, {}	; <UNPREDICTABLE>
 1bc:	02000000 	andeq	r0, r0, #0
 1c0:	03000000 	tsteq	r0, #0
 1c4:	03000020 	tsteq	r0, #32
 1c8:	02000000 	andeq	r0, r0, #0
 1cc:	02000000 	andeq	r0, r0, #0
 1d0:	08000690 	stmdaeq	r0, {r4, r7, r9, sl}
 1d4:	03000020 	tsteq	r0, #32
 1d8:	03000034 	tsteq	r0, #52	; 0x34
 1dc:	08000690 	stmdaeq	r0, {r4, r7, r9, sl}
 1e0:	03000000 	tsteq	r0, #0
 1e4:	03000000 	tsteq	r0, #0
 1e8:	080006a4 	stmdaeq	r0, {r2, r5, r7, r9, sl}
 1ec:	080006a4 	stmdaeq	r0, {r2, r5, r7, r9, sl}
 1f0:	03000034 	tsteq	r0, #52	; 0x34
 1f4:	080006a4 	stmdaeq	r0, {r2, r5, r7, r9, sl}
 1f8:	02000000 	andeq	r0, r0, #0
 1fc:	02000000 	andeq	r0, r0, #0
 200:	0300001c 	tsteq	r0, #28
 204:	02040000 	andeq	r0, r4, #0
 208:	080005ec 	stmdaeq	r0, {r2, r3, r5, r6, r7, r8, sl}
 20c:	08000390 	stmdaeq	r0, {r4, r7, r8, r9}
 210:	e1a0c00d 	mov	ip, sp
 214:	e92ddff8 	push	{r3, r4, r5, r6, r7, r8, r9, sl, fp, ip, lr, pc}
 218:	e24cb004 	sub	fp, ip, #4
 21c:	e24bd028 	sub	sp, fp, #40	; 0x28
 220:	e89d6ff0 	ldm	sp, {r4, r5, r6, r7, r8, r9, sl, fp, sp, lr}
 224:	e12fff1e 	bx	lr
 228:	e59f3024 	ldr	r3, [pc, #36]	; 0x254
 22c:	e5932004 	ldr	r2, [r3, #4]
 230:	e3520406 	cmp	r2, #100663296	; 0x6000000
 234:	03a01004 	moveq	r1, #4
 238:	13a00406 	movne	r0, #100663296	; 0x6000000
 23c:	13a01014 	movne	r1, #20
 240:	e5932000 	ldr	r2, [r3]
 244:	059f000c 	ldreq	r0, [pc, #12]	; 0x258
 248:	e5830004 	str	r0, [r3, #4]
 24c:	e5c21000 	strb	r1, [r2]
 250:	e12fff1e 	bx	lr
 254:	03000020 	tsteq	r0, #32
 258:	0600a000 	streq	sl, [r0], -r0
 25c:	e59f3010 	ldr	r3, [pc, #16]	; 0x274
 260:	e5932008 	ldr	r2, [r3, #8]
 264:	e1d230b0 	ldrh	r3, [r2]
 268:	e353009f 	cmp	r3, #159	; 0x9f
 26c:	9afffffc 	bls	0x264
 270:	e12fff1e 	bx	lr
 274:	03000020 	tsteq	r0, #32
 278:	e1a03201 	lsl	r3, r1, #4
 27c:	e59fc02c 	ldr	ip, [pc, #44]	; 0x2b0
 280:	e0631401 	rsb	r1, r3, r1, lsl #8
 284:	e0810000 	add	r0, r1, r0
 288:	e59c1004 	ldr	r1, [ip, #4]
 28c:	e3100001 	tst	r0, #1
 290:	e3c00001 	bic	r0, r0, #1
 294:	e19130f0 	ldrsh	r3, [r1, r0]
 298:	120330ff 	andne	r3, r3, #255	; 0xff
 29c:	03c330ff 	biceq	r3, r3, #255	; 0xff
 2a0:	11833402 	orrne	r3, r3, r2, lsl #8
 2a4:	01833002 	orreq	r3, r3, r2
 2a8:	e18130b0 	strh	r3, [r1, r0]
 2ac:	e12fff1e 	bx	lr
 2b0:	03000020 	tsteq	r0, #32
 2b4:	e59f0018 	ldr	r0, [pc, #24]	; 0x2d4
 2b8:	e59f3018 	ldr	r3, [pc, #24]	; 0x2d8
 2bc:	e1530000 	cmp	r3, r0
 2c0:	012fff1e 	bxeq	lr
 2c4:	e59f3010 	ldr	r3, [pc, #16]	; 0x2dc
 2c8:	e3530000 	cmp	r3, #0
 2cc:	012fff1e 	bxeq	lr
 2d0:	e12fff13 	bx	r3
 2d4:	0300002c 	tsteq	r0, #44	; 0x2c
 2d8:	0300002c 	tsteq	r0, #44	; 0x2c
 2dc:	00000000 	andeq	r0, r0, r0
 2e0:	e59f0024 	ldr	r0, [pc, #36]	; 0x30c
 2e4:	e59f1024 	ldr	r1, [pc, #36]	; 0x310
 2e8:	e0411000 	sub	r1, r1, r0
 2ec:	e1a01141 	asr	r1, r1, #2
 2f0:	e0811fa1 	add	r1, r1, r1, lsr #31
 2f4:	e1b010c1 	asrs	r1, r1, #1
 2f8:	012fff1e 	bxeq	lr
 2fc:	e59f3010 	ldr	r3, [pc, #16]	; 0x314
 300:	e3530000 	cmp	r3, #0
 304:	012fff1e 	bxeq	lr
 308:	e12fff13 	bx	r3
 30c:	0300002c 	tsteq	r0, #44	; 0x2c
 310:	0300002c 	tsteq	r0, #44	; 0x2c
 314:	00000000 	andeq	r0, r0, r0
 318:	e92d4010 	push	{r4, lr}
 31c:	e59f402c 	ldr	r4, [pc, #44]	; 0x350
 320:	e5d43000 	ldrb	r3, [r4]
 324:	e3530000 	cmp	r3, #0
 328:	1a000006 	bne	0x348
 32c:	ebffffe0 	bl	0x2b4
 330:	e59f301c 	ldr	r3, [pc, #28]	; 0x354
 334:	e3530000 	cmp	r3, #0
 338:	159f0018 	ldrne	r0, [pc, #24]	; 0x358
 33c:	11a00000 	movne	r0, r0
 340:	e3a03001 	mov	r3, #1
 344:	e5c43000 	strb	r3, [r4]
 348:	e8bd4010 	pop	{r4, lr}
 34c:	e12fff1e 	bx	lr
 350:	03000000 	tsteq	r0, #0
 354:	00000000 	andeq	r0, r0, r0
 358:	0800068c 	stmdaeq	r0, {r2, r3, r7, r9, sl}
 35c:	e59f3020 	ldr	r3, [pc, #32]	; 0x384
 360:	e3530000 	cmp	r3, #0
 364:	0a000005 	beq	0x380
 368:	e92d4010 	push	{r4, lr}
 36c:	e59f1014 	ldr	r1, [pc, #20]	; 0x388
 370:	e59f0014 	ldr	r0, [pc, #20]	; 0x38c
 374:	e1a00000 	nop			; (mov r0, r0)
 378:	e8bd4010 	pop	{r4, lr}
 37c:	eaffffd7 	b	0x2e0
 380:	eaffffd6 	b	0x2e0
 384:	00000000 	andeq	r0, r0, r0
 388:	03000004 	tsteq	r0, #4
 38c:	0800068c 	stmdaeq	r0, {r2, r3, r7, r9, sl}
 390:	e3a02004 	mov	r2, #4
 394:	e3a03405 	mov	r3, #83886080	; 0x5000000
 398:	e3e00902 	mvn	r0, #32768	; 0x8000
 39c:	e92d4ff0 	push	{r4, r5, r6, r7, r8, r9, sl, fp, lr}
 3a0:	e3a05000 	mov	r5, #0
 3a4:	e59fb234 	ldr	fp, [pc, #564]	; 0x5e0
 3a8:	e59b1000 	ldr	r1, [fp]
 3ac:	e5c12000 	strb	r2, [r1]
 3b0:	e59bc000 	ldr	ip, [fp]
 3b4:	e59f1228 	ldr	r1, [pc, #552]	; 0x5e4
 3b8:	e5cc2001 	strb	r2, [ip, #1]
 3bc:	e1c300b0 	strh	r0, [r3]
 3c0:	e1c310b2 	strh	r1, [r3, #2]
 3c4:	e24dd014 	sub	sp, sp, #20
 3c8:	e3a04000 	mov	r4, #0
 3cc:	e1a00004 	mov	r0, r4
 3d0:	e3a02000 	mov	r2, #0
 3d4:	e1a01005 	mov	r1, r5
 3d8:	e2844001 	add	r4, r4, #1
 3dc:	ebffffa5 	bl	0x278
 3e0:	e35400f0 	cmp	r4, #240	; 0xf0
 3e4:	1afffff8 	bne	0x3cc
 3e8:	e2855001 	add	r5, r5, #1
 3ec:	e35500a0 	cmp	r5, #160	; 0xa0
 3f0:	1afffff4 	bne	0x3c8
 3f4:	e59b3004 	ldr	r3, [fp, #4]
 3f8:	e3530406 	cmp	r3, #100663296	; 0x6000000
 3fc:	03a02004 	moveq	r2, #4
 400:	13a01406 	movne	r1, #100663296	; 0x6000000
 404:	13a02014 	movne	r2, #20
 408:	e3a05000 	mov	r5, #0
 40c:	e59b3000 	ldr	r3, [fp]
 410:	059f11d0 	ldreq	r1, [pc, #464]	; 0x5e8
 414:	e58b1004 	str	r1, [fp, #4]
 418:	e5c32000 	strb	r2, [r3]
 41c:	e3a04000 	mov	r4, #0
 420:	e1a00004 	mov	r0, r4
 424:	e3a02000 	mov	r2, #0
 428:	e1a01005 	mov	r1, r5
 42c:	e2844001 	add	r4, r4, #1
 430:	ebffff90 	bl	0x278
 434:	e35400f0 	cmp	r4, #240	; 0xf0
 438:	1afffff8 	bne	0x420
 43c:	e2855001 	add	r5, r5, #1
 440:	e35500a0 	cmp	r5, #160	; 0xa0
 444:	1afffff4 	bne	0x41c
 448:	e3a04000 	mov	r4, #0
 44c:	e3a05000 	mov	r5, #0
 450:	e3a02001 	mov	r2, #1
 454:	e1a00005 	mov	r0, r5
 458:	e1a01004 	mov	r1, r4
 45c:	e0855002 	add	r5, r5, r2
 460:	ebffff84 	bl	0x278
 464:	e355000a 	cmp	r5, #10
 468:	1afffff8 	bne	0x450
 46c:	e2844001 	add	r4, r4, #1
 470:	e354000a 	cmp	r4, #10
 474:	1afffff4 	bne	0x44c
 478:	e3a07000 	mov	r7, #0
 47c:	e3a01001 	mov	r1, #1
 480:	e3e0307c 	mvn	r3, #124	; 0x7c
 484:	e59b2000 	ldr	r2, [fp]
 488:	e58d7004 	str	r7, [sp, #4]
 48c:	e58d1008 	str	r1, [sp, #8]
 490:	e58d7000 	str	r7, [sp]
 494:	e5c23102 	strb	r3, [r2, #258]	; 0x102
 498:	e58d100c 	str	r1, [sp, #12]
 49c:	e5d23101 	ldrb	r3, [r2, #257]	; 0x101
 4a0:	e59d1004 	ldr	r1, [sp, #4]
 4a4:	e20330fe 	and	r3, r3, #254	; 0xfe
 4a8:	e1530001 	cmp	r3, r1
 4ac:	0afffffa 	beq	0x49c
 4b0:	e59d100c 	ldr	r1, [sp, #12]
 4b4:	e0977001 	adds	r7, r7, r1
 4b8:	03a03001 	moveq	r3, #1
 4bc:	13a03000 	movne	r3, #0
 4c0:	e35700e6 	cmp	r7, #230	; 0xe6
 4c4:	03833001 	orreq	r3, r3, #1
 4c8:	e5d22101 	ldrb	r2, [r2, #257]	; 0x101
 4cc:	e3530000 	cmp	r3, #0
 4d0:	e20230fe 	and	r3, r2, #254	; 0xfe
 4d4:	e58d3004 	str	r3, [sp, #4]
 4d8:	e59d2008 	ldr	r2, [sp, #8]
 4dc:	e59d3000 	ldr	r3, [sp]
 4e0:	e0833002 	add	r3, r3, r2
 4e4:	e58d3000 	str	r3, [sp]
 4e8:	12613000 	rsbne	r3, r1, #0
 4ec:	158d300c 	strne	r3, [sp, #12]
 4f0:	e59d3000 	ldr	r3, [sp]
 4f4:	e3530096 	cmp	r3, #150	; 0x96
 4f8:	13530000 	cmpne	r3, #0
 4fc:	059d3008 	ldreq	r3, [sp, #8]
 500:	02633000 	rsbeq	r3, r3, #0
 504:	058d3008 	streq	r3, [sp, #8]
 508:	e59d3000 	ldr	r3, [sp]
 50c:	e1a06003 	mov	r6, r3
 510:	e243a002 	sub	sl, r3, #2
 514:	e283900c 	add	r9, r3, #12
 518:	e2478002 	sub	r8, r7, #2
 51c:	e287500c 	add	r5, r7, #12
 520:	e1a04008 	mov	r4, r8
 524:	ea000002 	b	0x534
 528:	e2844001 	add	r4, r4, #1
 52c:	e1540005 	cmp	r4, r5
 530:	0a00000a 	beq	0x560
 534:	e35400ef 	cmp	r4, #239	; 0xef
 538:	8afffffa 	bhi	0x528
 53c:	e35a009f 	cmp	sl, #159	; 0x9f
 540:	8afffff8 	bhi	0x528
 544:	e1a00004 	mov	r0, r4
 548:	e3a02000 	mov	r2, #0
 54c:	e1a0100a 	mov	r1, sl
 550:	e2844001 	add	r4, r4, #1
 554:	ebffff47 	bl	0x278
 558:	e1540005 	cmp	r4, r5
 55c:	1afffff4 	bne	0x534
 560:	e28aa001 	add	sl, sl, #1
 564:	e159000a 	cmp	r9, sl
 568:	1affffec 	bne	0x520
 56c:	e59d3000 	ldr	r3, [sp]
 570:	e287500a 	add	r5, r7, #10
 574:	e283800a 	add	r8, r3, #10
 578:	e1a04007 	mov	r4, r7
 57c:	e3a02001 	mov	r2, #1
 580:	e1a00004 	mov	r0, r4
 584:	e1a01006 	mov	r1, r6
 588:	e0844002 	add	r4, r4, r2
 58c:	ebffff39 	bl	0x278
 590:	e1550004 	cmp	r5, r4
 594:	1afffff8 	bne	0x57c
 598:	e2866001 	add	r6, r6, #1
 59c:	e1580006 	cmp	r8, r6
 5a0:	1afffff4 	bne	0x578
 5a4:	e59b2008 	ldr	r2, [fp, #8]
 5a8:	e1d230b0 	ldrh	r3, [r2]
 5ac:	e353009f 	cmp	r3, #159	; 0x9f
 5b0:	9afffffc 	bls	0x5a8
 5b4:	e59b3004 	ldr	r3, [fp, #4]
 5b8:	e3530406 	cmp	r3, #100663296	; 0x6000000
 5bc:	03a02004 	moveq	r2, #4
 5c0:	13a02014 	movne	r2, #20
 5c4:	13a01406 	movne	r1, #100663296	; 0x6000000
 5c8:	e59b3000 	ldr	r3, [fp]
 5cc:	059f1014 	ldreq	r1, [pc, #20]	; 0x5e8
 5d0:	e58b1004 	str	r1, [fp, #4]
 5d4:	e5c32000 	strb	r2, [r3]
 5d8:	e59b2000 	ldr	r2, [fp]
 5dc:	eaffffae 	b	0x49c
 5e0:	03000020 	tsteq	r0, #32
 5e4:	00007dad 	andeq	r7, r0, sp, lsr #27
 5e8:	0600a000 	streq	sl, [r0], -r0
 5ec:	e92d4070 	push	{r4, r5, r6, lr}
 5f0:	e59f606c 	ldr	r6, [pc, #108]	; 0x664
 5f4:	e59f506c 	ldr	r5, [pc, #108]	; 0x668
 5f8:	e0466005 	sub	r6, r6, r5
 5fc:	e1b06146 	asrs	r6, r6, #2
 600:	0a000007 	beq	0x624
 604:	e3a04000 	mov	r4, #0
 608:	e2455004 	sub	r5, r5, #4
 60c:	e2844001 	add	r4, r4, #1
 610:	e5b53004 	ldr	r3, [r5, #4]!
 614:	e1a0e00f 	mov	lr, pc
 618:	e12fff13 	bx	r3
 61c:	e1560004 	cmp	r6, r4
 620:	1afffff9 	bne	0x60c
 624:	e59f6040 	ldr	r6, [pc, #64]	; 0x66c
 628:	e59f5040 	ldr	r5, [pc, #64]	; 0x670
 62c:	e0466005 	sub	r6, r6, r5
 630:	ebfffef6 	bl	0x210
 634:	e1b06146 	asrs	r6, r6, #2
 638:	0a000007 	beq	0x65c
 63c:	e3a04000 	mov	r4, #0
 640:	e2455004 	sub	r5, r5, #4
 644:	e2844001 	add	r4, r4, #1
 648:	e5b53004 	ldr	r3, [r5, #4]!
 64c:	e1a0e00f 	mov	lr, pc
 650:	e12fff13 	bx	r3
 654:	e1560004 	cmp	r6, r4
 658:	1afffff9 	bne	0x644
 65c:	e8bd4070 	pop	{r4, r5, r6, lr}
 660:	e12fff1e 	bx	lr
 664:	0300002c 	tsteq	r0, #44	; 0x2c
 668:	0300002c 	tsteq	r0, #44	; 0x2c
 66c:	03000030 	tsteq	r0, #48	; 0x30
 670:	0300002c 	tsteq	r0, #44	; 0x2c
 674:	e1a0c00d 	mov	ip, sp
 678:	e92ddff8 	push	{r3, r4, r5, r6, r7, r8, r9, sl, fp, ip, lr, pc}
 67c:	e24cb004 	sub	fp, ip, #4
 680:	e24bd028 	sub	sp, fp, #40	; 0x28
 684:	e89d6ff0 	ldm	sp, {r4, r5, r6, r7, r8, r9, sl, fp, sp, lr}
 688:	e12fff1e 	bx	lr
 68c:	00000000 	andeq	r0, r0, r0
 690:	04000000 	streq	r0, [r0], #-0
 694:	0600a000 	streq	sl, [r0], -r0
 698:	04000006 	streq	r0, [r0], #-6
 69c:	0800035c 	stmdaeq	r0, {r2, r3, r4, r6, r8, r9}
 6a0:	08000318 	stmdaeq	r0, {r3, r4, r8, r9}
 6a4:	52416b64 	subpl	r6, r1, #100, 22	; 0x19000
 6a8:	0000004d 	andeq	r0, r0, sp, asr #32
